ARM GAS  /tmp/cccUnpB8.s 			page 1


   1              		.syntax unified
   2              		.cpu cortex-m4
   3              		.fpu softvfp
   4              		.eabi_attribute 20, 1
   5              		.eabi_attribute 21, 1
   6              		.eabi_attribute 23, 3
   7              		.eabi_attribute 24, 1
   8              		.eabi_attribute 25, 1
   9              		.eabi_attribute 26, 1
  10              		.eabi_attribute 30, 2
  11              		.eabi_attribute 34, 1
  12              		.eabi_attribute 18, 4
  13              		.thumb
  14              		.file	"chcore_v7m.c"
  15              		.text
  16              	.Ltext0:
  17              		.section	.gnu.lto_.jmpfuncs.673f7047f9a837e7,"",%progbits
  18 0000 789C6362 		.ascii	"x\234cb`b\300\006\270\24043\030\263\000I\000\001\302"
  18      6062C006 
  18      B8A03433 
  18      18B30049 
  18      0001C2
  19 0013 0019     		.ascii	"\000\031"
  20              		.text
  21              		.section	.gnu.lto_.inline.673f7047f9a837e7,"",%progbits
  22 0000 789C6362 		.ascii	"x\234cb`b\300\006\334\24043\003\003\277\030#\003\223"
  22      6062C006 
  22      DCA03433 
  22      0303BF18 
  22      230393
  23 0013 C8851E46 		.ascii	"\310\205\036F\006\266\005\362`\325L\334`\031N\016\240"
  23      06B605F2 
  23      60D54CDC 
  23      60194E0E 
  23      A0
  24 0024 04CF8358 		.ascii	"\004\317\203X\2708\013\003\0277HhN$\\\210\221\013D\002"
  24      B8380B03 
  24      17374868 
  24      4E245C88 
  24      910B4402 
  25 0038 000FB806 		.ascii	"\000\017\270\006\321"
  25      D1
  26              		.text
  27              		.section	.gnu.lto_.pureconst.673f7047f9a837e7,"",%progbits
  28 0000 789C6362 		.ascii	"x\234cb`b`g\200\000f\006+f+\026+\000\002\367\000\304"
  28      60626067 
  28      80006606 
  28      2B662B16 
  28      2B0002F7 
  29              		.text
  30              		.section	.gnu.lto__port_irq_epilogue.part.0.673f7047f9a837e7,"",%progbits
  31 0000 789CAD52 		.ascii	"x\234\255RMHTQ\024>\347\276\367F\235\306\212\026\201"
  31      4D485451 
  31      143EE7BE 
  31      F7469DC6 
  31      8A1681
  32 0013 10320861 		.ascii	"\0202\010a\220\314K\214\\\005\205mZ\014\206\243P+\031"
ARM GAS  /tmp/cccUnpB8.s 			page 2


  32      90CC4B8C 
  32      5C05856D 
  32      5A0C86A3 
  32      502B19
  33 0026 9FA68F1C 		.ascii	"\237\246\217\034g\230\031Ci\341\235\037Pt\241\014\012"
  33      67981943 
  33      69E19D1F 
  33      5074A10C 
  33      0A
  34 0037 69050AFD 		.ascii	"i\005\012\375\230B\022m\\N\205\224HF+\2216\263\0131"
  34      9842126D 
  34      5C4E8594 
  34      48462B91 
  34      36B30B31 
  35 004b 428908B4 		.ascii	"B\211\010\264\232\316\275\357\275q\014A\027\035\230"
  35      9ACEBDEF 
  35      BD710C41 
  35      171D98
  36 005a 7BEEDC73 		.ascii	"{\356\334s\276\357\273\367;\217\001\203\177\343\032"
  36      BEEFBBF7 
  36      3B8F0183 
  36      7FE31A
  37 0069 FDDA5580 		.ascii	"\375\332U\200\027\224\261\004\3205\266J\033\0272\231"
  37      1794B104 
  37      D035B64A 
  37      1B173299 
  38 0079 195386AA 		.ascii	"\031S\206\252\201\273U\261z\024\324\304i\242Tu6\032"
  38      81BB55B1 
  38      7A14D4C4 
  38      69A25475 
  38      361A
  39 008b A2D800C2 		.ascii	"\242\330\000\302\200\213)\252\206\003\267P\260\252U"
  39      808B29AA 
  39      8603B750 
  39      B0AA55
  40 009a 30C37926 		.ascii	"0\303y&\2674\277\301&y6=\303\177\345\363\210&\322\015"
  40      B734BFC1 
  40      2679363D 
  40      C37FE5F3 
  40      8826D20D 
  41 00ae 2E211808 		.ascii	".!\030\0107\351\017zeb\352\376+I\354Tnwc\32459\236M"
  41      37E90F7A 
  41      6562EAFE 
  41      2B49EC54 
  41      6E7763D4 
  42 00c6 4F17B070 		.ascii	"O\027\260p\024`&\373\373\335\303\012>\235\034\343\177"
  42      146026FB 
  42      FBDDC30A 
  42      3E9D1CE3 
  42      7F
  43 00d7 0867A2C2 		.ascii	"\010g\242\302 t$\311Lvmx\264bx\017\2512\210\036\206"
  43      207424C9 
  43      4C766D78 
  43      B462780F 
  43      A932881E 
  44 00ec 5C603C97 		.ascii	"\\`<\227\317\257\277*\363 \004q\006\253\350\205A|LY"
  44      CFAFBF2A 
ARM GAS  /tmp/cccUnpB8.s 			page 3


  44      F3200471 
  44      06ABE885 
  44      417C4C59 
  45 0100 B1B34AF9 		.ascii	"\261\263J\371)e\015L\324\010\241A\232\3631\257|\014"
  45      29650D4C 
  45      D408A141 
  45      9AF331AF 
  45      7C0C
  46 0112 4533ADC2 		.ascii	"E3\255\302\303ft\211\254\264 \223y\025\022\333\3115"
  46      C3667489 
  46      ACB42093 
  46      791512DB 
  46      C935
  47 0124 8FDD6D51 		.ascii	"\217\335mQ;\340\354\317\357\263\247\265\002\225\245"
  47      3BE0ECCF 
  47      EFB3A7B5 
  47      0295A5
  48 0133 03A4332B 		.ascii	"\003\2443+\025\210YR\323X\240_\021CW\254\311W\302 >"
  48      15885952 
  48      D358A05F 
  48      114357AC 
  48      C957C220 
  49 0148 E2F7AF98 		.ascii	"\342\367\257\230\244E\321i\267-Cr\213\244\202\370\234"
  49      A445D169 
  49      B72D4372 
  49      8BA482F8 
  49      9C
  50 0159 E096922C 		.ascii	"\340\226\222,}\200\344\346[\222\272\030\304y\252t\""
  50      7D80E4E6 
  50      5B92BA18 
  50      C479AA74 
  50      22
  51 016a 93C7CBC0 		.ascii	"\223\307\313\300\254\003K\227\216Ekj$\2659^\341t*t*"
  51      AC034B97 
  51      8E456B6A 
  51      24B5395E 
  51      E1742A74 
  52 017f ED2273F2 		.ascii	"\355\"s\362'\340\000\220\"\371\027\027\237\275\266\013"
  52      27E00090 
  52      22F91717 
  52      9FBDB60B 
  53 018f E7618E53 		.ascii	"\347a\216S\324\231X\362\000\246\022\234\2374\261\324"
  53      D49958F2 
  53      00A6129C 
  53      9F34B1D4 
  54 019f A6511C1A 		.ascii	"\246Q\034\032h\263\256,gQF\355\245 y\276\245\026&*\035"
  54      68B3AE2C 
  54      675146ED 
  54      A52079BE 
  54      A516262A 
  55 01b4 7155B217 		.ascii	"qU\262\027\024\355\341\376\030\\A\236\341\211-b\222"
  55      14EDE1FE 
  55      185C419E 
  55      E1892D62 
  55      92
  56 01c5 1FE2081E 		.ascii	"\037\342\010\0366\\\242\002X\205\344\366\233uOal\316"
  56      365CA202 
ARM GAS  /tmp/cccUnpB8.s 			page 4


  56      5885E4F6 
  56      9B754F61 
  56      6CCE
  57 01d7 083ECF9D 		.ascii	"\010>\317\235\301 \276\264\235\027B\0062\313u\204)\334"
  57      C120BEB4 
  57      9D174206 
  57      32CB7584 
  57      29DC
  58 01e9 EFFBACED 		.ascii	"\357\373\254\355\273\273@\273W\233/\236\011\300GH\345"
  58      BBBB40BB 
  58      579B2F9E 
  58      09C04748 
  58      E5
  59 01fa 16964E39 		.ascii	"\026\226N9\217\321\356\301\016\037\022f\0343\304\263"
  59      8FD1EEC1 
  59      0E1F1266 
  59      1C33C4B3 
  60 020a 284CF400 		.ascii	"(L\364\000\274\207\364\327Dm\241K\\_+\276{\0135\017"
  60      BC87F4D7 
  60      446DA14B 
  60      5C5F2BBE 
  60      7B0B350F 
  61 021e 552BE4CD 		.ascii	"U+\344\315N\352\313\304\271}\036\327\037\346\261e\262"
  61      4EEACBC4 
  61      B97D1ED7 
  61      1FE6B165 
  61      B2
  62 022f A5CCFB4D 		.ascii	"\245\314\373M,7P-bV\013\314\273\377\201Y+b\326\344\267"
  62      2C37502D 
  62      62560BCC 
  62      BBFF8159 
  62      2B62D6E4 
  63 0244 FF0912B9 		.ascii	"\377\011\022\271\225'h1;\321LX*\012\323\352|>\275\241"
  63      95276831 
  63      3BD14C58 
  63      2A0AD3EA 
  63      7C3EBDA1 
  64 0258 CB6C331B 		.ascii	"\313l3\033\003z8\246\033\341P(\334\243w\364\305\365"
  64      037A38A6 
  64      1BE15028 
  64      DCA377F4 
  64      C5F5
  65 026a 067FE07A 		.ascii	"\006\177\340z@7{\214\356\336\366\016\335\010\305\314"
  65      40377B8C 
  65      EEDEF60E 
  65      DD08C5CC 
  66 027a 586BA761 		.ascii	"Xk\247a\370\272\300\025\355\210\365v\307\365\003\241"
  66      F8BAC015 
  66      ED88F576 
  66      C7F503A1 
  67 028a 9170341E 		.ascii	"\221p4\036\323\2576\371\033\374}\272\321e\204\243\035"
  67      D3AF36F9 
  67      1BFC7DBA 
  67      D16584A3 
  67      1D
  68 029b AD77EB43 		.ascii	"\255w\353C>\003T#\336\027q\211\305W[\356o\012x\317^"
  68      3E035423 
ARM GAS  /tmp/cccUnpB8.s 			page 5


  68      DE177189 
  68      C5575BEE 
  68      6F0A78CF 
  69 02b0 A8F14662 		.ascii	"\250\361Fb\0217(\227\243p<\036\2164\336\276\021\015"
  69      11372897 
  69      A3703C1E 
  69      8E34DEBE 
  69      110D
  70 02c2 1B8178D0 		.ascii	"\033\201x\320\270S\356\0174\211b\015u\271\201EA\211"
  70      B853EE0F 
  70      3489620D 
  70      75B98145 
  70      4189
  71 02d4 45E02F4A 		.ascii	"E\340/JnJ\016"
  71      6E4A0E
  72              		.text
  73              		.section	.gnu.lto_SVC_Handler.673f7047f9a837e7,"",%progbits
  74 0000 789C9552 		.ascii	"x\234\225RMh\023A\024~of\267\015\325\212\342\251 \022"
  74      4D681341 
  74      147E6F66 
  74      B70DD58A 
  74      E2A92012 
  75 0014 2ADE6AB6 		.ascii	"*\336j\266\350A<\010JO\036B\245\251\240\247\222\256"
  75      E8413C08 
  75      4A4F1E42 
  75      A5A9A0A7 
  75      92AE
  76 0026 6BB2D874 		.ascii	"k\262\330t\227\335\264\244\247N\322\202JzH\305\237V"
  76      97DDB4A4 
  76      A74ED282 
  76      4A7A48C5 
  76      9F56
  77 0038 105A442C 		.ascii	"\020ZD,\264\376\340A\020\017F\004\241\266V\024=x\020"
  77      B4FEE041 
  77      100F4604 
  77      A1B65614 
  77      3D7810
  78 004b D343F120 		.ascii	"\323C\361 J\213 \036\332\2563\263\331\244\325b\364\301"
  78      4A8B201E 
  78      DAAE33B3 
  78      D9A4D562 
  78      F4C1
  79 005d ECDB79EF 		.ascii	"\354\333y\357}\337\274\367\315\020 \360\2735\3615C\001"
  79      7DDFBCF7 
  79      CD1020F0 
  79      BB35F135 
  79      4301
  80 006f D6B8470A 		.ascii	"\326\270G\012H\012\013\000\331\020A\024?\2000Hp\360"
  80      480A0B00 
  80      D9104114 
  80      3F803048 
  80      70F0
  81 0081 0C8A52DA 		.ascii	"\014\212R\332\014\223\214].-}.\341\370\225\342\360\004"
  81      0C938C5D 
  81      2E2D7D2E 
  81      E1F895E2 
  81      F004
ARM GAS  /tmp/cccUnpB8.s 			page 6


  82 0093 5BF53C44 		.ascii	"[\365<D\0239\355A\004\035\3414\337`X:\242l>\307\307"
  82      1339ED41 
  82      041DE134 
  82      DF60583A 
  82      A26C3EC7 
  83 00a8 16475F5C 		.ascii	"\026G_\\ob\023\271\002[\347P\023)\201#\377\206,\255"
  83      6F6213B9 
  83      025BE750 
  83      13298123 
  83      FF862CAD 
  84 00bc 3DBE7A60 		.ascii	"=\276z`\234\025\207'\203S\025\002N-\354}R,y\336\275"
  84      9C158727 
  84      83531502 
  84      4E2DEC7D 
  84      522C79DE 
  85 00d1 D5C5C569 		.ascii	"\325\305\305i\334\325@!\216\267\260\031\224\262W\271"
  85      DCD54021 
  85      8EB7B019 
  85      94B257B9 
  86 00e1 9FE43EC4 		.ascii	"\237\344>\304\375m\356\271\2510\314X!\354\347A\260s"
  86      FD6DEEB9 
  86      A930CC58 
  86      21ECE741 
  86      B073
  87 00f3 EBE45FA1 		.ascii	"\353\344_\241\306)$\302\323\005\310\256\254/\277\304"
  87      C62924C2 
  87      D305C8AE 
  87      AC2FBFC4 
  88 0103 4AB10FF6 		.ascii	"J\261\017\366\267\305\374\374\3506\340\214wx^GI\300"
  88      B7C5FCFC 
  88      E836E08C 
  88      77785E47 
  88      49C0
  89 0115 6584012A 		.ascii	"e\204\001*\324\247\376\025\354\205\013x\223\215\035"
  89      D4A7FE15 
  89      EC850B78 
  89      938D1D
  90 0124 33790DB7 		.ascii	"3y\015\267\004\206d\331,\344\226\005q\034\247P-7%s\257"
  90      048664D9 
  90      2CE49605 
  90      711CA750 
  90      2D372573 
  91 0139 20F7E579 		.ascii	" \367\345y~>K}\332\004R\031\236\005\342\007\374~yX\224"
  91      7E3E4B7D 
  91      DA045219 
  91      9E05E207 
  91      FC7E7958 
  92 014e 0EE587BE 		.ascii	"\016\345\207\276\217\324\007\225\012\217Ji\302\260\005"
  92      8FD40795 
  92      0A8F4A69 
  92      C2B005
  93 015d 4091DCDF 		.ascii	"@\221\334\337\206\274\221=\001@\225\321Je\371\342\326"
  93      86BC913D 
  93      014095D1 
  93      4A65F9E2 
  93      D6
  94 016e 3E6C2F64 		.ascii	">l/d/2\317\033\224\312\347\261\226\364\0111\332\002"
ARM GAS  /tmp/cccUnpB8.s 			page 7


  94      2F32CF1B 
  94      94CAE7B1 
  94      96F40931 
  94      DA02
  95 0180 E456D6C7 		.ascii	"\344V\326\307\346\002\245*\032\315\275~\306G\271+e\013"
  95      E602A52A 
  95      1ACDBD7E 
  95      C647B92B 
  95      650B
  96 0192 9422BE50 		.ascii	"\224\"\276P\0107p\263TSe\251\352*\264\325\334\364F\031"
  96      083770B3 
  96      545365A9 
  96      EA2AB4D5 
  96      DCF44619 
  97 01a6 A580A1CA 		.ascii	"\245\200\241\312\213y\232\377\3324\363\220\261KE\366"
  97      8B799AFF 
  97      DA34F390 
  97      B14B45F6 
  98 01b6 D3438FCA 		.ascii	"\323C\217\312\306?\325l\\\304dH6\377\340\355\037\315"
  98      C63FD56C 
  98      5CC46448 
  98      36FFE0ED 
  98      1FCD
  99 01c8 7BD73EEE 		.ascii	"{\327>\356\316\252q|\264\341\326\331\223w\213\264\372"
  99      CEAA717C 
  99      B4E1D6D9 
  99      93778BB4 
  99      FA
 100 01d9 04DEAFA8 		.ascii	"\004\336\257\250\325\301(_\012_j0\340\322\337\006\254"
 100      D5C1285F 
 100      0A5F6A30 
 100      E0D2DF06 
 100      AC
 101 01ea 1C5FCDFF 		.ascii	"\034_\315\377(\347\353\375\006\337@\2664\275\317g\017"
 101      28E7EBFD 
 101      06DF40B6 
 101      34BDCF67 
 101      0F
 102 01fb AC938FC5 		.ascii	"\254\223\217\305\237\246\000h\221\210\326\2264\273\315"
 102      9FA60068 
 102      9188D696 
 102      34BBCD
 103 020a F69866B9 		.ascii	"\366\230f\271\232n\245RV\257f[N\332\325\216wD\333\242"
 103      9A6EA552 
 103      56AF665B 
 103      4EDAD58E 
 103      7744DBA2 
 104 021e 194D4FEA 		.ascii	"\031MO\352\226ct\365\037NEt\250\323\323\031;\322\252"
 104      966374F5 
 104      1F4E4574 
 104      A8D3D319 
 104      3BD2AA
 105 0231 0877684B 		.ascii	"\010whK\254\221Ikm\321\330\211\230f\366\352=}g\015M"
 105      AC91496B 
 105      6DD1D889 
 105      9866F6EA 
 105      3D7D670D 
ARM GAS  /tmp/cccUnpB8.s 			page 8


 106 0246 4FB9A6DB 		.ascii	"O\271\246\333\225\320\365H\022\352\034\303\355\353I"
 106      95D0F548 
 106      12EA1CC3 
 106      EDEB49
 107 0255 37463B62 		.ascii	"7F;b\341\375\255-a\333\265\033\200\036u`G\332\262\333"
 107      E1FDAD2D 
 107      61DBB51B 
 107      801E7560 
 107      47DAB2DB 
 108 0269 CF9D742C 		.ascii	"\317\235t,=\226\216\353\347\033\243\261\016\221l\341"
 108      3D968EEB 
 108      E71BA3B1 
 108      0E916CE1 
 109 0279 550D401C 		.ascii	"U\015@\034\240\256\375\237\315&A\355\217\367\364\031"
 109      A0AEFD9F 
 109      CD2641ED 
 109      8FF7F419 
 110 0289 3B055577 		.ascii	";\005Uw\3345l\307\024tP\2372R\2263\000\277\000g\322"
 110      DC356CC7 
 110      1474509F 
 110      32529633 
 110      00BF0067 
 111 029e 2B70     		.ascii	"+p"
 112              		.text
 113              		.section	.gnu.lto__port_irq_epilogue.673f7047f9a837e7,"",%progbits
 114 0000 789C9552 		.ascii	"x\234\225RMh\023Q\020\236yo7]k\225\234*z\250\241 \010"
 114      4D681351 
 114      109E796F 
 114      375D6B95 
 114      9C2A7AA8 
 115 0017 4A56F090 		.ascii	"JV\360\220\203\027%'\017AhZ\320S\331\254K\263\320\355"
 115      83172527 
 115      0F41685A 
 115      D053D9AC 
 115      4BB3D0ED 
 116 002b 86242D11 		.ascii	"\206$-\021\017}\311\346 x\011=\211m\321*\012\255U{,"
 116      0F7DC9E6 
 116      2078093D 
 116      896DD12A 
 116      0AAD557B 
 117 0040 3487D44B 		.ascii	"4\207\324K+%)\305\010\245\247x\021\304\202(\236\204"
 117      2B2529C5 
 117      08A5A778 
 117      11C48228 
 117      9E84
 118 0052 36BEB7DB 		.ascii	"6\276\267\333l\323P,\016\2747\263;?\337\314|\217\000"
 118      6CD3502C 
 118      0EBC37B3 
 118      3B3FDFCC 
 118      7C8F00
 119 0065 814EB9C1 		.ascii	"\201N\271\301\3179\012P\346\032\003\200\244T\003\310"
 119      CF390A50 
 119      E61A0380 
 119      A45403C8 
 120 0075 2B84D07A 		.ascii	"+\204\320z/\260n\251\034\001\326CQ\026\277Q\362t^\221"
 120      2FB06EA9 
 120      1C01D643 
ARM GAS  /tmp/cccUnpB8.s 			page 9


 120      5116BF51 
 120      F2745E91 
 121 0089 11850108 		.ascii	"\021\205\001\010\223\204J2N\336C\267\332{Ri4\233\357"
 121      93844A32 
 121      4EDE43B7 
 121      DA7B5269 
 121      349BEF
 122 009c 7EAF3DDB 		.ascii	"~\257=\333\305E\322C\301D\220\304\305E\206\"c\245\020"
 122      C545D243 
 122      C14490C4 
 122      C5458622 
 122      63A510
 123 00af 80EE7E0E 		.ascii	"\200\356~\016\362[\324\030B\"4\375\010\005\005\240\037"
 123      F25BD418 
 123      422234FD 
 123      080505A0 
 123      1F
 124 00c0 E6189B6A 		.ascii	"\346\030\233j|\236\257\256\342\224\303\326Y\261\322"
 124      7C9EAFAE 
 124      E294C3D6 
 124      59B1D2
 125 00cf 6CE24513 		.ascii	"l\342E\023yT\002E\352]4\221\204\\E\245\243\263\210\177"
 125      79540245 
 125      EA5D3491 
 125      845C45A5 
 125      A3B3887F 
 126 00e3 C801A006 		.ascii	"\310\001\240\006\205\237\333\316\353\013>\244gT\336"
 126      859FDBCE 
 126      EB0B3EA4 
 126      6754DE
 127 00f2 7C9AA697 		.ascii	"|\232\246\2275|\201\375~?\354\307\346*\365\003\036\357"
 127      357C81FD 
 127      7E3FECC7 
 127      E62AF503 
 127      1EEF
 128 0104 6FC9001A 		.ascii	"o\311\000\032\316\241\314\261\004\036\341\207\202;*"
 128      CEA1CCB1 
 128      041EE187 
 128      823B2A
 129 0113 C20C37F9 		.ascii	"\302\0147\371\012\251\267\307>x\213\263\354\311M\023"
 129      0AA9B7C7 
 129      3E788BB3 
 129      ECC94D13 
 130 0123 A523E887 		.ascii	"\245#\350\207\376\245\003\277\354\365W\205\017;\313"
 130      FEA503BF 
 130      ECF55785 
 130      0F3BCB
 131 0132 CD6DF4EA 		.ascii	"\315m\364\352\217 \275\002\013\254\310\323\002\323\360"
 131      8F20BD02 
 131      0BACC8D3 
 131      02D3F0
 132 0141 94AB2E51 		.ascii	"\224\253.QBa;\016;\353VS\334\254\004\266\346\253\202"
 132      42613B0E 
 132      3BEB5653 
 132      DCAC04B6 
 132      E6AB82
 133 0154 B3E22CF8 		.ascii	"\263\342,\370\351\022\257 \302\200\005\271s\035\212"
ARM GAS  /tmp/cccUnpB8.s 			page 10


 133      E912AF20 
 133      C28005B9 
 133      731D8A
 134 0163 BBF933BE 		.ascii	"\273\3713\276\317u\264\313\020\357\275\336K7\301Q\274"
 134      CF75B4CB 
 134      10EFBDDE 
 134      4B37C151 
 134      BC
 135 0174 208087F0 		.ascii	" \200\207\360\207=bA\023O\351\336\010\234\251\356V\264"
 135      873D6241 
 135      134FE9DE 
 135      089CA9EE 
 135      56B4
 136 0186 04E54807 		.ascii	"\004\345H\007)\337j\235\244h\370\322\335\320\211\254"
 136      29DF6A9D 
 136      A468F8D2 
 136      DDD089AC 
 137 0196 C0BF58F9 		.ascii	"\300\277X\371>+XYjge\245\376\345\220\225\215\257\277"
 137      3E2B5859 
 137      6A6765A5 
 137      FEE59095 
 137      8DAFBF
 138 01a9 DA581127 		.ascii	"\332X\021'p\014+\032\316s\303Gk\261\240\341\"\366\265"
 138      700C2B1A 
 138      CE73C347 
 138      6BB1A0E1 
 138      22F6B5
 139 01bc AF41769F 		.ascii	"\257Av\237\333\026\344\033\033\257\360\240\027o\302"
 139      DB16E41B 
 139      1BAFF0A0 
 139      176FC2
 140 01cb CADEDACC 		.ascii	"\312\336\332\314y\366\274Pb\373|>\023O\023X\306\223"
 140      79F6BC50 
 140      62FB7C3E 
 140      134F1358 
 140      C693
 141 01dd 1E5DABB1 		.ascii	"\036]\253\2616\031\344I\034C\300\253\341\260\032M\232"
 141      3619E449 
 141      1C43C0AB 
 141      E1B01A4D 
 141      9A
 142 01ee 09F34E5C 		.ascii	"\011\363N\\\2653\252n[\226=\246\246\354t6\243\336\032"
 142      B533AA6E 
 142      5B963DA6 
 142      A6EC7436 
 142      A3DE1A
 143 0201 88456339 		.ascii	"\210Ec9UO\352v\332\030\236\210Xa\375?\343\223 Oh\243"
 143      554FEA76 
 143      DA189E88 
 143      5861FD3F 
 143      E393204F 
 144 0217 E3C6F563 		.ascii	"\343\306\365c\263\214\\V\215\306\342\267\343\2529\246"
 144      B38C5C56 
 144      8DC6E2B7 
 144      E3AA39A6 
 145 0227 8F8EDF37 		.ascii	"\217\216\3377T\335\312\230\231\341\021]\347\231\301"
 145      54DDCA98 
ARM GAS  /tmp/cccUnpB8.s 			page 11


 145      99E1115D 
 145      E799C1
 146 0236 587C2094 		.ascii	"X| \224\3202F*m^\015]\272\006$\015]\226a\331\351\007"
 146      D032462A 
 146      6D5E0D5D 
 146      BA06240D 
 146      5D9661D9 
 147 024c 20E9D95C 		.ascii	" \351\331\\\352/Vc\370\363"
 147      EA2F5663 
 147      F8F3
 148              		.text
 149              		.section	.gnu.lto_.symbol_nodes.673f7047f9a837e7,"",%progbits
 150 0000 789C45CA 		.ascii	"x\234E\312\253\015\2000\030E\341{\377\266s\340\230\215"
 150      AB0D8030 
 150      1845E17B 
 150      FFB673E0 
 150      988D
 151 0012 2D6E31A4 		.ascii	"-n1\244\222\005\212\3001\007\236IHx\031$\202\006\216"
 151      92058AC0 
 151      31079E49 
 151      48781924 
 151      82068E
 152 0025 FB926330 		.ascii	"\373\222c04(\331M\001\375\002H9\221'\305\227\261%/\312"
 152      3428D94D 
 152      01FD0248 
 152      399127C5 
 152      97B1252F 
 153 003a 3ED946B9 		.ascii	">\331F\271\262\016\211\266S\376'\017*\2247\322!`\356"
 153      B20E89B6 
 153      53FE270F 
 153      2A9437D2 
 153      2160EE
 154 004d D6CA7960 		.ascii	"\326\312y`\234j<\330\006 *"
 154      9C6A3CD8 
 154      06202A
 155              		.text
 156              		.section	.gnu.lto_.refs.673f7047f9a837e7,"",%progbits
 157 0000 789C6362 		.ascii	"x\234cb`b`g\200\000&\006&F&&\006\000\000\352\000\025"
 157      60626067 
 157      80002606 
 157      26462626 
 157      060000EA 
 158              		.text
 159              		.section	.gnu.lto_.decls.673f7047f9a837e7,"",%progbits
 160 0000 789CBD57 		.ascii	"x\234\275W}l\024\307\025\237\331;\177\\\3558\204&\221"
 160      7D6C14C7 
 160      159FD93B 
 160      7F5CED38 
 160      842691
 161 0013 5D55C254 		.ascii	"]U\302TM\033\021\331g\014U]\251\005\314\031j\377\341"
 161      4D1B11D9 
 161      670C555D 
 161      A905CC19 
 161      6AFFE1
 162 0026 62DD05D4 		.ascii	"b\335\005\324\377\226eo\341N\271\017\263\267\016Dj\225"
 162      FF96656F 
 162      E14EB90F 
ARM GAS  /tmp/cccUnpB8.s 			page 12


 162      B3B70E44 
 162      6A95
 163 0038 B5CF0537 		.ascii	"\265\317\0057E\355\341\332\021%\021>\010!\004\0101\206"
 163      45EDE1DA 
 163      1125113E 
 163      08210408 
 163      3186
 164 004a 0046060E 		.ascii	"\000F\006\016\244\270HQ+\232\2708\0378\\\353\2264MI"
 164      A4B84851 
 164      2B9AB838 
 164      1F385CEB 
 164      96344D49 
 165 005e 1DA04550 		.ascii	"\035\240EP\354\353\333\331\217\333]\357\342\275\250"
 165      ECEBDBD9 
 165      8FDB5DEF 
 165      E2BDA8
 166 006d EA4AEFDD 		.ascii	"\352J\357\335\334\356\314\357\375\336\23373o(D\241\237"
 166      DCEECCEF 
 166      FDDE9B37 
 166      336F2844 
 166      A19F
 167 007f 608472F0 		.ascii	"`\204r\360LT!t\323\205\220\033!\264\014\345\237b\220"
 167      4C542174 
 167      D385901B 
 167      21B40CE5 
 167      9F6290
 168 0092 BD200740 		.ascii	"\275 \007@^\0079\014r\024\344\030\232\375H\375*@N)\277"
 168      5E07390C 
 168      7214E418 
 168      9AFD48FD 
 168      2A404E29 
 169 00a7 E5206741 		.ascii	"\345 gAJ@\216\203\214\201\\\0049\007\262\034\344\003"
 169      4A408E83 
 169      8C815C04 
 169      3907B21C 
 169      E403
 170 00b9 908F4086 		.ascii	"\220\217@\206@\256\202P \357\202\\\326\331\235\000\231"
 170      40AE8250 
 170      20EF825C 
 170      D6D99D00 
 170      99
 171 00ca 54ECA91C 		.ascii	"T\354\251\034\314\217\304\251T\261\243\267{J\261)\331"
 171      CC8FC4A9 
 171      54B1A3B7 
 171      7B4AB129 
 171      D9
 172 00db F94CE7CF 		.ascii	"\371L\347\317a\035\356\015\220)\220[\026\270G\025\254"
 172      611DEE0D 
 172      9029905B 
 172      16B84715 
 172      AC
 173 00ec 12934F2A 		.ascii	"\022\223O*\336]\220{ \337\207\030\376\000d\237b\027"
 173      DE5D907B 
 173      20DF8718 
 173      FE00649F 
 173      6217
 174 00fe 4BBE6079 		.ascii	"K\276`y\234\204\261\014\332\215X\266\261Wg\323\374,"
ARM GAS  /tmp/cccUnpB8.s 			page 13


 174      9C84B10C 
 174      DA8D58B6 
 174      B15767D3 
 174      FC2C
 175 0110 407BC44C 		.ascii	"@{\304L6\373\366\314`UO\272+\223\313-G\217\243~\021"
 175      36FBF6CC 
 175      60554FBA 
 175      2B93CB2D 
 175      478FA37E 
 176 0125 9EF43651 		.ascii	"\236\3646Q\304\002\203\227=\206~\214\031\\\341A\325"
 176      C4028397 
 176      3D867E8C 
 176      195CE141 
 176      D5
 177 0136 A451EE21 		.ascii	"\244Q\356!\023\206\020\203\367\341\307\225\326Z\227"
 177      13861083 
 177      F7E1C795 
 177      D65A97
 178 0145 0C47A17A 		.ascii	"\014G\241z\214\026\241\327a|J\024\273\276\215-L\"\364"
 178      8C16A1D7 
 178      617C4A14 
 178      BBBE8D2D 
 178      4C22F4
 179 0158 2DF42AF9 		.ascii	"-\364*\371~Pt\021|\011a/^\240\357\302\340W0e&\232Me"
 179      7E507411 
 179      7C09612F 
 179      5EA0EFC2 
 179      E0573065 
 180 0170 C7473FDF 		.ascii	"\307G?\337\216w&\323\227\304\251\\\356\341\002\270\276"
 180      8E7726D3 
 180      97C4A95C 
 180      EEE102B8 
 180      BE
 181 0181 66C13589 		.ascii	"f\3015\2111\374\337\217\027!\243\351\203V\2463#\327"
 181      31FCDF8F 
 181      1721A3E9 
 181      8356A633 
 181      23D7
 182 0193 768838D5 		.ascii	"v\2108\325\231\315\345\026\310p\024\372\215\015\300"
 182      99CDE516 
 182      C87014FA 
 182      8D0DC0
 183 01a2 A1D90069 		.ascii	"\241\331\000i\010\362\300;X\354\025\357\347r.\244\""
 183      08F2C03B 
 183      58EC15EF 
 183      E7722EA4 
 183      22
 184 01b3 BC310B81 		.ascii	"\2741\013\201\004G4\006\347\26098G\254\014dn\377\266"
 184      04473406 
 184      E7B03938 
 184      47AC0C64 
 184      6EFFB6
 185 01c6 9CF01B58 		.ascii	"\234\360\033X\241\302\017;\202?j\206\177\3232\366\303"
 185      A1C20F3B 
 185      823F6A86 
 185      7FD332F6 
 185      C3
ARM GAS  /tmp/cccUnpB8.s 			page 14


 186 01d7 BFFCAB6D 		.ascii	"\277\374\253m\354K\321v\230o1\3733\261\023oF\352,\224"
 186      EC4BD176 
 186      986F31FB 
 186      33B1136F 
 186      46EA2C94 
 187 01eb AAB320E5 		.ascii	"\252\263 \345\301\023h\277\234\026\024\203\217\343R"
 187      C11368BF 
 187      9C161483 
 187      8FE352
 188 01fa 60F74F6C 		.ascii	"`\367Ol\235\037H\356 =\322x\271\255\2660\262\235\343"
 188      9D1F48EE 
 188      203DD278 
 188      B9ADB630 
 188      B29DE3
 189 020d 218B39FE 		.ascii	"!\2139\376\227\315\024\2354\272\350A=\022\177p\246\371"
 189      97CD149D 
 189      34BAE841 
 189      3D127F70 
 189      A6F9
 190 021f 5285B505 		.ascii	"R\205\265\005\302?\225=\337\373\366\005\334\005>3\370"
 190      C23F953D 
 190      DFFBF605 
 190      DC053E33 
 190      F8
 191 0230 14F64859 		.ascii	"\024\366HY\3442Zp\0165\274{\344{\242X\312\3403\004h"
 191      E4325A70 
 191      0E35BC7B 
 191      E47BA258 
 191      CAE03304 
 192 0245 A7DB08C4 		.ascii	"\247\333\010\304\340\022\217\2214\374W;Hh\344\263\322"
 192      E0128F91 
 192      34FC573B 
 192      4868E4B3 
 192      D2
 193 0256 9036D487 		.ascii	"\2206\324\207Q\241\335\313\320\013y\256\363\321NiB\253"
 193      51A1DDCB 
 193      D00B79AE 
 193      F3D14E69 
 193      42AB
 194 0268 75AC454A 		.ascii	"u\254EJ\245]M\242\3712\241x\016\317W\200\3459\315\216"
 194      A55D4DA2 
 194      F932A178 
 194      0ECF5780 
 194      E539CD8E 
 195 027c 6F9BEEC6 		.ascii	"o\233\356\306\235$&\3227d\021q\345Y\210\322`0s\347\275"
 195      9D2426D2 
 195      37641171 
 195      E55988D2 
 195      603073E7 
 196 0291 BE2A317D 		.ascii	"\276*1}\021\033\354\333\256_%\\\307&\377\366\365\001"
 196      111BECDB 
 196      AE5F255C 
 196      C726FFF6 
 196      F501
 197 02a3 519CC760 		.ascii	"Q\234\307`i \205\306f\305ky\2311\000\360_\327\201B\023"
 197      692085C6 
 197      66C56B79 
ARM GAS  /tmp/cccUnpB8.s 			page 15


 197      993100F0 
 197      5FD78142 
 198 02b8 1A7D2B33 		.ascii	"\032}+3J\023i\211W\3411\322\006?g\372poR\274T\247r\310"
 198      4A136989 
 198      57E131D2 
 198      063F67FA 
 198      706F52BC 
 199 02d0 168C586D 		.ascii	"\026\214Xm\010\304\275\367\312S\214\0126\351\004\254"
 199      08C4BDF7 
 199      CA538C0A 
 199      36E904AC 
 200 02e0 D4965EE6 		.ascii	"\324\226^\346\276\036\354z\301`Ff3z\260O\235\200\315"
 200      BE1EEC7A 
 200      C1604666 
 200      337AB04F 
 200      9D80CD
 201 02f3 B36796BA 		.ascii	"\263g\226\272\242\003\273Q0\230\221Y\257\036\354\266"
 201      A203BB51 
 201      30989159 
 201      AF1EECB6 
 202 0303 13B04A7B 		.ascii	"\023\260J{f}z\260;\005\203U\233\362\333nk:\213\265\324"
 202      667D7AB0 
 202      3B058355 
 202      9BF2DB6E 
 202      6B3A8BB5 
 203 0318 7C04A5C8 		.ascii	"|\004\245\3102\333U\241\354\024\331W\305\312\312\271"
 203      32DB55A1 
 203      EC14D957 
 203      C5CACAB9 
 204 0328 F7CC3F92 		.ascii	"\367\314?\222M\342\276\333v\317\224:\250\034\344\266"
 204      4DE2BEDB 
 204      76CF943A 
 204      A81CE4B6 
 205 0338 DACAE537 		.ascii	"\332\312\3457\315J\025\336\245\214\032\303\217\220\026"
 205      CD4A15DE 
 205      A58C1AC3 
 205      8F9016
 206 0347 21236A4B 		.ascii	"!#jK\021z\330\371\362\276\316N\271'\337P7T\305\301\364"
 206      117AD8F9 
 206      F2BECE4E 
 206      B927DF50 
 206      3754C5C1 
 207 035c 8A5D15B2 		.ascii	"\212]\025\262y\005h\236\261#\203?(\330\364\2076\246"
 207      7905689E 
 207      B123833F 
 207      28D8F487 
 207      36A6
 208 036e D59898F6 		.ascii	"\325\230\230\366\023\351@\260\203\372(?#\246Q\257=`"
 208      13E940B0 
 208      83FA283F 
 208      23A651AF 
 208      3D60
 209 0380 D4D5FC28 		.ascii	"\324\325\374(R:Me\177\375\367\354\242\351!Q\374\271"
 209      523A4D65 
 209      7FFDF7EC 
 209      A2E92151 
 209      FCB9
ARM GAS  /tmp/cccUnpB8.s 			page 16


 210 0392 38937BBE 		.ascii	"8\223{\276\263{\241\251$9\205\355\275\371\330\342\274"
 210      B37BA1A9 
 210      243985ED 
 210      BDF9D8E2 
 210      BC
 211 03a3 7AAB48BF 		.ascii	"z\253H\277\251\271\244XQ\350|\2216\351\344\374\356\022"
 211      A9B9A458 
 211      51E87C91 
 211      36E9E4FC 
 211      EE12
 212 03b5 870E8A1E 		.ascii	"\207\016\212\036\031\\\032>\001\007\270\265\021\362"
 212      195C1A3E 
 212      0107B8B5 
 212      11F2
 213 03c3 F9DAECE3 		.ascii	"\371\332\354\343<3\225\351\177g\004\366`\251\346;/."
 213      3C3395E9 
 213      7F6704F6 
 213      60A9E63B 
 213      2F2E
 214 03d5 743BAFA4 		.ascii	"t;\257\244\376\242\260v\311\363(\263\310\273@\274\370"
 214      FEA2B076 
 214      C9F328B3 
 214      C8BB40BC 
 214      F8
 215 03e6 DD6C2F18 		.ascii	"\335l/\030\374'\225\3067\321+\"\024B\303\243\345)\355"
 215      FC2795C6 
 215      37D12B22 
 215      1442C3A3 
 215      E529ED
 216 03f9 141D2723 		.ascii	"\024\035'#&m\034Q]U\313\227[\235m\225Z\3712i._\256\033"
 216      266D1C51 
 216      5D55CB97 
 216      5B9D6D95 
 216      5AF93269 
 217 0411 FDCD2F38 		.ascii	"\375\315/8C:6\250\006J\224a\237\025\234\216\377\260"
 217      433A36A8 
 217      064A9461 
 217      9F159C8E 
 217      FFB0
 218 0423 49C76263 		.ascii	"I\307bc\212\214o\033\375\332\221|\212`\265:\273^\344"
 218      8A8C6F1B 
 218      FDDA917C 
 218      8A60B53A 
 218      BB5EE4
 219 0436 A43ABB61 		.ascii	"\244:\273av\357s\313\351<\361\311%\245\272L\366PZ}\371"
 219      76EF73CB 
 219      E93CF1C9 
 219      25A5BA4C 
 219      F6505A7D 
 220 044b 1F4726A6 		.ascii	"\037G&\246\314&\276\2602\001\251>\325|W\227\352r.Ph"
 220      CC26BEB0 
 220      3201A93E 
 220      D57C5797 
 220      EA722E50 
 221 0460 7BB183D9 		.ascii	"{\261\203\331\376\203~\266\373\311\210[_f\266o\231\271"
 221      FE837EB6 
 221      FBC9885B 
ARM GAS  /tmp/cccUnpB8.s 			page 17


 221      5F66B66F 
 221      99B9
 222 0472 DEB6A8E4 		.ascii	"\336\266\250\344\222\017,\277\030|\032?\341\250>\262"
 222      920F2CBF 
 222      187C1A3F 
 222      E1A83EB2 
 223 0482 2889B2DA 		.ascii	"(\211\262\332\006\275C\333\241S\331;7\263\317'I\001"
 223      06BD43DB 
 223      A153D93B 
 223      37B3CF27 
 223      4901
 224 0494 740F4E0F 		.ascii	"t\017N\017\012\375\276\330\030\367\271\201$Z\323\246"
 224      0AFDBED8 
 224      18F7B981 
 224      245AD3A6 
 225 04a4 C22AF3D2 		.ascii	"\302*\363\322\265r\321-\277\237\243\250\352Kf\006\006"
 225      B572D12D 
 225      BF9FA3A8 
 225      EA4B6606 
 225      06
 226 04b5 FA4951A5 		.ascii	"\372IQ\245E \363?\210\000\254L\342\312\364\227+\232"
 226      4520F33F 
 226      8800AC4C 
 226      E2CAF497 
 226      2B9A
 227 04c7 BA9399C1 		.ascii	"\272\223\231\301k\344\204\275K&~\242`\260j\003\330\220"
 227      6BE484BD 
 227      4B267EA2 
 227      60B06A03 
 227      D890
 228 04d9 1EECCF4E 		.ascii	"\036\354\317N\300\354\352%\000;\241\007\373\244`0#\263"
 228      C0ECEA25 
 228      003BA107 
 228      FBA46030 
 228      23B3
 229 04eb 937AB01B 		.ascii	"\223z\260\033N\300\354\352%\000;\255\007\373\242`0="
 229      4EC0ECEA 
 229      25003BAD 
 229      07FBA260 
 229      303D
 230 04fd B3CECC19 		.ascii	"\263\316\314\031zp\275\251\350H\222\242cW>;fW\035\322"
 230      7A70BDA9 
 230      E84892A2 
 230      63573E3B 
 230      66571DD2 
 231 0511 4DE78DA7 		.ascii	"M\347\215\247\340z\242\253R\354\0060\370W\224\224N\330"
 231      E07AA2AB 
 231      52EC0630 
 231      F8579494 
 231      4ED8
 232 0523 984E5A0D 		.ascii	"\230NZ\015\242\224 p\033+\266\274+9 3\274{O\003\271"
 232      A2942070 
 232      1B2BB6BC 
 232      2B392033 
 232      BC7B4F03 
 233 0538 2BF55252 		.ascii	"+\365RRL\246\213\315\265?6\335\225\346\340RH_\205\326"
 233      4CA68BCD 
ARM GAS  /tmp/cccUnpB8.s 			page 18


 233      B53F36DD 
 233      95E6E052 
 233      485F85D6 
 234 054c 7A955639 		.ascii	"z\225V9\031\246?VR\224\307\246\027\203\373\251B\217"
 234      19A63F56 
 234      5294C7A6 
 234      1783FBA9 
 234      428F
 235 055e 951729EB 		.ascii	"\225\027)\353c\245\314@Z\355%m\300%\246\0141\220\230"
 235      63A5CC40 
 235      5AED256D 
 235      C025A60C 
 235      319098
 236 0571 A308EE4E 		.ascii	"\243\010\356N\302\3565\365\323C\322\306^\254\346\334"
 236      C2EE35F5 
 236      D343D2C6 
 236      5EACE6DC 
 237 0581 2FCC8856 		.ascii	"/\314\210V9Wm\277\032\316\351\023x\247\023\260'\355"
 237      39576DBF 
 237      1ACEE913 
 237      78A713B0 
 237      27ED
 238 0593 57C3653D 		.ascii	"W\303e=\330\213\005\203\031\231\275\253\007{\311\011"
 238      D88B0583 
 238      1999BDAB 
 238      077BC909 
 239 05a3 589D3DB3 		.ascii	"X\235=\2631=X\272`0#\263+z\260\003N\300\032\354\231"
 239      313D58BA 
 239      603023B3 
 239      2B7AB003 
 239      4EC01AEC 
 240 05b8 BDAF073B 		.ascii	"\275\257\007;\\0\230\216Y_g\346C:\305hU\275\224\274"
 240      5C30988E 
 240      595F67E6 
 240      433AC568 
 240      55BD94BC 
 241 05cc 623EDF57 		.ascii	"b>\337W\030\367FC7]\361k\352\306\340\203\312\262\310"
 241      18F74643 
 241      375DF16B 
 241      EAC6E083 
 241      CAB2C8
 242 05df 17F5E6BF 		.ascii	"\027\365\346\277\024\0324\3636\240(\315\0256A\200\023"
 242      141A34F3 
 242      36A028CD 
 242      15364180 
 242      13
 243 05f0 F1AA1C04 		.ascii	"\361\252\034\004\221l\031'\234\004\241\331\036\354c"
 243      916C1927 
 243      9C04A1D9 
 243      1EEC63
 244 05ff 3DD8E982 		.ascii	"=\330\351\202\301\214\021\235\312G\264\332\024P\021"
 244      C18C119D 
 244      CA47B4DA 
 244      145011
 245 060e 1BF7747D 		.ascii	"\033\367t}7]@\315\335\030<X\360Fs\314f\243\311\227\362"
 245      375D40CD 
 245      DD183C58 
ARM GAS  /tmp/cccUnpB8.s 			page 19


 245      F04673CC 
 245      66A3C997 
 246 0623 FA5EE0F6 		.ascii	"\372^\340\366\210\331m#\013\245\331f\027\304\316\314"
 246      88D96D23 
 246      0BA5D966 
 246      17C4CECC 
 247 0633 4D7BBFD3 		.ascii	"M{\277\323\032\324\243\017\362\333\334\215\301o\025"
 247      1AD4A30F 
 247      F2DBDC8D 
 247      C16F15
 248 0642 ECF7491B 		.ascii	"\354\367I\033\277\265;\223\241\027\370}\301\354\267"
 248      BFB53B93 
 248      A117F87D 
 248      C1ECB7
 249 0651 9185D25C 		.ascii	"\221\205\322\\o\3437\024r\267i)w$\246\024\032u\004\326"
 249      6FE33714 
 249      72B76929 
 249      7724A614 
 249      1A7504D6 
 250 0665 6E933CB0 		.ascii	"n\223<\260\266\377\255_\333\227\235db\017\266\240f\365"
 250      B6FFAD5F 
 250      DB979D64 
 250      620FB6A0 
 250      66F5
 251 0677 E86B5006 		.ascii	"\350kP\006\317\220\"1\207\027\202\356\242$\335M\364"
 251      CF902231 
 251      871782EE 
 251      A224DD4D 
 251      F4
 252 0688 36A27B88 		.ascii	"6\242{\210~\201\350\035D\357\"z7\321/\023\275\207\350"
 252      7E81E81D 
 252      44EF227A 
 252      37D12F13 
 252      BD87E8
 253 069b 34D1FB88 		.ascii	"4\321\373\210\336O\364\001\242\017\021}\204\350\243"
 253      DE4FF401 
 253      A20F117D 
 253      84E8A3
 254 06aa 441F27FA 		.ascii	"D\037'\3724\321g@k\217\351\216~\317\306_\311\203\021"
 254      34D16740 
 254      6B8FE98E 
 254      7ECFC65F 
 254      C98311
 255 06bd CAEE66BF 		.ascii	"\312\356f\277\357\0017\373\263\224\371f?>z\277\312\352"
 255      EF0137FB 
 255      B394F966 
 255      3F3E7ABF 
 255      CAEA
 256 06cf DA76A5C4 		.ascii	"\332v\245\304\311\235\352\034e\272\247\234\247\254\256"
 256      C99DEA1C 
 256      65BAA79C 
 256      A7ACAE
 257 06de 6D63D7AD 		.ascii	"mc\327\255\256m\237:2q\301l\342\242\321\004\362\326"
 257      AE6D9F3A 
 257      3271C16C 
 257      E2A2D104 
 257      F2D6
ARM GAS  /tmp/cccUnpB8.s 			page 20


 258 06f0 D67A7DA1 		.ascii	"\326z}\241\360\206\360\232\2007\236\360\262\361h4\036"
 258      F086F09A 
 258      80379EF0 
 258      B2F16834 
 258      1E
 259 0701 F3B6C779 		.ascii	"\363\266\307y!\341m\364\267\372Z\267z\331\020\033\347"
 259      21E16DF4 
 259      B7FA5AB7 
 259      7AD9101B 
 259      E7
 260 0712 39FAD9EF 		.ascii	"9\372\331\357FkYTEK\337\3500\277\231\346\332\303\221"
 260      466B5954 
 260      454BDFE8 
 260      30BF99E6 
 260      DAC391
 261 0725 F8A60EAE 		.ascii	"\370\246\016\256\266\235\341\205\332\272\342\037\376"
 261      B69DE185 
 261      DABAE21F 
 261      FE
 262 0732 686DB5AF 		.ascii	"hm\265\257@\300\020zL\006Ll\011\013l\210\336\310\307"
 262      40C0107A 
 262      4C064C6C 
 262      090B6C88 
 262      DEC8C7
 263 0745 A37438C1 		.ascii	"\243t8\301\177U~\313m\015\013\332\273\262\300:\037\335"
 263      7F557ECB 
 263      6D0D0BDA 
 263      BBB2C03A 
 263      1FDD
 264 0757 CCC48211 		.ascii	"\314\304\202\021\216\237?\233\3067\214\206y\301\033"
 264      8E9F3F9B 
 264      C6378C86 
 264      79C11B
 265 0766 8EB1918E 		.ascii	"\216\261\221\216 \007\366\022l(\010\266\212\350\225"
 265      2007F612 
 265      6C2808B6 
 265      8AE895
 266 0775 F178A48A 		.ascii	"\361x\244\212\015\005\330PK\242\215\347\270h\273\020"
 266      0D05D850 
 266      4BA28DE7 
 266      B868BB10 
 267 0785 8EC7FCDC 		.ascii	"\216\307\374\334\346\2160\317\005\023\336\330F\"\337"
 267      E68E30CF 
 267      0513DED8 
 267      4622DF
 268 0794 F186E251 		.ascii	"\361\206\342Q\316\313s\011\216\341\331\2207\304\360"
 268      CECB7309 
 268      8EE1D990 
 268      37C4F0
 269 07a3 C12D0CCF 		.ascii	"\301-\014\317y\031>Z\357\335\304\2625\320\250\341\242"
 269      79193E5A 
 269      EFDDC4B2 
 269      35D0A8E1 
 269      A2
 270 07b4 1BB86090 		.ascii	"\033\270`\220\013j/b\361\030W\3031\033\3025K\351\206"
 270      0B6A2F62 
 270      F11857C3 
ARM GAS  /tmp/cccUnpB8.s 			page 21


 270      311BC235 
 270      4BE986
 271 07c7 9AFABAC5 		.ascii	"\232\372\272\305K7\327{\015"
 271      4B37D77B 
 271      0D
 272 07d0 1F344E09 		.ascii	"\0374N\011!\030\216\011\300\251\264\003~\227\324\323"
 272      21188E09 
 272      C0A9B403 
 272      7E97D4D3 
 273 07e0 4212FFFF 		.ascii	"B\022\377\377\254G\0316\024\216q^:\310md:\"\002-<\327"
 273      AC471936 
 273      148E715E 
 273      3AC86D64 
 273      3A22022D 
 274 07f6 CE2580CD 		.ascii	"\316%\200\315WhZ\345S\246\314\200\300\012[\237r:\251"
 274      57685AE5 
 274      53A6CC80 
 274      C00A5B9F 
 274      723AA9
 275 0809 92433CB7 		.ascii	"\222C<\267\011\254\322\002\305\327Q\374b\212\257\247"
 275      09ACD202 
 275      C5D751FC 
 275      628AAFA7 
 276 0819 F8252E7E 		.ascii	"\370%.~q}q\204\247\205P\220jg\335[\333\023\274\233\005"
 276      717D7184 
 276      A7855090 
 276      6A67DD5B 
 276      DB13BC9B 
 277 082e BF965802 		.ascii	"\277\226X\002\203Q\257\2575\320\022\310Oa4\021N\320"
 277      8351AFAF 
 277      35D012C8 
 277      4F613411 
 277      4ED0
 278 0840 E02918F0 		.ascii	"\340)\030\360\320\364&N\240\333\002m\0171\221-\314s"
 278      D0F4264E 
 278      A0DB026D 
 278      0F31912D 
 278      CC73
 279 0852 093A1C8B 		.ascii	"\011:\034\213\2007\360>!\277\257\020\342\355k6\266\361"
 279      8037F03E 
 279      21BFAF10 
 279      E2ED6B36 
 279      B6F1
 280 0864 71362030 		.ascii	"q6 0\3543\217\022O:b\2218\373L>\233t/\037\222G\256l"
 280      EC338F12 
 280      4F3A6291 
 280      38FB4C3E 
 280      9B742F1F 
 281 087c 0CAC6AF3 		.ascii	"\014\254j\363\267\024=\313D:\270z\247\314\244Tf\243"
 281      B7143DCB 
 281      443AB87A 
 281      A7CCA454 
 281      66A3
 282 088e 4B25CF03 		.ascii	"K%\317\003\276\225\364\323\020\311\"_\333\332\226&w"
 282      BE95F4D3 
 282      10C9225F 
 282      DBDA9626 
ARM GAS  /tmp/cccUnpB8.s 			page 22


 282      77
 283 089f 8B2FE077 		.ascii	"\213/\340w\257{z\215\277\250\261\305\357\363\273\002"
 283      AF7B7A8D 
 283      BFA8B1C5 
 283      EFF3BB02 
 284 08af 203E9FBF 		.ascii	" >\237\277D\212p\003-x\344XC\313\025hn+\0124K\335}\253"
 284      448A7003 
 284      2D78E458 
 284      43CB1568 
 284      6E2B0A34 
 285 08c7 41354BAA 		.ascii	"A5K\252\011TQk\353\352F\277{\245\244\032\341\277\253"
 285      0954516B 
 285      EBEA46BF 
 285      7BA5A41A 
 285      E1BFAB
 286 08da 6DB5DFD5 		.ascii	"m\265\337\325\004\322\330\344w\3037\277\273%\320\350"
 286      04D2D8E4 
 286      77C337BF 
 286      BB25D0E8 
 287 08ea F7F85705 		.ascii	"\367\370W\005V\371\327\255j\252\003\303\215>\377|\342"
 287      56F9D7AD 
 287      6AAA03C3 
 287      8D3EFF7C 
 287      E2
 288 08fb 9AC15B8F 		.ascii	"\232\301[\217\366\352\277u\253-\330"
 288      F6EABF75 
 288      AB2DD8
 289              		.text
 290              		.section	.gnu.lto_.symtab.673f7047f9a837e7,"",%progbits
 291 0000 5356435F 		.ascii	"SVC_Handler\000\000\000\000\000\000\000\000\000\000"
 291      48616E64 
 291      6C657200 
 291      00000000 
 291      00000000 
 292 0015 0000AB00 		.ascii	"\000\000\253\000\000\000_port_irq_epilogue\000\000\000"
 292      00005F70 
 292      6F72745F 
 292      6972715F 
 292      6570696C 
 293 0030 00000000 		.ascii	"\000\000\000\000\000\000\000\000\000\256\000\000\000"
 293      00000000 
 293      00AE0000 
 293      00
 294 003d 5F706F72 		.ascii	"_port_switch_from_isr\000\000\002\000\000\000\000\000"
 294      745F7377 
 294      69746368 
 294      5F66726F 
 294      6D5F6973 
 295 005a 00000000 		.ascii	"\000\000\000\000\246\000\000\000_port_exit_from_isr"
 295      A6000000 
 295      5F706F72 
 295      745F6578 
 295      69745F66 
 296 0075 00000200 		.ascii	"\000\000\002\000\000\000\000\000\000\000\000\000\251"
 296      00000000 
 296      00000000 
 296      A9
ARM GAS  /tmp/cccUnpB8.s 			page 23


 297 0082 00000063 		.ascii	"\000\000\000chSchIsPreemptionRequired\000\000\002\000"
 297      68536368 
 297      49735072 
 297      65656D70 
 297      74696F6E 
 298 00a2 00000000 		.ascii	"\000\000\000\000\000\000\000\000\261\000\000\000"
 298      00000000 
 298      B1000000 
 299              		.text
 300              		.section	.gnu.lto_.opts,"",%progbits
 301 0000 272D6D63 		.ascii	"'-mcpu=cortex-m4' '-mno-thumb-interwork' '-mthumb' "
 301      70753D63 
 301      6F727465 
 301      782D6D34 
 301      2720272D 
 302 0033 272D6767 		.ascii	"'-ggdb' '-O2' '-fomit-frame-pointer' '-falign-funct"
 302      64622720 
 302      272D4F32 
 302      2720272D 
 302      666F6D69 
 303 0066 696F6E73 		.ascii	"ions=16' '-ffunction-sections' '-fdata-sections' '-"
 303      3D313627 
 303      20272D66 
 303      66756E63 
 303      74696F6E 
 304 0099 666E6F2D 		.ascii	"fno-common' '-flto'\000"
 304      636F6D6D 
 304      6F6E2720 
 304      272D666C 
 304      746F2700 
 305              		.text
 306              		.cfi_sections	.debug_frame
 307              		.section	.text.SVC_Handler,"ax",%progbits
 308              		.align	2
 309              		.p2align 4,,15
 310              		.global	SVC_Handler
 311              		.thumb
 312              		.thumb_func
 313              		.type	SVC_Handler, %function
 314              	SVC_Handler:
 315              	.LFB239:
 316              		.file 1 "../ChibiOS/os/common/ports/ARMCMx/chcore_v7m.c"
 317              		.loc 1 62 0
 318              		.cfi_startproc
 319              		@ args = 0, pretend = 0, frame = 0
 320              		@ frame_needed = 0, uses_anonymous_args = 0
 321              		@ link register save eliminated.
 322              	.LBB51:
 323              	.LBB52:
 324              		.file 2 "../ChibiOS/os/common/ext/CMSIS/include/cmsis_gcc.h"
 325              		.loc 2 152 0
 326              	@ 152 "../ChibiOS/os/common/ext/CMSIS/include/cmsis_gcc.h" 1
 327 0000 EFF30983 		MRS r3, psp
 328              	
 329              	@ 0 "" 2
 330              	.LVL0:
 331              		.thumb
ARM GAS  /tmp/cccUnpB8.s 			page 24


 332              	.LBE52:
 333              	.LBE51:
 334              		.loc 1 76 0
 335 0004 2033     		adds	r3, r3, #32
 336              	.LVL1:
 337              	.LBB53:
 338              	.LBB54:
 339              		.loc 2 164 0
 340              	@ 164 "../ChibiOS/os/common/ext/CMSIS/include/cmsis_gcc.h" 1
 341 0006 83F30988 		MSR psp, r3
 342              	
 343              	@ 0 "" 2
 344              	.LVL2:
 345              		.thumb
 346              	.LBE54:
 347              	.LBE53:
 348              	.LBB55:
 349              	.LBB56:
 350              	.LBB57:
 351              	.LBB58:
 352              		.loc 2 264 0
 353 000a 0023     		movs	r3, #0
 354              	.LVL3:
 355              	@ 264 "../ChibiOS/os/common/ext/CMSIS/include/cmsis_gcc.h" 1
 356 000c 83F31188 		MSR basepri, r3
 357              	@ 0 "" 2
 358              		.thumb
 359 0010 7047     		bx	lr
 360              	.LBE58:
 361              	.LBE57:
 362              	.LBE56:
 363              	.LBE55:
 364              		.cfi_endproc
 365              	.LFE239:
 366              		.size	SVC_Handler, .-SVC_Handler
 367 0012 00BFAFF3 		.section	.text._port_irq_epilogue,"ax",%progbits
 367      0080AFF3 
 367      0080AFF3 
 367      0080
 368              		.align	2
 369              		.p2align 4,,15
 370              		.global	_port_irq_epilogue
 371              		.thumb
 372              		.thumb_func
 373              		.type	_port_irq_epilogue, %function
 374              	_port_irq_epilogue:
 375              	.LFB240:
 376              		.loc 1 122 0
 377              		.cfi_startproc
 378              		@ args = 0, pretend = 0, frame = 0
 379              		@ frame_needed = 0, uses_anonymous_args = 0
 380              	.LVL4:
 381 0000 10B5     		push	{r4, lr}
 382              		.cfi_def_cfa_offset 8
 383              		.cfi_offset 4, -8
 384              		.cfi_offset 14, -4
 385              	.LBB83:
ARM GAS  /tmp/cccUnpB8.s 			page 25


 386              	.LBB84:
 387              	.LBB85:
 388              	.LBB86:
 389              		.loc 2 264 0
 390 0002 2023     		movs	r3, #32
 391              	@ 264 "../ChibiOS/os/common/ext/CMSIS/include/cmsis_gcc.h" 1
 392 0004 83F31188 		MSR basepri, r3
 393              	@ 0 "" 2
 394              		.thumb
 395              	.LBE86:
 396              	.LBE85:
 397              	.LBE84:
 398              	.LBE83:
 399              		.loc 1 125 0
 400 0008 0E4B     		ldr	r3, .L8
 401 000a 5B68     		ldr	r3, [r3, #4]
 402 000c 13F40063 		ands	r3, r3, #2048
 403 0010 02D1     		bne	.L7
 404              	.LVL5:
 405              	.LBB87:
 406              	.LBB88:
 407              	.LBB89:
 408              	.LBB90:
 409              		.loc 2 264 0
 410              	@ 264 "../ChibiOS/os/common/ext/CMSIS/include/cmsis_gcc.h" 1
 411 0012 83F31188 		MSR basepri, r3
 412              	@ 0 "" 2
 413              		.thumb
 414 0016 10BD     		pop	{r4, pc}
 415              	.LVL6:
 416              	.L7:
 417              	.LBE90:
 418              	.LBE89:
 419              	.LBE88:
 420              	.LBE87:
 421              	.LBB91:
 422              	.LBB92:
 423              	.LBB93:
 424              	.LBB94:
 425              		.loc 2 152 0
 426              	@ 152 "../ChibiOS/os/common/ext/CMSIS/include/cmsis_gcc.h" 1
 427 0018 EFF30984 		MRS r4, psp
 428              	
 429              	@ 0 "" 2
 430              	.LVL7:
 431              		.thumb
 432              	.LBE94:
 433              	.LBE93:
 434              		.loc 1 141 0
 435 001c 4FF08073 		mov	r3, #16777216
 436 0020 44F8043C 		str	r3, [r4, #-4]
 437              	.LVL8:
 438              		.loc 1 138 0
 439 0024 A4F12003 		sub	r3, r4, #32
 440              	.LVL9:
 441              	.LBB95:
 442              	.LBB96:
ARM GAS  /tmp/cccUnpB8.s 			page 26


 443              		.loc 2 164 0
 444              	@ 164 "../ChibiOS/os/common/ext/CMSIS/include/cmsis_gcc.h" 1
 445 0028 83F30988 		MSR psp, r3
 446              	
 447              	@ 0 "" 2
 448              		.thumb
 449              	.LBE96:
 450              	.LBE95:
 451              		.loc 1 151 0
 452 002c FFF7FEFF 		bl	chSchIsPreemptionRequired
 453              	.LVL10:
 454 0030 18B1     		cbz	r0, .L4
 455              		.loc 1 153 0
 456 0032 054B     		ldr	r3, .L8+4
 457 0034 44F8083C 		str	r3, [r4, #-8]
 458 0038 10BD     		pop	{r4, pc}
 459              	.LVL11:
 460              	.L4:
 461              		.loc 1 158 0
 462 003a 044B     		ldr	r3, .L8+8
 463 003c 44F8083C 		str	r3, [r4, #-8]
 464 0040 10BD     		pop	{r4, pc}
 465              	.LVL12:
 466              	.L9:
 467 0042 00BF     		.align	2
 468              	.L8:
 469 0044 00ED00E0 		.word	-536810240
 470 0048 00000000 		.word	_port_switch_from_isr
 471 004c 00000000 		.word	_port_exit_from_isr
 472              	.LBE92:
 473              	.LBE91:
 474              		.cfi_endproc
 475              	.LFE240:
 476              		.size	_port_irq_epilogue, .-_port_irq_epilogue
 477              		.text
 478              	.Letext0:
 479              		.file 3 "/nfs/nfs5/home/research/hardware/arm2/gcc-arm-embedded/gcc-arm-none-eabi-4_8-2014q2/arm-n
 480              		.file 4 "/nfs/nfs5/home/research/hardware/arm2/gcc-arm-embedded/gcc-arm-none-eabi-4_8-2014q2/arm-n
 481              		.file 5 "../ChibiOS/os/common/ports/ARMCMx/compilers/GCC/chtypes.h"
 482              		.file 6 "../ChibiOS/os/rt/include/chsystypes.h"
 483              		.file 7 "../ChibiOS/os/rt/include/chschd.h"
 484              		.file 8 "../ChibiOS/os/common/ext/CMSIS/include/core_cm4.h"
 485              		.file 9 "../ChibiOS/os/common/ports/ARMCMx/chcore.h"
 486              		.file 10 "../ChibiOS/os/common/ports/ARMCMx/chcore_v7m.h"
 487              		.file 11 "../ChibiOS/os/rt/include/chtm.h"
 488              		.file 12 "../ChibiOS/os/rt/include/chsem.h"
 489              		.file 13 "../ChibiOS/os/rt/include/chmtx.h"
 490              		.section	.debug_info,"",%progbits
 491              	.Ldebug_info0:
 492 0000 480A0000 		.4byte	0xa48
 493 0004 0400     		.2byte	0x4
 494 0006 00000000 		.4byte	.Ldebug_abbrev0
 495 000a 04       		.byte	0x4
 496 000b 01       		.uleb128 0x1
 497 000c E2030000 		.4byte	.LASF120
 498 0010 01       		.byte	0x1
 499 0011 95010000 		.4byte	.LASF121
ARM GAS  /tmp/cccUnpB8.s 			page 27


 500 0015 44020000 		.4byte	.LASF122
 501 0019 00000000 		.4byte	.Ldebug_ranges0+0
 502 001d 00000000 		.4byte	0
 503 0021 00000000 		.4byte	.Ldebug_line0
 504 0025 02       		.uleb128 0x2
 505 0026 04       		.byte	0x4
 506 0027 05       		.byte	0x5
 507 0028 696E7400 		.ascii	"int\000"
 508 002c 03       		.uleb128 0x3
 509 002d 04       		.byte	0x4
 510 002e 07       		.byte	0x7
 511 002f 59000000 		.4byte	.LASF0
 512 0033 03       		.uleb128 0x3
 513 0034 01       		.byte	0x1
 514 0035 06       		.byte	0x6
 515 0036 98050000 		.4byte	.LASF1
 516 003a 04       		.uleb128 0x4
 517 003b B4030000 		.4byte	.LASF5
 518 003f 03       		.byte	0x3
 519 0040 1C       		.byte	0x1c
 520 0041 45000000 		.4byte	0x45
 521 0045 03       		.uleb128 0x3
 522 0046 01       		.byte	0x1
 523 0047 08       		.byte	0x8
 524 0048 28050000 		.4byte	.LASF2
 525 004c 03       		.uleb128 0x3
 526 004d 02       		.byte	0x2
 527 004e 05       		.byte	0x5
 528 004f 53030000 		.4byte	.LASF3
 529 0053 03       		.uleb128 0x3
 530 0054 02       		.byte	0x2
 531 0055 07       		.byte	0x7
 532 0056 AA050000 		.4byte	.LASF4
 533 005a 04       		.uleb128 0x4
 534 005b 7F000000 		.4byte	.LASF6
 535 005f 03       		.byte	0x3
 536 0060 37       		.byte	0x37
 537 0061 65000000 		.4byte	0x65
 538 0065 03       		.uleb128 0x3
 539 0066 04       		.byte	0x4
 540 0067 05       		.byte	0x5
 541 0068 62030000 		.4byte	.LASF7
 542 006c 04       		.uleb128 0x4
 543 006d 36050000 		.4byte	.LASF8
 544 0071 03       		.byte	0x3
 545 0072 38       		.byte	0x38
 546 0073 77000000 		.4byte	0x77
 547 0077 03       		.uleb128 0x3
 548 0078 04       		.byte	0x4
 549 0079 07       		.byte	0x7
 550 007a D8040000 		.4byte	.LASF9
 551 007e 03       		.uleb128 0x3
 552 007f 08       		.byte	0x8
 553 0080 05       		.byte	0x5
 554 0081 E5020000 		.4byte	.LASF10
 555 0085 04       		.uleb128 0x4
 556 0086 34020000 		.4byte	.LASF11
ARM GAS  /tmp/cccUnpB8.s 			page 28


 557 008a 03       		.byte	0x3
 558 008b 4E       		.byte	0x4e
 559 008c 90000000 		.4byte	0x90
 560 0090 03       		.uleb128 0x3
 561 0091 08       		.byte	0x8
 562 0092 07       		.byte	0x7
 563 0093 5E010000 		.4byte	.LASF12
 564 0097 04       		.uleb128 0x4
 565 0098 BB020000 		.4byte	.LASF13
 566 009c 04       		.byte	0x4
 567 009d 2A       		.byte	0x2a
 568 009e 3A000000 		.4byte	0x3a
 569 00a2 04       		.uleb128 0x4
 570 00a3 FD040000 		.4byte	.LASF14
 571 00a7 04       		.byte	0x4
 572 00a8 41       		.byte	0x41
 573 00a9 5A000000 		.4byte	0x5a
 574 00ad 04       		.uleb128 0x4
 575 00ae 0F010000 		.4byte	.LASF15
 576 00b2 04       		.byte	0x4
 577 00b3 42       		.byte	0x42
 578 00b4 6C000000 		.4byte	0x6c
 579 00b8 04       		.uleb128 0x4
 580 00b9 A5030000 		.4byte	.LASF16
 581 00bd 04       		.byte	0x4
 582 00be 4E       		.byte	0x4e
 583 00bf 85000000 		.4byte	0x85
 584 00c3 04       		.uleb128 0x4
 585 00c4 2B030000 		.4byte	.LASF17
 586 00c8 05       		.byte	0x5
 587 00c9 39       		.byte	0x39
 588 00ca AD000000 		.4byte	0xad
 589 00ce 04       		.uleb128 0x4
 590 00cf 18030000 		.4byte	.LASF18
 591 00d3 05       		.byte	0x5
 592 00d4 3C       		.byte	0x3c
 593 00d5 97000000 		.4byte	0x97
 594 00d9 04       		.uleb128 0x4
 595 00da AC020000 		.4byte	.LASF19
 596 00de 05       		.byte	0x5
 597 00df 3D       		.byte	0x3d
 598 00e0 97000000 		.4byte	0x97
 599 00e4 04       		.uleb128 0x4
 600 00e5 D0040000 		.4byte	.LASF20
 601 00e9 05       		.byte	0x5
 602 00ea 3E       		.byte	0x3e
 603 00eb 97000000 		.4byte	0x97
 604 00ef 04       		.uleb128 0x4
 605 00f0 3E010000 		.4byte	.LASF21
 606 00f4 05       		.byte	0x5
 607 00f5 40       		.byte	0x40
 608 00f6 AD000000 		.4byte	0xad
 609 00fa 04       		.uleb128 0x4
 610 00fb F3020000 		.4byte	.LASF22
 611 00ff 05       		.byte	0x5
 612 0100 41       		.byte	0x41
 613 0101 A2000000 		.4byte	0xa2
ARM GAS  /tmp/cccUnpB8.s 			page 29


 614 0105 04       		.uleb128 0x4
 615 0106 25010000 		.4byte	.LASF23
 616 010a 05       		.byte	0x5
 617 010b 43       		.byte	0x43
 618 010c AD000000 		.4byte	0xad
 619 0110 04       		.uleb128 0x4
 620 0111 8F010000 		.4byte	.LASF24
 621 0115 05       		.byte	0x5
 622 0116 45       		.byte	0x45
 623 0117 A2000000 		.4byte	0xa2
 624 011b 04       		.uleb128 0x4
 625 011c 3D000000 		.4byte	.LASF25
 626 0120 06       		.byte	0x6
 627 0121 33       		.byte	0x33
 628 0122 AD000000 		.4byte	0xad
 629 0126 04       		.uleb128 0x4
 630 0127 08020000 		.4byte	.LASF26
 631 012b 06       		.byte	0x6
 632 012c 3F       		.byte	0x3f
 633 012d 31010000 		.4byte	0x131
 634 0131 05       		.uleb128 0x5
 635 0132 CC020000 		.4byte	.LASF44
 636 0136 44       		.byte	0x44
 637 0137 07       		.byte	0x7
 638 0138 9A       		.byte	0x9a
 639 0139 0F020000 		.4byte	0x20f
 640 013d 06       		.uleb128 0x6
 641 013e F7040000 		.4byte	.LASF27
 642 0142 07       		.byte	0x7
 643 0143 9B       		.byte	0x9b
 644 0144 44020000 		.4byte	0x244
 645 0148 00       		.byte	0
 646 0149 06       		.uleb128 0x6
 647 014a 83020000 		.4byte	.LASF28
 648 014e 07       		.byte	0x7
 649 014f 9C       		.byte	0x9c
 650 0150 EF000000 		.4byte	0xef
 651 0154 08       		.byte	0x8
 652 0155 07       		.uleb128 0x7
 653 0156 63747800 		.ascii	"ctx\000"
 654 015a 07       		.byte	0x7
 655 015b 9D       		.byte	0x9d
 656 015c D0050000 		.4byte	0x5d0
 657 0160 0C       		.byte	0xc
 658 0161 06       		.uleb128 0x6
 659 0162 0D050000 		.4byte	.LASF29
 660 0166 07       		.byte	0x7
 661 0167 9F       		.byte	0x9f
 662 0168 1A020000 		.4byte	0x21a
 663 016c 10       		.byte	0x10
 664 016d 06       		.uleb128 0x6
 665 016e E7050000 		.4byte	.LASF30
 666 0172 07       		.byte	0x7
 667 0173 A0       		.byte	0xa0
 668 0174 1A020000 		.4byte	0x21a
 669 0178 14       		.byte	0x14
 670 0179 06       		.uleb128 0x6
ARM GAS  /tmp/cccUnpB8.s 			page 30


 671 017a D3030000 		.4byte	.LASF31
 672 017e 07       		.byte	0x7
 673 017f A7       		.byte	0xa7
 674 0180 C6070000 		.4byte	0x7c6
 675 0184 18       		.byte	0x18
 676 0185 06       		.uleb128 0x6
 677 0186 A0020000 		.4byte	.LASF32
 678 018a 07       		.byte	0x7
 679 018b B0       		.byte	0xb0
 680 018c D8070000 		.4byte	0x7d8
 681 0190 1C       		.byte	0x1c
 682 0191 06       		.uleb128 0x6
 683 0192 72050000 		.4byte	.LASF33
 684 0196 07       		.byte	0x7
 685 0197 B5       		.byte	0xb5
 686 0198 D9000000 		.4byte	0xd9
 687 019c 20       		.byte	0x20
 688 019d 06       		.uleb128 0x6
 689 019e 37000000 		.4byte	.LASF34
 690 01a2 07       		.byte	0x7
 691 01a3 B9       		.byte	0xb9
 692 01a4 CE000000 		.4byte	0xce
 693 01a8 21       		.byte	0x21
 694 01a9 06       		.uleb128 0x6
 695 01aa 89000000 		.4byte	.LASF35
 696 01ae 07       		.byte	0x7
 697 01af BE       		.byte	0xbe
 698 01b0 E4000000 		.4byte	0xe4
 699 01b4 22       		.byte	0x22
 700 01b5 08       		.uleb128 0x8
 701 01b6 7500     		.ascii	"u\000"
 702 01b8 07       		.byte	0x7
 703 01b9 0F01     		.2byte	0x10f
 704 01bb FB060000 		.4byte	0x6fb
 705 01bf 24       		.byte	0x24
 706 01c0 09       		.uleb128 0x9
 707 01c1 41050000 		.4byte	.LASF36
 708 01c5 07       		.byte	0x7
 709 01c6 1401     		.2byte	0x114
 710 01c8 20020000 		.4byte	0x220
 711 01cc 28       		.byte	0x28
 712 01cd 09       		.uleb128 0x9
 713 01ce C3020000 		.4byte	.LASF37
 714 01d2 07       		.byte	0x7
 715 01d3 1A01     		.2byte	0x11a
 716 01d5 44020000 		.4byte	0x244
 717 01d9 2C       		.byte	0x2c
 718 01da 09       		.uleb128 0x9
 719 01db 50000000 		.4byte	.LASF38
 720 01df 07       		.byte	0x7
 721 01e0 2001     		.2byte	0x120
 722 01e2 05010000 		.4byte	0x105
 723 01e6 34       		.byte	0x34
 724 01e7 09       		.uleb128 0x9
 725 01e8 E9010000 		.4byte	.LASF39
 726 01ec 07       		.byte	0x7
 727 01ed 2701     		.2byte	0x127
ARM GAS  /tmp/cccUnpB8.s 			page 31


 728 01ef C0070000 		.4byte	0x7c0
 729 01f3 38       		.byte	0x38
 730 01f4 09       		.uleb128 0x9
 731 01f5 47000000 		.4byte	.LASF40
 732 01f9 07       		.byte	0x7
 733 01fa 2B01     		.2byte	0x12b
 734 01fc EF000000 		.4byte	0xef
 735 0200 3C       		.byte	0x3c
 736 0201 09       		.uleb128 0x9
 737 0202 F6050000 		.4byte	.LASF41
 738 0206 07       		.byte	0x7
 739 0207 3201     		.2byte	0x132
 740 0209 F7020000 		.4byte	0x2f7
 741 020d 40       		.byte	0x40
 742 020e 00       		.byte	0
 743 020f 04       		.uleb128 0x4
 744 0210 8D020000 		.4byte	.LASF42
 745 0214 06       		.byte	0x6
 746 0215 44       		.byte	0x44
 747 0216 1A020000 		.4byte	0x21a
 748 021a 0A       		.uleb128 0xa
 749 021b 04       		.byte	0x4
 750 021c 26010000 		.4byte	0x126
 751 0220 04       		.uleb128 0x4
 752 0221 6B000000 		.4byte	.LASF43
 753 0225 06       		.byte	0x6
 754 0226 49       		.byte	0x49
 755 0227 2B020000 		.4byte	0x22b
 756 022b 05       		.uleb128 0x5
 757 022c 00000000 		.4byte	.LASF45
 758 0230 04       		.byte	0x4
 759 0231 07       		.byte	0x7
 760 0232 88       		.byte	0x88
 761 0233 44020000 		.4byte	0x244
 762 0237 06       		.uleb128 0x6
 763 0238 66000000 		.4byte	.LASF46
 764 023c 07       		.byte	0x7
 765 023d 89       		.byte	0x89
 766 023e 1A020000 		.4byte	0x21a
 767 0242 00       		.byte	0
 768 0243 00       		.byte	0
 769 0244 04       		.uleb128 0x4
 770 0245 C4010000 		.4byte	.LASF47
 771 0249 06       		.byte	0x6
 772 024a 50       		.byte	0x50
 773 024b 4F020000 		.4byte	0x24f
 774 024f 05       		.uleb128 0x5
 775 0250 E5000000 		.4byte	.LASF48
 776 0254 08       		.byte	0x8
 777 0255 07       		.byte	0x7
 778 0256 8F       		.byte	0x8f
 779 0257 74020000 		.4byte	0x274
 780 025b 06       		.uleb128 0x6
 781 025c 66000000 		.4byte	.LASF46
 782 0260 07       		.byte	0x7
 783 0261 90       		.byte	0x90
 784 0262 1A020000 		.4byte	0x21a
ARM GAS  /tmp/cccUnpB8.s 			page 32


 785 0266 00       		.byte	0
 786 0267 06       		.uleb128 0x6
 787 0268 E0000000 		.4byte	.LASF49
 788 026c 07       		.byte	0x7
 789 026d 91       		.byte	0x91
 790 026e 1A020000 		.4byte	0x21a
 791 0272 04       		.byte	0x4
 792 0273 00       		.byte	0
 793 0274 04       		.uleb128 0x4
 794 0275 EA040000 		.4byte	.LASF50
 795 0279 06       		.byte	0x6
 796 027a 57       		.byte	0x57
 797 027b 7F020000 		.4byte	0x27f
 798 027f 0B       		.uleb128 0xb
 799 0280 C6000000 		.4byte	.LASF51
 800 0284 1C       		.byte	0x1c
 801 0285 07       		.byte	0x7
 802 0286 6A01     		.2byte	0x16a
 803 0288 DB020000 		.4byte	0x2db
 804 028c 09       		.uleb128 0x9
 805 028d F7040000 		.4byte	.LASF27
 806 0291 07       		.byte	0x7
 807 0292 6B01     		.2byte	0x16b
 808 0294 44020000 		.4byte	0x244
 809 0298 00       		.byte	0
 810 0299 09       		.uleb128 0x9
 811 029a 83020000 		.4byte	.LASF28
 812 029e 07       		.byte	0x7
 813 029f 6C01     		.2byte	0x16c
 814 02a1 EF000000 		.4byte	0xef
 815 02a5 08       		.byte	0x8
 816 02a6 08       		.uleb128 0x8
 817 02a7 63747800 		.ascii	"ctx\000"
 818 02ab 07       		.byte	0x7
 819 02ac 6E01     		.2byte	0x16e
 820 02ae D0050000 		.4byte	0x5d0
 821 02b2 0C       		.byte	0xc
 822 02b3 09       		.uleb128 0x9
 823 02b4 0D050000 		.4byte	.LASF29
 824 02b8 07       		.byte	0x7
 825 02b9 7101     		.2byte	0x171
 826 02bb 1A020000 		.4byte	0x21a
 827 02bf 10       		.byte	0x10
 828 02c0 09       		.uleb128 0x9
 829 02c1 E7050000 		.4byte	.LASF30
 830 02c5 07       		.byte	0x7
 831 02c6 7201     		.2byte	0x172
 832 02c8 1A020000 		.4byte	0x21a
 833 02cc 14       		.byte	0x14
 834 02cd 09       		.uleb128 0x9
 835 02ce CE050000 		.4byte	.LASF52
 836 02d2 07       		.byte	0x7
 837 02d3 7501     		.2byte	0x175
 838 02d5 1A020000 		.4byte	0x21a
 839 02d9 18       		.byte	0x18
 840 02da 00       		.byte	0
 841 02db 04       		.uleb128 0x4
ARM GAS  /tmp/cccUnpB8.s 			page 33


 842 02dc F6000000 		.4byte	.LASF53
 843 02e0 06       		.byte	0x6
 844 02e1 5C       		.byte	0x5c
 845 02e2 E6020000 		.4byte	0x2e6
 846 02e6 0A       		.uleb128 0xa
 847 02e7 04       		.byte	0x4
 848 02e8 EC020000 		.4byte	0x2ec
 849 02ec 0C       		.uleb128 0xc
 850 02ed F7020000 		.4byte	0x2f7
 851 02f1 0D       		.uleb128 0xd
 852 02f2 F7020000 		.4byte	0x2f7
 853 02f6 00       		.byte	0
 854 02f7 0E       		.uleb128 0xe
 855 02f8 04       		.byte	0x4
 856 02f9 04       		.uleb128 0x4
 857 02fa FE020000 		.4byte	.LASF54
 858 02fe 06       		.byte	0x6
 859 02ff 61       		.byte	0x61
 860 0300 04030000 		.4byte	0x304
 861 0304 0B       		.uleb128 0xb
 862 0305 46010000 		.4byte	.LASF55
 863 0309 14       		.byte	0x14
 864 030a 07       		.byte	0x7
 865 030b 4501     		.2byte	0x145
 866 030d 53030000 		.4byte	0x353
 867 0311 09       		.uleb128 0x9
 868 0312 66000000 		.4byte	.LASF46
 869 0316 07       		.byte	0x7
 870 0317 4601     		.2byte	0x146
 871 0319 DE070000 		.4byte	0x7de
 872 031d 00       		.byte	0
 873 031e 09       		.uleb128 0x9
 874 031f E0000000 		.4byte	.LASF49
 875 0323 07       		.byte	0x7
 876 0324 4701     		.2byte	0x147
 877 0326 DE070000 		.4byte	0x7de
 878 032a 04       		.byte	0x4
 879 032b 09       		.uleb128 0x9
 880 032c A4050000 		.4byte	.LASF56
 881 0330 07       		.byte	0x7
 882 0331 4801     		.2byte	0x148
 883 0333 1B010000 		.4byte	0x11b
 884 0337 08       		.byte	0x8
 885 0338 09       		.uleb128 0x9
 886 0339 D4000000 		.4byte	.LASF57
 887 033d 07       		.byte	0x7
 888 033e 4901     		.2byte	0x149
 889 0340 DB020000 		.4byte	0x2db
 890 0344 0C       		.byte	0xc
 891 0345 08       		.uleb128 0x8
 892 0346 70617200 		.ascii	"par\000"
 893 034a 07       		.byte	0x7
 894 034b 4B01     		.2byte	0x14b
 895 034d F7020000 		.4byte	0x2f7
 896 0351 10       		.byte	0x10
 897 0352 00       		.byte	0
 898 0353 04       		.uleb128 0x4
ARM GAS  /tmp/cccUnpB8.s 			page 34


 899 0354 49050000 		.4byte	.LASF58
 900 0358 06       		.byte	0x6
 901 0359 66       		.byte	0x66
 902 035a 5E030000 		.4byte	0x35e
 903 035e 0B       		.uleb128 0xb
 904 035f F1010000 		.4byte	.LASF59
 905 0363 10       		.byte	0x10
 906 0364 07       		.byte	0x7
 907 0365 5501     		.2byte	0x155
 908 0367 A0030000 		.4byte	0x3a0
 909 036b 09       		.uleb128 0x9
 910 036c 66000000 		.4byte	.LASF46
 911 0370 07       		.byte	0x7
 912 0371 5601     		.2byte	0x156
 913 0373 DE070000 		.4byte	0x7de
 914 0377 00       		.byte	0
 915 0378 09       		.uleb128 0x9
 916 0379 E0000000 		.4byte	.LASF49
 917 037d 07       		.byte	0x7
 918 037e 5801     		.2byte	0x158
 919 0380 DE070000 		.4byte	0x7de
 920 0384 04       		.byte	0x4
 921 0385 09       		.uleb128 0x9
 922 0386 A4050000 		.4byte	.LASF56
 923 038a 07       		.byte	0x7
 924 038b 5A01     		.2byte	0x15a
 925 038d 1B010000 		.4byte	0x11b
 926 0391 08       		.byte	0x8
 927 0392 09       		.uleb128 0x9
 928 0393 9C030000 		.4byte	.LASF60
 929 0397 07       		.byte	0x7
 930 0398 6201     		.2byte	0x162
 931 039a 1B010000 		.4byte	0x11b
 932 039e 0C       		.byte	0xc
 933 039f 00       		.byte	0
 934 03a0 04       		.uleb128 0x4
 935 03a1 D6020000 		.4byte	.LASF61
 936 03a5 06       		.byte	0x6
 937 03a6 6B       		.byte	0x6b
 938 03a7 AB030000 		.4byte	0x3ab
 939 03ab 0B       		.uleb128 0xb
 940 03ac FF000000 		.4byte	.LASF62
 941 03b0 04       		.byte	0x4
 942 03b1 07       		.byte	0x7
 943 03b2 7C01     		.2byte	0x17c
 944 03b4 C6030000 		.4byte	0x3c6
 945 03b8 09       		.uleb128 0x9
 946 03b9 0E030000 		.4byte	.LASF63
 947 03bd 07       		.byte	0x7
 948 03be 8401     		.2byte	0x184
 949 03c0 E4070000 		.4byte	0x7e4
 950 03c4 00       		.byte	0
 951 03c5 00       		.byte	0
 952 03c6 04       		.uleb128 0x4
 953 03c7 7F050000 		.4byte	.LASF64
 954 03cb 06       		.byte	0x6
 955 03cc 70       		.byte	0x70
ARM GAS  /tmp/cccUnpB8.s 			page 35


 956 03cd D1030000 		.4byte	0x3d1
 957 03d1 0B       		.uleb128 0xb
 958 03d2 84030000 		.4byte	.LASF65
 959 03d6 78       		.byte	0x78
 960 03d7 07       		.byte	0x7
 961 03d8 9C01     		.2byte	0x19c
 962 03da 1F040000 		.4byte	0x41f
 963 03de 09       		.uleb128 0x9
 964 03df AE030000 		.4byte	.LASF66
 965 03e3 07       		.byte	0x7
 966 03e4 A001     		.2byte	0x1a0
 967 03e6 74020000 		.4byte	0x274
 968 03ea 00       		.byte	0
 969 03eb 09       		.uleb128 0x9
 970 03ec 9F000000 		.4byte	.LASF67
 971 03f0 07       		.byte	0x7
 972 03f1 A401     		.2byte	0x1a4
 973 03f3 53030000 		.4byte	0x353
 974 03f7 1C       		.byte	0x1c
 975 03f8 08       		.uleb128 0x8
 976 03f9 64626700 		.ascii	"dbg\000"
 977 03fd 07       		.byte	0x7
 978 03fe A801     		.2byte	0x1a8
 979 0400 A0030000 		.4byte	0x3a0
 980 0404 2C       		.byte	0x2c
 981 0405 09       		.uleb128 0x9
 982 0406 20030000 		.4byte	.LASF68
 983 040a 07       		.byte	0x7
 984 040b AC01     		.2byte	0x1ac
 985 040d 26010000 		.4byte	0x126
 986 0411 30       		.byte	0x30
 987 0412 08       		.uleb128 0x8
 988 0413 746D00   		.ascii	"tm\000"
 989 0416 07       		.byte	0x7
 990 0417 B101     		.2byte	0x1b1
 991 0419 F0060000 		.4byte	0x6f0
 992 041d 74       		.byte	0x74
 993 041e 00       		.byte	0
 994 041f 03       		.uleb128 0x3
 995 0420 04       		.byte	0x4
 996 0421 07       		.byte	0x7
 997 0422 C7040000 		.4byte	.LASF69
 998 0426 0F       		.uleb128 0xf
 999 0427 AD000000 		.4byte	0xad
 1000 042b 10       		.uleb128 0x10
 1001 042c 8C       		.byte	0x8c
 1002 042d 08       		.byte	0x8
 1003 042e E501     		.2byte	0x1e5
 1004 0430 46050000 		.4byte	0x546
 1005 0434 09       		.uleb128 0x9
 1006 0435 1F020000 		.4byte	.LASF70
 1007 0439 08       		.byte	0x8
 1008 043a E701     		.2byte	0x1e7
 1009 043c 46050000 		.4byte	0x546
 1010 0440 00       		.byte	0
 1011 0441 09       		.uleb128 0x9
 1012 0442 A7020000 		.4byte	.LASF71
ARM GAS  /tmp/cccUnpB8.s 			page 36


 1013 0446 08       		.byte	0x8
 1014 0447 E801     		.2byte	0x1e8
 1015 0449 26040000 		.4byte	0x426
 1016 044d 04       		.byte	0x4
 1017 044e 09       		.uleb128 0x9
 1018 044f DD030000 		.4byte	.LASF72
 1019 0453 08       		.byte	0x8
 1020 0454 E901     		.2byte	0x1e9
 1021 0456 26040000 		.4byte	0x426
 1022 045a 08       		.byte	0x8
 1023 045b 09       		.uleb128 0x9
 1024 045c B5020000 		.4byte	.LASF73
 1025 0460 08       		.byte	0x8
 1026 0461 EA01     		.2byte	0x1ea
 1027 0463 26040000 		.4byte	0x426
 1028 0467 0C       		.byte	0xc
 1029 0468 08       		.uleb128 0x8
 1030 0469 53435200 		.ascii	"SCR\000"
 1031 046d 08       		.byte	0x8
 1032 046e EB01     		.2byte	0x1eb
 1033 0470 26040000 		.4byte	0x426
 1034 0474 10       		.byte	0x10
 1035 0475 08       		.uleb128 0x8
 1036 0476 43435200 		.ascii	"CCR\000"
 1037 047a 08       		.byte	0x8
 1038 047b EC01     		.2byte	0x1ec
 1039 047d 26040000 		.4byte	0x426
 1040 0481 14       		.byte	0x14
 1041 0482 08       		.uleb128 0x8
 1042 0483 53485000 		.ascii	"SHP\000"
 1043 0487 08       		.byte	0x8
 1044 0488 ED01     		.2byte	0x1ed
 1045 048a 5B050000 		.4byte	0x55b
 1046 048e 18       		.byte	0x18
 1047 048f 09       		.uleb128 0x9
 1048 0490 4D030000 		.4byte	.LASF74
 1049 0494 08       		.byte	0x8
 1050 0495 EE01     		.2byte	0x1ee
 1051 0497 26040000 		.4byte	0x426
 1052 049b 24       		.byte	0x24
 1053 049c 09       		.uleb128 0x9
 1054 049d F9020000 		.4byte	.LASF75
 1055 04a1 08       		.byte	0x8
 1056 04a2 EF01     		.2byte	0x1ef
 1057 04a4 26040000 		.4byte	0x426
 1058 04a8 28       		.byte	0x28
 1059 04a9 09       		.uleb128 0x9
 1060 04aa 7E020000 		.4byte	.LASF76
 1061 04ae 08       		.byte	0x8
 1062 04af F001     		.2byte	0x1f0
 1063 04b1 26040000 		.4byte	0x426
 1064 04b5 2C       		.byte	0x2c
 1065 04b6 09       		.uleb128 0x9
 1066 04b7 7A000000 		.4byte	.LASF77
 1067 04bb 08       		.byte	0x8
 1068 04bc F101     		.2byte	0x1f1
 1069 04be 26040000 		.4byte	0x426
ARM GAS  /tmp/cccUnpB8.s 			page 37


 1070 04c2 30       		.byte	0x30
 1071 04c3 09       		.uleb128 0x9
 1072 04c4 33030000 		.4byte	.LASF78
 1073 04c8 08       		.byte	0x8
 1074 04c9 F201     		.2byte	0x1f2
 1075 04cb 26040000 		.4byte	0x426
 1076 04cf 34       		.byte	0x34
 1077 04d0 09       		.uleb128 0x9
 1078 04d1 D8030000 		.4byte	.LASF79
 1079 04d5 08       		.byte	0x8
 1080 04d6 F301     		.2byte	0x1f3
 1081 04d8 26040000 		.4byte	0x426
 1082 04dc 38       		.byte	0x38
 1083 04dd 09       		.uleb128 0x9
 1084 04de 3F020000 		.4byte	.LASF80
 1085 04e2 08       		.byte	0x8
 1086 04e3 F401     		.2byte	0x1f4
 1087 04e5 26040000 		.4byte	0x426
 1088 04e9 3C       		.byte	0x3c
 1089 04ea 08       		.uleb128 0x8
 1090 04eb 50465200 		.ascii	"PFR\000"
 1091 04ef 08       		.byte	0x8
 1092 04f0 F501     		.2byte	0x1f5
 1093 04f2 70050000 		.4byte	0x570
 1094 04f6 40       		.byte	0x40
 1095 04f7 08       		.uleb128 0x8
 1096 04f8 44465200 		.ascii	"DFR\000"
 1097 04fc 08       		.byte	0x8
 1098 04fd F601     		.2byte	0x1f6
 1099 04ff 46050000 		.4byte	0x546
 1100 0503 48       		.byte	0x48
 1101 0504 08       		.uleb128 0x8
 1102 0505 41445200 		.ascii	"ADR\000"
 1103 0509 08       		.byte	0x8
 1104 050a F701     		.2byte	0x1f7
 1105 050c 46050000 		.4byte	0x546
 1106 0510 4C       		.byte	0x4c
 1107 0511 09       		.uleb128 0x9
 1108 0512 20010000 		.4byte	.LASF81
 1109 0516 08       		.byte	0x8
 1110 0517 F801     		.2byte	0x1f8
 1111 0519 8A050000 		.4byte	0x58a
 1112 051d 50       		.byte	0x50
 1113 051e 09       		.uleb128 0x9
 1114 051f E2050000 		.4byte	.LASF82
 1115 0523 08       		.byte	0x8
 1116 0524 F901     		.2byte	0x1f9
 1117 0526 A4050000 		.4byte	0x5a4
 1118 052a 60       		.byte	0x60
 1119 052b 09       		.uleb128 0x9
 1120 052c 43030000 		.4byte	.LASF83
 1121 0530 08       		.byte	0x8
 1122 0531 FA01     		.2byte	0x1fa
 1123 0533 94050000 		.4byte	0x594
 1124 0537 74       		.byte	0x74
 1125 0538 09       		.uleb128 0x9
 1126 0539 10000000 		.4byte	.LASF84
ARM GAS  /tmp/cccUnpB8.s 			page 38


 1127 053d 08       		.byte	0x8
 1128 053e FB01     		.2byte	0x1fb
 1129 0540 26040000 		.4byte	0x426
 1130 0544 88       		.byte	0x88
 1131 0545 00       		.byte	0
 1132 0546 11       		.uleb128 0x11
 1133 0547 26040000 		.4byte	0x426
 1134 054b 12       		.uleb128 0x12
 1135 054c 97000000 		.4byte	0x97
 1136 0550 5B050000 		.4byte	0x55b
 1137 0554 13       		.uleb128 0x13
 1138 0555 1F040000 		.4byte	0x41f
 1139 0559 0B       		.byte	0xb
 1140 055a 00       		.byte	0
 1141 055b 0F       		.uleb128 0xf
 1142 055c 4B050000 		.4byte	0x54b
 1143 0560 12       		.uleb128 0x12
 1144 0561 AD000000 		.4byte	0xad
 1145 0565 70050000 		.4byte	0x570
 1146 0569 13       		.uleb128 0x13
 1147 056a 1F040000 		.4byte	0x41f
 1148 056e 01       		.byte	0x1
 1149 056f 00       		.byte	0
 1150 0570 11       		.uleb128 0x11
 1151 0571 75050000 		.4byte	0x575
 1152 0575 0F       		.uleb128 0xf
 1153 0576 60050000 		.4byte	0x560
 1154 057a 12       		.uleb128 0x12
 1155 057b AD000000 		.4byte	0xad
 1156 057f 8A050000 		.4byte	0x58a
 1157 0583 13       		.uleb128 0x13
 1158 0584 1F040000 		.4byte	0x41f
 1159 0588 03       		.byte	0x3
 1160 0589 00       		.byte	0
 1161 058a 11       		.uleb128 0x11
 1162 058b 8F050000 		.4byte	0x58f
 1163 058f 0F       		.uleb128 0xf
 1164 0590 7A050000 		.4byte	0x57a
 1165 0594 12       		.uleb128 0x12
 1166 0595 AD000000 		.4byte	0xad
 1167 0599 A4050000 		.4byte	0x5a4
 1168 059d 13       		.uleb128 0x13
 1169 059e 1F040000 		.4byte	0x41f
 1170 05a2 04       		.byte	0x4
 1171 05a3 00       		.byte	0
 1172 05a4 11       		.uleb128 0x11
 1173 05a5 A9050000 		.4byte	0x5a9
 1174 05a9 0F       		.uleb128 0xf
 1175 05aa 94050000 		.4byte	0x594
 1176 05ae 14       		.uleb128 0x14
 1177 05af CA030000 		.4byte	.LASF85
 1178 05b3 08       		.byte	0x8
 1179 05b4 FC01     		.2byte	0x1fc
 1180 05b6 2B040000 		.4byte	0x42b
 1181 05ba 04       		.uleb128 0x4
 1182 05bb 2E000000 		.4byte	.LASF86
 1183 05bf 09       		.byte	0x9
ARM GAS  /tmp/cccUnpB8.s 			page 39


 1184 05c0 65       		.byte	0x65
 1185 05c1 F7020000 		.4byte	0x2f7
 1186 05c5 04       		.uleb128 0x4
 1187 05c6 BD050000 		.4byte	.LASF87
 1188 05ca 09       		.byte	0x9
 1189 05cb 6D       		.byte	0x6d
 1190 05cc B8000000 		.4byte	0xb8
 1191 05d0 05       		.uleb128 0x5
 1192 05d1 A6000000 		.4byte	.LASF88
 1193 05d5 04       		.byte	0x4
 1194 05d6 09       		.byte	0x9
 1195 05d7 89       		.byte	0x89
 1196 05d8 E8050000 		.4byte	0x5e8
 1197 05dc 07       		.uleb128 0x7
 1198 05dd 737000   		.ascii	"sp\000"
 1199 05e0 09       		.byte	0x9
 1200 05e1 8A       		.byte	0x8a
 1201 05e2 64060000 		.4byte	0x664
 1202 05e6 00       		.byte	0
 1203 05e7 00       		.byte	0
 1204 05e8 0B       		.uleb128 0xb
 1205 05e9 6B030000 		.4byte	.LASF89
 1206 05ed 24       		.byte	0x24
 1207 05ee 0A       		.byte	0xa
 1208 05ef 5901     		.2byte	0x159
 1209 05f1 64060000 		.4byte	0x664
 1210 05f5 08       		.uleb128 0x8
 1211 05f6 723400   		.ascii	"r4\000"
 1212 05f9 0A       		.byte	0xa
 1213 05fa 6C01     		.2byte	0x16c
 1214 05fc BA050000 		.4byte	0x5ba
 1215 0600 00       		.byte	0
 1216 0601 08       		.uleb128 0x8
 1217 0602 723500   		.ascii	"r5\000"
 1218 0605 0A       		.byte	0xa
 1219 0606 6D01     		.2byte	0x16d
 1220 0608 BA050000 		.4byte	0x5ba
 1221 060c 04       		.byte	0x4
 1222 060d 08       		.uleb128 0x8
 1223 060e 723600   		.ascii	"r6\000"
 1224 0611 0A       		.byte	0xa
 1225 0612 6E01     		.2byte	0x16e
 1226 0614 BA050000 		.4byte	0x5ba
 1227 0618 08       		.byte	0x8
 1228 0619 08       		.uleb128 0x8
 1229 061a 723700   		.ascii	"r7\000"
 1230 061d 0A       		.byte	0xa
 1231 061e 6F01     		.2byte	0x16f
 1232 0620 BA050000 		.4byte	0x5ba
 1233 0624 0C       		.byte	0xc
 1234 0625 08       		.uleb128 0x8
 1235 0626 723800   		.ascii	"r8\000"
 1236 0629 0A       		.byte	0xa
 1237 062a 7001     		.2byte	0x170
 1238 062c BA050000 		.4byte	0x5ba
 1239 0630 10       		.byte	0x10
 1240 0631 08       		.uleb128 0x8
ARM GAS  /tmp/cccUnpB8.s 			page 40


 1241 0632 723900   		.ascii	"r9\000"
 1242 0635 0A       		.byte	0xa
 1243 0636 7101     		.2byte	0x171
 1244 0638 BA050000 		.4byte	0x5ba
 1245 063c 14       		.byte	0x14
 1246 063d 08       		.uleb128 0x8
 1247 063e 72313000 		.ascii	"r10\000"
 1248 0642 0A       		.byte	0xa
 1249 0643 7201     		.2byte	0x172
 1250 0645 BA050000 		.4byte	0x5ba
 1251 0649 18       		.byte	0x18
 1252 064a 08       		.uleb128 0x8
 1253 064b 72313100 		.ascii	"r11\000"
 1254 064f 0A       		.byte	0xa
 1255 0650 7301     		.2byte	0x173
 1256 0652 BA050000 		.4byte	0x5ba
 1257 0656 1C       		.byte	0x1c
 1258 0657 08       		.uleb128 0x8
 1259 0658 6C7200   		.ascii	"lr\000"
 1260 065b 0A       		.byte	0xa
 1261 065c 7401     		.2byte	0x174
 1262 065e BA050000 		.4byte	0x5ba
 1263 0662 20       		.byte	0x20
 1264 0663 00       		.byte	0
 1265 0664 0A       		.uleb128 0xa
 1266 0665 04       		.byte	0x4
 1267 0666 E8050000 		.4byte	0x5e8
 1268 066a 0B       		.uleb128 0xb
 1269 066b BE030000 		.4byte	.LASF90
 1270 066f 20       		.byte	0x20
 1271 0670 0A       		.byte	0xa
 1272 0671 3A01     		.2byte	0x13a
 1273 0673 DB060000 		.4byte	0x6db
 1274 0677 08       		.uleb128 0x8
 1275 0678 723000   		.ascii	"r0\000"
 1276 067b 0A       		.byte	0xa
 1277 067c 3B01     		.2byte	0x13b
 1278 067e BA050000 		.4byte	0x5ba
 1279 0682 00       		.byte	0
 1280 0683 08       		.uleb128 0x8
 1281 0684 723100   		.ascii	"r1\000"
 1282 0687 0A       		.byte	0xa
 1283 0688 3C01     		.2byte	0x13c
 1284 068a BA050000 		.4byte	0x5ba
 1285 068e 04       		.byte	0x4
 1286 068f 08       		.uleb128 0x8
 1287 0690 723200   		.ascii	"r2\000"
 1288 0693 0A       		.byte	0xa
 1289 0694 3D01     		.2byte	0x13d
 1290 0696 BA050000 		.4byte	0x5ba
 1291 069a 08       		.byte	0x8
 1292 069b 08       		.uleb128 0x8
 1293 069c 723300   		.ascii	"r3\000"
 1294 069f 0A       		.byte	0xa
 1295 06a0 3E01     		.2byte	0x13e
 1296 06a2 BA050000 		.4byte	0x5ba
 1297 06a6 0C       		.byte	0xc
ARM GAS  /tmp/cccUnpB8.s 			page 41


 1298 06a7 08       		.uleb128 0x8
 1299 06a8 72313200 		.ascii	"r12\000"
 1300 06ac 0A       		.byte	0xa
 1301 06ad 3F01     		.2byte	0x13f
 1302 06af BA050000 		.4byte	0x5ba
 1303 06b3 10       		.byte	0x10
 1304 06b4 09       		.uleb128 0x9
 1305 06b5 78050000 		.4byte	.LASF91
 1306 06b9 0A       		.byte	0xa
 1307 06ba 4001     		.2byte	0x140
 1308 06bc BA050000 		.4byte	0x5ba
 1309 06c0 14       		.byte	0x14
 1310 06c1 08       		.uleb128 0x8
 1311 06c2 706300   		.ascii	"pc\000"
 1312 06c5 0A       		.byte	0xa
 1313 06c6 4101     		.2byte	0x141
 1314 06c8 BA050000 		.4byte	0x5ba
 1315 06cc 18       		.byte	0x18
 1316 06cd 09       		.uleb128 0x9
 1317 06ce C2040000 		.4byte	.LASF92
 1318 06d2 0A       		.byte	0xa
 1319 06d3 4201     		.2byte	0x142
 1320 06d5 BA050000 		.4byte	0x5ba
 1321 06d9 1C       		.byte	0x1c
 1322 06da 00       		.byte	0
 1323 06db 15       		.uleb128 0x15
 1324 06dc 04       		.byte	0x4
 1325 06dd 0B       		.byte	0xb
 1326 06de 38       		.byte	0x38
 1327 06df F0060000 		.4byte	0x6f0
 1328 06e3 06       		.uleb128 0x6
 1329 06e4 18020000 		.4byte	.LASF93
 1330 06e8 0B       		.byte	0xb
 1331 06e9 3C       		.byte	0x3c
 1332 06ea C3000000 		.4byte	0xc3
 1333 06ee 00       		.byte	0
 1334 06ef 00       		.byte	0
 1335 06f0 04       		.uleb128 0x4
 1336 06f1 1D000000 		.4byte	.LASF94
 1337 06f5 0B       		.byte	0xb
 1338 06f6 3D       		.byte	0x3d
 1339 06f7 DB060000 		.4byte	0x6db
 1340 06fb 16       		.uleb128 0x16
 1341 06fc 04       		.byte	0x4
 1342 06fd 07       		.byte	0x7
 1343 06fe D2       		.byte	0xd2
 1344 06ff 5E070000 		.4byte	0x75e
 1345 0703 17       		.uleb128 0x17
 1346 0704 11020000 		.4byte	.LASF95
 1347 0708 07       		.byte	0x7
 1348 0709 D9       		.byte	0xd9
 1349 070a FA000000 		.4byte	0xfa
 1350 070e 17       		.uleb128 0x17
 1351 070f ED050000 		.4byte	.LASF96
 1352 0713 07       		.byte	0x7
 1353 0714 E0       		.byte	0xe0
 1354 0715 FA000000 		.4byte	0xfa
ARM GAS  /tmp/cccUnpB8.s 			page 42


 1355 0719 17       		.uleb128 0x17
 1356 071a 8E000000 		.4byte	.LASF97
 1357 071e 07       		.byte	0x7
 1358 071f E7       		.byte	0xe7
 1359 0720 F7020000 		.4byte	0x2f7
 1360 0724 17       		.uleb128 0x17
 1361 0725 92050000 		.4byte	.LASF98
 1362 0729 07       		.byte	0x7
 1363 072a EE       		.byte	0xee
 1364 072b 5E070000 		.4byte	0x75e
 1365 072f 17       		.uleb128 0x17
 1366 0730 18010000 		.4byte	.LASF99
 1367 0734 07       		.byte	0x7
 1368 0735 F3       		.byte	0xf3
 1369 0736 FA000000 		.4byte	0xfa
 1370 073a 17       		.uleb128 0x17
 1371 073b 8B050000 		.4byte	.LASF100
 1372 073f 07       		.byte	0x7
 1373 0740 FC       		.byte	0xfc
 1374 0741 89070000 		.4byte	0x789
 1375 0745 18       		.uleb128 0x18
 1376 0746 16000000 		.4byte	.LASF101
 1377 074a 07       		.byte	0x7
 1378 074b 0501     		.2byte	0x105
 1379 074d C0070000 		.4byte	0x7c0
 1380 0751 18       		.uleb128 0x18
 1381 0752 D9000000 		.4byte	.LASF102
 1382 0756 07       		.byte	0x7
 1383 0757 0D01     		.2byte	0x10d
 1384 0759 05010000 		.4byte	0x105
 1385 075d 00       		.byte	0
 1386 075e 0A       		.uleb128 0xa
 1387 075f 04       		.byte	0x4
 1388 0760 0F020000 		.4byte	0x20f
 1389 0764 05       		.uleb128 0x5
 1390 0765 31010000 		.4byte	.LASF103
 1391 0769 0C       		.byte	0xc
 1392 076a 0C       		.byte	0xc
 1393 076b 34       		.byte	0x34
 1394 076c 89070000 		.4byte	0x789
 1395 0770 06       		.uleb128 0x6
 1396 0771 F7040000 		.4byte	.LASF27
 1397 0775 0C       		.byte	0xc
 1398 0776 35       		.byte	0x35
 1399 0777 44020000 		.4byte	0x244
 1400 077b 00       		.byte	0
 1401 077c 07       		.uleb128 0x7
 1402 077d 636E7400 		.ascii	"cnt\000"
 1403 0781 0C       		.byte	0xc
 1404 0782 37       		.byte	0x37
 1405 0783 10010000 		.4byte	0x110
 1406 0787 08       		.byte	0x8
 1407 0788 00       		.byte	0
 1408 0789 0A       		.uleb128 0xa
 1409 078a 04       		.byte	0x4
 1410 078b 64070000 		.4byte	0x764
 1411 078f 05       		.uleb128 0x5
ARM GAS  /tmp/cccUnpB8.s 			page 43


 1412 0790 2B020000 		.4byte	.LASF104
 1413 0794 10       		.byte	0x10
 1414 0795 0D       		.byte	0xd
 1415 0796 39       		.byte	0x39
 1416 0797 C0070000 		.4byte	0x7c0
 1417 079b 06       		.uleb128 0x6
 1418 079c F7040000 		.4byte	.LASF27
 1419 07a0 0D       		.byte	0xd
 1420 07a1 3A       		.byte	0x3a
 1421 07a2 44020000 		.4byte	0x244
 1422 07a6 00       		.byte	0
 1423 07a7 06       		.uleb128 0x6
 1424 07a8 C8050000 		.4byte	.LASF105
 1425 07ac 0D       		.byte	0xd
 1426 07ad 3C       		.byte	0x3c
 1427 07ae 1A020000 		.4byte	0x21a
 1428 07b2 08       		.byte	0x8
 1429 07b3 06       		.uleb128 0x6
 1430 07b4 66000000 		.4byte	.LASF46
 1431 07b8 0D       		.byte	0xd
 1432 07b9 3E       		.byte	0x3e
 1433 07ba F4070000 		.4byte	0x7f4
 1434 07be 0C       		.byte	0xc
 1435 07bf 00       		.byte	0
 1436 07c0 0A       		.uleb128 0xa
 1437 07c1 04       		.byte	0x4
 1438 07c2 8F070000 		.4byte	0x78f
 1439 07c6 0A       		.uleb128 0xa
 1440 07c7 04       		.byte	0x4
 1441 07c8 CC070000 		.4byte	0x7cc
 1442 07cc 11       		.uleb128 0x11
 1443 07cd D1070000 		.4byte	0x7d1
 1444 07d1 03       		.uleb128 0x3
 1445 07d2 01       		.byte	0x1
 1446 07d3 08       		.byte	0x8
 1447 07d4 88020000 		.4byte	.LASF106
 1448 07d8 0A       		.uleb128 0xa
 1449 07d9 04       		.byte	0x4
 1450 07da C5050000 		.4byte	0x5c5
 1451 07de 0A       		.uleb128 0xa
 1452 07df 04       		.byte	0x4
 1453 07e0 F9020000 		.4byte	0x2f9
 1454 07e4 0F       		.uleb128 0xf
 1455 07e5 C6070000 		.4byte	0x7c6
 1456 07e9 04       		.uleb128 0x4
 1457 07ea 05050000 		.4byte	.LASF107
 1458 07ee 0D       		.byte	0xd
 1459 07ef 34       		.byte	0x34
 1460 07f0 8F070000 		.4byte	0x78f
 1461 07f4 0A       		.uleb128 0xa
 1462 07f5 04       		.byte	0x4
 1463 07f6 E9070000 		.4byte	0x7e9
 1464 07fa 19       		.uleb128 0x19
 1465 07fb 8E030000 		.4byte	.LASF110
 1466 07ff 02       		.byte	0x2
 1467 0800 0601     		.2byte	0x106
 1468 0802 03       		.byte	0x3
ARM GAS  /tmp/cccUnpB8.s 			page 44


 1469 0803 14080000 		.4byte	0x814
 1470 0807 1A       		.uleb128 0x1a
 1471 0808 E3010000 		.4byte	.LASF112
 1472 080c 02       		.byte	0x2
 1473 080d 0601     		.2byte	0x106
 1474 080f AD000000 		.4byte	0xad
 1475 0813 00       		.byte	0
 1476 0814 1B       		.uleb128 0x1b
 1477 0815 95000000 		.4byte	.LASF108
 1478 0819 0A       		.byte	0xa
 1479 081a 5202     		.2byte	0x252
 1480 081c 03       		.byte	0x3
 1481 081d 1B       		.uleb128 0x1b
 1482 081e D6050000 		.4byte	.LASF109
 1483 0822 0A       		.byte	0xa
 1484 0823 6A02     		.2byte	0x26a
 1485 0825 03       		.byte	0x3
 1486 0826 1C       		.uleb128 0x1c
 1487 0827 FC050000 		.4byte	.LASF123
 1488 082b 02       		.byte	0x2
 1489 082c 94       		.byte	0x94
 1490 082d AD000000 		.4byte	0xad
 1491 0831 03       		.byte	0x3
 1492 0832 42080000 		.4byte	0x842
 1493 0836 1D       		.uleb128 0x1d
 1494 0837 57010000 		.4byte	.LASF116
 1495 083b 02       		.byte	0x2
 1496 083c 96       		.byte	0x96
 1497 083d AD000000 		.4byte	0xad
 1498 0841 00       		.byte	0
 1499 0842 1E       		.uleb128 0x1e
 1500 0843 39030000 		.4byte	.LASF111
 1501 0847 02       		.byte	0x2
 1502 0848 A2       		.byte	0xa2
 1503 0849 03       		.byte	0x3
 1504 084a 5A080000 		.4byte	0x85a
 1505 084e 1F       		.uleb128 0x1f
 1506 084f D4010000 		.4byte	.LASF113
 1507 0853 02       		.byte	0x2
 1508 0854 A2       		.byte	0xa2
 1509 0855 AD000000 		.4byte	0xad
 1510 0859 00       		.byte	0
 1511 085a 1B       		.uleb128 0x1b
 1512 085b 13050000 		.4byte	.LASF114
 1513 085f 0A       		.byte	0xa
 1514 0860 8402     		.2byte	0x284
 1515 0862 03       		.byte	0x3
 1516 0863 1B       		.uleb128 0x1b
 1517 0864 B3000000 		.4byte	.LASF115
 1518 0868 0A       		.byte	0xa
 1519 0869 7902     		.2byte	0x279
 1520 086b 03       		.byte	0x3
 1521 086c 20       		.uleb128 0x20
 1522 086d 5F050000 		.4byte	.LASF124
 1523 0871 01       		.byte	0x1
 1524 0872 7A       		.byte	0x7a
 1525 0873 01       		.byte	0x1
ARM GAS  /tmp/cccUnpB8.s 			page 45


 1526 0874 86080000 		.4byte	0x886
 1527 0878 21       		.uleb128 0x21
 1528 0879 1D       		.uleb128 0x1d
 1529 087a 5D030000 		.4byte	.LASF117
 1530 087e 01       		.byte	0x1
 1531 087f 7E       		.byte	0x7e
 1532 0880 86080000 		.4byte	0x886
 1533 0884 00       		.byte	0
 1534 0885 00       		.byte	0
 1535 0886 0A       		.uleb128 0xa
 1536 0887 04       		.byte	0x4
 1537 0888 6A060000 		.4byte	0x66a
 1538 088c 22       		.uleb128 0x22
 1539 088d 72020000 		.4byte	.LASF125
 1540 0891 01       		.byte	0x1
 1541 0892 3E       		.byte	0x3e
 1542 0893 00000000 		.4byte	.LFB239
 1543 0897 12000000 		.4byte	.LFE239-.LFB239
 1544 089b 01       		.uleb128 0x1
 1545 089c 9C       		.byte	0x9c
 1546 089d 2D090000 		.4byte	0x92d
 1547 08a1 23       		.uleb128 0x23
 1548 08a2 5D030000 		.4byte	.LASF117
 1549 08a6 01       		.byte	0x1
 1550 08a7 40       		.byte	0x40
 1551 08a8 86080000 		.4byte	0x886
 1552 08ac 00000000 		.4byte	.LLST0
 1553 08b0 24       		.uleb128 0x24
 1554 08b1 26080000 		.4byte	0x826
 1555 08b5 00000000 		.4byte	.LBB51
 1556 08b9 04000000 		.4byte	.LBE51-.LBB51
 1557 08bd 01       		.byte	0x1
 1558 08be 48       		.byte	0x48
 1559 08bf D7080000 		.4byte	0x8d7
 1560 08c3 25       		.uleb128 0x25
 1561 08c4 00000000 		.4byte	.LBB52
 1562 08c8 04000000 		.4byte	.LBE52-.LBB52
 1563 08cc 26       		.uleb128 0x26
 1564 08cd 36080000 		.4byte	0x836
 1565 08d1 20000000 		.4byte	.LLST1
 1566 08d5 00       		.byte	0
 1567 08d6 00       		.byte	0
 1568 08d7 24       		.uleb128 0x24
 1569 08d8 42080000 		.4byte	0x842
 1570 08dc 06000000 		.4byte	.LBB53
 1571 08e0 04000000 		.4byte	.LBE53-.LBB53
 1572 08e4 01       		.byte	0x1
 1573 08e5 4F       		.byte	0x4f
 1574 08e6 F4080000 		.4byte	0x8f4
 1575 08ea 27       		.uleb128 0x27
 1576 08eb 4E080000 		.4byte	0x84e
 1577 08ef 00000000 		.4byte	.LLST0
 1578 08f3 00       		.byte	0
 1579 08f4 28       		.uleb128 0x28
 1580 08f5 5A080000 		.4byte	0x85a
 1581 08f9 0A000000 		.4byte	.LBB55
 1582 08fd 08000000 		.4byte	.LBE55-.LBB55
ARM GAS  /tmp/cccUnpB8.s 			page 46


 1583 0901 01       		.byte	0x1
 1584 0902 52       		.byte	0x52
 1585 0903 29       		.uleb128 0x29
 1586 0904 1D080000 		.4byte	0x81d
 1587 0908 0A000000 		.4byte	.LBB56
 1588 090c 08000000 		.4byte	.LBE56-.LBB56
 1589 0910 0A       		.byte	0xa
 1590 0911 8602     		.2byte	0x286
 1591 0913 29       		.uleb128 0x29
 1592 0914 FA070000 		.4byte	0x7fa
 1593 0918 0A000000 		.4byte	.LBB57
 1594 091c 08000000 		.4byte	.LBE57-.LBB57
 1595 0920 0A       		.byte	0xa
 1596 0921 6D02     		.2byte	0x26d
 1597 0923 2A       		.uleb128 0x2a
 1598 0924 07080000 		.4byte	0x807
 1599 0928 00       		.byte	0
 1600 0929 00       		.byte	0
 1601 092a 00       		.byte	0
 1602 092b 00       		.byte	0
 1603 092c 00       		.byte	0
 1604 092d 2B       		.uleb128 0x2b
 1605 092e 6C080000 		.4byte	0x86c
 1606 0932 00000000 		.4byte	.LFB240
 1607 0936 50000000 		.4byte	.LFE240-.LFB240
 1608 093a 01       		.uleb128 0x1
 1609 093b 9C       		.byte	0x9c
 1610 093c 1C0A0000 		.4byte	0xa1c
 1611 0940 24       		.uleb128 0x24
 1612 0941 63080000 		.4byte	0x863
 1613 0945 02000000 		.4byte	.LBB83
 1614 0949 06000000 		.4byte	.LBE83-.LBB83
 1615 094d 01       		.byte	0x1
 1616 094e 7C       		.byte	0x7c
 1617 094f 7C090000 		.4byte	0x97c
 1618 0953 29       		.uleb128 0x29
 1619 0954 14080000 		.4byte	0x814
 1620 0958 02000000 		.4byte	.LBB84
 1621 095c 06000000 		.4byte	.LBE84-.LBB84
 1622 0960 0A       		.byte	0xa
 1623 0961 7B02     		.2byte	0x27b
 1624 0963 29       		.uleb128 0x29
 1625 0964 FA070000 		.4byte	0x7fa
 1626 0968 02000000 		.4byte	.LBB85
 1627 096c 06000000 		.4byte	.LBE85-.LBB85
 1628 0970 0A       		.byte	0xa
 1629 0971 5A02     		.2byte	0x25a
 1630 0973 2A       		.uleb128 0x2a
 1631 0974 07080000 		.4byte	0x807
 1632 0978 20       		.byte	0x20
 1633 0979 00       		.byte	0
 1634 097a 00       		.byte	0
 1635 097b 00       		.byte	0
 1636 097c 24       		.uleb128 0x24
 1637 097d 5A080000 		.4byte	0x85a
 1638 0981 12000000 		.4byte	.LBB87
 1639 0985 06000000 		.4byte	.LBE87-.LBB87
ARM GAS  /tmp/cccUnpB8.s 			page 47


 1640 0989 01       		.byte	0x1
 1641 098a A5       		.byte	0xa5
 1642 098b BB090000 		.4byte	0x9bb
 1643 098f 29       		.uleb128 0x29
 1644 0990 1D080000 		.4byte	0x81d
 1645 0994 12000000 		.4byte	.LBB88
 1646 0998 06000000 		.4byte	.LBE88-.LBB88
 1647 099c 0A       		.byte	0xa
 1648 099d 8602     		.2byte	0x286
 1649 099f 29       		.uleb128 0x29
 1650 09a0 FA070000 		.4byte	0x7fa
 1651 09a4 12000000 		.4byte	.LBB89
 1652 09a8 06000000 		.4byte	.LBE89-.LBB89
 1653 09ac 0A       		.byte	0xa
 1654 09ad 6D02     		.2byte	0x26d
 1655 09af 27       		.uleb128 0x27
 1656 09b0 07080000 		.4byte	0x807
 1657 09b4 40000000 		.4byte	.LLST3
 1658 09b8 00       		.byte	0
 1659 09b9 00       		.byte	0
 1660 09ba 00       		.byte	0
 1661 09bb 25       		.uleb128 0x25
 1662 09bc 18000000 		.4byte	.LBB92
 1663 09c0 38000000 		.4byte	.LBE92-.LBB92
 1664 09c4 26       		.uleb128 0x26
 1665 09c5 79080000 		.4byte	0x879
 1666 09c9 54000000 		.4byte	.LLST4
 1667 09cd 24       		.uleb128 0x24
 1668 09ce 26080000 		.4byte	0x826
 1669 09d2 18000000 		.4byte	.LBB93
 1670 09d6 04000000 		.4byte	.LBE93-.LBB93
 1671 09da 01       		.byte	0x1
 1672 09db 86       		.byte	0x86
 1673 09dc F4090000 		.4byte	0x9f4
 1674 09e0 25       		.uleb128 0x25
 1675 09e1 18000000 		.4byte	.LBB94
 1676 09e5 04000000 		.4byte	.LBE94-.LBB94
 1677 09e9 26       		.uleb128 0x26
 1678 09ea 36080000 		.4byte	0x836
 1679 09ee 81000000 		.4byte	.LLST5
 1680 09f2 00       		.byte	0
 1681 09f3 00       		.byte	0
 1682 09f4 24       		.uleb128 0x24
 1683 09f5 42080000 		.4byte	0x842
 1684 09f9 28000000 		.4byte	.LBB95
 1685 09fd 04000000 		.4byte	.LBE95-.LBB95
 1686 0a01 01       		.byte	0x1
 1687 0a02 93       		.byte	0x93
 1688 0a03 110A0000 		.4byte	0xa11
 1689 0a07 27       		.uleb128 0x27
 1690 0a08 4E080000 		.4byte	0x84e
 1691 0a0c 94000000 		.4byte	.LLST6
 1692 0a10 00       		.byte	0
 1693 0a11 2C       		.uleb128 0x2c
 1694 0a12 30000000 		.4byte	.LVL10
 1695 0a16 380A0000 		.4byte	0xa38
 1696 0a1a 00       		.byte	0
ARM GAS  /tmp/cccUnpB8.s 			page 48


 1697 0a1b 00       		.byte	0
 1698 0a1c 2D       		.uleb128 0x2d
 1699 0a1d 77030000 		.4byte	.LASF118
 1700 0a21 08       		.byte	0x8
 1701 0a22 4407     		.2byte	0x744
 1702 0a24 280A0000 		.4byte	0xa28
 1703 0a28 0F       		.uleb128 0xf
 1704 0a29 A2000000 		.4byte	0xa2
 1705 0a2d 2E       		.uleb128 0x2e
 1706 0a2e 636800   		.ascii	"ch\000"
 1707 0a31 07       		.byte	0x7
 1708 0a32 D201     		.2byte	0x1d2
 1709 0a34 C6030000 		.4byte	0x3c6
 1710 0a38 2F       		.uleb128 0x2f
 1711 0a39 75010000 		.4byte	.LASF126
 1712 0a3d 07       		.byte	0x7
 1713 0a3e E201     		.2byte	0x1e2
 1714 0a40 440A0000 		.4byte	0xa44
 1715 0a44 03       		.uleb128 0x3
 1716 0a45 01       		.byte	0x1
 1717 0a46 02       		.byte	0x2
 1718 0a47 25020000 		.4byte	.LASF119
 1719 0a4b 00       		.byte	0
 1720              		.section	.debug_abbrev,"",%progbits
 1721              	.Ldebug_abbrev0:
 1722 0000 01       		.uleb128 0x1
 1723 0001 11       		.uleb128 0x11
 1724 0002 01       		.byte	0x1
 1725 0003 25       		.uleb128 0x25
 1726 0004 0E       		.uleb128 0xe
 1727 0005 13       		.uleb128 0x13
 1728 0006 0B       		.uleb128 0xb
 1729 0007 03       		.uleb128 0x3
 1730 0008 0E       		.uleb128 0xe
 1731 0009 1B       		.uleb128 0x1b
 1732 000a 0E       		.uleb128 0xe
 1733 000b 55       		.uleb128 0x55
 1734 000c 17       		.uleb128 0x17
 1735 000d 11       		.uleb128 0x11
 1736 000e 01       		.uleb128 0x1
 1737 000f 10       		.uleb128 0x10
 1738 0010 17       		.uleb128 0x17
 1739 0011 00       		.byte	0
 1740 0012 00       		.byte	0
 1741 0013 02       		.uleb128 0x2
 1742 0014 24       		.uleb128 0x24
 1743 0015 00       		.byte	0
 1744 0016 0B       		.uleb128 0xb
 1745 0017 0B       		.uleb128 0xb
 1746 0018 3E       		.uleb128 0x3e
 1747 0019 0B       		.uleb128 0xb
 1748 001a 03       		.uleb128 0x3
 1749 001b 08       		.uleb128 0x8
 1750 001c 00       		.byte	0
 1751 001d 00       		.byte	0
 1752 001e 03       		.uleb128 0x3
 1753 001f 24       		.uleb128 0x24
ARM GAS  /tmp/cccUnpB8.s 			page 49


 1754 0020 00       		.byte	0
 1755 0021 0B       		.uleb128 0xb
 1756 0022 0B       		.uleb128 0xb
 1757 0023 3E       		.uleb128 0x3e
 1758 0024 0B       		.uleb128 0xb
 1759 0025 03       		.uleb128 0x3
 1760 0026 0E       		.uleb128 0xe
 1761 0027 00       		.byte	0
 1762 0028 00       		.byte	0
 1763 0029 04       		.uleb128 0x4
 1764 002a 16       		.uleb128 0x16
 1765 002b 00       		.byte	0
 1766 002c 03       		.uleb128 0x3
 1767 002d 0E       		.uleb128 0xe
 1768 002e 3A       		.uleb128 0x3a
 1769 002f 0B       		.uleb128 0xb
 1770 0030 3B       		.uleb128 0x3b
 1771 0031 0B       		.uleb128 0xb
 1772 0032 49       		.uleb128 0x49
 1773 0033 13       		.uleb128 0x13
 1774 0034 00       		.byte	0
 1775 0035 00       		.byte	0
 1776 0036 05       		.uleb128 0x5
 1777 0037 13       		.uleb128 0x13
 1778 0038 01       		.byte	0x1
 1779 0039 03       		.uleb128 0x3
 1780 003a 0E       		.uleb128 0xe
 1781 003b 0B       		.uleb128 0xb
 1782 003c 0B       		.uleb128 0xb
 1783 003d 3A       		.uleb128 0x3a
 1784 003e 0B       		.uleb128 0xb
 1785 003f 3B       		.uleb128 0x3b
 1786 0040 0B       		.uleb128 0xb
 1787 0041 01       		.uleb128 0x1
 1788 0042 13       		.uleb128 0x13
 1789 0043 00       		.byte	0
 1790 0044 00       		.byte	0
 1791 0045 06       		.uleb128 0x6
 1792 0046 0D       		.uleb128 0xd
 1793 0047 00       		.byte	0
 1794 0048 03       		.uleb128 0x3
 1795 0049 0E       		.uleb128 0xe
 1796 004a 3A       		.uleb128 0x3a
 1797 004b 0B       		.uleb128 0xb
 1798 004c 3B       		.uleb128 0x3b
 1799 004d 0B       		.uleb128 0xb
 1800 004e 49       		.uleb128 0x49
 1801 004f 13       		.uleb128 0x13
 1802 0050 38       		.uleb128 0x38
 1803 0051 0B       		.uleb128 0xb
 1804 0052 00       		.byte	0
 1805 0053 00       		.byte	0
 1806 0054 07       		.uleb128 0x7
 1807 0055 0D       		.uleb128 0xd
 1808 0056 00       		.byte	0
 1809 0057 03       		.uleb128 0x3
 1810 0058 08       		.uleb128 0x8
ARM GAS  /tmp/cccUnpB8.s 			page 50


 1811 0059 3A       		.uleb128 0x3a
 1812 005a 0B       		.uleb128 0xb
 1813 005b 3B       		.uleb128 0x3b
 1814 005c 0B       		.uleb128 0xb
 1815 005d 49       		.uleb128 0x49
 1816 005e 13       		.uleb128 0x13
 1817 005f 38       		.uleb128 0x38
 1818 0060 0B       		.uleb128 0xb
 1819 0061 00       		.byte	0
 1820 0062 00       		.byte	0
 1821 0063 08       		.uleb128 0x8
 1822 0064 0D       		.uleb128 0xd
 1823 0065 00       		.byte	0
 1824 0066 03       		.uleb128 0x3
 1825 0067 08       		.uleb128 0x8
 1826 0068 3A       		.uleb128 0x3a
 1827 0069 0B       		.uleb128 0xb
 1828 006a 3B       		.uleb128 0x3b
 1829 006b 05       		.uleb128 0x5
 1830 006c 49       		.uleb128 0x49
 1831 006d 13       		.uleb128 0x13
 1832 006e 38       		.uleb128 0x38
 1833 006f 0B       		.uleb128 0xb
 1834 0070 00       		.byte	0
 1835 0071 00       		.byte	0
 1836 0072 09       		.uleb128 0x9
 1837 0073 0D       		.uleb128 0xd
 1838 0074 00       		.byte	0
 1839 0075 03       		.uleb128 0x3
 1840 0076 0E       		.uleb128 0xe
 1841 0077 3A       		.uleb128 0x3a
 1842 0078 0B       		.uleb128 0xb
 1843 0079 3B       		.uleb128 0x3b
 1844 007a 05       		.uleb128 0x5
 1845 007b 49       		.uleb128 0x49
 1846 007c 13       		.uleb128 0x13
 1847 007d 38       		.uleb128 0x38
 1848 007e 0B       		.uleb128 0xb
 1849 007f 00       		.byte	0
 1850 0080 00       		.byte	0
 1851 0081 0A       		.uleb128 0xa
 1852 0082 0F       		.uleb128 0xf
 1853 0083 00       		.byte	0
 1854 0084 0B       		.uleb128 0xb
 1855 0085 0B       		.uleb128 0xb
 1856 0086 49       		.uleb128 0x49
 1857 0087 13       		.uleb128 0x13
 1858 0088 00       		.byte	0
 1859 0089 00       		.byte	0
 1860 008a 0B       		.uleb128 0xb
 1861 008b 13       		.uleb128 0x13
 1862 008c 01       		.byte	0x1
 1863 008d 03       		.uleb128 0x3
 1864 008e 0E       		.uleb128 0xe
 1865 008f 0B       		.uleb128 0xb
 1866 0090 0B       		.uleb128 0xb
 1867 0091 3A       		.uleb128 0x3a
ARM GAS  /tmp/cccUnpB8.s 			page 51


 1868 0092 0B       		.uleb128 0xb
 1869 0093 3B       		.uleb128 0x3b
 1870 0094 05       		.uleb128 0x5
 1871 0095 01       		.uleb128 0x1
 1872 0096 13       		.uleb128 0x13
 1873 0097 00       		.byte	0
 1874 0098 00       		.byte	0
 1875 0099 0C       		.uleb128 0xc
 1876 009a 15       		.uleb128 0x15
 1877 009b 01       		.byte	0x1
 1878 009c 27       		.uleb128 0x27
 1879 009d 19       		.uleb128 0x19
 1880 009e 01       		.uleb128 0x1
 1881 009f 13       		.uleb128 0x13
 1882 00a0 00       		.byte	0
 1883 00a1 00       		.byte	0
 1884 00a2 0D       		.uleb128 0xd
 1885 00a3 05       		.uleb128 0x5
 1886 00a4 00       		.byte	0
 1887 00a5 49       		.uleb128 0x49
 1888 00a6 13       		.uleb128 0x13
 1889 00a7 00       		.byte	0
 1890 00a8 00       		.byte	0
 1891 00a9 0E       		.uleb128 0xe
 1892 00aa 0F       		.uleb128 0xf
 1893 00ab 00       		.byte	0
 1894 00ac 0B       		.uleb128 0xb
 1895 00ad 0B       		.uleb128 0xb
 1896 00ae 00       		.byte	0
 1897 00af 00       		.byte	0
 1898 00b0 0F       		.uleb128 0xf
 1899 00b1 35       		.uleb128 0x35
 1900 00b2 00       		.byte	0
 1901 00b3 49       		.uleb128 0x49
 1902 00b4 13       		.uleb128 0x13
 1903 00b5 00       		.byte	0
 1904 00b6 00       		.byte	0
 1905 00b7 10       		.uleb128 0x10
 1906 00b8 13       		.uleb128 0x13
 1907 00b9 01       		.byte	0x1
 1908 00ba 0B       		.uleb128 0xb
 1909 00bb 0B       		.uleb128 0xb
 1910 00bc 3A       		.uleb128 0x3a
 1911 00bd 0B       		.uleb128 0xb
 1912 00be 3B       		.uleb128 0x3b
 1913 00bf 05       		.uleb128 0x5
 1914 00c0 01       		.uleb128 0x1
 1915 00c1 13       		.uleb128 0x13
 1916 00c2 00       		.byte	0
 1917 00c3 00       		.byte	0
 1918 00c4 11       		.uleb128 0x11
 1919 00c5 26       		.uleb128 0x26
 1920 00c6 00       		.byte	0
 1921 00c7 49       		.uleb128 0x49
 1922 00c8 13       		.uleb128 0x13
 1923 00c9 00       		.byte	0
 1924 00ca 00       		.byte	0
ARM GAS  /tmp/cccUnpB8.s 			page 52


 1925 00cb 12       		.uleb128 0x12
 1926 00cc 01       		.uleb128 0x1
 1927 00cd 01       		.byte	0x1
 1928 00ce 49       		.uleb128 0x49
 1929 00cf 13       		.uleb128 0x13
 1930 00d0 01       		.uleb128 0x1
 1931 00d1 13       		.uleb128 0x13
 1932 00d2 00       		.byte	0
 1933 00d3 00       		.byte	0
 1934 00d4 13       		.uleb128 0x13
 1935 00d5 21       		.uleb128 0x21
 1936 00d6 00       		.byte	0
 1937 00d7 49       		.uleb128 0x49
 1938 00d8 13       		.uleb128 0x13
 1939 00d9 2F       		.uleb128 0x2f
 1940 00da 0B       		.uleb128 0xb
 1941 00db 00       		.byte	0
 1942 00dc 00       		.byte	0
 1943 00dd 14       		.uleb128 0x14
 1944 00de 16       		.uleb128 0x16
 1945 00df 00       		.byte	0
 1946 00e0 03       		.uleb128 0x3
 1947 00e1 0E       		.uleb128 0xe
 1948 00e2 3A       		.uleb128 0x3a
 1949 00e3 0B       		.uleb128 0xb
 1950 00e4 3B       		.uleb128 0x3b
 1951 00e5 05       		.uleb128 0x5
 1952 00e6 49       		.uleb128 0x49
 1953 00e7 13       		.uleb128 0x13
 1954 00e8 00       		.byte	0
 1955 00e9 00       		.byte	0
 1956 00ea 15       		.uleb128 0x15
 1957 00eb 13       		.uleb128 0x13
 1958 00ec 01       		.byte	0x1
 1959 00ed 0B       		.uleb128 0xb
 1960 00ee 0B       		.uleb128 0xb
 1961 00ef 3A       		.uleb128 0x3a
 1962 00f0 0B       		.uleb128 0xb
 1963 00f1 3B       		.uleb128 0x3b
 1964 00f2 0B       		.uleb128 0xb
 1965 00f3 01       		.uleb128 0x1
 1966 00f4 13       		.uleb128 0x13
 1967 00f5 00       		.byte	0
 1968 00f6 00       		.byte	0
 1969 00f7 16       		.uleb128 0x16
 1970 00f8 17       		.uleb128 0x17
 1971 00f9 01       		.byte	0x1
 1972 00fa 0B       		.uleb128 0xb
 1973 00fb 0B       		.uleb128 0xb
 1974 00fc 3A       		.uleb128 0x3a
 1975 00fd 0B       		.uleb128 0xb
 1976 00fe 3B       		.uleb128 0x3b
 1977 00ff 0B       		.uleb128 0xb
 1978 0100 01       		.uleb128 0x1
 1979 0101 13       		.uleb128 0x13
 1980 0102 00       		.byte	0
 1981 0103 00       		.byte	0
ARM GAS  /tmp/cccUnpB8.s 			page 53


 1982 0104 17       		.uleb128 0x17
 1983 0105 0D       		.uleb128 0xd
 1984 0106 00       		.byte	0
 1985 0107 03       		.uleb128 0x3
 1986 0108 0E       		.uleb128 0xe
 1987 0109 3A       		.uleb128 0x3a
 1988 010a 0B       		.uleb128 0xb
 1989 010b 3B       		.uleb128 0x3b
 1990 010c 0B       		.uleb128 0xb
 1991 010d 49       		.uleb128 0x49
 1992 010e 13       		.uleb128 0x13
 1993 010f 00       		.byte	0
 1994 0110 00       		.byte	0
 1995 0111 18       		.uleb128 0x18
 1996 0112 0D       		.uleb128 0xd
 1997 0113 00       		.byte	0
 1998 0114 03       		.uleb128 0x3
 1999 0115 0E       		.uleb128 0xe
 2000 0116 3A       		.uleb128 0x3a
 2001 0117 0B       		.uleb128 0xb
 2002 0118 3B       		.uleb128 0x3b
 2003 0119 05       		.uleb128 0x5
 2004 011a 49       		.uleb128 0x49
 2005 011b 13       		.uleb128 0x13
 2006 011c 00       		.byte	0
 2007 011d 00       		.byte	0
 2008 011e 19       		.uleb128 0x19
 2009 011f 2E       		.uleb128 0x2e
 2010 0120 01       		.byte	0x1
 2011 0121 03       		.uleb128 0x3
 2012 0122 0E       		.uleb128 0xe
 2013 0123 3A       		.uleb128 0x3a
 2014 0124 0B       		.uleb128 0xb
 2015 0125 3B       		.uleb128 0x3b
 2016 0126 05       		.uleb128 0x5
 2017 0127 27       		.uleb128 0x27
 2018 0128 19       		.uleb128 0x19
 2019 0129 20       		.uleb128 0x20
 2020 012a 0B       		.uleb128 0xb
 2021 012b 01       		.uleb128 0x1
 2022 012c 13       		.uleb128 0x13
 2023 012d 00       		.byte	0
 2024 012e 00       		.byte	0
 2025 012f 1A       		.uleb128 0x1a
 2026 0130 05       		.uleb128 0x5
 2027 0131 00       		.byte	0
 2028 0132 03       		.uleb128 0x3
 2029 0133 0E       		.uleb128 0xe
 2030 0134 3A       		.uleb128 0x3a
 2031 0135 0B       		.uleb128 0xb
 2032 0136 3B       		.uleb128 0x3b
 2033 0137 05       		.uleb128 0x5
 2034 0138 49       		.uleb128 0x49
 2035 0139 13       		.uleb128 0x13
 2036 013a 00       		.byte	0
 2037 013b 00       		.byte	0
 2038 013c 1B       		.uleb128 0x1b
ARM GAS  /tmp/cccUnpB8.s 			page 54


 2039 013d 2E       		.uleb128 0x2e
 2040 013e 00       		.byte	0
 2041 013f 03       		.uleb128 0x3
 2042 0140 0E       		.uleb128 0xe
 2043 0141 3A       		.uleb128 0x3a
 2044 0142 0B       		.uleb128 0xb
 2045 0143 3B       		.uleb128 0x3b
 2046 0144 05       		.uleb128 0x5
 2047 0145 27       		.uleb128 0x27
 2048 0146 19       		.uleb128 0x19
 2049 0147 20       		.uleb128 0x20
 2050 0148 0B       		.uleb128 0xb
 2051 0149 00       		.byte	0
 2052 014a 00       		.byte	0
 2053 014b 1C       		.uleb128 0x1c
 2054 014c 2E       		.uleb128 0x2e
 2055 014d 01       		.byte	0x1
 2056 014e 03       		.uleb128 0x3
 2057 014f 0E       		.uleb128 0xe
 2058 0150 3A       		.uleb128 0x3a
 2059 0151 0B       		.uleb128 0xb
 2060 0152 3B       		.uleb128 0x3b
 2061 0153 0B       		.uleb128 0xb
 2062 0154 27       		.uleb128 0x27
 2063 0155 19       		.uleb128 0x19
 2064 0156 49       		.uleb128 0x49
 2065 0157 13       		.uleb128 0x13
 2066 0158 20       		.uleb128 0x20
 2067 0159 0B       		.uleb128 0xb
 2068 015a 01       		.uleb128 0x1
 2069 015b 13       		.uleb128 0x13
 2070 015c 00       		.byte	0
 2071 015d 00       		.byte	0
 2072 015e 1D       		.uleb128 0x1d
 2073 015f 34       		.uleb128 0x34
 2074 0160 00       		.byte	0
 2075 0161 03       		.uleb128 0x3
 2076 0162 0E       		.uleb128 0xe
 2077 0163 3A       		.uleb128 0x3a
 2078 0164 0B       		.uleb128 0xb
 2079 0165 3B       		.uleb128 0x3b
 2080 0166 0B       		.uleb128 0xb
 2081 0167 49       		.uleb128 0x49
 2082 0168 13       		.uleb128 0x13
 2083 0169 00       		.byte	0
 2084 016a 00       		.byte	0
 2085 016b 1E       		.uleb128 0x1e
 2086 016c 2E       		.uleb128 0x2e
 2087 016d 01       		.byte	0x1
 2088 016e 03       		.uleb128 0x3
 2089 016f 0E       		.uleb128 0xe
 2090 0170 3A       		.uleb128 0x3a
 2091 0171 0B       		.uleb128 0xb
 2092 0172 3B       		.uleb128 0x3b
 2093 0173 0B       		.uleb128 0xb
 2094 0174 27       		.uleb128 0x27
 2095 0175 19       		.uleb128 0x19
ARM GAS  /tmp/cccUnpB8.s 			page 55


 2096 0176 20       		.uleb128 0x20
 2097 0177 0B       		.uleb128 0xb
 2098 0178 01       		.uleb128 0x1
 2099 0179 13       		.uleb128 0x13
 2100 017a 00       		.byte	0
 2101 017b 00       		.byte	0
 2102 017c 1F       		.uleb128 0x1f
 2103 017d 05       		.uleb128 0x5
 2104 017e 00       		.byte	0
 2105 017f 03       		.uleb128 0x3
 2106 0180 0E       		.uleb128 0xe
 2107 0181 3A       		.uleb128 0x3a
 2108 0182 0B       		.uleb128 0xb
 2109 0183 3B       		.uleb128 0x3b
 2110 0184 0B       		.uleb128 0xb
 2111 0185 49       		.uleb128 0x49
 2112 0186 13       		.uleb128 0x13
 2113 0187 00       		.byte	0
 2114 0188 00       		.byte	0
 2115 0189 20       		.uleb128 0x20
 2116 018a 2E       		.uleb128 0x2e
 2117 018b 01       		.byte	0x1
 2118 018c 3F       		.uleb128 0x3f
 2119 018d 19       		.uleb128 0x19
 2120 018e 03       		.uleb128 0x3
 2121 018f 0E       		.uleb128 0xe
 2122 0190 3A       		.uleb128 0x3a
 2123 0191 0B       		.uleb128 0xb
 2124 0192 3B       		.uleb128 0x3b
 2125 0193 0B       		.uleb128 0xb
 2126 0194 27       		.uleb128 0x27
 2127 0195 19       		.uleb128 0x19
 2128 0196 20       		.uleb128 0x20
 2129 0197 0B       		.uleb128 0xb
 2130 0198 01       		.uleb128 0x1
 2131 0199 13       		.uleb128 0x13
 2132 019a 00       		.byte	0
 2133 019b 00       		.byte	0
 2134 019c 21       		.uleb128 0x21
 2135 019d 0B       		.uleb128 0xb
 2136 019e 01       		.byte	0x1
 2137 019f 00       		.byte	0
 2138 01a0 00       		.byte	0
 2139 01a1 22       		.uleb128 0x22
 2140 01a2 2E       		.uleb128 0x2e
 2141 01a3 01       		.byte	0x1
 2142 01a4 3F       		.uleb128 0x3f
 2143 01a5 19       		.uleb128 0x19
 2144 01a6 03       		.uleb128 0x3
 2145 01a7 0E       		.uleb128 0xe
 2146 01a8 3A       		.uleb128 0x3a
 2147 01a9 0B       		.uleb128 0xb
 2148 01aa 3B       		.uleb128 0x3b
 2149 01ab 0B       		.uleb128 0xb
 2150 01ac 27       		.uleb128 0x27
 2151 01ad 19       		.uleb128 0x19
 2152 01ae 11       		.uleb128 0x11
ARM GAS  /tmp/cccUnpB8.s 			page 56


 2153 01af 01       		.uleb128 0x1
 2154 01b0 12       		.uleb128 0x12
 2155 01b1 06       		.uleb128 0x6
 2156 01b2 40       		.uleb128 0x40
 2157 01b3 18       		.uleb128 0x18
 2158 01b4 9742     		.uleb128 0x2117
 2159 01b6 19       		.uleb128 0x19
 2160 01b7 01       		.uleb128 0x1
 2161 01b8 13       		.uleb128 0x13
 2162 01b9 00       		.byte	0
 2163 01ba 00       		.byte	0
 2164 01bb 23       		.uleb128 0x23
 2165 01bc 34       		.uleb128 0x34
 2166 01bd 00       		.byte	0
 2167 01be 03       		.uleb128 0x3
 2168 01bf 0E       		.uleb128 0xe
 2169 01c0 3A       		.uleb128 0x3a
 2170 01c1 0B       		.uleb128 0xb
 2171 01c2 3B       		.uleb128 0x3b
 2172 01c3 0B       		.uleb128 0xb
 2173 01c4 49       		.uleb128 0x49
 2174 01c5 13       		.uleb128 0x13
 2175 01c6 02       		.uleb128 0x2
 2176 01c7 17       		.uleb128 0x17
 2177 01c8 00       		.byte	0
 2178 01c9 00       		.byte	0
 2179 01ca 24       		.uleb128 0x24
 2180 01cb 1D       		.uleb128 0x1d
 2181 01cc 01       		.byte	0x1
 2182 01cd 31       		.uleb128 0x31
 2183 01ce 13       		.uleb128 0x13
 2184 01cf 11       		.uleb128 0x11
 2185 01d0 01       		.uleb128 0x1
 2186 01d1 12       		.uleb128 0x12
 2187 01d2 06       		.uleb128 0x6
 2188 01d3 58       		.uleb128 0x58
 2189 01d4 0B       		.uleb128 0xb
 2190 01d5 59       		.uleb128 0x59
 2191 01d6 0B       		.uleb128 0xb
 2192 01d7 01       		.uleb128 0x1
 2193 01d8 13       		.uleb128 0x13
 2194 01d9 00       		.byte	0
 2195 01da 00       		.byte	0
 2196 01db 25       		.uleb128 0x25
 2197 01dc 0B       		.uleb128 0xb
 2198 01dd 01       		.byte	0x1
 2199 01de 11       		.uleb128 0x11
 2200 01df 01       		.uleb128 0x1
 2201 01e0 12       		.uleb128 0x12
 2202 01e1 06       		.uleb128 0x6
 2203 01e2 00       		.byte	0
 2204 01e3 00       		.byte	0
 2205 01e4 26       		.uleb128 0x26
 2206 01e5 34       		.uleb128 0x34
 2207 01e6 00       		.byte	0
 2208 01e7 31       		.uleb128 0x31
 2209 01e8 13       		.uleb128 0x13
ARM GAS  /tmp/cccUnpB8.s 			page 57


 2210 01e9 02       		.uleb128 0x2
 2211 01ea 17       		.uleb128 0x17
 2212 01eb 00       		.byte	0
 2213 01ec 00       		.byte	0
 2214 01ed 27       		.uleb128 0x27
 2215 01ee 05       		.uleb128 0x5
 2216 01ef 00       		.byte	0
 2217 01f0 31       		.uleb128 0x31
 2218 01f1 13       		.uleb128 0x13
 2219 01f2 02       		.uleb128 0x2
 2220 01f3 17       		.uleb128 0x17
 2221 01f4 00       		.byte	0
 2222 01f5 00       		.byte	0
 2223 01f6 28       		.uleb128 0x28
 2224 01f7 1D       		.uleb128 0x1d
 2225 01f8 01       		.byte	0x1
 2226 01f9 31       		.uleb128 0x31
 2227 01fa 13       		.uleb128 0x13
 2228 01fb 11       		.uleb128 0x11
 2229 01fc 01       		.uleb128 0x1
 2230 01fd 12       		.uleb128 0x12
 2231 01fe 06       		.uleb128 0x6
 2232 01ff 58       		.uleb128 0x58
 2233 0200 0B       		.uleb128 0xb
 2234 0201 59       		.uleb128 0x59
 2235 0202 0B       		.uleb128 0xb
 2236 0203 00       		.byte	0
 2237 0204 00       		.byte	0
 2238 0205 29       		.uleb128 0x29
 2239 0206 1D       		.uleb128 0x1d
 2240 0207 01       		.byte	0x1
 2241 0208 31       		.uleb128 0x31
 2242 0209 13       		.uleb128 0x13
 2243 020a 11       		.uleb128 0x11
 2244 020b 01       		.uleb128 0x1
 2245 020c 12       		.uleb128 0x12
 2246 020d 06       		.uleb128 0x6
 2247 020e 58       		.uleb128 0x58
 2248 020f 0B       		.uleb128 0xb
 2249 0210 59       		.uleb128 0x59
 2250 0211 05       		.uleb128 0x5
 2251 0212 00       		.byte	0
 2252 0213 00       		.byte	0
 2253 0214 2A       		.uleb128 0x2a
 2254 0215 05       		.uleb128 0x5
 2255 0216 00       		.byte	0
 2256 0217 31       		.uleb128 0x31
 2257 0218 13       		.uleb128 0x13
 2258 0219 1C       		.uleb128 0x1c
 2259 021a 0B       		.uleb128 0xb
 2260 021b 00       		.byte	0
 2261 021c 00       		.byte	0
 2262 021d 2B       		.uleb128 0x2b
 2263 021e 2E       		.uleb128 0x2e
 2264 021f 01       		.byte	0x1
 2265 0220 31       		.uleb128 0x31
 2266 0221 13       		.uleb128 0x13
ARM GAS  /tmp/cccUnpB8.s 			page 58


 2267 0222 11       		.uleb128 0x11
 2268 0223 01       		.uleb128 0x1
 2269 0224 12       		.uleb128 0x12
 2270 0225 06       		.uleb128 0x6
 2271 0226 40       		.uleb128 0x40
 2272 0227 18       		.uleb128 0x18
 2273 0228 9742     		.uleb128 0x2117
 2274 022a 19       		.uleb128 0x19
 2275 022b 01       		.uleb128 0x1
 2276 022c 13       		.uleb128 0x13
 2277 022d 00       		.byte	0
 2278 022e 00       		.byte	0
 2279 022f 2C       		.uleb128 0x2c
 2280 0230 898201   		.uleb128 0x4109
 2281 0233 00       		.byte	0
 2282 0234 11       		.uleb128 0x11
 2283 0235 01       		.uleb128 0x1
 2284 0236 31       		.uleb128 0x31
 2285 0237 13       		.uleb128 0x13
 2286 0238 00       		.byte	0
 2287 0239 00       		.byte	0
 2288 023a 2D       		.uleb128 0x2d
 2289 023b 34       		.uleb128 0x34
 2290 023c 00       		.byte	0
 2291 023d 03       		.uleb128 0x3
 2292 023e 0E       		.uleb128 0xe
 2293 023f 3A       		.uleb128 0x3a
 2294 0240 0B       		.uleb128 0xb
 2295 0241 3B       		.uleb128 0x3b
 2296 0242 05       		.uleb128 0x5
 2297 0243 49       		.uleb128 0x49
 2298 0244 13       		.uleb128 0x13
 2299 0245 3F       		.uleb128 0x3f
 2300 0246 19       		.uleb128 0x19
 2301 0247 3C       		.uleb128 0x3c
 2302 0248 19       		.uleb128 0x19
 2303 0249 00       		.byte	0
 2304 024a 00       		.byte	0
 2305 024b 2E       		.uleb128 0x2e
 2306 024c 34       		.uleb128 0x34
 2307 024d 00       		.byte	0
 2308 024e 03       		.uleb128 0x3
 2309 024f 08       		.uleb128 0x8
 2310 0250 3A       		.uleb128 0x3a
 2311 0251 0B       		.uleb128 0xb
 2312 0252 3B       		.uleb128 0x3b
 2313 0253 05       		.uleb128 0x5
 2314 0254 49       		.uleb128 0x49
 2315 0255 13       		.uleb128 0x13
 2316 0256 3F       		.uleb128 0x3f
 2317 0257 19       		.uleb128 0x19
 2318 0258 3C       		.uleb128 0x3c
 2319 0259 19       		.uleb128 0x19
 2320 025a 00       		.byte	0
 2321 025b 00       		.byte	0
 2322 025c 2F       		.uleb128 0x2f
 2323 025d 2E       		.uleb128 0x2e
ARM GAS  /tmp/cccUnpB8.s 			page 59


 2324 025e 00       		.byte	0
 2325 025f 3F       		.uleb128 0x3f
 2326 0260 19       		.uleb128 0x19
 2327 0261 03       		.uleb128 0x3
 2328 0262 0E       		.uleb128 0xe
 2329 0263 3A       		.uleb128 0x3a
 2330 0264 0B       		.uleb128 0xb
 2331 0265 3B       		.uleb128 0x3b
 2332 0266 05       		.uleb128 0x5
 2333 0267 27       		.uleb128 0x27
 2334 0268 19       		.uleb128 0x19
 2335 0269 49       		.uleb128 0x49
 2336 026a 13       		.uleb128 0x13
 2337 026b 3C       		.uleb128 0x3c
 2338 026c 19       		.uleb128 0x19
 2339 026d 00       		.byte	0
 2340 026e 00       		.byte	0
 2341 026f 00       		.byte	0
 2342              		.section	.debug_loc,"",%progbits
 2343              	.Ldebug_loc0:
 2344              	.LLST0:
 2345 0000 04000000 		.4byte	.LVL0
 2346 0004 06000000 		.4byte	.LVL1
 2347 0008 0300     		.2byte	0x3
 2348 000a 73       		.byte	0x73
 2349 000b 20       		.sleb128 32
 2350 000c 9F       		.byte	0x9f
 2351 000d 06000000 		.4byte	.LVL1
 2352 0011 0C000000 		.4byte	.LVL3
 2353 0015 0100     		.2byte	0x1
 2354 0017 53       		.byte	0x53
 2355 0018 00000000 		.4byte	0
 2356 001c 00000000 		.4byte	0
 2357              	.LLST1:
 2358 0020 04000000 		.4byte	.LVL0
 2359 0024 06000000 		.4byte	.LVL1
 2360 0028 0100     		.2byte	0x1
 2361 002a 53       		.byte	0x53
 2362 002b 06000000 		.4byte	.LVL1
 2363 002f 0C000000 		.4byte	.LVL3
 2364 0033 0300     		.2byte	0x3
 2365 0035 73       		.byte	0x73
 2366 0036 60       		.sleb128 -32
 2367 0037 9F       		.byte	0x9f
 2368 0038 00000000 		.4byte	0
 2369 003c 00000000 		.4byte	0
 2370              	.LLST3:
 2371 0040 12000000 		.4byte	.LVL5
 2372 0044 18000000 		.4byte	.LVL6
 2373 0048 0200     		.2byte	0x2
 2374 004a 30       		.byte	0x30
 2375 004b 9F       		.byte	0x9f
 2376 004c 00000000 		.4byte	0
 2377 0050 00000000 		.4byte	0
 2378              	.LLST4:
 2379 0054 1C000000 		.4byte	.LVL7
 2380 0058 28000000 		.4byte	.LVL9
ARM GAS  /tmp/cccUnpB8.s 			page 60


 2381 005c 0300     		.2byte	0x3
 2382 005e 74       		.byte	0x74
 2383 005f 60       		.sleb128 -32
 2384 0060 9F       		.byte	0x9f
 2385 0061 28000000 		.4byte	.LVL9
 2386 0065 2F000000 		.4byte	.LVL10-1
 2387 0069 0100     		.2byte	0x1
 2388 006b 53       		.byte	0x53
 2389 006c 2F000000 		.4byte	.LVL10-1
 2390 0070 42000000 		.4byte	.LVL12
 2391 0074 0300     		.2byte	0x3
 2392 0076 74       		.byte	0x74
 2393 0077 60       		.sleb128 -32
 2394 0078 9F       		.byte	0x9f
 2395 0079 00000000 		.4byte	0
 2396 007d 00000000 		.4byte	0
 2397              	.LLST5:
 2398 0081 1C000000 		.4byte	.LVL7
 2399 0085 42000000 		.4byte	.LVL12
 2400 0089 0100     		.2byte	0x1
 2401 008b 54       		.byte	0x54
 2402 008c 00000000 		.4byte	0
 2403 0090 00000000 		.4byte	0
 2404              	.LLST6:
 2405 0094 24000000 		.4byte	.LVL8
 2406 0098 28000000 		.4byte	.LVL9
 2407 009c 0300     		.2byte	0x3
 2408 009e 74       		.byte	0x74
 2409 009f 60       		.sleb128 -32
 2410 00a0 9F       		.byte	0x9f
 2411 00a1 28000000 		.4byte	.LVL9
 2412 00a5 2F000000 		.4byte	.LVL10-1
 2413 00a9 0100     		.2byte	0x1
 2414 00ab 53       		.byte	0x53
 2415 00ac 2F000000 		.4byte	.LVL10-1
 2416 00b0 42000000 		.4byte	.LVL12
 2417 00b4 0300     		.2byte	0x3
 2418 00b6 74       		.byte	0x74
 2419 00b7 60       		.sleb128 -32
 2420 00b8 9F       		.byte	0x9f
 2421 00b9 00000000 		.4byte	0
 2422 00bd 00000000 		.4byte	0
 2423              		.section	.debug_aranges,"",%progbits
 2424 0000 24000000 		.4byte	0x24
 2425 0004 0200     		.2byte	0x2
 2426 0006 00000000 		.4byte	.Ldebug_info0
 2427 000a 04       		.byte	0x4
 2428 000b 00       		.byte	0
 2429 000c 0000     		.2byte	0
 2430 000e 0000     		.2byte	0
 2431 0010 00000000 		.4byte	.LFB239
 2432 0014 12000000 		.4byte	.LFE239-.LFB239
 2433 0018 00000000 		.4byte	.LFB240
 2434 001c 50000000 		.4byte	.LFE240-.LFB240
 2435 0020 00000000 		.4byte	0
 2436 0024 00000000 		.4byte	0
 2437              		.section	.debug_ranges,"",%progbits
ARM GAS  /tmp/cccUnpB8.s 			page 61


 2438              	.Ldebug_ranges0:
 2439 0000 00000000 		.4byte	.LFB239
 2440 0004 12000000 		.4byte	.LFE239
 2441 0008 00000000 		.4byte	.LFB240
 2442 000c 50000000 		.4byte	.LFE240
 2443 0010 00000000 		.4byte	0
 2444 0014 00000000 		.4byte	0
 2445              		.section	.debug_line,"",%progbits
 2446              	.Ldebug_line0:
 2447 0000 96020000 		.section	.debug_str,"MS",%progbits,1
 2447      02003302 
 2447      00000201 
 2447      FB0E0D00 
 2447      01010101 
 2448              	.LASF45:
 2449 0000 63685F74 		.ascii	"ch_threads_list\000"
 2449      68726561 
 2449      64735F6C 
 2449      69737400 
 2450              	.LASF84:
 2451 0010 43504143 		.ascii	"CPACR\000"
 2451      5200
 2452              	.LASF101:
 2453 0016 77746D74 		.ascii	"wtmtxp\000"
 2453      787000
 2454              	.LASF94:
 2455 001d 746D5F63 		.ascii	"tm_calibration_t\000"
 2455      616C6962 
 2455      72617469 
 2455      6F6E5F74 
 2455      00
 2456              	.LASF86:
 2457 002e 72656761 		.ascii	"regarm_t\000"
 2457      726D5F74 
 2457      00
 2458              	.LASF34:
 2459 0037 666C6167 		.ascii	"flags\000"
 2459      7300
 2460              	.LASF25:
 2461 003d 73797374 		.ascii	"systime_t\000"
 2461      696D655F 
 2461      7400
 2462              	.LASF40:
 2463 0047 7265616C 		.ascii	"realprio\000"
 2463      7072696F 
 2463      00
 2464              	.LASF38:
 2465 0050 6570656E 		.ascii	"epending\000"
 2465      64696E67 
 2465      00
 2466              	.LASF0:
 2467 0059 756E7369 		.ascii	"unsigned int\000"
 2467      676E6564 
 2467      20696E74 
 2467      00
 2468              	.LASF46:
 2469 0066 6E657874 		.ascii	"next\000"
ARM GAS  /tmp/cccUnpB8.s 			page 62


 2469      00
 2470              	.LASF43:
 2471 006b 74687265 		.ascii	"threads_list_t\000"
 2471      6164735F 
 2471      6C697374 
 2471      5F7400
 2472              	.LASF77:
 2473 007a 44465352 		.ascii	"DFSR\000"
 2473      00
 2474              	.LASF6:
 2475 007f 5F5F696E 		.ascii	"__int32_t\000"
 2475      7433325F 
 2475      7400
 2476              	.LASF35:
 2477 0089 72656673 		.ascii	"refs\000"
 2477      00
 2478              	.LASF97:
 2479 008e 77746F62 		.ascii	"wtobjp\000"
 2479      6A7000
 2480              	.LASF108:
 2481 0095 706F7274 		.ascii	"port_lock\000"
 2481      5F6C6F63 
 2481      6B00
 2482              	.LASF67:
 2483 009f 76746C69 		.ascii	"vtlist\000"
 2483      737400
 2484              	.LASF88:
 2485 00a6 706F7274 		.ascii	"port_context\000"
 2485      5F636F6E 
 2485      74657874 
 2485      00
 2486              	.LASF115:
 2487 00b3 706F7274 		.ascii	"port_lock_from_isr\000"
 2487      5F6C6F63 
 2487      6B5F6672 
 2487      6F6D5F69 
 2487      737200
 2488              	.LASF51:
 2489 00c6 63685F72 		.ascii	"ch_ready_list\000"
 2489      65616479 
 2489      5F6C6973 
 2489      7400
 2490              	.LASF57:
 2491 00d4 66756E63 		.ascii	"func\000"
 2491      00
 2492              	.LASF102:
 2493 00d9 65776D61 		.ascii	"ewmask\000"
 2493      736B00
 2494              	.LASF49:
 2495 00e0 70726576 		.ascii	"prev\000"
 2495      00
 2496              	.LASF48:
 2497 00e5 63685F74 		.ascii	"ch_threads_queue\000"
 2497      68726561 
 2497      64735F71 
 2497      75657565 
 2497      00
ARM GAS  /tmp/cccUnpB8.s 			page 63


 2498              	.LASF53:
 2499 00f6 76746675 		.ascii	"vtfunc_t\000"
 2499      6E635F74 
 2499      00
 2500              	.LASF62:
 2501 00ff 63685F73 		.ascii	"ch_system_debug\000"
 2501      79737465 
 2501      6D5F6465 
 2501      62756700 
 2502              	.LASF15:
 2503 010f 75696E74 		.ascii	"uint32_t\000"
 2503      33325F74 
 2503      00
 2504              	.LASF99:
 2505 0118 73656E74 		.ascii	"sentmsg\000"
 2505      6D736700 
 2506              	.LASF81:
 2507 0120 4D4D4652 		.ascii	"MMFR\000"
 2507      00
 2508              	.LASF23:
 2509 0125 6576656E 		.ascii	"eventmask_t\000"
 2509      746D6173 
 2509      6B5F7400 
 2510              	.LASF103:
 2511 0131 63685F73 		.ascii	"ch_semaphore\000"
 2511      656D6170 
 2511      686F7265 
 2511      00
 2512              	.LASF21:
 2513 013e 74707269 		.ascii	"tprio_t\000"
 2513      6F5F7400 
 2514              	.LASF55:
 2515 0146 63685F76 		.ascii	"ch_virtual_timer\000"
 2515      69727475 
 2515      616C5F74 
 2515      696D6572 
 2515      00
 2516              	.LASF116:
 2517 0157 72657375 		.ascii	"result\000"
 2517      6C7400
 2518              	.LASF12:
 2519 015e 6C6F6E67 		.ascii	"long long unsigned int\000"
 2519      206C6F6E 
 2519      6720756E 
 2519      7369676E 
 2519      65642069 
 2520              	.LASF126:
 2521 0175 63685363 		.ascii	"chSchIsPreemptionRequired\000"
 2521      68497350 
 2521      7265656D 
 2521      7074696F 
 2521      6E526571 
 2522              	.LASF24:
 2523 018f 636E745F 		.ascii	"cnt_t\000"
 2523      7400
 2524              	.LASF121:
 2525 0195 2E2E2F43 		.ascii	"../ChibiOS/os/common/ports/ARMCMx/chcore_v7m.c\000"
ARM GAS  /tmp/cccUnpB8.s 			page 64


 2525      68696269 
 2525      4F532F6F 
 2525      732F636F 
 2525      6D6D6F6E 
 2526              	.LASF47:
 2527 01c4 74687265 		.ascii	"threads_queue_t\000"
 2527      6164735F 
 2527      71756575 
 2527      655F7400 
 2528              	.LASF113:
 2529 01d4 746F704F 		.ascii	"topOfProcStack\000"
 2529      6650726F 
 2529      63537461 
 2529      636B00
 2530              	.LASF112:
 2531 01e3 76616C75 		.ascii	"value\000"
 2531      6500
 2532              	.LASF39:
 2533 01e9 6D74786C 		.ascii	"mtxlist\000"
 2533      69737400 
 2534              	.LASF59:
 2535 01f1 63685F76 		.ascii	"ch_virtual_timers_list\000"
 2535      69727475 
 2535      616C5F74 
 2535      696D6572 
 2535      735F6C69 
 2536              	.LASF26:
 2537 0208 74687265 		.ascii	"thread_t\000"
 2537      61645F74 
 2537      00
 2538              	.LASF95:
 2539 0211 7264796D 		.ascii	"rdymsg\000"
 2539      736700
 2540              	.LASF93:
 2541 0218 6F666673 		.ascii	"offset\000"
 2541      657400
 2542              	.LASF70:
 2543 021f 43505549 		.ascii	"CPUID\000"
 2543      4400
 2544              	.LASF119:
 2545 0225 5F426F6F 		.ascii	"_Bool\000"
 2545      6C00
 2546              	.LASF104:
 2547 022b 63685F6D 		.ascii	"ch_mutex\000"
 2547      75746578 
 2547      00
 2548              	.LASF11:
 2549 0234 5F5F7569 		.ascii	"__uint64_t\000"
 2549      6E743634 
 2549      5F7400
 2550              	.LASF80:
 2551 023f 41465352 		.ascii	"AFSR\000"
 2551      00
 2552              	.LASF122:
 2553 0244 2F6E6673 		.ascii	"/nfs/nfs7/home/npalumbo/p442-submissions/lab4\000"
 2553      2F6E6673 
 2553      372F686F 
ARM GAS  /tmp/cccUnpB8.s 			page 65


 2553      6D652F6E 
 2553      70616C75 
 2554              	.LASF125:
 2555 0272 5356435F 		.ascii	"SVC_Handler\000"
 2555      48616E64 
 2555      6C657200 
 2556              	.LASF76:
 2557 027e 48465352 		.ascii	"HFSR\000"
 2557      00
 2558              	.LASF28:
 2559 0283 7072696F 		.ascii	"prio\000"
 2559      00
 2560              	.LASF106:
 2561 0288 63686172 		.ascii	"char\000"
 2561      00
 2562              	.LASF42:
 2563 028d 74687265 		.ascii	"thread_reference_t\000"
 2563      61645F72 
 2563      65666572 
 2563      656E6365 
 2563      5F7400
 2564              	.LASF32:
 2565 02a0 77616261 		.ascii	"wabase\000"
 2565      736500
 2566              	.LASF71:
 2567 02a7 49435352 		.ascii	"ICSR\000"
 2567      00
 2568              	.LASF19:
 2569 02ac 74737461 		.ascii	"tstate_t\000"
 2569      74655F74 
 2569      00
 2570              	.LASF73:
 2571 02b5 41495243 		.ascii	"AIRCR\000"
 2571      5200
 2572              	.LASF13:
 2573 02bb 75696E74 		.ascii	"uint8_t\000"
 2573      385F7400 
 2574              	.LASF37:
 2575 02c3 6D736771 		.ascii	"msgqueue\000"
 2575      75657565 
 2575      00
 2576              	.LASF44:
 2577 02cc 63685F74 		.ascii	"ch_thread\000"
 2577      68726561 
 2577      6400
 2578              	.LASF61:
 2579 02d6 73797374 		.ascii	"system_debug_t\000"
 2579      656D5F64 
 2579      65627567 
 2579      5F7400
 2580              	.LASF10:
 2581 02e5 6C6F6E67 		.ascii	"long long int\000"
 2581      206C6F6E 
 2581      6720696E 
 2581      7400
 2582              	.LASF22:
 2583 02f3 6D73675F 		.ascii	"msg_t\000"
ARM GAS  /tmp/cccUnpB8.s 			page 66


 2583      7400
 2584              	.LASF75:
 2585 02f9 43465352 		.ascii	"CFSR\000"
 2585      00
 2586              	.LASF54:
 2587 02fe 76697274 		.ascii	"virtual_timer_t\000"
 2587      75616C5F 
 2587      74696D65 
 2587      725F7400 
 2588              	.LASF63:
 2589 030e 70616E69 		.ascii	"panic_msg\000"
 2589      635F6D73 
 2589      6700
 2590              	.LASF18:
 2591 0318 746D6F64 		.ascii	"tmode_t\000"
 2591      655F7400 
 2592              	.LASF68:
 2593 0320 6D61696E 		.ascii	"mainthread\000"
 2593      74687265 
 2593      616400
 2594              	.LASF17:
 2595 032b 7274636E 		.ascii	"rtcnt_t\000"
 2595      745F7400 
 2596              	.LASF78:
 2597 0333 4D4D4641 		.ascii	"MMFAR\000"
 2597      5200
 2598              	.LASF111:
 2599 0339 5F5F7365 		.ascii	"__set_PSP\000"
 2599      745F5053 
 2599      5000
 2600              	.LASF83:
 2601 0343 52455345 		.ascii	"RESERVED0\000"
 2601      52564544 
 2601      3000
 2602              	.LASF74:
 2603 034d 53484353 		.ascii	"SHCSR\000"
 2603      5200
 2604              	.LASF3:
 2605 0353 73686F72 		.ascii	"short int\000"
 2605      7420696E 
 2605      7400
 2606              	.LASF117:
 2607 035d 63747870 		.ascii	"ctxp\000"
 2607      00
 2608              	.LASF7:
 2609 0362 6C6F6E67 		.ascii	"long int\000"
 2609      20696E74 
 2609      00
 2610              	.LASF89:
 2611 036b 706F7274 		.ascii	"port_intctx\000"
 2611      5F696E74 
 2611      63747800 
 2612              	.LASF118:
 2613 0377 49544D5F 		.ascii	"ITM_RxBuffer\000"
 2613      52784275 
 2613      66666572 
 2613      00
ARM GAS  /tmp/cccUnpB8.s 			page 67


 2614              	.LASF65:
 2615 0384 63685F73 		.ascii	"ch_system\000"
 2615      79737465 
 2615      6D00
 2616              	.LASF110:
 2617 038e 5F5F7365 		.ascii	"__set_BASEPRI\000"
 2617      745F4241 
 2617      53455052 
 2617      4900
 2618              	.LASF60:
 2619 039c 6C617374 		.ascii	"lasttime\000"
 2619      74696D65 
 2619      00
 2620              	.LASF16:
 2621 03a5 75696E74 		.ascii	"uint64_t\000"
 2621      36345F74 
 2621      00
 2622              	.LASF66:
 2623 03ae 726C6973 		.ascii	"rlist\000"
 2623      7400
 2624              	.LASF5:
 2625 03b4 5F5F7569 		.ascii	"__uint8_t\000"
 2625      6E74385F 
 2625      7400
 2626              	.LASF90:
 2627 03be 706F7274 		.ascii	"port_extctx\000"
 2627      5F657874 
 2627      63747800 
 2628              	.LASF85:
 2629 03ca 5343425F 		.ascii	"SCB_Type\000"
 2629      54797065 
 2629      00
 2630              	.LASF31:
 2631 03d3 6E616D65 		.ascii	"name\000"
 2631      00
 2632              	.LASF79:
 2633 03d8 42464152 		.ascii	"BFAR\000"
 2633      00
 2634              	.LASF72:
 2635 03dd 56544F52 		.ascii	"VTOR\000"
 2635      00
 2636              	.LASF120:
 2637 03e2 474E5520 		.ascii	"GNU C 4.8.4 20140526 (release) [ARM/embedded-4_8-br"
 2637      4320342E 
 2637      382E3420 
 2637      32303134 
 2637      30353236 
 2638 0415 616E6368 		.ascii	"anch revision 211358] -mcpu=cortex-m4 -mno-thumb-in"
 2638      20726576 
 2638      6973696F 
 2638      6E203231 
 2638      31333538 
 2639 0448 74657277 		.ascii	"terwork -mthumb -ggdb -O2 -fomit-frame-pointer -fal"
 2639      6F726B20 
 2639      2D6D7468 
 2639      756D6220 
 2639      2D676764 
ARM GAS  /tmp/cccUnpB8.s 			page 68


 2640 047b 69676E2D 		.ascii	"ign-functions=16 -ffunction-sections -fdata-section"
 2640      66756E63 
 2640      74696F6E 
 2640      733D3136 
 2640      202D6666 
 2641 04ae 73202D66 		.ascii	"s -fno-common -flto\000"
 2641      6E6F2D63 
 2641      6F6D6D6F 
 2641      6E202D66 
 2641      6C746F00 
 2642              	.LASF92:
 2643 04c2 78707372 		.ascii	"xpsr\000"
 2643      00
 2644              	.LASF69:
 2645 04c7 73697A65 		.ascii	"sizetype\000"
 2645      74797065 
 2645      00
 2646              	.LASF20:
 2647 04d0 74726566 		.ascii	"trefs_t\000"
 2647      735F7400 
 2648              	.LASF9:
 2649 04d8 6C6F6E67 		.ascii	"long unsigned int\000"
 2649      20756E73 
 2649      69676E65 
 2649      6420696E 
 2649      7400
 2650              	.LASF50:
 2651 04ea 72656164 		.ascii	"ready_list_t\000"
 2651      795F6C69 
 2651      73745F74 
 2651      00
 2652              	.LASF27:
 2653 04f7 71756575 		.ascii	"queue\000"
 2653      6500
 2654              	.LASF14:
 2655 04fd 696E7433 		.ascii	"int32_t\000"
 2655      325F7400 
 2656              	.LASF107:
 2657 0505 6D757465 		.ascii	"mutex_t\000"
 2657      785F7400 
 2658              	.LASF29:
 2659 050d 6E657765 		.ascii	"newer\000"
 2659      7200
 2660              	.LASF114:
 2661 0513 706F7274 		.ascii	"port_unlock_from_isr\000"
 2661      5F756E6C 
 2661      6F636B5F 
 2661      66726F6D 
 2661      5F697372 
 2662              	.LASF2:
 2663 0528 756E7369 		.ascii	"unsigned char\000"
 2663      676E6564 
 2663      20636861 
 2663      7200
 2664              	.LASF8:
 2665 0536 5F5F7569 		.ascii	"__uint32_t\000"
 2665      6E743332 
ARM GAS  /tmp/cccUnpB8.s 			page 69


 2665      5F7400
 2666              	.LASF36:
 2667 0541 77616974 		.ascii	"waiting\000"
 2667      696E6700 
 2668              	.LASF58:
 2669 0549 76697274 		.ascii	"virtual_timers_list_t\000"
 2669      75616C5F 
 2669      74696D65 
 2669      72735F6C 
 2669      6973745F 
 2670              	.LASF124:
 2671 055f 5F706F72 		.ascii	"_port_irq_epilogue\000"
 2671      745F6972 
 2671      715F6570 
 2671      696C6F67 
 2671      756500
 2672              	.LASF33:
 2673 0572 73746174 		.ascii	"state\000"
 2673      6500
 2674              	.LASF91:
 2675 0578 6C725F74 		.ascii	"lr_thd\000"
 2675      686400
 2676              	.LASF64:
 2677 057f 63685F73 		.ascii	"ch_system_t\000"
 2677      79737465 
 2677      6D5F7400 
 2678              	.LASF100:
 2679 058b 77747365 		.ascii	"wtsemp\000"
 2679      6D7000
 2680              	.LASF98:
 2681 0592 77747472 		.ascii	"wttrp\000"
 2681      7000
 2682              	.LASF1:
 2683 0598 7369676E 		.ascii	"signed char\000"
 2683      65642063 
 2683      68617200 
 2684              	.LASF56:
 2685 05a4 64656C74 		.ascii	"delta\000"
 2685      6100
 2686              	.LASF4:
 2687 05aa 73686F72 		.ascii	"short unsigned int\000"
 2687      7420756E 
 2687      7369676E 
 2687      65642069 
 2687      6E7400
 2688              	.LASF87:
 2689 05bd 73746B61 		.ascii	"stkalign_t\000"
 2689      6C69676E 
 2689      5F7400
 2690              	.LASF105:
 2691 05c8 6F776E65 		.ascii	"owner\000"
 2691      7200
 2692              	.LASF52:
 2693 05ce 63757272 		.ascii	"current\000"
 2693      656E7400 
 2694              	.LASF109:
 2695 05d6 706F7274 		.ascii	"port_unlock\000"
ARM GAS  /tmp/cccUnpB8.s 			page 70


 2695      5F756E6C 
 2695      6F636B00 
 2696              	.LASF82:
 2697 05e2 49534152 		.ascii	"ISAR\000"
 2697      00
 2698              	.LASF30:
 2699 05e7 6F6C6465 		.ascii	"older\000"
 2699      7200
 2700              	.LASF96:
 2701 05ed 65786974 		.ascii	"exitcode\000"
 2701      636F6465 
 2701      00
 2702              	.LASF41:
 2703 05f6 6D706F6F 		.ascii	"mpool\000"
 2703      6C00
 2704              	.LASF123:
 2705 05fc 5F5F6765 		.ascii	"__get_PSP\000"
 2705      745F5053 
 2705      5000
 2706              		.comm	__gnu_lto_v1,1,1
 2707              		.ident	"GCC: (GNU Tools for ARM Embedded Processors) 4.8.4 20140526 (release) [ARM/embedded-4_8-br
ARM GAS  /tmp/cccUnpB8.s 			page 71


DEFINED SYMBOLS
                            *ABS*:00000000 chcore_v7m.c
     /tmp/cccUnpB8.s:308    .text.SVC_Handler:00000000 $t
     /tmp/cccUnpB8.s:314    .text.SVC_Handler:00000000 SVC_Handler
     /tmp/cccUnpB8.s:368    .text._port_irq_epilogue:00000000 $t
     /tmp/cccUnpB8.s:374    .text._port_irq_epilogue:00000000 _port_irq_epilogue
     /tmp/cccUnpB8.s:469    .text._port_irq_epilogue:00000044 $d
                            *COM*:00000001 __gnu_lto_v1
                     .debug_frame:00000010 $d

UNDEFINED SYMBOLS
chSchIsPreemptionRequired
_port_switch_from_isr
_port_exit_from_isr
