ARM GAS  /tmp/cc26WhyB.s 			page 1


   1              		.syntax unified
   2              		.cpu cortex-m4
   3              		.fpu softvfp
   4              		.eabi_attribute 20, 1
   5              		.eabi_attribute 21, 1
   6              		.eabi_attribute 23, 3
   7              		.eabi_attribute 24, 1
   8              		.eabi_attribute 25, 1
   9              		.eabi_attribute 26, 1
  10              		.eabi_attribute 30, 2
  11              		.eabi_attribute 34, 1
  12              		.eabi_attribute 18, 4
  13              		.thumb
  14              		.file	"chdynamic.c"
  15              		.text
  16              	.Ltext0:
  17              		.section	.gnu.lto_.jmpfuncs.b17871176f03c638,"",%progbits
  18 0000 789C6362 		.ascii	"x\234cb`b\300\006\"\2404\023\203=\023\003#c\007S\004"
  18      6062C006 
  18      22A03413 
  18      833D1303 
  18      23630753 
  19 0015 63262303 		.ascii	"c&#\003#\003\230f\004J\000133\220.cd\000R\214e\014\020"
  19      23039866 
  19      044A0031 
  19      3333902E 
  19      63640052 
  20 002d 29260E20 		.ascii	")&\016 G\036I\013\023\212\026F\250\026\006\000f\372"
  20      471E490B 
  20      138A1646 
  20      A8160600 
  20      66FA
  21 003f 0732     		.ascii	"\0072"
  22              		.text
  23              		.section	.gnu.lto_.inline.b17871176f03c638,"",%progbits
  24 0000 789C6362 		.ascii	"x\234cb`b\300\006\302\2414\023\203\204\224\021#\003"
  24      6062C006 
  24      C2A13413 
  24      83849411 
  24      2303
  25 0012 93C48A2D 		.ascii	"\223\304\212-\214\014l\013\344\301\252\231y\200\022"
  25      8C0C6C0B 
  25      E4C1AA99 
  25      798012
  26 0021 13FCC034 		.ascii	"\023\374\3004#\003+\037Pd\202\037\220\317\010Q+}\355"
  26      23032B1F 
  26      5064821F 
  26      90CF0851 
  26      2B7DED
  27 0034 142303FB 		.ascii	"\024#\003\373-5,j\301$\220\007\000\372L\012\354"
  27      2D352C6A 
  27      C1249007 
  27      00FA4C0A 
  27      EC
  28              		.text
  29              		.section	.gnu.lto_.pureconst.b17871176f03c638,"",%progbits
  30 0000 789C6362 		.ascii	"x\234cb`b`e\200\000&\006+F+\000\001\206\000\201"
ARM GAS  /tmp/cc26WhyB.s 			page 2


  30      60626065 
  30      80002606 
  30      2B462B00 
  30      01860081 
  31              		.text
  32              		.section	.gnu.lto_chThdCreateFromHeap.b17871176f03c638,"",%progbits
  33 0000 789C8D54 		.ascii	"x\234\215Tmh\024G\030~\337\231\335\334\231KL\242\246"
  33      6D681447 
  33      187EDF99 
  33      DDDC994B 
  33      4CA2A6
  34 0013 B622F12A 		.ascii	"\266\"\361*\225\012J\266`\241\177-\371%\022\012\211"
  34      950A4AB6 
  34      60A17F2D 
  34      F925120A 
  34      89
  35 0024 01FDA36C 		.ascii	"\001\375\243l&G\262\340\345\302\355i\023\212d\232\244"
  35      2647B2E0 
  35      E5C2ED69 
  35      138A649A 
  35      A4
  36 0035 21D25242 		.ascii	"!\322RB\240\370E\250A\242(\202\202\330FA\334\330\022"
  36      A0F845A8 
  36      41A22882 
  36      82D84641 
  36      DCD812
  37 0048 E247220A 		.ascii	"\342G\"\012\202\376\220\036\344\207\266\001\245\264"
  37      82FE901E 
  37      E487B601 
  37      A5B4
  38 0056 A0A898BE 		.ascii	"\240\250\230\276\263\263\273\271\234\207\351\0367\263"
  38      B3B3BBB9 
  38      9C87E91E 
  38      37B3
  39 0064 33F33CF3 		.ascii	"3\363<\363>\373\274\357\014\003\006\305\3176\372\017"
  39      3EFBBCEF 
  39      0C0306C5 
  39      CF36FA0F 
  40 0074 9A000FA8 		.ascii	"\232\000\017\250G\023\220\015\317\002|\033g\314\270"
  40      4713900D 
  40      CF027C1B 
  40      67CCB8
  41 0083 C54196F3 		.ascii	"\305A\226\363\251[\000\262\202\243\241\347\015D\365"
  41      A95B00B2 
  41      82A3A1E7 
  41      0D44F5
  42 0092 0208BD8C 		.ascii	"\002\010\275\214\033\330\273\007\325&|#\214I9\222\037"
  42      1BD8BB07 
  42      D5267C23 
  42      8C493992 
  42      1F
  43 00a3 9F7F8AC7 		.ascii	"\237\177\212\307\2447pR\276YX@t\220\002~\202 \020v\323"
  43      A4377052 
  43      BE595840 
  43      7490027E 
  43      82201076 
  44 00b8 00937EC7 		.ascii	"\000\223~\307\214\245\0124\327{<\365\303G\362d\337\260"
ARM GAS  /tmp/cc26WhyB.s 			page 3


  44      8CA50A34 
  44      D77B3CF5 
  44      C347F264 
  44      DFB0
  45 00ca 7C4B5407 		.ascii	"|KT\0079\203O\377\017\323\033\366^O\035\301\002\246"
  45      39834FFF 
  45      0FD31BF6 
  45      5E4F1DC1 
  45      02A6
  46 00dc C160CB22 		.ascii	"\301`\313\"\323\323=\373p)\365\002\363\362\013\013w"
  46      D3D33DFB 
  46      7029F502 
  46      F3F20B0B 
  46      77
  47 00ed 2E4FCCCD 		.ascii	".O\314\315c\315z\004\222j`\032\301\244\006c`\343)\334"
  47      63CD7A04 
  47      926A601A 
  47      C1A40663 
  47      60E329DC 
  48 0101 08711AB0 		.ascii	"\010q\032\260\004\255\231\225\364\306\253\2501j\250"
  48      04AD9995 
  48      F4C6ABA8 
  48      316AA8
  49 0110 316B0930 		.ascii	"1k\0110F\000zL\030\220r8\251\307\232f\343\270\277&|"
  49      46007A4C 
  49      18907238 
  49      A9C79A66 
  49      E3B8BF26 
  50 0125 6F7651AB 		.ascii	"ovQ\253,kA\246z~\027\006\363\023sh\343\031\262\273\035"
  50      2C6B41A6 
  50      7A7E1706 
  50      F3137368 
  50      E319B2BB 
  51 013a 63DFC02B 		.ascii	"c\337\300+9$\253\035,\023\350\023h\322hGS\251\216\305"
  51      3924AB1D 
  51      2C13E813 
  51      68D26847 
  51      53A98EC5 
  52 014e 29781CE0 		.ascii	")x\034\340&0\215\327\001\210\0050\015\277?\231\374g"
  52      26308DD7 
  52      01880530 
  52      0DBF3F99 
  52      FC67
  53 0160 90471B29 		.ascii	"\220G\033)\002/\374\306\026\032R\372\370\014\364\335"
  53      022FFCC6 
  53      161A52FA 
  53      F80CF4DD 
  54 0170 9E78FE32 		.ascii	"\236x\3762\330b\013\234\223R\305[\241u\266\352\240\264"
  54      D8620B9C 
  54      9352C55B 
  54      A175B6EA 
  54      A0B4
  55 0182 030522E8 		.ascii	"\003\005\"\350\216\"\230\031\302Bq1\005\353\377\276"
  55      8E229819 
  55      C2427131 
  55      05EBFFBE 
  56 0192 FFD48F66 		.ascii	"\377\324\217f\030;A\263$\331\347\337,\021*\332\203\005"
ARM GAS  /tmp/cc26WhyB.s 			page 4


  56      183B41B3 
  56      24D9E7DF 
  56      2C112ADA 
  56      8305
  57 01a4 7B247CE8 		.ascii	"{$|\350\316\"Xy\010\343\001\254\262$,\021\302\214\000"
  57      CE225879 
  57      08E301AC 
  57      B2242C11 
  57      C28C00
  58 01b7 565512C6 		.ascii	"VU\022\306C\230\031\300j\224\221}\361\260\342\362\327"
  58      439819C0 
  58      6A94917D 
  58      F1B0E2F2 
  58      D7
  59 01c8 CECE4CE2 		.ascii	"\316\316L\342H\277\234\226\003\036U\316\006\007+\030"
  59      48BF9C96 
  59      031E55CE 
  59      06072B18 
  60 01d8 EC5DAEE8 		.ascii	"\354]\256\350\324\\E\222^f\241\357\357;\375\247\327"
  60      D45C4592 
  60      5E66A1EF 
  60      EF3BFDA7 
  60      D7
  61 01e9 05151096 		.ascii	"\005\025\020\226\202\367\372\376\011\276\331\306\013"
  61      82F7FAFE 
  61      09BED9C6 
  61      0B
  62 01f6 7E0D0473 		.ascii	"~\015\004ss?\275L\254\217F\207\237\221\227Z\255 K\004"
  62      733FBD4C 
  62      AC8F4687 
  62      9F91975A 
  62      AD204B04 
  63 020a 7DAFD01F 		.ascii	"}\257\320\037\203\364\273JC\362\211\353\303Z\007\267"
  63      83F4BB4A 
  63      43F289EB 
  63      C35A07B7 
  64 021a 71541EDD 		.ascii	"qT\036\335\356(3\012\242/\256\317\006\353+\265\276\273"
  64      EE28330A 
  64      A22FAECF 
  64      06EB2BB5 
  64      BEBB
  65 022c 30907FFC 		.ascii	"0\220\177\374[T_\265Q}U\211\300\0115C\317!\007\253\265"
  65      5B545FB5 
  65      517D5589 
  65      C0093543 
  65      CF2107AB 
  66 0241 451A4BA5 		.ascii	"E\032K\245\246\035\362\312\302b\033\363\213\255\326"
  66      A61DF2CA 
  66      C2621BF3 
  66      8BADD6
  67 0250 B777E2E1 		.ascii	"\267w\342\341\213\247Xh\261L8\270\352\004\034'E\253"
  67      8BA75868 
  67      B14C38B8 
  67      EA041C27 
  67      45AB
  68 0262 09A49469 		.ascii	"\011\244\224i\005\255X\0269\265\006}I\337\345\377\230"
  68      05AD5816 
ARM GAS  /tmp/cc26WhyB.s 			page 5


  68      39B5067D 
  68      49DFE5FF 
  68      98
  69 0273 8B056120 		.ascii	"\213\005a RT+\002d@\377@iX[\234\245?g\213\263d\343E"
  69      52542B02 
  69      6440FF40 
  69      69585B9C 
  69      A53F678B 
  70 028b DFB665D3 		.ascii	"\337\266e\323\004\357K\323_\243*M\327\227\246\351\347"
  70      04EF4BD3 
  70      5FA32A4D 
  70      D797A6E9 
  70      E7
  71 029c CABAE84C 		.ascii	"\312\272\350L/\346\353\337\202|\305\300?\332\361\022"
  71      2FE6EBDF 
  71      827CC5C0 
  71      3FDAF112 
  72 02ac 29B3F117 		.ascii	")\263\361\027z\211\"\207)\262\361\012\326\025\036K\303"
  72      7A892287 
  72      29B2F10A 
  72      D6151E4B 
  72      C3
  73 02bd BF0866E0 		.ascii	"\277\010f\340\306|t\254U\032>\207KrH]`\004\272Gw\255"
  73      C67C74AC 
  73      551A3E87 
  73      4B72485D 
  73      6004BA47 
  74 02d3 F2C5B7F4 		.ascii	"\362\305\267\364\021`\340.;\377\353\0322\213\237\277"
  74      1160E02E 
  74      3BFFEB1A 
  74      328B9FBF 
  75 02e3 56A16E16 		.ascii	"V\241n\026T\033\251\030\037\327\327[\015\035N\253\363"
  75      541BA918 
  75      1FD7D75B 
  75      0D1D4EAB 
  75      F3
  76 02f4 55B39571 		.ascii	"U\263\225q\255l\316r\263\302\022\035m=\235v\332\021"
  76      AD6CCE72 
  76      B3C2121D 
  76      6D3D9D76 
  76      DA11
  77 0306 F50258AE 		.ascii	"\365\002X\256\213\177\355v\261\\\233\265\024+2\351t"
  77      8B7FED76 
  77      B15C9BB5 
  77      142B32E9 
  77      74
  78 0317 A6D3EACA 		.ascii	"\246\323\352\312ds\256\365eScCc7\021E&\233\332w\360"
  78      6473AEF5 
  78      65536343 
  78      63371145 
  78      269BDA77 
  79 032c 8B747D07 		.ascii	"\213t}\007\230\007\355\375\007R\333J\262R\3359\253\241"
  79      9807EDFD 
  79      0752DB4A 
  79      B252DD39 
  79      ABA1
  80 033e B17947B3 		.ascii	"\261yG\263\345t\212\375\007\332R\226H\273\216\273\257"
ARM GAS  /tmp/cc26WhyB.s 			page 6


  80      E5748AFD 
  80      07DA5296 
  80      48BB8EBB 
  80      AF
  81 034f 5D0862BE 		.ascii	"]\010b\276\253*Bu\270=.!\252\033\233\233\222\255\266"
  81      AB2A4275 
  81      B83D2E21 
  81      AA1B9B9B 
  81      92ADB6
  82 0362 9BEACA3A 		.ascii	"\233\352\312:[\223\233>\003\226\205X:\225\316d{\340"
  82      5B939B3E 
  82      03968558 
  82      3A95CE64 
  82      7BE0
  83 0374 3F529189 		.ascii	"?R\221\211 "
  83      20
  84              		.text
  85              		.section	.gnu.lto_chThdCreateFromMemoryPool.b17871176f03c638,"",%progbits
  86 0000 789C8D54 		.ascii	"x\234\215T[hTG\030\376\377\231\263\2731\233\230\244"
  86      5B685447 
  86      18FEFF99 
  86      B3BB319B 
  86      98A4
  87 0012 35DE68E3 		.ascii	"5\336h\3436XZ\232\222#(\370\252\344IJ(\030\005}QN&\213"
  87      36585A9A 
  87      922328F8 
  87      AAE4494A 
  87      2818057D 
  88 002a 3990930D 		.ascii	"9\220\223\015{\326K(\342\270\211\340\355!\010\245^\020"
  88      7BD64B28 
  88      E2B889E0 
  88      ED2108A5 
  88      5E10
  89 003c 0DA2A248 		.ascii	"\015\242\242HE\373`\360\002\307+&1)\026\244MAX(\241"
  89      45FB60F0 
  89      02C72B26 
  89      312916A4 
  89      4D415828 
  90 0051 A68542AB 		.ascii	"\246\205B\253\017Z\213\351?s.\356\256\213z\226\2359"
  90      0F5A8BE9 
  90      3F732EEE 
  90      AE8B7A96 
  90      9D39
  91 0063 33F37DF3 		.ascii	"3\363}\363\377\363\375\337\031\006\014\312\237\345\364"
  91      FFF3FDDF 
  91      19060CCA 
  91      9FE5F4
  92 0072 FF2706F0 		.ascii	"\377'\006\360\210z\214\001\262\241I\200\335U\214\031"
  92      887A8C01 
  92      B2A14980 
  92      DD558C19 
  93 0082 631C6435 		.ascii	"c\034d5\2777\006 k8\032\376\274\201\250^\000a\027\343"
  93      BF370620 
  93      6B381AFE 
  93      BC81A85E 
  93      006117E3 
  94 0096 06EEDA88 		.ascii	"\006\356\332\210j\023\336\014\303R\036*L\237\237\301"
ARM GAS  /tmp/cc26WhyB.s 			page 7


  94      6A13DE0C 
  94      C3521E2A 
  94      4C9F9FC1 
  95 00a6 23D21B3C 		.ascii	"#\322\033<)\377\233\235E\264\221\002.E\020\010\033h"
  95      29FF9B9D 
  95      45B49102 
  95      2E451008 
  95      1B68
  96 00b8 8029DD31 		.ascii	"\200)\3351\2434\003\237\353M\215\035\\$O\346\207\344"
  96      A334039F 
  96      EB4D8D1D 
  96      5C244FE6 
  96      87E4
  97 00ca 2BA2DAC8 		.ascii	"+\242\332\310\031|\366>Lo\310{9\366\035\0261\015\006"
  97      197CF63E 
  97      4C6FC87B 
  97      39F61D16 
  97      310D06
  98 00dd 2DAF999E 		.ascii	"-\257\231\236\337\263\205\245\324\213\314+\314\316^"
  98      DFB385A5 
  98      D48BCC2B 
  98      CCCE5E
  99 00ec 78F4E4E0 		.ascii	"x\364\344\340\003\374\236}\214@\271\032\350 \304\301"
  99      03FC9E7D 
  99      8C40B91A 
  99      E820C4C1 
 100 00fc C253D80C 		.ascii	"\302S\330\014\011\032`5M\307\222\324\304ki\310\352\250"
 100      091A6035 
 100      4DC792D4 
 100      C46B69C8 
 100      EAA8
 101 010e E10DD418 		.ascii	"\341\015\324\030\215\204\032&\024=1\030\224r(\345\217"
 101      8D841A26 
 101      143D3118 
 101      947228E5 
 101      8F
 102 011f 7DAE8331 		.ascii	"}\256\2031\013O\353e\241\365YG\255\222m=2\325\363\037"
 102      0B4FEB65 
 102      A1F55947 
 102      AD926D3D 
 102      32D5F31F 
 103 0133 61B03032 		.ascii	"a\26002\215\026\236%\311\267`\374\033\370W\356\225\365"
 103      8D169E25 
 103      C9B760FC 
 103      1BF857EE 
 103      95F5
 104 0145 3626046A 		.ascii	"6&\004j\002M\0326V\001\214\002\363Q\376\316\204\005"
 104      024D1A36 
 104      56018C02 
 104      F351FECE 
 104      8405
 105 0157 B80F777E 		.ascii	"\270\017w~\277\371t?\217\350\352\200\274\370t\353iH"
 105      BFF9743F 
 105      8FE8EA80 
 105      BCF874EB 
 105      6948
 106 0169 85E31390 		.ascii	"\205\343\023\220\037\037\271\370\"\330\242\005\316K"
ARM GAS  /tmp/cc26WhyB.s 			page 8


 106      1F1FB9F8 
 106      22D8A205 
 106      CE4B
 107 0177 A9A2CCF1 		.ascii	"\251\242\314\361\263\353\364C\321\016\011\000\202\256"
 107      B3EBF443 
 107      D10E0900 
 107      82AE
 108 0185 2983C543 		.ascii	")\203\305CX\230R\\\303~=|y\312\010cW\267\300\0276V\037"
 108      5898525C 
 108      C37E3D7C 
 108      79CA0863 
 108      57B7C017 
 109 019c 83A3BB89 		.ascii	"\203\243\273\211t\202\022IR\352*\241\032M\352\304\320"
 109      74821249 
 109      52EA2AA1 
 109      1A4DEAC4 
 109      D0
 110 01ad 72133070 		.ascii	"r\0230p``~\310#T\234\330z\303\321\012)F\261y\020;\251"
 110      60607EC8 
 110      23549CD8 
 110      7AC3D10A 
 110      2946B179 
 111 01c4 A15F95C1 		.ascii	"\241_\225\301jC\230\021\300j+\302\346\206\260X\000\253"
 111      6A439811 
 111      C06A2BC2 
 111      E686B058 
 111      00AB
 112 01d6 AB08E321 		.ascii	"\253\010\343!,\036\300\032T\001\362U\241G\0137\316M"
 112      2C1EC01A 
 112      5401F255 
 112      A1470B37 
 112      CE4D
 113 01e8 DCC44303 		.ascii	"\334\304C\003\362\276\034\364\310kKl\254c\260\351]6"
 113      F2BE1CF4 
 113      C86B4B6C 
 113      AC63B0E9 
 113      5D36
 114 01fa 55737529 		.ascii	"Usu)z\231\204\374\337\017\006\316,\016,\023z\307{\371"
 114      7A9984FC 
 114      DF0F06CE 
 114      2C0E2C13 
 114      7AC77BF9 
 115 020e D331FEB9 		.ascii	"\3231\376\271\205\227\264c\202\271\337\276}\236\374"
 115      8597B463 
 115      82B9DFBE 
 115      7D9EFC
 116 021d 281AEDFB 		.ascii	"(\032\355\373\213d\364\263\025\244\250 Y\204\177f\244"
 116      8B64F4B3 
 116      15A4A820 
 116      59847F66 
 116      A4
 117 022e DF551AD2 		.ascii	"\337U\032\322:\367?\357&\030\307\343\362\360*\033\353"
 117      3AF73FEF 
 117      2618C7E3 
 117      F2F02A1B 
 117      EB
 118 023f 4BA2BF5E 		.ascii	"K\242\277^\237\014\326\033\374\374\224\033\037\337\215"
ARM GAS  /tmp/cc26WhyB.s 			page 9


 118      9F0CD61B 
 118      FCFC941B 
 118      1FDF8D
 119 024e DCD818B9 		.ascii	"\334\330\030\271\361\003\021\010\246f\350\331i\343\207"
 119      F1031108 
 119      A666E8D9 
 119      69E387
 120 025d BE443E96 		.ascii	"\276D>\226>\214yZ!/\036\232tX\233\264Q\313;\362\313"
 120      3E8C795A 
 120      212F1E9A 
 120      74589BB4 
 120      51CB3BF2 
 121 0272 95192C96 		.ascii	"\225\031,\226X&ml$\253PF\363\011\2442\203\300%\211H"
 121      58266D6C 
 121      24AB5046 
 121      F309A432 
 121      83C02589 
 122 0287 A9054C9B 		.ascii	"\251\005L\233%?\376\274\002\233WfW\205\337\214:\314"
 122      253FFEBC 
 122      029B5766 
 122      5785DF8C 
 122      3ACC
 123 0299 9EC293E9 		.ascii	"\236\302\223\351D\220 DgY(\242\252j\352\"\225\375\342"
 123      44902044 
 123      675928A2 
 123      AA6AEA22 
 123      95FDE2
 124 02ac F2FACE4C 		.ascii	"\362\372\316L\226\327\327\302\313Z\360w\026\030\336"
 124      96D7D7C2 
 124      CB5AF077 
 124      1618DE
 125 02bb 56E03F8E 		.ascii	"V\340?\216\253\002\337.-\360\211\332\246\350\372\210"
 125      AB02DF2E 
 125      2DF089DA 
 125      A6E8FA88 
 126 02cb A6479F15 		.ascii	"\246G\237\025UZ\253\"\350xo\026\333\302\021z\211\"\207"
 126      555AAB22 
 126      E8786F16 
 126      DBC2117A 
 126      892287
 127 02de C5B5F01A 		.ascii	"\305\265\360\0326\025_\004\206\276p&\340\326\237\321"
 127      36155F04 
 127      86BE7026 
 127      E0D69FD1 
 128 02ee 45A20AB8 		.ascii	"E\242\012\270\002~\220{\325eI\240\207t\257+]\264\234"
 128      027E907B 
 128      D56549A0 
 128      8774AF2B 
 128      5DB49C
 129 0301 538081B2 		.ascii	"S\200\201\262\354\302\317\363H,~\375q\215\272\301Pm"
 129      ECC2CFF3 
 129      482C7EFD 
 129      718DBAC1 
 129      506D
 130 0313 A4627CD2 		.ascii	"\244b|\322\332j\266u\333\235\366\327\035f\3065\2639"
 130      DA6AB675 
 130      DB9DF6D7 
ARM GAS  /tmp/cc26WhyB.s 			page 10


 130      1D66C635 
 130      B339
 131 0325 D3CD0A53 		.ascii	"\323\315\012Stw\365\367Z\216-Z\005\260\\\037\337\356"
 131      7477F5F7 
 131      5A8E2D5A 
 131      05B05C1F 
 131      DFEE
 132 0337 F6B15C97 		.ascii	"\366\261\\\227Y\212\025\031\307\311\364\232}\231l\316"
 132      598A1519 
 132      C7C9F49A 
 132      7D996CCE 
 133 0347 3557AF6D 		.ascii	"5W\257mok\337AD\221\311\2467o[\351\264vCl\233\325\263"
 133      6F6BDF41 
 133      4491C9A6 
 133      376F5BE9 
 133      B476436C 
 134 035e 35BDBC22 		.ascii	"5\275\274\"+\275#g\266\265w\254\3510\355^\321\263\265"
 134      2BBD2367 
 134      B6B577AC 
 134      E930ED5E 
 134      D1B3B5
 135 0371 2B6D0AC7 		.ascii	"+m\012\307\265\335\315[\204 \346\233YE\250n\267\337"
 135      B5DDCD5B 
 135      8420E69B 
 135      5945A86E 
 135      B7DF
 136 0383 25447D7B 		.ascii	"%D}{\307\332T\247\345\246\373\262\366\227\251O\227\001"
 136      C7DA54A7 
 136      E5A6FBB2 
 136      F697A94F 
 136      9701
 137 0395 CB42C249 		.ascii	"\313B\302I;\231l?\374\017\267\350\241\221"
 137      3B996C3F 
 137      FC0FB7E8 
 137      A191
 138              		.text
 139              		.section	.gnu.lto_.symbol_nodes.b17871176f03c638,"",%progbits
 140 0000 789C45CD 		.ascii	"x\234E\315\273\015\2000\014\004\320;;\254\301\252\216"
 140      BB0D8030 
 140      0C04D03B 
 140      3BACC1AA 
 140      8E
 141 0011 940244C5 		.ascii	"\224\002D\305\0044\331\207\031\220\030\200\237(A\204"
 141      0434D987 
 141      19901880 
 141      9F284184 
 142 0021 8F889BD3 		.ascii	"\217\210\233\323\273+,\020\324\370N&\032\320\366\200"
 142      BB2B2C10 
 142      D4F84E26 
 142      1AD0F680 
 143 0031 59575366 		.ascii	"YWSf\0323\271\321\344\245\367\344J\323\254\205\346\262"
 143      1A33B9D1 
 143      E4A5F7E4 
 143      4AD3AC85 
 143      E6B2
 144 0043 765AF14B 		.ascii	"vZ\361K\341\020\2063\245\"TG\251\351\345x'\213\267O"
 144      E1108633 
ARM GAS  /tmp/cc26WhyB.s 			page 11


 144      A5225447 
 144      A9E9E578 
 144      278BB74F 
 145 0057 4B7C2C88 		.ascii	"K|,\210\315Q\342\002\210\263)\357"
 145      CD51E202 
 145      88B329EF 
 146              		.text
 147              		.section	.gnu.lto_.refs.b17871176f03c638,"",%progbits
 148 0000 789C6362 		.ascii	"x\234cb`b`d\200\002\000\000F\000\006"
 148      60626064 
 148      80020000 
 148      460006
 149              		.text
 150              		.section	.gnu.lto_.decls.b17871176f03c638,"",%progbits
 151 0000 789CBD3B 		.ascii	"x\234\275;{t\024\345\275\3377\373H\226\204G\365\350"
 151      7B7414E5 
 151      BDDF37FB 
 151      48968447 
 151      F5E8
 152 0012 09AD3DC6 		.ascii	"\011\255=\306\236\332\323\253\205E\244\026{n\253\226"
 152      9EDAD3AB 
 152      8545A416 
 152      7B6EAB96 
 153 0022 F68AE75E 		.ascii	"\366\212\347^\357\365\224zz\357\351\271w;l\206\354\226"
 153      EFF5947A 
 153      7AEFE9B9 
 153      773B6C86 
 153      EC96
 154 0034 7D757642 		.ascii	"}uvB\340\376\343$P^>\022y\224\360\016\022\024\024QD"
 154      E0FEE324 
 154      505E3E12 
 154      7994F00E 
 154      12141451 
 155 0049 1105EDA2 		.ascii	"\021\005\355\242\222D@\010\244\030\251U\226\227<j\201"
 155      92444008 
 155      A418A955 
 155      96973C6A 
 155      81
 156 005a 182946C4 		.ascii	"\030)F\304\364\367\375ffwfvfv6\324\3169\3377\257\357"
 156      F4F7FD66 
 156      66776676 
 156      667636D4 
 156      CE39DF37 
 157 0070 F77E7CBF 		.ascii	"\367~|\277\357\233]\216p\244\222#d\000\216\330xBV\226"
 157      EF9B5D8E 
 157      70A49223 
 157      64008ED8 
 157      78425696 
 158 0084 11E22184 		.ascii	"\021\342!\204\374\230(g\012\315\017\315G\224\203]\257"
 158      FC982867 
 158      0ACD0FCD 
 158      4794835D 
 158      AF
 159 0095 610D5EFC 		.ascii	"a\015^\374\001\332[\320\336\203\366!%\005\007\033W\005"
 159      01DA5BD0 
 159      DE83F621 
 159      2505071B 
ARM GAS  /tmp/cc26WhyB.s 			page 12


 159      5705
 160 00a7 6D2DB461 		.ascii	"m-\264a\320*\241\335\005m7\214=\007\347cT\301{\030\316"
 160      D02AA1DD 
 160      056D378C 
 160      3D07E763 
 160      54C17B18 
 161 00bc A7E0BC0D 		.ascii	"\247\340\274\015Z\023\\o\207\363q8\237d\317\241\235"
 161      5A135C6F 
 161      87F37138 
 161      9F64CFA1 
 161      9D
 162 00cd 86B68B8D 		.ascii	"\206\266\213\215\205\326\246\362t\206*\274d\340\014"
 162      85D6A6F2 
 162      74862ABC 
 162      64E00C
 163 00dc 2C9377E0 		.ascii	",\223w\340\274\017Z\027\264\203\320\272\241\035\202"
 163      BC0F5A17 
 163      B483D0BA 
 163      A11D82
 164 00eb E6851650 		.ascii	"\346\205\026Pya|\236e\264\241\365\252\2743\031>\207"
 164      79617C9E 
 164      65B4A1F5 
 164      AABC3319 
 164      3E87
 165 00fd 7645C5B7 		.ascii	"vE\305\267\004\316K\241-\203\266\034\332\012h\253L\262"
 165      04CE4BA1 
 165      2D83B61C 
 165      DA0A68AB 
 165      4CB2
 166 010f 31D9BF61 		.ascii	"1\331\277a#\027\223\207\311\006j%GT\271j\341\274\216"
 166      23179387 
 166      C9066A25 
 166      4754B96A 
 166      E1BC8E
 167 0122 F14E072F 		.ascii	"\361N\007/c@'\343\3636r\376\217&\253j\217b\262n\203"
 167      634027E3 
 167      F33672FE 
 167      8F26AB6A 
 167      8F62B26E 
 168 0137 F3AB8C17 		.ascii	"\363\253\214\027h;\240\275\006\215rFYo$\253\344\326"
 168      683BA0BD 
 168      068D7246 
 168      596F24AB 
 168      E4D6
 169 0149 6C76D7D9 		.ascii	"lv\327\331\367\350R93K\036\030x\210\\O\026\313p\264"
 169      F7E85239 
 169      334B1E18 
 169      78885C4F 
 169      16CB70B4 
 170 015d CE96652A 		.ascii	"\316\226e*U\220\371\262\334\310n&v\016\273\206<\316"
 170      5590F9B2 
 170      DCC86E26 
 170      760EBB86 
 170      3CCE
 171 016f DE547782 		.ascii	"\336Tw\202Z\376\233\362tX\200\264z\361\2522@~\012\350"
 171      5AFE9BF2 
 171      745880B4 
ARM GAS  /tmp/cc26WhyB.s 			page 13


 171      7AF1AA32 
 171      407E0AE8 
 172 0183 6E266DB2 		.ascii	"n&m\262\334\234]z\245\333#\313\345<m\243\327\200\246"
 172      DC9C5D7A 
 172      A5DB23CB 
 172      E53C6DA3 
 172      D780A6
 173 0196 FE9D925B 		.ascii	"\376\235\222[\310\006\000l\006T\267Zx\022)\212\230#"
 173      C806006C 
 173      0654B75A 
 173      7812298A 
 173      9823
 174 01a8 BFA284A7 		.ascii	"\277\242\204\247\353\001\037O\237\242\267(\224\344\354"
 174      EB011F4F 
 174      9FA2B728 
 174      94E4EC
 175 01b7 F2391F34 		.ascii	"\3629\0374\322\006`TyG\324\267\026\307M\244\025\000"
 175      D2066054 
 175      7947D4B7 
 175      16C74DA4 
 175      1500
 176 01c9 329776AF 		.ascii	"2\227v\257\240r\353\033\324\202\342\335\032\301r\235"
 176      A072EB1B 
 176      D482E2DD 
 176      1AC1729D 
 177 01d9 246B1EBD 		.ascii	"$k\036\275\017%\331\210\222\314\245\324@A\305\322z\267"
 177      0F25D988 
 177      92CCA5D4 
 177      4041C5D2 
 177      7AB7
 178 01eb 1D1A8EB4 		.ascii	"\035\032\216\264 \310s\005\214w\354\327\030\177\316"
 178      20C87305 
 178      8C77ECD7 
 178      187FCE
 179 01fa 05E38D99 		.ascii	"\005\343\215\231\003\363W\216d\214\363t-\255\000\274"
 179      03F3578E 
 179      648CF374 
 179      2DAD00BC 
 180 020a 1B727855 		.ascii	"\033rxU\272\325\032]/!\332\245r\250\003\214\370\016"
 180      BAD51A5D 
 180      2F21DAA5 
 180      72A8038C 
 180      F80E
 181 021c EEAE6CE6 		.ascii	"\356\256l\3465d\233JFVm\305\252r\350\245\345\351fz3"
 181      35649B4A 
 181      46566DC5 
 181      AA72E8A5 
 181      E5E9667A 
 182 0231 F42FD09B 		.ascii	"\364/\320\233\240\177\021\372\334\301\221-T\263\251"
 182      A07F11FA 
 182      DCC1912D 
 182      54B3A9
 183 0240 95EA8A8B 		.ascii	"\225\352\212\213\320\277{\005\252$@\346\346}\224X\212"
 183      D0BF7B05 
 183      AA2440E6 
 183      E67D9458 
 183      8A
ARM GAS  /tmp/cc26WhyB.s 			page 14


 184 0251 A09AB3EF 		.ascii	"\240\232\263\357\341\267\016\320\231\250\365m\000\306"
 184      E1B70ED0 
 184      99A8F56D 
 184      00C6
 185 025f 914F4D06 		.ascii	"\221OM\006u\217\252\277i\327N\332\210\250\266#\252\013"
 185      758FAABF 
 185      69D74EDA 
 185      88A8B623 
 185      AA0B
 186 0271 DC6051F5 		.ascii	"\334`Q\365-\331q':\331\353\210\350K\217\021\021O\313"
 186      2DD97127 
 186      3AD9EB88 
 186      E84B8F11 
 186      114FCB
 187 0284 7292E7EE 		.ascii	"r\222\347\356\265\001\014\033\276V/X\242\037N\276\342"
 187      B5010C1B 
 187      BE562F58 
 187      A21F4EBE 
 187      E2
 188 0295 E11C99E7 		.ascii	"\341\034\231\3475\231\316\312a\312\355L'g\227u|\310"
 188      3599CECA 
 188      61CAED4C 
 188      27679775 
 188      7CC8
 189 02a7 B184E3D1 		.ascii	"\261\204\343\321\"\310o\247#\216<\206\264\3364G\320"
 189      22C86FA7 
 189      238E3C86 
 189      B4DE3447 
 189      D0
 190 02b8 A5639DFF 		.ascii	"\245c\235\377\322\"\313#\224W\305\003\350\245\335K\320"
 190      D222CB23 
 190      9457C503 
 190      E8A5DD4B 
 190      D0
 191 02c9 5B8A6634 		.ascii	"[\212f4N#\377m$\337\201\344;\315\344{>\352\374\225B"
 191      4E23FF6D 
 191      24DF81E4 
 191      3BCDE47B 
 191      3EEAFC95 
 192 02de BED315F9 		.ascii	"\276\323\025\371Wz\026\025\222\347\351\217\257s\362"
 192      577A1615 
 192      92E7E98F 
 192      AF73F2
 193 02ed 8C4BC74E 		.ascii	"\214K\307N\337\260\032\211\354\3058\235\3513\273\306"
 193      DFB01A89 
 193      ECC5389D 
 193      E933BBC6 
 194 02fd 5D1546E3 		.ascii	"]\025F\343\301\275n\000G\036\361i\334\017*M\200\230"
 194      C1BD6E00 
 194      471EF169 
 194      DC0F2A4D 
 194      8098
 195 030f A7FF77C3 		.ascii	"\247\377w\303\013\262<\317\257\361\320T2\306j\203\""
 195      0BB23CCF 
 195      AFF1D054 
 195      32C66A83 
 195      22
ARM GAS  /tmp/cc26WhyB.s 			page 15


 196 0320 76F460E2 		.ascii	"v\364`\342Q\220-p\203\314\326\217\0323\257\353\221-"
 196      51902D70 
 196      83CCD68F 
 196      1A33AFEB 
 196      912D
 197 0332 2E199991 		.ascii	".\031\231\221\263.=\262\0267\310F\330svP\217ly\311\310"
 197      B32E3DB2 
 197      1637C846 
 197      D8737650 
 197      8F6C79C9 
 198 0347 8C9CFD51 		.ascii	"\214\234\375Q\217l\225\033dU\366\234\275\253G\366D\311"
 198      8F6C951B 
 198      6455F69C 
 198      BDAB47F6 
 198      44C9
 199 0359 C88C9CBD 		.ascii	"\310\214\234\275\247G\366\244\033d\325\026\234\345\016"
 199      A747F6A4 
 199      1B64D516 
 199      9CE50E
 200 0368 2B38E6D6 		.ascii	"+8\346\326\0354\347\3470\365\371\264\204P\242O\223<"
 200      1D34E7E7 
 200      30F5F9B4 
 200      8450A24F 
 200      933C
 201 037a 8E8DBE52 		.ascii	"\216\215\276R\023\230An\230\277\217<A\027\316\224;\307"
 201      1398416E 
 201      98BF8F3C 
 201      4117CE94 
 201      3BC7
 202 038c 6873E8F3 		.ascii	"hs\350\363n0:8L\363\036\335\204\274\265ddF\263\254b"
 202      6E303A38 
 202      4CF31EDD 
 202      84BCB564 
 202      6446B3AC 
 203 03a1 C80CA946 		.ascii	"\310\014\251F\235\216\262\3532U-\371dW\256\341bU\231"
 203      9D8EB2EB 
 203      32552DF9 
 203      6457AEE1 
 203      625599
 204 03b4 92D9A048 		.ascii	"\222\331\240H\343r\203\345\252*\353\261<=\203\023\373"
 204      E37283E5 
 204      AA2AEBB1 
 204      3C3D8313 
 204      FB
 205 03c5 591AC871 		.ascii	"Y\032\310q\241\\kW\003\224\351y\207\317\252\336C\004"
 205      A15C6B57 
 205      0394E979 
 205      87CFAADE 
 205      4304
 206 03d7 CEA0769E 		.ascii	"\316\240v\236pJ\357\011;\335\250\311!\024\272\354\324"
 206      704AEF09 
 206      3BDDA8C9 
 206      2114BAEC 
 206      D4
 207 03e8 94992DCF 		.ascii	"\224\231-\317\245\015\233op,\016!;\177\363i\314\316"
 207      A50D9B6F 
 207      702C0E21 
ARM GAS  /tmp/cc26WhyB.s 			page 16


 207      3B7FF369 
 207      CCCE
 208 03fa E771E26E 		.ascii	"\347q\342n\367YV\000\256p\3657\355\327\312\211O\020"
 208      F7595600 
 208      AE70F537 
 208      EDD7CA89 
 208      4F10
 209 040c D981C123 		.ascii	"\331\201\301#k\355\353\271A\366\362\364\"\"\372S\301"
 209      6BEDEBB9 
 209      41F6F2F4 
 209      2222FA53 
 209      C1
 210 041d 9C113095 		.ascii	"\234\0210\225\023\001\343\204\037\010\344/\006\264\303"
 210      1301E384 
 210      1F08E42F 
 210      06B4C3
 211 042c 68C5AF14 		.ascii	"h\305\257\024\306\316\362\347\364\226?Y\262\345\015"
 211      C6CEF2E7 
 211      F4963F59 
 211      B2E50D
 212 043b 010205C8 		.ascii	"\001\002\005\310\337\270%r\246\301\243su\307\270\200"
 212      DFB82572 
 212      A6C1A373 
 212      75C7B880 
 213 044b 326DCFEB 		.ascii	"2m\317\353?\3022\355s\324\353\307\326\006r\201\250\277"
 213      3FC232ED 
 213      73D4EBC7 
 213      D6067281 
 213      A8BF
 214 045d E9D95B11 		.ascii	"\351\331[\021\321\025Dtq\320\210\372\226\254\032\217"
 214      D1154474 
 214      71D088FA 
 214      96AC1A8F 
 215 046d 8858C472 		.ascii	"\210X\304r\344J\201\245\251\311\322\324h\201\\\320\251"
 215      E44A81A5 
 215      A9C9D2D4 
 215      68815CD0 
 215      A9
 216 047e 31F7558D 		.ascii	"1\367U\215\345\310\034\277\311\\\006q\034f\206\\\272"
 216      E5C81CBF 
 216      C95C0671 
 216      1C66865C 
 216      BA
 217 048f FD6201ED 		.ascii	"\375b\001\355k\224[\306\224\240\235\207U{\375\016\265"
 217      6B945BC6 
 217      94A09D87 
 217      557BFD0E 
 217      B5
 218 04a0 F3A8DFAC 		.ascii	"\363\250\337\254\235+%\252\007*\214\222\305(7\2121g"
 218      9D2B25AA 
 218      072A8C92 
 218      C528378A 
 218      3167
 219 04b2 601062FC 		.ascii	"`\020b\374A\021c>\212\261\374\037 \306\332\222\305\030"
 219      4111633E 
 219      8AB1FC1F 
 219      20C6DA92 
ARM GAS  /tmp/cc26WhyB.s 			page 17


 219      C518
 220 04c4 A1130317 		.ascii	"\241\023\003\027\257\213\224\311\357Z\262\300\271|g"
 220      AF8B94C9 
 220      EF5AB2C0 
 220      B97C67
 221 04d3 FC3471D7 		.ascii	"\3744q\327\032j\347\314\241}\264Zy\\|\301\336\267O\267"
 221      1A6AE7CC 
 221      A17DB45A 
 221      795C7CC1 
 221      DEB74FB7 
 222 04e7 C8935D2D 		.ascii	"\310\223]-\247\366\344\026y\013Pe\353\375\026\001\346"
 222      A7F6E416 
 222      790B5065 
 222      EBFD1601 
 222      E6
 223 04f8 06556BFF 		.ascii	"\006Uk\377\376\353X\"]\214h6\015\026M\266\257\347e%"
 223      FEEB5822 
 223      5D8C6836 
 223      0D164DB6 
 223      AFE76525 
 224 050c 4E5B10D1 		.ascii	"N[\020\321\326\002\023\372M\026\364\033-\010\267\214"
 224      D60213FA 
 224      4D16F41B 
 224      2D08B78C 
 225 051c D2679820 		.ascii	"\322g\230 \037R\237\260\2332\362O\207\343H\006\331g"
 225      1F529FB0 
 225      9B32F24F 
 225      87E34806 
 225      D967
 226 052e D62BB1FC 		.ascii	"\326+\261\374\322\274g\316\211\205Z\351\244\030\250"
 226      D2BC67CE 
 226      89855AE9 
 226      A418A8
 227 053d E3AA3036 		.ascii	"\343\25206fV7i{#w\261\342\251\353*\321\355\330o\256"
 227      66563769 
 227      7B2377B1 
 227      E2A9EB2A 
 227      D1EDD86F 
 228 0552 0A4C8BB6 		.ascii	"\012L\213\2666\233iG\3334\332\374\310\367\320\334Op"
 228      369B6947 
 228      DB34DAFC 
 228      C8F7D0DC 
 228      4F70
 229 0564 8C9D9E02 		.ascii	"\214\235\236\002s\257\245\246U\033{\240\033b\027Hk8"
 229      73AFA5A6 
 229      551B7BA0 
 229      1B621748 
 229      6B38
 230 0576 DD0C78F6 		.ascii	"\335\014x\366j\315\320q\321d\206\013W\251\267~\325\014"
 230      6ACDD071 
 230      D164860B 
 230      57A9B77E 
 230      D50C
 231 0588 C556D8BF 		.ascii	"\305V\330\277\326pU\242 \237!\331\2479\363\016\331\347"
 231      D67055A2 
 231      209F21D9 
 231      A739F30E 
ARM GAS  /tmp/cc26WhyB.s 			page 18


 231      D9E7
 232 059a D9D96A45 		.ascii	"\331\331jE\304\336\025\317\024\357\237\014\310\013*"
 232      C4DE15CF 
 232      14EF9F0C 
 232      C80B2A
 233 05a9 95AD3A9E 		.ascii	"\225\255:\236n\245\234\212\325\252P*\252\236\314\207"
 233      6EA59C8A 
 233      D5AA502A 
 233      AA9ECC87 
 234 05b9 42E79852 		.ascii	"B\347\230RrN\273\226s\236C]>Uf6:K\"\006\243\227\024"
 234      724EBB96 
 234      739E435D 
 234      3E556636 
 234      3A4B2206 
 235 05d0 74CF9651 		.ascii	"t\317\226Q\2438n\027\312\271\303\316\2516\350\235js"
 235      A3386E17 
 235      CAB9C3CE 
 235      A936E89D 
 235      6A73
 236 05e2 D955B900 		.ascii	"\331U\271\0008U{\233\342T\305\234@\246\372e\014G\266"
 236      38557B9B 
 236      E254C59C 
 236      40A6FA65 
 236      0C47B6
 237 05f5 21E5AD66 		.ascii	"!\345\255f/X\370e\347\034u\237t\253+/\270h\341\005["
 237      2F58F865 
 237      E71C759F 
 237      74AB2B2F 
 237      B868E105 
 238 060a 07E905E0 		.ascii	"\007\351\005\340\322g\336\246\210NY\226\035\3171Y\242"
 238      D267DEA6 
 238      884E5996 
 238      1DCF3159 
 238      A2
 239 061b 1554745F 		.ascii	"\025Tt_\010\245*F\361\257\314\341\223l\306|\235c\233"
 239      08A52A46 
 239      F1AFCCE1 
 239      936CC67C 
 239      9D639B
 240 062e D0670A5C 		.ascii	"\320g\012\\K\321\214\316\265\362j\344\3516\216\255\323"
 240      4BD18CCE 
 240      B5F26AE4 
 240      E9368EAD 
 240      D3
 241 063f 5EE1D806 		.ascii	"^\341\330\006\354\253\330\357\340t\333\260vn\361Z\336"
 241      ECABD8EF 
 241      E074DBB0 
 241      766EF15A 
 241      DE
 242 0650 2D78BAC5 		.ascii	"-x\272\305\254F\267\253\345\242d^\322{_\357Uz\337\262"
 242      AC46B7AB 
 242      E5A2645E 
 242      D27B5FEF 
 242      557ADFB2 
 243 0664 8E7D5EDC 		.ascii	"\216}^\334U,a\357u\317.-p\337\304\300\375\254@\273\333"
 243      552C61EF 
 243      75CF2E2D 
ARM GAS  /tmp/cc26WhyB.s 			page 19


 243      70DFC4C0 
 243      FDAC40BB 
 244 0679 CDF5959B 		.ascii	"\315\365\225\233\015\322Y\345\203\024%wp\344\341r\027"
 244      0DD259E5 
 244      83142577 
 244      70E4E172 
 244      17
 245 068a 6B9C6A0B 		.ascii	"k\234j\013\255\347&\332w\3252\255\350.\2536s\235|d\""
 245      ADE726DA 
 245      77D532AD 
 245      E82EAB36 
 245      739D7C64 
 246 069f CE5C6FA3 		.ascii	"\316\\o\243\247=Zn\375\271\303a\263v\005\202\354-H\346"
 246      A73D5A6E 
 246      FDB9C361 
 246      B3760582 
 246      EC2D48E6 
 247 06b3 73F66A9F 		.ascii	"s\366j\237;\366\272\010\343\306\314\026\303\347\016"
 247      3BF6BA08 
 247      E3C6CC16 
 247      C3E70E
 248 06c2 CD03F73A 		.ascii	"\315\003\367:{\240\243>\015&\334\253\013\220}\030 \373"
 248      7BA0A33E 
 248      0D26DCAB 
 248      0B907D18 
 248      20FB
 249 06d4 F541C191 		.ascii	"\365A\301\221\215nt\377];W\2044tP\371\316\244}9z\321"
 249      8D6E74FF 
 249      5D3B5784 
 249      347450F9 
 249      CEA47D39 
 250 06ea 8CCF2A11 		.ascii	"\214\317*\021\031\360\351m\331\230i\356\306\335!\305"
 250      19F0E96D 
 250      D99869EE 
 250      C6DD21C5 
 251 06fa 475F73C3 		.ascii	"G_s\303\334\030{d\253\027j\312}\011+\224v7\370\306\333"
 251      DC187B64 
 251      AB176ACA 
 251      7D092B94 
 251      7637F8C6 
 252 070f 09DB9879 		.ascii	"\011\333\230y\271{\205\212O\371\252\262\257d|F\376\016"
 252      B97B858A 
 252      4FF9AAB2 
 252      AF647C46 
 252      FE0E
 253 0721 2D34D473 		.ascii	"-4\324s=n\320\335\355\332\366\371\217\2100\241\342&"
 253      3D6ED0DD 
 253      EDDAF6F9 
 253      8F8830A1 
 253      E226
 254 0733 D633F875 		.ascii	"\3263\370u\352e\354\337\300\376\030\366'\260\377\010"
 254      EA65ECDF 
 254      C0FE18F6 
 254      27B0FF08 
 255 0743 FBBF62DF 		.ascii	"\373\277b\337\217\375,L\243\363\260\177\014\373N\354"
 255      8FFD2C4C 
 255      A3F3B07F 
ARM GAS  /tmp/cc26WhyB.s 			page 20


 255      0CFB4EEC 
 256 0753 0F60DF8D 		.ascii	"\017`\337\215\375!\354{\260?\354&\341\272\254\001\237"
 256      FD21EC7B 
 256      B03FEC26 
 256      E1BAAC01 
 256      9F
 257 0764 A0D7E395 		.ascii	"\240\327\343\225\207\340\247\\\313\331d\356\361\374"
 257      87E0A75C 
 257      CBD964EE 
 257      F1FC
 258 0772 368A9CFB 		.ascii	"6\212\234\373\234\301t\254\306\371\345'w\216\334\201"
 258      9CC174AC 
 258      C6F9E527 
 258      778EDC81 
 259 0782 3B571F60 		.ascii	";W\037`\240\317\017X\006\272\003\"\216\264 L\326\024"
 259      A0CF0F58 
 259      06BA0322 
 259      8EB4204C 
 259      D614
 260 0794 E9998573 		.ascii	"\351\231\205s*\331\222)\353*\312\027w\254(\254\030\015"
 260      2AD99229 
 260      EB2ACA17 
 260      77AC28AC 
 260      180D
 261 07a6 DF9FD105 		.ascii	"\337\237\321\005\354tq\2223\350\302}\326_\372\314\321"
 261      EC747192 
 261      33E8C27D 
 261      D65FFACC 
 261      D1
 262 07b7 1F3E87F2 		.ascii	"\037>\207\362\237R\252\265!\346\244\3573\345|\2371\347"
 262      9F52AAB5 
 262      21E6A4EF 
 262      33E57C9F 
 262      31E7
 263 07c9 FB02F90B 		.ascii	"\373\002\371\0135\347\253"
 263      35E7AB
 264 07d0 4C68A03C 		.ascii	"Lh\240<}\320\343hs\225\225\327\266\364Wm@VN`,~hb\305"
 264      7DD0E368 
 264      739595D7 
 264      B6F4576D 
 264      40564E60 
 265 07e9 B4F46022 		.ascii	"\264\364`\"\333\251\343\257\\\205\215\306\013\336q\344"
 265      DBA9E3AF 
 265      5C858DC6 
 265      0BDE71E4 
 266 07f9 2F4334F3 		.ascii	"/C4\363\015n\371p\371\311\2437\274\362\242,o\376\265"
 266      0D6EF970 
 266      F9C9A337 
 266      BCF2A22C 
 266      6FFEB5
 267 080c BA0790F1 		.ascii	"\272\007\220\361\353\275\305\220\336\324\"f{\3737\231"
 267      EBBDC590 
 267      DED42266 
 267      7BFB3799 
 268 081c 6B5C8049 		.ascii	"k\\\200I\221#\237\232\344,\216\205#\215\025\014\246"
 268      91239F9A 
 268      E42C8E85 
ARM GAS  /tmp/cc26WhyB.s 			page 21


 268      238D150C 
 268      A6
 269 082d AF603BA1 		.ascii	"\257`;\241\335S\255<.\356q=\263\233\276.\267>R\245\355"
 269      DD53AD3C 
 269      2EEE713D 
 269      B39BBE2E 
 269      B73E52A5 
 270 0842 D93E9643 		.ascii	"\331>\226C9\270e\302\221\366!P\037\026\375\035\000c"
 270      39B865C2 
 270      91F62150 
 270      1F16FD1D 
 270      0063
 271 0854 ACDF1C2A 		.ascii	"\254\337\034*\207\333YQ\327\357*R\336\237m\261\266R"
 271      87DB5951 
 271      D7EF2A52 
 271      DE9F6DB1 
 271      B652
 272 0866 7469E70E 		.ascii	"ti\347\016_\024Vp\375\2034wc\346\203v-\305+\021\263"
 272      5F145670 
 272      FD833477 
 272      63E68376 
 272      2DC52B11 
 273 087b 08F5560A 		.ascii	"\010\365V\012\276j\223`\034Yv\225\272\277\344^\367\015"
 273      BE6A9360 
 273      1C597695 
 273      BABFE45E 
 273      F70D
 274 088d 1E93EE7B 		.ascii	"\036\223\356{Q\367\354qq\335\367\315\326\246\243?c\210"
 274      51F7EC71 
 274      71DDF7CD 
 274      D6A6A33F 
 274      6388
 275 089f AE46BE19 		.ascii	"\256F\276\031\354\340ty\321\244\313\266\222\361\025"
 275      ECE07479 
 275      D1A4CBB6 
 275      92F115
 276 08ae EA72C360 		.ascii	"\352r\303`uiu\350c\214\247\027\261>\372\033\316d\237"
 276      756975E8 
 276      638CA717 
 276      B13EFA1B 
 276      CE649F
 277 08c1 612F7B0C 		.ascii	"a/{\014\265\322\246\012S*\261\242m\377c\200\314\212"
 277      B5D2A60A 
 277      532AB1A2 
 277      6DFF6380 
 277      CC8A
 278 08d3 7B5969A3 		.ascii	"{Yi\243,n^2\3432.\207t\227\356\004\311\352\012\275c"
 278      2C6E5E32 
 278      E3322E87 
 278      7497EE04 
 278      C9EA0ABD 
 279 08e8 28C87114 		.ascii	"(\310q\024\341\2742\205{\\L\314\177\316\307Q.\307\237"
 279      E1BC3285 
 279      7B5C4CCC 
 279      7FCEC751 
 279      2EC79F
 280 08fb 5216F3F9 		.ascii	"R\026\363\371{eG'w\277\215\352\337;Mo6?\000`H\232=\327"
ARM GAS  /tmp/cc26WhyB.s 			page 22


 280      7B654727 
 280      77BF8DEA 
 280      DF3B4D6F 
 280      363F0060 
 281 0913 1BA9E2C7 		.ascii	"\033\251\342\307}w\323J\337\366\235U\353qZi\3620\237"
 281      7D77D34A 
 281      DFF69D55 
 281      EB715A69 
 281      F2309F
 282 0926 3D52E138 		.ascii	"=R\3418\2550Rvl,\362\330O+\205\357\364\314\022\3234"
 282      AD305276 
 282      6C2CF2D8 
 282      4F2B85EF 
 282      F4CC12D3 
 283 093b C8915326 		.ascii	"\310\221S&6\276M\326\312\362\202\354\256\263\027|\260"
 283      36BE4DD6 
 283      CAF282EC 
 283      AEB3177C 
 283      B0
 284 094c 70F36A11 		.ascii	"p\363j\021v\031\207\255\2417Z2\245\232D\201\225\373"
 284      761987AD 
 284      A1375A32 
 284      A59A4481 
 284      95FB
 285 095e 85898A3D 		.ascii	"\205\211\212=x:\333\3039\202\241\325\024\260LO\373\263"
 285      783ADBC3 
 285      3982A1D5 
 285      14B04C4F 
 285      FBB3
 286 0970 10849C62 		.ascii	"\020\204\234b:\236~L\213\200\322<\305>Fq\033\356\262"
 286      3A9E7E4C 
 286      8B80D23C 
 286      C53E4671 
 286      1BEEB2
 287 0983 EF2C0286 		.ascii	"\357,\002\206~\240R<\334\376\224BQ\261HC\245\263\214"
 287      7EA0523C 
 287      DCFE9442 
 287      51B14843 
 287      A5B38C
 288 0996 6C9446B1 		.ascii	"l\224F\261\233Q\304ZxV\021(E\353\337!\353\260\216n\177"
 288      9B51C45A 
 288      78561128 
 288      45EBDF21 
 288      EBB08E6E 
 289 09ab 74E47C46 		.ascii	"t\344|FQ\331p\264\207S\255\371{\217\341\347\201\312"
 289      51D970B4 
 289      8753ADF9 
 289      7B8FE1E7 
 289      81CA
 290 09bd 8F03F197 		.ascii	"\217\003\361\227b\015\331\201\201\033M\236\313\220\332"
 290      620DD981 
 290      811B4D9E 
 290      CB90DA
 291 09cc 56A99EE2 		.ascii	"V\251\236\342U\252\335\216\240\352\301\233\217\365V"
 291      55AADD8E 
 291      A0EAC19B 
 291      8FF556
ARM GAS  /tmp/cc26WhyB.s 			page 23


 292 09db 290BF375 		.ascii	")\013\363u\036\226\031^\251\264\256Q\355\320`\251oN"
 292      1E96195E 
 292      A9B4AE51 
 292      EDD060A9 
 292      6F4E
 293 09ed FB8FB763 		.ascii	"\373\217\267cu\272\336U\336_h5\347\272X\003w \247\033"
 293      75BADE55 
 293      DE5F6835 
 293      E7BA5803 
 293      7720A71B 
 294 0a01 0BA61CBE 		.ascii	"\013\246\034\276Zy\352b\306\321\266\235\236\361\344"
 294      5A79EA62 
 294      C6D1B69D 
 294      9EF1E4
 295 0a10 17BF1B4B 		.ascii	"\027\277\033K\237pr\207\235\235\030\376\234\371\025"
 295      9F707287 
 295      9D9D18FE 
 295      9CF915
 296 0a1f 32EB073D 		.ascii	"2\353\007=\257-6\315k\335\250\207R\360U\033\360\265"
 296      AF2D36CD 
 296      6BDDA887 
 296      52F0551B 
 296      F0B5
 297 0a31 B4E39AF7 		.ascii	"\264\343\232\367\004\226\256\3478\027\3149n\200\352"
 297      0496AEE7 
 297      3817CC39 
 297      6E80EA
 298 0a40 0EBD67F0 		.ascii	"\016\275g\360t\203\207\315\013O{\330\214\360<\366/\270"
 298      748387CD 
 298      0B4F7BD8 
 298      8CF03CF6 
 298      2FB8
 299 0a52 9917DA3C 		.ascii	"\231\027\332<\026\363\202\343<\240\006u\261$y\244\322"
 299      16F382E3 
 299      3CA00675 
 299      B12479A4 
 299      D2
 300 0a63 3249AE7B 		.ascii	"2I\256{\372\250_I\222m\230@\372\225T\340\261K\005m\272"
 300      FAA85F49 
 300      926D9840 
 300      FA9554E0 
 300      B14B056D 
 301 0a78 04B21454 		.ascii	"\004\262\024TIM\271\316\026P\227\3532\207voR\222\226"
 301      494DB9CE 
 301      165097EB 
 301      3287766F 
 301      529296
 302 0a8b 21DFD982 		.ascii	"!\337\331\202\352\362\235|\211%\255&t\340\225\036g0"
 302      EAF29D7C 
 302      8925AD26 
 302      74E0951E 
 302      6730
 303 0a9d 7DAE5BAE 		.ascii	"}\256[\256\260\212s\335\352\"p\206l\327\275\333\234"
 303      B08A73DD 
 303      EA227086 
 303      6CD7BDDB 
 303      9C
ARM GAS  /tmp/cc26WhyB.s 			page 24


 304 0aae ED6CE054 		.ascii	"\355l\340T\373\275\\\230\355\262\315\354\353\324\034"
 304      FBBD5C98 
 304      EDB2CDEC 
 304      EBD41C
 305 0abd FAF8CCD6 		.ascii	"\372\370\314\326N\371\002[\326\271\237\2553\346\331"
 305      4EF9025B 
 305      D6B99FAD 
 305      33E6D9
 306 0acc 9AB191BB 		.ascii	"\232\261\221\273Y\300\025\256\0129\362\205\311\322\032"
 306      59C015AE 
 306      0A39F285 
 306      C9D21A
 307 0adb 6B6F5AB2 		.ascii	"koZ\262\326\267\275\367_W\276 \317\232'\1779\360\020"
 307      D6B7BDF7 
 307      5F57BE20 
 307      CF9A277F 
 307      39F010
 308 0aee 2D211BEF 		.ascii	"-!\033\357*\236\215!\340\250.\243erU\027\373\015\205"
 308      2A9E8D21 
 308      E0A82EA3 
 308      65725517 
 308      FB0D85
 309 0b01 BA7EBB02 		.ascii	"\272~\273\0025\263E\3265\216\345\351\333\020NE\207\261"
 309      35B345D6 
 309      358EE5E9 
 309      DB104E45 
 309      87B1
 310 0b13 817BCC19 		.ascii	"\201{\314\031r\271\222\235\367\270\312\221[f/\321\262"
 310      72B9929D 
 310      F7B8CA91 
 310      5B662FD1 
 310      B2
 311 0b24 8DCEABF7 		.ascii	"\215\316\253\367\014:{\275\252d\233s\270\321?o(-\021"
 311      0C3A7BBD 
 311      AA649B73 
 311      B8D13F6F 
 311      282D11
 312 0b37 59B501D9 		.ascii	"Y\265\001\331A=\262&7\310\034\276\032\274\337\376{\335"
 312      413DB226 
 312      37C81CBE 
 312      1ABCDFFE 
 312      7BDD
 313 0b49 F69A1684 		.ascii	"\366\232\026\204\245\34032\367\211\302\234R\206,r\303"
 313      A5E03332 
 313      F789C29C 
 313      52862C72 
 313      C3
 314 0b5a 9CC3CFD6 		.ascii	"\234\303\317\326.\347\314\240\213\330R\320U\233\314"
 314      2EE7CCA0 
 314      8BD852D0 
 314      559BCC
 315 0b69 AB65E5BD 		.ascii	"\253e\345\275\230\225\337\301|\274\017\373.\354\017"
 315      9895DFC1 
 315      7CBC0FFB 
 315      2EEC0F
 316 0b78 62DF8DFD 		.ascii	"b\337\215\375!\343Bd\331P\3636\216\342J:\334y\237#\245"
 316      21E34264 
ARM GAS  /tmp/cc26WhyB.s 			page 25


 316      D950F336 
 316      8EE24A3A 
 316      DC799F23 
 317 0b8d 61B78BAD 		.ascii	"a\267\213\255\016\375\014j\010\356MC\255\203\273\307"
 317      0EFD0C6A 
 317      08EE4D43 
 317      AD83BBC7 
 318 0b9d 32B82F3F 		.ascii	"2\270/?\271\363\273K\355\202\333a\017\354\2609\355\260"
 318      B9F3BB4B 
 318      ED82DB61 
 318      0FECB039 
 318      EDB0
 319 0baf DAD8769D 		.ascii	"\332\330v\235b\2617\305\221\267l\030\375\300\222\321"
 319      62B137C5 
 319      91B76C18 
 319      FDC092D1 
 320 0bbf E78F1DBD 		.ascii	"\347\217\035\275e\251\374\206\305\177E\034\371<b\346"
 320      65A9FC86 
 320      C57F451C 
 320      F93C62E6 
 321 0bcf B3CD5361 		.ascii	"\263\315Saf\244\307\206\221\243FFLk\227\303\016k\227"
 321      66A4C786 
 321      91A34646 
 321      4C6B97C3 
 321      0E6B97
 322 0be2 6379EB7C 		.ascii	"cy\353|\2154+\373\004-\303\224_\031\2520#4\030N\205"
 322      8D342BFB 
 322      042DC394 
 322      5F19AA30 
 322      2334184E 
 323 0bf7 39EEF91A 		.ascii	"9\356\371\032^\031\276\376\342\010;*'<\371_2V\006\362"
 323      5E19BEFE 
 323      E2083B2A 
 323      273CF95F 
 323      325606F2 
 324 0c0b 17D448BA 		.ascii	"\027\324H\272\332Dy\2746\256L\305s\262d\312\037\331"
 324      DA4479BC 
 324      36AE4CC5 
 324      73B264CA 
 324      1FD9
 325 0c1d 50F65BAB 		.ascii	"P\366[\253j\227\203\252N\345Ue\202\332m\023\315\014"
 325      6A9783AA 
 325      4EE55565 
 325      82DA6D13 
 325      CD0C
 326 0c2f EAB42D54 		.ascii	"\352\264-T\306\201\326\231<\024\363\252\314\205\354"
 326      C681D699 
 326      3C14F3AA 
 326      CC85EC
 327 0c3e 92F3BDFF 		.ascii	"\222\363\275\377\267\221\375\316\234\271\177\303,s\000"
 327      B791FDCE 
 327      9CB97FC3 
 327      2C7300
 328 0c4d 38CCBB7F 		.ascii	"8\314\273\177Q\035+\357K\034\371\3350\263#a\215\000"
 328      511D2BEF 
 328      4B1CF9DD 
 328      30B32361 
ARM GAS  /tmp/cc26WhyB.s 			page 26


 328      8D00
 329 0c5f C77AD983 		.ascii	"\307z\331\203\330\330\370\263P\037\030\374\354\343B"
 329      D8D8F8B3 
 329      501F18FC 
 329      ECE342
 330 0c6e 8707D6DE 		.ascii	"\207\007\326\336\375\250k\031T\004\262R\021\264\226"
 330      FDA86B19 
 330      5404B252 
 330      11B496
 331 0c7d 2B2421AD 		.ascii	"+$!\255\273\"r\316L\344\274%\221\276Oz'\366\347\345"
 331      BB2272CE 
 331      4CE4BC25 
 331      91BE4F7A 
 331      27F6E7E5 
 332 0c91 BFC9BDFC 		.ascii	"\277\311\275\374\237\230\003k;N\022\206\300z\307\300"
 332      9F98036B 
 332      3B4E1286 
 332      C07AC7C0 
 333 0ca1 2A8EE4C8 		.ascii	"*\216\344\310\373\303T\377T\013\257\003J\341\245\374"
 333      FBC354FF 
 333      540BAF03 
 333      4AE1A5FC 
 334 0cb1 9BE50C42 		.ascii	"\233\345\014B\364\332V^\352GQU\342\276\206\007\252r"
 334      F4DA565E 
 334      EA475155 
 334      E2BE8607 
 334      AA72
 335 0cc3 12F79A25 		.ascii	"\022\367\232%\376\324R\342%\347\017D\364\026\327\324"
 335      FED452E2 
 335      25E70F44 
 335      F416D7D4 
 336 0cd3 7ADE955A 		.ascii	"z\336\225Z?7\023\271lg\273\225V\266\273\354\212\310"
 336      3F3713B9 
 336      6C67BB95 
 336      56B6BBEC 
 336      8AC8
 337 0ce5 1533912F 		.ascii	"\0253\221/\035\023\321\021\007\217\227\2759\217\377"
 337      1D13D111 
 337      078F97BD 
 337      398FFF
 338 0cf4 16592377 		.ascii	"\026Y#wuew=\263\224\316\315\312\315 \376\000\325g\210"
 338      7565773D 
 338      B394CECD 
 338      CACD20FE 
 338      00D56788 
 339 0d08 D3F90CD1 		.ascii	"\323\371\014\321\225\253\231\276\216\2406\211\304<\214"
 339      95AB99BE 
 339      8EA03689 
 339      C43C8C
 340 0d17 A733BDA5 		.ascii	"\2473\275\245f\222Y^\353L2\322\240\000m\024\373I\347"
 340      6692595E 
 340      EB4C32D2 
 340      A0006D14 
 340      FB49E7
 341 0d2a 70D3F2C3 		.ascii	"p\323\362\303\314\005G\232\207S\025n\010\273\270i\364"
 341      CC05479A 
 341      8753156E 
ARM GAS  /tmp/cc26WhyB.s 			page 27


 341      08BBB869 
 341      F4
 342 0d3b E8E08448 		.ascii	"\350\340\204Htr\364\277&\005\223\351\240(\005\323b8"
 342      7472F4BF 
 342      260593E9 
 342      A02805D3 
 342      6238
 343 0d4d 188ED4CC 		.ascii	"\030\216\324\314H\360\361hxt\230|\247`D4\021\216\325"
 343      48F0F168 
 343      7874987C 
 343      A7604434 
 343      118ED5
 344 0d60 D508302A 		.ascii	"\325\0100*=#-\315H\011\351\321\021R.ED\201\257\011I"
 344      3D232DCD 
 344      4809E9D1 
 344      11522E45 
 344      4481AF09 
 345 0d75 FE7BFFF3 		.ascii	"\376{\377\363\301\352\011$\020\216\204\224G\337rB\000"
 345      C1EA0924 
 345      108E8494 
 345      47DF7242 
 345      00
 346 0d86 940078B8 		.ascii	"\224\000x\27022\035\372m\235P'\204\244\0219`\365\221"
 346      32321DFA 
 346      6D9D5027 
 346      84A41139 
 346      60F591
 347 0d99 37214C97 		.ascii	"7!L\227\274)Q\230\346\303\373\037\032q\206\223\361x"
 347      BC295198 
 347      E6C3FB1F 
 347      1A718693 
 347      F178
 348 0dab 32114C25 		.ascii	"2\021L%E)\035\274\347\347\367O\270\177:{\226\212\306"
 348      45291DBC 
 348      E7E7F74F 
 348      B87F3A7B 
 348      968AC6
 349 0dbe 04311DBC 		.ascii	"\0041\035\274w\302\004 \2451Z&\245\304h2\004\003\023"
 349      77C20420 
 349      A5315A26 
 349      A5C46832 
 349      040313
 350 0dd1 53B07D3F 		.ascii	"S\260}?\030I\306\205\240(\244\005^\014G\202\021^\254"
 350      1849C685 
 350      A028A405 
 350      5E0C4782 
 350      115EAC
 351 0de4 A9E74521 		.ascii	"\251\347E!\310\213\361\261\301\332px\024\\\214\022\342"
 351      C88BF1B1 
 351      C1DA7078 
 351      145C8C12 
 351      E2
 352 0df5 93859A1A 		.ascii	"\223\205\232\032\241&\367 \221L\010\243\004~rt\324\270"
 352      A126F720 
 352      914C08A3 
 352      047E7274 
 352      D4B8
ARM GAS  /tmp/cc26WhyB.s 			page 28


 353 0e07 D0F85163 		.ascii	"\320\370Qc\307\3346\356\267c\203\206\02799\323RM4!1"
 353      C7DC36EE 
 353      B7638386 
 353      173939D3 
 353      524D3421 
 354 0e1c 25D5C1F9 		.ascii	"%\325\301\371\366\261!i&\375\347Q\217\363\341H4!\004"
 354      F6B12169 
 354      26FDE751 
 354      8FF3E148 
 354      342104
 355 0e2f 4335C214 		.ascii	"C5\302\024\276.&\2054M\014\011\2054~\274L'\225L\177"
 355      BE2E2685 
 355      344D0C09 
 355      85347EBC 
 355      4C27954C 
 356 0e44 A1703221 		.ascii	"\241p2!\201\262ou\241\341H8)\012\200\250\002\001\001"
 356      81B26F75 
 356      A1E14838 
 356      290A80A8 
 356      020101
 357 0e57 55589A1E 		.ascii	"UX\232\036t\013\027\232\366\2038S\211(\324\002\337!"
 357      740B179A 
 357      F6833853 
 357      8928D402 
 357      DF21
 358 0e69 8913C771 		.ascii	"\211\023\307q\342\3679\361\016N\374\001'\216\347\304"
 358      E2F739F1 
 358      0E4EFC01 
 358      278EE7C4 
 359 0e79 3B3DE26D 		.ascii	";=\342mc\240\335\306\305D.\235\362\000r_B\250\027D_"
 359      63A0DDC6 
 359      C5442E9D 
 359      F200725F 
 359      42A81744 
 360 0e8e 32562388 		.ascii	"2V#\210\3360\250\312\013^*\014IKS\371X\2646\021\222"
 360      DE30A8CA 
 360      0B5E2A0C 
 360      494B53F9 
 360      58B43611 
 361 0ea3 50C1778C 		.ascii	"P\301w\214\013I\252l\354\322_\317O\346\323B\271\224"
 361      0B49AA6C 
 361      ECD25FCF 
 361      4FE6D342 
 361      B994
 362 0eb5 9678099C 		.ascii	"\226x\011\234\253\214\275\030\037\222\002\312\020\270"
 362      AB8CBD18 
 362      1F9202CA 
 362      10B8
 363 0ec3 F2E19B32 		.ascii	"\362\341\2332)\236\254\201\367\276)1\2766]&\211\302"
 363      299EAC81 
 363      F7BE2931 
 363      BE365D26 
 363      89C2
 364 0ed5 94346886 		.ascii	"\2244h\206\235|\361t-\000\252\312\002@\365\312/\326"
 364      9D7CF174 
 364      2D00AACA 
 364      0240F5CA 
ARM GAS  /tmp/cc26WhyB.s 			page 29


 364      2FD6
 365 0ee7 CC8057E5 		.ascii	"\314\200W\345\302\364\250\024\006`\177\275\224\234\374"
 365      C2F4A814 
 365      06607FBD 
 365      949CFC
 366 0ef6 9BD4356A 		.ascii	"\233\3245j,\000\250 \012\2110CZ/Ib\252,-$$\000\250\004"
 366      2C00A820 
 366      0A893043 
 366      5A2F4962 
 366      AA2C2D24 
 367 0f0e FF4E0B71 		.ascii	"\377N\013q>\025\001E\024\206\240.>\004\246#_8\001V\363"
 367      3E150145 
 367      1486A02E 
 367      3E04A623 
 367      5F380156 
 368 0f23 400F04E0 		.ascii	"@\017\004\340Q\252\034\340\343u`&'\330\2704\235\301"
 368      51AA1CE0 
 368      E3756026 
 368      27D8B834 
 368      9DC1
 369 0f35 26EB1382 		.ascii	"&\353\023\202X\206\243\231.$x\234\252\020\2461F\370"
 369      5886A399 
 369      2E24789C 
 369      AA10A631 
 369      46F8
 370 0f47 F4547824 		.ascii	"\364Tx$\324\263\013Z7L\213\270X4\015\344\206\353b\220"
 370      D4B30B5A 
 370      374C8BB8 
 370      58340DE4 
 370      86EB6290 
 371 0f5b 3D29ABE7 		.ascii	"=)\253\347\243R4Q[\016\374c\014\226\013)!\001\216]["
 371      A3523451 
 371      5B0EFC63 
 371      0C960B29 
 371      21018E5D 
 372 0f70 0628D908 		.ascii	"\006(\331\0100%\037c\216\344\213\247\222\311\330\367"
 372      30251F63 
 372      8EE48BA7 
 372      92C9D8F7 
 373 0f80 2C3D2199 		.ascii	",=!\231\216E'\353\270\214\010|\012\330\034\032\027\342"
 373      8E4527EB 
 373      B88C087C 
 373      0AD81C1A 
 373      17E2
 374 0f92 49714688 		.ascii	"IqF\210\335\206\244\012\335]\303W\022*"
 374      DD86A40A 
 374      DD5DC357 
 374      122A
 375 0fa0 8C091860 		.ascii	"\214\011\030`\012\231q\243\307\217\036\247\017[\010"
 375      0A9971A3 
 375      C78F1EA7 
 375      0F5B08
 376 0faf 1960CE9F 		.ascii	"\031`\316\237\216\376?\330\320\332\265\315\002\001\353"
 376      8EFE3FD8 
 376      D0DAB5CD 
 376      0201EB
 377 0fbe 6A5854C2 		.ascii	"jXT\302e\255 M\251K\204\3013SbrZ\024\374v(\212\010\035"
ARM GAS  /tmp/cc26WhyB.s 			page 30


 377      65AD204D 
 377      A94B84C1 
 377      33536272 
 377      5A14FC76 
 378 0fd6 5C83A4BA 		.ascii	"\\\203\244\272;\037:\261/\305\327\012i\357\024Q\020"
 378      3B1F3AB1 
 378      2FC5D70A 
 378      69EF1451 
 378      10
 379 0fe7 BCECA597 		.ascii	"\274\354\245\227\021\367\326\245\205\032\2772\314\003"
 379      11F7D6A5 
 379      851ABF32 
 379      CC03
 380 0ff5 EABED9C1 		.ascii	"\352\276\331\301\356\252\3210\325)\264"
 380      EEAAD130 
 380      D529B4
 381 1000 AF0D477E 		.ascii	"\257\015G~\021\251\231\000\217%\341\337\304d|\"\240"
 381      11A99900 
 381      8F25E1DF 
 381      C4647C22 
 381      A0
 382 1011 F531DC29 		.ascii	"\3651\334).5\305\303\213\265c\334J\306\354\232\326\231"
 382      2E35C5C3 
 382      8BB563DC 
 382      4AC6EC9A 
 382      D699
 383 1023 8BDD8310 		.ascii	"\213\335\203\020xR\270\253\200\000\020\302R\210q=\322"
 383      7852B8AB 
 383      800010C2 
 383      5288713D 
 383      D2
 384 1034 44F77E04 		.ascii	"D\367~\004z\000\006s\361\024\304\300\244p\344\227\374"
 384      7A000673 
 384      F114C4C0 
 384      A470E497 
 384      FC
 385 1045 54A12E35 		.ascii	"T\241.5\311W\317B\324[\017\016\345c<\247\256UC\250F"
 385      C957CF42 
 385      D45B0F0E 
 385      E5633CA7 
 385      AE5543A8 
 386 105a 4887C568 		.ascii	"H\207\305hJJ\202\256\256\323\241\233T\227f\336'\324"
 386      4A4A82AE 
 386      AED3A19B 
 386      549766DE 
 386      27D4
 387 106c DC774D38 		.ascii	"\334wM8\302\344\271'\026K\206\357a\012\024j*\302\021"
 387      C2E4B927 
 387      164B86EF 
 387      610A146A 
 387      2AC211
 388 107f 46041F39 		.ascii	"F\004\0379F\327\014&\013\314T\223f\244\377#\031\236"
 388      46D70C26 
 388      0BCC5493 
 388      66A4FF23 
 388      199E
 389 1091 1AC03C06 		.ascii	"\032\300<\006@So\267T\010\244\305\340\204\373'\3357"
ARM GAS  /tmp/cc26WhyB.s 			page 31


 389      40536FB7 
 389      5408A4C5 
 389      E084FB27 
 389      DD37
 390 10a3 298F239E 		.ascii	")\217#\236\216\246C\340HL'!\210i)\364\223{&\375\354"
 390      8EA643E0 
 390      484C2721 
 390      886929F4 
 390      937B26FD 
 391 10b8 819FDF37 		.ascii	"\201\237\3377\224\217\325\3633\322\220)b\220|}\323\370"
 391      948FD5F3 
 391      33D29029 
 391      62907C7D 
 391      D3F8
 392 10ca 589D5081 		.ascii	"X\235P\201\224\036L0\012J\316\254\303\353\362P\010\015"
 392      941E4C30 
 392      0A4ACEAC 
 392      C3EBF250 
 392      080D
 393 10dc 151AAA5D 		.ascii	"\025\032\252]\214\276\343\366;\307\376\035C\2149\000"
 393      8CBEE3F6 
 393      3BC7FE1D 
 393      438C3900 
 394              		.text
 395              		.section	.gnu.lto_.symtab.b17871176f03c638,"",%progbits
 396 0000 63685468 		.ascii	"chThdCreateFromHeap\000\000\000\000\000\000\000\000"
 396      64437265 
 396      61746546 
 396      726F6D48 
 396      65617000 
 397 001b 00000000 		.ascii	"\000\000\000\000\241\000\000\000chThdCreateFromMemo"
 397      A1000000 
 397      63685468 
 397      64437265 
 397      61746546 
 398 0036 7279506F 		.ascii	"ryPool\000\000\000\000\000\000\000\000\000\000\000\000"
 398      6F6C0000 
 398      00000000 
 398      00000000 
 398      0000
 399 0048 A1010000 		.ascii	"\241\001\000\000chSchWakeupS\000\000\002\000\000\000"
 399      63685363 
 399      6857616B 
 399      65757053 
 399      00000200 
 400 005e 00000000 		.ascii	"\000\000\000\000\000\000\277\001\000\000chThdCreate"
 400      0000BF01 
 400      00006368 
 400      54686443 
 400      72656174 
 401 0073 53757370 		.ascii	"SuspendedI\000\000\002\000\000\000\000\000\000\000\000"
 401      656E6465 
 401      64490000 
 401      02000000 
 401      00000000 
 402 0088 00C40100 		.ascii	"\000\304\001\000\000chHeapAllocAligned\000\000\002\000"
 402      00636848 
ARM GAS  /tmp/cc26WhyB.s 			page 32


 402      65617041 
 402      6C6C6F63 
 402      416C6967 
 403 00a3 00000000 		.ascii	"\000\000\000\000\000\000\000\000\330\001\000\000chP"
 403      00000000 
 403      D8010000 
 403      636850
 404 00b2 6F6F6C41 		.ascii	"oolAlloc\000\000\002\000\000\000\000\000\000\000\000"
 404      6C6C6F63 
 404      00000200 
 404      00000000 
 404      000000
 405 00c5 00DE0100 		.ascii	"\000\336\001\000\000"
 405      00
 406              		.text
 407              		.section	.gnu.lto_.opts,"",%progbits
 408 0000 272D6D63 		.ascii	"'-mcpu=cortex-m4' '-mno-thumb-interwork' '-mthumb' "
 408      70753D63 
 408      6F727465 
 408      782D6D34 
 408      2720272D 
 409 0033 272D6767 		.ascii	"'-ggdb' '-O2' '-fomit-frame-pointer' '-falign-funct"
 409      64622720 
 409      272D4F32 
 409      2720272D 
 409      666F6D69 
 410 0066 696F6E73 		.ascii	"ions=16' '-ffunction-sections' '-fdata-sections' '-"
 410      3D313627 
 410      20272D66 
 410      66756E63 
 410      74696F6E 
 411 0099 666E6F2D 		.ascii	"fno-common' '-flto'\000"
 411      636F6D6D 
 411      6F6E2720 
 411      272D666C 
 411      746F2700 
 412              		.text
 413              		.cfi_sections	.debug_frame
 414              		.section	.text.chThdCreateFromHeap,"ax",%progbits
 415              		.align	2
 416              		.p2align 4,,15
 417              		.global	chThdCreateFromHeap
 418              		.thumb
 419              		.thumb_func
 420              		.type	chThdCreateFromHeap, %function
 421              	chThdCreateFromHeap:
 422              	.LFB239:
 423              		.file 1 "../ChibiOS/os/rt/src/chdynamic.c"
 424              		.loc 1 84 0
 425              		.cfi_startproc
 426              		@ args = 8, pretend = 0, frame = 24
 427              		@ frame_needed = 0, uses_anonymous_args = 0
 428              	.LVL0:
 429 0000 70B5     		push	{r4, r5, r6, lr}
 430              		.cfi_def_cfa_offset 16
 431              		.cfi_offset 4, -16
 432              		.cfi_offset 5, -12
ARM GAS  /tmp/cc26WhyB.s 			page 33


 433              		.cfi_offset 6, -8
 434              		.cfi_offset 14, -4
 435 0002 1446     		mov	r4, r2
 436 0004 86B0     		sub	sp, sp, #24
 437              		.cfi_def_cfa_offset 40
 438              		.loc 1 88 0
 439 0006 0822     		movs	r2, #8
 440              	.LVL1:
 441              		.loc 1 84 0
 442 0008 1E46     		mov	r6, r3
 443 000a 0D46     		mov	r5, r1
 444              		.loc 1 88 0
 445 000c FFF7FEFF 		bl	chHeapAllocAligned
 446              	.LVL2:
 447              		.loc 1 89 0
 448 0010 C8B1     		cbz	r0, .L2
 449              		.loc 1 93 0
 450 0012 0A9B     		ldr	r3, [sp, #40]
 451 0014 0493     		str	r3, [sp, #16]
 452              		.loc 1 96 0
 453 0016 0544     		add	r5, r5, r0
 454              	.LVL3:
 455              		.loc 1 93 0
 456 0018 0B9B     		ldr	r3, [sp, #44]
 457 001a 0593     		str	r3, [sp, #20]
 458              	.LVL4:
 459 001c 0295     		str	r5, [sp, #8]
 460 001e 0094     		str	r4, [sp]
 461 0020 0190     		str	r0, [sp, #4]
 462 0022 0396     		str	r6, [sp, #12]
 463              	.LBB34:
 464              	.LBB35:
 465              	.LBB36:
 466              	.LBB37:
 467              		.file 2 "../ChibiOS/os/common/ext/CMSIS/include/cmsis_gcc.h"
 468              		.loc 2 264 0
 469 0024 2023     		movs	r3, #32
 470              	@ 264 "../ChibiOS/os/common/ext/CMSIS/include/cmsis_gcc.h" 1
 471 0026 83F31188 		MSR basepri, r3
 472              	@ 0 "" 2
 473              		.thumb
 474              	.LBE37:
 475              	.LBE36:
 476              	.LBE35:
 477              	.LBE34:
 478              		.loc 1 109 0
 479 002a 6846     		mov	r0, sp
 480              	.LVL5:
 481 002c FFF7FEFF 		bl	chThdCreateSuspendedI
 482              	.LVL6:
 483              		.loc 1 110 0
 484 0030 0123     		movs	r3, #1
 485 0032 80F82130 		strb	r3, [r0, #33]
 486              		.loc 1 111 0
 487 0036 0021     		movs	r1, #0
 488              		.loc 1 109 0
 489 0038 0446     		mov	r4, r0
ARM GAS  /tmp/cc26WhyB.s 			page 34


 490              	.LVL7:
 491              		.loc 1 111 0
 492 003a FFF7FEFF 		bl	chSchWakeupS
 493              	.LVL8:
 494              	.LBB38:
 495              	.LBB39:
 496              	.LBB40:
 497              	.LBB41:
 498              	.LBB42:
 499              		.loc 2 264 0
 500 003e 0023     		movs	r3, #0
 501              	@ 264 "../ChibiOS/os/common/ext/CMSIS/include/cmsis_gcc.h" 1
 502 0040 83F31188 		MSR basepri, r3
 503              	@ 0 "" 2
 504              		.thumb
 505              	.LBE42:
 506              	.LBE41:
 507              	.LBE40:
 508              	.LBE39:
 509              	.LBE38:
 510              		.loc 1 114 0
 511 0044 2046     		mov	r0, r4
 512              	.LVL9:
 513              	.L2:
 514              		.loc 1 115 0
 515 0046 06B0     		add	sp, sp, #24
 516              		@ sp needed
 517 0048 70BD     		pop	{r4, r5, r6, pc}
 518              		.cfi_endproc
 519              	.LFE239:
 520              		.size	chThdCreateFromHeap, .-chThdCreateFromHeap
 521 004a 00BFAFF3 		.section	.text.chThdCreateFromMemoryPool,"ax",%progbits
 521      0080
 522              		.align	2
 523              		.p2align 4,,15
 524              		.global	chThdCreateFromMemoryPool
 525              		.thumb
 526              		.thumb_func
 527              		.type	chThdCreateFromMemoryPool, %function
 528              	chThdCreateFromMemoryPool:
 529              	.LFB240:
 530              		.loc 1 146 0
 531              		.cfi_startproc
 532              		@ args = 4, pretend = 0, frame = 24
 533              		@ frame_needed = 0, uses_anonymous_args = 0
 534              	.LVL10:
 535 0000 F0B5     		push	{r4, r5, r6, r7, lr}
 536              		.cfi_def_cfa_offset 20
 537              		.cfi_offset 4, -20
 538              		.cfi_offset 5, -16
 539              		.cfi_offset 6, -12
 540              		.cfi_offset 7, -8
 541              		.cfi_offset 14, -4
 542 0002 87B0     		sub	sp, sp, #28
 543              		.cfi_def_cfa_offset 48
 544              		.loc 1 146 0
 545 0004 0F46     		mov	r7, r1
ARM GAS  /tmp/cc26WhyB.s 			page 35


 546 0006 1646     		mov	r6, r2
 547 0008 1C46     		mov	r4, r3
 548 000a 0546     		mov	r5, r0
 549              		.loc 1 152 0
 550 000c FFF7FEFF 		bl	chPoolAlloc
 551              	.LVL11:
 552              		.loc 1 153 0
 553 0010 D0B1     		cbz	r0, .L6
 554              		.loc 1 160 0
 555 0012 6B68     		ldr	r3, [r5, #4]
 556              		.loc 1 157 0
 557 0014 0C9A     		ldr	r2, [sp, #48]
 558 0016 0097     		str	r7, [sp]
 559              		.loc 1 160 0
 560 0018 0344     		add	r3, r3, r0
 561              		.loc 1 157 0
 562 001a 0293     		str	r3, [sp, #8]
 563 001c 0190     		str	r0, [sp, #4]
 564 001e 0396     		str	r6, [sp, #12]
 565 0020 0494     		str	r4, [sp, #16]
 566 0022 0592     		str	r2, [sp, #20]
 567              	.LVL12:
 568              	.LBB43:
 569              	.LBB44:
 570              	.LBB45:
 571              	.LBB46:
 572              		.loc 2 264 0
 573 0024 2023     		movs	r3, #32
 574              	@ 264 "../ChibiOS/os/common/ext/CMSIS/include/cmsis_gcc.h" 1
 575 0026 83F31188 		MSR basepri, r3
 576              	@ 0 "" 2
 577              		.thumb
 578              	.LBE46:
 579              	.LBE45:
 580              	.LBE44:
 581              	.LBE43:
 582              		.loc 1 173 0
 583 002a 6846     		mov	r0, sp
 584              	.LVL13:
 585 002c FFF7FEFF 		bl	chThdCreateSuspendedI
 586              	.LVL14:
 587              		.loc 1 174 0
 588 0030 0223     		movs	r3, #2
 589 0032 80F82130 		strb	r3, [r0, #33]
 590              		.loc 1 175 0
 591 0036 0564     		str	r5, [r0, #64]
 592              		.loc 1 176 0
 593 0038 0021     		movs	r1, #0
 594              		.loc 1 173 0
 595 003a 0446     		mov	r4, r0
 596              	.LVL15:
 597              		.loc 1 176 0
 598 003c FFF7FEFF 		bl	chSchWakeupS
 599              	.LVL16:
 600              	.LBB47:
 601              	.LBB48:
 602              	.LBB49:
ARM GAS  /tmp/cc26WhyB.s 			page 36


 603              	.LBB50:
 604              	.LBB51:
 605              		.loc 2 264 0
 606 0040 0023     		movs	r3, #0
 607              	@ 264 "../ChibiOS/os/common/ext/CMSIS/include/cmsis_gcc.h" 1
 608 0042 83F31188 		MSR basepri, r3
 609              	@ 0 "" 2
 610              		.thumb
 611              	.LBE51:
 612              	.LBE50:
 613              	.LBE49:
 614              	.LBE48:
 615              	.LBE47:
 616              		.loc 1 179 0
 617 0046 2046     		mov	r0, r4
 618              	.LVL17:
 619              	.L6:
 620              		.loc 1 180 0
 621 0048 07B0     		add	sp, sp, #28
 622              		@ sp needed
 623 004a F0BD     		pop	{r4, r5, r6, r7, pc}
 624              		.cfi_endproc
 625              	.LFE240:
 626              		.size	chThdCreateFromMemoryPool, .-chThdCreateFromMemoryPool
 627 004c AFF30080 		.text
 628              	.Letext0:
 629              		.file 3 "/nfs/nfs5/home/research/hardware/arm2/gcc-arm-embedded/gcc-arm-none-eabi-4_8-2014q2/lib/g
 630              		.file 4 "/nfs/nfs5/home/research/hardware/arm2/gcc-arm-embedded/gcc-arm-none-eabi-4_8-2014q2/arm-n
 631              		.file 5 "/nfs/nfs5/home/research/hardware/arm2/gcc-arm-embedded/gcc-arm-none-eabi-4_8-2014q2/arm-n
 632              		.file 6 "../ChibiOS/os/common/ports/ARMCMx/compilers/GCC/chtypes.h"
 633              		.file 7 "../ChibiOS/os/rt/include/chsystypes.h"
 634              		.file 8 "../ChibiOS/os/rt/include/chschd.h"
 635              		.file 9 "../ChibiOS/os/common/ports/ARMCMx/chcore.h"
 636              		.file 10 "../ChibiOS/os/common/ports/ARMCMx/chcore_v7m.h"
 637              		.file 11 "../ChibiOS/os/rt/include/chtm.h"
 638              		.file 12 "../ChibiOS/os/rt/include/chsem.h"
 639              		.file 13 "../ChibiOS/os/rt/include/chmtx.h"
 640              		.file 14 "../ChibiOS/os/rt/include/chthreads.h"
 641              		.file 15 "../ChibiOS/os/common/oslib/include/chmemcore.h"
 642              		.file 16 "../ChibiOS/os/common/oslib/include/chheap.h"
 643              		.file 17 "../ChibiOS/os/common/oslib/include/chmempools.h"
 644              		.file 18 "../ChibiOS/os/rt/include/chsys.h"
 645              		.file 19 "../ChibiOS/os/common/ext/CMSIS/include/core_cm4.h"
 646              		.section	.debug_info,"",%progbits
 647              	.Ldebug_info0:
 648 0000 760B0000 		.4byte	0xb76
 649 0004 0400     		.2byte	0x4
 650 0006 00000000 		.4byte	.Ldebug_abbrev0
 651 000a 04       		.byte	0x4
 652 000b 01       		.uleb128 0x1
 653 000c 29040000 		.4byte	.LASF123
 654 0010 01       		.byte	0x1
 655 0011 6F030000 		.4byte	.LASF124
 656 0015 2F020000 		.4byte	.LASF125
 657 0019 00000000 		.4byte	.Ldebug_ranges0+0
 658 001d 00000000 		.4byte	0
 659 0021 00000000 		.4byte	.Ldebug_line0
ARM GAS  /tmp/cc26WhyB.s 			page 37


 660 0025 02       		.uleb128 0x2
 661 0026 04       		.byte	0x4
 662 0027 05       		.byte	0x5
 663 0028 696E7400 		.ascii	"int\000"
 664 002c 03       		.uleb128 0x3
 665 002d E7010000 		.4byte	.LASF2
 666 0031 03       		.byte	0x3
 667 0032 D4       		.byte	0xd4
 668 0033 37000000 		.4byte	0x37
 669 0037 04       		.uleb128 0x4
 670 0038 04       		.byte	0x4
 671 0039 07       		.byte	0x7
 672 003a 67000000 		.4byte	.LASF0
 673 003e 04       		.uleb128 0x4
 674 003f 01       		.byte	0x1
 675 0040 06       		.byte	0x6
 676 0041 E4050000 		.4byte	.LASF1
 677 0045 03       		.uleb128 0x3
 678 0046 0D040000 		.4byte	.LASF3
 679 004a 04       		.byte	0x4
 680 004b 1C       		.byte	0x1c
 681 004c 50000000 		.4byte	0x50
 682 0050 04       		.uleb128 0x4
 683 0051 01       		.byte	0x1
 684 0052 08       		.byte	0x8
 685 0053 70050000 		.4byte	.LASF4
 686 0057 04       		.uleb128 0x4
 687 0058 02       		.byte	0x2
 688 0059 05       		.byte	0x5
 689 005a 90030000 		.4byte	.LASF5
 690 005e 04       		.uleb128 0x4
 691 005f 02       		.byte	0x2
 692 0060 07       		.byte	0x7
 693 0061 F6050000 		.4byte	.LASF6
 694 0065 03       		.uleb128 0x3
 695 0066 88000000 		.4byte	.LASF7
 696 006a 04       		.byte	0x4
 697 006b 37       		.byte	0x37
 698 006c 70000000 		.4byte	0x70
 699 0070 04       		.uleb128 0x4
 700 0071 04       		.byte	0x4
 701 0072 05       		.byte	0x5
 702 0073 A6030000 		.4byte	.LASF8
 703 0077 03       		.uleb128 0x3
 704 0078 7E050000 		.4byte	.LASF9
 705 007c 04       		.byte	0x4
 706 007d 38       		.byte	0x38
 707 007e 82000000 		.4byte	0x82
 708 0082 04       		.uleb128 0x4
 709 0083 04       		.byte	0x4
 710 0084 07       		.byte	0x7
 711 0085 1A050000 		.4byte	.LASF10
 712 0089 04       		.uleb128 0x4
 713 008a 08       		.byte	0x8
 714 008b 05       		.byte	0x5
 715 008c E3020000 		.4byte	.LASF11
 716 0090 03       		.uleb128 0x3
ARM GAS  /tmp/cc26WhyB.s 			page 38


 717 0091 24020000 		.4byte	.LASF12
 718 0095 04       		.byte	0x4
 719 0096 4E       		.byte	0x4e
 720 0097 9B000000 		.4byte	0x9b
 721 009b 04       		.uleb128 0x4
 722 009c 08       		.byte	0x8
 723 009d 07       		.byte	0x7
 724 009e 69010000 		.4byte	.LASF13
 725 00a2 03       		.uleb128 0x3
 726 00a3 AE020000 		.4byte	.LASF14
 727 00a7 05       		.byte	0x5
 728 00a8 2A       		.byte	0x2a
 729 00a9 45000000 		.4byte	0x45
 730 00ad 03       		.uleb128 0x3
 731 00ae 3F050000 		.4byte	.LASF15
 732 00b2 05       		.byte	0x5
 733 00b3 41       		.byte	0x41
 734 00b4 65000000 		.4byte	0x65
 735 00b8 03       		.uleb128 0x3
 736 00b9 0A010000 		.4byte	.LASF16
 737 00bd 05       		.byte	0x5
 738 00be 42       		.byte	0x42
 739 00bf 77000000 		.4byte	0x77
 740 00c3 03       		.uleb128 0x3
 741 00c4 F2030000 		.4byte	.LASF17
 742 00c8 05       		.byte	0x5
 743 00c9 4E       		.byte	0x4e
 744 00ca 90000000 		.4byte	0x90
 745 00ce 03       		.uleb128 0x3
 746 00cf 54030000 		.4byte	.LASF18
 747 00d3 06       		.byte	0x6
 748 00d4 39       		.byte	0x39
 749 00d5 B8000000 		.4byte	0xb8
 750 00d9 03       		.uleb128 0x3
 751 00da 41030000 		.4byte	.LASF19
 752 00de 06       		.byte	0x6
 753 00df 3C       		.byte	0x3c
 754 00e0 A2000000 		.4byte	0xa2
 755 00e4 03       		.uleb128 0x3
 756 00e5 A5020000 		.4byte	.LASF20
 757 00e9 06       		.byte	0x6
 758 00ea 3D       		.byte	0x3d
 759 00eb A2000000 		.4byte	0xa2
 760 00ef 03       		.uleb128 0x3
 761 00f0 12050000 		.4byte	.LASF21
 762 00f4 06       		.byte	0x6
 763 00f5 3E       		.byte	0x3e
 764 00f6 A2000000 		.4byte	0xa2
 765 00fa 03       		.uleb128 0x3
 766 00fb 48010000 		.4byte	.LASF22
 767 00ff 06       		.byte	0x6
 768 0100 40       		.byte	0x40
 769 0101 B8000000 		.4byte	0xb8
 770 0105 03       		.uleb128 0x3
 771 0106 F1020000 		.4byte	.LASF23
 772 010a 06       		.byte	0x6
 773 010b 41       		.byte	0x41
ARM GAS  /tmp/cc26WhyB.s 			page 39


 774 010c AD000000 		.4byte	0xad
 775 0110 03       		.uleb128 0x3
 776 0111 1B010000 		.4byte	.LASF24
 777 0115 06       		.byte	0x6
 778 0116 43       		.byte	0x43
 779 0117 B8000000 		.4byte	0xb8
 780 011b 03       		.uleb128 0x3
 781 011c 80010000 		.4byte	.LASF25
 782 0120 06       		.byte	0x6
 783 0121 45       		.byte	0x45
 784 0122 AD000000 		.4byte	0xad
 785 0126 03       		.uleb128 0x3
 786 0127 4B000000 		.4byte	.LASF26
 787 012b 07       		.byte	0x7
 788 012c 33       		.byte	0x33
 789 012d B8000000 		.4byte	0xb8
 790 0131 03       		.uleb128 0x3
 791 0132 D2010000 		.4byte	.LASF27
 792 0136 07       		.byte	0x7
 793 0137 3F       		.byte	0x3f
 794 0138 3C010000 		.4byte	0x13c
 795 013c 05       		.uleb128 0x5
 796 013d BF020000 		.4byte	.LASF45
 797 0141 44       		.byte	0x44
 798 0142 08       		.byte	0x8
 799 0143 9A       		.byte	0x9a
 800 0144 1A020000 		.4byte	0x21a
 801 0148 06       		.uleb128 0x6
 802 0149 39050000 		.4byte	.LASF28
 803 014d 08       		.byte	0x8
 804 014e 9B       		.byte	0x9b
 805 014f 4F020000 		.4byte	0x24f
 806 0153 00       		.byte	0
 807 0154 06       		.uleb128 0x6
 808 0155 67020000 		.4byte	.LASF29
 809 0159 08       		.byte	0x8
 810 015a 9C       		.byte	0x9c
 811 015b FA000000 		.4byte	0xfa
 812 015f 08       		.byte	0x8
 813 0160 07       		.uleb128 0x7
 814 0161 63747800 		.ascii	"ctx\000"
 815 0165 08       		.byte	0x8
 816 0166 9D       		.byte	0x9d
 817 0167 47040000 		.4byte	0x447
 818 016b 0C       		.byte	0xc
 819 016c 06       		.uleb128 0x6
 820 016d 6A050000 		.4byte	.LASF30
 821 0171 08       		.byte	0x8
 822 0172 9F       		.byte	0x9f
 823 0173 25020000 		.4byte	0x225
 824 0177 10       		.byte	0x10
 825 0178 06       		.uleb128 0x6
 826 0179 3C060000 		.4byte	.LASF31
 827 017d 08       		.byte	0x8
 828 017e A0       		.byte	0xa0
 829 017f 25020000 		.4byte	0x225
 830 0183 14       		.byte	0x14
ARM GAS  /tmp/cc26WhyB.s 			page 40


 831 0184 06       		.uleb128 0x6
 832 0185 24040000 		.4byte	.LASF32
 833 0189 08       		.byte	0x8
 834 018a A7       		.byte	0xa7
 835 018b CC050000 		.4byte	0x5cc
 836 018f 18       		.byte	0x18
 837 0190 06       		.uleb128 0x6
 838 0191 84020000 		.4byte	.LASF33
 839 0195 08       		.byte	0x8
 840 0196 B0       		.byte	0xb0
 841 0197 DE050000 		.4byte	0x5de
 842 019b 1C       		.byte	0x1c
 843 019c 06       		.uleb128 0x6
 844 019d BA050000 		.4byte	.LASF34
 845 01a1 08       		.byte	0x8
 846 01a2 B5       		.byte	0xb5
 847 01a3 E4000000 		.4byte	0xe4
 848 01a7 20       		.byte	0x20
 849 01a8 06       		.uleb128 0x6
 850 01a9 45000000 		.4byte	.LASF35
 851 01ad 08       		.byte	0x8
 852 01ae B9       		.byte	0xb9
 853 01af D9000000 		.4byte	0xd9
 854 01b3 21       		.byte	0x21
 855 01b4 06       		.uleb128 0x6
 856 01b5 92000000 		.4byte	.LASF36
 857 01b9 08       		.byte	0x8
 858 01ba BE       		.byte	0xbe
 859 01bb EF000000 		.4byte	0xef
 860 01bf 22       		.byte	0x22
 861 01c0 08       		.uleb128 0x8
 862 01c1 7500     		.ascii	"u\000"
 863 01c3 08       		.byte	0x8
 864 01c4 0F01     		.2byte	0x10f
 865 01c6 01050000 		.4byte	0x501
 866 01ca 24       		.byte	0x24
 867 01cb 09       		.uleb128 0x9
 868 01cc 89050000 		.4byte	.LASF37
 869 01d0 08       		.byte	0x8
 870 01d1 1401     		.2byte	0x114
 871 01d3 2B020000 		.4byte	0x22b
 872 01d7 28       		.byte	0x28
 873 01d8 09       		.uleb128 0x9
 874 01d9 B6020000 		.4byte	.LASF38
 875 01dd 08       		.byte	0x8
 876 01de 1A01     		.2byte	0x11a
 877 01e0 4F020000 		.4byte	0x24f
 878 01e4 2C       		.byte	0x2c
 879 01e5 09       		.uleb128 0x9
 880 01e6 5E000000 		.4byte	.LASF39
 881 01ea 08       		.byte	0x8
 882 01eb 2001     		.2byte	0x120
 883 01ed 10010000 		.4byte	0x110
 884 01f1 34       		.byte	0x34
 885 01f2 09       		.uleb128 0x9
 886 01f3 AE010000 		.4byte	.LASF40
 887 01f7 08       		.byte	0x8
ARM GAS  /tmp/cc26WhyB.s 			page 41


 888 01f8 2701     		.2byte	0x127
 889 01fa C6050000 		.4byte	0x5c6
 890 01fe 38       		.byte	0x38
 891 01ff 09       		.uleb128 0x9
 892 0200 55000000 		.4byte	.LASF41
 893 0204 08       		.byte	0x8
 894 0205 2B01     		.2byte	0x12b
 895 0207 FA000000 		.4byte	0xfa
 896 020b 3C       		.byte	0x3c
 897 020c 09       		.uleb128 0x9
 898 020d 59060000 		.4byte	.LASF42
 899 0211 08       		.byte	0x8
 900 0212 3201     		.2byte	0x132
 901 0214 02030000 		.4byte	0x302
 902 0218 40       		.byte	0x40
 903 0219 00       		.byte	0
 904 021a 03       		.uleb128 0x3
 905 021b 71020000 		.4byte	.LASF43
 906 021f 07       		.byte	0x7
 907 0220 44       		.byte	0x44
 908 0221 25020000 		.4byte	0x225
 909 0225 0A       		.uleb128 0xa
 910 0226 04       		.byte	0x4
 911 0227 31010000 		.4byte	0x131
 912 022b 03       		.uleb128 0x3
 913 022c 79000000 		.4byte	.LASF44
 914 0230 07       		.byte	0x7
 915 0231 49       		.byte	0x49
 916 0232 36020000 		.4byte	0x236
 917 0236 05       		.uleb128 0x5
 918 0237 00000000 		.4byte	.LASF46
 919 023b 04       		.byte	0x4
 920 023c 08       		.byte	0x8
 921 023d 88       		.byte	0x88
 922 023e 4F020000 		.4byte	0x24f
 923 0242 06       		.uleb128 0x6
 924 0243 74000000 		.4byte	.LASF47
 925 0247 08       		.byte	0x8
 926 0248 89       		.byte	0x89
 927 0249 25020000 		.4byte	0x225
 928 024d 00       		.byte	0
 929 024e 00       		.byte	0
 930 024f 03       		.uleb128 0x3
 931 0250 98010000 		.4byte	.LASF48
 932 0254 07       		.byte	0x7
 933 0255 50       		.byte	0x50
 934 0256 5A020000 		.4byte	0x25a
 935 025a 05       		.uleb128 0x5
 936 025b E0000000 		.4byte	.LASF49
 937 025f 08       		.byte	0x8
 938 0260 08       		.byte	0x8
 939 0261 8F       		.byte	0x8f
 940 0262 7F020000 		.4byte	0x27f
 941 0266 06       		.uleb128 0x6
 942 0267 74000000 		.4byte	.LASF47
 943 026b 08       		.byte	0x8
 944 026c 90       		.byte	0x90
ARM GAS  /tmp/cc26WhyB.s 			page 42


 945 026d 25020000 		.4byte	0x225
 946 0271 00       		.byte	0
 947 0272 06       		.uleb128 0x6
 948 0273 DB000000 		.4byte	.LASF50
 949 0277 08       		.byte	0x8
 950 0278 91       		.byte	0x91
 951 0279 25020000 		.4byte	0x225
 952 027d 04       		.byte	0x4
 953 027e 00       		.byte	0
 954 027f 03       		.uleb128 0x3
 955 0280 2C050000 		.4byte	.LASF51
 956 0284 07       		.byte	0x7
 957 0285 57       		.byte	0x57
 958 0286 8A020000 		.4byte	0x28a
 959 028a 0B       		.uleb128 0xb
 960 028b C1000000 		.4byte	.LASF52
 961 028f 1C       		.byte	0x1c
 962 0290 08       		.byte	0x8
 963 0291 6A01     		.2byte	0x16a
 964 0293 E6020000 		.4byte	0x2e6
 965 0297 09       		.uleb128 0x9
 966 0298 39050000 		.4byte	.LASF28
 967 029c 08       		.byte	0x8
 968 029d 6B01     		.2byte	0x16b
 969 029f 4F020000 		.4byte	0x24f
 970 02a3 00       		.byte	0
 971 02a4 09       		.uleb128 0x9
 972 02a5 67020000 		.4byte	.LASF29
 973 02a9 08       		.byte	0x8
 974 02aa 6C01     		.2byte	0x16c
 975 02ac FA000000 		.4byte	0xfa
 976 02b0 08       		.byte	0x8
 977 02b1 08       		.uleb128 0x8
 978 02b2 63747800 		.ascii	"ctx\000"
 979 02b6 08       		.byte	0x8
 980 02b7 6E01     		.2byte	0x16e
 981 02b9 47040000 		.4byte	0x447
 982 02bd 0C       		.byte	0xc
 983 02be 09       		.uleb128 0x9
 984 02bf 6A050000 		.4byte	.LASF30
 985 02c3 08       		.byte	0x8
 986 02c4 7101     		.2byte	0x171
 987 02c6 25020000 		.4byte	0x225
 988 02ca 10       		.byte	0x10
 989 02cb 09       		.uleb128 0x9
 990 02cc 3C060000 		.4byte	.LASF31
 991 02d0 08       		.byte	0x8
 992 02d1 7201     		.2byte	0x172
 993 02d3 25020000 		.4byte	0x225
 994 02d7 14       		.byte	0x14
 995 02d8 09       		.uleb128 0x9
 996 02d9 22060000 		.4byte	.LASF53
 997 02dd 08       		.byte	0x8
 998 02de 7501     		.2byte	0x175
 999 02e0 25020000 		.4byte	0x225
 1000 02e4 18       		.byte	0x18
 1001 02e5 00       		.byte	0
ARM GAS  /tmp/cc26WhyB.s 			page 43


 1002 02e6 03       		.uleb128 0x3
 1003 02e7 F1000000 		.4byte	.LASF54
 1004 02eb 07       		.byte	0x7
 1005 02ec 5C       		.byte	0x5c
 1006 02ed F1020000 		.4byte	0x2f1
 1007 02f1 0A       		.uleb128 0xa
 1008 02f2 04       		.byte	0x4
 1009 02f3 F7020000 		.4byte	0x2f7
 1010 02f7 0C       		.uleb128 0xc
 1011 02f8 02030000 		.4byte	0x302
 1012 02fc 0D       		.uleb128 0xd
 1013 02fd 02030000 		.4byte	0x302
 1014 0301 00       		.byte	0
 1015 0302 0E       		.uleb128 0xe
 1016 0303 04       		.byte	0x4
 1017 0304 03       		.uleb128 0x3
 1018 0305 F7020000 		.4byte	.LASF55
 1019 0309 07       		.byte	0x7
 1020 030a 61       		.byte	0x61
 1021 030b 0F030000 		.4byte	0x30f
 1022 030f 0B       		.uleb128 0xb
 1023 0310 50010000 		.4byte	.LASF56
 1024 0314 14       		.byte	0x14
 1025 0315 08       		.byte	0x8
 1026 0316 4501     		.2byte	0x145
 1027 0318 5E030000 		.4byte	0x35e
 1028 031c 09       		.uleb128 0x9
 1029 031d 74000000 		.4byte	.LASF47
 1030 0321 08       		.byte	0x8
 1031 0322 4601     		.2byte	0x146
 1032 0324 E4050000 		.4byte	0x5e4
 1033 0328 00       		.byte	0
 1034 0329 09       		.uleb128 0x9
 1035 032a DB000000 		.4byte	.LASF50
 1036 032e 08       		.byte	0x8
 1037 032f 4701     		.2byte	0x147
 1038 0331 E4050000 		.4byte	0x5e4
 1039 0335 04       		.byte	0x4
 1040 0336 09       		.uleb128 0x9
 1041 0337 F0050000 		.4byte	.LASF57
 1042 033b 08       		.byte	0x8
 1043 033c 4801     		.2byte	0x148
 1044 033e 26010000 		.4byte	0x126
 1045 0342 08       		.byte	0x8
 1046 0343 09       		.uleb128 0x9
 1047 0344 CF000000 		.4byte	.LASF58
 1048 0348 08       		.byte	0x8
 1049 0349 4901     		.2byte	0x149
 1050 034b E6020000 		.4byte	0x2e6
 1051 034f 0C       		.byte	0xc
 1052 0350 08       		.uleb128 0x8
 1053 0351 70617200 		.ascii	"par\000"
 1054 0355 08       		.byte	0x8
 1055 0356 4B01     		.2byte	0x14b
 1056 0358 02030000 		.4byte	0x302
 1057 035c 10       		.byte	0x10
 1058 035d 00       		.byte	0
ARM GAS  /tmp/cc26WhyB.s 			page 44


 1059 035e 03       		.uleb128 0x3
 1060 035f 97050000 		.4byte	.LASF59
 1061 0363 07       		.byte	0x7
 1062 0364 66       		.byte	0x66
 1063 0365 69030000 		.4byte	0x369
 1064 0369 0B       		.uleb128 0xb
 1065 036a B6010000 		.4byte	.LASF60
 1066 036e 10       		.byte	0x10
 1067 036f 08       		.byte	0x8
 1068 0370 5501     		.2byte	0x155
 1069 0372 AB030000 		.4byte	0x3ab
 1070 0376 09       		.uleb128 0x9
 1071 0377 74000000 		.4byte	.LASF47
 1072 037b 08       		.byte	0x8
 1073 037c 5601     		.2byte	0x156
 1074 037e E4050000 		.4byte	0x5e4
 1075 0382 00       		.byte	0
 1076 0383 09       		.uleb128 0x9
 1077 0384 DB000000 		.4byte	.LASF50
 1078 0388 08       		.byte	0x8
 1079 0389 5801     		.2byte	0x158
 1080 038b E4050000 		.4byte	0x5e4
 1081 038f 04       		.byte	0x4
 1082 0390 09       		.uleb128 0x9
 1083 0391 F0050000 		.4byte	.LASF57
 1084 0395 08       		.byte	0x8
 1085 0396 5A01     		.2byte	0x15a
 1086 0398 26010000 		.4byte	0x126
 1087 039c 08       		.byte	0x8
 1088 039d 09       		.uleb128 0x9
 1089 039e E9030000 		.4byte	.LASF61
 1090 03a2 08       		.byte	0x8
 1091 03a3 6201     		.2byte	0x162
 1092 03a5 26010000 		.4byte	0x126
 1093 03a9 0C       		.byte	0xc
 1094 03aa 00       		.byte	0
 1095 03ab 03       		.uleb128 0x3
 1096 03ac CF020000 		.4byte	.LASF62
 1097 03b0 07       		.byte	0x7
 1098 03b1 6B       		.byte	0x6b
 1099 03b2 B6030000 		.4byte	0x3b6
 1100 03b6 0B       		.uleb128 0xb
 1101 03b7 FA000000 		.4byte	.LASF63
 1102 03bb 04       		.byte	0x4
 1103 03bc 08       		.byte	0x8
 1104 03bd 7C01     		.2byte	0x17c
 1105 03bf D1030000 		.4byte	0x3d1
 1106 03c3 09       		.uleb128 0x9
 1107 03c4 37030000 		.4byte	.LASF64
 1108 03c8 08       		.byte	0x8
 1109 03c9 8401     		.2byte	0x184
 1110 03cb EA050000 		.4byte	0x5ea
 1111 03cf 00       		.byte	0
 1112 03d0 00       		.byte	0
 1113 03d1 03       		.uleb128 0x3
 1114 03d2 CC050000 		.4byte	.LASF65
 1115 03d6 07       		.byte	0x7
ARM GAS  /tmp/cc26WhyB.s 			page 45


 1116 03d7 70       		.byte	0x70
 1117 03d8 DC030000 		.4byte	0x3dc
 1118 03dc 0B       		.uleb128 0xb
 1119 03dd C8030000 		.4byte	.LASF66
 1120 03e1 78       		.byte	0x78
 1121 03e2 08       		.byte	0x8
 1122 03e3 9C01     		.2byte	0x19c
 1123 03e5 2A040000 		.4byte	0x42a
 1124 03e9 09       		.uleb128 0x9
 1125 03ea FB030000 		.4byte	.LASF67
 1126 03ee 08       		.byte	0x8
 1127 03ef A001     		.2byte	0x1a0
 1128 03f1 7F020000 		.4byte	0x27f
 1129 03f5 00       		.byte	0
 1130 03f6 09       		.uleb128 0x9
 1131 03f7 AD000000 		.4byte	.LASF68
 1132 03fb 08       		.byte	0x8
 1133 03fc A401     		.2byte	0x1a4
 1134 03fe 5E030000 		.4byte	0x35e
 1135 0402 1C       		.byte	0x1c
 1136 0403 08       		.uleb128 0x8
 1137 0404 64626700 		.ascii	"dbg\000"
 1138 0408 08       		.byte	0x8
 1139 0409 A801     		.2byte	0x1a8
 1140 040b AB030000 		.4byte	0x3ab
 1141 040f 2C       		.byte	0x2c
 1142 0410 09       		.uleb128 0x9
 1143 0411 49030000 		.4byte	.LASF69
 1144 0415 08       		.byte	0x8
 1145 0416 AC01     		.2byte	0x1ac
 1146 0418 31010000 		.4byte	0x131
 1147 041c 30       		.byte	0x30
 1148 041d 08       		.uleb128 0x8
 1149 041e 746D00   		.ascii	"tm\000"
 1150 0421 08       		.byte	0x8
 1151 0422 B101     		.2byte	0x1b1
 1152 0424 F6040000 		.4byte	0x4f6
 1153 0428 74       		.byte	0x74
 1154 0429 00       		.byte	0
 1155 042a 04       		.uleb128 0x4
 1156 042b 04       		.byte	0x4
 1157 042c 07       		.byte	0x7
 1158 042d 09050000 		.4byte	.LASF70
 1159 0431 03       		.uleb128 0x3
 1160 0432 3C000000 		.4byte	.LASF71
 1161 0436 09       		.byte	0x9
 1162 0437 65       		.byte	0x65
 1163 0438 02030000 		.4byte	0x302
 1164 043c 03       		.uleb128 0x3
 1165 043d 09060000 		.4byte	.LASF72
 1166 0441 09       		.byte	0x9
 1167 0442 6D       		.byte	0x6d
 1168 0443 C3000000 		.4byte	0xc3
 1169 0447 05       		.uleb128 0x5
 1170 0448 B4000000 		.4byte	.LASF73
 1171 044c 04       		.byte	0x4
 1172 044d 09       		.byte	0x9
ARM GAS  /tmp/cc26WhyB.s 			page 46


 1173 044e 89       		.byte	0x89
 1174 044f 5F040000 		.4byte	0x45f
 1175 0453 07       		.uleb128 0x7
 1176 0454 737000   		.ascii	"sp\000"
 1177 0457 09       		.byte	0x9
 1178 0458 8A       		.byte	0x8a
 1179 0459 DB040000 		.4byte	0x4db
 1180 045d 00       		.byte	0
 1181 045e 00       		.byte	0
 1182 045f 0B       		.uleb128 0xb
 1183 0460 AF030000 		.4byte	.LASF74
 1184 0464 24       		.byte	0x24
 1185 0465 0A       		.byte	0xa
 1186 0466 5901     		.2byte	0x159
 1187 0468 DB040000 		.4byte	0x4db
 1188 046c 08       		.uleb128 0x8
 1189 046d 723400   		.ascii	"r4\000"
 1190 0470 0A       		.byte	0xa
 1191 0471 6C01     		.2byte	0x16c
 1192 0473 31040000 		.4byte	0x431
 1193 0477 00       		.byte	0
 1194 0478 08       		.uleb128 0x8
 1195 0479 723500   		.ascii	"r5\000"
 1196 047c 0A       		.byte	0xa
 1197 047d 6D01     		.2byte	0x16d
 1198 047f 31040000 		.4byte	0x431
 1199 0483 04       		.byte	0x4
 1200 0484 08       		.uleb128 0x8
 1201 0485 723600   		.ascii	"r6\000"
 1202 0488 0A       		.byte	0xa
 1203 0489 6E01     		.2byte	0x16e
 1204 048b 31040000 		.4byte	0x431
 1205 048f 08       		.byte	0x8
 1206 0490 08       		.uleb128 0x8
 1207 0491 723700   		.ascii	"r7\000"
 1208 0494 0A       		.byte	0xa
 1209 0495 6F01     		.2byte	0x16f
 1210 0497 31040000 		.4byte	0x431
 1211 049b 0C       		.byte	0xc
 1212 049c 08       		.uleb128 0x8
 1213 049d 723800   		.ascii	"r8\000"
 1214 04a0 0A       		.byte	0xa
 1215 04a1 7001     		.2byte	0x170
 1216 04a3 31040000 		.4byte	0x431
 1217 04a7 10       		.byte	0x10
 1218 04a8 08       		.uleb128 0x8
 1219 04a9 723900   		.ascii	"r9\000"
 1220 04ac 0A       		.byte	0xa
 1221 04ad 7101     		.2byte	0x171
 1222 04af 31040000 		.4byte	0x431
 1223 04b3 14       		.byte	0x14
 1224 04b4 08       		.uleb128 0x8
 1225 04b5 72313000 		.ascii	"r10\000"
 1226 04b9 0A       		.byte	0xa
 1227 04ba 7201     		.2byte	0x172
 1228 04bc 31040000 		.4byte	0x431
 1229 04c0 18       		.byte	0x18
ARM GAS  /tmp/cc26WhyB.s 			page 47


 1230 04c1 08       		.uleb128 0x8
 1231 04c2 72313100 		.ascii	"r11\000"
 1232 04c6 0A       		.byte	0xa
 1233 04c7 7301     		.2byte	0x173
 1234 04c9 31040000 		.4byte	0x431
 1235 04cd 1C       		.byte	0x1c
 1236 04ce 08       		.uleb128 0x8
 1237 04cf 6C7200   		.ascii	"lr\000"
 1238 04d2 0A       		.byte	0xa
 1239 04d3 7401     		.2byte	0x174
 1240 04d5 31040000 		.4byte	0x431
 1241 04d9 20       		.byte	0x20
 1242 04da 00       		.byte	0
 1243 04db 0A       		.uleb128 0xa
 1244 04dc 04       		.byte	0x4
 1245 04dd 5F040000 		.4byte	0x45f
 1246 04e1 0F       		.uleb128 0xf
 1247 04e2 04       		.byte	0x4
 1248 04e3 0B       		.byte	0xb
 1249 04e4 38       		.byte	0x38
 1250 04e5 F6040000 		.4byte	0x4f6
 1251 04e9 06       		.uleb128 0x6
 1252 04ea 01020000 		.4byte	.LASF75
 1253 04ee 0B       		.byte	0xb
 1254 04ef 3C       		.byte	0x3c
 1255 04f0 CE000000 		.4byte	0xce
 1256 04f4 00       		.byte	0
 1257 04f5 00       		.byte	0
 1258 04f6 03       		.uleb128 0x3
 1259 04f7 25000000 		.4byte	.LASF76
 1260 04fb 0B       		.byte	0xb
 1261 04fc 3D       		.byte	0x3d
 1262 04fd E1040000 		.4byte	0x4e1
 1263 0501 10       		.uleb128 0x10
 1264 0502 04       		.byte	0x4
 1265 0503 08       		.byte	0x8
 1266 0504 D2       		.byte	0xd2
 1267 0505 64050000 		.4byte	0x564
 1268 0509 11       		.uleb128 0x11
 1269 050a EE010000 		.4byte	.LASF77
 1270 050e 08       		.byte	0x8
 1271 050f D9       		.byte	0xd9
 1272 0510 05010000 		.4byte	0x105
 1273 0514 11       		.uleb128 0x11
 1274 0515 42060000 		.4byte	.LASF78
 1275 0519 08       		.byte	0x8
 1276 051a E0       		.byte	0xe0
 1277 051b 05010000 		.4byte	0x105
 1278 051f 11       		.uleb128 0x11
 1279 0520 9C000000 		.4byte	.LASF79
 1280 0524 08       		.byte	0x8
 1281 0525 E7       		.byte	0xe7
 1282 0526 02030000 		.4byte	0x302
 1283 052a 11       		.uleb128 0x11
 1284 052b D8050000 		.4byte	.LASF80
 1285 052f 08       		.byte	0x8
 1286 0530 EE       		.byte	0xee
ARM GAS  /tmp/cc26WhyB.s 			page 48


 1287 0531 64050000 		.4byte	0x564
 1288 0535 11       		.uleb128 0x11
 1289 0536 13010000 		.4byte	.LASF81
 1290 053a 08       		.byte	0x8
 1291 053b F3       		.byte	0xf3
 1292 053c 05010000 		.4byte	0x105
 1293 0540 11       		.uleb128 0x11
 1294 0541 47050000 		.4byte	.LASF82
 1295 0545 08       		.byte	0x8
 1296 0546 FC       		.byte	0xfc
 1297 0547 8F050000 		.4byte	0x58f
 1298 054b 12       		.uleb128 0x12
 1299 054c 10000000 		.4byte	.LASF83
 1300 0550 08       		.byte	0x8
 1301 0551 0501     		.2byte	0x105
 1302 0553 C6050000 		.4byte	0x5c6
 1303 0557 12       		.uleb128 0x12
 1304 0558 D4000000 		.4byte	.LASF84
 1305 055c 08       		.byte	0x8
 1306 055d 0D01     		.2byte	0x10d
 1307 055f 10010000 		.4byte	0x110
 1308 0563 00       		.byte	0
 1309 0564 0A       		.uleb128 0xa
 1310 0565 04       		.byte	0x4
 1311 0566 1A020000 		.4byte	0x21a
 1312 056a 05       		.uleb128 0x5
 1313 056b 3B010000 		.4byte	.LASF85
 1314 056f 0C       		.byte	0xc
 1315 0570 0C       		.byte	0xc
 1316 0571 34       		.byte	0x34
 1317 0572 8F050000 		.4byte	0x58f
 1318 0576 06       		.uleb128 0x6
 1319 0577 39050000 		.4byte	.LASF28
 1320 057b 0C       		.byte	0xc
 1321 057c 35       		.byte	0x35
 1322 057d 4F020000 		.4byte	0x24f
 1323 0581 00       		.byte	0
 1324 0582 07       		.uleb128 0x7
 1325 0583 636E7400 		.ascii	"cnt\000"
 1326 0587 0C       		.byte	0xc
 1327 0588 37       		.byte	0x37
 1328 0589 1B010000 		.4byte	0x11b
 1329 058d 08       		.byte	0x8
 1330 058e 00       		.byte	0
 1331 058f 0A       		.uleb128 0xa
 1332 0590 04       		.byte	0x4
 1333 0591 6A050000 		.4byte	0x56a
 1334 0595 05       		.uleb128 0x5
 1335 0596 16020000 		.4byte	.LASF86
 1336 059a 10       		.byte	0x10
 1337 059b 0D       		.byte	0xd
 1338 059c 39       		.byte	0x39
 1339 059d C6050000 		.4byte	0x5c6
 1340 05a1 06       		.uleb128 0x6
 1341 05a2 39050000 		.4byte	.LASF28
 1342 05a6 0D       		.byte	0xd
 1343 05a7 3A       		.byte	0x3a
ARM GAS  /tmp/cc26WhyB.s 			page 49


 1344 05a8 4F020000 		.4byte	0x24f
 1345 05ac 00       		.byte	0
 1346 05ad 06       		.uleb128 0x6
 1347 05ae 92010000 		.4byte	.LASF87
 1348 05b2 0D       		.byte	0xd
 1349 05b3 3C       		.byte	0x3c
 1350 05b4 25020000 		.4byte	0x225
 1351 05b8 08       		.byte	0x8
 1352 05b9 06       		.uleb128 0x6
 1353 05ba 74000000 		.4byte	.LASF47
 1354 05be 0D       		.byte	0xd
 1355 05bf 3E       		.byte	0x3e
 1356 05c0 61060000 		.4byte	0x661
 1357 05c4 0C       		.byte	0xc
 1358 05c5 00       		.byte	0
 1359 05c6 0A       		.uleb128 0xa
 1360 05c7 04       		.byte	0x4
 1361 05c8 95050000 		.4byte	0x595
 1362 05cc 0A       		.uleb128 0xa
 1363 05cd 04       		.byte	0x4
 1364 05ce D2050000 		.4byte	0x5d2
 1365 05d2 13       		.uleb128 0x13
 1366 05d3 D7050000 		.4byte	0x5d7
 1367 05d7 04       		.uleb128 0x4
 1368 05d8 01       		.byte	0x1
 1369 05d9 08       		.byte	0x8
 1370 05da 6C020000 		.4byte	.LASF88
 1371 05de 0A       		.uleb128 0xa
 1372 05df 04       		.byte	0x4
 1373 05e0 3C040000 		.4byte	0x43c
 1374 05e4 0A       		.uleb128 0xa
 1375 05e5 04       		.byte	0x4
 1376 05e6 04030000 		.4byte	0x304
 1377 05ea 14       		.uleb128 0x14
 1378 05eb CC050000 		.4byte	0x5cc
 1379 05ef 03       		.uleb128 0x3
 1380 05f0 61010000 		.4byte	.LASF89
 1381 05f4 0E       		.byte	0xe
 1382 05f5 40       		.byte	0x40
 1383 05f6 F1020000 		.4byte	0x2f1
 1384 05fa 0F       		.uleb128 0xf
 1385 05fb 18       		.byte	0x18
 1386 05fc 0E       		.byte	0xe
 1387 05fd 45       		.byte	0x45
 1388 05fe 4B060000 		.4byte	0x64b
 1389 0602 06       		.uleb128 0x6
 1390 0603 24040000 		.4byte	.LASF32
 1391 0607 0E       		.byte	0xe
 1392 0608 49       		.byte	0x49
 1393 0609 CC050000 		.4byte	0x5cc
 1394 060d 00       		.byte	0
 1395 060e 06       		.uleb128 0x6
 1396 060f 36000000 		.4byte	.LASF90
 1397 0613 0E       		.byte	0xe
 1398 0614 4D       		.byte	0x4d
 1399 0615 DE050000 		.4byte	0x5de
 1400 0619 04       		.byte	0x4
ARM GAS  /tmp/cc26WhyB.s 			page 50


 1401 061a 06       		.uleb128 0x6
 1402 061b DE020000 		.4byte	.LASF91
 1403 061f 0E       		.byte	0xe
 1404 0620 51       		.byte	0x51
 1405 0621 DE050000 		.4byte	0x5de
 1406 0625 08       		.byte	0x8
 1407 0626 06       		.uleb128 0x6
 1408 0627 67020000 		.4byte	.LASF29
 1409 062b 0E       		.byte	0xe
 1410 062c 55       		.byte	0x55
 1411 062d FA000000 		.4byte	0xfa
 1412 0631 0C       		.byte	0xc
 1413 0632 06       		.uleb128 0x6
 1414 0633 91050000 		.4byte	.LASF92
 1415 0637 0E       		.byte	0xe
 1416 0638 59       		.byte	0x59
 1417 0639 EF050000 		.4byte	0x5ef
 1418 063d 10       		.byte	0x10
 1419 063e 07       		.uleb128 0x7
 1420 063f 61726700 		.ascii	"arg\000"
 1421 0643 0E       		.byte	0xe
 1422 0644 5D       		.byte	0x5d
 1423 0645 02030000 		.4byte	0x302
 1424 0649 14       		.byte	0x14
 1425 064a 00       		.byte	0
 1426 064b 03       		.uleb128 0x3
 1427 064c 27010000 		.4byte	.LASF93
 1428 0650 0E       		.byte	0xe
 1429 0651 5E       		.byte	0x5e
 1430 0652 FA050000 		.4byte	0x5fa
 1431 0656 03       		.uleb128 0x3
 1432 0657 62050000 		.4byte	.LASF94
 1433 065b 0D       		.byte	0xd
 1434 065c 34       		.byte	0x34
 1435 065d 95050000 		.4byte	0x595
 1436 0661 0A       		.uleb128 0xa
 1437 0662 04       		.byte	0x4
 1438 0663 56060000 		.4byte	0x656
 1439 0667 03       		.uleb128 0x3
 1440 0668 17040000 		.4byte	.LASF95
 1441 066c 0F       		.byte	0xf
 1442 066d 47       		.byte	0x47
 1443 066e 72060000 		.4byte	0x672
 1444 0672 0A       		.uleb128 0xa
 1445 0673 04       		.byte	0x4
 1446 0674 78060000 		.4byte	0x678
 1447 0678 15       		.uleb128 0x15
 1448 0679 02030000 		.4byte	0x302
 1449 067d 8C060000 		.4byte	0x68c
 1450 0681 0D       		.uleb128 0xd
 1451 0682 2C000000 		.4byte	0x2c
 1452 0686 0D       		.uleb128 0xd
 1453 0687 37000000 		.4byte	0x37
 1454 068b 00       		.byte	0
 1455 068c 03       		.uleb128 0x3
 1456 068d 13030000 		.4byte	.LASF96
 1457 0691 10       		.byte	0x10
ARM GAS  /tmp/cc26WhyB.s 			page 51


 1458 0692 48       		.byte	0x48
 1459 0693 97060000 		.4byte	0x697
 1460 0697 05       		.uleb128 0x5
 1461 0698 9A030000 		.4byte	.LASF97
 1462 069c 20       		.byte	0x20
 1463 069d 10       		.byte	0x10
 1464 069e 61       		.byte	0x61
 1465 069f C8060000 		.4byte	0x6c8
 1466 06a3 06       		.uleb128 0x6
 1467 06a4 E0030000 		.4byte	.LASF98
 1468 06a8 10       		.byte	0x10
 1469 06a9 62       		.byte	0x62
 1470 06aa 67060000 		.4byte	0x667
 1471 06ae 00       		.byte	0
 1472 06af 06       		.uleb128 0x6
 1473 06b0 0C030000 		.4byte	.LASF99
 1474 06b4 10       		.byte	0x10
 1475 06b5 64       		.byte	0x64
 1476 06b6 C8060000 		.4byte	0x6c8
 1477 06ba 08       		.byte	0x8
 1478 06bb 07       		.uleb128 0x7
 1479 06bc 6D747800 		.ascii	"mtx\000"
 1480 06c0 10       		.byte	0x10
 1481 06c1 66       		.byte	0x66
 1482 06c2 56060000 		.4byte	0x656
 1483 06c6 10       		.byte	0x10
 1484 06c7 00       		.byte	0
 1485 06c8 03       		.uleb128 0x3
 1486 06c9 4B060000 		.4byte	.LASF100
 1487 06cd 10       		.byte	0x10
 1488 06ce 4D       		.byte	0x4d
 1489 06cf D3060000 		.4byte	0x6d3
 1490 06d3 16       		.uleb128 0x16
 1491 06d4 DB010000 		.4byte	.LASF126
 1492 06d8 08       		.byte	0x8
 1493 06d9 10       		.byte	0x10
 1494 06da 52       		.byte	0x52
 1495 06db 01070000 		.4byte	0x701
 1496 06df 11       		.uleb128 0x11
 1497 06e0 36060000 		.4byte	.LASF101
 1498 06e4 10       		.byte	0x10
 1499 06e5 53       		.byte	0x53
 1500 06e6 3C040000 		.4byte	0x43c
 1501 06ea 11       		.uleb128 0x11
 1502 06eb 1F020000 		.4byte	.LASF102
 1503 06ef 10       		.byte	0x10
 1504 06f0 57       		.byte	0x57
 1505 06f1 01070000 		.4byte	0x701
 1506 06f5 11       		.uleb128 0x11
 1507 06f6 CD010000 		.4byte	.LASF103
 1508 06fa 10       		.byte	0x10
 1509 06fb 5B       		.byte	0x5b
 1510 06fc 28070000 		.4byte	0x728
 1511 0700 00       		.byte	0
 1512 0701 0F       		.uleb128 0xf
 1513 0702 08       		.byte	0x8
 1514 0703 10       		.byte	0x10
ARM GAS  /tmp/cc26WhyB.s 			page 52


 1515 0704 54       		.byte	0x54
 1516 0705 22070000 		.4byte	0x722
 1517 0709 06       		.uleb128 0x6
 1518 070a 74000000 		.4byte	.LASF47
 1519 070e 10       		.byte	0x10
 1520 070f 55       		.byte	0x55
 1521 0710 22070000 		.4byte	0x722
 1522 0714 00       		.byte	0
 1523 0715 06       		.uleb128 0x6
 1524 0716 C9020000 		.4byte	.LASF104
 1525 071a 10       		.byte	0x10
 1526 071b 56       		.byte	0x56
 1527 071c 2C000000 		.4byte	0x2c
 1528 0720 04       		.byte	0x4
 1529 0721 00       		.byte	0
 1530 0722 0A       		.uleb128 0xa
 1531 0723 04       		.byte	0x4
 1532 0724 C8060000 		.4byte	0x6c8
 1533 0728 0F       		.uleb128 0xf
 1534 0729 08       		.byte	0x8
 1535 072a 10       		.byte	0x10
 1536 072b 58       		.byte	0x58
 1537 072c 49070000 		.4byte	0x749
 1538 0730 06       		.uleb128 0x6
 1539 0731 97000000 		.4byte	.LASF105
 1540 0735 10       		.byte	0x10
 1541 0736 59       		.byte	0x59
 1542 0737 49070000 		.4byte	0x749
 1543 073b 00       		.byte	0
 1544 073c 06       		.uleb128 0x6
 1545 073d 07030000 		.4byte	.LASF106
 1546 0741 10       		.byte	0x10
 1547 0742 5A       		.byte	0x5a
 1548 0743 2C000000 		.4byte	0x2c
 1549 0747 04       		.byte	0x4
 1550 0748 00       		.byte	0
 1551 0749 0A       		.uleb128 0xa
 1552 074a 04       		.byte	0x4
 1553 074b 8C060000 		.4byte	0x68c
 1554 074f 05       		.uleb128 0x5
 1555 0750 C0050000 		.4byte	.LASF107
 1556 0754 04       		.byte	0x4
 1557 0755 11       		.byte	0x11
 1558 0756 38       		.byte	0x38
 1559 0757 68070000 		.4byte	0x768
 1560 075b 06       		.uleb128 0x6
 1561 075c 74000000 		.4byte	.LASF47
 1562 0760 11       		.byte	0x11
 1563 0761 39       		.byte	0x39
 1564 0762 68070000 		.4byte	0x768
 1565 0766 00       		.byte	0
 1566 0767 00       		.byte	0
 1567 0768 0A       		.uleb128 0xa
 1568 0769 04       		.byte	0x4
 1569 076a 4F070000 		.4byte	0x74f
 1570 076e 0F       		.uleb128 0xf
 1571 076f 0C       		.byte	0xc
ARM GAS  /tmp/cc26WhyB.s 			page 53


 1572 0770 11       		.byte	0x11
 1573 0771 40       		.byte	0x40
 1574 0772 9B070000 		.4byte	0x79b
 1575 0776 06       		.uleb128 0x6
 1576 0777 74000000 		.4byte	.LASF47
 1577 077b 11       		.byte	0x11
 1578 077c 41       		.byte	0x41
 1579 077d 68070000 		.4byte	0x768
 1580 0781 00       		.byte	0
 1581 0782 06       		.uleb128 0x6
 1582 0783 F5010000 		.4byte	.LASF108
 1583 0787 11       		.byte	0x11
 1584 0788 42       		.byte	0x42
 1585 0789 2C000000 		.4byte	0x2c
 1586 078d 04       		.byte	0x4
 1587 078e 06       		.uleb128 0x6
 1588 078f E0030000 		.4byte	.LASF98
 1589 0793 11       		.byte	0x11
 1590 0794 44       		.byte	0x44
 1591 0795 67060000 		.4byte	0x667
 1592 0799 08       		.byte	0x8
 1593 079a 00       		.byte	0
 1594 079b 03       		.uleb128 0x3
 1595 079c 17000000 		.4byte	.LASF109
 1596 07a0 11       		.byte	0x11
 1597 07a1 46       		.byte	0x46
 1598 07a2 6E070000 		.4byte	0x76e
 1599 07a6 17       		.uleb128 0x17
 1600 07a7 D2030000 		.4byte	.LASF113
 1601 07ab 02       		.byte	0x2
 1602 07ac 0601     		.2byte	0x106
 1603 07ae 03       		.byte	0x3
 1604 07af C0070000 		.4byte	0x7c0
 1605 07b3 18       		.uleb128 0x18
 1606 07b4 A8010000 		.4byte	.LASF127
 1607 07b8 02       		.byte	0x2
 1608 07b9 0601     		.2byte	0x106
 1609 07bb B8000000 		.4byte	0xb8
 1610 07bf 00       		.byte	0
 1611 07c0 19       		.uleb128 0x19
 1612 07c1 A3000000 		.4byte	.LASF110
 1613 07c5 0A       		.byte	0xa
 1614 07c6 5202     		.2byte	0x252
 1615 07c8 03       		.byte	0x3
 1616 07c9 19       		.uleb128 0x19
 1617 07ca 2A060000 		.4byte	.LASF111
 1618 07ce 0A       		.byte	0xa
 1619 07cf 6A02     		.2byte	0x26a
 1620 07d1 03       		.byte	0x3
 1621 07d2 19       		.uleb128 0x19
 1622 07d3 5D020000 		.4byte	.LASF112
 1623 07d7 12       		.byte	0x12
 1624 07d8 7601     		.2byte	0x176
 1625 07da 03       		.byte	0x3
 1626 07db 17       		.uleb128 0x17
 1627 07dc 86010000 		.4byte	.LASF114
 1628 07e0 12       		.byte	0x12
ARM GAS  /tmp/cc26WhyB.s 			page 54


 1629 07e1 8201     		.2byte	0x182
 1630 07e3 03       		.byte	0x3
 1631 07e4 F6070000 		.4byte	0x7f6
 1632 07e8 1A       		.uleb128 0x1a
 1633 07e9 08020000 		.4byte	.LASF128
 1634 07ed 06080000 		.4byte	0x806
 1635 07f1 86010000 		.4byte	.LASF114
 1636 07f5 00       		.byte	0
 1637 07f6 1B       		.uleb128 0x1b
 1638 07f7 D7050000 		.4byte	0x5d7
 1639 07fb 06080000 		.4byte	0x806
 1640 07ff 1C       		.uleb128 0x1c
 1641 0800 2A040000 		.4byte	0x42a
 1642 0804 0B       		.byte	0xb
 1643 0805 00       		.byte	0
 1644 0806 13       		.uleb128 0x13
 1645 0807 F6070000 		.4byte	0x7f6
 1646 080b 1D       		.uleb128 0x1d
 1647 080c 4E050000 		.4byte	.LASF116
 1648 0810 01       		.byte	0x1
 1649 0811 52       		.byte	0x52
 1650 0812 25020000 		.4byte	0x225
 1651 0816 00000000 		.4byte	.LFB239
 1652 081a 4A000000 		.4byte	.LFE239-.LFB239
 1653 081e 01       		.uleb128 0x1
 1654 081f 9C       		.byte	0x9c
 1655 0820 7C090000 		.4byte	0x97c
 1656 0824 1E       		.uleb128 0x1e
 1657 0825 DE050000 		.4byte	.LASF115
 1658 0829 01       		.byte	0x1
 1659 082a 52       		.byte	0x52
 1660 082b 49070000 		.4byte	0x749
 1661 082f 00000000 		.4byte	.LLST0
 1662 0833 1E       		.uleb128 0x1e
 1663 0834 07030000 		.4byte	.LASF106
 1664 0838 01       		.byte	0x1
 1665 0839 52       		.byte	0x52
 1666 083a 2C000000 		.4byte	0x2c
 1667 083e 21000000 		.4byte	.LLST1
 1668 0842 1E       		.uleb128 0x1e
 1669 0843 24040000 		.4byte	.LASF32
 1670 0847 01       		.byte	0x1
 1671 0848 53       		.byte	0x53
 1672 0849 CC050000 		.4byte	0x5cc
 1673 084d 4D000000 		.4byte	.LLST2
 1674 0851 1E       		.uleb128 0x1e
 1675 0852 67020000 		.4byte	.LASF29
 1676 0856 01       		.byte	0x1
 1677 0857 53       		.byte	0x53
 1678 0858 FA000000 		.4byte	0xfa
 1679 085c 79000000 		.4byte	.LLST3
 1680 0860 1F       		.uleb128 0x1f
 1681 0861 706600   		.ascii	"pf\000"
 1682 0864 01       		.byte	0x1
 1683 0865 54       		.byte	0x54
 1684 0866 EF050000 		.4byte	0x5ef
 1685 086a 02       		.uleb128 0x2
ARM GAS  /tmp/cc26WhyB.s 			page 55


 1686 086b 91       		.byte	0x91
 1687 086c 00       		.sleb128 0
 1688 086d 1F       		.uleb128 0x1f
 1689 086e 61726700 		.ascii	"arg\000"
 1690 0872 01       		.byte	0x1
 1691 0873 54       		.byte	0x54
 1692 0874 02030000 		.4byte	0x302
 1693 0878 02       		.uleb128 0x2
 1694 0879 91       		.byte	0x91
 1695 087a 04       		.sleb128 4
 1696 087b 20       		.uleb128 0x20
 1697 087c 747000   		.ascii	"tp\000"
 1698 087f 01       		.byte	0x1
 1699 0880 55       		.byte	0x55
 1700 0881 25020000 		.4byte	0x225
 1701 0885 97000000 		.4byte	.LLST4
 1702 0889 20       		.uleb128 0x20
 1703 088a 77737000 		.ascii	"wsp\000"
 1704 088e 01       		.byte	0x1
 1705 088f 56       		.byte	0x56
 1706 0890 02030000 		.4byte	0x302
 1707 0894 B5000000 		.4byte	.LLST5
 1708 0898 21       		.uleb128 0x21
 1709 0899 746400   		.ascii	"td\000"
 1710 089c 01       		.byte	0x1
 1711 089d 5D       		.byte	0x5d
 1712 089e 4B060000 		.4byte	0x64b
 1713 08a2 02       		.uleb128 0x2
 1714 08a3 91       		.byte	0x91
 1715 08a4 58       		.sleb128 -40
 1716 08a5 22       		.uleb128 0x22
 1717 08a6 D2070000 		.4byte	0x7d2
 1718 08aa 24000000 		.4byte	.LBB34
 1719 08ae 06000000 		.4byte	.LBE34-.LBB34
 1720 08b2 01       		.byte	0x1
 1721 08b3 6C       		.byte	0x6c
 1722 08b4 E4080000 		.4byte	0x8e4
 1723 08b8 23       		.uleb128 0x23
 1724 08b9 C0070000 		.4byte	0x7c0
 1725 08bd 24000000 		.4byte	.LBB35
 1726 08c1 06000000 		.4byte	.LBE35-.LBB35
 1727 08c5 12       		.byte	0x12
 1728 08c6 7801     		.2byte	0x178
 1729 08c8 23       		.uleb128 0x23
 1730 08c9 A6070000 		.4byte	0x7a6
 1731 08cd 24000000 		.4byte	.LBB36
 1732 08d1 06000000 		.4byte	.LBE36-.LBB36
 1733 08d5 0A       		.byte	0xa
 1734 08d6 5A02     		.2byte	0x25a
 1735 08d8 24       		.uleb128 0x24
 1736 08d9 B3070000 		.4byte	0x7b3
 1737 08dd D4000000 		.4byte	.LLST6
 1738 08e1 00       		.byte	0
 1739 08e2 00       		.byte	0
 1740 08e3 00       		.byte	0
 1741 08e4 22       		.uleb128 0x22
 1742 08e5 DB070000 		.4byte	0x7db
ARM GAS  /tmp/cc26WhyB.s 			page 56


 1743 08e9 3E000000 		.4byte	.LBB38
 1744 08ed 06000000 		.4byte	.LBE38-.LBB38
 1745 08f1 01       		.byte	0x1
 1746 08f2 70       		.byte	0x70
 1747 08f3 32090000 		.4byte	0x932
 1748 08f7 25       		.uleb128 0x25
 1749 08f8 3E000000 		.4byte	.LBB39
 1750 08fc 06000000 		.4byte	.LBE39-.LBB39
 1751 0900 26       		.uleb128 0x26
 1752 0901 E8070000 		.4byte	0x7e8
 1753 0905 23       		.uleb128 0x23
 1754 0906 C9070000 		.4byte	0x7c9
 1755 090a 3E000000 		.4byte	.LBB40
 1756 090e 06000000 		.4byte	.LBE40-.LBB40
 1757 0912 12       		.byte	0x12
 1758 0913 8F01     		.2byte	0x18f
 1759 0915 23       		.uleb128 0x23
 1760 0916 A6070000 		.4byte	0x7a6
 1761 091a 3E000000 		.4byte	.LBB41
 1762 091e 06000000 		.4byte	.LBE41-.LBB41
 1763 0922 0A       		.byte	0xa
 1764 0923 6D02     		.2byte	0x26d
 1765 0925 24       		.uleb128 0x24
 1766 0926 B3070000 		.4byte	0x7b3
 1767 092a E9000000 		.4byte	.LLST7
 1768 092e 00       		.byte	0
 1769 092f 00       		.byte	0
 1770 0930 00       		.byte	0
 1771 0931 00       		.byte	0
 1772 0932 27       		.uleb128 0x27
 1773 0933 10000000 		.4byte	.LVL2
 1774 0937 120B0000 		.4byte	0xb12
 1775 093b 52090000 		.4byte	0x952
 1776 093f 28       		.uleb128 0x28
 1777 0940 01       		.uleb128 0x1
 1778 0941 52       		.byte	0x52
 1779 0942 01       		.uleb128 0x1
 1780 0943 38       		.byte	0x38
 1781 0944 28       		.uleb128 0x28
 1782 0945 01       		.uleb128 0x1
 1783 0946 51       		.byte	0x51
 1784 0947 02       		.uleb128 0x2
 1785 0948 75       		.byte	0x75
 1786 0949 00       		.sleb128 0
 1787 094a 28       		.uleb128 0x28
 1788 094b 01       		.uleb128 0x1
 1789 094c 50       		.byte	0x50
 1790 094d 03       		.uleb128 0x3
 1791 094e F3       		.byte	0xf3
 1792 094f 01       		.uleb128 0x1
 1793 0950 50       		.byte	0x50
 1794 0951 00       		.byte	0
 1795 0952 27       		.uleb128 0x27
 1796 0953 30000000 		.4byte	.LVL6
 1797 0957 310B0000 		.4byte	0xb31
 1798 095b 66090000 		.4byte	0x966
 1799 095f 28       		.uleb128 0x28
ARM GAS  /tmp/cc26WhyB.s 			page 57


 1800 0960 01       		.uleb128 0x1
 1801 0961 50       		.byte	0x50
 1802 0962 02       		.uleb128 0x2
 1803 0963 7D       		.byte	0x7d
 1804 0964 00       		.sleb128 0
 1805 0965 00       		.byte	0
 1806 0966 29       		.uleb128 0x29
 1807 0967 3E000000 		.4byte	.LVL8
 1808 096b 510B0000 		.4byte	0xb51
 1809 096f 28       		.uleb128 0x28
 1810 0970 01       		.uleb128 0x1
 1811 0971 51       		.byte	0x51
 1812 0972 01       		.uleb128 0x1
 1813 0973 30       		.byte	0x30
 1814 0974 28       		.uleb128 0x28
 1815 0975 01       		.uleb128 0x1
 1816 0976 50       		.byte	0x50
 1817 0977 02       		.uleb128 0x2
 1818 0978 74       		.byte	0x74
 1819 0979 00       		.sleb128 0
 1820 097a 00       		.byte	0
 1821 097b 00       		.byte	0
 1822 097c 1D       		.uleb128 0x1d
 1823 097d 8B020000 		.4byte	.LASF117
 1824 0981 01       		.byte	0x1
 1825 0982 91       		.byte	0x91
 1826 0983 25020000 		.4byte	0x225
 1827 0987 00000000 		.4byte	.LFB240
 1828 098b 4C000000 		.4byte	.LFE240-.LFB240
 1829 098f 01       		.uleb128 0x1
 1830 0990 9C       		.byte	0x9c
 1831 0991 DB0A0000 		.4byte	0xadb
 1832 0995 2A       		.uleb128 0x2a
 1833 0996 6D7000   		.ascii	"mp\000"
 1834 0999 01       		.byte	0x1
 1835 099a 91       		.byte	0x91
 1836 099b DB0A0000 		.4byte	0xadb
 1837 099f FD000000 		.4byte	.LLST8
 1838 09a3 1E       		.uleb128 0x1e
 1839 09a4 24040000 		.4byte	.LASF32
 1840 09a8 01       		.byte	0x1
 1841 09a9 91       		.byte	0x91
 1842 09aa CC050000 		.4byte	0x5cc
 1843 09ae 1B010000 		.4byte	.LLST9
 1844 09b2 1E       		.uleb128 0x1e
 1845 09b3 67020000 		.4byte	.LASF29
 1846 09b7 01       		.byte	0x1
 1847 09b8 92       		.byte	0x92
 1848 09b9 FA000000 		.4byte	0xfa
 1849 09bd 39010000 		.4byte	.LLST10
 1850 09c1 2A       		.uleb128 0x2a
 1851 09c2 706600   		.ascii	"pf\000"
 1852 09c5 01       		.byte	0x1
 1853 09c6 92       		.byte	0x92
 1854 09c7 EF050000 		.4byte	0x5ef
 1855 09cb 57010000 		.4byte	.LLST11
 1856 09cf 1F       		.uleb128 0x1f
ARM GAS  /tmp/cc26WhyB.s 			page 58


 1857 09d0 61726700 		.ascii	"arg\000"
 1858 09d4 01       		.byte	0x1
 1859 09d5 92       		.byte	0x92
 1860 09d6 02030000 		.4byte	0x302
 1861 09da 02       		.uleb128 0x2
 1862 09db 91       		.byte	0x91
 1863 09dc 00       		.sleb128 0
 1864 09dd 20       		.uleb128 0x20
 1865 09de 747000   		.ascii	"tp\000"
 1866 09e1 01       		.byte	0x1
 1867 09e2 93       		.byte	0x93
 1868 09e3 25020000 		.4byte	0x225
 1869 09e7 83010000 		.4byte	.LLST12
 1870 09eb 20       		.uleb128 0x20
 1871 09ec 77737000 		.ascii	"wsp\000"
 1872 09f0 01       		.byte	0x1
 1873 09f1 94       		.byte	0x94
 1874 09f2 02030000 		.4byte	0x302
 1875 09f6 A1010000 		.4byte	.LLST13
 1876 09fa 2B       		.uleb128 0x2b
 1877 09fb 14060000 		.4byte	.LASF129
 1878 09ff F10A0000 		.4byte	0xaf1
 1879 0a03 21       		.uleb128 0x21
 1880 0a04 746400   		.ascii	"td\000"
 1881 0a07 01       		.byte	0x1
 1882 0a08 9D       		.byte	0x9d
 1883 0a09 4B060000 		.4byte	0x64b
 1884 0a0d 02       		.uleb128 0x2
 1885 0a0e 91       		.byte	0x91
 1886 0a0f 50       		.sleb128 -48
 1887 0a10 22       		.uleb128 0x22
 1888 0a11 D2070000 		.4byte	0x7d2
 1889 0a15 24000000 		.4byte	.LBB43
 1890 0a19 06000000 		.4byte	.LBE43-.LBB43
 1891 0a1d 01       		.byte	0x1
 1892 0a1e AC       		.byte	0xac
 1893 0a1f 4F0A0000 		.4byte	0xa4f
 1894 0a23 23       		.uleb128 0x23
 1895 0a24 C0070000 		.4byte	0x7c0
 1896 0a28 24000000 		.4byte	.LBB44
 1897 0a2c 06000000 		.4byte	.LBE44-.LBB44
 1898 0a30 12       		.byte	0x12
 1899 0a31 7801     		.2byte	0x178
 1900 0a33 23       		.uleb128 0x23
 1901 0a34 A6070000 		.4byte	0x7a6
 1902 0a38 24000000 		.4byte	.LBB45
 1903 0a3c 06000000 		.4byte	.LBE45-.LBB45
 1904 0a40 0A       		.byte	0xa
 1905 0a41 5A02     		.2byte	0x25a
 1906 0a43 24       		.uleb128 0x24
 1907 0a44 B3070000 		.4byte	0x7b3
 1908 0a48 C0010000 		.4byte	.LLST14
 1909 0a4c 00       		.byte	0
 1910 0a4d 00       		.byte	0
 1911 0a4e 00       		.byte	0
 1912 0a4f 22       		.uleb128 0x22
 1913 0a50 DB070000 		.4byte	0x7db
ARM GAS  /tmp/cc26WhyB.s 			page 59


 1914 0a54 40000000 		.4byte	.LBB47
 1915 0a58 06000000 		.4byte	.LBE47-.LBB47
 1916 0a5c 01       		.byte	0x1
 1917 0a5d B1       		.byte	0xb1
 1918 0a5e 9D0A0000 		.4byte	0xa9d
 1919 0a62 25       		.uleb128 0x25
 1920 0a63 40000000 		.4byte	.LBB48
 1921 0a67 06000000 		.4byte	.LBE48-.LBB48
 1922 0a6b 26       		.uleb128 0x26
 1923 0a6c E8070000 		.4byte	0x7e8
 1924 0a70 23       		.uleb128 0x23
 1925 0a71 C9070000 		.4byte	0x7c9
 1926 0a75 40000000 		.4byte	.LBB49
 1927 0a79 06000000 		.4byte	.LBE49-.LBB49
 1928 0a7d 12       		.byte	0x12
 1929 0a7e 8F01     		.2byte	0x18f
 1930 0a80 23       		.uleb128 0x23
 1931 0a81 A6070000 		.4byte	0x7a6
 1932 0a85 40000000 		.4byte	.LBB50
 1933 0a89 06000000 		.4byte	.LBE50-.LBB50
 1934 0a8d 0A       		.byte	0xa
 1935 0a8e 6D02     		.2byte	0x26d
 1936 0a90 24       		.uleb128 0x24
 1937 0a91 B3070000 		.4byte	0x7b3
 1938 0a95 D5010000 		.4byte	.LLST15
 1939 0a99 00       		.byte	0
 1940 0a9a 00       		.byte	0
 1941 0a9b 00       		.byte	0
 1942 0a9c 00       		.byte	0
 1943 0a9d 27       		.uleb128 0x27
 1944 0a9e 10000000 		.4byte	.LVL11
 1945 0aa2 680B0000 		.4byte	0xb68
 1946 0aa6 B10A0000 		.4byte	0xab1
 1947 0aaa 28       		.uleb128 0x28
 1948 0aab 01       		.uleb128 0x1
 1949 0aac 50       		.byte	0x50
 1950 0aad 02       		.uleb128 0x2
 1951 0aae 75       		.byte	0x75
 1952 0aaf 00       		.sleb128 0
 1953 0ab0 00       		.byte	0
 1954 0ab1 27       		.uleb128 0x27
 1955 0ab2 30000000 		.4byte	.LVL14
 1956 0ab6 310B0000 		.4byte	0xb31
 1957 0aba C50A0000 		.4byte	0xac5
 1958 0abe 28       		.uleb128 0x28
 1959 0abf 01       		.uleb128 0x1
 1960 0ac0 50       		.byte	0x50
 1961 0ac1 02       		.uleb128 0x2
 1962 0ac2 7D       		.byte	0x7d
 1963 0ac3 00       		.sleb128 0
 1964 0ac4 00       		.byte	0
 1965 0ac5 29       		.uleb128 0x29
 1966 0ac6 40000000 		.4byte	.LVL16
 1967 0aca 510B0000 		.4byte	0xb51
 1968 0ace 28       		.uleb128 0x28
 1969 0acf 01       		.uleb128 0x1
 1970 0ad0 51       		.byte	0x51
ARM GAS  /tmp/cc26WhyB.s 			page 60


 1971 0ad1 01       		.uleb128 0x1
 1972 0ad2 30       		.byte	0x30
 1973 0ad3 28       		.uleb128 0x28
 1974 0ad4 01       		.uleb128 0x1
 1975 0ad5 50       		.byte	0x50
 1976 0ad6 02       		.uleb128 0x2
 1977 0ad7 74       		.byte	0x74
 1978 0ad8 00       		.sleb128 0
 1979 0ad9 00       		.byte	0
 1980 0ada 00       		.byte	0
 1981 0adb 0A       		.uleb128 0xa
 1982 0adc 04       		.byte	0x4
 1983 0add 9B070000 		.4byte	0x79b
 1984 0ae1 1B       		.uleb128 0x1b
 1985 0ae2 D7050000 		.4byte	0x5d7
 1986 0ae6 F10A0000 		.4byte	0xaf1
 1987 0aea 1C       		.uleb128 0x1c
 1988 0aeb 2A040000 		.4byte	0x42a
 1989 0aef 19       		.byte	0x19
 1990 0af0 00       		.byte	0
 1991 0af1 13       		.uleb128 0x13
 1992 0af2 E10A0000 		.4byte	0xae1
 1993 0af6 2C       		.uleb128 0x2c
 1994 0af7 BB030000 		.4byte	.LASF118
 1995 0afb 13       		.byte	0x13
 1996 0afc 4407     		.2byte	0x744
 1997 0afe 020B0000 		.4byte	0xb02
 1998 0b02 14       		.uleb128 0x14
 1999 0b03 AD000000 		.4byte	0xad
 2000 0b07 2D       		.uleb128 0x2d
 2001 0b08 636800   		.ascii	"ch\000"
 2002 0b0b 08       		.byte	0x8
 2003 0b0c D201     		.2byte	0x1d2
 2004 0b0e D1030000 		.4byte	0x3d1
 2005 0b12 2E       		.uleb128 0x2e
 2006 0b13 5C030000 		.4byte	.LASF119
 2007 0b17 10       		.byte	0x10
 2008 0b18 80       		.byte	0x80
 2009 0b19 02030000 		.4byte	0x302
 2010 0b1d 310B0000 		.4byte	0xb31
 2011 0b21 0D       		.uleb128 0xd
 2012 0b22 49070000 		.4byte	0x749
 2013 0b26 0D       		.uleb128 0xd
 2014 0b27 2C000000 		.4byte	0x2c
 2015 0b2b 0D       		.uleb128 0xd
 2016 0b2c 37000000 		.4byte	0x37
 2017 0b30 00       		.byte	0
 2018 0b31 2E       		.uleb128 0x2e
 2019 0b32 21030000 		.4byte	.LASF120
 2020 0b36 0E       		.byte	0xe
 2021 0b37 E6       		.byte	0xe6
 2022 0b38 25020000 		.4byte	0x225
 2023 0b3c 460B0000 		.4byte	0xb46
 2024 0b40 0D       		.uleb128 0xd
 2025 0b41 460B0000 		.4byte	0xb46
 2026 0b45 00       		.byte	0
 2027 0b46 0A       		.uleb128 0xa
ARM GAS  /tmp/cc26WhyB.s 			page 61


 2028 0b47 04       		.byte	0x4
 2029 0b48 4C0B0000 		.4byte	0xb4c
 2030 0b4c 13       		.uleb128 0x13
 2031 0b4d 4B060000 		.4byte	0x64b
 2032 0b51 2F       		.uleb128 0x2f
 2033 0b52 AD050000 		.4byte	.LASF121
 2034 0b56 08       		.byte	0x8
 2035 0b57 E001     		.2byte	0x1e0
 2036 0b59 680B0000 		.4byte	0xb68
 2037 0b5d 0D       		.uleb128 0xd
 2038 0b5e 25020000 		.4byte	0x225
 2039 0b62 0D       		.uleb128 0xd
 2040 0b63 05010000 		.4byte	0x105
 2041 0b67 00       		.byte	0
 2042 0b68 30       		.uleb128 0x30
 2043 0b69 01040000 		.4byte	.LASF122
 2044 0b6d 11       		.byte	0x11
 2045 0b6e 94       		.byte	0x94
 2046 0b6f 02030000 		.4byte	0x302
 2047 0b73 0D       		.uleb128 0xd
 2048 0b74 DB0A0000 		.4byte	0xadb
 2049 0b78 00       		.byte	0
 2050 0b79 00       		.byte	0
 2051              		.section	.debug_abbrev,"",%progbits
 2052              	.Ldebug_abbrev0:
 2053 0000 01       		.uleb128 0x1
 2054 0001 11       		.uleb128 0x11
 2055 0002 01       		.byte	0x1
 2056 0003 25       		.uleb128 0x25
 2057 0004 0E       		.uleb128 0xe
 2058 0005 13       		.uleb128 0x13
 2059 0006 0B       		.uleb128 0xb
 2060 0007 03       		.uleb128 0x3
 2061 0008 0E       		.uleb128 0xe
 2062 0009 1B       		.uleb128 0x1b
 2063 000a 0E       		.uleb128 0xe
 2064 000b 55       		.uleb128 0x55
 2065 000c 17       		.uleb128 0x17
 2066 000d 11       		.uleb128 0x11
 2067 000e 01       		.uleb128 0x1
 2068 000f 10       		.uleb128 0x10
 2069 0010 17       		.uleb128 0x17
 2070 0011 00       		.byte	0
 2071 0012 00       		.byte	0
 2072 0013 02       		.uleb128 0x2
 2073 0014 24       		.uleb128 0x24
 2074 0015 00       		.byte	0
 2075 0016 0B       		.uleb128 0xb
 2076 0017 0B       		.uleb128 0xb
 2077 0018 3E       		.uleb128 0x3e
 2078 0019 0B       		.uleb128 0xb
 2079 001a 03       		.uleb128 0x3
 2080 001b 08       		.uleb128 0x8
 2081 001c 00       		.byte	0
 2082 001d 00       		.byte	0
 2083 001e 03       		.uleb128 0x3
 2084 001f 16       		.uleb128 0x16
ARM GAS  /tmp/cc26WhyB.s 			page 62


 2085 0020 00       		.byte	0
 2086 0021 03       		.uleb128 0x3
 2087 0022 0E       		.uleb128 0xe
 2088 0023 3A       		.uleb128 0x3a
 2089 0024 0B       		.uleb128 0xb
 2090 0025 3B       		.uleb128 0x3b
 2091 0026 0B       		.uleb128 0xb
 2092 0027 49       		.uleb128 0x49
 2093 0028 13       		.uleb128 0x13
 2094 0029 00       		.byte	0
 2095 002a 00       		.byte	0
 2096 002b 04       		.uleb128 0x4
 2097 002c 24       		.uleb128 0x24
 2098 002d 00       		.byte	0
 2099 002e 0B       		.uleb128 0xb
 2100 002f 0B       		.uleb128 0xb
 2101 0030 3E       		.uleb128 0x3e
 2102 0031 0B       		.uleb128 0xb
 2103 0032 03       		.uleb128 0x3
 2104 0033 0E       		.uleb128 0xe
 2105 0034 00       		.byte	0
 2106 0035 00       		.byte	0
 2107 0036 05       		.uleb128 0x5
 2108 0037 13       		.uleb128 0x13
 2109 0038 01       		.byte	0x1
 2110 0039 03       		.uleb128 0x3
 2111 003a 0E       		.uleb128 0xe
 2112 003b 0B       		.uleb128 0xb
 2113 003c 0B       		.uleb128 0xb
 2114 003d 3A       		.uleb128 0x3a
 2115 003e 0B       		.uleb128 0xb
 2116 003f 3B       		.uleb128 0x3b
 2117 0040 0B       		.uleb128 0xb
 2118 0041 01       		.uleb128 0x1
 2119 0042 13       		.uleb128 0x13
 2120 0043 00       		.byte	0
 2121 0044 00       		.byte	0
 2122 0045 06       		.uleb128 0x6
 2123 0046 0D       		.uleb128 0xd
 2124 0047 00       		.byte	0
 2125 0048 03       		.uleb128 0x3
 2126 0049 0E       		.uleb128 0xe
 2127 004a 3A       		.uleb128 0x3a
 2128 004b 0B       		.uleb128 0xb
 2129 004c 3B       		.uleb128 0x3b
 2130 004d 0B       		.uleb128 0xb
 2131 004e 49       		.uleb128 0x49
 2132 004f 13       		.uleb128 0x13
 2133 0050 38       		.uleb128 0x38
 2134 0051 0B       		.uleb128 0xb
 2135 0052 00       		.byte	0
 2136 0053 00       		.byte	0
 2137 0054 07       		.uleb128 0x7
 2138 0055 0D       		.uleb128 0xd
 2139 0056 00       		.byte	0
 2140 0057 03       		.uleb128 0x3
 2141 0058 08       		.uleb128 0x8
ARM GAS  /tmp/cc26WhyB.s 			page 63


 2142 0059 3A       		.uleb128 0x3a
 2143 005a 0B       		.uleb128 0xb
 2144 005b 3B       		.uleb128 0x3b
 2145 005c 0B       		.uleb128 0xb
 2146 005d 49       		.uleb128 0x49
 2147 005e 13       		.uleb128 0x13
 2148 005f 38       		.uleb128 0x38
 2149 0060 0B       		.uleb128 0xb
 2150 0061 00       		.byte	0
 2151 0062 00       		.byte	0
 2152 0063 08       		.uleb128 0x8
 2153 0064 0D       		.uleb128 0xd
 2154 0065 00       		.byte	0
 2155 0066 03       		.uleb128 0x3
 2156 0067 08       		.uleb128 0x8
 2157 0068 3A       		.uleb128 0x3a
 2158 0069 0B       		.uleb128 0xb
 2159 006a 3B       		.uleb128 0x3b
 2160 006b 05       		.uleb128 0x5
 2161 006c 49       		.uleb128 0x49
 2162 006d 13       		.uleb128 0x13
 2163 006e 38       		.uleb128 0x38
 2164 006f 0B       		.uleb128 0xb
 2165 0070 00       		.byte	0
 2166 0071 00       		.byte	0
 2167 0072 09       		.uleb128 0x9
 2168 0073 0D       		.uleb128 0xd
 2169 0074 00       		.byte	0
 2170 0075 03       		.uleb128 0x3
 2171 0076 0E       		.uleb128 0xe
 2172 0077 3A       		.uleb128 0x3a
 2173 0078 0B       		.uleb128 0xb
 2174 0079 3B       		.uleb128 0x3b
 2175 007a 05       		.uleb128 0x5
 2176 007b 49       		.uleb128 0x49
 2177 007c 13       		.uleb128 0x13
 2178 007d 38       		.uleb128 0x38
 2179 007e 0B       		.uleb128 0xb
 2180 007f 00       		.byte	0
 2181 0080 00       		.byte	0
 2182 0081 0A       		.uleb128 0xa
 2183 0082 0F       		.uleb128 0xf
 2184 0083 00       		.byte	0
 2185 0084 0B       		.uleb128 0xb
 2186 0085 0B       		.uleb128 0xb
 2187 0086 49       		.uleb128 0x49
 2188 0087 13       		.uleb128 0x13
 2189 0088 00       		.byte	0
 2190 0089 00       		.byte	0
 2191 008a 0B       		.uleb128 0xb
 2192 008b 13       		.uleb128 0x13
 2193 008c 01       		.byte	0x1
 2194 008d 03       		.uleb128 0x3
 2195 008e 0E       		.uleb128 0xe
 2196 008f 0B       		.uleb128 0xb
 2197 0090 0B       		.uleb128 0xb
 2198 0091 3A       		.uleb128 0x3a
ARM GAS  /tmp/cc26WhyB.s 			page 64


 2199 0092 0B       		.uleb128 0xb
 2200 0093 3B       		.uleb128 0x3b
 2201 0094 05       		.uleb128 0x5
 2202 0095 01       		.uleb128 0x1
 2203 0096 13       		.uleb128 0x13
 2204 0097 00       		.byte	0
 2205 0098 00       		.byte	0
 2206 0099 0C       		.uleb128 0xc
 2207 009a 15       		.uleb128 0x15
 2208 009b 01       		.byte	0x1
 2209 009c 27       		.uleb128 0x27
 2210 009d 19       		.uleb128 0x19
 2211 009e 01       		.uleb128 0x1
 2212 009f 13       		.uleb128 0x13
 2213 00a0 00       		.byte	0
 2214 00a1 00       		.byte	0
 2215 00a2 0D       		.uleb128 0xd
 2216 00a3 05       		.uleb128 0x5
 2217 00a4 00       		.byte	0
 2218 00a5 49       		.uleb128 0x49
 2219 00a6 13       		.uleb128 0x13
 2220 00a7 00       		.byte	0
 2221 00a8 00       		.byte	0
 2222 00a9 0E       		.uleb128 0xe
 2223 00aa 0F       		.uleb128 0xf
 2224 00ab 00       		.byte	0
 2225 00ac 0B       		.uleb128 0xb
 2226 00ad 0B       		.uleb128 0xb
 2227 00ae 00       		.byte	0
 2228 00af 00       		.byte	0
 2229 00b0 0F       		.uleb128 0xf
 2230 00b1 13       		.uleb128 0x13
 2231 00b2 01       		.byte	0x1
 2232 00b3 0B       		.uleb128 0xb
 2233 00b4 0B       		.uleb128 0xb
 2234 00b5 3A       		.uleb128 0x3a
 2235 00b6 0B       		.uleb128 0xb
 2236 00b7 3B       		.uleb128 0x3b
 2237 00b8 0B       		.uleb128 0xb
 2238 00b9 01       		.uleb128 0x1
 2239 00ba 13       		.uleb128 0x13
 2240 00bb 00       		.byte	0
 2241 00bc 00       		.byte	0
 2242 00bd 10       		.uleb128 0x10
 2243 00be 17       		.uleb128 0x17
 2244 00bf 01       		.byte	0x1
 2245 00c0 0B       		.uleb128 0xb
 2246 00c1 0B       		.uleb128 0xb
 2247 00c2 3A       		.uleb128 0x3a
 2248 00c3 0B       		.uleb128 0xb
 2249 00c4 3B       		.uleb128 0x3b
 2250 00c5 0B       		.uleb128 0xb
 2251 00c6 01       		.uleb128 0x1
 2252 00c7 13       		.uleb128 0x13
 2253 00c8 00       		.byte	0
 2254 00c9 00       		.byte	0
 2255 00ca 11       		.uleb128 0x11
ARM GAS  /tmp/cc26WhyB.s 			page 65


 2256 00cb 0D       		.uleb128 0xd
 2257 00cc 00       		.byte	0
 2258 00cd 03       		.uleb128 0x3
 2259 00ce 0E       		.uleb128 0xe
 2260 00cf 3A       		.uleb128 0x3a
 2261 00d0 0B       		.uleb128 0xb
 2262 00d1 3B       		.uleb128 0x3b
 2263 00d2 0B       		.uleb128 0xb
 2264 00d3 49       		.uleb128 0x49
 2265 00d4 13       		.uleb128 0x13
 2266 00d5 00       		.byte	0
 2267 00d6 00       		.byte	0
 2268 00d7 12       		.uleb128 0x12
 2269 00d8 0D       		.uleb128 0xd
 2270 00d9 00       		.byte	0
 2271 00da 03       		.uleb128 0x3
 2272 00db 0E       		.uleb128 0xe
 2273 00dc 3A       		.uleb128 0x3a
 2274 00dd 0B       		.uleb128 0xb
 2275 00de 3B       		.uleb128 0x3b
 2276 00df 05       		.uleb128 0x5
 2277 00e0 49       		.uleb128 0x49
 2278 00e1 13       		.uleb128 0x13
 2279 00e2 00       		.byte	0
 2280 00e3 00       		.byte	0
 2281 00e4 13       		.uleb128 0x13
 2282 00e5 26       		.uleb128 0x26
 2283 00e6 00       		.byte	0
 2284 00e7 49       		.uleb128 0x49
 2285 00e8 13       		.uleb128 0x13
 2286 00e9 00       		.byte	0
 2287 00ea 00       		.byte	0
 2288 00eb 14       		.uleb128 0x14
 2289 00ec 35       		.uleb128 0x35
 2290 00ed 00       		.byte	0
 2291 00ee 49       		.uleb128 0x49
 2292 00ef 13       		.uleb128 0x13
 2293 00f0 00       		.byte	0
 2294 00f1 00       		.byte	0
 2295 00f2 15       		.uleb128 0x15
 2296 00f3 15       		.uleb128 0x15
 2297 00f4 01       		.byte	0x1
 2298 00f5 27       		.uleb128 0x27
 2299 00f6 19       		.uleb128 0x19
 2300 00f7 49       		.uleb128 0x49
 2301 00f8 13       		.uleb128 0x13
 2302 00f9 01       		.uleb128 0x1
 2303 00fa 13       		.uleb128 0x13
 2304 00fb 00       		.byte	0
 2305 00fc 00       		.byte	0
 2306 00fd 16       		.uleb128 0x16
 2307 00fe 17       		.uleb128 0x17
 2308 00ff 01       		.byte	0x1
 2309 0100 03       		.uleb128 0x3
 2310 0101 0E       		.uleb128 0xe
 2311 0102 0B       		.uleb128 0xb
 2312 0103 0B       		.uleb128 0xb
ARM GAS  /tmp/cc26WhyB.s 			page 66


 2313 0104 3A       		.uleb128 0x3a
 2314 0105 0B       		.uleb128 0xb
 2315 0106 3B       		.uleb128 0x3b
 2316 0107 0B       		.uleb128 0xb
 2317 0108 01       		.uleb128 0x1
 2318 0109 13       		.uleb128 0x13
 2319 010a 00       		.byte	0
 2320 010b 00       		.byte	0
 2321 010c 17       		.uleb128 0x17
 2322 010d 2E       		.uleb128 0x2e
 2323 010e 01       		.byte	0x1
 2324 010f 03       		.uleb128 0x3
 2325 0110 0E       		.uleb128 0xe
 2326 0111 3A       		.uleb128 0x3a
 2327 0112 0B       		.uleb128 0xb
 2328 0113 3B       		.uleb128 0x3b
 2329 0114 05       		.uleb128 0x5
 2330 0115 27       		.uleb128 0x27
 2331 0116 19       		.uleb128 0x19
 2332 0117 20       		.uleb128 0x20
 2333 0118 0B       		.uleb128 0xb
 2334 0119 01       		.uleb128 0x1
 2335 011a 13       		.uleb128 0x13
 2336 011b 00       		.byte	0
 2337 011c 00       		.byte	0
 2338 011d 18       		.uleb128 0x18
 2339 011e 05       		.uleb128 0x5
 2340 011f 00       		.byte	0
 2341 0120 03       		.uleb128 0x3
 2342 0121 0E       		.uleb128 0xe
 2343 0122 3A       		.uleb128 0x3a
 2344 0123 0B       		.uleb128 0xb
 2345 0124 3B       		.uleb128 0x3b
 2346 0125 05       		.uleb128 0x5
 2347 0126 49       		.uleb128 0x49
 2348 0127 13       		.uleb128 0x13
 2349 0128 00       		.byte	0
 2350 0129 00       		.byte	0
 2351 012a 19       		.uleb128 0x19
 2352 012b 2E       		.uleb128 0x2e
 2353 012c 00       		.byte	0
 2354 012d 03       		.uleb128 0x3
 2355 012e 0E       		.uleb128 0xe
 2356 012f 3A       		.uleb128 0x3a
 2357 0130 0B       		.uleb128 0xb
 2358 0131 3B       		.uleb128 0x3b
 2359 0132 05       		.uleb128 0x5
 2360 0133 27       		.uleb128 0x27
 2361 0134 19       		.uleb128 0x19
 2362 0135 20       		.uleb128 0x20
 2363 0136 0B       		.uleb128 0xb
 2364 0137 00       		.byte	0
 2365 0138 00       		.byte	0
 2366 0139 1A       		.uleb128 0x1a
 2367 013a 34       		.uleb128 0x34
 2368 013b 00       		.byte	0
 2369 013c 03       		.uleb128 0x3
ARM GAS  /tmp/cc26WhyB.s 			page 67


 2370 013d 0E       		.uleb128 0xe
 2371 013e 49       		.uleb128 0x49
 2372 013f 13       		.uleb128 0x13
 2373 0140 34       		.uleb128 0x34
 2374 0141 19       		.uleb128 0x19
 2375 0142 1C       		.uleb128 0x1c
 2376 0143 0E       		.uleb128 0xe
 2377 0144 00       		.byte	0
 2378 0145 00       		.byte	0
 2379 0146 1B       		.uleb128 0x1b
 2380 0147 01       		.uleb128 0x1
 2381 0148 01       		.byte	0x1
 2382 0149 49       		.uleb128 0x49
 2383 014a 13       		.uleb128 0x13
 2384 014b 01       		.uleb128 0x1
 2385 014c 13       		.uleb128 0x13
 2386 014d 00       		.byte	0
 2387 014e 00       		.byte	0
 2388 014f 1C       		.uleb128 0x1c
 2389 0150 21       		.uleb128 0x21
 2390 0151 00       		.byte	0
 2391 0152 49       		.uleb128 0x49
 2392 0153 13       		.uleb128 0x13
 2393 0154 2F       		.uleb128 0x2f
 2394 0155 0B       		.uleb128 0xb
 2395 0156 00       		.byte	0
 2396 0157 00       		.byte	0
 2397 0158 1D       		.uleb128 0x1d
 2398 0159 2E       		.uleb128 0x2e
 2399 015a 01       		.byte	0x1
 2400 015b 3F       		.uleb128 0x3f
 2401 015c 19       		.uleb128 0x19
 2402 015d 03       		.uleb128 0x3
 2403 015e 0E       		.uleb128 0xe
 2404 015f 3A       		.uleb128 0x3a
 2405 0160 0B       		.uleb128 0xb
 2406 0161 3B       		.uleb128 0x3b
 2407 0162 0B       		.uleb128 0xb
 2408 0163 27       		.uleb128 0x27
 2409 0164 19       		.uleb128 0x19
 2410 0165 49       		.uleb128 0x49
 2411 0166 13       		.uleb128 0x13
 2412 0167 11       		.uleb128 0x11
 2413 0168 01       		.uleb128 0x1
 2414 0169 12       		.uleb128 0x12
 2415 016a 06       		.uleb128 0x6
 2416 016b 40       		.uleb128 0x40
 2417 016c 18       		.uleb128 0x18
 2418 016d 9742     		.uleb128 0x2117
 2419 016f 19       		.uleb128 0x19
 2420 0170 01       		.uleb128 0x1
 2421 0171 13       		.uleb128 0x13
 2422 0172 00       		.byte	0
 2423 0173 00       		.byte	0
 2424 0174 1E       		.uleb128 0x1e
 2425 0175 05       		.uleb128 0x5
 2426 0176 00       		.byte	0
ARM GAS  /tmp/cc26WhyB.s 			page 68


 2427 0177 03       		.uleb128 0x3
 2428 0178 0E       		.uleb128 0xe
 2429 0179 3A       		.uleb128 0x3a
 2430 017a 0B       		.uleb128 0xb
 2431 017b 3B       		.uleb128 0x3b
 2432 017c 0B       		.uleb128 0xb
 2433 017d 49       		.uleb128 0x49
 2434 017e 13       		.uleb128 0x13
 2435 017f 02       		.uleb128 0x2
 2436 0180 17       		.uleb128 0x17
 2437 0181 00       		.byte	0
 2438 0182 00       		.byte	0
 2439 0183 1F       		.uleb128 0x1f
 2440 0184 05       		.uleb128 0x5
 2441 0185 00       		.byte	0
 2442 0186 03       		.uleb128 0x3
 2443 0187 08       		.uleb128 0x8
 2444 0188 3A       		.uleb128 0x3a
 2445 0189 0B       		.uleb128 0xb
 2446 018a 3B       		.uleb128 0x3b
 2447 018b 0B       		.uleb128 0xb
 2448 018c 49       		.uleb128 0x49
 2449 018d 13       		.uleb128 0x13
 2450 018e 02       		.uleb128 0x2
 2451 018f 18       		.uleb128 0x18
 2452 0190 00       		.byte	0
 2453 0191 00       		.byte	0
 2454 0192 20       		.uleb128 0x20
 2455 0193 34       		.uleb128 0x34
 2456 0194 00       		.byte	0
 2457 0195 03       		.uleb128 0x3
 2458 0196 08       		.uleb128 0x8
 2459 0197 3A       		.uleb128 0x3a
 2460 0198 0B       		.uleb128 0xb
 2461 0199 3B       		.uleb128 0x3b
 2462 019a 0B       		.uleb128 0xb
 2463 019b 49       		.uleb128 0x49
 2464 019c 13       		.uleb128 0x13
 2465 019d 02       		.uleb128 0x2
 2466 019e 17       		.uleb128 0x17
 2467 019f 00       		.byte	0
 2468 01a0 00       		.byte	0
 2469 01a1 21       		.uleb128 0x21
 2470 01a2 34       		.uleb128 0x34
 2471 01a3 00       		.byte	0
 2472 01a4 03       		.uleb128 0x3
 2473 01a5 08       		.uleb128 0x8
 2474 01a6 3A       		.uleb128 0x3a
 2475 01a7 0B       		.uleb128 0xb
 2476 01a8 3B       		.uleb128 0x3b
 2477 01a9 0B       		.uleb128 0xb
 2478 01aa 49       		.uleb128 0x49
 2479 01ab 13       		.uleb128 0x13
 2480 01ac 02       		.uleb128 0x2
 2481 01ad 18       		.uleb128 0x18
 2482 01ae 00       		.byte	0
 2483 01af 00       		.byte	0
ARM GAS  /tmp/cc26WhyB.s 			page 69


 2484 01b0 22       		.uleb128 0x22
 2485 01b1 1D       		.uleb128 0x1d
 2486 01b2 01       		.byte	0x1
 2487 01b3 31       		.uleb128 0x31
 2488 01b4 13       		.uleb128 0x13
 2489 01b5 11       		.uleb128 0x11
 2490 01b6 01       		.uleb128 0x1
 2491 01b7 12       		.uleb128 0x12
 2492 01b8 06       		.uleb128 0x6
 2493 01b9 58       		.uleb128 0x58
 2494 01ba 0B       		.uleb128 0xb
 2495 01bb 59       		.uleb128 0x59
 2496 01bc 0B       		.uleb128 0xb
 2497 01bd 01       		.uleb128 0x1
 2498 01be 13       		.uleb128 0x13
 2499 01bf 00       		.byte	0
 2500 01c0 00       		.byte	0
 2501 01c1 23       		.uleb128 0x23
 2502 01c2 1D       		.uleb128 0x1d
 2503 01c3 01       		.byte	0x1
 2504 01c4 31       		.uleb128 0x31
 2505 01c5 13       		.uleb128 0x13
 2506 01c6 11       		.uleb128 0x11
 2507 01c7 01       		.uleb128 0x1
 2508 01c8 12       		.uleb128 0x12
 2509 01c9 06       		.uleb128 0x6
 2510 01ca 58       		.uleb128 0x58
 2511 01cb 0B       		.uleb128 0xb
 2512 01cc 59       		.uleb128 0x59
 2513 01cd 05       		.uleb128 0x5
 2514 01ce 00       		.byte	0
 2515 01cf 00       		.byte	0
 2516 01d0 24       		.uleb128 0x24
 2517 01d1 05       		.uleb128 0x5
 2518 01d2 00       		.byte	0
 2519 01d3 31       		.uleb128 0x31
 2520 01d4 13       		.uleb128 0x13
 2521 01d5 02       		.uleb128 0x2
 2522 01d6 17       		.uleb128 0x17
 2523 01d7 00       		.byte	0
 2524 01d8 00       		.byte	0
 2525 01d9 25       		.uleb128 0x25
 2526 01da 0B       		.uleb128 0xb
 2527 01db 01       		.byte	0x1
 2528 01dc 11       		.uleb128 0x11
 2529 01dd 01       		.uleb128 0x1
 2530 01de 12       		.uleb128 0x12
 2531 01df 06       		.uleb128 0x6
 2532 01e0 00       		.byte	0
 2533 01e1 00       		.byte	0
 2534 01e2 26       		.uleb128 0x26
 2535 01e3 34       		.uleb128 0x34
 2536 01e4 00       		.byte	0
 2537 01e5 31       		.uleb128 0x31
 2538 01e6 13       		.uleb128 0x13
 2539 01e7 00       		.byte	0
 2540 01e8 00       		.byte	0
ARM GAS  /tmp/cc26WhyB.s 			page 70


 2541 01e9 27       		.uleb128 0x27
 2542 01ea 898201   		.uleb128 0x4109
 2543 01ed 01       		.byte	0x1
 2544 01ee 11       		.uleb128 0x11
 2545 01ef 01       		.uleb128 0x1
 2546 01f0 31       		.uleb128 0x31
 2547 01f1 13       		.uleb128 0x13
 2548 01f2 01       		.uleb128 0x1
 2549 01f3 13       		.uleb128 0x13
 2550 01f4 00       		.byte	0
 2551 01f5 00       		.byte	0
 2552 01f6 28       		.uleb128 0x28
 2553 01f7 8A8201   		.uleb128 0x410a
 2554 01fa 00       		.byte	0
 2555 01fb 02       		.uleb128 0x2
 2556 01fc 18       		.uleb128 0x18
 2557 01fd 9142     		.uleb128 0x2111
 2558 01ff 18       		.uleb128 0x18
 2559 0200 00       		.byte	0
 2560 0201 00       		.byte	0
 2561 0202 29       		.uleb128 0x29
 2562 0203 898201   		.uleb128 0x4109
 2563 0206 01       		.byte	0x1
 2564 0207 11       		.uleb128 0x11
 2565 0208 01       		.uleb128 0x1
 2566 0209 31       		.uleb128 0x31
 2567 020a 13       		.uleb128 0x13
 2568 020b 00       		.byte	0
 2569 020c 00       		.byte	0
 2570 020d 2A       		.uleb128 0x2a
 2571 020e 05       		.uleb128 0x5
 2572 020f 00       		.byte	0
 2573 0210 03       		.uleb128 0x3
 2574 0211 08       		.uleb128 0x8
 2575 0212 3A       		.uleb128 0x3a
 2576 0213 0B       		.uleb128 0xb
 2577 0214 3B       		.uleb128 0x3b
 2578 0215 0B       		.uleb128 0xb
 2579 0216 49       		.uleb128 0x49
 2580 0217 13       		.uleb128 0x13
 2581 0218 02       		.uleb128 0x2
 2582 0219 17       		.uleb128 0x17
 2583 021a 00       		.byte	0
 2584 021b 00       		.byte	0
 2585 021c 2B       		.uleb128 0x2b
 2586 021d 34       		.uleb128 0x34
 2587 021e 00       		.byte	0
 2588 021f 03       		.uleb128 0x3
 2589 0220 0E       		.uleb128 0xe
 2590 0221 49       		.uleb128 0x49
 2591 0222 13       		.uleb128 0x13
 2592 0223 34       		.uleb128 0x34
 2593 0224 19       		.uleb128 0x19
 2594 0225 00       		.byte	0
 2595 0226 00       		.byte	0
 2596 0227 2C       		.uleb128 0x2c
 2597 0228 34       		.uleb128 0x34
ARM GAS  /tmp/cc26WhyB.s 			page 71


 2598 0229 00       		.byte	0
 2599 022a 03       		.uleb128 0x3
 2600 022b 0E       		.uleb128 0xe
 2601 022c 3A       		.uleb128 0x3a
 2602 022d 0B       		.uleb128 0xb
 2603 022e 3B       		.uleb128 0x3b
 2604 022f 05       		.uleb128 0x5
 2605 0230 49       		.uleb128 0x49
 2606 0231 13       		.uleb128 0x13
 2607 0232 3F       		.uleb128 0x3f
 2608 0233 19       		.uleb128 0x19
 2609 0234 3C       		.uleb128 0x3c
 2610 0235 19       		.uleb128 0x19
 2611 0236 00       		.byte	0
 2612 0237 00       		.byte	0
 2613 0238 2D       		.uleb128 0x2d
 2614 0239 34       		.uleb128 0x34
 2615 023a 00       		.byte	0
 2616 023b 03       		.uleb128 0x3
 2617 023c 08       		.uleb128 0x8
 2618 023d 3A       		.uleb128 0x3a
 2619 023e 0B       		.uleb128 0xb
 2620 023f 3B       		.uleb128 0x3b
 2621 0240 05       		.uleb128 0x5
 2622 0241 49       		.uleb128 0x49
 2623 0242 13       		.uleb128 0x13
 2624 0243 3F       		.uleb128 0x3f
 2625 0244 19       		.uleb128 0x19
 2626 0245 3C       		.uleb128 0x3c
 2627 0246 19       		.uleb128 0x19
 2628 0247 00       		.byte	0
 2629 0248 00       		.byte	0
 2630 0249 2E       		.uleb128 0x2e
 2631 024a 2E       		.uleb128 0x2e
 2632 024b 01       		.byte	0x1
 2633 024c 3F       		.uleb128 0x3f
 2634 024d 19       		.uleb128 0x19
 2635 024e 03       		.uleb128 0x3
 2636 024f 0E       		.uleb128 0xe
 2637 0250 3A       		.uleb128 0x3a
 2638 0251 0B       		.uleb128 0xb
 2639 0252 3B       		.uleb128 0x3b
 2640 0253 0B       		.uleb128 0xb
 2641 0254 27       		.uleb128 0x27
 2642 0255 19       		.uleb128 0x19
 2643 0256 49       		.uleb128 0x49
 2644 0257 13       		.uleb128 0x13
 2645 0258 3C       		.uleb128 0x3c
 2646 0259 19       		.uleb128 0x19
 2647 025a 01       		.uleb128 0x1
 2648 025b 13       		.uleb128 0x13
 2649 025c 00       		.byte	0
 2650 025d 00       		.byte	0
 2651 025e 2F       		.uleb128 0x2f
 2652 025f 2E       		.uleb128 0x2e
 2653 0260 01       		.byte	0x1
 2654 0261 3F       		.uleb128 0x3f
ARM GAS  /tmp/cc26WhyB.s 			page 72


 2655 0262 19       		.uleb128 0x19
 2656 0263 03       		.uleb128 0x3
 2657 0264 0E       		.uleb128 0xe
 2658 0265 3A       		.uleb128 0x3a
 2659 0266 0B       		.uleb128 0xb
 2660 0267 3B       		.uleb128 0x3b
 2661 0268 05       		.uleb128 0x5
 2662 0269 27       		.uleb128 0x27
 2663 026a 19       		.uleb128 0x19
 2664 026b 3C       		.uleb128 0x3c
 2665 026c 19       		.uleb128 0x19
 2666 026d 01       		.uleb128 0x1
 2667 026e 13       		.uleb128 0x13
 2668 026f 00       		.byte	0
 2669 0270 00       		.byte	0
 2670 0271 30       		.uleb128 0x30
 2671 0272 2E       		.uleb128 0x2e
 2672 0273 01       		.byte	0x1
 2673 0274 3F       		.uleb128 0x3f
 2674 0275 19       		.uleb128 0x19
 2675 0276 03       		.uleb128 0x3
 2676 0277 0E       		.uleb128 0xe
 2677 0278 3A       		.uleb128 0x3a
 2678 0279 0B       		.uleb128 0xb
 2679 027a 3B       		.uleb128 0x3b
 2680 027b 0B       		.uleb128 0xb
 2681 027c 27       		.uleb128 0x27
 2682 027d 19       		.uleb128 0x19
 2683 027e 49       		.uleb128 0x49
 2684 027f 13       		.uleb128 0x13
 2685 0280 3C       		.uleb128 0x3c
 2686 0281 19       		.uleb128 0x19
 2687 0282 00       		.byte	0
 2688 0283 00       		.byte	0
 2689 0284 00       		.byte	0
 2690              		.section	.debug_loc,"",%progbits
 2691              	.Ldebug_loc0:
 2692              	.LLST0:
 2693 0000 00000000 		.4byte	.LVL0
 2694 0004 0F000000 		.4byte	.LVL2-1
 2695 0008 0100     		.2byte	0x1
 2696 000a 50       		.byte	0x50
 2697 000b 0F000000 		.4byte	.LVL2-1
 2698 000f 4A000000 		.4byte	.LFE239
 2699 0013 0400     		.2byte	0x4
 2700 0015 F3       		.byte	0xf3
 2701 0016 01       		.uleb128 0x1
 2702 0017 50       		.byte	0x50
 2703 0018 9F       		.byte	0x9f
 2704 0019 00000000 		.4byte	0
 2705 001d 00000000 		.4byte	0
 2706              	.LLST1:
 2707 0021 00000000 		.4byte	.LVL0
 2708 0025 0F000000 		.4byte	.LVL2-1
 2709 0029 0100     		.2byte	0x1
 2710 002b 51       		.byte	0x51
 2711 002c 0F000000 		.4byte	.LVL2-1
ARM GAS  /tmp/cc26WhyB.s 			page 73


 2712 0030 18000000 		.4byte	.LVL3
 2713 0034 0100     		.2byte	0x1
 2714 0036 55       		.byte	0x55
 2715 0037 18000000 		.4byte	.LVL3
 2716 003b 4A000000 		.4byte	.LFE239
 2717 003f 0400     		.2byte	0x4
 2718 0041 F3       		.byte	0xf3
 2719 0042 01       		.uleb128 0x1
 2720 0043 51       		.byte	0x51
 2721 0044 9F       		.byte	0x9f
 2722 0045 00000000 		.4byte	0
 2723 0049 00000000 		.4byte	0
 2724              	.LLST2:
 2725 004d 00000000 		.4byte	.LVL0
 2726 0051 08000000 		.4byte	.LVL1
 2727 0055 0100     		.2byte	0x1
 2728 0057 52       		.byte	0x52
 2729 0058 08000000 		.4byte	.LVL1
 2730 005c 3A000000 		.4byte	.LVL7
 2731 0060 0100     		.2byte	0x1
 2732 0062 54       		.byte	0x54
 2733 0063 3A000000 		.4byte	.LVL7
 2734 0067 4A000000 		.4byte	.LFE239
 2735 006b 0400     		.2byte	0x4
 2736 006d F3       		.byte	0xf3
 2737 006e 01       		.uleb128 0x1
 2738 006f 52       		.byte	0x52
 2739 0070 9F       		.byte	0x9f
 2740 0071 00000000 		.4byte	0
 2741 0075 00000000 		.4byte	0
 2742              	.LLST3:
 2743 0079 00000000 		.4byte	.LVL0
 2744 007d 0F000000 		.4byte	.LVL2-1
 2745 0081 0100     		.2byte	0x1
 2746 0083 53       		.byte	0x53
 2747 0084 0F000000 		.4byte	.LVL2-1
 2748 0088 4A000000 		.4byte	.LFE239
 2749 008c 0100     		.2byte	0x1
 2750 008e 56       		.byte	0x56
 2751 008f 00000000 		.4byte	0
 2752 0093 00000000 		.4byte	0
 2753              	.LLST4:
 2754 0097 3A000000 		.4byte	.LVL7
 2755 009b 3D000000 		.4byte	.LVL8-1
 2756 009f 0100     		.2byte	0x1
 2757 00a1 50       		.byte	0x50
 2758 00a2 3D000000 		.4byte	.LVL8-1
 2759 00a6 46000000 		.4byte	.LVL9
 2760 00aa 0100     		.2byte	0x1
 2761 00ac 54       		.byte	0x54
 2762 00ad 00000000 		.4byte	0
 2763 00b1 00000000 		.4byte	0
 2764              	.LLST5:
 2765 00b5 10000000 		.4byte	.LVL2
 2766 00b9 2C000000 		.4byte	.LVL5
 2767 00bd 0100     		.2byte	0x1
 2768 00bf 50       		.byte	0x50
ARM GAS  /tmp/cc26WhyB.s 			page 74


 2769 00c0 2C000000 		.4byte	.LVL5
 2770 00c4 2F000000 		.4byte	.LVL6-1
 2771 00c8 0200     		.2byte	0x2
 2772 00ca 91       		.byte	0x91
 2773 00cb 5C       		.sleb128 -36
 2774 00cc 00000000 		.4byte	0
 2775 00d0 00000000 		.4byte	0
 2776              	.LLST6:
 2777 00d4 1C000000 		.4byte	.LVL4
 2778 00d8 46000000 		.4byte	.LVL9
 2779 00dc 0300     		.2byte	0x3
 2780 00de 08       		.byte	0x8
 2781 00df 20       		.byte	0x20
 2782 00e0 9F       		.byte	0x9f
 2783 00e1 00000000 		.4byte	0
 2784 00e5 00000000 		.4byte	0
 2785              	.LLST7:
 2786 00e9 3E000000 		.4byte	.LVL8
 2787 00ed 46000000 		.4byte	.LVL9
 2788 00f1 0200     		.2byte	0x2
 2789 00f3 30       		.byte	0x30
 2790 00f4 9F       		.byte	0x9f
 2791 00f5 00000000 		.4byte	0
 2792 00f9 00000000 		.4byte	0
 2793              	.LLST8:
 2794 00fd 00000000 		.4byte	.LVL10
 2795 0101 0F000000 		.4byte	.LVL11-1
 2796 0105 0100     		.2byte	0x1
 2797 0107 50       		.byte	0x50
 2798 0108 0F000000 		.4byte	.LVL11-1
 2799 010c 4C000000 		.4byte	.LFE240
 2800 0110 0100     		.2byte	0x1
 2801 0112 55       		.byte	0x55
 2802 0113 00000000 		.4byte	0
 2803 0117 00000000 		.4byte	0
 2804              	.LLST9:
 2805 011b 00000000 		.4byte	.LVL10
 2806 011f 0F000000 		.4byte	.LVL11-1
 2807 0123 0100     		.2byte	0x1
 2808 0125 51       		.byte	0x51
 2809 0126 0F000000 		.4byte	.LVL11-1
 2810 012a 4C000000 		.4byte	.LFE240
 2811 012e 0100     		.2byte	0x1
 2812 0130 57       		.byte	0x57
 2813 0131 00000000 		.4byte	0
 2814 0135 00000000 		.4byte	0
 2815              	.LLST10:
 2816 0139 00000000 		.4byte	.LVL10
 2817 013d 0F000000 		.4byte	.LVL11-1
 2818 0141 0100     		.2byte	0x1
 2819 0143 52       		.byte	0x52
 2820 0144 0F000000 		.4byte	.LVL11-1
 2821 0148 4C000000 		.4byte	.LFE240
 2822 014c 0100     		.2byte	0x1
 2823 014e 56       		.byte	0x56
 2824 014f 00000000 		.4byte	0
 2825 0153 00000000 		.4byte	0
ARM GAS  /tmp/cc26WhyB.s 			page 75


 2826              	.LLST11:
 2827 0157 00000000 		.4byte	.LVL10
 2828 015b 0F000000 		.4byte	.LVL11-1
 2829 015f 0100     		.2byte	0x1
 2830 0161 53       		.byte	0x53
 2831 0162 0F000000 		.4byte	.LVL11-1
 2832 0166 3C000000 		.4byte	.LVL15
 2833 016a 0100     		.2byte	0x1
 2834 016c 54       		.byte	0x54
 2835 016d 3C000000 		.4byte	.LVL15
 2836 0171 4C000000 		.4byte	.LFE240
 2837 0175 0400     		.2byte	0x4
 2838 0177 F3       		.byte	0xf3
 2839 0178 01       		.uleb128 0x1
 2840 0179 53       		.byte	0x53
 2841 017a 9F       		.byte	0x9f
 2842 017b 00000000 		.4byte	0
 2843 017f 00000000 		.4byte	0
 2844              	.LLST12:
 2845 0183 3C000000 		.4byte	.LVL15
 2846 0187 3F000000 		.4byte	.LVL16-1
 2847 018b 0100     		.2byte	0x1
 2848 018d 50       		.byte	0x50
 2849 018e 3F000000 		.4byte	.LVL16-1
 2850 0192 48000000 		.4byte	.LVL17
 2851 0196 0100     		.2byte	0x1
 2852 0198 54       		.byte	0x54
 2853 0199 00000000 		.4byte	0
 2854 019d 00000000 		.4byte	0
 2855              	.LLST13:
 2856 01a1 10000000 		.4byte	.LVL11
 2857 01a5 2C000000 		.4byte	.LVL13
 2858 01a9 0100     		.2byte	0x1
 2859 01ab 50       		.byte	0x50
 2860 01ac 2C000000 		.4byte	.LVL13
 2861 01b0 2F000000 		.4byte	.LVL14-1
 2862 01b4 0200     		.2byte	0x2
 2863 01b6 91       		.byte	0x91
 2864 01b7 54       		.sleb128 -44
 2865 01b8 00000000 		.4byte	0
 2866 01bc 00000000 		.4byte	0
 2867              	.LLST14:
 2868 01c0 24000000 		.4byte	.LVL12
 2869 01c4 48000000 		.4byte	.LVL17
 2870 01c8 0300     		.2byte	0x3
 2871 01ca 08       		.byte	0x8
 2872 01cb 20       		.byte	0x20
 2873 01cc 9F       		.byte	0x9f
 2874 01cd 00000000 		.4byte	0
 2875 01d1 00000000 		.4byte	0
 2876              	.LLST15:
 2877 01d5 40000000 		.4byte	.LVL16
 2878 01d9 48000000 		.4byte	.LVL17
 2879 01dd 0200     		.2byte	0x2
 2880 01df 30       		.byte	0x30
 2881 01e0 9F       		.byte	0x9f
 2882 01e1 00000000 		.4byte	0
ARM GAS  /tmp/cc26WhyB.s 			page 76


 2883 01e5 00000000 		.4byte	0
 2884              		.section	.debug_aranges,"",%progbits
 2885 0000 24000000 		.4byte	0x24
 2886 0004 0200     		.2byte	0x2
 2887 0006 00000000 		.4byte	.Ldebug_info0
 2888 000a 04       		.byte	0x4
 2889 000b 00       		.byte	0
 2890 000c 0000     		.2byte	0
 2891 000e 0000     		.2byte	0
 2892 0010 00000000 		.4byte	.LFB239
 2893 0014 4A000000 		.4byte	.LFE239-.LFB239
 2894 0018 00000000 		.4byte	.LFB240
 2895 001c 4C000000 		.4byte	.LFE240-.LFB240
 2896 0020 00000000 		.4byte	0
 2897 0024 00000000 		.4byte	0
 2898              		.section	.debug_ranges,"",%progbits
 2899              	.Ldebug_ranges0:
 2900 0000 00000000 		.4byte	.LFB239
 2901 0004 4A000000 		.4byte	.LFE239
 2902 0008 00000000 		.4byte	.LFB240
 2903 000c 4C000000 		.4byte	.LFE240
 2904 0010 00000000 		.4byte	0
 2905 0014 00000000 		.4byte	0
 2906              		.section	.debug_line,"",%progbits
 2907              	.Ldebug_line0:
 2908 0000 A2030000 		.section	.debug_str,"MS",%progbits,1
 2908      02003303 
 2908      00000201 
 2908      FB0E0D00 
 2908      01010101 
 2909              	.LASF46:
 2910 0000 63685F74 		.ascii	"ch_threads_list\000"
 2910      68726561 
 2910      64735F6C 
 2910      69737400 
 2911              	.LASF83:
 2912 0010 77746D74 		.ascii	"wtmtxp\000"
 2912      787000
 2913              	.LASF109:
 2914 0017 6D656D6F 		.ascii	"memory_pool_t\000"
 2914      72795F70 
 2914      6F6F6C5F 
 2914      7400
 2915              	.LASF76:
 2916 0025 746D5F63 		.ascii	"tm_calibration_t\000"
 2916      616C6962 
 2916      72617469 
 2916      6F6E5F74 
 2916      00
 2917              	.LASF90:
 2918 0036 77626173 		.ascii	"wbase\000"
 2918      6500
 2919              	.LASF71:
 2920 003c 72656761 		.ascii	"regarm_t\000"
 2920      726D5F74 
 2920      00
 2921              	.LASF35:
ARM GAS  /tmp/cc26WhyB.s 			page 77


 2922 0045 666C6167 		.ascii	"flags\000"
 2922      7300
 2923              	.LASF26:
 2924 004b 73797374 		.ascii	"systime_t\000"
 2924      696D655F 
 2924      7400
 2925              	.LASF41:
 2926 0055 7265616C 		.ascii	"realprio\000"
 2926      7072696F 
 2926      00
 2927              	.LASF39:
 2928 005e 6570656E 		.ascii	"epending\000"
 2928      64696E67 
 2928      00
 2929              	.LASF0:
 2930 0067 756E7369 		.ascii	"unsigned int\000"
 2930      676E6564 
 2930      20696E74 
 2930      00
 2931              	.LASF47:
 2932 0074 6E657874 		.ascii	"next\000"
 2932      00
 2933              	.LASF44:
 2934 0079 74687265 		.ascii	"threads_list_t\000"
 2934      6164735F 
 2934      6C697374 
 2934      5F7400
 2935              	.LASF7:
 2936 0088 5F5F696E 		.ascii	"__int32_t\000"
 2936      7433325F 
 2936      7400
 2937              	.LASF36:
 2938 0092 72656673 		.ascii	"refs\000"
 2938      00
 2939              	.LASF105:
 2940 0097 68656170 		.ascii	"heap\000"
 2940      00
 2941              	.LASF79:
 2942 009c 77746F62 		.ascii	"wtobjp\000"
 2942      6A7000
 2943              	.LASF110:
 2944 00a3 706F7274 		.ascii	"port_lock\000"
 2944      5F6C6F63 
 2944      6B00
 2945              	.LASF68:
 2946 00ad 76746C69 		.ascii	"vtlist\000"
 2946      737400
 2947              	.LASF73:
 2948 00b4 706F7274 		.ascii	"port_context\000"
 2948      5F636F6E 
 2948      74657874 
 2948      00
 2949              	.LASF52:
 2950 00c1 63685F72 		.ascii	"ch_ready_list\000"
 2950      65616479 
 2950      5F6C6973 
 2950      7400
ARM GAS  /tmp/cc26WhyB.s 			page 78


 2951              	.LASF58:
 2952 00cf 66756E63 		.ascii	"func\000"
 2952      00
 2953              	.LASF84:
 2954 00d4 65776D61 		.ascii	"ewmask\000"
 2954      736B00
 2955              	.LASF50:
 2956 00db 70726576 		.ascii	"prev\000"
 2956      00
 2957              	.LASF49:
 2958 00e0 63685F74 		.ascii	"ch_threads_queue\000"
 2958      68726561 
 2958      64735F71 
 2958      75657565 
 2958      00
 2959              	.LASF54:
 2960 00f1 76746675 		.ascii	"vtfunc_t\000"
 2960      6E635F74 
 2960      00
 2961              	.LASF63:
 2962 00fa 63685F73 		.ascii	"ch_system_debug\000"
 2962      79737465 
 2962      6D5F6465 
 2962      62756700 
 2963              	.LASF16:
 2964 010a 75696E74 		.ascii	"uint32_t\000"
 2964      33325F74 
 2964      00
 2965              	.LASF81:
 2966 0113 73656E74 		.ascii	"sentmsg\000"
 2966      6D736700 
 2967              	.LASF24:
 2968 011b 6576656E 		.ascii	"eventmask_t\000"
 2968      746D6173 
 2968      6B5F7400 
 2969              	.LASF93:
 2970 0127 74687265 		.ascii	"thread_descriptor_t\000"
 2970      61645F64 
 2970      65736372 
 2970      6970746F 
 2970      725F7400 
 2971              	.LASF85:
 2972 013b 63685F73 		.ascii	"ch_semaphore\000"
 2972      656D6170 
 2972      686F7265 
 2972      00
 2973              	.LASF22:
 2974 0148 74707269 		.ascii	"tprio_t\000"
 2974      6F5F7400 
 2975              	.LASF56:
 2976 0150 63685F76 		.ascii	"ch_virtual_timer\000"
 2976      69727475 
 2976      616C5F74 
 2976      696D6572 
 2976      00
 2977              	.LASF89:
 2978 0161 7466756E 		.ascii	"tfunc_t\000"
ARM GAS  /tmp/cc26WhyB.s 			page 79


 2978      635F7400 
 2979              	.LASF13:
 2980 0169 6C6F6E67 		.ascii	"long long unsigned int\000"
 2980      206C6F6E 
 2980      6720756E 
 2980      7369676E 
 2980      65642069 
 2981              	.LASF25:
 2982 0180 636E745F 		.ascii	"cnt_t\000"
 2982      7400
 2983              	.LASF114:
 2984 0186 63685379 		.ascii	"chSysUnlock\000"
 2984      73556E6C 
 2984      6F636B00 
 2985              	.LASF87:
 2986 0192 6F776E65 		.ascii	"owner\000"
 2986      7200
 2987              	.LASF48:
 2988 0198 74687265 		.ascii	"threads_queue_t\000"
 2988      6164735F 
 2988      71756575 
 2988      655F7400 
 2989              	.LASF127:
 2990 01a8 76616C75 		.ascii	"value\000"
 2990      6500
 2991              	.LASF40:
 2992 01ae 6D74786C 		.ascii	"mtxlist\000"
 2992      69737400 
 2993              	.LASF60:
 2994 01b6 63685F76 		.ascii	"ch_virtual_timers_list\000"
 2994      69727475 
 2994      616C5F74 
 2994      696D6572 
 2994      735F6C69 
 2995              	.LASF103:
 2996 01cd 75736564 		.ascii	"used\000"
 2996      00
 2997              	.LASF27:
 2998 01d2 74687265 		.ascii	"thread_t\000"
 2998      61645F74 
 2998      00
 2999              	.LASF126:
 3000 01db 68656170 		.ascii	"heap_header\000"
 3000      5F686561 
 3000      64657200 
 3001              	.LASF2:
 3002 01e7 73697A65 		.ascii	"size_t\000"
 3002      5F7400
 3003              	.LASF77:
 3004 01ee 7264796D 		.ascii	"rdymsg\000"
 3004      736700
 3005              	.LASF108:
 3006 01f5 6F626A65 		.ascii	"object_size\000"
 3006      63745F73 
 3006      697A6500 
 3007              	.LASF75:
 3008 0201 6F666673 		.ascii	"offset\000"
ARM GAS  /tmp/cc26WhyB.s 			page 80


 3008      657400
 3009              	.LASF128:
 3010 0208 5F5F6675 		.ascii	"__func__.5702\000"
 3010      6E635F5F 
 3010      2E353730 
 3010      3200
 3011              	.LASF86:
 3012 0216 63685F6D 		.ascii	"ch_mutex\000"
 3012      75746578 
 3012      00
 3013              	.LASF102:
 3014 021f 66726565 		.ascii	"free\000"
 3014      00
 3015              	.LASF12:
 3016 0224 5F5F7569 		.ascii	"__uint64_t\000"
 3016      6E743634 
 3016      5F7400
 3017              	.LASF125:
 3018 022f 2F6E6673 		.ascii	"/nfs/nfs7/home/npalumbo/p442-submissions/lab4\000"
 3018      2F6E6673 
 3018      372F686F 
 3018      6D652F6E 
 3018      70616C75 
 3019              	.LASF112:
 3020 025d 63685379 		.ascii	"chSysLock\000"
 3020      734C6F63 
 3020      6B00
 3021              	.LASF29:
 3022 0267 7072696F 		.ascii	"prio\000"
 3022      00
 3023              	.LASF88:
 3024 026c 63686172 		.ascii	"char\000"
 3024      00
 3025              	.LASF43:
 3026 0271 74687265 		.ascii	"thread_reference_t\000"
 3026      61645F72 
 3026      65666572 
 3026      656E6365 
 3026      5F7400
 3027              	.LASF33:
 3028 0284 77616261 		.ascii	"wabase\000"
 3028      736500
 3029              	.LASF117:
 3030 028b 63685468 		.ascii	"chThdCreateFromMemoryPool\000"
 3030      64437265 
 3030      61746546 
 3030      726F6D4D 
 3030      656D6F72 
 3031              	.LASF20:
 3032 02a5 74737461 		.ascii	"tstate_t\000"
 3032      74655F74 
 3032      00
 3033              	.LASF14:
 3034 02ae 75696E74 		.ascii	"uint8_t\000"
 3034      385F7400 
 3035              	.LASF38:
 3036 02b6 6D736771 		.ascii	"msgqueue\000"
ARM GAS  /tmp/cc26WhyB.s 			page 81


 3036      75657565 
 3036      00
 3037              	.LASF45:
 3038 02bf 63685F74 		.ascii	"ch_thread\000"
 3038      68726561 
 3038      6400
 3039              	.LASF104:
 3040 02c9 70616765 		.ascii	"pages\000"
 3040      7300
 3041              	.LASF62:
 3042 02cf 73797374 		.ascii	"system_debug_t\000"
 3042      656D5F64 
 3042      65627567 
 3042      5F7400
 3043              	.LASF91:
 3044 02de 77656E64 		.ascii	"wend\000"
 3044      00
 3045              	.LASF11:
 3046 02e3 6C6F6E67 		.ascii	"long long int\000"
 3046      206C6F6E 
 3046      6720696E 
 3046      7400
 3047              	.LASF23:
 3048 02f1 6D73675F 		.ascii	"msg_t\000"
 3048      7400
 3049              	.LASF55:
 3050 02f7 76697274 		.ascii	"virtual_timer_t\000"
 3050      75616C5F 
 3050      74696D65 
 3050      725F7400 
 3051              	.LASF106:
 3052 0307 73697A65 		.ascii	"size\000"
 3052      00
 3053              	.LASF99:
 3054 030c 68656164 		.ascii	"header\000"
 3054      657200
 3055              	.LASF96:
 3056 0313 6D656D6F 		.ascii	"memory_heap_t\000"
 3056      72795F68 
 3056      6561705F 
 3056      7400
 3057              	.LASF120:
 3058 0321 63685468 		.ascii	"chThdCreateSuspendedI\000"
 3058      64437265 
 3058      61746553 
 3058      75737065 
 3058      6E646564 
 3059              	.LASF64:
 3060 0337 70616E69 		.ascii	"panic_msg\000"
 3060      635F6D73 
 3060      6700
 3061              	.LASF19:
 3062 0341 746D6F64 		.ascii	"tmode_t\000"
 3062      655F7400 
 3063              	.LASF69:
 3064 0349 6D61696E 		.ascii	"mainthread\000"
 3064      74687265 
ARM GAS  /tmp/cc26WhyB.s 			page 82


 3064      616400
 3065              	.LASF18:
 3066 0354 7274636E 		.ascii	"rtcnt_t\000"
 3066      745F7400 
 3067              	.LASF119:
 3068 035c 63684865 		.ascii	"chHeapAllocAligned\000"
 3068      6170416C 
 3068      6C6F6341 
 3068      6C69676E 
 3068      656400
 3069              	.LASF124:
 3070 036f 2E2E2F43 		.ascii	"../ChibiOS/os/rt/src/chdynamic.c\000"
 3070      68696269 
 3070      4F532F6F 
 3070      732F7274 
 3070      2F737263 
 3071              	.LASF5:
 3072 0390 73686F72 		.ascii	"short int\000"
 3072      7420696E 
 3072      7400
 3073              	.LASF97:
 3074 039a 6D656D6F 		.ascii	"memory_heap\000"
 3074      72795F68 
 3074      65617000 
 3075              	.LASF8:
 3076 03a6 6C6F6E67 		.ascii	"long int\000"
 3076      20696E74 
 3076      00
 3077              	.LASF74:
 3078 03af 706F7274 		.ascii	"port_intctx\000"
 3078      5F696E74 
 3078      63747800 
 3079              	.LASF118:
 3080 03bb 49544D5F 		.ascii	"ITM_RxBuffer\000"
 3080      52784275 
 3080      66666572 
 3080      00
 3081              	.LASF66:
 3082 03c8 63685F73 		.ascii	"ch_system\000"
 3082      79737465 
 3082      6D00
 3083              	.LASF113:
 3084 03d2 5F5F7365 		.ascii	"__set_BASEPRI\000"
 3084      745F4241 
 3084      53455052 
 3084      4900
 3085              	.LASF98:
 3086 03e0 70726F76 		.ascii	"provider\000"
 3086      69646572 
 3086      00
 3087              	.LASF61:
 3088 03e9 6C617374 		.ascii	"lasttime\000"
 3088      74696D65 
 3088      00
 3089              	.LASF17:
 3090 03f2 75696E74 		.ascii	"uint64_t\000"
 3090      36345F74 
ARM GAS  /tmp/cc26WhyB.s 			page 83


 3090      00
 3091              	.LASF67:
 3092 03fb 726C6973 		.ascii	"rlist\000"
 3092      7400
 3093              	.LASF122:
 3094 0401 6368506F 		.ascii	"chPoolAlloc\000"
 3094      6F6C416C 
 3094      6C6F6300 
 3095              	.LASF3:
 3096 040d 5F5F7569 		.ascii	"__uint8_t\000"
 3096      6E74385F 
 3096      7400
 3097              	.LASF95:
 3098 0417 6D656D67 		.ascii	"memgetfunc_t\000"
 3098      65746675 
 3098      6E635F74 
 3098      00
 3099              	.LASF32:
 3100 0424 6E616D65 		.ascii	"name\000"
 3100      00
 3101              	.LASF123:
 3102 0429 474E5520 		.ascii	"GNU C 4.8.4 20140526 (release) [ARM/embedded-4_8-br"
 3102      4320342E 
 3102      382E3420 
 3102      32303134 
 3102      30353236 
 3103 045c 616E6368 		.ascii	"anch revision 211358] -mcpu=cortex-m4 -mno-thumb-in"
 3103      20726576 
 3103      6973696F 
 3103      6E203231 
 3103      31333538 
 3104 048f 74657277 		.ascii	"terwork -mthumb -ggdb -O2 -fomit-frame-pointer -fal"
 3104      6F726B20 
 3104      2D6D7468 
 3104      756D6220 
 3104      2D676764 
 3105 04c2 69676E2D 		.ascii	"ign-functions=16 -ffunction-sections -fdata-section"
 3105      66756E63 
 3105      74696F6E 
 3105      733D3136 
 3105      202D6666 
 3106 04f5 73202D66 		.ascii	"s -fno-common -flto\000"
 3106      6E6F2D63 
 3106      6F6D6D6F 
 3106      6E202D66 
 3106      6C746F00 
 3107              	.LASF70:
 3108 0509 73697A65 		.ascii	"sizetype\000"
 3108      74797065 
 3108      00
 3109              	.LASF21:
 3110 0512 74726566 		.ascii	"trefs_t\000"
 3110      735F7400 
 3111              	.LASF10:
 3112 051a 6C6F6E67 		.ascii	"long unsigned int\000"
 3112      20756E73 
 3112      69676E65 
ARM GAS  /tmp/cc26WhyB.s 			page 84


 3112      6420696E 
 3112      7400
 3113              	.LASF51:
 3114 052c 72656164 		.ascii	"ready_list_t\000"
 3114      795F6C69 
 3114      73745F74 
 3114      00
 3115              	.LASF28:
 3116 0539 71756575 		.ascii	"queue\000"
 3116      6500
 3117              	.LASF15:
 3118 053f 696E7433 		.ascii	"int32_t\000"
 3118      325F7400 
 3119              	.LASF82:
 3120 0547 77747365 		.ascii	"wtsemp\000"
 3120      6D7000
 3121              	.LASF116:
 3122 054e 63685468 		.ascii	"chThdCreateFromHeap\000"
 3122      64437265 
 3122      61746546 
 3122      726F6D48 
 3122      65617000 
 3123              	.LASF94:
 3124 0562 6D757465 		.ascii	"mutex_t\000"
 3124      785F7400 
 3125              	.LASF30:
 3126 056a 6E657765 		.ascii	"newer\000"
 3126      7200
 3127              	.LASF4:
 3128 0570 756E7369 		.ascii	"unsigned char\000"
 3128      676E6564 
 3128      20636861 
 3128      7200
 3129              	.LASF9:
 3130 057e 5F5F7569 		.ascii	"__uint32_t\000"
 3130      6E743332 
 3130      5F7400
 3131              	.LASF37:
 3132 0589 77616974 		.ascii	"waiting\000"
 3132      696E6700 
 3133              	.LASF92:
 3134 0591 66756E63 		.ascii	"funcp\000"
 3134      7000
 3135              	.LASF59:
 3136 0597 76697274 		.ascii	"virtual_timers_list_t\000"
 3136      75616C5F 
 3136      74696D65 
 3136      72735F6C 
 3136      6973745F 
 3137              	.LASF121:
 3138 05ad 63685363 		.ascii	"chSchWakeupS\000"
 3138      6857616B 
 3138      65757053 
 3138      00
 3139              	.LASF34:
 3140 05ba 73746174 		.ascii	"state\000"
 3140      6500
ARM GAS  /tmp/cc26WhyB.s 			page 85


 3141              	.LASF107:
 3142 05c0 706F6F6C 		.ascii	"pool_header\000"
 3142      5F686561 
 3142      64657200 
 3143              	.LASF65:
 3144 05cc 63685F73 		.ascii	"ch_system_t\000"
 3144      79737465 
 3144      6D5F7400 
 3145              	.LASF80:
 3146 05d8 77747472 		.ascii	"wttrp\000"
 3146      7000
 3147              	.LASF115:
 3148 05de 68656170 		.ascii	"heapp\000"
 3148      7000
 3149              	.LASF1:
 3150 05e4 7369676E 		.ascii	"signed char\000"
 3150      65642063 
 3150      68617200 
 3151              	.LASF57:
 3152 05f0 64656C74 		.ascii	"delta\000"
 3152      6100
 3153              	.LASF6:
 3154 05f6 73686F72 		.ascii	"short unsigned int\000"
 3154      7420756E 
 3154      7369676E 
 3154      65642069 
 3154      6E7400
 3155              	.LASF72:
 3156 0609 73746B61 		.ascii	"stkalign_t\000"
 3156      6C69676E 
 3156      5F7400
 3157              	.LASF129:
 3158 0614 5F5F6675 		.ascii	"__func__.6392\000"
 3158      6E635F5F 
 3158      2E363339 
 3158      3200
 3159              	.LASF53:
 3160 0622 63757272 		.ascii	"current\000"
 3160      656E7400 
 3161              	.LASF111:
 3162 062a 706F7274 		.ascii	"port_unlock\000"
 3162      5F756E6C 
 3162      6F636B00 
 3163              	.LASF101:
 3164 0636 616C6967 		.ascii	"align\000"
 3164      6E00
 3165              	.LASF31:
 3166 063c 6F6C6465 		.ascii	"older\000"
 3166      7200
 3167              	.LASF78:
 3168 0642 65786974 		.ascii	"exitcode\000"
 3168      636F6465 
 3168      00
 3169              	.LASF100:
 3170 064b 68656170 		.ascii	"heap_header_t\000"
 3170      5F686561 
 3170      6465725F 
ARM GAS  /tmp/cc26WhyB.s 			page 86


 3170      7400
 3171              	.LASF42:
 3172 0659 6D706F6F 		.ascii	"mpool\000"
 3172      6C00
 3173              		.comm	__gnu_lto_v1,1,1
 3174              		.ident	"GCC: (GNU Tools for ARM Embedded Processors) 4.8.4 20140526 (release) [ARM/embedded-4_8-br
ARM GAS  /tmp/cc26WhyB.s 			page 87


DEFINED SYMBOLS
                            *ABS*:00000000 chdynamic.c
     /tmp/cc26WhyB.s:415    .text.chThdCreateFromHeap:00000000 $t
     /tmp/cc26WhyB.s:421    .text.chThdCreateFromHeap:00000000 chThdCreateFromHeap
     /tmp/cc26WhyB.s:522    .text.chThdCreateFromMemoryPool:00000000 $t
     /tmp/cc26WhyB.s:528    .text.chThdCreateFromMemoryPool:00000000 chThdCreateFromMemoryPool
                            *COM*:00000001 __gnu_lto_v1
                     .debug_frame:00000010 $d

UNDEFINED SYMBOLS
chHeapAllocAligned
chThdCreateSuspendedI
chSchWakeupS
chPoolAlloc
