ARM GAS  /tmp/cc26WhyB.s 			page 1


   1              		.syntax unified
   2              		.cpu cortex-m4
   3              		.fpu softvfp
   4              		.eabi_attribute 20, 1
   5              		.eabi_attribute 21, 1
   6              		.eabi_attribute 23, 3
   7              		.eabi_attribute 24, 1
   8              		.eabi_attribute 25, 1
   9              		.eabi_attribute 26, 1
  10              		.eabi_attribute 30, 2
  11              		.eabi_attribute 34, 1
  12              		.eabi_attribute 18, 4
  13              		.thumb
  14              		.file	"chdynamic.c"
  15              		.text
  16              	.Ltext0:
  17              		.section	.gnu.lto_.jmpfuncs.b17871176f03c638,"",%progbits
  18 0000 789C6362 		.ascii	"x\234cb`b\300\006\"\2404\023\203=\023\003#c\007S\004"
  18      6062C006 
  18      22A03413 
  18      833D1303 
  18      23630753 
  19 0015 63262303 		.ascii	"c&#\003#\003\230f\004J\000133\220.cd\000R\214e\014\020"
  19      23039866 
  19      044A0031 
  19      3333902E 
  19      63640052 
  20 002d 29260E20 		.ascii	")&\016 G\036I\013\023\212\026F\250\026\006\000f\372"
  20      471E490B 
  20      138A1646 
  20      A8160600 
  20      66FA
  21 003f 0732     		.ascii	"\0072"
  22              		.text
  23              		.section	.gnu.lto_.inline.b17871176f03c638,"",%progbits
  24 0000 789C6362 		.ascii	"x\234cb`b\300\006\302\2414\023\203\204\224\021#\003"
  24      6062C006 
  24      C2A13413 
  24      83849411 
  24      2303
  25 0012 93C48A2D 		.ascii	"\223\304\212-\214\014l\013\344\301\252\231y\200\022"
  25      8C0C6C0B 
  25      E4C1AA99 
  25      798012
  26 0021 13FCC034 		.ascii	"\023\374\3004#\003+\037Pd\202\037\220\317\010Q+}\355"
  26      23032B1F 
  26      5064821F 
  26      90CF0851 
  26      2B7DED
  27 0034 142303FB 		.ascii	"\024#\003\373-5,j\301$\220\007\000\372L\012\354"
  27      2D352C6A 
  27      C1249007 
  27      00FA4C0A 
  27      EC
  28              		.text
  29              		.section	.gnu.lto_.pureconst.b17871176f03c638,"",%progbits
  30 0000 789C6362 		.ascii	"x\234cb`b`e\200\000&\006+F+\000\001\206\000\201"
ARM GAS  /tmp/cc26WhyB.s 			page 2


  30      60626065 
  30      80002606 
  30      2B462B00 
  30      01860081 
  31              		.text
  32              		.section	.gnu.lto_chThdCreateFromHeap.b17871176f03c638,"",%progbits
  33 0000 789C8D54 		.ascii	"x\234\215Tmh\024G\030~\337\231\335\334\231KL\242\246"
  33      6D681447 
  33      187EDF99 
  33      DDDC994B 
  33      4CA2A6
  34 0013 B622F12A 		.ascii	"\266\"\361*\225\012J\266`\241\177-\371%\022\012\211"
  34      950A4AB6 
  34      60A17F2D 
  34      F925120A 
  34      89
  35 0024 01FDA36C 		.ascii	"\001\375\243l&G\262\340\345\302\355i\023\212d\232\244"
  35      2647B2E0 
  35      E5C2ED69 
  35      138A649A 
  35      A4
  36 0035 21D25242 		.ascii	"!\322RB\240\370E\250A\242(\202\202\330FA\334\330\022"
  36      A0F845A8 
  36      41A22882 
  36      82D84641 
  36      DCD812
  37 0048 E247220A 		.ascii	"\342G\"\012\202\376\220\036\344\207\266\001\245\264"
  37      82FE901E 
  37      E487B601 
  37      A5B4
  38 0056 A0A898BE 		.ascii	"\240\250\230\276\263\263\273\271\234\207\351\0367\263"
  38      B3B3BBB9 
  38      9C87E91E 
  38      37B3
  39 0064 33F33CF3 		.ascii	"3\363<\363>\373\274\357\014\003\006\305\3176\372\017"
  39      3EFBBCEF 
  39      0C0306C5 
  39      CF36FA0F 
  40 0074 9A000FA8 		.ascii	"\232\000\017\250G\023\220\015\317\002|\033g\314\270"
  40      4713900D 
  40      CF027C1B 
  40      67CCB8
  41 0083 C54196F3 		.ascii	"\305A\226\363\251[\000\262\202\243\241\347\015D\365"
  41      A95B00B2 
  41      82A3A1E7 
  41      0D44F5
  42 0092 0208BD8C 		.ascii	"\002\010\275\214\033\330\273\007\325&|#\214I9\222\037"
  42      1BD8BB07 
  42      D5267C23 
  42      8C493992 
  42      1F
  43 00a3 9F7F8AC7 		.ascii	"\237\177\212\307\2447pR\276YX@t\220\002~\202 \020v\323"
  43      A4377052 
  43      BE595840 
  43      7490027E 
  43      82201076 
  44 00b8 00937EC7 		.ascii	"\000\223~\307\214\245\0124\327{<\365\303G\362d\337\260"
ARM GAS  /tmp/cc26WhyB.s 			page 3


  44      8CA50A34 
  44      D77B3CF5 
  44      C347F264 
  44      DFB0
  45 00ca 7C4B5407 		.ascii	"|KT\0079\203O\377\017\323\033\366^O\035\301\002\246"
  45      39834FFF 
  45      0FD31BF6 
  45      5E4F1DC1 
  45      02A6
  46 00dc C160CB22 		.ascii	"\301`\313\"\323\323=\373p)\365\002\363\362\013\013w"
  46      D3D33DFB 
  46      7029F502 
  46      F3F20B0B 
  46      77
  47 00ed 2E4FCCCD 		.ascii	".O\314\315c\315z\004\222j`\032\301\244\006c`\343)\334"
  47      63CD7A04 
  47      926A601A 
  47      C1A40663 
  47      60E329DC 
  48 0101 08711AB0 		.ascii	"\010q\032\260\004\255\231\225\364\306\253\2501j\250"
  48      04AD9995 
  48      F4C6ABA8 
  48      316AA8
  49 0110 316B0930 		.ascii	"1k\0110F\000zL\030\220r8\251\307\232f\343\270\277&|"
  49      46007A4C 
  49      18907238 
  49      A9C79A66 
  49      E3B8BF26 
  50 0125 6F7651AB 		.ascii	"ovQ\253,kA\246z~\027\006\363\023sh\343\031\262\273\035"
  50      2C6B41A6 
  50      7A7E1706 
  50      F3137368 
  50      E319B2BB 
  51 013a 63DFC02B 		.ascii	"c\337\300+9$\253\035,\023\350\023h\322hGS\251\216\305"
  51      3924AB1D 
  51      2C13E813 
  51      68D26847 
  51      53A98EC5 
  52 014e 29781CE0 		.ascii	")x\034\340&0\215\327\001\210\0050\015\277?\231\374g"
  52      26308DD7 
  52      01880530 
  52      0DBF3F99 
  52      FC67
  53 0160 90471B29 		.ascii	"\220G\033)\002/\374\306\026\032R\372\370\014\364\335"
  53      022FFCC6 
  53      161A52FA 
  53      F80CF4DD 
  54 0170 9E78FE32 		.ascii	"\236x\3762\330b\013\234\223R\305[\241u\266\352\240\264"
  54      D8620B9C 
  54      9352C55B 
  54      A175B6EA 
  54      A0B4
  55 0182 030522E8 		.ascii	"\003\005\"\350\216\"\230\031\302Bq1\005\353\377\276"
  55      8E229819 
  55      C2427131 
  55      05EBFFBE 
  56 0192 FFD48F66 		.ascii	"\377\324\217f\030;A\263$\331\347\337,\021*\332\203\005"
ARM GAS  /tmp/cc26WhyB.s 			page 4


  56      183B41B3 
  56      24D9E7DF 
  56      2C112ADA 
  56      8305
  57 01a4 7B247CE8 		.ascii	"{$|\350\316\"Xy\010\343\001\254\262$,\021\302\214\000"
  57      CE225879 
  57      08E301AC 
  57      B2242C11 
  57      C28C00
  58 01b7 565512C6 		.ascii	"VU\022\306C\230\031\300j\224\221}\361\260\342\362\327"
  58      439819C0 
  58      6A94917D 
  58      F1B0E2F2 
  58      D7
  59 01c8 CECE4CE2 		.ascii	"\316\316L\342H\277\234\226\003\036U\316\006\007+\030"
  59      48BF9C96 
  59      031E55CE 
  59      06072B18 
  60 01d8 EC5DAEE8 		.ascii	"\354]\256\350\324\\E\222^f\241\357\357;\375\247\327"
  60      D45C4592 
  60      5E66A1EF 
  60      EF3BFDA7 
  60      D7
  61 01e9 05151096 		.ascii	"\005\025\020\226\202\367\372\376\011\276\331\306\013"
  61      82F7FAFE 
  61      09BED9C6 
  61      0B
  62 01f6 7E0D0473 		.ascii	"~\015\004ss?\275L\254\217F\207\237\221\227Z\255 K\004"
  62      733FBD4C 
  62      AC8F4687 
  62      9F91975A 
  62      AD204B04 
  63 020a 7DAFD01F 		.ascii	"}\257\320\037\203\364\273JC\362\211\353\303Z\007\267"
  63      83F4BB4A 
  63      43F289EB 
  63      C35A07B7 
  64 021a 71541EDD 		.ascii	"qT\036\335\356(3\012\242/\256\317\006\353+\265\276\273"
  64      EE28330A 
  64      A22FAECF 
  64      06EB2BB5 
  64      BEBB
  65 022c 30907FFC 		.ascii	"0\220\177\374[T_\265Q}U\211\300\0115C\317!\007\253\265"
  65      5B545FB5 
  65      517D5589 
  65      C0093543 
  65      CF2107AB 
  66 0241 451A4BA5 		.ascii	"E\032K\245\246\035\362\312\302b\033\363\213\255\326"
  66      A61DF2CA 
  66      C2621BF3 
  66      8BADD6
  67 0250 B777E2E1 		.ascii	"\267w\342\341\213\247Xh\261L8\270\352\004\034'E\253"
  67      8BA75868 
  67      B14C38B8 
  67      EA041C27 
  67      45AB
  68 0262 09A49469 		.ascii	"\011\244\224i\005\255X\0269\265\006}I\337\345\377\230"
  68      05AD5816 
ARM GAS  /tmp/cc26WhyB.s 			page 5


  68      39B5067D 
  68      49DFE5FF 
  68      98
  69 0273 8B056120 		.ascii	"\213\005a RT+\002d@\377@iX[\234\245?g\213\263d\343E"
  69      52542B02 
  69      6440FF40 
  69      69585B9C 
  69      A53F678B 
  70 028b DFB665D3 		.ascii	"\337\266e\323\004\357K\323_\243*M\327\227\246\351\347"
  70      04EF4BD3 
  70      5FA32A4D 
  70      D797A6E9 
  70      E7
  71 029c CABAE84C 		.ascii	"\312\272\350L/\346\353\337\202|\305\300?\332\361\022"
  71      2FE6EBDF 
  71      827CC5C0 
  71      3FDAF112 
  72 02ac 29B3F117 		.ascii	")\263\361\027z\211\"\207)\262\361\012\326\025\036K\303"
  72      7A892287 
  72      29B2F10A 
  72      D6151E4B 
  72      C3
  73 02bd BF0866E0 		.ascii	"\277\010f\340\306|t\254U\032>\207KrH]`\004\272Gw\255"
  73      C67C74AC 
  73      551A3E87 
  73      4B72485D 
  73      6004BA47 
  74 02d3 F2C5B7F4 		.ascii	"\362\305\267\364\021`\340.;\377\353\0322\213\237\277"
  74      1160E02E 
  74      3BFFEB1A 
  74      328B9FBF 
  75 02e3 56A16E16 		.ascii	"V\241n\026T\033\251\030\037\327\327[\015\035N\253\363"
  75      541BA918 
  75      1FD7D75B 
  75      0D1D4EAB 
  75      F3
  76 02f4 55B39571 		.ascii	"U\263\225q\255l\316r\263\302\022\035m=\235v\332\021"
  76      AD6CCE72 
  76      B3C2121D 
  76      6D3D9D76 
  76      DA11
  77 0306 F50258AE 		.ascii	"\365\002X\256\213\177\355v\261\\\233\265\024+2\351t"
  77      8B7FED76 
  77      B15C9BB5 
  77      142B32E9 
  77      74
  78 0317 A6D3EACA 		.ascii	"\246\323\352\312ds\256\365eScCc7\021E&\233\332w\360"
  78      6473AEF5 
  78      65536343 
  78      63371145 
  78      269BDA77 
  79 032c 8B747D07 		.ascii	"\213t}\007\230\007\355\375\007R\333J\262R\3359\253\241"
  79      9807EDFD 
  79      0752DB4A 
  79      B252DD39 
  79      ABA1
  80 033e B17947B3 		.ascii	"\261yG\263\345t\212\375\007\332R\226H\273\216\273\257"
ARM GAS  /tmp/cc26WhyB.s 			page 6


  80      E5748AFD 
  80      07DA5296 
  80      48BB8EBB 
  80      AF
  81 034f 5D0862BE 		.ascii	"]\010b\276\253*Bu\270=.!\252\033\233\233\222\255\266"
  81      AB2A4275 
  81      B83D2E21 
  81      AA1B9B9B 
  81      92ADB6
  82 0362 9BEACA3A 		.ascii	"\233\352\312:[\223\233>\003\226\205X:\225\316d{\340"
  82      5B939B3E 
  82      03968558 
  82      3A95CE64 
  82      7BE0
  83 0374 3F529189 		.ascii	"?R\221\211 "
  83      20
  84              		.text
  85              		.section	.gnu.lto_chThdCreateFromMemoryPool.b17871176f03c638,"",%progbits
  86 0000 789C8D54 		.ascii	"x\234\215T[hTG\030\376\377\231\263\2731\233\230\244"
  86      5B685447 
  86      18FEFF99 
  86      B3BB319B 
  86      98A4
  87 0012 35DE68E3 		.ascii	"5\336h\3436XZ\232\222#(\370\252\344IJ(\030\005}QN&\213"
  87      36585A9A 
  87      922328F8 
  87      AAE4494A 
  87      2818057D 
  88 002a 3990930D 		.ascii	"9\220\223\015{\326K(\342\270\211\340\355!\010\245^\020"
  88      7BD64B28 
  88      E2B889E0 
  88      ED2108A5 
  88      5E10
  89 003c 0DA2A248 		.ascii	"\015\242\242HE\373`\360\002\307+&1)\026\244MAX(\241"
  89      45FB60F0 
  89      02C72B26 
  89      312916A4 
  89      4D415828 
  90 0051 A68542AB 		.ascii	"\246\205B\253\017Z\213\351?s.\356\256\213z\226\2359"
  90      0F5A8BE9 
  90      3F732EEE 
  90      AE8B7A96 
  90      9D39
  91 0063 33F37DF3 		.ascii	"3\363}\363\377\363\375\337\031\006\014\312\237\345\364"
  91      FFF3FDDF 
  91      19060CCA 
  91      9FE5F4
  92 0072 FF2706F0 		.ascii	"\377'\006\360\210z\214\001\262\241I\200\335U\214\031"
  92      887A8C01 
  92      B2A14980 
  92      DD558C19 
  93 0082 631C6435 		.ascii	"c\034d5\2777\006 k8\032\376\274\201\250^\000a\027\343"
  93      BF370620 
  93      6B381AFE 
  93      BC81A85E 
  93      006117E3 
  94 0096 06EEDA88 		.ascii	"\006\356\332\210j\023\336\014\303R\036*L\237\237\301"
ARM GAS  /tmp/cc26WhyB.s 			page 7


  94      6A13DE0C 
  94      C3521E2A 
  94      4C9F9FC1 
  95 00a6 23D21B3C 		.ascii	"#\322\033<)\377\233\235E\264\221\002.E\020\010\033h"
  95      29FF9B9D 
  95      45B49102 
  95      2E451008 
  95      1B68
  96 00b8 8029DD31 		.ascii	"\200)\3351\2434\003\237\353M\215\035\\$O\346\207\344"
  96      A334039F 
  96      EB4D8D1D 
  96      5C244FE6 
  96      87E4
  97 00ca 2BA2DAC8 		.ascii	"+\242\332\310\031|\366>Lo\310{9\366\035\0261\015\006"
  97      197CF63E 
  97      4C6FC87B 
  97      39F61D16 
  97      310D06
  98 00dd 2DAF999E 		.ascii	"-\257\231\236\337\263\205\245\324\213\314+\314\316^"
  98      DFB385A5 
  98      D48BCC2B 
  98      CCCE5E
  99 00ec 78F4E4E0 		.ascii	"x\364\344\340\003\374\236}\214@\271\032\350 \304\301"
  99      03FC9E7D 
  99      8C40B91A 
  99      E820C4C1 
 100 00fc C253D80C 		.ascii	"\302S\330\014\011\032`5M\307\222\324\304ki\310\352\250"
 100      091A6035 
 100      4DC792D4 
 100      C46B69C8 
 100      EAA8
 101 010e E10DD418 		.ascii	"\341\015\324\030\215\204\032&\024=1\030\224r(\345\217"
 101      8D841A26 
 101      143D3118 
 101      947228E5 
 101      8F
 102 011f 7DAE8331 		.ascii	"}\256\2031\013O\353e\241\365YG\255\222m=2\325\363\037"
 102      0B4FEB65 
 102      A1F55947 
 102      AD926D3D 
 102      32D5F31F 
 103 0133 61B03032 		.ascii	"a\26002\215\026\236%\311\267`\374\033\370W\356\225\365"
 103      8D169E25 
 103      C9B760FC 
 103      1BF857EE 
 103      95F5
 104 0145 3626046A 		.ascii	"6&\004j\002M\0326V\001\214\002\363Q\376\316\204\005"
 104      024D1A36 
 104      56018C02 
 104      F351FECE 
 104      8405
 105 0157 B80F777E 		.ascii	"\270\017w~\277\371t?\217\350\352\200\274\370t\353iH"
 105      BFF9743F 
 105      8FE8EA80 
 105      BCF874EB 
 105      6948
 106 0169 85E31390 		.ascii	"\205\343\023\220\037\037\271\370\"\330\242\005\316K"
ARM GAS  /tmp/cc26WhyB.s 			page 8


 106      1F1FB9F8 
 106      22D8A205 
 106      CE4B
 107 0177 A9A2CCF1 		.ascii	"\251\242\314\361\263\353\364C\321\016\011\000\202\256"
 107      B3EBF443 
 107      D10E0900 
 107      82AE
 108 0185 2983C543 		.ascii	")\203\305CX\230R\\\303~=|y\312\010cW\267\300\0276V\037"
 108      5898525C 
 108      C37E3D7C 
 108      79CA0863 
 108      57B7C017 
 109 019c 83A3BB89 		.ascii	"\203\243\273\211t\202\022IR\352*\241\032M\352\304\320"
 109      74821249 
 109      52EA2AA1 
 109      1A4DEAC4 
 109      D0
 110 01ad 72133070 		.ascii	"r\0230p``~\310#T\234\330z\303\321\012)F\261y\020;\251"
 110      60607EC8 
 110      23549CD8 
 110      7AC3D10A 
 110      2946B179 
 111 01c4 A15F95C1 		.ascii	"\241_\225\301jC\230\021\300j+\302\346\206\260X\000\253"
 111      6A439811 
 111      C06A2BC2 
 111      E686B058 
 111      00AB
 112 01d6 AB08E321 		.ascii	"\253\010\343!,\036\300\032T\001\362U\241G\0137\316M"
 112      2C1EC01A 
 112      5401F255 
 112      A1470B37 
 112      CE4D
 113 01e8 DCC44303 		.ascii	"\334\304C\003\362\276\034\364\310kKl\254c\260\351]6"
 113      F2BE1CF4 
 113      C86B4B6C 
 113      AC63B0E9 
 113      5D36
 114 01fa 55737529 		.ascii	"Usu)z\231\204\374\337\017\006\316,\016,\023z\307{\371"
 114      7A9984FC 
 114      DF0F06CE 
 114      2C0E2C13 
 114      7AC77BF9 
 115 020e D331FEB9 		.ascii	"\3231\376\271\205\227\264c\202\271\337\276}\236\374"
 115      8597B463 
 115      82B9DFBE 
 115      7D9EFC
 116 021d 281AEDFB 		.ascii	"(\032\355\373\213d\364\263\025\244\250 Y\204\177f\244"
 116      8B64F4B3 
 116      15A4A820 
 116      59847F66 
 116      A4
 117 022e DF551AD2 		.ascii	"\337U\032\322:\367?\357&\030\307\343\362\360*\033\353"
 117      3AF73FEF 
 117      2618C7E3 
 117      F2F02A1B 
 117      EB
 118 023f 4BA2BF5E 		.ascii	"K\242\277^\237\014\326\033\374\374\224\033\037\337\215"
ARM GAS  /tmp/cc26WhyB.s 			page 9


 118      9F0CD61B 
 118      FCFC941B 
 118      1FDF8D
 119 024e DCD818B9 		.ascii	"\334\330\030\271\361\003\021\010\246f\350\331i\343\207"
 119      F1031108 
 119      A666E8D9 
 119      69E387
 120 025d BE443E96 		.ascii	"\276D>\226>\214yZ!/\036\232tX\233\264Q\313;\362\313"
 120      3E8C795A 
 120      212F1E9A 
 120      74589BB4 
 120      51CB3BF2 
 121 0272 95192C96 		.ascii	"\225\031,\226X&ml$\253PF\363\011\2442\203\300%\211H"
 121      58266D6C 
 121      24AB5046 
 121      F309A432 
 121      83C02589 
 122 0287 A9054C9B 		.ascii	"\251\005L\233%?\376\274\002\233WfW\205\337\214:\314"
 122      253FFEBC 
 122      029B5766 
 122      5785DF8C 
 122      3ACC
 123 0299 9EC293E9 		.ascii	"\236\302\223\351D\220 DgY(\242\252j\352\"\225\375\342"
 123      44902044 
 123      675928A2 
 123      AA6AEA22 
 123      95FDE2
 124 02ac F2FACE4C 		.ascii	"\362\372\316L\226\327\327\302\313Z\360w\026\030\336"
 124      96D7D7C2 
 124      CB5AF077 
 124      1618DE
 125 02bb 56E03F8E 		.ascii	"V\340?\216\253\002\337.-\360\211\332\246\350\372\210"
 125      AB02DF2E 
 125      2DF089DA 
 125      A6E8FA88 
 126 02cb A6479F15 		.ascii	"\246G\237\025UZ\253\"\350xo\026\333\302\021z\211\"\207"
 126      555AAB22 
 126      E8786F16 
 126      DBC2117A 
 126      892287
 127 02de C5B5F01A 		.ascii	"\305\265\360\0326\025_\004\206\276p&\340\326\237\321"
 127      36155F04 
 127      86BE7026 
 127      E0D69FD1 
 128 02ee 45A20AB8 		.ascii	"E\242\012\270\002~\220{\325eI\240\207t\257+]\264\234"
 128      027E907B 
 128      D56549A0 
 128      8774AF2B 
 128      5DB49C
 129 0301 538081B2 		.ascii	"S\200\201\262\354\302\317\363H,~\375q\215\272\301Pm"
 129      ECC2CFF3 
 129      482C7EFD 
 129      718DBAC1 
 129      506D
 130 0313 A4627CD2 		.ascii	"\244b|\322\332j\266u\333\235\366\327\035f\3065\2639"
 130      DA6AB675 
 130      DB9DF6D7 
ARM GAS  /tmp/cc26WhyB.s 			page 10


 130      1D66C635 
 130      B339
 131 0325 D3CD0A53 		.ascii	"\323\315\012Stw\365\367Z\216-Z\005\260\\\037\337\356"
 131      7477F5F7 
 131      5A8E2D5A 
 131      05B05C1F 
 131      DFEE
 132 0337 F6B15C97 		.ascii	"\366\261\\\227Y\212\025\031\307\311\364\232}\231l\316"
 132      598A1519 
 132      C7C9F49A 
 132      7D996CCE 
 133 0347 3557AF6D 		.ascii	"5W\257mok\337AD\221\311\2467o[\351\264vCl\233\325\263"
 133      6F6BDF41 
 133      4491C9A6 
 133      376F5BE9 
 133      B476436C 
 134 035e 35BDBC22 		.ascii	"5\275\274\"+\275#g\266\265w\254\3510\355^\321\263\265"
 134      2BBD2367 
 134      B6B577AC 
 134      E930ED5E 
 134      D1B3B5
 135 0371 2B6D0AC7 		.ascii	"+m\012\307\265\335\315[\204 \346\233YE\250n\267\337"
 135      B5DDCD5B 
 135      8420E69B 
 135      5945A86E 
 135      B7DF
 136 0383 25447D7B 		.ascii	"%D}{\307\332T\247\345\246\373\262\366\227\251O\227\001"
 136      C7DA54A7 
 136      E5A6FBB2 
 136      F697A94F 
 136      9701
 137 0395 CB42C249 		.ascii	"\313B\302I;\231l?\374\017\267\350\241\221"
 137      3B996C3F 
 137      FC0FB7E8 
 137      A191
 138              		.text
 139              		.section	.gnu.lto_.symbol_nodes.b17871176f03c638,"",%progbits
 140 0000 789C45CD 		.ascii	"x\234E\315\273\015\2000\014\004\320;;\254\301\252\216"
 140      BB0D8030 
 140      0C04D03B 
 140      3BACC1AA 
 140      8E
 141 0011 940244C5 		.ascii	"\224\002D\305\0044\331\207\031\220\030\200\237(A\204"
 141      0434D987 
 141      19901880 
 141      9F284184 
 142 0021 8F889BD3 		.ascii	"\217\210\233\323\273+,\020\324\370N&\032\320\366\200"
 142      BB2B2C10 
 142      D4F84E26 
 142      1AD0F680 
 143 0031 59575366 		.ascii	"YWSf\0323\271\321\344\245\367\344J\323\254\205\346\262"
 143      1A33B9D1 
 143      E4A5F7E4 
 143      4AD3AC85 
 143      E6B2
 144 0043 765AF14B 		.ascii	"vZ\361K\341\020\2063\245\"TG\251\351\345x'\213\267O"
 144      E1108633 
ARM GAS  /tmp/cc26WhyB.s 			page 11


 144      A5225447 
 144      A9E9E578 
 144      278BB74F 
 145 0057 4B7C2C88 		.ascii	"K|,\210\315Q\342\002\210\263)\357"
 145      CD51E202 
 145      88B329EF 
 146              		.text
 147              		.section	.gnu.lto_.refs.b17871176f03c638,"",%progbits
 148 0000 789C6362 		.ascii	"x\234cb`b`d\200\002\000\000F\000\006"
 148      60626064 
 148      80020000 
 148      460006
 149              		.text
 150              		.section	.gnu.lto_.decls.b17871176f03c638,"",%progbits
 151 0000 789CBD3B 		.ascii	"x\234\275;{t\024\345\275\3377\373H\226\204G\365\350"
 151      7B7414E5 
 151      BDDF37FB 
 151      48968447 
 151      F5E8
 152 0012 09AD3DC6 		.ascii	"\011\255=\306\236\332\323\253\205E\244\026{n\253\226"
 152      9EDAD3AB 
 152      8545A416 
 152      7B6EAB96 
 153 0022 F68AE75E 		.ascii	"\366\212\347^\357\365\224zz\357\351\271w;l\206\354\226"
 153      EFF5947A 
 153      7AEFE9B9 
 153      773B6C86 
 153      EC96
 154 0034 7D757642 		.ascii	"}uvB\340\376\343$P^>\022y\224\360\016\022\024\024QD"
 154      E0FEE324 
 154      505E3E12 
 154      7994F00E 
 154      12141451 
 155 0049 1105EDA2 		.ascii	"\021\005\355\242\222D@\010\244\030\251U\226\227<j\201"
 155      92444008 
 155      A418A955 
 155      96973C6A 
 155      81
 156 005a 182946C4 		.ascii	"\030)F\304\364\367\375ffwfvfv6\324\3169\3377\257\357"
 156      F4F7FD66 
 156      66776676 
 156      667636D4 
 156      CE39DF37 
 157 0070 F77E7CBF 		.ascii	"\367~|\277\357\233]\216p\244\222#d\000\216\330xBV\226"
 157      EF9B5D8E 
 157      70A49223 
 157      64008ED8 
 157      78425696 
 158 0084 11E22184 		.ascii	"\021\342!\204\374\230(g\012\315\017\315G\224\203]\257"
 158      FC982867 
 158      0ACD0FCD 
 158      4794835D 
 158      AF
 159 0095 610D5EFC 		.ascii	"a\015^\374\001\332[\320\336\203\366!%\005\007\033W\005"
 159      01DA5BD0 
 159      DE83F621 
 159      2505071B 
ARM GAS  /tmp/cc26WhyB.s 			page 12


 159      5705
 160 00a7 6D2DB461 		.ascii	"m-\264a\320*\241\335\005m7\214=\007\347cT\301{\030\316"
 160      D02AA1DD 
 160      056D378C 
 160      3D07E763 
 160      54C17B18 
 161 00bc A7E0BC0D 		.ascii	"\247\340\274\015Z\023\\o\207\363q8\237d\317\241\235"
 161      5A135C6F 
 161      87F37138 
 161      9F64CFA1 
 161      9D
 162 00cd 86B68B8D 		.ascii	"\206\266\213\215\205\326\246\362t\206*\274d\340\014"
 162      85D6A6F2 
 162      74862ABC 
 162      64E00C
 163 00dc 2C9377E0 		.ascii	",\223w\340\274\017Z\027\264\203\320\272\241\035\202"
 163      BC0F5A17 
 163      B483D0BA 
 163      A11D82
 164 00eb E6851650 		.ascii	"\346\205\026Pya|\236e\264\241\365\252\2743\031>\207"
 164      79617C9E 
 164      65B4A1F5 
 164      AABC3319 
 164      3E87
 165 00fd 7645C5B7 		.ascii	"vE\305\267\004\316K\241-\203\266\034\332\012h\253L\262"
 165      04CE4BA1 
 165      2D83B61C 
 165      DA0A68AB 
 165      4CB2
 166 010f 31D9BF61 		.ascii	"1\331\277a#\027\223\207\311\006j%GT\271j\341\274\216"
 166      23179387 
 166      C9066A25 
 166      4754B96A 
 166      E1BC8E
 167 0122 F14E072F 		.ascii	"\361N\007/c@'\343\3636r\376\217&\253j\217b\262n\203"
 167      634027E3 
 167      F33672FE 
 167      8F26AB6A 
 167      8F62B26E 
 168 0137 F3AB8C17 		.ascii	"\363\253\214\027h;\240\275\006\215rFYo$\253\344\326"
 168      683BA0BD 
 168      068D7246 
 168      596F24AB 
 168      E4D6
 169 0149 6C76D7D9 		.ascii	"lv\327\331\367\350R93K\036\030x\210\\O\026\313p\264"
 169      F7E85239 
 169      334B1E18 
 169      78885C4F 
 169      16CB70B4 
 170 015d CE96652A 		.ascii	"\316\226e*U\220\371\262\334\310n&v\016\273\206<\316"
 170      5590F9B2 
 170      DCC86E26 
 170      760EBB86 
 170      3CCE
 171 016f DE547782 		.ascii	"\336Tw\202Z\376\233\362tX\200\264z\361\2522@~\012\350"
 171      5AFE9BF2 
 171      745880B4 
ARM GAS  /tmp/cc26WhyB.s 			page 13


 171      7AF1AA32 
 171      407E0AE8 
 172 0183 6E266DB2 		.ascii	"n&m\262\334\234]z\245\333#\313\345<m\243\327\200\246"
 172      DC9C5D7A 
 172      A5DB23CB 
 172      E53C6DA3 
 172      D780A6
 173 0196 FE9D925B 		.ascii	"\376\235\222[\310\006\000l\006T\267Zx\022)\212\230#"
 173      C806006C 
 173      0654B75A 
 173      7812298A 
 173      9823
 174 01a8 BFA284A7 		.ascii	"\277\242\204\247\353\001\037O\237\242\267(\224\344\354"
 174      EB011F4F 
 174      9FA2B728 
 174      94E4EC
 175 01b7 F2391F34 		.ascii	"\3629\0374\322\006`TyG\324\267\026\307M\244\025\000"
 175      D2066054 
 175      7947D4B7 
 175      16C74DA4 
 175      1500
 176 01c9 329776AF 		.ascii	"2\227v\257\240r\353\033\324\202\342\335\032\301r\235"
 176      A072EB1B 
 176      D482E2DD 
 176      1AC1729D 
 177 01d9 246B1EBD 		.ascii	"$k\036\275\017%\331\210\222\314\245\324@A\305\322z\267"
 177      0F25D988 
 177      92CCA5D4 
 177      4041C5D2 
 177      7AB7
 178 01eb 1D1A8EB4 		.ascii	"\035\032\216\264 \310s\005\214w\354\327\030\177\316"
 178      20C87305 
 178      8C77ECD7 
 178      187FCE
 179 01fa 05E38D99 		.ascii	"\005\343\215\231\003\363W\216d\214\363t-\255\000\274"
 179      03F3578E 
 179      648CF374 
 179      2DAD00BC 
 180 020a 1B727855 		.ascii	"\033rxU\272\325\032]/!\332\245r\250\003\214\370\016"
 180      BAD51A5D 
 180      2F21DAA5 
 180      72A8038C 
 180      F80E
 181 021c EEAE6CE6 		.ascii	"\356\256l\3465d\233JFVm\305\252r\350\245\345\351fz3"
 181      35649B4A 
 181      46566DC5 
 181      AA72E8A5 
 181      E5E9667A 
 182 0231 F42FD09B 		.ascii	"\364/\320\233\240\177\021\372\334\301\221-T\263\251"
 182      A07F11FA 
 182      DCC1912D 
 182      54B3A9
 183 0240 95EA8A8B 		.ascii	"\225\352\212\213\320\277{\005\252$@\346\346}\224X\212"
 183      D0BF7B05 
 183      AA2440E6 
 183      E67D9458 
 183      8A
ARM GAS  /tmp/cc26WhyB.s 			page 14


 184 0251 A09AB3EF 		.ascii	"\240\232\263\357\341\267\016\320\231\250\365m\000\306"
 184      E1B70ED0 
 184      99A8F56D 
 184      00C6
 185 025f 914F4D06 		.ascii	"\221OM\006u\217\252\277i\327N\332\210\250\266#\252\013"
 185      758FAABF 
 185      69D74EDA 
 185      88A8B623 
 185      AA0B
 186 0271 DC6051F5 		.ascii	"\334`Q\365-\331q':\331\353\210\350K\217\021\021O\313"
 186      2DD97127 
 186      3AD9EB88 
 186      E84B8F11 
 186      114FCB
 187 0284 7292E7EE 		.ascii	"r\222\347\356\265\001\014\033\276V/X\242\037N\276\342"
 187      B5010C1B 
 187      BE562F58 
 187      A21F4EBE 
 187      E2
 188 0295 E11C99E7 		.ascii	"\341\034\231\3475\231\316\312a\312\355L'g\227u|\310"
 188      3599CECA 
 188      61CAED4C 
 188      27679775 
 188      7CC8
 189 02a7 B184E3D1 		.ascii	"\261\204\343\321\"\310o\247#\216<\206\264\3364G\320"
 189      22C86FA7 
 189      238E3C86 
 189      B4DE3447 
 189      D0
 190 02b8 A5639DFF 		.ascii	"\245c\235\377\322\"\313#\224W\305\003\350\245\335K\320"
 190      D222CB23 
 190      9457C503 
 190      E8A5DD4B 
 190      D0
 191 02c9 5B8A6634 		.ascii	"[\212f4N#\377m$\337\201\344;\315\344{>\352\374\225B"
 191      4E23FF6D 
 191      24DF81E4 
 191      3BCDE47B 
 191      3EEAFC95 
 192 02de BED315F9 		.ascii	"\276\323\025\371Wz\026\025\222\347\351\217\257s\362"
 192      577A1615 
 192      92E7E98F 
 192      AF73F2
 193 02ed 8C4BC74E 		.ascii	"\214K\307N\337\260\032\211\354\3058\235\3513\273\306"
 193      DFB01A89 
 193      ECC5389D 
 193      E933BBC6 
 194 02fd 5D1546E3 		.ascii	"]\025F\343\301\275n\000G\036\361i\334\017*M\200\230"
 194      C1BD6E00 
 194      471EF169 
 194      DC0F2A4D 
 194      8098
 195 030f A7FF77C3 		.ascii	"\247\377w\303\013\262<\317\257\361\320T2\306j\203\""
 195      0BB23CCF 
 195      AFF1D054 
 195      32C66A83 
 195      22
ARM GAS  /tmp/cc26WhyB.s 			page 15


 196 0320 76F460E2 		.ascii	"v\364`\342Q\220-p\203\314\326\217\0323\257\353\221-"
 196      51902D70 
 196      83CCD68F 
 196      1A33AFEB 
 196      912D
 197 0332 2E199991 		.ascii	".\031\231\221\263.=\262\0267\310F\330svP\217ly\311\310"
 197      B32E3DB2 
 197      1637C846 
 197      D8737650 
 197      8F6C79C9 
 198 0347 8C9CFD51 		.ascii	"\214\234\375Q\217l\225\033dU\366\234\275\253G\366D\311"
 198      8F6C951B 
 198      6455F69C 
 198      BDAB47F6 
 198      44C9
 199 0359 C88C9CBD 		.ascii	"\310\214\234\275\247G\366\244\033d\325\026\234\345\016"
 199      A747F6A4 
 199      1B64D516 
 199      9CE50E
 200 0368 2B38E6D6 		.ascii	"+8\346\326\0354\347\3470\365\371\264\204P\242O\223<"
 200      1D34E7E7 
 200      30F5F9B4 
 200      8450A24F 
 200      933C
 201 037a 8E8DBE52 		.ascii	"\216\215\276R\023\230An\230\277\217<A\027\316\224;\307"
 201      1398416E 
 201      98BF8F3C 
 201      4117CE94 
 201      3BC7
 202 038c 6873E8F3 		.ascii	"hs\350\363n0:8L\363\036\335\204\274\265ddF\263\254b"
 202      6E303A38 
 202      4CF31EDD 
 202      84BCB564 
 202      6446B3AC 
 203 03a1 C80CA946 		.ascii	"\310\014\251F\235\216\262\3532U-\371dW\256\341bU\231"
 203      9D8EB2EB 
 203      32552DF9 
 203      6457AEE1 
 203      625599
 204 03b4 92D9A048 		.ascii	"\222\331\240H\343r\203\345\252*\353\261<=\203\023\373"
 204      E37283E5 
 204      AA2AEBB1 
 204      3C3D8313 
 204      FB
 205 03c5 591AC871 		.ascii	"Y\032\310q\241\\kW\003\224\351y\207\317\252\336C\004"
 205      A15C6B57 
 205      0394E979 
 205      87CFAADE 
 205      4304
 206 03d7 CEA0769E 		.ascii	"\316\240v\236pJ\357\011;\335\250\311!\024\272\354\324"
 206      704AEF09 
 206      3BDDA8C9 
 206      2114BAEC 
 206      D4
 207 03e8 94992DCF 		.ascii	"\224\231-\317\245\015\233op,\016!;\177\363i\314\316"
 207      A50D9B6F 
 207      702C0E21 
ARM GAS  /tmp/cc26WhyB.s 			page 16


 207      3B7FF369 
 207      CCCE
 208 03fa E771E26E 		.ascii	"\347q\342n\367YV\000\256p\3657\355\327\312\211O\020"
 208      F7595600 
 208      AE70F537 
 208      EDD7CA89 
 208      4F10
 209 040c D981C123 		.ascii	"\331\201\301#k\355\353\271A\366\362\364\"\"\372S\301"
 209      6BEDEBB9 
 209      41F6F2F4 
 209      2222FA53 
 209      C1
 210 041d 9C113095 		.ascii	"\234\0210\225\023\001\343\204\037\010\344/\006\264\303"
 210      1301E384 
 210      1F08E42F 
 210      06B4C3
 211 042c 68C5AF14 		.ascii	"h\305\257\024\306\316\362\347\364\226?Y\262\345\015"
 211      C6CEF2E7 
 211      F4963F59 
 211      B2E50D
 212 043b 010205C8 		.ascii	"\001\002\005\310\337\270%r\246\301\243su\307\270\200"
 212      DFB82572 
 212      A6C1A373 
 212      75C7B880 
 213 044b 326DCFEB 		.ascii	"2m\317\353?\3022\355s\324\353\307\326\006r\201\250\277"
 213      3FC232ED 
 213      73D4EBC7 
 213      D6067281 
 213      A8BF
 214 045d E9D95B11 		.ascii	"\351\331[\021\321\025Dtq\320\210\372\226\254\032\217"
 214      D1154474 
 214      71D088FA 
 214      96AC1A8F 
 215 046d 8858C472 		.ascii	"\210X\304r\344J\201\245\251\311\322\324h\201\\\320\251"
 215      E44A81A5 
 215      A9C9D2D4 
 215      68815CD0 
 215      A9
 216 047e 31F7558D 		.ascii	"1\367U\215\345\310\034\277\311\\\006q\034f\206\\\272"
 216      E5C81CBF 
 216      C95C0671 
 216      1C66865C 
 216      BA
 217 048f FD6201ED 		.ascii	"\375b\001\355k\224[\306\224\240\235\207U{\375\016\265"
 217      6B945BC6 
 217      94A09D87 
 217      557BFD0E 
 217      B5
 218 04a0 F3A8DFAC 		.ascii	"\363\250\337\254\235+%\252\007*\214\222\305(7\2121g"
 218      9D2B25AA 
 218      072A8C92 
 218      C528378A 
 218      3167
 219 04b2 601062FC 		.ascii	"`\020b\374A\021c>\212\261\374\037 \306\332\222\305\030"
 219      4111633E 
 219      8AB1FC1F 
 219      20C6DA92 
ARM GAS  /tmp/cc26WhyB.s 			page 17


 219      C518
 220 04c4 A1130317 		.ascii	"\241\023\003\027\257\213\224\311\357Z\262\300\271|g"
 220      AF8B94C9 
 220      EF5AB2C0 
 220      B97C67
 221 04d3 FC3471D7 		.ascii	"\3744q\327\032j\347\314\241}\264Zy\\|\301\336\267O\267"
 221      1A6AE7CC 
 221      A17DB45A 
 221      795C7CC1 
 221      DEB74FB7 
 222 04e7 C8935D2D 		.ascii	"\310\223]-\247\366\344\026y\013Pe\353\375\026\001\346"
 222      A7F6E416 
 222      790B5065 
 222      EBFD1601 
 222      E6
 223 04f8 06556BFF 		.ascii	"\006Uk\377\376\353X\"]\214h6\015\026M\266\257\347e%"
 223      FEEB5822 
 223      5D8C6836 
 223      0D164DB6 
 223      AFE76525 
 224 050c 4E5B10D1 		.ascii	"N[\020\321\326\002\023\372M\026\364\033-\010\267\214"
 224      D60213FA 
 224      4D16F41B 
 224      2D08B78C 
 225 051c D2679820 		.ascii	"\322g\230 \037R\237\260\2332\362O\207\343H\006\331g"
 225      1F529FB0 
 225      9B32F24F 
 225      87E34806 
 225      D967
 226 052e D62BB1FC 		.ascii	"\326+\261\374\322\274g\316\211\205Z\351\244\030\250"
 226      D2BC67CE 
 226      89855AE9 
 226      A418A8
 227 053d E3AA3036 		.ascii	"\343\25206fV7i{#w\261\342\251\353*\321\355\330o\256"
 227      66563769 
 227      7B2377B1 
 227      E2A9EB2A 
 227      D1EDD86F 
 228 0552 0A4C8BB6 		.ascii	"\012L\213\2666\233iG\3334\332\374\310\367\320\334Op"
 228      369B6947 
 228      DB34DAFC 
 228      C8F7D0DC 
 228      4F70
 229 0564 8C9D9E02 		.ascii	"\214\235\236\002s\257\245\246U\033{\240\033b\027Hk8"
 229      73AFA5A6 
 229      551B7BA0 
 229      1B621748 
 229      6B38
 230 0576 DD0C78F6 		.ascii	"\335\014x\366j\315\320q\321d\206\013W\251\267~\325\014"
 230      6ACDD071 
 230      D164860B 
 230      57A9B77E 
 230      D50C
 231 0588 C556D8BF 		.ascii	"\305V\330\277\326pU\242 \237!\331\2479\363\016\331\347"
 231      D67055A2 
 231      209F21D9 
 231      A739F30E 
ARM GAS  /tmp/cc26WhyB.s 			page 18


 231      D9E7
 232 059a D9D96A45 		.ascii	"\331\331jE\304\336\025\317\024\357\237\014\310\013*"
 232      C4DE15CF 
 232      14EF9F0C 
 232      C80B2A
 233 05a9 95AD3A9E 		.ascii	"\225\255:\236n\245\234\212\325\252P*\252\236\314\207"
 233      6EA59C8A 
 233      D5AA502A 
 233      AA9ECC87 
 234 05b9 42E79852 		.ascii	"B\347\230RrN\273\226s\236C]>Uf6:K\"\006\243\227\024"
 234      724EBB96 
 234      739E435D 
 234      3E556636 
 234      3A4B2206 
 235 05d0 74CF9651 		.ascii	"t\317\226Q\2438n\027\312\271\303\316\2516\350\235js"
 235      A3386E17 
 235      CAB9C3CE 
 235      A936E89D 
 235      6A73
 236 05e2 D955B900 		.ascii	"\331U\271\0008U{\233\342T\305\234@\246\372e\014G\266"
 236      38557B9B 
 236      E254C59C 
 236      40A6FA65 
 236      0C47B6
 237 05f5 21E5AD66 		.ascii	"!\345\255f/X\370e\347\034u\237t\253+/\270h\341\005["
 237      2F58F865 
 237      E71C759F 
 237      74AB2B2F 
 237      B868E105 
 238 060a 07E905E0 		.ascii	"\007\351\005\340\322g\336\246\210NY\226\035\3171Y\242"
 238      D267DEA6 
 238      884E5996 
 238      1DCF3159 
 238      A2
 239 061b 1554745F 		.ascii	"\025Tt_\010\245*F\361\257\314\341\223l\306|\235c\233"
 239      08A52A46 
 239      F1AFCCE1 
 239      936CC67C 
 239      9D639B
 240 062e D0670A5C 		.ascii	"\320g\012\\K\321\214\316\265\362j\344\3516\216\255\323"
 240      4BD18CCE 
 240      B5F26AE4 
 240      E9368EAD 
 240      D3
 241 063f 5EE1D806 		.ascii	"^\341\330\006\354\253\330\357\340t\333\260vn\361Z\336"
 241      ECABD8EF 
 241      E074DBB0 
 241      766EF15A 
 241      DE
 242 0650 2D78BAC5 		.ascii	"-x\272\305\254F\267\253\345\242d^\322{_\357Uz\337\262"
 242      AC46B7AB 
 242      E5A2645E 
 242      D27B5FEF 
 242      557ADFB2 
 243 0664 8E7D5EDC 		.ascii	"\216}^\334U,a\357u\317.-p\337\304\300\375\254@\273\333"
 243      552C61EF 
 243      75CF2E2D 
ARM GAS  /tmp/cc26WhyB.s 			page 19


 243      70DFC4C0 
 243      FDAC40BB 
 244 0679 CDF5959B 		.ascii	"\315\365\225\233\015\322Y\345\203\024%wp\344\341r\027"
 244      0DD259E5 
 244      83142577 
 244      70E4E172 
 244      17
 245 068a 6B9C6A0B 		.ascii	"k\234j\013\255\347&\332w\3252\255\350.\2536s\235|d\""
 245      ADE726DA 
 245      77D532AD 
 245      E82EAB36 
 245      739D7C64 
 246 069f CE5C6FA3 		.ascii	"\316\\o\243\247=Zn\375\271\303a\263v\005\202\354-H\346"
 246      A73D5A6E 
 246      FDB9C361 
 246      B3760582 
 246      EC2D48E6 
 247 06b3 73F66A9F 		.ascii	"s\366j\237;\366\272\010\343\306\314\026\303\347\016"
 247      3BF6BA08 
 247      E3C6CC16 
 247      C3E70E
 248 06c2 CD03F73A 		.ascii	"\315\003\367:{\240\243>\015&\334\253\013\220}\030 \373"
 248      7BA0A33E 
 248      0D26DCAB 
 248      0B907D18 
 248      20FB
 249 06d4 F541C191 		.ascii	"\365A\301\221\215nt\377];W\2044tP\371\316\244}9z\321"
 249      8D6E74FF 
 249      5D3B5784 
 249      347450F9 
 249      CEA47D39 
 250 06ea 8CCF2A11 		.ascii	"\214\317*\021\031\360\351m\331\230i\356\306\335!\305"
 250      19F0E96D 
 250      D99869EE 
 250      C6DD21C5 
 251 06fa 475F73C3 		.ascii	"G_s\303\334\030{d\253\027j\312}\011+\224v7\370\306\333"
 251      DC187B64 
 251      AB176ACA 
 251      7D092B94 
 251      7637F8C6 
 252 070f 09DB9879 		.ascii	"\011\333\230y\271{\205\212O\371\252\262\257d|F\376\016"
 252      B97B858A 
 252      4FF9AAB2 
 252      AF647C46 
 252      FE0E
 253 0721 2D34D473 		.ascii	"-4\324s=n\320\335\355\332\366\371\217\2100\241\342&"
 253      3D6ED0DD 
 253      EDDAF6F9 
 253      8F8830A1 
 253      E226
 254 0733 D633F875 		.ascii	"\3263\370u\352e\354\337\300\376\030\366'\260\377\010"
 254      EA65ECDF 
 254      C0FE18F6 
 254      27B0FF08 
 255 0743 FBBF62DF 		.ascii	"\373\277b\337\217\375,L\243\363\260\177\014\373N\354"
 255      8FFD2C4C 
 255      A3F3B07F 
ARM GAS  /tmp/cc26WhyB.s 			page 20


 255      0CFB4EEC 
 256 0753 0F60DF8D 		.ascii	"\017`\337\215\375!\354{\260?\354&\341\272\254\001\237"
 256      FD21EC7B 
 256      B03FEC26 
 256      E1BAAC01 
 256      9F
 257 0764 A0D7E395 		.ascii	"\240\327\343\225\207\340\247\\\313\331d\356\361\374"
 257      87E0A75C 
 257      CBD964EE 
 257      F1FC
 258 0772 368A9CFB 		.ascii	"6\212\234\373\234\301t\254\306\371\345'w\216\334\201"
 258      9CC174AC 
 258      C6F9E527 
 258      778EDC81 
 259 0782 3B571F60 		.ascii	";W\037`\240\317\017X\006\272\003\"\216\264 L\326\024"
 259      A0CF0F58 
 259      06BA0322 
 259      8EB4204C 
 259      D614
 260 0794 E9998573 		.ascii	"\351\231\205s*\331\222)\353*\312\027w\254(\254\030\015"
 260      2AD99229 
 260      EB2ACA17 
 260      77AC28AC 
 260      180D
 261 07a6 DF9FD105 		.ascii	"\337\237\321\005\354tq\2223\350\302}\326_\372\314\321"
 261      EC747192 
 261      33E8C27D 
 261      D65FFACC 
 261      D1
 262 07b7 1F3E87F2 		.ascii	"\037>\207\362\237R\252\265!\346\244\3573\345|\2371\347"
 262      9F52AAB5 
 262      21E6A4EF 
 262      33E57C9F 
 262      31E7
 263 07c9 FB02F90B 		.ascii	"\373\002\371\0135\347\253"
 263      35E7AB
 264 07d0 4C68A03C 		.ascii	"Lh\240<}\320\343hs\225\225\327\266\364Wm@VN`,~hb\305"
 264      7DD0E368 
 264      739595D7 
 264      B6F4576D 
 264      40564E60 
 265 07e9 B4F46022 		.ascii	"\264\364`\"\333\251\343\257\\\205\215\306\013\336q\344"
 265      DBA9E3AF 
 265      5C858DC6 
 265      0BDE71E4 
 266 07f9 2F4334F3 		.ascii	"/C4\363\015n\371p\371\311\2437\274\362\242,o\376\265"
 266      0D6EF970 
 266      F9C9A337 
 266      BCF2A22C 
 266      6FFEB5
 267 080c BA0790F1 		.ascii	"\272\007\220\361\353\275\305\220\336\324\"f{\3737\231"
 267      EBBDC590 
 267      DED42266 
 267      7BFB3799 
 268 081c 6B5C8049 		.ascii	"k\\\200I\221#\237\232\344,\216\205#\215\025\014\246"
 268      91239F9A 
 268      E42C8E85 
ARM GAS  /tmp/cc26WhyB.s 			page 21


 268      238D150C 
 268      A6
 269 082d AF603BA1 		.ascii	"\257`;\241\335S\255<.\356q=\263\233\276.\267>R\245\355"
 269      DD53AD3C 
 269      2EEE713D 
 269      B39BBE2E 
 269      B73E52A5 
 270 0842 D93E9643 		.ascii	"\331>\226C9\270e\302\221\366!P\037\026\375\035\000c"
 270      39B865C2 
 270      91F62150 
 270      1F16FD1D 
 270      0063
 271 0854 ACDF1C2A 		.ascii	"\254\337\034*\207\333YQ\327\357*R\336\237m\261\266R"
 271      87DB5951 
 271      D7EF2A52 
 271      DE9F6DB1 
 271      B652
 272 0866 7469E70E 		.ascii	"ti\347\016_\024Vp\375\2034wc\346\203v-\305+\021\263"
 272      5F145670 
 272      FD833477 
 272      63E68376 
 272      2DC52B11 
 273 087b 08F5560A 		.ascii	"\010\365V\012\276j\223`\034Yv\225\272\277\344^\367\015"
 273      BE6A9360 
 273      1C597695 
 273      BABFE45E 
 273      F70D
 274 088d 1E93EE7B 		.ascii	"\036\223\356{Q\367\354qq\335\367\315\326\246\243?c\210"
 274      51F7EC71 
 274      71DDF7CD 
 274      D6A6A33F 
 274      6388
 275 089f AE46BE19 		.ascii	"\256F\276\031\354\340ty\321\244\313\266\222\361\025"
 275      ECE07479 
 275      D1A4CBB6 
 275      92F115
 276 08ae EA72C360 		.ascii	"\352r\303`uiu\350c\214\247\027\261>\372\033\316d\237"
 276      756975E8 
 276      638CA717 
 276      B13EFA1B 
 276      CE649F
 277 08c1 612F7B0C 		.ascii	"a/{\014\265\322\246\012S*\261\242m\377c\200\314\212"
 277      B5D2A60A 
 277      532AB1A2 
 277      6DFF6380 
 277      CC8A
 278 08d3 7B5969A3 		.ascii	"{Yi\243,n^2\3432.\207t\227\356\004\311\352\012\275c"
 278      2C6E5E32 
 278      E3322E87 
 278      7497EE04 
 278      C9EA0ABD 
 279 08e8 28C87114 		.ascii	"(\310q\024\341\2742\205{\\L\314\177\316\307Q.\307\237"
 279      E1BC3285 
 279      7B5C4CCC 
 279      7FCEC751 
 279      2EC79F
 280 08fb 5216F3F9 		.ascii	"R\026\363\371{eG'w\277\215\352\337;Mo6?\000`H\232=\327"
ARM GAS  /tmp/cc26WhyB.s 			page 22


 280      7B654727 
 280      77BF8DEA 
 280      DF3B4D6F 
 280      363F0060 
 281 0913 1BA9E2C7 		.ascii	"\033\251\342\307}w\323J\337\366\235U\353qZi\3620\237"
 281      7D77D34A 
 281      DFF69D55 
 281      EB715A69 
 281      F2309F
 282 0926 3D52E138 		.ascii	"=R\3418\2550Rvl,\362\330O+\205\357\364\314\022\3234"
 282      AD305276 
 282      6C2CF2D8 
 282      4F2B85EF 
 282      F4CC12D3 
 283 093b C8915326 		.ascii	"\310\221S&6\276M\326\312\362\202\354\256\263\027|\260"
 283      36BE4DD6 
 283      CAF282EC 
 283      AEB3177C 
 283      B0
 284 094c 70F36A11 		.ascii	"p\363j\021v\031\207\255\2417Z2\245\232D\201\225\373"
 284      761987AD 
 284      A1375A32 
 284      A59A4481 
 284      95FB
 285 095e 85898A3D 		.ascii	"\205\211\212=x:\333\3039\202\241\325\024\260LO\373\263"
 285      783ADBC3 
 285      3982A1D5 
 285      14B04C4F 
 285      FBB3
 286 0970 10849C62 		.ascii	"\020\204\234b:\236~L\213\200\322<\305>Fq\033\356\262"
 286      3A9E7E4C 
 286      8B80D23C 
 286      C53E4671 
 286      1BEEB2
 287 0983 EF2C0286 		.ascii	"\357,\002\206~\240R<\334\376\224BQ\261HC\245\263\214"
 287      7EA0523C 
 287      DCFE9442 
 287      51B14843 
 287      A5B38C
 288 0996 6C9446B1 		.ascii	"l\224F\261\233Q\304ZxV\021(E\353\337!\353\260\216n\177"
 288      9B51C45A 
 288      78561128 
 288      45EBDF21 
 288      EBB08E6E 
 289 09ab 74E47C46 		.ascii	"t\344|FQ\331p\264\207S\255\371{\217\341\347\201\312"
 289      51D970B4 
 289      8753ADF9 
 289      7B8FE1E7 
 289      81CA
 290 09bd 8F03F197 		.ascii	"\217\003\361\227b\015\331\201\201\033M\236\313\220\332"
 290      620DD981 
 290      811B4D9E 
 290      CB90DA
 291 09cc 56A99EE2 		.ascii	"V\251\236\342U\252\335\216\240\352\301\233\217\365V"
 291      55AADD8E 
 291      A0EAC19B 
 291      8FF556
ARM GAS  /tmp/cc26WhyB.s 			page 23


 292 09db 290BF375 		.ascii	")\013\363u\036\226\031^\251\264\256Q\355\320`\251oN"
 292      1E96195E 
 292      A9B4AE51 
 292      EDD060A9 
 292      6F4E
 293 09ed FB8FB763 		.ascii	"\373\217\267cu\272\336U\336_h5\347\272X\003w \247\033"
 293      75BADE55 
 293      DE5F6835 
 293      E7BA5803 
 293      7720A71B 
 294 0a01 0BA61CBE 		.ascii	"\013\246\034\276Zy\352b\306\321\266\235\236\361\344"
 294      5A79EA62 
 294      C6D1B69D 
 294      9EF1E4
 295 0a10 17BF1B4B 		.ascii	"\027\277\033K\237pr\207\235\235\030\376\234\371\025"
 295      9F707287 
 295      9D9D18FE 
 295      9CF915
 296 0a1f 32EB073D 		.ascii	"2\353\007=\257-6\315k\335\250\207R\360U\033\360\265"
 296      AF2D36CD 
 296      6BDDA887 
 296      52F0551B 
 296      F0B5
 297 0a31 B4E39AF7 		.ascii	"\264\343\232\367\004\226\256\3478\027\3149n\200\352"
 297      0496AEE7 
 297      3817CC39 
 297      6E80EA
 298 0a40 0EBD67F0 		.ascii	"\016\275g\360t\203\207\315\013O{\330\214\360<\366/\270"
 298      748387CD 
 298      0B4F7BD8 
 298      8CF03CF6 
 298      2FB8
 299 0a52 9917DA3C 		.ascii	"\231\027\332<\026\363\202\343<\240\006u\261$y\244\322"
 299      16F382E3 
 299      3CA00675 
 299      B12479A4 
 299      D2
 300 0a63 3249AE7B 		.ascii	"2I\256{\372\250_I\222m\230@\372\225T\340\261K\005m\272"
 300      FAA85F49 
 300      926D9840 
 300      FA9554E0 
 300      B14B056D 
 301 0a78 04B21454 		.ascii	"\004\262\024TIM\271\316\026P\227\3532\207voR\222\226"
 301      494DB9CE 
 301      165097EB 
 301      3287766F 
 301      529296
 302 0a8b 21DFD982 		.ascii	"!\337\331\202\352\362\235|\211%\255&t\340\225\036g0"
 302      EAF29D7C 
 302      8925AD26 
 302      74E0951E 
 302      6730
 303 0a9d 7DAE5BAE 		.ascii	"}\256[\256\260\212s\335\352\"p\206l\327\275\333\234"
 303      B08A73DD 
 303      EA227086 
 303      6CD7BDDB 
 303      9C
ARM GAS  /tmp/cc26WhyB.s 			page 24


 304 0aae ED6CE054 		.ascii	"\355l\340T\373\275\\\230\355\262\315\354\353\324\034"
 304      FBBD5C98 
 304      EDB2CDEC 
 304      EBD41C
 305 0abd FAF8CCD6 		.ascii	"\372\370\314\326N\371\002[\326\271\237\2553\346\331"
 305      4EF9025B 
 305      D6B99FAD 
 305      33E6D9
 306 0acc 9AB191BB 		.ascii	"\232\261\221\273Y\300\025\256\0129\362\205\311\322\032"
 306      59C015AE 
 306      0A39F285 
 306      C9D21A
 307 0adb 6B6F5AB2 		.ascii	"koZ\262\326\267\275\367_W\276 \317\232'\1779\360\020"
 307      D6B7BDF7 
 307      5F57BE20 
 307      CF9A277F 
 307      39F010
 308 0aee 2D211BEF 		.ascii	"-!\033\357*\236\215!\340\250.\243erU\027\373\015\205"
 308      2A9E8D21 
 308      E0A82EA3 
 308      65725517 
 308      FB0D85
 309 0b01 BA7EBB02 		.ascii	"\272~\273\0025\263E\3265\216\345\351\333\020NE\207\261"
 309      35B345D6 
 309      358EE5E9 
 309      DB104E45 
 309      87B1
 310 0b13 817BCC19 		.ascii	"\201{\314\031r\271\222\235\367\270\312\221[f/\321\262"
 310      72B9929D 
 310      F7B8CA91 
 310      5B662FD1 
 310      B2
 311 0b24 8DCEABF7 		.ascii	"\215\316\253\367\014:{\275\252d\233s\270\321?o(-\021"
 311      0C3A7BBD 
 311      AA649B73 
 311      B8D13F6F 
 311      282D11
 312 0b37 59B501D9 		.ascii	"Y\265\001\331A=\262&7\310\034\276\032\274\337\376{\335"
 312      413DB226 
 312      37C81CBE 
 312      1ABCDFFE 
 312      7BDD
 313 0b49 F69A1684 		.ascii	"\366\232\026\204\245\34032\367\211\302\234R\206,r\303"
 313      A5E03332 
 313      F789C29C 
 313      52862C72 
 313      C3
 314 0b5a 9CC3CFD6 		.ascii	"\234\303\317\326.\347\314\240\213\330R\320U\233\314"
 314      2EE7CCA0 
 314      8BD852D0 
 314      559BCC
 315 0b69 AB65E5BD 		.ascii	"\253e\345\275\230\225\337\301|\274\017\373.\354\017"
 315      9895DFC1 
 315      7CBC0FFB 
 315      2EEC0F
 316 0b78 62DF8DFD 		.ascii	"b\337\215\375!\343Bd\331P\3636\216\342J:\334y\237#\245"
 316      21E34264 
ARM GAS  /tmp/cc26WhyB.s 			page 25


 316      D950F336 
 316      8EE24A3A 
 316      DC799F23 
 317 0b8d 61B78BAD 		.ascii	"a\267\213\255\016\375\014j\010\356MC\255\203\273\307"
 317      0EFD0C6A 
 317      08EE4D43 
 317      AD83BBC7 
 318 0b9d 32B82F3F 		.ascii	"2\270/?\271\363\273K\355\202\333a\017\354\2609\355\260"
 318      B9F3BB4B 
 318      ED82DB61 
 318      0FECB039 
 318      EDB0
 319 0baf DAD8769D 		.ascii	"\332\330v\235b\2617\305\221\267l\030\375\300\222\321"
 319      62B137C5 
 319      91B76C18 
 319      FDC092D1 
 320 0bbf E78F1DBD 		.ascii	"\347\217\035\275e\251\374\206\305\177E\034\371<b\346"
 320      65A9FC86 
 320      C57F451C 
 320      F93C62E6 
 321 0bcf B3CD5361 		.ascii	"\263\315Saf\244\307\206\221\243FFLk\227\303\016k\227"
 321      66A4C786 
 321      91A34646 
 321      4C6B97C3 
 321      0E6B97
 322 0be2 6379EB7C 		.ascii	"cy\353|\2154+\373\004-\303\224_\031\2520#4\030N\205"
 322      8D342BFB 
 322      042DC394 
 322      5F19AA30 
 322      2334184E 
 323 0bf7 39EEF91A 		.ascii	"9\356\371\032^\031\276\376\342\010;*'<\371_2V\006\362"
 323      5E19BEFE 
 323      E2083B2A 
 323      273CF95F 
 323      325606F2 
 324 0c0b 17D448BA 		.ascii	"\027\324H\272\332Dy\2746\256L\305s\262d\312\037\331"
 324      DA4479BC 
 324      36AE4CC5 
 324      73B264CA 
 324      1FD9
 325 0c1d 50F65BAB 		.ascii	"P\366[\253j\227\203\252N\345Ue\202\332m\023\315\014"
 325      6A9783AA 
 325      4EE55565 
 325      82DA6D13 
 325      CD0C
 326 0c2f EAB42D54 		.ascii	"\352\264-T\306\201\326\231<\024\363\252\314\205\354"
 326      C681D699 
 326      3C14F3AA 
 326      CC85EC
 327 0c3e 92F3BDFF 		.ascii	"\222\363\275\377\267\221\375\316\234\271\177\303,s\000"
 327      B791FDCE 
 327      9CB97FC3 
 327      2C7300
 328 0c4d 38CCBB7F 		.ascii	"8\314\273\177Q\035+\357K\034\371\3350\263#a\215\000"
 328      511D2BEF 
 328      4B1CF9DD 
 328      30B32361 
ARM GAS  /tmp/cc26WhyB.s 			page 26


 328      8D00
 329 0c5f C77AD983 		.ascii	"\307z\331\203\330\330\370\263P\037\030\374\354\343B"
 329      D8D8F8B3 
 329      501F18FC 
 329      ECE342
 330 0c6e 8707D6DE 		.ascii	"\207\007\326\336\375\250k\031T\004\262R\021\264\226"
 330      FDA86B19 
 330      5404B252 
 330      11B496
 331 0c7d 2B2421AD 		.ascii	"+$!\255\273\"r\316L\344\274%\221\276Oz'\366\347\345"
 331      BB2272CE 
 331      4CE4BC25 
 331      91BE4F7A 
 331      27F6E7E5 
 332 0c91 BFC9BDFC 		.ascii	"\277\311\275\374\237\230\003k;N\022\206\300z\307\300"
 332      9F98036B 
 332      3B4E1286 
 332      C07AC7C0 
 333 0ca1 2A8EE4C8 		.ascii	"*\216\344\310\373\303T\377T\013\257\003J\341\245\374"
 333      FBC354FF 
 333      540BAF03 
 333      4AE1A5FC 
 334 0cb1 9BE50C42 		.ascii	"\233\345\014B\364\332V^\352GQU\342\276\206\007\252r"
 334      F4DA565E 
 334      EA475155 
 334      E2BE8607 
 334      AA72
 335 0cc3 12F79A25 		.ascii	"\022\367\232%\376\324R\342%\347\017D\364\026\327\324"
 335      FED452E2 
 335      25E70F44 
 335      F416D7D4 
 336 0cd3 7ADE955A 		.ascii	"z\336\225Z?7\023\271lg\273\225V\266\273\354\212\310"
 336      3F3713B9 
 336      6C67BB95 
 336      56B6BBEC 
 336      8AC8
 337 0ce5 1533912F 		.ascii	"\0253\221/\035\023\321\021\007\217\227\2759\217\377"
 337      1D13D111 
 337      078F97BD 
 337      398FFF
 338 0cf4 16592377 		.ascii	"\026Y#wuew=\263\224\316\315\312\315 \376\000\325g\210"
 338      7565773D 
 338      B394CECD 
 338      CACD20FE 
 338      00D56788 
 339 0d08 D3F90CD1 		.ascii	"\323\371\014\321\225\253\231\276\216\2406\211\304<\214"
 339      95AB99BE 
 339      8EA03689 
 339      C43C8C
 340 0d17 A733BDA5 		.ascii	"\2473\275\245f\222Y^\353L2\322\240\000m\024\373I\347"
 340      6692595E 
 340      EB4C32D2 
 340      A0006D14 
 340      FB49E7
 341 0d2a 70D3F2C3 		.ascii	"p\323\362\303\314\005G\232\207S\025n\010\273\270i\364"
 341      CC05479A 
 341      8753156E 
ARM GAS  /tmp/cc26WhyB.s 			page 27


 341      08BBB869 
 341      F4
 342 0d3b E8E08448 		.ascii	"\350\340\204Htr\364\277&\005\223\351\240(\005\323b8"
 342      7472F4BF 
 342      260593E9 
 342      A02805D3 
 342      6238
 343 0d4d 188ED4CC 		.ascii	"\030\216\324\314H\360\361hxt\230|\247`D4\021\216\325"
 343      48F0F168 
 343      7874987C 
 343      A7604434 
 343      118ED5
 344 0d60 D508302A 		.ascii	"\325\0100*=#-\315H\011\351\321\021R.ED\201\257\011I"
 344      3D232DCD 
 344      4809E9D1 
 344      11522E45 
 344      4481AF09 
 345 0d75 FE7BFFF3 		.ascii	"\376{\377\363\301\352\011$\020\216\204\224G\337rB\000"
 345      C1EA0924 
 345      108E8494 
 345      47DF7242 
 345      00
 346 0d86 940078B8 		.ascii	"\224\000x\27022\035\372m\235P'\204\244\0219`\365\221"
 346      32321DFA 
 346      6D9D5027 
 346      84A41139 
 346      60F591
 347 0d99 37214C97 		.ascii	"7!L\227\274)Q\230\346\303\373\037\032q\206\223\361x"
 347      BC295198 
 347      E6C3FB1F 
 347      1A718693 
 347      F178
 348 0dab 32114C25 		.ascii	"2\021L%E)\035\274\347\347\367O\270\177:{\226\212\306"
 348      45291DBC 
 348      E7E7F74F 
 348      B87F3A7B 
 348      968AC6
 349 0dbe 04311DBC 		.ascii	"\0041\035\274w\302\004 \2451Z&\245\304h2\004\003\023"
 349      77C20420 
 349      A5315A26 
 349      A5C46832 
 349      040313
 350 0dd1 53B07D3F 		.ascii	"S\260}?\030I\306\205\240(\244\005^\014G\202\021^\254"
 350      1849C685 
 350      A028A405 
 350      5E0C4782 
 350      115EAC
 351 0de4 A9E74521 		.ascii	"\251\347E!\310\213\361\261\301\332px\024\\\214\022\342"
 351      C88BF1B1 
 351      C1DA7078 
 351      145C8C12 
 351      E2
 352 0df5 93859A1A 		.ascii	"\223\205\232\032\241&\367 \221L\010\243\004~rt\324\270"
 352      A126F720 
 352      914C08A3 
 352      047E7274 
 352      D4B8
ARM GAS  /tmp/cc26WhyB.s 			page 28


 353 0e07 D0F85163 		.ascii	"\320\370Qc\307\3346\356\267c\203\206\02799\323RM4!1"
 353      C7DC36EE 
 353      B7638386 
 353      173939D3 
 353      524D3421 
 354 0e1c 25D5C1F9 		.ascii	"%\325\301\371\366\261!i&\375\347Q\217\363\341H4!\004"
 354      F6B12169 
 354      26FDE751 
 354      8FF3E148 
 354      342104
 355 0e2f 4335C214 		.ascii	"C5\302\024\276.&\2054M\014\011\2054~\274L'\225L\177"
 355      BE2E2685 
 355      344D0C09 
 355      85347EBC 
 355      4C27954C 
 356 0e44 A1703221 		.ascii	"\241p2!\201\262ou\241\341H8)\012\200\250\002\001\001"
 356      81B26F75 
 356      A1E14838 
 356      290A80A8 
 356      020101
 357 0e57 55589A1E 		.ascii	"UX\232\036t\013\027\232\366\2038S\211(\324\002\337!"
 357      740B179A 
 357      F6833853 
 357      8928D402 
 357      DF21
 358 0e69 8913C771 		.ascii	"\211\023\307q\342\3679\361\016N\374\001'\216\347\304"
 358      E2F739F1 
 358      0E4EFC01 
 358      278EE7C4 
 359 0e79 3B3DE26D 		.ascii	";=\342mc\240\335\306\305D.\235\362\000r_B\250\027D_"
 359      63A0DDC6 
 359      C5442E9D 
 359      F200725F 
 359      42A81744 
 360 0e8e 32562388 		.ascii	"2V#\210\3360\250\312\013^*\014IKS\371X\2646\021\222"
 360      DE30A8CA 
 360      0B5E2A0C 
 360      494B53F9 
 360      58B43611 
 361 0ea3 50C1778C 		.ascii	"P\301w\214\013I\252l\354\322_\317O\346\323B\271\224"
 361      0B49AA6C 
 361      ECD25FCF 
 361      4FE6D342 
 361      B994
 362 0eb5 9678099C 		.ascii	"\226x\011\234\253\214\275\030\037\222\002\312\020\270"
 362      AB8CBD18 
 362      1F9202CA 
 362      10B8
 363 0ec3 F2E19B32 		.ascii	"\362\341\2332)\236\254\201\367\276)1\2766]&\211\302"
 363      299EAC81 
 363      F7BE2931 
 363      BE365D26 
 363      89C2
 364 0ed5 94346886 		.ascii	"\2244h\206\235|\361t-\000\252\312\002@\365\312/\326"
 364      9D7CF174 
 364      2D00AACA 
 364      0240F5CA 
ARM GAS  /tmp/cc26WhyB.s 			page 29


 364      2FD6
 365 0ee7 CC8057E5 		.ascii	"\314\200W\345\302\364\250\024\006`\177\275\224\234\374"
 365      C2F4A814 
 365      06607FBD 
 365      949CFC
 366 0ef6 9BD4356A 		.ascii	"\233\3245j,\000\250 \012\2110CZ/Ib\252,-$$\000\250\004"
 366      2C00A820 
 366      0A893043 
 366      5A2F4962 
 366      AA2C2D24 
 367 0f0e FF4E0B71 		.ascii	"\377N\013q>\025\001E\024\206\240.>\004\246#_8\001V\363"
 367      3E150145 
 367      1486A02E 
 367      3E04A623 
 367      5F380156 
 368 0f23 400F04E0 		.ascii	"@\017\004\340Q\252\034\340\343u`&'\330\2704\235\301"
 368      51AA1CE0 
 368      E3756026 
 368      27D8B834 
 368      9DC1
 369 0f35 26EB1382 		.ascii	"&\353\023\202X\206\243\231.$x\234\252\020\2461F\370"
 369      5886A399 
 369      2E24789C 
 369      AA10A631 
 369      46F8
 370 0f47 F4547824 		.ascii	"\364Tx$\324\263\013Z7L\213\270X4\015\344\206\353b\220"
 370      D4B30B5A 
 370      374C8BB8 
 370      58340DE4 
 370      86EB6290 
 371 0f5b 3D29ABE7 		.ascii	"=)\253\347\243R4Q[\016\374c\014\226\013)!\001\216]["
 371      A3523451 
 371      5B0EFC63 
 371      0C960B29 
 371      21018E5D 
 372 0f70 0628D908 		.ascii	"\006(\331\0100%\037c\216\344\213\247\222\311\330\367"
 372      30251F63 
 372      8EE48BA7 
 372      92C9D8F7 
 373 0f80 2C3D2199 		.ascii	",=!\231\216E'\353\270\214\010|\012\330\034\032\027\342"
 373      8E4527EB 
 373      B88C087C 
 373      0AD81C1A 
 373      17E2
 374 0f92 49714688 		.ascii	"IqF\210\335\206\244\012\335]\303W\022*"
 374      DD86A40A 
 374      DD5DC357 
 374      122A
 375 0fa0 8C091860 		.ascii	"\214\011\030`\012\231q\243\307\217\036\247\017[\010"
 375      0A9971A3 
 375      C78F1EA7 
 375      0F5B08
 376 0faf 1960CE9F 		.ascii	"\031`\316\237\216\376?\330\320\332\265\315\002\001\353"
 376      8EFE3FD8 
 376      D0DAB5CD 
 376      0201EB
 377 0fbe 6A5854C2 		.ascii	"jXT\302e\255 M\251K\204\3013SbrZ\024\374v(\212\010\035"
ARM GAS  /tmp/cc26WhyB.s 			page 30


 377      65AD204D 
 377      A94B84C1 
 377      33536272 
 377      5A14FC76 
 378 0fd6 5C83A4BA 		.ascii	"\\\203\244\272;\037:\261/\305\327\012i\357\024Q\020"
 378      3B1F3AB1 
 378      2FC5D70A 
 378      69EF1451 
 378      10
 379 0fe7 BCECA597 		.ascii	"\274\354\245\227\021\367\326\245\205\032\2772\314\003"
 379      11F7D6A5 
 379      851ABF32 
 379      CC03
 380 0ff5 EABED9C1 		.ascii	"\352\276\331\301\356\252\3210\325)\264"
 380      EEAAD130 
 380      D529B4
 381 1000 AF0D477E 		.ascii	"\257\015G~\021\251\231\000\217%\341\337\304d|\"\240"
 381      11A99900 
 381      8F25E1DF 
 381      C4647C22 
 381      A0
 382 1011 F531DC29 		.ascii	"\3651\334).5\305\303\213\265c\334J\306\354\232\326\231"
 382      2E35C5C3 
 382      8BB563DC 
 382      4AC6EC9A 
 382      D699
 383 1023 8BDD8310 		.ascii	"\213\335\203\020xR\270\253\200\000\020\302R\210q=\322"
 383      7852B8AB 
 383      800010C2 
 383      5288713D 
 383      D2
 384 1034 44F77E04 		.ascii	"D\367~\004z\000\006s\361\024\304\300\244p\344\227\374"
 384      7A000673 
 384      F114C4C0 
 384      A470E497 
 384      FC
 385 1045 54A12E35 		.ascii	"T\241.5\311W\317B\324[\017\016\345c<\247\256UC\250F"
 385      C957CF42 
 385      D45B0F0E 
 385      E5633CA7 
 385      AE5543A8 
 386 105a 4887C568 		.ascii	"H\207\305hJJ\202\256\256\323\241\233T\227f\336'\324"
 386      4A4A82AE 
 386      AED3A19B 
 386      549766DE 
 386      27D4
 387 106c DC774D38 		.ascii	"\334wM8\302\344\271'\026K\206\357a\012\024j*\302\021"
 387      C2E4B927 
 387      164B86EF 
 387      610A146A 
 387      2AC211
 388 107f 46041F39 		.ascii	"F\004\0379F\327\014&\013\314T\223f\244\377#\031\236"
 388      46D70C26 
 388      0BCC5493 
 388      66A4FF23 
 388      199E
 389 1091 1AC03C06 		.ascii	"\032\300<\006@So\267T\010\244\305\340\204\373'\3357"
ARM GAS  /tmp/cc26WhyB.s 			page 31


 389      40536FB7 
 389      5408A4C5 
 389      E084FB27 
 389      DD37
 390 10a3 298F239E 		.ascii	")\217#\236\216\246C\340HL'!\210i)\364\223{&\375\354"
 390      8EA643E0 
 390      484C2721 
 390      886929F4 
 390      937B26FD 
 391 10b8 819FDF37 		.ascii	"\201\237\3377\224\217\325\3633\322\220)b\220|}\323\370"
 391      948FD5F3 
 391      33D29029 
 391      62907C7D 
 391      D3F8
 392 10ca 589D5081 		.ascii	"X\235P\201\224\036L0\012J\316\254\303\353\362P\010\015"
 392      941E4C30 
 392      0A4ACEAC 
 392      C3EBF250 
 392      080D
 393 10dc 151AAA5D 		.ascii	"\025\032\252]\214\276\343\366;\307\376\035C\2149\000"
 393      8CBEE3F6 
 393      3BC7FE1D 
 393      438C3900 
 394              		.text
 395              		.section	.gnu.lto_.symtab.b17871176f03c638,"",%progbits
 396 0000 63685468 		.ascii	"chThdCreateFromHeap\000\000\000\000\000\000\000\000"
 396      64437265 
 396      61746546 
 396      726F6D48 
 396      65617000 
 397 001b 00000000 		.ascii	"\000\000\000\000\241\000\000\000chThdCreateFromMemo"
 397      A1000000 
 397      63685468 
 397      64437265 
 397      61746546 
 398 0036 7279506F 		.ascii	"ryPool\000\000\000\000\000\000\000\000\000\000\000\000"
 398      6F6C0000 
 398      00000000 
 398      00000000 
 398      0000
 399 0048 A1010000 		.ascii	"\241\001\000\000chSchWakeupS\000\000\002\000\000\000"
 399      63685363 
 399      6857616B 
 399      65757053 
 399      00000200 
 400 005e 00000000 		.ascii	"\000\000\000\000\000\000\277\001\000\000chThdCreate"
 400      0000BF01 
 400      00006368 
 400      54686443 
 400      72656174 
 401 0073 53757370 		.ascii	"SuspendedI\000\000\002\000\000\000\000\000\000\000\000"
 401      656E6465 
 401      64490000 
 401      02000000 
 401      00000000 
 402 0088 00C40100 		.ascii	"\000\304\001\000\000chHeapAllocAligned\000\000\002\000"
 402      00636848 
ARM GAS  /tmp/cc26WhyB.s 			page 32


 402      65617041 
 402      6C6C6F63 
 402      416C6967 
 403 00a3 00000000 		.ascii	"\000\000\000\000\000\000\000\000\330\001\000\000chP"
 403      00000000 
 403      D8010000 
 403      636850
 404 00b2 6F6F6C41 		.ascii	"oolAlloc\000\000\002\000\000\000\000\000\000\000\000"
 404      6C6C6F63 
 404      00000200 
 404      00000000 
 404      000000
 405 00c5 00DE0100 		.ascii	"\000\336\001\000\000"
 405      00
 406              		.text
 407              		.section	.gnu.lto_.opts,"",%progbits
 408 0000 272D6D63 		.ascii	"'-mcpu=cortex-m4' '-mno-thumb-interwork' '-mthumb' "
 408      70753D63 
 408      6F727465 
 408      782D6D34 
 408      2720272D 
 409 0033 272D6767 		.ascii	"'-ggdb' '-O2' '-fomit-frame-pointer' '-falign-funct"
 409      64622720 
 409      272D4F32 
 409      2720272D 
 409      666F6D69 
 410 0066 696F6E73 		.ascii	"ions=16' '-ffunction-sections' '-fdata-sections' '-"
 410      3D313627 
 410      20272D66 
 410      66756E63 
 410      74696F6E 
 411 0099 666E6F2D 		.ascii	"fno-common' '-flto'\000"
 411      636F6D6D 
 411      6F6E2720 
 411      272D666C 
 411      746F2700 
 412              		.text
 413              		.cfi_sections	.debug_frame
 414              		.section	.text.chThdCreateFromHeap,"ax",%progbits
 415              		.align	2
 416              		.p2align 4,,15
 417              		.global	chThdCreateFromHeap
 418              		.thumb
 419              		.thumb_func
 420              		.type	chThdCreateFromHeap, %function
 421              	chThdCreateFromHeap:
 422              	.LFB239:
 423              		.file 1 "../ChibiOS/os/rt/src/chdynamic.c"
 424              		.loc 1 84 0
 425              		.cfi_startproc
 426              		@ args = 8, pretend = 0, frame = 24
 427              		@ frame_needed = 0, uses_anonymous_args = 0
 428              	.LVL0:
 429 0000 70B5     		push	{r4, r5, r6, lr}
 430              		.cfi_def_cfa_offset 16
 431              		.cfi_offset 4, -16
 432              		.cfi_offset 5, -12
ARM GAS  /tmp/cc26WhyB.s 			page 33


 433              		.cfi_offset 6, -8
 434              		.cfi_offset 14, -4
 435 0002 1446     		mov	r4, r2
 436 0004 86B0     		sub	sp, sp, #24
 437              		.cfi_def_cfa_offset 40
 438              		.loc 1 88 0
 439 0006 0822     		movs	r2, #8
 440              	.LVL1:
 441              		.loc 1 84 0
 442 0008 1E46     		mov	r6, r3
 443 000a 0D46     		mov	r5, r1
 444              		.loc 1 88 0
 445 000c FFF7FEFF 		bl	chHeapAllocAligned
 446              	.LVL2:
 447              		.loc 1 89 0
 448 0010 C8B1     		cbz	r0, .L2
 449              		.loc 1 93 0
 450 0012 0A9B     		ldr	r3, [sp, #40]
 451 0014 0493     		str	r3, [sp, #16]
 452              		.loc 1 96 0
 453 0016 0544     		add	r5, r5, r0
 454              	.LVL3:
 455              		.loc 1 93 0
 456 0018 0B9B     		ldr	r3, [sp, #44]
 457 001a 0593     		str	r3, [sp, #20]
 458              	.LVL4:
 459 001c 0295     		str	r5, [sp, #8]
 460 001e 0094     		str	r4, [sp]
 461 0020 0190     		str	r0, [sp, #4]
 462 0022 0396     		str	r6, [sp, #12]
 463              	.LBB34:
 464              	.LBB35:
 465              	.LBB36:
 466              	.LBB37:
 467              		.file 2 "../ChibiOS/os/common/ext/CMSIS/include/cmsis_gcc.h"
 468              		.loc 2 264 0
 469 0024 2023     		movs	r3, #32
 470              	@ 264 "../ChibiOS/os/common/ext/CMSIS/include/cmsis_gcc.h" 1
 471 0026 83F31188 		MSR basepri, r3
 472              	@ 0 "" 2
 473              		.thumb
 474              	.LBE37:
 475              	.LBE36:
 476              	.LBE35:
 477              	.LBE34:
 478              		.loc 1 109 0
 479 002a 6846     		mov	r0, sp
 480              	.LVL5:
 481 002c FFF7FEFF 		bl	chThdCreateSuspendedI
 482              	.LVL6:
 483              		.loc 1 110 0
 484 0030 0123     		movs	r3, #1
 485 0032 80F82130 		strb	r3, [r0, #33]
 486              		.loc 1 111 0
 487 0036 0021     		movs	r1, #0
 488              		.loc 1 109 0
 489 0038 0446     		mov	r4, r0
ARM GAS  /tmp/cc26WhyB.s 			page 34


 490              	.LVL7:
 491              		.loc 1 111 0
 492 003a FFF7FEFF 		bl	chSchWakeupS
 493              	.LVL8:
 494              	.LBB38:
 495              	.LBB39:
 496              	.LBB40:
 497              	.LBB41:
 498              	.LBB42:
 499              		.loc 2 264 0
 500 003e 0023     		movs	r3, #0
 501              	@ 264 "../ChibiOS/os/common/ext/CMSIS/include/cmsis_gcc.h" 1
 502 0040 83F31188 		MSR basepri, r3
 503              	@ 0 "" 2
 504              		.thumb
 505              	.LBE42:
 506              	.LBE41:
 507              	.LBE40:
 508              	.LBE39:
 509              	.LBE38:
 510              		.loc 1 114 0
 511 0044 2046     		mov	r0, r4
 512              	.LVL9:
 513              	.L2:
 514              		.loc 1 115 0
 515 0046 06B0     		add	sp, sp, #24
 516              		@ sp needed
 517 0048 70BD     		pop	{r4, r5, r6, pc}
 518              		.cfi_endproc
 519              	.LFE239:
 520              		.size	chThdCreateFromHeap, .-chThdCreateFromHeap
 521 004a 00BFAFF3 		.section	.text.chThdCreateFromMemoryPool,"ax",%progbits
 521      0080
 522              		.align	2
 523              		.p2align 4,,15
 524              		.global	chThdCreateFromMemoryPool
 525              		.thumb
 526              		.thumb_func
 527              		.type	chThdCreateFromMemoryPool, %function
 528              	chThdCreateFromMemoryPool:
 529              	.LFB240:
 530              		.loc 1 146 0
 531              		.cfi_startproc
 532              		@ args = 4, pretend = 0, frame = 24
 533              		@ frame_needed = 0, uses_anonymous_args = 0
 534              	.LVL10:
 535 0000 F0B5     		push	{r4, r5, r6, r7, lr}
 536              		.cfi_def_cfa_offset 20
 537              		.cfi_offset 4, -20
 538              		.cfi_offset 5, -16
 539              		.cfi_offset 6, -12
 540              		.cfi_offset 7, -8
 541              		.cfi_offset 14, -4
 542 0002 87B0     		sub	sp, sp, #28
 543              		.cfi_def_cfa_offset 48
 544              		.loc 1 146 0
 545 0004 0F46     		mov	r7, r1
ARM GAS  /tmp/cc26WhyB.s 			page 35


 546 0006 1646     		mov	r6, r2
 547 0008 1C46     		mov	r4, r3
 548 000a 0546     		mov	r5, r0
 549              		.loc 1 152 0
 550 000c FFF7FEFF 		bl	chPoolAlloc
 551              	.LVL11:
 552              		.loc 1 153 0
 553 0010 D0B1     		cbz	r0, .L6
 554              		.loc 1 160 0
 555 0012 6B68     		ldr	r3, [r5, #4]
 556              		.loc 1 157 0
 557 0014 0C9A     		ldr	r2, [sp, #48]
 558 0016 0097     		str	r7, [sp]
 559              		.loc 1 160 0
 560 0018 0344     		add	r3, r3, r0
 561              		.loc 1 157 0
 562 001a 0293     		str	r3, [sp, #8]
 563 001c 0190     		str	r0, [sp, #4]
 564 001e 0396     		str	r6, [sp, #12]
 565 0020 0494     		str	r4, [sp, #16]
 566 0022 0592     		str	r2, [sp, #20]
 567              	.LVL12:
 568              	.LBB43:
 569              	.LBB44:
 570              	.LBB45:
 571              	.LBB46:
 572              		.loc 2 264 0
 573 0024 2023     		movs	r3, #32
 574              	@ 264 "../ChibiOS/os/common/ext/CMSIS/include/cmsis_gcc.h" 1
 575 0026 83F31188 		MSR basepri, r3
 576              	@ 0 "" 2
 577              		.thumb
 578              	.LBE46:
 579              	.LBE45:
 580              	.LBE44:
 581              	.LBE43:
 582              		.loc 1 173 0
 583 002a 6846     		mov	r0, sp
 584              	.LVL13:
 585 002c FFF7FEFF 		bl	chThdCreateSuspendedI
 586              	.LVL14:
 587              		.loc 1 174 0
 588 0030 0223     		movs	r3, #2
 589 0032 80F82130 		strb	r3, [r0, #33]
 590              		.loc 1 175 0
 591 0036 0564     		str	r5, [r0, #64]
 592              		.loc 1 176 0
 593 0038 0021     		movs	r1, #0
 594              		.loc 1 173 0
 595 003a 0446     		mov	r4, r0
 596              	.LVL15:
 597              		.loc 1 176 0
 598 003c FFF7FEFF 		bl	chSchWakeupS
 599              	.LVL16:
 600              	.LBB47:
 601              	.LBB48:
 602              	.LBB49:
ARM GAS  /tmp/cc26WhyB.s 			page 36


 603              	.LBB50:
 604              	.LBB51:
 605              		.loc 2 264 0
 606 0040 0023     		movs	r3, #0
 607              	@ 264 "../ChibiOS/os/common/ext/CMSIS/include/cmsis_gcc.h" 1
 608 0042 83F31188 		MSR basepri, r3
 609              	@ 0 "" 2
 610              		.thumb
 611              	.LBE51:
 612              	.LBE50:
 613              	.LBE49:
 614              	.LBE48:
 615              	.LBE47:
 616              		.loc 1 179 0
 617 0046 2046     		mov	r0, r4
 618              	.LVL17:
 619              	.L6:
 620              		.loc 1 180 0
 621 0048 07B0     		add	sp, sp, #28
 622              		@ sp needed
 623 004a F0BD     		pop	{r4, r5, r6, r7, pc}
 624              		.cfi_endproc
 625              	.LFE240:
 626              		.size	chThdCreateFromMemoryPool, .-chThdCreateFromMemoryPool
 627 004c AFF30080 		.text
 628              	.Letext0:
 629              		.file 3 "/nfs/nfs5/home/research/hardware/arm2/gcc-arm-embedded/gcc-arm-none-eabi-4_8-2014q2/lib/g
 630              		.file 4 "/nfs/nfs5/home/research/hardware/arm2/gcc-arm-embedded/gcc-arm-none-eabi-4_8-2014q2/arm-n
 631              		.file 5 "/nfs/nfs5/home/research/hardware/arm2/gcc-arm-embedded/gcc-arm-none-eabi-4_8-2014q2/arm-n
 632              		.file 6 "../ChibiOS/os/common/ports/ARMCMx/compilers/GCC/chtypes.h"
 633              		.file 7 "../ChibiOS/os/rt/include/chsystypes.h"
 634              		.file 8 "../ChibiOS/os/rt/include/chschd.h"
 635              		.file 9 "../ChibiOS/os/common/ports/ARMCMx/chcore.h"
 636              		.file 10 "../ChibiOS/os/common/ports/ARMCMx/chcore_v7m.h"
 637              		.file 11 "../ChibiOS/os/rt/include/chtm.h"
 638              		.file 12 "../ChibiOS/os/rt/include/chsem.h"
 639              		.file 13 "../ChibiOS/os/rt/include/chmtx.h"
 640              		.file 14 "../ChibiOS/os/rt/include/chthreads.h"
 641              		.file 15 "../ChibiOS/os/common/oslib/include/chmemcore.h"
 642              		.file 16 "../ChibiOS/os/common/oslib/include/chheap.h"
 643              		.file 17 "../ChibiOS/os/common/oslib/include/chmempools.h"
 644              		.file 18 "../ChibiOS/os/rt/include/chsys.h"
 645              		.file 19 "../ChibiOS/os/common/ext/CMSIS/include/core_cm4.h"