ARM GAS  /tmp/ccyZ1xFR.s 			page 1


   1              		.syntax unified
   2              		.cpu cortex-m4
   3              		.fpu softvfp
   4              		.eabi_attribute 20, 1
   5              		.eabi_attribute 21, 1
   6              		.eabi_attribute 23, 3
   7              		.eabi_attribute 24, 1
   8              		.eabi_attribute 25, 1
   9              		.eabi_attribute 26, 1
  10              		.eabi_attribute 30, 2
  11              		.eabi_attribute 34, 1
  12              		.eabi_attribute 18, 4
  13              		.thumb
  14              		.file	"chheap.c"
  15              		.text
  16              	.Ltext0:
  17              		.section	.gnu.lto_.jmpfuncs.934408162e27f1e5,"",%progbits
  18 0000 789C6362 		.ascii	"x\234cb`b\300\006\262\2404+\003\003#S5\303\257\206\216"
  18      6062C006 
  18      B2A0342B 
  18      03032353 
  18      35C3AF86 
  19 0015 06814C46 		.ascii	"\006\201LF\006m\206U\015\015 \026c.#C\022#\\9#\343\203"
  19      066D8655 
  19      0D0D2016 
  19      632E2343 
  19      12235C39 
  20 002c FF50C018 		.ascii	"\377P\300\030\301\230\311\0104\224\231\235\221\245\001"
  20      C198C908 
  20      3494999D 
  20      91A501
  21 003b C8042962 		.ascii	"\310\004)ba\007\222\020\004\266\256\036h0#\204\317\006"
  21      61079210 
  21      04B6AE1E 
  21      68302384 
  21      CF06
  22 004d 95620000 		.ascii	"\225b\000\000:\344\022\320"
  22      3AE412D0 
  23              		.text
  24              		.section	.gnu.lto_.inline.934408162e27f1e5,"",%progbits
  25 0000 789C6362 		.ascii	"x\234cb`b\300\006\232\031!4+\003\003\207\000#\003\023"
  25      6062C006 
  25      9A192134 
  25      2B030387 
  25      00230313 
  26 0014 DB073D06 		.ascii	"\333\007=\006\266\005\362`\305L\334\014\014\214\014"
  26      B605F260 
  26      C54CDC0C 
  26      0C8C0C
  27 0023 CC0C3C22 		.ascii	"\314\014<\"\214LL`u \202\231\265C\235\201{\205\033\023"
  27      8C4C4C60 
  27      75208299 
  27      B5439D81 
  27      7B851B13 
  28 0037 03CB0279 		.ascii	"\003\313\002y\026\270\272\011~,\014\327\030v11\2623"
  28      16B8BA09 
  28      7E2C0CD7 
ARM GAS  /tmp/ccyZ1xFR.s 			page 2


  28      18763131 
  28      B233
  29 0049 A4473066 		.ascii	"\244G0f22\203d2`,\246\024\020\213\205\035\310J\205\261"
  29      32328364 
  29      32602CA6 
  29      14108B85 
  29      1DC84A85 
  30 005e C0A681CD 		.ascii	"\300\246\201\315e\004\021\254%\033~+@\354\006\032\354"
  30      650411AC 
  30      251B7E2B 
  30      40EC061A 
  30      EC
  31 006f 00221A18 		.ascii	"\000\"\032\030\031\204\246x60!Y\202J\261\011\001%&\370"
  31      1984A678 
  31      36302159 
  31      824AB109 
  31      012526F8 
  32 0083 4DF06365 		.ascii	"M\360ce0>\314\0104\006\354@\237\256-\"\014\002/\202"
  32      303ECC08 
  32      3406EC40 
  32      9FAE2D22 
  32      0C022F82 
  33 0097 9818982E 		.ascii	"\230\030\230.\360\263`jfc\220\374\312\300\310\211\315"
  33      F0B3606A 
  33      666390FC 
  33      CAC0C889 
  33      CD
  34 00a8 9D8C6016 		.ascii	"\235\214`\026+\210\225\016c1\301\305\230\340b\014pg"
  34      2B88950E 
  34      6331C1C5 
  34      98E0620C 
  34      7067
  35 00ba 833DC029 		.ascii	"\203=\300)\360`\036\027\334\355\015\020\222\205\201"
  35      F0601E17 
  35      DCED0D10 
  35      928581
  36 00c9 F99BB000 		.ascii	"\371\233\260\000\003\343%6\001\210\000\007\003s\233"
  36      03E32536 
  36      01880007 
  36      03739B
  37 00d8 A8030363 		.ascii	"\250\003\003c\023\273\003\026/1\000\000\222\2012\252"
  37      13BB0316 
  37      2F310000 
  37      928132AA 
  38              		.text
  39              		.section	.gnu.lto_.pureconst.934408162e27f1e5,"",%progbits
  40 0000 789C6362 		.ascii	"x\234cb`b\340f\200\000V\006\011f)\026)V)6)\000\004?"
  40      6062E066 
  40      80005606 
  40      09662916 
  40      29562936 
  41 0018 00A7     		.ascii	"\000\247"
  42              		.text
  43              		.section	.gnu.lto__heap_init.934408162e27f1e5,"",%progbits
  44 0000 789C6362 		.ascii	"x\234cb`b@\007\222@|\216\221\201A\013H32302M8\307\300"
  44      60624007 
  44      92407C8E 
ARM GAS  /tmp/ccyZ1xFR.s 			page 3


  44      9181410B 
  44      48333233 
  45 001a D0C8C1C4 		.ascii	"\320\310\301\304\310\010b002\32431\326G2\202\325\256"
  45      C8086230 
  45      3032D433 
  45      31D64732 
  45      82D5AE
  46 002d 673AF0E0 		.ascii	"g:\360\340\377\377u\333\216O\277\3038\217\211\015(\302"
  46      FFFF75DB 
  46      8E4FBFC3 
  46      388F890D 
  46      28C2
  47 003f CAD0D2D0 		.ascii	"\312\320\322\3200A\201\201!\031\254\"\004H\202\264\205"
  47      30418181 
  47      2119AC22 
  47      044882B4 
  47      85
  48 0050 32328168 		.ascii	"22\201h\346\263\014M\277\232\277\367Y&2.dde\320fX\325"
  48      E6B30C4D 
  48      BF9ABFF7 
  48      5926322E 
  48      646465D0 
  49 0067 0004F699 		.ascii	"\000\004\366\231\214\014\263\031f564\010d22V3\374j\350"
  49      8C0CB319 
  49      66353634 
  49      08643232 
  49      5633FC6A 
  50 007c 00B19872 		.ascii	"\000\261\230r\301FD0\002\231`\333\222 \2262@T4\224g"
  50      C1464430 
  50      029960DB 
  50      92209632 
  50      40543494 
  51 0091 32322733 		.ascii	"22'3B\304\200\346\356\270\361\375\000\013\212\271\354"
  51      42C480E6 
  51      EEB8F1FD 
  51      000B8AB9 
  51      EC
  52 00a2 998C2CDA 		.ascii	"\231\214,\332\014Z\231\214\254`\222\2158;\030\2414\214"
  52      0C5A998C 
  52      AC60928D 
  52      383B18A1 
  52      348C
  53 00b4 CFCC0053 		.ascii	"\317\314\000S\301\002\263\351\307\367\023\0306\261S"
  53      C102B3E9 
  53      C7F71318 
  53      36B153
  54 00c3 6E130BDC 		.ascii	"n\023\013\334&v\020\343<C\313\203\227\207\271 \026\301"
  54      267610E3 
  54      3C43CB83 
  54      9787B920 
  54      16C1
  55 00d5 7C0D3489 		.ascii	"|\0154\211#\031\252\003$\302\221\311\310\011u\304D\240"
  55      2319AA03 
  55      24C291C9 
  55      C80975C4 
  55      44A0
  56 00e7 462EA02D 		.ascii	"F.\240-I`\345\014\014P\215\231\214\334\014\014\027\031"
ARM GAS  /tmp/ccyZ1xFR.s 			page 4


  56      4960E50C 
  56      0C508D99 
  56      8CDC0C0C 
  56      1719
  57 00f9 1A1FBC55 		.ascii	"\032\037\274U\206\031\005\001!@\007\000\343\004d\226"
  57      86190501 
  57      21400700 
  57      E3046496 
  58 0109 869E9EBE 		.ascii	"\206\236\236\276sFfR\246\177\260~~\261~r~nn~\036\220"
  58      73466652 
  58      A67FB07E 
  58      7EB17E72 
  58      7E6E6E7E 
  59 011f 959399A4 		.ascii	"\225\223\231\244_\\\224\254\237\234\221\221\232X\240"
  59      5F5C94AC 
  59      9F9C9191 
  59      9A58A0
  60 012e 97CC0000 		.ascii	"\227\314\000\000\021\366x\224"
  60      11F67894 
  61              		.text
  62              		.section	.gnu.lto_chHeapObjectInit.934408162e27f1e5,"",%progbits
  63 0000 789C9552 		.ascii	"x\234\225R=K\003A\020\235\331\2733\2273~\264v\022\020"
  63      3D4B0341 
  63      109DD9BB 
  63      3397337E 
  63      B4761210 
  64 0014 24C11CFE 		.ascii	"$\301\034\376\006\177\200\205\021\264L\016I\026\214"
  64      067F8085 
  64      11B44C0E 
  64      49168C
  65 0023 11D369E1 		.ascii	"\021\323i\341&\261\020A\010\022Q\264Q\213\010\012\332"
  65      26B11041 
  65      081251B4 
  65      518B080A 
  65      DA
  66 0034 A68C8D10 		.ascii	"\246\214\215\020A\305N;\177\200\205V\006\013\317\331"
  66      41C54E3B 
  66      7F808556 
  66      060BCFD9 
  67 0044 BD4D448D 		.ascii	"\275MD\215\202\003\373f\357f\346\315\333a\0300\370n"
  67      8203FB66 
  67      EF66E6CD 
  67      DB611830 
  67      F86E
  68 0056 43749EE8 		.ascii	"Ct\236\350\367\030y4\000Y\345\006\240h3Dy\001\204U\206"
  68      F7187934 
  68      0059E506 
  68      A0683344 
  68      79018455 
  69 006b ABB3A872 		.ascii	"\253\263\250r\317Y\343\321\367\317\252W\227\027x:\322"
  69      CF59E3D1 
  69      F7CFAA57 
  69      9717783A 
  69      D2
  70 007c 8F984330 		.ascii	"\217\230C0\010\320&`a\340\010\216\204\010\201\254\260"
  70      08D02660 
  70      61E0088E 
ARM GAS  /tmp/ccyZ1xFR.s 			page 5


  70      840881AC 
  70      B0
  71 008d 604D88CA 		.ascii	"`M\210\312p\024\016\205\330j\354ll\017\211\203RE\274"
  71      70140E85 
  71      D86AEC6C 
  71      6C0F8983 
  71      5245BC
  72 00a0 FB3E7264 		.ascii	"\373>rd\014\342\010\036\302\014}\030\303\312\231\346"
  72      0CE2081E 
  72      C20C7D18 
  72      C3CA99E6 
  73 00b0 57713952 		.ascii	"Wq9R$S\310\222\204R\32142\351\215&\260\024\036\242\005"
  73      2453C892 
  73      8452D134 
  73      32E98D26 
  73      B0141EA2 
  74 00c5 293CC228 		.ascii	")<\302(dd\303k(\325\353\265\007\035\210\303\211 \033"
  74      6464C36B 
  74      28D5EBB5 
  74      071D88C3 
  74      89201B
  75 00d8 E768EDC3 		.ascii	"\347h\355\303\036\261\367d\320\220]B\212;\035\274I\365"
  75      1EB1F764 
  75      D0905D42 
  75      8A3B1DBC 
  75      49F5
  76 00ea B5E485AA 		.ascii	"\265\344\205\252\233\367\265;\343Ku\210\204\306!\306"
  76      9BF7B53B 
  76      E34B7588 
  76      84C621C6 
  77 00fa D15618EE 		.ascii	"\321V\030\356\316\204\3323\355\015\345;\232Z\265\207"
  77      CE84DA33 
  77      ED0DE53B 
  77      9A5AB587 
  78 010a 1FACCEFF 		.ascii	"\037\254\316\377Y\315\216^G\353\255\357\036\277\340"
  78      59CD8E5E 
  78      47EBADEF 
  78      1EBFE0
  79 0119 2F7A03CE 		.ascii	"/z\003\3160\211\220\025\254\253\302N\344\032\312\353"
  79      30899015 
  79      ACABC24E 
  79      E41ACAEB 
  80 0129 E5D7AA1B 		.ascii	"\345\327\252\033ped\231\255\032\265|\337\037\010\022"
  80      70656499 
  80      AD1AB57C 
  80      DF1F0812 
  81 0139 36CB35A3 		.ascii	"6\3135\243\035w(E\305m=\270\347\320/\017\374[\206\251"
  81      1D772845 
  81      C56D3DB8 
  81      E7D02F0F 
  81      FC5B86A9 
  82 014d 07E52896 		.ascii	"\007\345(\226\267\262_\215\265[DV`\231\326H\023\026"
  82      B7B25F8D 
  82      B55B4456 
  82      6099D648 
  82      1316
  83 015f 38F6769F 		.ascii	"8\366v\237\222\365\271.\267\260\326\320\365\000+\360"
ARM GAS  /tmp/ccyZ1xFR.s 			page 6


  83      92F5B92E 
  83      B7B0D6D0 
  83      F5002BF0 
  84 016f 26D6C520 		.ascii	"&\326\305 \307\210\247'I\234\034\373\000\356\240\370"
  84      C788A727 
  84      499C1CFB 
  84      00EEA0F8 
  85 017f 783AD2CE 		.ascii	"x:\322\316\013,I9\264VR\327h\"\341Ndy\232ON\271\371"
  85      0B2C4939 
  85      B45652D7 
  85      6822E14E 
  85      64799A4F 
  86 0196 82EBE573 		.ascii	"\202\353\345s\271\374\002\335\346y\332-,y\256\227\315"
  86      B9FC02DD 
  86      E679DA2D 
  86      2C79AE97 
  86      CD
  87 01a7 CEA51613 		.ascii	"\316\245\026\023\036\260\354\342\007\323 \250\326"
  87      1EB0ECE2 
  87      07D320A8 
  87      D6
  88              		.text
  89              		.section	.gnu.lto_chHeapAllocAligned.934408162e27f1e5,"",%progbits
  90 0000 789C9D57 		.ascii	"x\234\235WklTE\024\236\231{\357\276\037\355\366E\265"
  90      6B6C5445 
  90      149E997B 
  90      EFBE1FED 
  90      F645B5
  91 0013 BC2AC8A3 		.ascii	"\274*\310\243\322R*\212\322\006\020\215!Bj\020\022\365"
  91      D2522A8A 
  91      D206108D 
  91      21426A10 
  91      12F5
  92 0025 97A54ABB 		.ascii	"\227\245J\273\011\225*\377\344G\267\335\032\220*!\276"
  92      09952AFF 
  92      E447B7DD 
  92      1A902A21 
  92      BE
  93 0036 1005AC41 		.ascii	"\020\005\254AT|\204GL4\266\350n5\246<\004\2521\202\370"
  93      547C8447 
  93      4C34B6E8 
  93      6E35A63C 
  93      04AA3182 
  94 004b 20F2305A 		.ascii	" \3620Z\202\022M\212h\\\31793s{\273]\267\253\373\343"
  94      82124D8A 
  94      685CCF39 
  94      33737BBB 
  94      5DB7ABFB 
  95 0060 DC3BE73B 		.ascii	"\334;\347;\2579\363\315\334Y\301\004K\377\225p\306\356"
  95      AF39F3CD 
  95      DC59C104 
  95      4BFF9570 
  95      C6EE
  96 0072 8830763F 		.ascii	"\2100v?\274\363\022\306\305\226c\214\265{\2040\276\361"
  96      BCF312C6 
  96      C596638C 
  96      B57B8430 
ARM GAS  /tmp/ccyZ1xFR.s 			page 7


  96      BEF1
  97 0084 B398CF7C 		.ascii	"\263\230\317|\267\217\261X\300\340\246\324\233\302\332"
  97      B78FB158 
  97      C0E0A6D4 
  97      9BC2DA
  98 0093 380DF42E 		.ascii	"8\015\364.\224\001\213\273\244\332\305\213\345\213["
  98      94018BBB 
  98      A4DAC58B 
  98      E58B5B
  99 00a2 7808CF27 		.ascii	"x\010\317'\334#\274}\006\216\216\035\306(^\341#0H\240"
  99      DC23BC7D 
  99      068E8E1D 
  99      C6285EE1 
  99      233048A0 
 100 00b6 4FF86914 		.ascii	"O\370i\024\240\221\237\007d\204\000\317\223/A\021\372"
 100      A0919F07 
 100      648400CF 
 100      932F4111 
 100      FA
 101 00c7 B508F070 		.ascii	"\265\010\360p\367<\300CZ\035\326/y\274H\276\344\313"
 101      F73CC043 
 101      5A1DD62F 
 101      79BC48BE 
 101      E4CB
 102 00d9 E48B8A85 		.ascii	"\344\213\212\205\233\362\370\"\2304\020\021\005\237"
 102      9BF2F822 
 102      98341011 
 102      059F
 103 00e7 D2B0E830 		.ascii	"\322\260\3500\016\013D\341\211\2434Lp\030\026j\357\""
 103      0E0B44E1 
 103      89A3344C 
 103      7018166A 
 103      EF22
 104 00f9 CEF18571 		.ascii	"\316\361\205q\326&\014\323r\271=^\237?\020\014\205\363"
 104      D6260CD3 
 104      72B93D5E 
 104      9F3F100C 
 104      85F3
 105 010b F28B2305 		.ascii	"\362\213#\005\205E\274\355>\216\215\362\226\263Wb\261"
 105      8545BCED 
 105      3E8E8DF2 
 105      96B35762 
 105      B1
 106 011c 2D67CE9F 		.ascii	"-g\316\237\035\260\266=\233\350\354\216\375\225Jq\036"
 106      1DB0B63D 
 106      9BE8EC8E 
 106      FD954A71 
 106      1E
 107 012d E5D0D40A 		.ascii	"\345\320\324\012\316\0329\273\027\006|\022=\2049\262"
 107      CE1A39BB 
 107      17067C12 
 107      3D8439B2 
 108 013d CBD23776 		.ascii	"\313\3227v\340\215\230\227\374\014r\233\235\233[b\340"
 108      E08D9897 
 108      FC0C729B 
 108      9D9B5B62 
 108      E0
ARM GAS  /tmp/ccyZ1xFR.s 			page 8


 109 014e D8D6D24D 		.ascii	"\330\326\322M\335\035[b\177CF\362\274)G\317\236\343"
 109      DD1D5B62 
 109      7F4346F2 
 109      BC2947CF 
 109      9EE3
 110 0160 DBD33C6B 		.ascii	"\333\323<ks\362|:\361r\327s\245\261aOC\260E\271y\306"
 110      73F27C3A 
 110      F172D773 
 110      A5B1614F 
 110      43B045B9 
 111 0176 BE7FB03F 		.ascii	"\276\177\260?\326\231H\245\026\220\327\3559\346\333"
 111      D69948A5 
 111      1690D7ED 
 111      39E6DB
 112 0185 DFF59433 		.ascii	"\337\365\2243\237)\330\2359z~\265yGZ\245\313r\364<p"
 112      9F29D89D 
 112      397A7EB5 
 112      79475AA5 
 112      CB72F43C 
 113 019a 3CB0A57D 		.ascii	"<\260\245}c,\225j\003\267\006\276\217\2131\374\366\212"
 113      632C956A 
 113      03B706BE 
 113      8F8B31FC 
 113      F68A
 114 01ac C49954EA 		.ascii	"\304\231T\352\342\251\337\237<\312\017\213{8k\301\226"
 114      E2A9DF9F 
 114      3CCA0F8B 
 114      7B386BC1 
 114      96
 115 01bd B6706EB0 		.ascii	"\266pn\260\006\276\207\2273S=-\026\345\226\227\003\354"
 115      06BE8797 
 115      33533D2D 
 115      16E59697 
 115      03EC
 116 01cf 03C1FD20 		.ascii	"\003\301\375 D\000t\256 \212\020X\275\003Va\030\270"
 116      440074AE 
 116      208A1058 
 116      BD035661 
 116      18B8
 117 01e1 23CAA500 		.ascii	"#\312\245\000\006F\241\032\024\341\240\030mKP\214CQ"
 117      0646A11A 
 117      14E1A018 
 117      6D4B508C 
 117      4351
 118 01f3 8AE21A14 		.ascii	"\212\342\032\024\327\202\020e\312t<j&\240f\"\212I\350"
 118      D7821065 
 118      CA743C6A 
 118      26A06622 
 118      8A49E8
 119 0206 3919B057 		.ascii	"9\031\260W\000+\207\347.x^\007J6\005\305T\024\327\243"
 119      002B87E7 
 119      2E785E07 
 119      4A3605C5 
 119      5414D7A3 
 120 021a 9886623A 		.ascii	"\230\206b::\317\000\253\335`5\0235\025(n@1\013\261*"
 120      3ACF00AB 
 120      DD603513 
ARM GAS  /tmp/ccyZ1xFR.s 			page 9


 120      3515286E 
 120      40310BB1 
 121 022f 8C391B45 		.ascii	"\2149\033E5X\355\005\2539\250\256A1\027S\315Cq+\032"
 121      3558ED05 
 121      AB39A8AE 
 121      41311753 
 121      CD43712B 
 122 0244 CC47510B 		.ascii	"\314GQ\013V\373\301\252\016\325\013`\360:\014\026b\270"
 122      56FBC1AA 
 122      0ED50B60 
 122      F03A0C16 
 122      62B8
 123 0256 45286E43 		.ascii	"E(nC\261\030\235\227`\207\356\002\341Y\212\303e(\352"
 123      B1189D97 
 123      6087EE02 
 123      E1598AC3 
 123      6528EA
 124 0269 C1FE2DB0 		.ascii	"\301\376-\260_\216\030\264\333b\235@\342Ir\236\022\222"
 124      5F8E18B4 
 124      DB629D40 
 124      E249729E 
 124      1292
 125 027b 8D6B8186 		.ascii	"\215k\201\206\343R\301o\005\310m\026[\011k\267\3152"
 125      E352C16F 
 125      05C86D16 
 125      5B096BB7 
 125      CD32
 126 028d FAD9273F 		.ascii	"\372\331'?&{\272`1\017@\204&\356\305U\364:\227p%\270"
 126      267BBA60 
 126      310F4084 
 126      26EEC555 
 126      F43A9770 
 127 02a3 9E63C621 		.ascii	"\236c\306!\326q\346\273\363.i\007\313\264\236]\215m"
 127      D671E6BB 
 127      F32E6907 
 127      CBB49E5D 
 127      8D6D
 128 02b5 8CC5E683 		.ascii	"\214\305\346\203u\0137\035\326&\206\005k\017C\263&\016"
 128      750B371D 
 128      D6268605 
 128      6B0F43B3 
 128      260E
 129 02c7 E9FA59E7 		.ascii	"\351\372Y\347\205\344\227\303I|\230\304\345\266\235"
 129      85E497C3 
 129      497C98C4 
 129      E5B69D
 130 02d6 4E310E99 		.ascii	"N1\016\231\005\2271\023\007\217\204\354\250\306\373"
 130      05973113 
 130      078F84EC 
 130      A8C6FB
 131 02e5 0606B5D8 		.ascii	"\006\006\265\330Q\201A\273\007-]\001\247 \036;\257\313"
 131      518141BB 
 131      072D5D01 
 131      A7201E3B 
 131      AFCB
 132 02f7 9917E2C1 		.ascii	"\231\027\342\301\311\375\031\213o\214\037,\321i\003"
 132      C9FD198B 
ARM GAS  /tmp/ccyZ1xFR.s 			page 10


 132      6F8C1F2C 
 132      D16903
 133 0306 4DDC8F4E 		.ascii	"M\334\217N&f\006\254\307.(\010 !WR\251TX\242O\305Wk"
 133      266606AC 
 133      C72E2808 
 133      20215752 
 133      A95458A2 
 134 031e 38041604 		.ascii	"8\004\026\004c\266CLH\275\354,\240h\336q5>\270\325\216"
 134      63B6434C 
 134      48BDEC2C 
 134      A068DE71 
 134      353EB8D5 
 135 0333 175ECF1E 		.ascii	"\027^\317\036\003\246V\260\231Q\356{\211\275\010\276"
 135      03A656B0 
 135      9951EE7B 
 135      89BD08BE 
 136 0343 FE2659B1 		.ascii	"\376&Y\261\354\355*\356\350\360qfJG\246\272\232\027"
 136      ECED2AEE 
 136      E8F07166 
 136      4A47A6BA 
 136      9A17
 137 0355 E581462E 		.ascii	"\345\201F.M X\224\007U\212\241\255.\235\"\202\246\360"
 137      4D205894 
 137      07558AA1 
 137      AD2E9D22 
 137      82A6F0
 138 0368 AB06DA54 		.ascii	"\253\006\332T\2607\361\265.\312C\231\2239\262A\207\022"
 138      B037F1B5 
 138      2ECA4399 
 138      9339B241 
 138      8712
 139 037a 2E3D813D 		.ascii	".=\201=4\201\210\\\003\001\013c\352\256Z\275\337\256"
 139      3481885C 
 139      03010B63 
 139      EAAE5ABD 
 139      DFAE
 140 038c C1AEBA19 		.ascii	"\301\256\272\031|!h\3617mp)z\251\303 \325\365|\3321"
 140      7C2168F1 
 140      376D7029 
 140      7AA9C320 
 140      D5F57CDA 
 141 03a1 72F758C7 		.ascii	"r\367X\307\010cz\242\212\235M\274\200\232\335\025\177"
 141      08637AA2 
 141      8A9D4DBC 
 141      809ADD15 
 141      7F
 142 03b2 6F7B6D03 		.ascii	"o{m\003\357\245\251\025\201\226\274=\264\022\035\227"
 142      EFA5A915 
 142      8196BC3D 
 142      B4121D97 
 143 03c2 0C8D1403 		.ascii	"\014\215\024\003(\227\325V\225\220V\244i\307\001@3I"
 143      2897D556 
 143      959056A4 
 143      69C70140 
 143      3349
 144 03d4 D90BDAB1 		.ascii	"\331\013\332\261\307FK\265C\217\255\272\206|J\025g\376"
 144      C7464BB5 
ARM GAS  /tmp/ccyZ1xFR.s 			page 11


 144      438FADBA 
 144      867C4A15 
 144      67FE
 145 03e6 B6F5D702 		.ascii	"\266\365\327\002D\265\0143\243\343\0222C\302e`\241("
 145      44B50C33 
 145      A3E31232 
 145      43C26560 
 145      A128
 146 03f8 D14B1D3D 		.ascii	"\321K\035=H\223*#\273\257\257\234M\012m9\236\310`\222"
 146      48932A23 
 146      BBAFAF9C 
 146      4D0A6D39 
 146      9EC86092 
 147 040c 0CCB550A 		.ascii	"\014\313U\012\251y\032j\225\204z\032\252W#f4\001BP!"
 147      A9791A6A 
 147      95847A1A 
 147      AA572366 
 147      34014250 
 148 0421 5C229B6C 		.ascii	"\\\"\233ld\"\200\216v\305\273ld\022$\000\0347\340'\027"
 148      6422808E 
 148      76C5BB6C 
 148      64122400 
 148      1C37E027 
 149 0436 DAAB1DEA 		.ascii	"\332\253\035\3522\347\376\366\260\327\247\0324\257\237"
 149      32E7FEF6 
 149      B0D7A71A 
 149      34AF9F
 150 0445 ED7227AB 		.ascii	"\355r'\253\225q4\277\234\346\012\011\236\260U\327\221"
 150      957134BF 
 150      9CE60A09 
 150      9EB055D7 
 150      91
 151 0456 61799AE1 		.ascii	"ay\232\341\024\3129\242\372\251\240\305\032\031\266"
 151      14CA39A2 
 151      FAA9A0C5 
 151      1A19B6
 152 0465 917EBC2D 		.ascii	"\221~\274-\315\344z\0127\225\264;m\3554\000\310q\024"
 152      CDE47A0A 
 152      3795B43B 
 152      6DED3400 
 152      C87114
 153 0478 17A60348 		.ascii	"\027\246\003HG\313\217\355\353\035\272\220sf^\366\025"
 153      47CB8FED 
 153      EB1DBA90 
 153      73665EF6 
 153      15
 154 0489 C723EE7C 		.ascii	"\307#\356|\362\275\315AmT\2206}\037\033\224\014\177"
 154      F2BDCD41 
 154      6D549036 
 154      7D1F1B94 
 154      0C7F
 155 049b 79836F24 		.ascii	"y\203o$\303?86\374\271\203\357\353\212\\\350\335\253"
 155      C33F3836 
 155      FCB983EF 
 155      EB8A5CE8 
 155      DDAB
 156 04ad E9FD3131 		.ascii	"\351\37511a:U=\030\337\265\243\252\201\367Q\376\031"
ARM GAS  /tmp/ccyZ1xFR.s 			page 12


 156      613A553D 
 156      18DFB5A3 
 156      AA81F751 
 156      FE19
 157 04bf AA8F1D83 		.ascii	"\252\217\035\203\206V\315\324\274~\302VU\220\341L\273"
 157      8656CDD4 
 157      BC7EC256 
 157      5590E14C 
 157      BB
 158 04d0 1D527B03 		.ascii	"\035R{\003\000\351\355\220\310,\000Iuh\237_\352\324"
 158      00E9ED90 
 158      C82C0049 
 158      75689F5F 
 158      EAD4
 159 04e2 A950F39F 		.ascii	"\251P\363\237X\007\201\210.\347\223_l\016\351\330!\232"
 159      58078188 
 159      2EE7935F 
 159      6C0EE9D8 
 159      219A
 160 04f4 C770C7FC 		.ascii	"\307p\307\374\354&\203\366I\317\216:\373\223\203\237"
 160      EC2683F6 
 160      49CF8E3A 
 160      FB93839F 
 161 0504 3A9C779F 		.ascii	":\234w\237l@\023\257\002\307t\306\366S\274\331\000\216"
 161      6C4013AF 
 161      02C774C6 
 161      F653BCD9 
 161      008E
 162 0516 606CFC31 		.ascii	"`l\3741\015U\323\236\232\255\366T?\355\251\275\324\311"
 162      0D55D39E 
 162      9AADF654 
 162      3FEDA9BD 
 162      D4C9
 163 0528 6AD9A0F8 		.ascii	"j\331\240\370G;\226h\3439z\305\251\230\237\205\326\327"
 163      473B9668 
 163      E3397AC5 
 163      A9989F85 
 163      D6D7
 164 053a 0044E7B5 		.ascii	"\000D\347\265c\367\037\372\325/a\325\226\233G\267\245"
 164      63F71FFA 
 164      D52F61D5 
 164      969B47B7 
 164      A5
 165 054b 3A5B5B6A 		.ascii	":[[j\344\226>y)iOc.\371\033\2714W\023\005\01391\252"
 165      E4963E79 
 165      29694F63 
 165      2EF91BB9 
 165      34571305 
 166 0563 90F41019 		.ascii	"\220\364\020\031\0131U!se\224+\227.\213\261\342d)\205"
 166      0B315521 
 166      7365942B 
 166      972E8BB1 
 166      E2642985 
 167 0577 FA295733 		.ascii	"\372)W3\240\371\377\341\006\267\\>}6\227i\223 \232\320"
 167      A0F9FFE1 
 167      06B75C3E 
 167      7D369769 
ARM GAS  /tmp/ccyZ1xFR.s 			page 13


 167      93209AD0 
 168 058b 55E1F9B0 		.ascii	"U\341\371\260\336F\020\177\274\223\024!6\001\017\221"
 168      DE46107F 
 168      BC931421 
 168      36010F91 
 169 059b AFDFFF2D 		.ascii	"\257\337\377-i\357\321y\377\277C\275Ygfd\233\331<]R"
 169      69EFD179 
 169      FFBF43BD 
 169      59676664 
 169      9BD93C5D 
 170 05b0 18A249A2 		.ascii	"\030\242I\242\376\262\263\326&\352~E\324^M\324[3\020"
 170      FEB2B3D6 
 170      26EA7E45 
 170      D45E4DD4 
 170      5B3310
 171 05c3 F534D53F 		.ascii	"\3654\325?\037\300QD\225P-\035$\363\025QOS\327\366S"
 171      1FC05144 
 171      95502D1D 
 171      24F31551 
 171      4F53D7F6 
 172 05d8 D76A2553 		.ascii	"\327j%S^\030J\332q\352\376\177\037Ng\355Cm\266>\324"
 172      5E184ADA 
 172      71EAFE7F 
 172      1F4E67ED 
 172      436DB63E 
 173 05ed A9AFD5D0 		.ascii	"\251\257\325\320\316[t!\013Tyt\320H\325B:\303\027\330"
 173      CE5B7421 
 173      0B547974 
 173      D048D542 
 173      3AC317D8 
 174 0601 A7B1D42E 		.ascii	"\247\261\324.\2423{\241}\374H\355m\000\244\037?\022"
 174      A2337BA1 
 174      7DFC48ED 
 174      6D00A41F 
 174      3F12
 175 0613 590CE0F0 		.ascii	"Y\014\340\360>;\235u\237e,Z\357\263\3052\312\311\241"
 175      3E3B9D75 
 175      9F652C5A 
 175      EFB3C532 
 175      CAC9A1
 176 0626 CB62ACC9 		.ascii	"\313b\254\311g%A\255&A\036~\003\344\275P\363\332\244"
 176      672541AD 
 176      26411E7E 
 176      03E4BD50 
 176      F3DAA4
 177 0639 1C47AE5C 		.ascii	"\034G\256\\\035\020#\210\026\326\265\346\3319Lg\016"
 177      1D102388 
 177      16D6B5E6 
 177      D9394C67 
 177      0E
 178 064a 4B3D5D2A 		.ascii	"K=]*\207_\306y\341\317\321q\274\271\304q\2538\034\357"
 178      875FC679 
 178      E1CFD171 
 178      BCB9C471 
 178      AB381CEF 
 179 065e 809DDDBF 		.ascii	"\200\235\335\277\2705)\235\327@\241\214\3645\020H\370"
 179      B835299D 
ARM GAS  /tmp/ccyZ1xFR.s 			page 14


 179      D740A18C 
 179      F4351048 
 179      F8
 180 066f D344BDC1 		.ascii	"\323D\275\301\226\250\310B\336\203O1\023vm\340\342P"
 180      96A8C842 
 180      DE834F31 
 180      13766DE0 
 180      E250
 181 0681 2BB02BF4 		.ascii	"+\260+\364\366\345\007\340\021\246.\344\263\241~f\240"
 181      F6E507E0 
 181      11A62EE4 
 181      B3A17E66 
 181      A0
 182 0692 4521E8DC 		.ascii	"E!\350\334\277\267\201\364\020R\314\340\337<\327\015"
 182      BFB781F4 
 182      1052CCE0 
 182      DF3CD70D 
 183 06a2 92374243 		.ascii	"\2227BC\035v\037\015p}\337,\310H\341,K@\337\346\213"
 183      1D761F0D 
 183      707DDF2C 
 183      C848E12C 
 183      4B40DFE6 
 184 06b7 ED357680 		.ascii	"\3555v\200aSU\253\321\304\013\363\341\246\036q}\363"
 184      615355AB 
 184      D1C40BF3 
 184      E1A61E71 
 184      7DF3
 185 06c9 FD382C25 		.ascii	"\3758,%\302\372\014\003:q\246+\232\351B\234\336\011"
 185      C2FA0C03 
 185      3A71A62B 
 185      9AE9429C 
 185      DE09
 186 06db B860EDFA 		.ascii	"\270`\355\372\301.\360.*-?\363\005\330\343,)h\273\240"
 186      C12EF02E 
 186      2A2D3FF3 
 186      05D8E32C 
 186      2968BBA0 
 187 06ef 493E73FC 		.ascii	"I>s\374V\302\255\347\035C\236\031g_\275E\033.U'\204"
 187      56C2ADE7 
 187      1D439E19 
 187      675FBD45 
 187      1B2E5527 
 188 0704 E9382124 		.ascii	"\3518!$\262\014@\373\257\301q\366xb\234F\352!>\223\026"
 188      B20C40FB 
 188      AFC171F6 
 188      78629C46 
 188      EA213E93 
 189 0719 228A776C 		.ascii	"\"\212wl\307\037\007I\303zYO\362@\304\366I\353\021\026"
 189      C71F0749 
 189      C37A594F 
 189      F240C4F6 
 189      49EB1116 
 190 072d 54C87663 		.ascii	"T\310vcA\035GN\276\366\271\012\360\3574\253\037\203"
 190      411D474E 
 190      BEF6B90A 
 190      F0EF34AB 
 190      1F83
ARM GAS  /tmp/ccyZ1xFR.s 			page 15


 191 073f 6644FB0C 		.ascii	"fD\373\014q\322i\2371\316\010\332\003\015\377\230\242"
 191      71D2699F 
 191      31CE08DA 
 191      030DFF98 
 191      A2
 192 0750 EB5EAE3C 		.ascii	"\353^\256<\304\360\337\261\"\374;6\300\332=\350a\311"
 192      C4F0DFB1 
 192      22FC3B36 
 192      C0DA3DE8 
 192      61C9
 193 0762 05B780B0 		.ascii	"\005\267\200\260y\257\002\365\226\027\236{\206\326\007"
 193      79AF02F5 
 193      96179E7B 
 193      86D607
 194 0771 8082DEE7 		.ascii	"\200\202\336\347\202\352\025\377\210\254\2002\267Y\270"
 194      82EA15FF 
 194      88AC8032 
 194      B759B8
 195 0780 D4D32B2B 		.ascii	"\324\323++\253\0267GWE\353\357\251Z\273\256\252qmK\313"
 195      AB163747 
 195      5745EBEF 
 195      A95ABBAE 
 195      AA716D4B 
 196 0795 DA87E16D 		.ascii	"\332\207\341mMtU\325\272G\033\253\032\233\233\037jh"
 196      4D7455D5 
 196      BA471BAB 
 196      1A9B9B1F 
 196      6A68
 197 07a7 AD6C6466 		.ascii	"\255ldfske\265\325\000r\016\311\032suk\345\215\342\221"
 197      736B65B5 
 197      D500720E 
 197      C91A7375 
 197      6BE58DE2 
 198 07bc 56D1DC6A 		.ascii	"V\321\334j\26564=\264N\254n5\000q\255\242\321?\264"
 198      B536343D 
 198      B44EAC6E 
 198      350071AD 
 198      A2D13FB4 
 199 07d0 1B1A00   		.ascii	"\033\032\000"
 200              		.text
 201              		.section	.gnu.lto_chHeapFree.934408162e27f1e5,"",%progbits
 202 0000 789C9D55 		.ascii	"x\234\235U]h\034U\024>\347\316\314\316\314\316\230."
 202      5D681C55 
 202      143EE7CE 
 202      CCCECCCE 
 202      982E
 203 0012 B469B221 		.ascii	"\264i\262!4\2334D\223H\226\"\325'\361\301'\237|\260"
 203      349B3444 
 203      93489622 
 203      D527F1C1 
 203      279F7CB0 
 204 0026 017D4C56 		.ascii	"\001}LVI\206\032\023\355\233y\350d7\017\301\"\204\212"
 204      49861A13 
 204      ED9B79E8 
 204      64370FC1 
 204      22848A
 205 0039 9A581F12 		.ascii	"\232X\037\022\244\025|)R\011\205@\263\011\012M\260\255"
ARM GAS  /tmp/ccyZ1xFR.s 			page 16


 205      A4157C29 
 205      52098540 
 205      B3090A4D 
 205      B0AD
 206 004b 3642D350 		.ascii	"6B\323P0FT|\022\024$.\305\361\334\237\231\235]\247\351"
 206      3046547C 
 206      1214242E 
 206      C5F1DC9F 
 206      999D5DA7 
 207 0060 260373EE 		.ascii	"&\003s\356\317\271\367;\347~\367\273\3672`P\377-\320"
 207      CFB9F73B 
 207      E77EF7BB 
 207      F7326050 
 207      FF2DD0
 208 0073 3F990678 		.ascii	"?\231\006x\226J|\002\220\315\336\006\230\262\030j\262"
 208      964A7C02 
 208      90CDDE06 
 208      98B2186A 
 208      B2
 209 0084 A231E381 		.ascii	"\2421\343\201\003~Z\377j\015\300wuf\314<IM\207[\327"
 209      037E5AFF 
 209      6A0DC077 
 209      7566CC3C 
 209      494D875B 
 210 0099 60E69A46 		.ascii	"`\346\232F\255\324\355\015\356L\251\246#\233&\263\304"
 210      ADD4ED0D 
 210      EE4CA9A6 
 210      239B26B3 
 210      C4
 211 00aa 545B4EB5 		.ascii	"T[N\265\320\226\2206K\213~W\366\247\321\225\375\216"
 211      D0969036 
 211      4B8B7E57 
 211      F6A7D195 
 211      FD8E
 212 00bc 8CB96AB9 		.ascii	"\214\271j\271\210\274\002\010\347\231\246\033)\323\262"
 212      88BC0208 
 212      E799A61B 
 212      29D3B2
 213 00cb D38E8BE7 		.ascii	"\323\216\213\347_C\236\261\326\005\213\276\177q\347"
 213      5F439EB1 
 213      D6058BBE 
 213      7F71E7
 214 00da 9BAB77D9 		.ascii	"\233\253w\331\274_\236^\360\037\006\001\242\207\264"
 214      BC5F9E5E 
 214      F01F0601 
 214      A287B4
 215 00e9 BA7E8402 		.ascii	"\272~\204\002\302\253\324\300\234(\230^\273\\9\327\377"
 215      C2ABD4C0 
 215      9C28985E 
 215      BB5C39D7 
 215      FF
 216 00fa F1F59BFE 		.ascii	"\361\365\233\376t9\010^\020\263\006\032\233U\016.~\230"
 216      7439085E 
 216      10B3061A 
 216      9B550E2E 
 216      7E98
 217 010c F5178AB3 		.ascii	"\365\027\212\263\376\277\024\320C\215\301\251\307\315"
ARM GAS  /tmp/ccyZ1xFR.s 			page 17


 217      FEBF14D0 
 217      438DC1A9 
 217      C7CD
 218 011a BCCACA3B 		.ascii	"\274\312\312;A\360\340\343\337\177\372\024\233\373\020"
 218      41F0E0E3 
 218      DF7FFA14 
 218      9BFB10
 219 0129 867011BB 		.ascii	"\206p\021\273@\3071\004\203\032\237Q\303\244\3622\225"
 219      40C73104 
 219      831A9F51 
 219      C3A4F232 
 219      95
 220 013a 9672DAE0 		.ascii	"\226r\332\340\241\236\346\306\341\306\345\246\211\214"
 220      A19EE6C6 
 220      E1C6E5A6 
 220      898C
 221 0148 91210347 		.ascii	"\221!\003Gy\363\030\031\326\314\315q\336\327\302M+w"
 221      79F31819 
 221      D6CCCD71 
 221      DED7C24D 
 221      2B77
 222 015a 64B969E3 		.ascii	"d\271i\343\246\235\367\235\340\265\016>.\307M'\357\353"
 222      A69DF79D 
 222      E0B50E3E 
 222      2EC74D27 
 222      EFEB
 223 016c E27D27B9 		.ascii	"\342}'\271\351\346\246\207\367\365\252\320\364\0310"
 223      E9E6A687 
 223      F7F5AAD0 
 223      F41930
 224 017b EDFBB339 		.ascii	"\355\373\2639\331\226\011\312\364\306\220\330/\210\035"
 224      D99609CA 
 224      F4C690D8 
 224      2F881D
 225 018a 3843B6A2 		.ascii	"8C\266\242\301 2*\264[P\272P\272v%5\204\237\243\001"
 225      C120322A 
 225      B45B50BA 
 225      50BA7625 
 225      35849FA3 
 226 019f 23688CA0 		.ascii	"#h\214\240.\250\330\013\202\340\010\015_\007&}\022\216"
 226      2EA8D80B 
 226      82E0080D 
 226      5F07267D 
 226      128E
 227 01b1 4600DC82 		.ascii	"F\000\334\202\342\366\326\265\015\014'\231\375\360\205"
 227      E2F6D6B5 
 227      0D0C2799 
 227      FDF085
 228 01c0 4FDF7344 		.ascii	"O\337sDk?\364y\230\272\004\237\020\210\251\300 \004"
 228      6B3FF479 
 228      98BA049F 
 228      1088A9C0 
 228      2004
 229 01d2 836194CC 		.ascii	"\203a\224\314\016\243\252\020~\261\234\015#\\\026\021"
 229      0EA3AA10 
 229      7EB19C0D 
 229      235C1611 
ARM GAS  /tmp/ccyZ1xFR.s 			page 18


 230 01e2 4C11A152 		.ascii	"L\021\241RZ\251\246eMB\205G8E`*\330\363\204/\303X4\205"
 230      5AA9A665 
 230      4D428547 
 230      3845602A 
 230      D8F3842F 
 231 01fa 87D11474 		.ascii	"\207\321\024t\354\234p\364T\210\276(\320-\225\377\322"
 231      EC9C70F4 
 231      5488BE28 
 231      D02D95FF 
 231      D2
 232 020b 060BD16D 		.ascii	"\006\013\321m\221\264\335h\352\232\002'\356f\264\020"
 232      91B4DD68 
 232      EA9A0227 
 232      EE66B410 
 233 021b 234D307C 		.ascii	"#M0|\202mJ\317r\344q\310)<!\024y\337/\375q\345l8\300"
 233      826D4ACF 
 233      72E471C8 
 233      293C2114 
 233      79DF2FFD 
 234 0234 A5316280 		.ascii	"\2451b\200%\234\305\365\255\245\212\342V\255\325\014"
 234      259CC5F5 
 234      ADA58AE2 
 234      56ADD50C 
 235 0244 B34B3F3A 		.ascii	"\263K?:;]eg\210\222P\025\213\377\364\204q\232&\341]"
 235      3B5D6567 
 235      88925015 
 235      8BFFF484 
 235      719A26E1 
 236 0259 52A20072 		.ascii	"R\242\000r\222\251KU\251\273\003\272\234HW\014\221?"
 236      92A94B55 
 236      A9BB03BA 
 236      9C48570C 
 236      913F
 237 026b E3673C74 		.ascii	"\343g<t\013j\337\010\314\243\013G|\2034\233N\274F\\"
 237      0B6ADF08 
 237      CCA30B47 
 237      7C83349B 
 237      4EBC465C 
 238 027f D302429A 		.ascii	"\323\002B\232i\334M\370\372\267\325{\037\270a|\024\344"
 238      69DC4DF8 
 238      FAB7D57B 
 238      1FB8617C 
 238      14E4
 239 0291 CBEF3E50 		.ascii	"\313\357>P\253\327\371\341K\336\311\036\316g9\216\016"
 239      ABD7F9E1 
 239      4BDEC91E 
 239      CE67398E 
 239      0E
 240 02a2 74A96834 		.ascii	"t\251h4\355\327\325{\233\3351Ib5\255A\352\373\373i\215"
 240      EDD7D57B 
 240      9BDD3149 
 240      6235AD41 
 240      EAFBFB69 
 241 02b7 6FE1DCF2 		.ascii	"o\341\334\362v$\301\214X\025\324\221\204\202$\250%\310"
 241      7624C18C 
 241      5815D491 
 241      848224A8 
ARM GAS  /tmp/ccyZ1xFR.s 			page 19


 241      25C8
 242 02c9 544832BD 		.ascii	"TH2\275\315|\004Q\035\034\305J\301_}<\241_V\357ov\304"
 242      CD7C0451 
 242      1D1CC54A 
 242      C15F7D3C 
 242      A15F56EF 
 243 02e0 12CAC407 		.ascii	"\022\312\304\007\231\362 \321\276-\337e5\373v\344\377"
 243      99F220D1 
 243      BE2DDF65 
 243      35FB76E4 
 243      FF
 244 02f1 293D72DF 		.ascii	")=r\337LElFj`\257\001\254}\226\027\235\323\3537\252"
 244      4C456C46 
 244      6A60AF01 
 244      AC7D9617 
 244      9DD3EB37 
 245 0306 241D8DE9 		.ascii	"$\035\215\351\274a%\325\351\374\030\301\210\013\002"
 245      BC6125D5 
 245      E9FC18C1 
 245      880B02
 246 0315 A5E7BDC8 		.ascii	"\245\347\275\310\323LN\341\2212.]\210<\307\005g\315"
 246      D34C4EE1 
 246      91322E5D 
 246      883CC705 
 246      67CD
 247 0327 32A1EF9A 		.ascii	"2\241\357\232\302\356\226\304={\014Ar\337\246N\307\260"
 247      C2EE96C4 
 247      3D7B0C41 
 247      72DFA64E 
 247      C7B0
 248 0339 5BE29B61 		.ascii	"[\342\233a\301\267 \324\261wc-J\2405q\341-I\364\305"
 248      C1B720D4 
 248      B177632D 
 248      4AA03571 
 248      E12D49F4 
 249 034e 175D5A8A 		.ascii	"\027]Z\212\250\313\322\262\011\247\216\2146r\210\223"
 249      A8CBD2B2 
 249      09A78E8C 
 249      36728893 
 250 035e 2BC928BE 		.ascii	"+\311(\276\024\337\261\214\210\250j\0078\270m\222\247"
 250      14DFB18C 
 250      88A86A07 
 250      38B86D92 
 250      A7
 251 036f B9953FA3 		.ascii	"\271\225?\243\013\252=\221\251\304\374\315(\377\342"
 251      0BAA3D91 
 251      A9C4FCCD 
 251      28FFE2
 252 037e FAAC53A3 		.ascii	"\372\254S\243\240g\016\241\306\366\220W[\211|{ke7b\345"
 252      A0670EA1 
 252      C6F69057 
 252      5B897C7B 
 252      6B653762 
 253 0393 4422AF89 		.ascii	"D\"\257\211\262L\024S\007A$\213)G\316d1u\212\213$W\257"
 253      B24C1453 
 253      0741248B 
 253      2947CE64 
ARM GAS  /tmp/ccyZ1xFR.s 			page 20


 253      31758A8B 
 254 03aa 83CE9128 		.ascii	"\203\316\221(\204\3107\035\352`n\267\252\203\256\303"
 254      84C8371D 
 254      EA606EB7 
 254      AA83AEC3 
 255 03ba 1F809816 		.ascii	"\037\200\230\026NR\326#\374\301\255YK79\016\252\205"
 255      4E52D623 
 255      FCC1AD59 
 255      4B37390E 
 255      AA85
 256 03cc 7D982240 		.ascii	"}\230\"@u\200w\253:\3509\334\211iL\013\373\336&=!\257"
 256      758077AB 
 256      3AE839DC 
 256      89694C0B 
 256      FBDE263D 
 257 03e2 0E7CB421 		.ascii	"\016|\264!\211\275\376\363ZDI\257\202=}\300;\230\277"
 257      89BDFEF3 
 257      5A4449AF 
 257      823D7DC0 
 257      3B98BF
 258 03f5 CFADB5EF 		.ascii	"\317\255\265\357so\030\311\345\212\273\003\323;\363"
 258      736F18C9 
 258      E58ABB03 
 258      D33BF3
 259 0404 67931E22 		.ascii	"g\223\036\"\2462\223\017\321\3670\265p\311\011\307\311"
 259      A632930F 
 259      D1F730B5 
 259      70C909C7 
 259      C9
 260 0415 EF0CBD1B 		.ascii	"\357\014\275\033\025\215\217{j` \377\342\2507\354\275"
 260      158D8F7B 
 260      6A6020FF 
 260      E2A837EC 
 260      BD
 261 0426 FC4A7EFC 		.ascii	"\374J~\374\\\2760>66\376\026\325\336\364\206\363\347"
 261      5CBE303E 
 261      3636FE16 
 261      D5DEF486 
 261      F3E7
 262 0438 DE29E40B 		.ascii	"\336)\344\013\243\243o\014M\014\024\200\275=\301F'\014"
 262      A3A36F0C 
 262      4D0C1480 
 262      BD3DC146 
 262      270C
 263 044a DE9AF80F 		.ascii	"\336\232\370\017\307eQ\364"
 263      C76551F4 
 264              		.text
 265              		.section	.gnu.lto_chHeapStatus.934408162e27f1e5,"",%progbits
 266 0000 789C8D54 		.ascii	"x\234\215T\315k\\U\024?\347\336\3675\357c&iI \320E\251"
 266      CD6B5C55 
 266      143FE7DE 
 266      F735EF63 
 266      26694920 
 267 0017 0BC5C08C 		.ascii	"\013\305\300\214\342BA\324E\377\000\0276`\227\223\261"
 267      E24241D4 
 267      45FF0017 
 267      36609793 
ARM GAS  /tmp/ccyZ1xFR.s 			page 21


 267      B1
 268 0028 4C1E749A 		.ascii	"L\036t\232\324\270\251]\364&3\320P#\004E\213\265\213"
 268      D4B8A95D 
 268      F42633D0 
 268      50230445 
 268      8BB58B
 269 003b 94584215 		.ascii	"\224XB\025\022\261\205*ca\"ZS\253\015\355\306\246v1"
 269      12B1852A 
 269      6361225A 
 269      53AB0DED 
 269      C6A67631 
 270 004f 74611407 		.ascii	"ta\024\007l\027\006iR\307s\357}w>\302@\373`\346\334"
 270      6C170669 
 270      52C773EF 
 270      7D773EC2 
 270      40FB60E6 
 271 0064 77CEEF77 		.ascii	"w\316\357w\276\337e\300`\347\363\031\375l\027`?IL\003"
 271      BEDF65C0 
 271      60E7F319 
 271      FD6C1760 
 271      3F494C03 
 272 0078 B2B91B00 		.ascii	"\262\271\033\000S\036c\374n\000\302\267.}\007 B\216"
 272      531E63FC 
 272      6E00C2B7 
 272      2E7D0720 
 272      428E
 273 008a 96D65BE8 		.ascii	"\226\326[\350\351\203\315\234\231\247\011\340\312\377"
 273      E983CD9C 
 273      99A709E0 
 273      CAFF
 274 0098 D04157AB 		.ascii	"\320AW\253]m_\361<f\317\376HT?Uq\011\220b\276\362\344"
 274      5D6D5FF1 
 274      3C66CFFE 
 274      48543F55 
 274      71099062 
 275 00af 07D26DE8 		.ascii	"\007\322m\350c\240\361\001\013\317\\\225\372hS\302B"
 275      63A0F101 
 275      0BCF5C95 
 275      FA6853C2 
 275      42
 276 00c0 8CB43E42 		.ascii	"\214\264>B\224\007@8\301\270e;\256\227\362\2030\302"
 276      94074038 
 276      C1B8653B 
 276      AE97F283 
 276      30C2
 277 00d2 13075166 		.ascii	"\023\007Qfm\355\203sB|P\377\341\357[\354\023Q\253\314"
 277      6DED8373 
 277      427C50FF 
 277      E1EF5BEC 
 277      1351ABCC 
 278 00e6 8BED6613 		.ascii	"\213\355f\0231F\252p\030\241\200\360&\275\340^%\230"
 278      3146AA70 
 278      18A180F0 
 278      26BDE05E 
 278      2598
 279 00f8 D55DB2E6 		.ascii	"\325]\262\346\326\232\037\277?$\346\247\347\304\177"
 279      D69A1FBF 
ARM GAS  /tmp/ccyZ1xFR.s 			page 22


 279      3F24E6A7 
 279      E7C47F
 280 0107 448D9133 		.ascii	"D\215\2213\310>\031ST\337Z\025\225Z\263\371\232b=\367"
 280      C83E1953 
 280      54DF5A15 
 280      955AB3F9 
 280      9A623DF7 
 281 011b 84ACDFBA 		.ascii	"\204\254\337\272X/>\216\265\314j\365f\363\356\345\177"
 281      582F3E8E 
 281      B5CC6AF5 
 281      66F3EEE5 
 281      7F
 282 012c 66BFC53F 		.ascii	"f\277\305?\330\020BI\026\227\307s\270\0178\311\005\222"
 282      D8104249 
 282      1697C773 
 282      B80F38C9 
 282      0592
 283 013e 16C9F324 		.ascii	"\026\311\363$m\222\213$\235D\246\220\300>\304hE\011"
 283      6D928B24 
 283      9D44A690 
 283      C03EC468 
 283      4509
 284 0150 234D2F90 		.ascii	"#M/\220I\314}\011\275?\241\357\"8\356&\204=@'6(Or-\240"
 284      49CC7D09 
 284      BD3FA1EF 
 284      2238EE26 
 284      843D4027 
 285 016a 22C4DC5E 		.ascii	"\"\304\334^\355@34^{\001Y\000=\007\350\237f<\202\214"
 285      ED403334 
 285      5E7B0159 
 285      003D07E8 
 285      9F663C82 
 286 017f 045F85EF 		.ascii	"\004_\205\3577V><\315\363x\201\234\0241%ks:\013\033"
 286      37563E3C 
 286      CDF37881 
 286      9C143125 
 286      6B733A0B 
 287 0194 410E2791 		.ascii	"A\016'\221_\203\351\372O\1779\032G\351\036\207\207b"
 287      5F83E9FA 
 287      4F7F391A 
 287      47E91E87 
 287      8762
 288 01a6 46889709 		.ascii	"F\210\227\011]\"D\033mI\267\204\366@\302\212H\341~\201"
 288      5D22441B 
 288      6D49B784 
 288      F640C28A 
 288      48E17E81 
 289 01ba E987E5CB 		.ascii	"\351\207\345\313K\255 \376qx\227\212\035\206gct?\205"
 289      4BAD20FE 
 289      7178978A 
 289      1D866763 
 289      743F85
 290 01cd 3314D223 		.ascii	"3\024\322#`;\364(v$\260\006\226&B\022\264/\306T\001"
 290      603BF428 
 290      7624B006 
 290      96264212 
 290      B42FC654 
ARM GAS  /tmp/ccyZ1xFR.s 			page 23


 291 01e2 35849CC5 		.ascii	"5\204\234\305\350\003\310\364n\\O\322\323eKw\222$m\363"
 291      E803C8F4 
 291      6E5C4FD2 
 291      D3654B77 
 291      92246DF3 
 292 01f6 6B81312D 		.ascii	"k\2011-\3560\325o\177\201\306\266\320iSYo,9&\353HF\247"
 292      EE30D56F 
 292      7F81C6B6 
 292      D0695359 
 292      6F2C3926 
 293 020e E7791ACD 		.ascii	"\347y\032\3150|.\217\257\304\030\364\316\277\243\000"
 293      307C2E8F 
 293      AFC418F4 
 293      CEBFA300 
 294 021e 8A516B25 		.ascii	"\212Qk%&gC\256\244~\035\220\372\315P\027U\373\350\327"
 294      266743AE 
 294      A47E1D90 
 294      FACD5017 
 294      55FBE8D7 
 295 0232 74AB97FC 		.ascii	"t\253\227\374k.[i\003}\223\234\362\270\363\357\346="
 295      6B2E5B69 
 295      037D939C 
 295      F2B8F3EF 
 295      E63D
 296 0244 4CE69BAC 		.ascii	"L\346\233\254\347WB\244\324g\304\325~\276\372\270\375"
 296      E75742A4 
 296      D467C4D5 
 296      7EBEFAB8 
 296      FD
 297 0255 04304DA4 		.ascii	"\0040M\244\370\231$\377\203\304US\010u\025A\021\323"
 297      F89924FF 
 297      83C45553 
 297      08751541 
 297      11D3
 298 0267 920C4915 		.ascii	"\222\014I\025,\221\274\243\224=y\274\250J\271\244J\311"
 298      2C91BCA3 
 298      943D79BC 
 298      A84AB9A4 
 298      4AC9
 299 0279 C8469567 		.ascii	"\310F\225g\312[\262Q\027U\243\372\212\310\245\027\216"
 299      CA5BB251 
 299      1755A3FA 
 299      8AC8A517 
 299      8E
 300 028a 8AC20C61 		.ascii	"\212\302\014aA\021\372\022Bsi\217!\364\027\321R\236"
 300      4111FA12 
 300      4273698F 
 300      21F417D1 
 300      529E
 301 029c 3AC0E715 		.ascii	":\300\347\025\270\037\2006\364\367\225\233\247C\003"
 301      B81F8036 
 301      F4F7959B 
 301      A74303
 302 02ab CE143BF7 		.ascii	"\316\024;\367s\204^\256>\245\266\363\317\353\256!/\232"
 302      73845EAE 
 302      3EA5B6F3 
 302      CFEBAE21 
ARM GAS  /tmp/ccyZ1xFR.s 			page 24


 302      2F9A
 303 02bd D434C455 		.ascii	"\3244\304U}\324;i\214\266\036~\343=\307\220\364h\322"
 303      7DD43B69 
 303      8CB61E7E 
 303      E33DC790 
 303      F468D2
 304 02d0 7A343645 		.ascii	"z46E\261i>\031\347\354\225c\322\207\007t\301\355\360"
 304      B1693E19 
 304      E7EC9563 
 304      D2870774 
 304      C1EDF0
 305 02e3 E1281F4A 		.ascii	"\341(\037J\241\323\265\332\012],o+\264{\246\366\352"
 305      A1D3B5DA 
 305      0A5D2C6F 
 305      2BB47BA6 
 305      F6EA
 306 02f5 CEEDCD5B 		.ascii	"\316\355\315[h\366*\255&\000;\346\300z\315\301\314t"
 306      68F62AAD 
 306      26003BE6 
 306      C07ACDC1 
 306      CC74
 307 0307 152A8DA9 		.ascii	"\025*\215\251\027Z\016\332P\320\3313Z1\353lu\210l\356"
 307      175A0EDA 
 307      50D0D933 
 307      5A31EB6C 
 307      75886CEE 
 308 031b CF57F2EB 		.ascii	"\317W\362\353\300\223\255\266f\253\0034\002\267Q\035"
 308      C093ADB6 
 308      66AB0334 
 308      02B7511D 
 309 032b 5A07CB28 		.ascii	"Z\007\313(\033\337\304\324jw\273zt\035\034\243\334\226"
 309      1BDFC4D4 
 309      6A77BB7A 
 309      741D1CA3 
 309      DC96
 310 033d 4ADB4559 		.ascii	"J\333EY|J_\025\225\306\312\203\366U\261K\"\243\356\253"
 310      7C4A5F15 
 310      95C6CA83 
 310      F655B14B 
 310      22A3EEAB 
 311 0351 C2874736 		.ascii	"\302\207G6-l\371Tyc9k\200\273\2511j\037<\375U]\373\322"
 311      2D6CF954 
 311      7963396B 
 311      80BBA931 
 311      6A1F3CFD 
 312 0369 D5262A76 		.ascii	"\325&*v\212\2660 S\227;\242\030\207A+\362V;\362@\217"
 312      8AB63020 
 312      53973BA2 
 312      1887412B 
 312      F2563BF2 
 313 037f C8215C70 		.ascii	"\310!\\pt\344\255\345\227\014p\220f\324\025\371~\257"
 313      74E4ADE5 
 313      970C7090 
 313      66D415F9 
 313      7EAF
 314 0391 C8039D91 		.ascii	"\310\003\235\221\007\215\303HF^\203J}\246\324\353\372"
 314      078DC348 
ARM GAS  /tmp/ccyZ1xFR.s 			page 25


 314      465E834A 
 314      7DA6D4EB 
 314      FA
 315 03a2 615DD7CF 		.ascii	"a]\327\317M\230\232?\025\231\260\311\347r\200n\201\212"
 315      4D989A3F 
 315      1599B0C9 
 315      E772806E 
 315      818A
 316 03b4 2B81CF64 		.ascii	"+\201\317d\263\271\375c\361h\374\372\033\271\361\311"
 316      B3B9FD63 
 316      F168FCFA 
 316      1BB9F1C9 
 317 03c4 5C61BC54 		.ascii	"\\a\274T\032?B\247\303\361hn\362\355B\25606v(?\221-"
 317      1A3F42A7 
 317      C3F1686E 
 317      F2ED42AE 
 317      30367628 
 318 03db 003B3A81 		.ascii	"\000;:\201G\234w&\362\305C\223\316a%l\365\377? \033"
 318      479C7726 
 318      F2C54393 
 318      CE61256C 
 318      F5FF3F20 
 319 03f0 AE06     		.ascii	"\256\006"
 320              		.text
 321              		.section	.gnu.lto_.symbol_nodes.934408162e27f1e5,"",%progbits
 322 0000 789C4D8C 		.ascii	"x\234M\214\273\012\302P\020Dg\356\336\233\307W\344\267"
 322      BB0AC250 
 322      104467EE 
 322      DE9BC757 
 322      E4B7
 323 0012 FC9B8D04 		.ascii	"\374\233\215\004\324Rl\354l\322X\370\027\366\3266\202"
 323      D4526CEC 
 323      6CD258F8 
 323      17F6D636 
 323      82
 324 0023 9242D180 		.ascii	"\222B\321\200\217\250h#^5\230ls8\263\303\030\030\254"
 324      8FA86823 
 324      5E35986C 
 324      7338B3C3 
 324      1818AC
 325 0036 509F3951 		.ascii	"P\2379Q\201\341\002P\235\014\350\216\204U\341\215\312"
 325      81E10250 
 325      9D0CE88E 
 325      8455E18D 
 325      CA
 326 0047 5F9A7669 		.ascii	"_\232vi\316T\323t\314\205*-\255\250\266\245W\252k\224"
 326      CE54D374 
 326      CC852A2D 
 326      ADA8B6A5 
 326      57AA6B94 
 327 005b 776A502F 		.ascii	"wjP/\245\344\223\0326\366\240F\177\023\204(\326/\212"
 327      A5E4931A 
 327      36F6A046 
 327      7F138428 
 327      D62F8A
 328 006e 84C87B65 		.ascii	"\204\310{e\"6F\361e\204|\273\354|8\337\257gb-\252\303"
 328      223646F1 
ARM GAS  /tmp/ccyZ1xFR.s 			page 26


 328      65847CBB 
 328      EC7C38DF 
 328      AF67622D 
 329 0084 6E2AE262 		.ascii	"n*\342bd}_p\3761\366\014\274o\374@\020!\033\225\011"
 329      647D5F70 
 329      FE31F60C 
 329      BC6FFC40 
 329      10211B95 
 330 0099 DEE40947 		.ascii	"\336\344\011G\014"
 330      0C
 331              		.text
 332              		.section	.gnu.lto_.refs.934408162e27f1e5,"",%progbits
 333 0000 789C6362 		.ascii	"x\234cb`b\020e\200\000V\006FF&&F \000\022,@\314\306"
 333      60621065 
 333      80005606 
 333      46462626 
 333      46200012 
 334 0018 C4C80000 		.ascii	"\304\310\000\000\004\212\000>"
 334      048A003E 
 335              		.text
 336              		.section	.gnu.lto_.decls.934408162e27f1e5,"",%progbits
 337 0000 789CBD5A 		.ascii	"x\234\275Z\015p\024E\026\356\236\315nv\311\242\010\245"
 337      0D701445 
 337      16EE9ECD 
 337      6E76C9A2 
 337      08A5
 338 0012 871E96C1 		.ascii	"\207\036\226\301R\313Sa\001Q\321\252\023-\256N\254:"
 338      52CB5361 
 338      0151D1AA 
 338      132DAE4E 
 338      AC3A
 339 0024 CFABB3AC 		.ascii	"\317\253\263\254\322\272\243\326awH\026\263?\316N\010"
 339      D2BAA3D6 
 339      61774816 
 339      B33FCE4E 
 339      08
 340 0035 58753A2C 		.ascii	"Xu:,\020B.@\010?I$@@\303\011\305?\" \210\213B\210\211"
 340      10422E40 
 340      083F4924 
 340      4040C309 
 340      C53F2220 
 341 004e 1720FE20 		.ascii	"\027 \376 \242\020\016\271S\017\353@.\374(\260\367\272"
 341      A2100EB9 
 341      530FEB40 
 341      2EFC28B0 
 341      F7BA
 342 0060 676677A6 		.ascii	"gfw\2463\263\231\015\207S\351\371\355\367\365{\337{"
 342      33B3990D 
 342      8753E9F9 
 342      EDF7F57B 
 342      DF7B
 343 0072 DDAFBB37 		.ascii	"\335\257\2737\034\342\320}\016\204Rp,\361!\264\330\205"
 343      1CE2D07D 
 343      0E845270 
 343      2CF121B4 
 343      D885
 344 0084 10FCA147 		.ascii	"\020\374\241G\221r]\016e\005\224\3471B\177\206\342\204"
ARM GAS  /tmp/ccyZ1xFR.s 			page 27


 344      91725D0E 
 344      650594E7 
 344      31427F86 
 344      E284
 345 0096 FB0AB8C2 		.ascii	"\373\012\270\302\037*\207\223\007\256\263\340:\033\312"
 345      1F2A8793 
 345      07AEB3E0 
 345      3A1BCA
 346 00a5 5C288BA1 		.ascii	"\\(\213\2414AY\003e\033\224\235Pv\251\365\223\344\244"
 346      34415903 
 346      651B949D 
 346      5076A9F5 
 346      93E4A4
 347 00b8 3B889C17 		.ascii	";\210\234\027\256A\270\216S\361'B\231\002e\022\2240"
 347      AE41B88E 
 347      53F12742 
 347      99026512 
 347      9430
 348 00ca 56DA7D1F 		.ascii	"V\332}\037g\364\330\216\025\275\002p-\201R\012e2\224"
 348      67F4D88E 
 348      15BD0270 
 348      2D81520A 
 348      653294
 349 00dd 97B1A28F 		.ascii	"\227\261\242\217C\247\3176\213v\211\236\327!\305\026"
 349      43A7CF36 
 349      8B76899E 
 349      D721C516 
 350 00ed 823B457D 		.ascii	"\202;E}fu\321\353@\332&z\364\324>\247\342\223\266\363"
 350      6675D1EB 
 350      40DA267A 
 350      F4D43EA7 
 350      E293B6F3 
 351 0101 E0BE16AE 		.ascii	"\340\276\026\256\013\241\324C\371\200\321\203p5\000"
 351      0BA1D443 
 351      F980D183 
 351      703500
 352 0110 29F5B4F6 		.ascii	")\365\264\366\247\250\355\215\326\3517Q\325\207\350"
 352      A7A8ED8D 
 352      D6E93751 
 352      D587E8
 353 011f 300E67F4 		.ascii	"0\016g\364\010\253:\276\202\025\275\005\325\037\345"
 353      08AB3ABE 
 353      8215BD05 
 353      D51FE5
 354 012e 3ADD5E56 		.ascii	":\335^V\365\373\013\224\004\024\031+\272;\324\366w\251"
 354      F5FB0B94 
 354      0414192B 
 354      BA3BD4F6 
 354      77A9
 355 0140 3EA26DC1 		.ascii	">\242m\301\365u\322\016\224\017qw\336\232T\236\364|"
 355      F575D20E 
 355      940F7177 
 355      DE9A549E 
 355      F47C
 356 0152 693141F4 		.ascii	"i1A\364|E\325i\234j\303$\20677R\364\220U\375\022:\035"
 356      7C45D569 
 356      9C6AC324 
ARM GAS  /tmp/ccyZ1xFR.s 			page 28


 356      86373752 
 356      F49055FD 
 357 0169 CB553D1D 		.ascii	"\313U=\035j;\232^\204\317UpmgtYc\242\313\363j\2348Q"
 357      6A3B9A5E 
 357      84CF5570 
 357      6D677459 
 357      63A2CBF3 
 358 0181 76BE2A54 		.ascii	"v\276*T\235\315xr\250\330Z\373\3047\233\340\272\031"
 358      9DCD7872 
 358      A8D85AFB 
 358      C4379BE0 
 358      BA19
 359 0193 CA16134E 		.ascii	"\312\026\023N\012P\245,'\344\306ryl\313u\375\321<\031"
 359      0A50A52C 
 359      27E4C672 
 359      796CCB75 
 359      FDD13C19 
 360 01a7 8EC216D0 		.ascii	"\216\302\026\320\3509\314\343\353<\304Vr\347\365\240"
 360      E839CCE3 
 360      EB3CC456 
 360      72E7F5A0 
 361 01b7 7E50FB4E 		.ascii	"~P\373N\364\206,Ww\31682H\316\343\361\012\334\037\354"
 361      F4862C57 
 361      77CE3832 
 361      48CEE3F1 
 361      0ADC1FEC 
 362 01cb BB03A37B 		.ascii	"\273\003\243{\320*\020\253\006\240_\240\356G\217\250"
 362      D02A10AB 
 362      06A05FA0 
 362      EE478FA8 
 363 01db 1CBA1F23 		.ascii	"\034\272\037#\036\257\0048\0367\341{\224f\344\344Y\276"
 363      1EAF0438 
 363      1E37E17B 
 363      9466E4E4 
 363      59BE
 364 01ed 50798BD4 		.ascii	"Py\213\324\367&\307`\324H\252v\235\364\3105^\223\226"
 364      F726C760 
 364      D448AA76 
 364      9DF4C835 
 364      5E9396
 365 0200 1ED31A72 		.ascii	"\036\323\032rg\324\277\270|\366\223\262\354\346\361"
 365      67D4BFB8 
 365      7CF693B2 
 365      ECE6F1
 366 020f 6A6A4000 		.ascii	"jj@\000\033\340U\220\306\307\254P8\024'\022k\031u;\353"
 366      1BE05590 
 366      C6C7AC50 
 366      38142712 
 366      6B19753B 
 367 0224 5BF727F0 		.ascii	"[\367'\360TY\306\312\267\236\224N$\017V.\271Yn|\037"
 367      5459C6CA 
 367      B79E944E 
 367      240F562E 
 367      B9596E7C 
 368 0239 F7E483C6 		.ascii	"\367\344\203\306<\255\371\337d\214\270p\331\001\354"
 368      3CADF9DF 
 368      648CB870 
ARM GAS  /tmp/ccyZ1xFR.s 			page 29


 368      D901EC
 369 0248 6CA216FC 		.ascii	"l\242\026\374\015\233\232`\215\301\241\015TdK7\033*"
 369      0D9B9A60 
 369      8DC1A10D 
 369      54644B37 
 369      1B2A
 370 025a BFD26CD8 		.ascii	"\277\322l\330b\213\370\363\255\015\230\330\240\221\371"
 370      628BF8F3 
 370      AD0D98D8 
 370      A091F9
 371 0269 4E1AD78C 		.ascii	"N\032\327\214:\365V9\324\012FN.\264z\253y\017\252\310"
 371      3AF55639 
 371      D40A464E 
 371      2EB47AAB 
 371      790FAAC8 
 372 027d 1092AE58 		.ascii	"\020\222\256X\250\211\347eX\2307g\317A<\215\352\273"
 372      A889E765 
 372      58983767 
 372      CF413C8D 
 372      EABB
 373 028f 037BA0FD 		.ascii	"\003{\240\375\237\030*\354C\325\326\354\335\215\023"
 373      9F182AEC 
 373      43D5D6EC 
 373      DD8D13
 374 029e 146A1785 		.ascii	"\024j\027\205:\317\365\026j\336k;\037\246\001\266\233"
 374      3ACFF516 
 374      6ADE6B3B 
 374      1FA601B6 
 374      9B
 375 02af 02CDC833 		.ascii	"\002\315\3103\002\3618?mv\372Y\253@\320\350g\365\206"
 375      02F1383F 
 375      6D76FA59 
 375      AB40D0E8 
 375      67F586
 376 02c2 24B6EBD1 		.ascii	"$\266\353\3215\256\316\241\352<\306o\006\273t.4\365"
 376      35AECEA1 
 376      EA3CC66F 
 376      06BB742E 
 376      34F5
 377 02d4 9BDC59D7 		.ascii	"\233\334Y\327z\224\253\227\223\323\035Z\367qYq\304\241"
 377      7A94AB97 
 377      93D31D5A 
 377      F7715971 
 377      C4A1
 378 02e6 85B4AD66 		.ascii	"\205\264\255f6\366\026\236h\371U\235,\367S>\365\334"
 378      36F6169E 
 378      68F9559D 
 378      2CF7533E 
 378      F5DC
 379 02f8 7DB6B4D6 		.ascii	"}\266\264\326\332\353>\234\326\374\035\264\371v\332"
 379      DAEB3E9C 
 379      D6FC1DB4 
 379      F976DA
 380 0307 7C1BDB7C 		.ascii	"|\033\333|\327?[\376\2444\337f\253\371\355\207\026t"
 380      D73F5BFE 
 380      A434DF66 
 380      ABF9ED87 
ARM GAS  /tmp/ccyZ1xFR.s 			page 30


 380      1674
 381 0319 6F9EC78F 		.ascii	"o\236\307\217\336\230-2\026\236\370f\3202\332\310~\020"
 381      DE982D32 
 381      169EF866 
 381      D032DAC8 
 381      7E10
 382 032b E450A593 		.ascii	"\344P\245\223\015\215\321\005F\347\301\263\256\002\207"
 382      0D8DD105 
 382      46E7C1B3 
 382      AE0287
 383 033a E63B35ED 		.ascii	"\346;5\355\2638\012Y9*\001f~3n\325&Y\236\345\322tX\224"
 383      B3380A59 
 383      392A0166 
 383      7E336ED5 
 383      26599EE5 
 384 0352 3362A181 		.ascii	"3b\241\201\210\235\207\240\313j`\365v\300,\343(\221"
 384      889D87A0 
 384      CB6A60F5 
 384      76C02CE3 
 384      2891
 385 0364 DCA5076B 		.ascii	"\334\245\007k\310\031\314\250\331\001=\3302;`\375\254"
 385      C819CCA8 
 385      D9013DD8 
 385      323B60FD 
 385      AC
 386 0375 35EBD083 		.ascii	"5\353\320\203\255\310\031\314\250\331'z\260&;`\003\255"
 386      ADC819CC 
 386      A8D9277A 
 386      B0263B60 
 386      03AD
 387 0387 35FB4C0F 		.ascii	"5\373L\017\266*g0\243f\237\353\301\326\332\001+4\321"
 387      B62A6730 
 387      A3669FEB 
 387      C1D6DA01 
 387      2B34D1
 388 039a 2C7D98C9 		.ascii	",}\230\311\221\260n\305\3518\207d\344\324\006\204\034"
 388      91B06EC5 
 388      E9388764 
 388      E4D40684 
 388      1C
 389 03ab 631A6530 		.ascii	"c\032e06;s\035\300\014vC\366>\266\002\317\237&\267\014"
 389      363B731D 
 389      C00C7643 
 389      F63EB602 
 389      CF9F26B7 
 390 03c0 E3F1466A 		.ascii	"\343\361Fj\374V;\210Y\002\246\272\2152\251\200\275\233"
 390      FC563B88 
 390      5902A6BA 
 390      8D32A980 
 390      BD9B
 391 03d2 3398D12D 		.ascii	"3\230\321-K\011\230a\250Q\323QgSr`]f\260skXd\236\247"
 391      4B099861 
 391      A851D351 
 391      67537260 
 391      5D66B073 
 392 03eb 8C6C302F 		.ascii	"\214l0/\343\322\225\345\201\003\315\353\362\370\024"
 392      E3D295E5 
ARM GAS  /tmp/ccyZ1xFR.s 			page 31


 392      8103CDEB 
 392      F2F814
 393 03fa BE13CEDF 		.ascii	"\276\023\316\337cOZ\013\345^\273K\321\351\354\007Nf"
 393      634F5A0B 
 393      E55EBB4B 
 393      D1E9EC07 
 393      4E66
 394 040c 06A91D3D 		.ascii	"\006\251\035=\211ZE\302w\372Hh\261CS\226\256p\300\212"
 394      895A45C2 
 394      77FA4868 
 394      B1435396 
 394      AE70C08A 
 395 0420 A664B95C 		.ascii	"\246d\271\\\201\247n\034\224ub\010\243\363\255\253\351"
 395      81A76E1C 
 395      94756208 
 395      A3F3ADAB 
 395      E9
 396 0431 E8FC034D 		.ascii	"\350\374\003M\334\177w\232\316\000la\325\326\354\327"
 396      DC7F779A 
 396      CE006C61 
 396      D5D6ECD7 
 397 0441 A6135D14 		.ascii	"\246\023]\024\354\363\336\2035\316\373\202N\270/P\240"
 397      ECF3DE83 
 397      35CEFB82 
 397      4EB82F50 
 397      A0
 398 0452 E3DD7286 		.ascii	"\343\335r\206\207\231Nx\214\011\337\343\311\334\244"
 398      87994E78 
 398      8C09DFE3 
 398      C9DCA4
 399 0461 B4C3E8C5 		.ascii	"\264\303\350\305k*c\345\3713z\317\237\312\331\363\206"
 399      6B2A63E5 
 399      F9337ACF 
 399      9FCAD9F3 
 399      86
 400 0472 0E021390 		.ascii	"\016\002\023\220s\\\255\234\234\352\320\205z\326~\001"
 400      735CAD9C 
 400      9CEAD085 
 400      7AD67E01 
 401 0482 D3B4F65D 		.ascii	"\323\264\366]\277\246\323\264\313\224\327\263\346\016"
 401      BFA6D3B4 
 401      CB94D7B3 
 401      E60E
 402 0490 B201545B 		.ascii	"\262\001T[\263\366^\012D:\032\207.\365\032h\336kKGQ"
 402      B3F65E0A 
 402      443A1A87 
 402      2EF51A68 
 402      DE6B4B47 
 403 04a5 A0691468 		.ascii	"\240i\024h\272\213\3654f<\215\215\036Hw:\265\317]\253"
 403      BA8BF534 
 403      663C8D8D 
 403      1E48773A 
 403      B5CF5DAB 
 404 04b9 BA1C9AE3 		.ascii	"\272\034\232\343b\334e0'KfH\017\267\227j\360\331\204"
 404      62DC6530 
 404      274B6648 
 404      0FB7976A 
ARM GAS  /tmp/ccyZ1xFR.s 			page 32


 404      F0D984
 405 04cc 5C372C07 		.ascii	"\\7,\007v\346\250\376\252\240\354,\350\306\016\241?"
 405      76E6A8FE 
 405      AAA0EC2C 
 405      E8C60EA1 
 405      3F
 406 04dd 37331A72 		.ascii	"73\032r6\303m4\2432\325\0133\336S\314\230M\315X\361"
 406      36C36D34 
 406      A332D50B 
 406      33DE53CC 
 406      984DCD58 
 407 04f2 7F306375 		.ascii	"\1770cu\316f\364\323\231A\227\256\013\224\3447\000\325"
 407      CE66F4D3 
 407      994197AE 
 407      0B94E437 
 407      00D5
 408 0504 649FBE13 		.ascii	"d\237\276\023}j\270\001\306\225\372\247\355\270Py\335"
 408      7D6AB801 
 408      C695FAA7 
 408      EDB85079 
 408      DD
 409 0515 F38AF16C 		.ascii	"\363\212\361l{\003\2357S\302d[\313\251\366\364\"o!\245"
 409      7B039D37 
 409      53C2645B 
 409      CBA9F6F4 
 409      226F21A5 
 410 0529 6CBDCBA4 		.ascii	"l\275\313\244\203\331\201j\254\355\270\221\014\244u"
 410      83D9816A 
 410      ACEDB891 
 410      0CA475
 411 0538 14664B6F 		.ascii	"\024fKoa:\347}\261U\351\247\213)\320\273\335\\\350b"
 411      613AE77D 
 411      B155E9A7 
 411      8B29D0BB 
 411      DD5CE862 
 412 054c 3CE8327A 		.ascii	"<\3502z\020\036IK\027\350\000\371\252\372\206<\344\243"
 412      101E494B 
 412      17E800F9 
 412      AAFA863C 
 412      E4A3
 413 055e 9F5D8E43 		.ascii	"\237]\216C\373\250\372\304{9N\277\264\350\251\374z\276"
 413      FBA8FAC4 
 413      7B394EBF 
 413      B4E8A9FC 
 413      7ABE
 414 0570 3675521C 		.ascii	"6uR\034\324~U\210\211\344\262\271\312\316\010]\376p"
 414      D47E5588 
 414      89E4B2B9 
 414      CACE085D 
 414      FE70
 415 0582 E8D055C2 		.ascii	"\350\320U\302\355\334\317\316\012\230E\333&\213\264"
 415      EDDCCFCE 
 415      0A9845DB 
 415      268BB4
 416 0591 A36D186D 		.ascii	"\243m\030m\254\272\217\272\273\211#\352\034\355\346"
 416      ACBA8FBA 
 416      BB8923EA 
ARM GAS  /tmp/ccyZ1xFR.s 			page 33


 416      1CEDE6
 417 05a0 EE8D9859 		.ascii	"\356\215\230Y\265\221\027\272*V\035\351\015N\227\001"
 417      B59117BA 
 417      2A561DE9 
 417      0D4E9701 
 418 05b0 CF5CAD1B 		.ascii	"\317\\\255\033Z\273\0307\234\277J\336.\316\265\267A"
 418      5ABB1837 
 418      9CBF4ADE 
 418      2ECEB5B7 
 418      41
 419 05c1 F58286E5 		.ascii	"\365\202\206\345\245\206\244h\263k9f\201\275\375\307"
 419      A586A468 
 419      B36B3966 
 419      81BDFDC7 
 420 05d1 CE727546 		.ascii	"\316ruFD\276\365<R\034\241\233z\312\316\022\217\267"
 420      44BEF53C 
 420      521CA19B 
 420      7ACACE12 
 420      8FB7
 421 05e3 634E4535 		.ascii	"cNE5\233(\365HO\362\250\3202,\2271\247Y\033s6Q.\327"
 421      9B28F548 
 421      4FF2A8D0 
 421      322C9731 
 421      A7591B73 
 422 05fb E5B34EAF 		.ascii	"\345\263N\257c\207\351\234:\335[\371\330h\216\335\205"
 422      6387E99C 
 422      3ADD5BF9 
 422      D8688EDD 
 422      85
 423 060c 72FAB00A 		.ascii	"r\372\260\012\2525\372\240\332\226\177U!\000A\325\374"
 423      AA35FAA0 
 423      DA967F55 
 423      210041D5 
 423      FC
 424 061d 8612544C 		.ascii	"\206\022TL\227Yi\321e\210\006\333\364\032\274wu\032"
 424      975969D1 
 424      658806DB 
 424      F41ABC77 
 424      751A
 425 062f 247774E8 		.ascii	"$wt\350\362\205\275\355\267\366\275\351MA\352\273\346"
 425      F285BDED 
 425      B7F6BDE9 
 425      4D41EABB 
 425      E6
 426 0640 6EBEDBC5 		.ascii	"n\276\333\305N\244\354\354\221u\364\326\222\364\301"
 426      4EA4ECEC 
 426      9175F4D6 
 426      92F4C1
 427 064f A1C3F936 		.ascii	"\241\303\3716\246\271\205F\377\352\242\030\306\332\317"
 427      A6B98546 
 427      FFEAA218 
 427      C6DACF
 428 065e D44CDDE3 		.ascii	"\324L\335\343F\2336x\235\254\032\253lFrd\203\366\010"
 428      469B3678 
 428      9DAC1AAB 
 428      6C467264 
 428      83F608
ARM GAS  /tmp/ccyZ1xFR.s 			page 34


 429 0671 C3858DFD 		.ascii	"\303\205\215\375\272\357\250\310\036\266?\327W~\244"
 429      BAEFA8C8 
 429      1EB63FD7 
 429      577EA4
 430 0680 ED15EFB1 		.ascii	"\355\025\357\261\321\237\023\311\315\225\332\250\256"
 430      D19F13C9 
 430      CD95DAA8 
 430      AE
 431 068d AC897F4C 		.ascii	"\254\211\177L\343\366\226O\203\0133\012\362\270\231"
 431      E3F6964F 
 431      830B330A 
 431      F2B899
 432 069c 236BD97D 		.ascii	"#k\331}\334`=\367);\334\337m\025\211r\262\253\303\270"
 432      DC603DF7 
 432      293BDCDF 
 432      6D158972 
 432      B2ABC3B8 
 433 06b0 D73DD36D 		.ascii	"\327=\323mc\257\333\200\247\367e\"Y\3751\335 Pb\264"
 433      63AFDB80 
 433      A7F76522 
 433      59FD31DD 
 433      205062B4 
 434 06c4 9A053353 		.ascii	"\232\0053Sn\2305\330\262\371\032\271\333h\222\252\267"
 434      6E9835D8 
 434      B2F91AB9 
 434      DB6892AA 
 434      B7
 435 06d5 8337CACA 		.ascii	"\2037\312\312\330Dr\353\307\015*\236\262\261\276<g<"
 435      D84472EB 
 435      C70D2A9E 
 435      B2B1BE3C 
 435      673C
 436 06e7 A37E9FCE 		.ascii	"\243~\237\3167\244\364\325v\340\036\263\355\373\314"
 436      37A4F4D5 
 436      76E01EB3 
 436      EDFBCC
 437 06f6 0F193CDE 		.ascii	"\017\031<\336J\3671\266\341\301p~\207\236\367\322\363"
 437      4AF731B6 
 437      E1C1707E 
 437      879EF7D2 
 437      F3
 438 0707 497AFE17 		.ascii	"Iz\376\027=\177K\317\247\351\371\022=\317\344\310\271"
 438      3D7F4BCF 
 438      A7E9F912 
 438      3DCFE4C8 
 438      B9
 439 0718 8A9EE7D1 		.ascii	"\212\236\347\321s\222\236[\351\371#zn\247\347\003\364"
 439      73929E5B 
 439      E9F9237A 
 439      6EA7E703 
 439      F4
 440 0729 DCA18F2D 		.ascii	"\334\241\217-\253\201\220\231\006\360\270\205\243I\254"
 440      AB819099 
 440      06F0B885 
 440      A349AC
 441 0738 B7BBB7C9 		.ascii	"\267\273\267\311\216V\335\236\322\0067\316\021\2540"
 441      8E56DD9E 
ARM GAS  /tmp/ccyZ1xFR.s 			page 35


 441      D20637CE 
 441      11AC30
 442 0747 1B876B75 		.ascii	"\033\207ku\034\256\247\034n\240\314|\242\267T\313\303"
 442      1CAEA71C 
 442      6EA0CC7C 
 442      A2B754CB 
 442      C3
 443 0758 2BB347BD 		.ascii	"+\263G\275\265\011\235\323\217\351L\330\342\306\310"
 443      B5099DD3 
 443      8FE94CD8 
 443      E2C6C8
 444 0767 3A9764C9 		.ascii	":\227d\311\202*\037\227\0042\333YNiV\270\315\005++\035"
 444      822A1F97 
 444      0432DB59 
 444      4E6956B8 
 444      CD052B2B 
 445 077c 2B7574BC 		.ascii	"+ut\274I\351XE\351\370\214\272\377s;\356_\236\231\026"
 445      49E95845 
 445      E9F88CBA 
 445      FF733BEE 
 445      5F9E9916 
 446 0790 DACF5EE7 		.ascii	"\332\317^\347_?\376\310z\272\011u\230\016\014\273<l"
 446      5F3FFEC8 
 446      7ABA0975 
 446      980E0CBB 
 446      3C6C
 447 07a2 F27232B9 		.ascii	"\362r2\271\313i\314]NO\346F\315]\246\023\270\212\023"
 447      CB69CC5D 
 447      4E4FE646 
 447      CD5DA613 
 447      B88A13
 448 07b5 99BD1939 		.ascii	"\231\275\0319\375\033IaF\223\305\353v\337\274\223j\362"
 448      FD1B4961 
 448      4693C5EB 
 448      76DFBC93 
 448      6AF2
 449 07c7 154D1D3F 		.ascii	"\025M\035?xLSG\026"
 449      784C5347 
 449      16
 450 07d0 200EC97D 		.ascii	" \016\311}\210L'\223;\222\363gz\311:\254\323V\336X\270"
 450      884C2793 
 450      3B92F367 
 450      7AC93AAC 
 450      D356DE58 
 451 07e5 AFA1FB34 		.ascii	"\257\241\3734\364&\264P\235\312\311X\242\203\212\225"
 451      F426B450 
 451      9DCAC958 
 451      A2838A95 
 452 07f5 174E7237 		.ascii	"\027Nr7\321;\007\3751\036)\274\246\037\0242y\374\254"
 452      D13B07FD 
 452      311E29BC 
 452      A61F1432 
 452      79FCAC
 453 0808 23AB3B55 		.ascii	"#\253;UJ\266o\2728p\025\245\344k:\312\356\354c\244\204"
 453      4AB66FBA 
 453      387015A5 
 453      E46B3ACA 
ARM GAS  /tmp/ccyZ1xFR.s 			page 36


 453      EEEC63A4 
 454 081d 992491A6 		.ascii	"\231$\221\246\255\324\372\216+\260\260\274\3337\016"
 454      ADD4FA8E 
 454      2BB0B0BC 
 454      DB370E
 455 082c 7D98A6B1 		.ascii	"}\230\246\261wk\203\305\353\216\017\332\376\226,o|A"
 455      776B83C5 
 455      EB8E0FDA 
 455      FE962C6F 
 455      7C41
 456 083e 5DE0275D 		.ascii	"]\340']z\257\031\272\260bjrG\363\255\304E\337\303t\007"
 456      7AAF19BA 
 456      B0626A72 
 456      47F3ADC4 
 456      45DFC374 
 457 0853 A63E8C9D 		.ascii	"\246>\214\235=\243p\250\223\312\234\356\266W\320L~\270"
 457      3DA370A8 
 457      93CA9CEE 
 457      B657D04C 
 457      7EB8
 458 0865 3E6D63AF 		.ascii	">mc\257 \221<T>\367\026\271\261j\240\266!{*\015\331"
 458      20913C54 
 458      3EF716B9 
 458      B16AA0B6 
 458      217B2A0D 
 459 087a BB35C0B1 		.ascii	"\2735\300\261\346>\231\177\023\260\376\205\237(v\216"
 459      E63E997F 
 459      13B0FE85 
 459      9F28768E 
 460 088a 0DD9C3CD 		.ascii	"\015\331\303\315d\217\343\234\255\210=Rn\262pR\270\264"
 460      648FE39C 
 460      AD883D52 
 460      6EB27052 
 460      B8B4
 461 089c 0A878B99 		.ascii	"\012\207\213\2319\2636\224\235\353\245\273\023\311\257"
 461      39B33694 
 461      9DEBA5BB 
 461      13C9AF
 462 08ab 9AB5E4AD 		.ascii	"\232\265\344\255\214!?P\336r\301+d\014\343\320\205\253"
 462      8C213F50 
 462      DE72C12B 
 462      640CE3D0 
 462      85AB
 463 08bd E4FEBC7D 		.ascii	"\344\376\274}\356\257\260\334\237\241\334_\261\305\375"
 463      EEAFB0DC 
 463      9FA1DC5F 
 463      B1C5FD
 464 08cc D9726DA2 		.ascii	"\331rm\242\361%\355\242\227\251\336Wz\315e\027\303e"
 464      F125EDA2 
 464      97A9DE57 
 464      7ACD6517 
 464      C365
 465 08de A22057BC 		.ascii	"\242 W\274\356\\\316,\350%\227f\207\276\217AG\2413\337"
 465      EE5CCE2C 
 465      E8259766 
 465      87BE8F41 
 465      47A133DF 
ARM GAS  /tmp/ccyZ1xFR.s 			page 37


 466 08f2 B3344975 		.ascii	"\2634Iu\321\363e\343,\270\252\200\031J\314\332\266\376"
 466      D1F365E3 
 466      2CB8AA80 
 466      194ACCDA 
 466      B6FE
 467 0904 A53FD9F0 		.ascii	"\245?\331\360\004I\337\312\377\376\314g\261\214\377"
 467      0449DFCA 
 467      FFFECC67 
 467      B18CFF
 468 0913 D8A3BBB5 		.ascii	"\330\243\273\265gH\247n\012\377\017j\310\011j\302)z"
 468      6748A76E 
 468      0AFF0F6A 
 468      C8096AC2 
 468      297A
 469 0925 2E77D8C8 		.ascii	".w\330\310\271_f\372\021\323\373\210\373\254\244*\034"
 469      B95F66FA 
 469      11D3FB88 
 469      FBACA42A 
 469      1C
 470 0936 69A9DBD0 		.ascii	"i\251\333\320R\271\261\263\363\330;\207o]\004\353,\371"
 470      52B9B1B3 
 470      F3D83B87 
 470      6F5D04EB 
 470      2CF9
 471 0948 34C9A04C 		.ascii	"4\311\240L\266\261\370\221\237 U:nR\357\264\214\302"
 471      B6B1F891 
 471      9F20553A 
 471      6E52EFB4 
 471      8CC2
 472 095a A1640166 		.ascii	"\241d\001f\302\366.\324D\360\3447e\007E#\365g9n3\262"
 472      C2F62ED4 
 472      44F0E437 
 472      65074523 
 472      F567396E 
 473 0970 F15707A7 		.ascii	"\361W\007\247\177A\024\353$)\350\314-\365\233\344\351"
 473      7F4114EB 
 473      2429E8CC 
 473      2DF59BE4 
 473      E9
 474 0981 B3E42BA9 		.ascii	"\263\344+\251W\261\222c8\324\326\255\011\005cNw\014"
 474      57B19263 
 474      38D4D6AD 
 474      0905634E 
 474      770C
 475 0993 6ADCC1BB 		.ascii	"j\334\301\273{c\\\265\203I\245\204\355\364\203\362\257"
 475      7B635CB5 
 475      8349A584 
 475      EDF483F2 
 475      AF
 476 09a4 0B86348B 		.ascii	"\013\2064\213\230\324\312\241\243\214\242w\240\327e"
 476      98D4CAA1 
 476      A38CA277 
 476      A0D765
 477 09b3 B9465E22 		.ascii	"\271F^\"\214\325:\354\177h\215\271\300\206\231\032\252"
 477      8CD53AEC 
 477      7F688DB9 
 477      C086991A 
ARM GAS  /tmp/ccyZ1xFR.s 			page 38


 477      AA
 478 09c4 8755B143 		.ascii	"\207U\261CD\214.(\272z\220\032\235\021J\021!\242\035"
 478      448C2E28 
 478      BA7A901A 
 478      9D114A11 
 478      21A21D
 479 09d7 8FA739B8 		.ascii	"\217\2479\270\254R\252\015\252\273f\3133\372\341\264"
 479      AC52AA0D 
 479      AABB66CB 
 479      33FAE1B4 
 480 09e7 BFE6B2FE 		.ascii	"\277\346\262\376Z`\342\257\323\311%mm\030\032\275\224"
 480      5A60E2AF 
 480      D3C9256D 
 480      6D181ABD 
 480      94
 481 09f8 4A3958A6 		.ascii	"J9X\246\263LZ\032\2622\255\252\225m\022\303\241\213"
 481      B34C5A1A 
 481      B232ADAA 
 481      956D12C3 
 481      A18B
 482 0a0a E64C6FD6 		.ascii	"\346Lo\326\230\346\361\"j\375b[L\037cI\263\026\243\332"
 482      98E6F122 
 482      6AFD625B 
 482      4C1F6349 
 482      B316A3DA 
 483 0a1e 697E6DF6 		.ascii	"i~m\366Vcu\212\372_.\273\2343\303uB^_>\243_\236\032"
 483      5663758A 
 483      FA5F2EBB 
 483      9C33C375 
 483      425E5F3E 
 484 0a36 53D6422A 		.ascii	"S\326B*[\215fQ\236\374\251\306\222\371,1\276\222e\236"
 484      5B8D6651 
 484      9EFCA9C6 
 484      92F92C31 
 484      BE92659E 
 485 0a4a FE078E81 		.ascii	"\376\007\216\201\331*\257)\263\307\202Z0\326*\025\262"
 485      D92AAF29 
 485      B3C7825A 
 485      30D62A15 
 485      B2
 486 0a5b 06A34554 		.ascii	"\006\243ET5\261Q\365\246\271m\213\252 +%\222\251\324"
 486      35B151F5 
 486      A6B96D8B 
 486      AA202B25 
 486      92A9D4
 487 0a6e 68D6B66C 		.ascii	"h\326\266l\343\334\332\254a\245\216\202\3543c}\275\271"
 487      E3DCDAAC 
 487      61A58E82 
 487      EC33637D 
 487      BDB9
 488 0a80 F5F56C5C 		.ascii	"\365\365l\\\255\261\337\203IC\034ZI\201\255\305\250"
 488      ADB1DF83 
 488      49431C5A 
 488      4981ADC5 
 488      A8
 489 0a91 3AAA58AD 		.ascii	":\252X\255\022W\212\340Z;\202\351\310\332\370\365\037"
 489      12578AE0 
ARM GAS  /tmp/ccyZ1xFR.s 			page 39


 489      5A3B82E9 
 489      C8DAF8F5 
 489      1F
 490 0aa2 C66A5DC8 		.ascii	"\306j]\310ZJ%l\243\351\030\274\347l\013\256\3109\262"
 490      5A4A256C 
 490      A3E918BC 
 490      E76C0BAE 
 490      C839B2
 491 0ab5 B6B3E42B 		.ascii	"\266\263\344+\353V\003\271o{\315\307\361\035fz$\337"
 491      EB5603B9 
 491      6F7BCDC7 
 491      F11D667A 
 491      24DF
 492 0ac7 DE5725E3 		.ascii	"\336W%\343\352\251\235\251\324m\012<\207\232-\000\336"
 492      EAA99DA9 
 492      D46D0A3C 
 492      879A2D00 
 492      DE
 493 0ad8 350558DA 		.ascii	"5\005X\332\035\240\303\002\340=#\300\355h\271\234<\000"
 493      1DA0C302 
 493      E03D23C0 
 493      ED68B99C 
 493      3C00
 494 0aea 99E4F82F 		.ascii	"\231\344\370/\327%`a\001\024\244pj\264\266V\3742\215"
 494      D7256061 
 494      0114A470 
 494      6AB4B656 
 494      FC328D
 495 0afd 62BA3024 		.ascii	"b\2720$\200\2733\200L\246&\212X\221\370~&S\023\025\016"
 495      80BB3380 
 495      4CA6268A 
 495      5891F87E 
 495      26531315 
 496 0b12 1C482E6E 		.ascii	"\034H.n\235%c\271\\\236J\222\331\015\250\232\256I\353"
 496      9D2563B9 
 496      5C9E4A92 
 496      D90DA89A 
 496      AE49EB
 497 0b25 00E6DF38 		.ascii	"\000\346\3378\335\021*\322\363\222\033\250\250\276\332"
 497      DD112AD2 
 497      F3921BA8 
 497      A8BEDA
 498 0b34 F7D6D578 		.ascii	"\367\326\325x\274\327\241\334\031~9\2405\254\024lvd"
 498      BCD7A1DC 
 498      197E39A0 
 498      35AC146C 
 498      7664
 499 0b46 FE0BC6EB 		.ascii	"\376\013\306\353A\314,\0101\265\200\252o\275L\346b\265"
 499      41CC2C08 
 499      31B580AA 
 499      6FBD4CE6 
 499      62B5
 500 0b58 80F9BB17 		.ascii	"\200\371\273\027\253r0\231\325\354~\253Mvo\220+\344"
 500      AB723099 
 500      D5EC7EAB 
 500      4D766F90 
 500      2BE4
ARM GAS  /tmp/ccyZ1xFR.s 			page 40


 501 0b6a 54EA550B 		.ascii	"T\352U\013\253\353\322@\003\262Y\315V\343q[\316V\177"
 501      ABEBD240 
 501      03B259CD 
 501      56E3715B 
 501      CE567F
 502 0b7d 6461757F 		.ascii	"dau\177\203\325Z-\270\335\307&\021V\013\016\311}M\254"
 502      83D55A2D 
 502      B8DDC726 
 502      11560B0E 
 502      C97D4DAC 
 503 0b91 AEF9B827 		.ascii	"\256\371\270'\253\237\323p\012\262\031\315\324\342\361"
 503      AB9FD370 
 503      0AB219CD 
 503      D4E2F1
 504 0ba0 819C6D3E 		.ascii	"\201\234m>has\037\203\315\007Y\233ui\201Q\202Cs\014"
 504      6861731F 
 504      83CD0759 
 504      9B756981 
 504      51824373 
 505 0bb5 26A3C143 		.ascii	"&\243\301C\207\372\306\024\207\306\207\236~\306\027"
 505      87FAC614 
 505      87C6879E 
 505      7EC617
 506 0bc4 8DFB44C9 		.ascii	"\215\373D\311\027\212\004JJ\203\202/P\034\226&\017-"
 506      178A044A 
 506      4A83822F 
 506      501C9626 
 506      0F2D
 507 0bd6 46F9E152 		.ascii	"F\371\341RI\230\354\227\\O\374\376\331\3021\310\035"
 507      4998EC97 
 507      5C4FFCFE 
 507      D9C231C8 
 507      1D
 508 0be7 28F6D337 		.ascii	"(\366\3237we\221\214O\211KSbB\034\304\257\227\212E\201"
 508      7765918C 
 508      4F894B53 
 508      62421CC4 
 508      AF978A45 
 509 0bfc 0FC6FD2F 		.ascii	"\017\306\375/\225\012\245\202_\352\007\362\206W\267"
 509      950AA582 
 509      5FEA07F2 
 509      8657B7
 510 0c0b 67C30914 		.ascii	"g\303\011\024\007\001\303\255\010\370%OZ\330Ie\0371"
 510      0701C3AD 
 510      08F8254F 
 510      5AD84965 
 510      1F31
 511 0c1d CA06A2E1 		.ascii	"\312\006\242\341p4\342\213EE)\356{\374\217O\215yj2y"
 511      7034E28B 
 511      454529EE 
 511      7BFC8F4F 
 511      8D796A32 
 512 0c32 170B9508 		.ascii	"\027\013\225\010b\334\367\304\2301\000\251\351\225/"
 512      62DCF7C4 
 512      983100A9 
 512      E9952F
 513 0c41 C5C450D4 		.ascii	"\305\304P\324\017\025#\023hy\300W\034\015\013>Q\210"
ARM GAS  /tmp/ccyZ1xFR.s 			page 41


 513      0F152313 
 513      6879C057 
 513      1C0D0B3E 
 513      5188
 514 0c53 0BBC1828 		.ascii	"\013\274\030(\366\025\363b\260\214\027\005\037/\206"
 514      F615F362 
 514      B08C1705 
 514      1F2F86
 515 0c62 47F88A02 		.ascii	"G\370\212\002\201!p3D\010\217\027\202A!\230~\021\211"
 515      81217033 
 515      44088F17 
 515      82412198 
 515      7E1189
 516 0c75 46842102 		.ascii	"F\204!\002?>4d\244\177\324\220\021\303\206\217|i\204"
 516      3F3E3464 
 516      A47FD490 
 516      11C3868F 
 516      7C6984
 517 0c88 CFF0216D 		.ascii	"\317\360!mO\\\012\206\"\022\261\247\024\256\367\217"
 517      4F5C0A86 
 517      2212B1A7 
 517      14AEF78F 
 518 0c98 F04BD3F0 		.ascii	"\360K\323\360\317\327z\230\017\024\207\"\202\317\037"
 518      CFD77A98 
 518      0F148722 
 518      82CF1F
 519 0ca7 1426F0A5 		.ascii	"\024&\360\245%\222_c\242\217\337\257\351\223G8\361\022"
 519      25925F63 
 519      A28FDFAF 
 519      E9934738 
 519      F112
 520 0cb9 FEFC8168 		.ascii	"\376\374\201h\004\234,\335k\203\341\342@T\024\000\250"
 520      049C2CDD 
 520      6B83E1E2 
 520      40541400 
 520      A8
 521 0cca 800A0254 		.ascii	"\200\012\002T@\232\354\263+\347\237\364P\230P\"\012"
 521      409AECB3 
 521      2BE79FF4 
 521      50985022 
 521      0A
 522 0cdb 45A0B75F 		.ascii	"E\240\267_\342\304\221\234\370\000'>\310\211\017q\342"
 522      E2C4919C 
 522      F800273E 
 522      C8890F71 
 522      E2
 523 0cec 284E7CD8 		.ascii	"(N|\330!\016\037\006e8W\"r\361\230\003\300\235\021\241"
 523      210E1F06 
 523      65385722 
 523      72F19803 
 523      C09D11A1 
 524 0d00 4C109DD1 		.ascii	"L\020\235\321\222\240 \346\005\200\252\274\010\037\026"
 524      92A020E6 
 524      0580AABC 
 524      081F16
 525 0d0f FAC4A517 		.ascii	"\372\304\245\027\371\222PQ\304/Q\202\037\034\351\227"
 525      F9925051 
ARM GAS  /tmp/ccyZ1xFR.s 			page 42


 525      C42F5182 
 525      1F1CE997 
 526 0d1f 54DBC8AD 		.ascii	"T\333\310\255\253\214\037\317\307\005\267\024\227x\011"
 526      AB8C1FCF 
 526      C705B714 
 526      977809
 527 0d2e 02319F7C 		.ascii	"\0021\237|\030\0051\245T\201;'\375\222/\205\243A\370"
 527      180531A5 
 527      54813B27 
 527      FD922F85 
 527      A341F8
 528 0d41 EE9C50C2 		.ascii	"\356\234P\302\027\305\363%Q\230\020\007f\310\305\031"
 528      17C5F325 
 528      51981007 
 528      66C8C519 
 529 0d51 8E1781A0 		.ascii	"\216\027\201\240J\026\010\252w.18\005>\271\205\311!"
 529      4A1608AA 
 529      772E3138 
 529      053EB985 
 529      C921
 530 0d63 2900C2AE 		.ascii	")\000\302\2562):~b\254\277\032\266 *\210B$@@\313$I\214"
 530      32293A7E 
 530      62ACBF1A 
 530      B6202A88 
 530      42244040 
 531 0d7b E5C78588 		.ascii	"\345\307\205\210\004\002^\010\347\270\020\346c\305@"
 531      04025E08 
 531      E7B810E6 
 531      63C540
 532 0d8a 44B69E08 		.ascii	"D\266\236\010\225\200#g \002^s\300\031\032\200W1\270"
 532      95802367 
 532      20025E73 
 532      C0191A80 
 532      5731B8
 533 0d9d 401F8D15 		.ascii	"@\037\215\025\010\223\010\036\037\177\021T\021\312\310"
 533      0893081E 
 533      1F7F1154 
 533      11CAC8
 534 0dac 0D2EBD4E 		.ascii	"\015.\275N\353d%\2418H]\257\353v\344M^\004\234\233_"
 534      EB6425A1 
 534      38485DAF 
 534      EB76E44D 
 534      5E049C9B 
 535 0dc1 C687A450 		.ascii	"\306\207\244P\244\310\015\272\320\376\344\026bB\004"
 535      A4C80DBA 
 535      D0FEE416 
 535      624204
 536 0dd0 82B4281F 		.ascii	"\202\264(\037pI5p\013_B\202\302\031\216E\243%\020\037"
 536      70493570 
 536      0B5F4282 
 536      C2198E45 
 536      A325101F 
 537 0de4 C22467B4 		.ascii	"\302$g\264,\"\210S\257I\350\226\204\306\223\012L\010"
 537      2C228853 
 537      AF49E896 
 537      84C6930A 
 537      4C08
ARM GAS  /tmp/ccyZ1xFR.s 			page 43


 538 0df6 8F1C3A6A 		.ascii	"\217\034:j\350H}7\202\020\006>\\\361\320\313\300\351"
 538      E8487D37 
 538      8210063E 
 538      5CF1D0CB 
 538      C0E9
 539 0e08 7DA6A116 		.ascii	"}\246\241\026\215\023\254\014\205\305\002\037\003\231"
 539      8D13AC0C 
 539      85C5021F 
 539      0399
 540 0e16 BE61211C 		.ascii	"\276a!\034\025\247\370\311\243_*\320=\231G,\013\003"
 540      15A7F8C9 
 540      A35F2AD0 
 540      3D99472C 
 540      0B03
 541 0e28 026AB47B 		.ascii	"\002j\264{\341\266H\220&\224F\002\020p11:)\004\341\330"
 541      E1B64890 
 541      26944602 
 541      10703131 
 541      3A2904E1 
 542 0e3d 9702C309 		.ascii	"\227\002\303\011\356\001_\367\344\244\261\351\214\361"
 542      EE015FF7 
 542      E4A4B1E9 
 542      8CF1
 543 0e4b 45423C6F 		.ascii	"EB<o\202(\010y\344c\036\261!\2574.\004]J5\0070\177w"
 543      82280879 
 543      E4631EB1 
 543      21AF342E 
 543      045D4A35 
 544 0e63 1655E262 		.ascii	"\026U\342b@\263&\000]\2276\020\212\204\244\376\201\342"
 544      40B32600 
 544      5D973610 
 544      8A84A4FE 
 544      81E2
 545 0e75 31A0D8E3 		.ascii	"1\240\330\343%%\321\300\343\244%!\010C\355X\370\374"
 545      2525D1C0 
 545      E3A42521 
 545      0843ED58 
 545      F8FC
 546 0e87 F4F88942 		.ascii	"\364\370\211B@z\022\3528I\355\230c|\351\204\376\312"
 546      407A12EA 
 546      3849ED98 
 546      637CE984 
 546      FECA
 547 0e99 277DED3E 		.ascii	"'}\355>\312\253\337\202f8\346U\036\236\201\016Q\032"
 547      CAABDF82 
 547      6638E655 
 547      1E9E810E 
 547      511A
 548 0eab 77495109 		.ascii	"wIQ\011\242\300]\302\213\240\273\024\203XzJ\232\234"
 548      A2C05DC2 
 548      8BA0BB14 
 548      83587A4A 
 548      9A9C
 549 0ebd 812DA0CF 		.ascii	"\201-\240\317\317F\000\353E\017\275\377\035\334y\265"
 549      CF4600EB 
 549      450FBDFF 
 549      1DDC79B5 
ARM GAS  /tmp/ccyZ1xFR.s 			page 44


 550 0ecd 718634EA 		.ascii	"q\2064\352\366\373)Q\376\276\332\315\320\007\357\037"
 550      F6FB2951 
 550      FEBEDACD 
 550      D007EF1F 
 551 0edd 3542FFF4 		.ascii	"5B\377\364\360p\335\323\310a\017\374\017\002\225Jt"
 551      F070DDD3 
 551      C8610FFC 
 551      0F02954A 
 551      74
 552              		.text
 553              		.section	.gnu.lto_.symtab.934408162e27f1e5,"",%progbits
 554 0000 5F686561 		.ascii	"_heap_init\000\000\000\000\000\000\000\000\000\000\000"
 554      705F696E 
 554      69740000 
 554      00000000 
 554      00000000 
 555 0015 00890100 		.ascii	"\000\211\001\000\000chHeapObjectInit\000\000\000\000"
 555      00636848 
 555      6561704F 
 555      626A6563 
 555      74496E69 
 556 002e 00000000 		.ascii	"\000\000\000\000\000\000\000\000\217\001\000\000chH"
 556      00000000 
 556      8F010000 
 556      636848
 557 003d 65617041 		.ascii	"eapAllocAligned\000\000\000\000\000\000\000\000\000"
 557      6C6C6F63 
 557      416C6967 
 557      6E656400 
 557      00000000 
 558 0055 0000009B 		.ascii	"\000\000\000\233\001\000\000chHeapFree\000\000\000\000"
 558      01000063 
 558      68486561 
 558      70467265 
 558      65000000 
 559 006a 00000000 		.ascii	"\000\000\000\000\000\000\000\000\245\001\000\000chH"
 559      00000000 
 559      A5010000 
 559      636848
 560 0079 65617053 		.ascii	"eapStatus\000\000\000\000\000\000\000\000\000\000\000"
 560      74617475 
 560      73000000 
 560      00000000 
 560      00000000 
 561 008d 00AC0100 		.ascii	"\000\254\001\000\000chCoreAllocAligned\000\000\002\000"
 561      00636843 
 561      6F726541 
 561      6C6C6F63 
 561      416C6967 
 562 00a8 00000000 		.ascii	"\000\000\000\000\000\000\000\000\215\001\000\000chM"
 562      00000000 
 562      8D010000 
 562      63684D
 563 00b7 74784F62 		.ascii	"txObjectInit\000\000\002\000\000\000\000\000\000\000"
 563      6A656374 
 563      496E6974 
 563      00000200 
ARM GAS  /tmp/ccyZ1xFR.s 			page 45


 563      00000000 
 564 00cd 0000B801 		.ascii	"\000\000\270\001\000\000chMtxUnlock\000\000\002\000"
 564      00006368 
 564      4D747855 
 564      6E6C6F63 
 564      6B000002 
 565 00e2 00000000 		.ascii	"\000\000\000\000\000\000\000\000\274\001\000\000chM"
 565      00000000 
 565      BC010000 
 565      63684D
 566 00f1 74784C6F 		.ascii	"txLock\000\000\002\000\000\000\000\000\000\000\000\000"
 566      636B0000 
 566      02000000 
 566      00000000 
 566      0000
 567 0103 BE010000 		.ascii	"\276\001\000\000"
 568              		.text
 569              		.section	.gnu.lto_.opts,"",%progbits
 570 0000 272D6D63 		.ascii	"'-mcpu=cortex-m4' '-mno-thumb-interwork' '-mthumb' "
 570      70753D63 
 570      6F727465 
 570      782D6D34 
 570      2720272D 
 571 0033 272D6767 		.ascii	"'-ggdb' '-O2' '-fomit-frame-pointer' '-falign-funct"
 571      64622720 
 571      272D4F32 
 571      2720272D 
 571      666F6D69 
 572 0066 696F6E73 		.ascii	"ions=16' '-ffunction-sections' '-fdata-sections' '-"
 572      3D313627 
 572      20272D66 
 572      66756E63 
 572      74696F6E 
 573 0099 666E6F2D 		.ascii	"fno-common' '-flto'\000"
 573      636F6D6D 
 573      6F6E2720 
 573      272D666C 
 573      746F2700 
 574              		.text
 575              		.cfi_sections	.debug_frame
 576              		.section	.text._heap_init,"ax",%progbits
 577              		.align	2
 578              		.p2align 4,,15
 579              		.global	_heap_init
 580              		.thumb
 581              		.thumb_func
 582              		.type	_heap_init, %function
 583              	_heap_init:
 584              	.LFB239:
 585              		.file 1 "../ChibiOS/os/common/oslib/src/chheap.c"
 586              		.loc 1 107 0
 587              		.cfi_startproc
 588              		@ args = 0, pretend = 0, frame = 0
 589              		@ frame_needed = 0, uses_anonymous_args = 0
 590              		@ link register save eliminated.
 591              		.loc 1 109 0
 592 0000 044B     		ldr	r3, .L2
ARM GAS  /tmp/ccyZ1xFR.s 			page 46


 593 0002 054A     		ldr	r2, .L2+4
 594 0004 1A60     		str	r2, [r3]
 595              		.loc 1 113 0
 596 0006 03F11000 		add	r0, r3, #16
 597              		.loc 1 110 0
 598 000a 0022     		movs	r2, #0
 599 000c 9A60     		str	r2, [r3, #8]
 600              		.loc 1 111 0
 601 000e DA60     		str	r2, [r3, #12]
 602              		.loc 1 113 0
 603 0010 FFF7FEBF 		b	chMtxObjectInit
 604              	.LVL0:
 605              	.L3:
 606              		.align	2
 607              	.L2:
 608 0014 00000000 		.word	.LANCHOR0
 609 0018 00000000 		.word	chCoreAllocAligned
 610              		.cfi_endproc
 611              	.LFE239:
 612              		.size	_heap_init, .-_heap_init
 613 001c AFF30080 		.section	.text.chHeapObjectInit,"ax",%progbits
 614              		.align	2
 615              		.p2align 4,,15
 616              		.global	chHeapObjectInit
 617              		.thumb
 618              		.thumb_func
 619              		.type	chHeapObjectInit, %function
 620              	chHeapObjectInit:
 621              	.LFB240:
 622              		.loc 1 130 0
 623              		.cfi_startproc
 624              		@ args = 0, pretend = 0, frame = 0
 625              		@ frame_needed = 0, uses_anonymous_args = 0
 626              		@ link register save eliminated.
 627              	.LVL1:
 628              		.loc 1 141 0
 629 0000 083A     		subs	r2, r2, #8
 630              	.LVL2:
 631              		.loc 1 137 0
 632 0002 0023     		movs	r3, #0
 633              		.loc 1 141 0
 634 0004 D208     		lsrs	r2, r2, #3
 635              	.LVL3:
 636              		.loc 1 138 0
 637 0006 8160     		str	r1, [r0, #8]
 638              		.loc 1 137 0
 639 0008 0360     		str	r3, [r0]
 640              		.loc 1 139 0
 641 000a C360     		str	r3, [r0, #12]
 642              		.loc 1 143 0
 643 000c 1030     		adds	r0, r0, #16
 644              	.LVL4:
 645              		.loc 1 141 0
 646 000e 4A60     		str	r2, [r1, #4]
 647              		.loc 1 140 0
 648 0010 0B60     		str	r3, [r1]
 649              		.loc 1 143 0
ARM GAS  /tmp/ccyZ1xFR.s 			page 47


 650 0012 FFF7FEBF 		b	chMtxObjectInit
 651              	.LVL5:
 652              		.cfi_endproc
 653              	.LFE240:
 654              		.size	chHeapObjectInit, .-chHeapObjectInit
 655 0016 00BFAFF3 		.section	.text.chHeapAllocAligned,"ax",%progbits
 655      0080AFF3 
 655      0080
 656              		.align	2
 657              		.p2align 4,,15
 658              		.global	chHeapAllocAligned
 659              		.thumb
 660              		.thumb_func
 661              		.type	chHeapAllocAligned, %function
 662              	chHeapAllocAligned:
 663              	.LFB241:
 664              		.loc 1 166 0
 665              		.cfi_startproc
 666              		@ args = 0, pretend = 0, frame = 8
 667              		@ frame_needed = 0, uses_anonymous_args = 0
 668              	.LVL6:
 669 0000 2DE9F04F 		push	{r4, r5, r6, r7, r8, r9, r10, fp, lr}
 670              		.cfi_def_cfa_offset 36
 671              		.cfi_offset 4, -36
 672              		.cfi_offset 5, -32
 673              		.cfi_offset 6, -28
 674              		.cfi_offset 7, -24
 675              		.cfi_offset 8, -20
 676              		.cfi_offset 9, -16
 677              		.cfi_offset 10, -12
 678              		.cfi_offset 11, -8
 679              		.cfi_offset 14, -4
 680              		.loc 1 174 0
 681 0004 404B     		ldr	r3, .L27
 682              		.loc 1 166 0
 683 0006 83B0     		sub	sp, sp, #12
 684              		.cfi_def_cfa_offset 48
 685              		.loc 1 174 0
 686 0008 0028     		cmp	r0, #0
 687 000a 14BF     		ite	ne
 688 000c 8146     		movne	r9, r0
 689 000e 9946     		moveq	r9, r3
 690              	.LVL7:
 691              		.loc 1 186 0
 692 0010 09F11003 		add	r3, r9, #16
 693              		.loc 1 166 0
 694 0014 0191     		str	r1, [sp, #4]
 695              		.loc 1 179 0
 696 0016 072A     		cmp	r2, #7
 697 0018 8CBF     		ite	hi
 698 001a 9046     		movhi	r8, r2
 699 001c 4FF00808 		movls	r8, #8
 700              	.LVL8:
 701              		.loc 1 183 0
 702 0020 0731     		adds	r1, r1, #7
 703              	.LVL9:
 704              		.loc 1 186 0
ARM GAS  /tmp/ccyZ1xFR.s 			page 48


 705 0022 1846     		mov	r0, r3
 706 0024 0093     		str	r3, [sp]
 707              		.loc 1 183 0
 708 0026 4FEAD10B 		lsr	fp, r1, #3
 709              	.LVL10:
 710              		.loc 1 189 0
 711 002a 09F10807 		add	r7, r9, #8
 712              		.loc 1 186 0
 713 002e FFF7FEFF 		bl	chMtxLock
 714              	.LVL11:
 715              	.LBB2:
 716              		.loc 1 197 0
 717 0032 C8F1000C 		rsb	ip, r8, #0
 718              	.LBE2:
 719              		.loc 1 190 0
 720 0036 0DE0     		b	.L8
 721              	.LVL12:
 722              	.L15:
 723              	.LBB6:
 724              		.loc 1 199 0
 725 0038 5A68     		ldr	r2, [r3, #4]
 726 003a 511C     		adds	r1, r2, #1
 727 003c C900     		lsls	r1, r1, #3
 728 003e A1F10800 		sub	r0, r1, #8
 729 0042 1944     		add	r1, r1, r3
 730 0044 0544     		add	r5, r5, r0
 731 0046 8C42     		cmp	r4, r1
 732 0048 4FEAE505 		asr	r5, r5, #3
 733 004c 01D2     		bcs	.L9
 734              		.loc 1 199 0 is_stmt 0 discriminator 1
 735 004e AB45     		cmp	fp, r5
 736 0050 22D9     		bls	.L24
 737              	.L9:
 738 0052 1F46     		mov	r7, r3
 739              	.LVL13:
 740              	.L8:
 741              	.LBE6:
 742              		.loc 1 190 0 is_stmt 1 discriminator 1
 743 0054 3B68     		ldr	r3, [r7]
 744              	.LVL14:
 745              	.LBB7:
 746              		.loc 1 197 0 discriminator 1
 747 0056 DE1D     		adds	r6, r3, #7
 748 0058 4644     		add	r6, r6, r8
 749 005a 0CEA0606 		and	r6, ip, r6
 750 005e A6F10804 		sub	r4, r6, #8
 751              	.LVL15:
 752              		.loc 1 199 0 discriminator 1
 753 0062 1D1B     		subs	r5, r3, r4
 754              		.loc 1 197 0 discriminator 1
 755 0064 03F1080A 		add	r10, r3, #8
 756              	.LBE7:
 757              		.loc 1 190 0 discriminator 1
 758 0068 002B     		cmp	r3, #0
 759 006a E5D1     		bne	.L15
 760              		.loc 1 259 0
 761 006c 0098     		ldr	r0, [sp]
ARM GAS  /tmp/ccyZ1xFR.s 			page 49


 762 006e FFF7FEFF 		bl	chMtxUnlock
 763              	.LVL16:
 764              		.loc 1 263 0
 765 0072 D9F80030 		ldr	r3, [r9]
 766 0076 002B     		cmp	r3, #0
 767 0078 44D0     		beq	.L17
 768              		.loc 1 264 0
 769 007a 0BF10100 		add	r0, fp, #1
 770 007e C000     		lsls	r0, r0, #3
 771 0080 4146     		mov	r1, r8
 772 0082 9847     		blx	r3
 773              	.LVL17:
 774              		.loc 1 265 0
 775 0084 0028     		cmp	r0, #0
 776 0086 3DD0     		beq	.L17
 777              		.loc 1 267 0
 778 0088 019B     		ldr	r3, [sp, #4]
 779              		.loc 1 266 0
 780 008a C0F80090 		str	r9, [r0]
 781              		.loc 1 267 0
 782 008e 4360     		str	r3, [r0, #4]
 783              		.loc 1 270 0
 784 0090 0830     		adds	r0, r0, #8
 785              	.LVL18:
 786              	.L14:
 787              		.loc 1 276 0
 788 0092 03B0     		add	sp, sp, #12
 789              		@ sp needed
 790 0094 BDE8F08F 		pop	{r4, r5, r6, r7, r8, r9, r10, fp, pc}
 791              	.LVL19:
 792              	.L24:
 793              	.LBB8:
 794              		.loc 1 203 0
 795 0098 9C42     		cmp	r4, r3
 796 009a 19D8     		bhi	.L25
 797              		.loc 1 227 0
 798 009c 9345     		cmp	fp, r2
 799 009e 2DD0     		beq	.L26
 800              	.LBB3:
 801              		.loc 1 235 0
 802 00a0 0BF10101 		add	r1, fp, #1
 803              	.LVL20:
 804              		.loc 1 237 0
 805 00a4 03EBC105 		add	r5, r3, r1, lsl #3
 806              	.LVL21:
 807 00a8 A0EBC100 		sub	r0, r0, r1, lsl #3
 808              		.loc 1 236 0
 809 00ac 1A68     		ldr	r2, [r3]
 810 00ae 43F83120 		str	r2, [r3, r1, lsl #3]
 811              		.loc 1 237 0
 812 00b2 C010     		asrs	r0, r0, #3
 813 00b4 6860     		str	r0, [r5, #4]
 814              		.loc 1 238 0
 815 00b6 1C46     		mov	r4, r3
 816              	.LVL22:
 817 00b8 3D60     		str	r5, [r7]
 818              	.LVL23:
ARM GAS  /tmp/ccyZ1xFR.s 			page 50


 819              	.L12:
 820              	.LBE3:
 821              		.loc 1 243 0
 822 00ba 019B     		ldr	r3, [sp, #4]
 823              		.loc 1 247 0
 824 00bc 0098     		ldr	r0, [sp]
 825              		.loc 1 243 0
 826 00be 6360     		str	r3, [r4, #4]
 827              		.loc 1 244 0
 828 00c0 C4F80090 		str	r9, [r4]
 829              		.loc 1 247 0
 830 00c4 FFF7FEFF 		bl	chMtxUnlock
 831              	.LVL24:
 832              		.loc 1 250 0
 833 00c8 5046     		mov	r0, r10
 834              	.LBE8:
 835              		.loc 1 276 0
 836 00ca 03B0     		add	sp, sp, #12
 837              		@ sp needed
 838 00cc BDE8F08F 		pop	{r4, r5, r6, r7, r8, r9, r10, fp, pc}
 839              	.LVL25:
 840              	.L25:
 841              	.LBB9:
 842              	.LBB4:
 843              		.loc 1 208 0
 844 00d0 CAEB0402 		rsb	r2, r10, r4
 845 00d4 D210     		asrs	r2, r2, #3
 846              		.loc 1 209 0
 847 00d6 AB45     		cmp	fp, r5
 848              		.loc 1 208 0
 849 00d8 5A60     		str	r2, [r3, #4]
 850              		.loc 1 209 0
 851 00da 01D3     		bcc	.L11
 852 00dc B246     		mov	r10, r6
 853 00de ECE7     		b	.L12
 854              	.L11:
 855              	.LBB5:
 856              		.loc 1 214 0
 857 00e0 0BF10100 		add	r0, fp, #1
 858              		.loc 1 215 0
 859 00e4 6FEA0B01 		mvn	r1, fp
 860              		.loc 1 214 0
 861 00e8 04EBC002 		add	r2, r4, r0, lsl #3
 862              	.LVL26:
 863              		.loc 1 215 0
 864 00ec 4D19     		adds	r5, r1, r5
 865              	.LVL27:
 866              		.loc 1 218 0
 867 00ee 1968     		ldr	r1, [r3]
 868              		.loc 1 215 0
 869 00f0 5560     		str	r5, [r2, #4]
 870 00f2 B246     		mov	r10, r6
 871              		.loc 1 218 0
 872 00f4 44F83010 		str	r1, [r4, r0, lsl #3]
 873              		.loc 1 219 0
 874 00f8 1A60     		str	r2, [r3]
 875 00fa DEE7     		b	.L12
ARM GAS  /tmp/ccyZ1xFR.s 			page 51


 876              	.LVL28:
 877              	.L26:
 878              	.LBE5:
 879              	.LBE4:
 880              		.loc 1 229 0
 881 00fc 1A68     		ldr	r2, [r3]
 882 00fe 3A60     		str	r2, [r7]
 883 0100 1C46     		mov	r4, r3
 884              	.LVL29:
 885 0102 DAE7     		b	.L12
 886              	.LVL30:
 887              	.L17:
 888              	.LBE9:
 889              		.loc 1 275 0
 890 0104 0020     		movs	r0, #0
 891 0106 C4E7     		b	.L14
 892              	.L28:
 893              		.align	2
 894              	.L27:
 895 0108 00000000 		.word	.LANCHOR0
 896              		.cfi_endproc
 897              	.LFE241:
 898              		.size	chHeapAllocAligned, .-chHeapAllocAligned
 899 010c AFF30080 		.section	.text.chHeapFree,"ax",%progbits
 900              		.align	2
 901              		.p2align 4,,15
 902              		.global	chHeapFree
 903              		.thumb
 904              		.thumb_func
 905              		.type	chHeapFree, %function
 906              	chHeapFree:
 907              	.LFB242:
 908              		.loc 1 285 0
 909              		.cfi_startproc
 910              		@ args = 0, pretend = 0, frame = 0
 911              		@ frame_needed = 0, uses_anonymous_args = 0
 912              	.LVL31:
 913 0000 F8B5     		push	{r3, r4, r5, r6, r7, lr}
 914              		.cfi_def_cfa_offset 24
 915              		.cfi_offset 3, -24
 916              		.cfi_offset 4, -20
 917              		.cfi_offset 5, -16
 918              		.cfi_offset 6, -12
 919              		.cfi_offset 7, -8
 920              		.cfi_offset 14, -4
 921              		.loc 1 298 0
 922 0002 50F8043C 		ldr	r3, [r0, #-4]
 923              		.loc 1 294 0
 924 0006 50F8085C 		ldr	r5, [r0, #-8]
 925              		.loc 1 298 0
 926 000a 0733     		adds	r3, r3, #7
 927              		.loc 1 299 0
 928 000c DB08     		lsrs	r3, r3, #3
 929              		.loc 1 302 0
 930 000e 05F11007 		add	r7, r5, #16
 931              		.loc 1 298 0
 932 0012 40F8043C 		str	r3, [r0, #-4]
ARM GAS  /tmp/ccyZ1xFR.s 			page 52


 933              		.loc 1 285 0
 934 0016 0646     		mov	r6, r0
 935              		.loc 1 292 0
 936 0018 A0F10804 		sub	r4, r0, #8
 937              	.LVL32:
 938              		.loc 1 295 0
 939 001c 0835     		adds	r5, r5, #8
 940              	.LVL33:
 941              		.loc 1 302 0
 942 001e 3846     		mov	r0, r7
 943              	.LVL34:
 944 0020 FFF7FEFF 		bl	chMtxLock
 945              	.LVL35:
 946              		.loc 1 295 0
 947 0024 2B46     		mov	r3, r5
 948              	.LVL36:
 949              	.L36:
 950              		.loc 1 307 0
 951 0026 AB42     		cmp	r3, r5
 952 0028 04D0     		beq	.L30
 953              	.L41:
 954              		.loc 1 307 0 is_stmt 0 discriminator 2
 955 002a A342     		cmp	r3, r4
 956 002c 02D3     		bcc	.L30
 957 002e 1B68     		ldr	r3, [r3]
 958              	.LVL37:
 959              		.loc 1 307 0
 960 0030 AB42     		cmp	r3, r5
 961 0032 FAD1     		bne	.L41
 962              	.L30:
 963              		.loc 1 308 0 is_stmt 1 discriminator 1
 964 0034 1A68     		ldr	r2, [r3]
 965              		.loc 1 307 0 discriminator 1
 966 0036 1AB1     		cbz	r2, .L32
 967              		.loc 1 308 0
 968 0038 9442     		cmp	r4, r2
 969 003a 01D3     		bcc	.L32
 970 003c 1346     		mov	r3, r2
 971              	.LVL38:
 972              		.loc 1 326 0
 973 003e F2E7     		b	.L36
 974              	.LVL39:
 975              	.L32:
 976              		.loc 1 313 0
 977 0040 56F8041C 		ldr	r1, [r6, #-4]
 978              		.loc 1 310 0
 979 0044 46F8082C 		str	r2, [r6, #-8]
 980              		.loc 1 311 0
 981 0048 1C60     		str	r4, [r3]
 982              		.loc 1 313 0
 983 004a 4A1C     		adds	r2, r1, #1
 984 004c 56F8085C 		ldr	r5, [r6, #-8]
 985              	.LVL40:
 986 0050 04EBC200 		add	r0, r4, r2, lsl #3
 987 0054 A842     		cmp	r0, r5
 988 0056 0AD0     		beq	.L42
 989              		.loc 1 318 0
ARM GAS  /tmp/ccyZ1xFR.s 			page 53


 990 0058 5A68     		ldr	r2, [r3, #4]
 991 005a 511C     		adds	r1, r2, #1
 992 005c 03EBC101 		add	r1, r3, r1, lsl #3
 993 0060 8C42     		cmp	r4, r1
 994 0062 13D0     		beq	.L43
 995              	.L35:
 996              		.loc 1 329 0
 997 0064 3846     		mov	r0, r7
 998              		.loc 1 332 0
 999 0066 BDE8F840 		pop	{r3, r4, r5, r6, r7, lr}
 1000              	.LVL41:
 1001              		.loc 1 329 0
 1002 006a FFF7FEBF 		b	chMtxUnlock
 1003              	.LVL42:
 1004              	.L42:
 1005              		.loc 1 315 0
 1006 006e 4068     		ldr	r0, [r0, #4]
 1007              		.loc 1 316 0
 1008 0070 54F83220 		ldr	r2, [r4, r2, lsl #3]
 1009 0074 46F8082C 		str	r2, [r6, #-8]
 1010              		.loc 1 315 0
 1011 0078 0A18     		adds	r2, r1, r0
 1012 007a 0132     		adds	r2, r2, #1
 1013 007c 46F8042C 		str	r2, [r6, #-4]
 1014              		.loc 1 318 0
 1015 0080 5A68     		ldr	r2, [r3, #4]
 1016 0082 511C     		adds	r1, r2, #1
 1017 0084 03EBC101 		add	r1, r3, r1, lsl #3
 1018 0088 8C42     		cmp	r4, r1
 1019 008a EBD1     		bne	.L35
 1020              	.L43:
 1021              		.loc 1 320 0
 1022 008c 56F8040C 		ldr	r0, [r6, #-4]
 1023              		.loc 1 321 0
 1024 0090 56F8081C 		ldr	r1, [r6, #-8]
 1025 0094 1960     		str	r1, [r3]
 1026              		.loc 1 320 0
 1027 0096 0244     		add	r2, r2, r0
 1028 0098 0132     		adds	r2, r2, #1
 1029 009a 5A60     		str	r2, [r3, #4]
 1030              		.loc 1 329 0
 1031 009c 3846     		mov	r0, r7
 1032              		.loc 1 332 0
 1033 009e BDE8F840 		pop	{r3, r4, r5, r6, r7, lr}
 1034              	.LVL43:
 1035              		.loc 1 329 0
 1036 00a2 FFF7FEBF 		b	chMtxUnlock
 1037              	.LVL44:
 1038              		.cfi_endproc
 1039              	.LFE242:
 1040              		.size	chHeapFree, .-chHeapFree
 1041 00a6 00BFAFF3 		.section	.text.chHeapStatus,"ax",%progbits
 1041      0080AFF3 
 1041      0080
 1042              		.align	2
 1043              		.p2align 4,,15
 1044              		.global	chHeapStatus
ARM GAS  /tmp/ccyZ1xFR.s 			page 54


 1045              		.thumb
 1046              		.thumb_func
 1047              		.type	chHeapStatus, %function
 1048              	chHeapStatus:
 1049              	.LFB243:
 1050              		.loc 1 349 0
 1051              		.cfi_startproc
 1052              		@ args = 0, pretend = 0, frame = 0
 1053              		@ frame_needed = 0, uses_anonymous_args = 0
 1054              	.LVL45:
 1055 0000 2DE9F047 		push	{r4, r5, r6, r7, r8, r9, r10, lr}
 1056              		.cfi_def_cfa_offset 32
 1057              		.cfi_offset 4, -32
 1058              		.cfi_offset 5, -28
 1059              		.cfi_offset 6, -24
 1060              		.cfi_offset 7, -20
 1061              		.cfi_offset 8, -16
 1062              		.cfi_offset 9, -12
 1063              		.cfi_offset 10, -8
 1064              		.cfi_offset 14, -4
 1065              		.loc 1 354 0
 1066 0004 164C     		ldr	r4, .L61
 1067 0006 0028     		cmp	r0, #0
 1068 0008 18BF     		it	ne
 1069 000a 0446     		movne	r4, r0
 1070              	.LVL46:
 1071              		.loc 1 357 0
 1072 000c 04F11008 		add	r8, r4, #16
 1073 0010 4046     		mov	r0, r8
 1074              		.loc 1 349 0
 1075 0012 8A46     		mov	r10, r1
 1076 0014 9146     		mov	r9, r2
 1077              		.loc 1 357 0
 1078 0016 FFF7FEFF 		bl	chMtxLock
 1079              	.LVL47:
 1080              		.loc 1 362 0
 1081 001a A368     		ldr	r3, [r4, #8]
 1082 001c E3B1     		cbz	r3, .L51
 1083              		.loc 1 359 0
 1084 001e 0025     		movs	r5, #0
 1085              		.loc 1 358 0
 1086 0020 2F46     		mov	r7, r5
 1087              		.loc 1 360 0
 1088 0022 2E46     		mov	r6, r5
 1089              	.LVL48:
 1090              	.L47:
 1091              		.loc 1 362 0
 1092 0024 18CB     		ldmia	r3, {r3, r4}
 1093              	.LBB10:
 1094              		.loc 1 366 0
 1095 0026 0136     		adds	r6, r6, #1
 1096              	.LVL49:
 1097              		.loc 1 367 0
 1098 0028 2744     		add	r7, r7, r4
 1099              	.LVL50:
 1100 002a A542     		cmp	r5, r4
 1101 002c 38BF     		it	cc
ARM GAS  /tmp/ccyZ1xFR.s 			page 55


 1102 002e 2546     		movcc	r5, r4
 1103              	.LVL51:
 1104              	.LBE10:
 1105              		.loc 1 362 0
 1106 0030 002B     		cmp	r3, #0
 1107 0032 F7D1     		bne	.L47
 1108              	.LVL52:
 1109              	.L46:
 1110              		.loc 1 376 0
 1111 0034 BAF1000F 		cmp	r10, #0
 1112 0038 02D0     		beq	.L48
 1113              		.loc 1 377 0
 1114 003a FF00     		lsls	r7, r7, #3
 1115 003c CAF80070 		str	r7, [r10]
 1116              	.L48:
 1117              		.loc 1 381 0
 1118 0040 B9F1000F 		cmp	r9, #0
 1119 0044 02D0     		beq	.L49
 1120              		.loc 1 382 0
 1121 0046 ED00     		lsls	r5, r5, #3
 1122 0048 C9F80050 		str	r5, [r9]
 1123              	.L49:
 1124              		.loc 1 384 0
 1125 004c 4046     		mov	r0, r8
 1126 004e FFF7FEFF 		bl	chMtxUnlock
 1127              	.LVL53:
 1128              		.loc 1 387 0
 1129 0052 3046     		mov	r0, r6
 1130 0054 BDE8F087 		pop	{r4, r5, r6, r7, r8, r9, r10, pc}
 1131              	.LVL54:
 1132              	.L51:
 1133              		.loc 1 359 0
 1134 0058 1D46     		mov	r5, r3
 1135              		.loc 1 358 0
 1136 005a 1F46     		mov	r7, r3
 1137              		.loc 1 360 0
 1138 005c 1E46     		mov	r6, r3
 1139 005e E9E7     		b	.L46
 1140              	.L62:
 1141              		.align	2
 1142              	.L61:
 1143 0060 00000000 		.word	.LANCHOR0
 1144              		.cfi_endproc
 1145              	.LFE243:
 1146              		.size	chHeapStatus, .-chHeapStatus
 1147 0064 AFF30080 		.section	.bss.default_heap,"aw",%nobits
 1147      AFF30080 
 1147      AFF30080 
 1148              		.align	3
 1149              		.set	.LANCHOR0,. + 0
 1150              		.type	default_heap, %object
 1151              		.size	default_heap, 32
 1152              	default_heap:
 1153 0000 00000000 		.space	32
 1153      00000000 
 1153      00000000 
 1153      00000000 
ARM GAS  /tmp/ccyZ1xFR.s 			page 56


 1153      00000000 
 1154              		.text
 1155              	.Letext0:
 1156              		.file 2 "/nfs/nfs5/home/research/hardware/arm2/gcc-arm-embedded/gcc-arm-none-eabi-4_8-2014q2/lib/g
 1157              		.file 3 "/nfs/nfs5/home/research/hardware/arm2/gcc-arm-embedded/gcc-arm-none-eabi-4_8-2014q2/arm-n
 1158              		.file 4 "/nfs/nfs5/home/research/hardware/arm2/gcc-arm-embedded/gcc-arm-none-eabi-4_8-2014q2/arm-n
 1159              		.file 5 "../ChibiOS/os/common/ports/ARMCMx/compilers/GCC/chtypes.h"
 1160              		.file 6 "../ChibiOS/os/rt/include/chsystypes.h"
 1161              		.file 7 "../ChibiOS/os/rt/include/chschd.h"
 1162              		.file 8 "../ChibiOS/os/common/ports/ARMCMx/chcore.h"
 1163              		.file 9 "../ChibiOS/os/common/ports/ARMCMx/chcore_v7m.h"
 1164              		.file 10 "../ChibiOS/os/rt/include/chtm.h"
 1165              		.file 11 "../ChibiOS/os/rt/include/chsem.h"
 1166              		.file 12 "../ChibiOS/os/rt/include/chmtx.h"
 1167              		.file 13 "../ChibiOS/os/common/oslib/include/chmemcore.h"
 1168              		.file 14 "../ChibiOS/os/common/oslib/include/chheap.h"
 1169              		.file 15 "../ChibiOS/os/common/ext/CMSIS/include/core_cm4.h"