ARM GAS  /tmp/cc83RhQM.s 			page 1


   1              		.syntax unified
   2              		.cpu cortex-m4
   3              		.fpu softvfp
   4              		.eabi_attribute 20, 1
   5              		.eabi_attribute 21, 1
   6              		.eabi_attribute 23, 3
   7              		.eabi_attribute 24, 1
   8              		.eabi_attribute 25, 1
   9              		.eabi_attribute 26, 1
  10              		.eabi_attribute 30, 2
  11              		.eabi_attribute 34, 1
  12              		.eabi_attribute 18, 4
  13              		.thumb
  14              		.file	"chmemcore.c"
  15              		.text
  16              	.Ltext0:
  17              		.section	.gnu.lto_.jmpfuncs.d4f614f50829aa81,"",%progbits
  18 0000 789C6362 		.ascii	"x\234cb`b\300\006\270\2404\013\003\003+3\0333;\003\003"
  18      6062C006 
  18      B8A0340B 
  18      03032B33 
  18      1B333B03 
  19 0015 00021E00 		.ascii	"\000\002\036\000+"
  19      2B
  20              		.text
  21              		.section	.gnu.lto_.inline.d4f614f50829aa81,"",%progbits
  22 0000 789C6362 		.ascii	"x\234cb`b\300\006*\2404\013\003\003+\013#\003\023\313"
  22      6062C006 
  22      2AA0340B 
  22      03032B0B 
  22      230313CB 
  23 0014 027906B6 		.ascii	"\002y\006\266\005\362`\305\254\014\202\002\214L\214"
  23      05F260C5 
  23      AC0C8202 
  23      8C4C8C
  24 0023 8C203688 		.ascii	"\214 6\210`\021\2310\223\021\"\313\366A\217\207\201"
  24      60119930 
  24      931122CB 
  24      F6418F87 
  24      81
  25 0034 E9023F0B 		.ascii	"\351\002?\013H\216\215AX\210\221\011\254\004\254\230"
  25      488E8D41 
  25      58889109 
  25      AC04AC98 
  26 0044 4562C30E 		.ascii	"Eb\303\0164u\034 u\354\014l\254@+\200bp+\030\000\354"
  26      34751C20 
  26      75EC0C6C 
  26      AC402B80 
  26      62702B18 
  27 005a 3A0CF7   		.ascii	":\014\367"
  28              		.text
  29              		.section	.gnu.lto_.pureconst.d4f614f50829aa81,"",%progbits
  30 0000 789C6362 		.ascii	"x\234cb`b\340d\200\000\026\006\011V\0116+v\026\000\003"
  30      6062E064 
  30      80001606 
  30      09560936 
  30      2B761600 
ARM GAS  /tmp/cc83RhQM.s 			page 2


  31 0015 380092   		.ascii	"8\000\222"
  32              		.text
  33              		.section	.gnu.lto__core_init.d4f614f50829aa81,"",%progbits
  34 0000 789C6362 		.ascii	"x\234cb`b@\007\222@\354\316\310\300\340\001\244\031"
  34      60624007 
  34      9240ECCE 
  34      C8C0E001 
  34      A419
  35 0012 99191899 		.ascii	"\231\031\030\231&\234c`h\344`bd\0041\030\030\031\352"
  35      269C6360 
  35      68E46062 
  35      64043118 
  35      1819EA
  36 0025 9918EB23 		.ascii	"\231\030\353#\031\301j\3273\035x\360\377\377\272}\307"
  36      19C16AD7 
  36      331D78F0 
  36      FFFFBA7D 
  36      C7
  37 0036 A6BF619C 		.ascii	"\246\277a\234\315\304\002\024aehih\230\240\240\304\260"
  37      CDC40214 
  37      61656869 
  37      6898A0A0 
  37      C4B0
  38 0048 B0E1C184 		.ascii	"\260\341\301\204\003\227\333\24626<l\230\330\360\357"
  38      0397DBA6 
  38      32363C6C 
  38      98D8F0EF 
  39 0058 FF7FC64C 		.ascii	"\377\177\306LF\240mz\214\014\311\214p\273\022\031\027"
  39      46A06D7A 
  39      8C0CC98C 
  39      70BB1219 
  39      17
  40 0069 33C25D00 		.ascii	"3\302]\000\325s\345XC\003\343\206\003\035\015\377\377"
  40      D573E558 
  40      4303E386 
  40      031D0DFF 
  40      FF
  41 007a D783B5D8 		.ascii	"\327\203\265\330\240iY\312\210\344h\210L\010\220\004"
  41      A06959CA 
  41      88E46888 
  41      4C089004 
  42 008a B92E1428 		.ascii	"\271.\024(\005\244\231\31724\375j\336\336+\235\310\270"
  42      05A499CF 
  42      3234FD6A 
  42      DEDE2B9D 
  42      C8B8
  43 009c 90919561 		.ascii	"\220\221\225a6\303\254\306\206\006\201LF\306j\206_\015"
  43      36C3ACC6 
  43      8606814C 
  43      46C66A86 
  43      5F0D
  44 00ae 1D201653 		.ascii	"\035 \026S.X_\004\320Q\020\303 2\015\326\231\214\314"
  44      2E585F04 
  44      D05110C3 
  44      20320DD6 
  44      998CCC
  45 00c1 B98C10DB 		.ascii	"\271\214\020\333\300\206\354\306o\010\023nC\230\301"
ARM GAS  /tmp/cc83RhQM.s 			page 3


  45      C086ECC6 
  45      6F08136E 
  45      4398C1
  46 00d0 4217191A 		.ascii	"B\027\031\032\037\354S\206\030\001\003!@\013\200\256"
  46      1FEC5386 
  46      18010321 
  46      400B80AE 
  47 00e0 04E9D1D6 		.ascii	"\004\351\321\326\323\323w\316\310L\312\364\017\326\317"
  47      D3D377CE 
  47      C84CCAF4 
  47      0FD6CF
  48 00ef 2FD64FCE 		.ascii	"/\326O\316\317\315\315\317\003\262r2\223\364\213\213"
  48      CFCDCDCF 
  48      03B27232 
  48      93F48B8B 
  49 00ff 92F59333 		.ascii	"\222\365\2233rSs\223\363\213R\365\222\031x\343\3433"
  49      72537393 
  49      F38B52F5 
  49      921978E3 
  49      E333
  50 0111 52130BE2 		.ascii	"R\023\013\342\223\022\213S\343\343y\240\274\324\274"
  50      93128B53 
  50      E3E379A0 
  50      BCD4BC
  51 0120 94F87800 		.ascii	"\224\370x\000\257\177p\256"
  51      AF7F70AE 
  52              		.text
  53              		.section	.gnu.lto_chCoreAllocAlignedI.d4f614f50829aa81,"",%progbits
  54 0000 789C9D54 		.ascii	"x\234\235TMhSA\020\236\331}yI\363\323$\255\012\361b"
  54      4D685341 
  54      109ED97D 
  54      7949F3D3 
  54      24AD0AF1 
  55 0015 E95548D4 		.ascii	"\351UH\324\"x\360\244G\017\036\264\240\027\245y\206"
  55      2278F0A4 
  55      470F1EB4 
  55      A017A579 
  55      86
  56 0026 F4812F91 		.ascii	"\364\201/\221\326\203\340\241\233\276B\353\017&\210"
  56      D683E0A1 
  56      9BBE42EB 
  56      0F2688
  57 0035 17F5D222 		.ascii	"\027\365\322\"bK\025\301\223\020\324\034D\255\250\350"
  57      624B15C1 
  57      9310D41C 
  57      44ADA8E8 
  58 0045 51BC044A 		.ascii	"Q\274\004JAPDo\245\025\343\314\276\276\3276\026\015"
  58      4150446F 
  58      A515E3CC 
  58      BEBED736 
  58      160D
  59 0057 2E6467F7 		.ascii	".dg\367\233\371f\276\235L\"@@\373\032\240\317A\003\340"
  59      9BF966BE 
  59      9D4C2240 
  59      40FB1AA0 
  59      CF4103E0 
  60 006b 34590C01 		.ascii	"4Y\014\001\212\332;\200JD\010\343s\030TT\316\276\000"
ARM GAS  /tmp/cc83RhQM.s 			page 4


  60      8ADA3B80 
  60      4A4408E3 
  60      73185454 
  60      CEBE00
  61 007e 50718986 		.ascii	"Pq\211\206\207\033\210|\000\2041!\015\034;\211\234\304"
  61      871B887C 
  61      00843121 
  61      0D1C3B89 
  61      9CC4
  62 0090 EC8719A5 		.ascii	"\354\207\031\245\2567\227V\336\213\2337\032\023\323"
  62      AE379756 
  62      DE8B9B37 
  62      1A13D3
  63 009f EA67AB85 		.ascii	"\352g\253\205h#\025\314\"X\010'\350\202}\332\010c\263"
  63      682315CC 
  63      22580827 
  63      E8827DDA 
  63      0863B3
  64 00b2 028FAB1E 		.ascii	"\002\217\253\036\315\252.\315\2236J\001\007:\2435>M"
  64      CDAA2ECD 
  64      93364A01 
  64      073AA335 
  64      3E4D
  65 00c4 5ECD5C9E 		.ascii	"^\315\\\236\036\257\251_TQ\027<\364\177\005\217tX\360"
  65      1EAFA95F 
  65      5451173C 
  65      F47F058F 
  65      7458F0
  66 00d7 C7CB6AE6 		.ascii	"\307\313j\346\365\246\202\307\267d:\370\007\265>y-\243"
  66      F5A682C7 
  66      B7643AF8 
  66      07B53E79 
  66      2DA3
  67 00e9 36514FFD 		.ascii	"6QO\375\253\350C\321h\266Zo\352\315\305ULoG\260\321"
  67      ABE843D1 
  67      68B65A6F 
  67      EACDC555 
  67      4C6F47B0 
  68 00fe 90E8201A 		.ascii	"\220\350 \032\264\211\020]\245\311[\230\267\010\325"
  68      B489105D 
  68      A5C95B98 
  68      B708D5
  69 010d 145118C2 		.ascii	"\024Q\030\302\031\354\207\030\331;d\343\354I\360\326"
  69      19EC8718 
  69      D93B64E3 
  69      EC49F0D6 
  70 011d CD5B92E0 		.ascii	"\315[\222\340y\202Sd\357\222M\223\275G\266\207\235\275"
  70      79825364 
  70      EF924D93 
  70      BD47B687 
  70      9DBD
  71 012f 7499A30B 		.ascii	"t\231\243\013\255\020L(U\353\363\202\035\224\300:i\321"
  71      AD104C28 
  71      55EBF382 
  71      1D94C03A 
  71      69D1
  72 0141 5B810760 		.ascii	"[\201\007`\020\005[\371\026\334)w\276\272s\010\037\320"
ARM GAS  /tmp/cc83RhQM.s 			page 5


  72      10055BF9 
  72      16DC2977 
  72      BEBA7308 
  72      1FD0
  73 0153 F4143154 		.ascii	"\364\0241TDYDz\004;\244\217\232\344\340\327\205Z\264"
  73      4459447A 
  73      043BA48F 
  73      9AE4E0D7 
  73      855AB4
  74 0166 92C0DEF1 		.ascii	"\222\300\336\361\271\300\033.r~\"\324\335\274\217E4"
  74      B9C01B2E 
  74      727E22D4 
  74      DDBC8F45 
  74      34
  75 0177 290CB000 		.ascii	")\014\260\000\302\303\350m\004k\352\3022\315\231\037"
  75      C2C3E86D 
  75      046BEAC2 
  75      32CD991F 
  76 0187 19BD0DB7 		.ascii	"\031\275\015\267*J\245\250\237\027aEM\361\311\364\232"
  76      2A4AA5A8 
  76      9F176145 
  76      4DF1C9F4 
  76      9A
  77 0198 CF25CDB5 		.ascii	"\317%\315\265F\022\355[P1F\2646\211q-<\326\206&\310"
  77      4612ED5B 
  77      503146B4 
  77      3689712D 
  77      3CD68626 
  78 01ad C159E4BA 		.ascii	"\301Y\344\272p\267\036x\273\265\366\204N\376\305\335"
  78      70B71E78 
  78      BBB5F684 
  78      4EFEC5DD 
  79 01bd E1C349F2 		.ascii	"\341\303I\362l\020\356\365\220`O\373\343\325\006\372"
  79      6C10EEF5 
  79      90604FFB 
  79      E3D506FA 
  80 01cd 91A9ADB5 		.ascii	"\221\251\255\265\033\177\323\236&\232\326q\311}\032"
  80      1B7FD39E 
  80      269AD671 
  80      C97D1A
  81 01dc 24EAD138 		.ascii	"$\352\3218U}\005\317\227*\211\015pd}\226\006\251\315"
  81      557D05CF 
  81      972A890D 
  81      70647D96 
  81      06A9CD
  82 01ef F473E6EF 		.ascii	"\364s\346\357\354\212\273X\335\345G\365j\311k\255\375"
  82      EC8ABB58 
  82      DDE547F5 
  82      6AC96BAD 
  82      FD
  83 0200 6E7A7027 		.ascii	"nzp']%\252\237\331\320\323\360\201\376!\030\326q\037"
  83      5D25AA9F 
  83      D9D0D3F0 
  83      81FE2118 
  83      D6711F
  84 0213 0139941E 		.ascii	"\0019\224\036#\276>\331F5\344\375gq\236 \344X\376'\332"
  84      23BE3ED9 
ARM GAS  /tmp/cc83RhQM.s 			page 6


  84      4635E4FD 
  84      67719E20 
  84      E458FE27 
  85 0228 9DCDE60E 		.ascii	"\235\315\346\016\017\333y\373\350\261\\y4g\225\035\247"
  85      0FDB79FB 
  85      E8B15C79 
  85      3467951D 
  85      A7
  86 0239 5CA2D359 		.ascii	"\\\242\323Y;\237\033\035\261r\326\260Sp\254\362H!kA"
  86      3B9F1B1D 
  86      B172D6B0 
  86      5370ACF2 
  86      48216B41 
  87 024d 57A970E1 		.ascii	"W\251p\341<]\263{\202\323\336H\241t\206\017\373\374"
  87      3C5DB37B 
  87      82D3DE48 
  87      A174860F 
  87      FBFC
  88 025f C340E0DB 		.ascii	"\303@\340\333\217\347~\003\212l\032\220"
  88      8FE77E03 
  88      8A6C1A90 
  89              		.text
  90              		.section	.gnu.lto_chCoreAllocAligned.d4f614f50829aa81,"",%progbits
  91 0000 789C9D54 		.ascii	"x\234\235T]h\024W\024>\347\316lv7\277kb\012\221\222"
  91      5D681457 
  91      143EE7CE 
  91      6C7637BF 
  91      6B620A91 
  92 0015 6E853E29 		.ascii	"n\205>);\332 }lK^\332\207Pj*X|\220\3118l\006\262\273"
  92      3BDA207D 
  92      6C4B5EDA 
  92      87506A2A 
  92      587C90C9 
  93 002e 61278AB6 		.ascii	"a'\212\266\017\336\335\255\304\264\326\204R\241T\245"
  93      0FDEDDAD 
  93      C4B4D684 
  93      52A154A5 
  94 003e 8A8D26A8 		.ascii	"\212\215&\250\330\246\224j\327\237}\020\177\"FEDD\204"
  94      D8A6946A 
  94      D79F7D10 
  94      7F224645 
  94      444484
  95 0051 05410AAD 		.ascii	"\005A\012\255b\236\014*N\317\235\2733\273\233.n\350"
  95      629E0C2A 
  95      4ECF9DBB 
  95      33BB9B2E 
  95      6EE8
  96 0063 C0DC73EF 		.ascii	"\300\334s\3579\367;\337w\356\3343\014\030,~z\350\215"
  96      39F73BDF 
  96      77EEDC33 
  96      0C182C7E 
  96      7AE88D
  97 0076 0401DA11 		.ascii	"\004\001\332\021\000\003\200lb\016 \023bL\375+\010\274"
  97      0003806C 
  97      620E2013 
  97      624CFD2B 
  97      08BC
ARM GAS  /tmp/cc83RhQM.s 			page 7


  98 0088 5199BA04 		.ascii	"Q\231\272\004\300\233\025T\245_E\024\023@\330\311\024"
  98      C09B1554 
  98      A55F4514 
  98      1340D8C9 
  98      14
  99 0099 15777E8E 		.ascii	"\025w~\216\"Ip%\034\346\374\273\342\344\3213]\374Pv"
  99      22497025 
  99      1CE6FCBB 
  99      E2E4D133 
  99      5DFC5076 
 100 00ad 82BF721C 		.ascii	"\202\277r\034\264\220\350b\010\006\302FZ`\3245L\255"
 100      B490E862 
 100      0806C246 
 100      5A60D435 
 100      4CAD
 101 00bf E697C842 		.ascii	"\346\227\310B~to%Ra\320\263D\344\374\345\361\256\331"
 101      7E746F25 
 101      5261D0B3 
 101      44E4FCE5 
 101      F1AED9
 102 00d2 2AE4BA9A 		.ascii	"*\344\272\232\310\004\376\007z\177tO\327\327e\250\312"
 102      C804FE07 
 102      7A7F744F 
 102      D7D765A8 
 102      CA
 103 00e3 E0FDA591 		.ascii	"\340\375\245\221\362\231)\036>\304_:\216\3422~\264D"
 103      F299291E 
 103      3EC45F3A 
 103      8EE2327E 
 103      B444
 104 00f5 AD7747F7 		.ascii	"\255wG\367-\"\374\364\377\021n\252\007;\305\012E\307"
 104      2D22FCF4 
 104      FF116EAA 
 104      073BC50A 
 104      45C7
 105 0107 3970FBEC 		.ascii	"9p\373\354\303il_\241`\002Q\245\201\005\201hCb\010\213"
 105      C3696C5F 
 105      A1600251 
 105      A5810581 
 105      68436208 
 106 011c A111743C 		.ascii	"\241\021t<\214+\241\211\354I\262\315d\217\223m\021\301"
 106      8C2BA189 
 106      EC49B2CD 
 106      648F936D 
 106      11C1
 107 012e 5631B489 		.ascii	"V1\264\211!B\356#\344^Fv\232l;\331cd;Dp9-&i\321I\213"
 107      2142EE23 
 107      E45E4676 
 107      9A6C3BD9 
 107      63643B44 
 108 014a 005107E0 		.ascii	"\000Q\007\340+\316'\242\245\222\177\237\335S\371a\003"
 108      2BCE27A2 
 108      A5927F9F 
 108      DD53F961 
 108      03
 109 015b 3AFE8CAC 		.ascii	":\376\214\254\216x\020qz>\243Q\334\266\015\204 \253"
 109      8E781071 
ARM GAS  /tmp/cc83RhQM.s 			page 8


 109      7A3EA351 
 109      DCB60D84 
 109      20AB
 110 016d 5C856CC8 		.ascii	"\\\205l\310;\221\342\376\321;]'f8\037+\360\005\007\305"
 110      3B91E2FE 
 110      D13B5D27 
 110      66381F2B 
 110      F00507C5 
 111 0181 B93430D8 		.ascii	"\27140\330\207\365\016F\370\032\2424\231\203\354|~\327"
 111      87F50E46 
 111      F81AA234 
 111      9983EC7C 
 111      7ED7
 112 0193 D11525B9 		.ascii	"\321\025%\271\236\356\302\037{\377\354\310\220\314_"
 112      9EEEC21F 
 112      7BFFECC8 
 112      90CC5F
 113 01a2 A924DFE9 		.ascii	"\251$\337\351\034Xhz\323_\215\315Q\037\351x\212\312"
 113      1C58687A 
 113      D35F8DCD 
 113      511FE978 
 113      8ACA
 114 01b4 355C4251 		.ascii	"5\\BQ\220\002n[ \314\323\224\342\212l\266n\310\262\203"
 114      90026E5B 
 114      20CCD394 
 114      E28A6CB6 
 114      6EC8B283 
 115 01c8 FC870F2C 		.ascii	"\374\207\017,\014V\321\227\343\273J\361\220\024(\213"
 115      0C56D197 
 115      E3BB4AF1 
 115      9014288B 
 116 01d8 949F252E 		.ascii	"\224\237%.\262VV]\370m\366\032\322u\310<u\2346\367\002"
 116      B256565D 
 116      F86DF61A 
 116      D275C83C 
 116      759C36F7 
 117 01ed 7DCBEA55 		.ascii	"}\313\352U\034Gr\\\207\334\356\334\361q\257Z\3719\275"
 117      1C47725C 
 117      87DCEEDC 
 117      F171AF5A 
 117      F939BD
 118 0200 82F8B3EF 		.ascii	"\202\370\263\357\251\340\263\344\221\264\345\342T\231"
 118      A9E0B3E4 
 118      91B4E5E2 
 118      5499
 119 020e 204842AA 		.ascii	" HB\252\322\350x\236\342q\014QLp\202CO\033\210\015\331"
 119      D2E8789E 
 119      E2710C51 
 119      4C708243 
 119      4F1B880D 
 120 0223 69C58B86 		.ascii	"i\305\213\206=L>7\340\371\032]PX\224\305\244\317+\265"
 120      3D4C3E37 
 120      E0F91A5D 
 120      505894C5 
 120      A4CF2BB5 
 121 0237 D1455F5D 		.ascii	"\321E_]x~\223y\233\233\366\303\217\031\316#t\347\277"
 121      787E9379 
ARM GAS  /tmp/cc83RhQM.s 			page 9


 121      9B9BF6C3 
 121      8F19CE23 
 121      74E7BF
 122 024a 84E77CB7 		.ascii	"\204\347|\267\230\205e#\013\326p\251B\202=\361I\233"
 122      98856523 
 122      0BD670A9 
 122      42823DF1 
 122      499B
 123 025c 092685FA 		.ascii	"\011&\205\372\256\026\322A\201E\336V\012\210,jY{.\357"
 123      AE16D241 
 123      8145DE56 
 123      0A882C6A 
 123      597B2EEF 
 124 0270 47DB5CF9 		.ascii	"G\333\\\371\255n\362\277sox\356\010E\252\264\037q\265"
 124      AD6EF2BF 
 124      736F78EE 
 124      0845AAB4 
 124      1F71B5
 125 0283 47A4F6D3 		.ascii	"G\244\366\323/\012\350\355\\V[\273\362:\355\355\004"
 125      2F0AE8ED 
 125      5C565BBB 
 125      F23AEDED 
 125      04
 126 0294 73758CE5 		.ascii	"su\214\345\316\373\211:\\?\261^\201\213\2172-\025\007"
 126      CEFB893A 
 126      5C3FB15E 
 126      818B8F32 
 126      2D1507
 127 02a7 D951FEC8 		.ascii	"\331Q\376\310\033(1\375\252\025\302~\223{8\376\226\267"
 127      1B2831FD 
 127      AA15C27E 
 127      937B38FE 
 127      96B7
 128 02b9 6BB92BB9 		.ascii	"k\271+\271t\264O\033\244{)\247JP/\263\3525_\361\340"
 128      74B44F1B 
 128      A47B29A7 
 128      4A502FB3 
 128      EA355FF1 
 129 02ce 24CA9BA1 		.ascii	"$\312\233\241\343/\356=\251\276\235\324\223\217\027"
 129      E32FEE3D 
 129      A9BE9DD4 
 129      938F17
 130 02dd F7A48E33 		.ascii	"\367\244\2163u\373\335m\012xmO>p{\362RuO\376\324\322"
 130      75FBDD6D 
 130      0A786D4F 
 130      3E707BF2 
 130      52754FFE 
 131 02f3 EDFF6ECA 		.ascii	"\355\377n\312\315y\243\2429\003\362g\322P\243?u<M\023"
 131      CD79A3A2 
 131      3903F267 
 131      D250A33F 
 131      753C4D13 
 132 0307 9FDAEB47 		.ascii	"\237\332\353G\035\363\330-e\335\202Lq\312\224\251\342"
 132      1DF3D82D 
 132      65DD824C 
 132      71CA94A9 
 132      E2
ARM GAS  /tmp/cc83RhQM.s 			page 10


 133 0318 D8295CF7 		.ascii	"\330)\\\367\240S (-\373\347\2348[\345\304\205f\361\243"
 133      A0532028 
 133      2DFBE79C 
 133      385BE5C4 
 133      8566F1A3 
 134 032c 42714622 		.ascii	"BqF\"\301\252XL\353\035\264\006\254O\372\265\224\255"
 134      C1AA584C 
 134      EB1DB406 
 134      AC4FFAB5 
 134      94AD
 135 033e 19A94422 		.ascii	"\031\251D\"\225\244\331\2205\240\331iC3\006\023f\302"
 135      95A4D990 
 135      35A0D969 
 135      43330613 
 135      66C2
 136 0350 48A5CD98 		.ascii	"H\245\315\230\001\252m}a\342p8in\037!ol]\310Ln\021\223"
 136      01AA6D7D 
 136      61E27038 
 136      696E1F21 
 136      6F6C5DC8 
 137 0368 1E6FF2AE 		.ascii	"\036o\362\256\037[\353\317\326h5)\206S\351\021[\373"
 137      1F5BEBCF 
 137      D6683529 
 137      8653E911 
 137      5BFB
 138 037a 707D5F6F 		.ascii	"p}_o\337vb\021\024\233\267\275\227\210\015B`\233>\264"
 138      DF766211 
 138      149BB7BD 
 138      97880D42 
 138      609B3EB4 
 139 038e D5ECA989 		.ascii	"\325\354\251\211\242\234Zo_\377\307\375\232\2254\206"
 139      A29C5A6F 
 139      5FFFC7FD 
 139      9A953486 
 140 039e B66E3135 		.ascii	"\266n15#a[\366\346\270a\020\362\355jLz\244\274k\320"
 140      23615BF6 
 140      E6B86110 
 140      F2ED6A4C 
 140      7AA4BC6B 
 141 03b3 DE61D38E 		.ascii	"\336a\323\216H_\377\372\350\200n\233\303iku\364\235"
 141      485FFFFA 
 141      E8806E9B 
 141      C3696B75 
 141      F49D
 142 03c5 35C0D210 		.ascii	"5\300\322\020$\225\251\364\016\010\350CV<\371/\016\302"
 142      2495A9F4 
 142      0E08E843 
 142      563CF92F 
 142      0EC2
 143 03d7 FC33     		.ascii	"\3743"
 144              		.text
 145              		.section	.gnu.lto_chCoreGetStatusX.d4f614f50829aa81,"",%progbits
 146 0000 789C9D52 		.ascii	"x\234\235R\277K\0031\030\375\276\344\322\037\213\210"
 146      BF4B0331 
 146      18FDBEE4 
 146      D21F8B88 
 147 0010 936EA5AB 		.ascii	"\223n\245\253p\267Y\335\004']\034ZA\307\366<\332\003"
ARM GAS  /tmp/cc83RhQM.s 			page 11


 147      70B759DD 
 147      04275D1C 
 147      5A41C7F6 
 147      3CDA03
 148 0023 EF0E5A07 		.ascii	"\357\016Z\007\301\241\251\355\240[).\352b\221\242\202"
 148      C1A1A9ED 
 148      A05B292E 
 148      EA6291A2 
 148      82
 149 0034 507072B3 		.ascii	"Ppr\263\253C\205N\256u\026\374\003\244p~\211\366\240"
 149      AB43854E 
 149      AE7516FC 
 149      03A4707E 
 149      89F6A0
 150 0047 222A062E 		.ascii	"\"*\006.\357\313\273\274\367\276\2040`\360u\314\321"
 150      EFCBBBBC 
 150      F7BE8430 
 150      60F075CC 
 150      D1
 151 0058 374B7496 		.ascii	"7Kt\226\0209 k>\002\324\022\014Q\025\200PeX\335B\265"
 151      1039206B 
 151      3E02D412 
 151      0C511580 
 151      506558DD 
 152 006e D548435B 		.ascii	"\325HC[\312\326\260\323\035\360\223\343^\343\\\216\302"
 152      CAD6B0D3 
 152      1DF093E3 
 152      5EE35C8E 
 152      C2
 153 007f 10D145B2 		.ascii	"\020\321E\2625\021l\204MZ`J\0033&s\264\266)o\257dR\353"
 153      35116C84 
 153      4D5A604A 
 153      03332673 
 153      B4B6296F 
 154 0097 B88B9C41 		.ascii	"\270\213\234A\346O\262\326\204\214\322\226\377\227\266"
 154      E64FB2D6 
 154      848CD296 
 154      FF97B6
 155 00a6 F69BACCB 		.ascii	"\366\233\254\313z\3030\274y\032=\337\343L\202A\036\333"
 155      7AC330BC 
 155      791A3DDF 
 155      E34C8241 
 155      1EDB
 156 00b8 98064E78 		.ascii	"\230\006NxAh\020v\010\005\341%a\014\3105N\223r\021\320"
 156      41681076 
 156      0805E125 
 156      610CC835 
 156      4E937211 
 157 00cd A0C414A8 		.ascii	"\240\304\024\250\004\0329\232\325\005n S\310\373p\360"
 157      041A399A 
 157      D5056E20 
 157      53C8FB70 
 157      F0
 158 00de 7047F796 		.ascii	"pG\367\226\307k\024PDv\006\2475)\247\3518\373\360&\017"
 158      C76B1450 
 158      447606A7 
 158      3529A7E9 
ARM GAS  /tmp/cc83RhQM.s 			page 12


 158      38FBF026 
 159 00f3 55253C2D 		.ascii	"U%<-U\215\211\317\206H\366\022i8\3114\265:f\214\357"
 159      558D89CF 
 159      8648F612 
 159      6938C934 
 159      B53A668C 
 160 0108 5DF02717 		.ascii	"]\360'\027QT\375\366\241~\024Q1\355-\364\306\327\372"
 160      5154FDF6 
 160      A17E1451 
 160      31ED2DF4 
 160      C6D7FA
 161 011b D4988ED3 		.ascii	"\324\230\216\323\037\200\001`D|\330\345(\200\316\244"
 161      1F800160 
 161      447CD8E5 
 161      2880CEA4 
 162 012b DED2BC69 		.ascii	"\336\322\274iZ+%\267\340\256g\255\240b\331\201\347\005"
 162      5A2B25B7 
 162      E0AE67AD 
 162      A062D981 
 162      E705
 163 013d 3E553B6E 		.ascii	">U;n\301\252\224m\313.y\216g\007e\307\264!\341\370\333"
 163      C1AA946D 
 163      CB2E798E 
 163      670765C7 
 163      B421E1F8 
 164 0152 B43217C6 		.ascii	"\2642\027\306E&\351;{\273\252Z\214\252\245w_\332\224"
 164      4526E93B 
 164      7BBBAA5A 
 164      8CAAA577 
 164      5FDA94
 165 0165 74       		.ascii	"t"
 166              		.text
 167              		.section	.gnu.lto_.symbol_nodes.d4f614f50829aa81,"",%progbits
 168 0000 789C4DCA 		.ascii	"x\234M\312\261\015\2000\020CQ\333\307-\3112nS2\001#"
 168      B10D8030 
 168      104351DB 
 168      C72DC932 
 168      6E533201 
 169 0015 B10A1008 		.ascii	"\261\012\020\0105 !\205\337=\351\013\302\210/\35540"
 169      35202185 
 169      DF3DE90B 
 169      C2882FED 
 169      3430
 170 0027 2D803D17 		.ascii	"-\200=\027\346J\014\216l$\214\334\250W\027\343\221*"
 170      E64A0C8E 
 170      6C248CDC 
 170      A85717E3 
 170      912A
 171 0039 CDBEEAA0 		.ascii	"\315\276\352\240\365\343IG'n\207\005\0325"
 171      F5E34947 
 171      276E8705 
 171      1A35
 172              		.text
 173              		.section	.gnu.lto_.refs.d4f614f50829aa81,"",%progbits
 174 0000 789C25C6 		.ascii	"x\234%\306\301\015\0000\010\303@'\001:G\367_\262\225"
 174      C10D0030 
 174      08C34027 
ARM GAS  /tmp/cc83RhQM.s 			page 13


 174      013A47F7 
 174      5FB295
 175 0013 F0E76CCC 		.ascii	"\360\347l\314e+$[q\245\021\2212\253\017\371\367\000"
 175      652B245B 
 175      71A51191 
 175      32AB0FF9 
 175      F700
 176 0025 0A740064 		.ascii	"\012t\000d"
 177              		.text
 178              		.section	.gnu.lto_.decls.d4f614f50829aa81,"",%progbits
 179 0000 789CB556 		.ascii	"x\234\265V[l\024U\030>g\272\335K\273 \212\022|\0210"
 179      5B6C1455 
 179      183E67BA 
 179      DD4BBB20 
 179      8A127C11 
 180 0015 E203A43B 		.ascii	"\342\003\244;Z*\326\027\2606\004HD\015\015\011ON\246"
 180      5A2AD617 
 180      B0360448 
 180      440D0D09 
 180      4F4EA6
 181 0028 B303BB61 		.ascii	"\263\003\273a/\2703\013\324\027\317\026i\204\020S*$"
 181      2FB8330B 
 181      D417CF16 
 181      69841053 
 181      2A24
 182 003a D844B205 		.ascii	"\330D\262\005\212\220\310E*\206\253YPZ\356Y\2525$&8"
 182      8A90C845 
 182      2A86AB59 
 182      505AEE59 
 182      AA352426 
 183 004f 40B08089 		.ascii	"@\260\200\211)\0021&\304\365?\263gv.\235-\333\007N\362"
 183      29023126 
 183      C4F53FB3 
 183      67762E9D 
 183      2DDB074E 
 184 0064 B767E7FC 		.ascii	"\267g\347\374\377\367\177\377\345\\8\304\241\255\030"
 184      FFF77FFF 
 184      E55C38C4 
 184      A1AD18
 185 0073 A1028C6D 		.ascii	"\241\002\214mA\204\026T!T\215\020\232\207\314\341\001"
 185      41841654 
 185      21548D10 
 185      9A87CCE1 
 185      01
 186 0084 E901D903 		.ascii	"\351\001\331\003\322\007r\224};\011r\026\344\034\310"
 186      D2077294 
 186      7D3B0972 
 186      16E41CC8 
 187 0094 05641F3D 		.ascii	"\005d\037=L\247\037\344\024\310%\220\313l\015[\326\307"
 187      4CA71FE4 
 187      14C82590 
 187      CB6C0D5B 
 187      D6C7
 188 00a6 C2A0FE7C 		.ascii	"\302\240\376|\314~\"\010\320\323\271\315\007\331\307"
 188      CC7E2208 
 188      D0D3B9CD 
 188      07D9C7
ARM GAS  /tmp/cc83RhQM.s 			page 14


 189 00b5 300DBC3D 		.ascii	"0\015\274=l\215\342\035\0029\000r\205\341Z\007\345_"
 189      6C8DE21D 
 189      02390072 
 189      85E15A07 
 189      E55F
 190 00c7 C3EC0DCC 		.ascii	"\303\354\015\314S\026\334k \327A4\013\276\217\331\335"
 190      5316DC6B 
 190      20D74134 
 190      0BBE8FD9 
 190      DD
 191 00d8 04B90D72 		.ascii	"\004\271\015r\207\371\273\017\362\320\022\307\021\220"
 191      87F9BB0F 
 191      F2D012C7 
 191      1190
 192 00e6 EF5D7CD2 		.ascii	"\357]|\322|y\035qx\\b\240z\034\263?\351\300\230\206"
 192      7C791D71 
 192      785C62A0 
 192      7A1CB33F 
 192      E9C09886 
 193 00fa 7690ACA6 		.ascii	"v\220\254\246\335\036>\364\"\311\266\347\012\205\371"
 193      DD1E3EF4 
 193      22C9B6E7 
 193      0A85F9
 194 0109 680ADA46 		.ascii	"h\012\332F`d;\010\301\252\210\347\275\200\226c\021O"
 194      60643B08 
 194      C1AA88E7 
 194      BD809663 
 194      114F
 195 011b 0CA0E9FA 		.ascii	"\014\240\351\372$\030\320\235 $\342\235x\012\233-\253"
 195      2418D09D 
 195      2024E29D 
 195      780A9B2D 
 195      AB
 196 012c 2AC27128 		.ascii	"*\302q(\204\321,\264\017\354;\011\331\371\022r\033\257"
 196      84D12CB4 
 196      0FEC3B09 
 196      D9F91272 
 196      1BAF
 197 013e A25EEA80 		.ascii	"\242^\352\200\354%U:<\005\350\301\323\254*\"\336\205"
 197      EC25553A 
 197      3C05E8C1 
 197      D3AC2A22 
 197      DE85
 198 0150 39274F6D 		.ascii	"9'Om$wl\340\"&]\344q\241\260\336\357$:\277\266,\321"
 198      24776CE0 
 198      22265DE4 
 198      71A1B0DE 
 198      EF243ABF 
 199 0167 AF19D12A 		.ascii	"\257\031\321*=\017(\200>#\244\235\032.:\007\211s\263"
 199      3D0F2880 
 199      3E23A49D 
 199      1A2E3A07 
 199      8973B3
 200 017a 9A897643 		.ascii	"\232\211vC\010\332\226\216_\037\340v\300\027\361>\034"
 200      08DA968E 
 200      5F1FE076 
 200      C017F13E 
ARM GAS  /tmp/cc83RhQM.s 			page 15


 200      1C
 201 018b 00EB1F31 		.ascii	"\000\353\0371\006\274\335xV\211hu\300N\034~\033\012"
 201      06BCDD78 
 201      56896875 
 201      C04E1C7E 
 201      1B0A
 202 019d 144F5F66 		.ascii	"\024O_f\023\272\031\236)\2610L\315\354\351\011\274\340"
 202      13BA199E 
 202      29B1304C 
 202      CDECE909 
 202      BCE0
 203 01af F0F00ADA 		.ascii	"\360\360\012\332EH\227\266\341\237\274\347K\222\363"
 203      454897B6 
 203      E19FBCE7 
 203      4B92F3
 204 01be 1844AEEB 		.ascii	"\030D\256\353j{ mn\364\213Z\314\226\374,/\322\235q\350"
 204      6A7B206D 
 204      6EF48B5A 
 204      CC96FC2C 
 204      2FD29D71 
 205 01d3 D613AC8A 		.ascii	"\326\023\254\212\214\364\002\265\223\203\035\033&y\364"
 205      8CF402B5 
 205      93831D1B 
 205      2679F4
 206 01e2 BCA2318C 		.ascii	"\274\2421\214X\330\373]\353u\370B\2603\243\025\012\323"
 206      58D8FB5D 
 206      EB75F842 
 206      B033A315 
 206      0AD3
 207 01f4 8A35E0D0 		.ascii	"\2125\340\320]\327\350\310\027\224!\245,\342\203\000"
 207      5DD7E8C8 
 207      179421A5 
 207      2CE28300 
 208 0204 24E2BE8A 		.ascii	"$\342\276\212\002\273\312\002\023\361\267O\260\032#"
 208      02BBCA02 
 208      13F1B74F 
 208      B01A23
 209 0213 B072462C 		.ascii	"\260rF,\260\357F\007\226\325r\2176m66\214\337\321\207"
 209      B0EF4607 
 209      96D5728F 
 209      366D3636 
 209      8CDFD187 
 210 0227 9460B946 		.ascii	"\224`\271F<\346\262c\036;RR\242yx/\011\260xA\341\350"
 210      3CE6B263 
 210      1E3B5252 
 210      A279782F 
 210      09B07841 
 211 023d D8348FDB 		.ascii	"\3304\217\333i\276\214z\010\031\314\025z\317\323\375"
 211      69BE8C7A 
 211      0819CC15 
 211      7ACFD3FD 
 212 024d 4246A0F1 		.ascii	"BF\240\361j\321&\263\353\331\026\320z\311\324\355\346"
 212      6AD126B3 
 212      EBD916D0 
 212      7AC9D4ED 
 212      E6
 213 025e 16F01BC0 		.ascii	"\026\360\033\300\330\334\002'\272\366\317&\304/\342"
ARM GAS  /tmp/cc83RhQM.s 			page 16


 213      D8DC0227 
 213      BAF6CF26 
 213      C42FE2
 214 026d 1FF4BECB 		.ascii	"\037\364\276\313T\331\331V\016\324\327\275\243Q\007"
 214      54D9D956 
 214      0ED4D7BD 
 214      A35107
 215 027c 3AAD037D 		.ascii	":\255\003}\356q\356$\354\330I\330\276\223p\300\234\024"
 215      EE71EE24 
 215      ECD849D8 
 215      BE9370C0 
 215      9C14
 216 028e 301A976E 		.ascii	"0\032\227n\271z\234\302\265\006\006\207\266\227\030"
 216      B97A9CC2 
 216      B5060687 
 216      B69718
 217 029d 9553FFC9 		.ascii	"\225S\377\311L2M\260\326\251\365\336\313s\031r&C\350"
 217      4C324DB0 
 217      D6A9F5DE 
 217      CB731972 
 217      2643E8
 218 02b0 9984F1B3 		.ascii	"\231\204\361\263\250\223\266\302\364\355\023\213\371"
 218      A893B6C2 
 218      F4ED138B 
 218      F9
 219 02bd 3209F6C3 		.ascii	"2\011\366\303\232ep(\353\261\306 \342\001;6\024oK\377"
 219      9A657028 
 219      EBB1C620 
 219      E2013B36 
 219      146F4BFF 
 220 02d1 56DA6384 		.ascii	"V\332c\204\374\007\320E\256\034:\360D\222\347\235$s"
 220      FC07D045 
 220      AE1C3AF0 
 220      4492E79D 
 220      2473
 221 02e3 431DDB30 		.ascii	"C\035\3330\271A\014 J\205CG\034\376/\232f\266N):.\347"
 221      B9410C20 
 221      4A854347 
 221      1CFE2F9A 
 221      66B64E29 
 222 02fa EC929940 		.ascii	"\354\222\231@\207\025\365R\316\352\262iE)\346\363\271"
 222      8715F552 
 222      CEEAB269 
 222      4529E6F3 
 222      B9
 223 030b AB031B09 		.ascii	"\253\003\033\011&\035$C;\325\314b\251\273rcw\027\275"
 223      261D2443 
 223      3BD5CC62 
 223      A9BB7263 
 223      7717BD
 224 031e 6D384B2B 		.ascii	"m8K+Nu\327\025\361U<\023\376\016\262\322\320\245\301"
 224      4E75D715 
 224      F1553C13 
 224      FE0EB2D2 
 224      D0A5C1
 225 0331 52AF0CB2 		.ascii	"R\257\014\262f\341\320\031\217\275\277,i\032\333\224"
 225      66E1D019 
ARM GAS  /tmp/cc83RhQM.s 			page 17


 225      8FBDBF2C 
 225      691ADB94 
 226 0341 39CD62C3 		.ascii	"9\315b\303\353\363\272\262\265-\006\315\343\301\251"
 226      EBF3BAB2 
 226      B52D06CD 
 226      E3C1A9
 227 0350 26E25F58 		.ascii	"&\342_X\227\350\241\220R.\203\345O\224!\013\237`\300"
 227      97E8A190 
 227      522E83E5 
 227      4F94210B 
 227      9F60C0
 228 0363 9C4CB6B1 		.ascii	"\234L\266\2616\264 \266\001\217\343\012p\262\340P\236"
 228      36B420B6 
 228      018FE30A 
 228      70B2E050 
 228      9E
 229 0374 852FE21A 		.ascii	"\205/\342\032<\236\333\362D\327\331\323\354\266\274"
 229      3C9EDBF2 
 229      44D7D9D3 
 229      ECB6BC
 230 0383 56BCA43C 		.ascii	"V\274\244<\256\207E\005P}\335'\337\322\017\213\337t"
 230      AE874505 
 230      507DDD27 
 230      DFD20F8B 
 230      DF74
 231 0395 A0E15187 		.ascii	"\240\341Q\207\205\317qX\370\354\007\200/`N\330\265;"
 231      85CF7158 
 231      F8EC0780 
 231      2F604ED8 
 231      B53B
 232 03a7 4E7556B3 		.ascii	"NuV\263\354\333\216\242M2\330r\014\352\372\270k\366"
 232      ECDB8EA2 
 232      4D32D872 
 232      0CEAFAB8 
 232      6BF6
 233 03b9 7B999A19 		.ascii	"{\231\232\031MW\246]\032\015=\037\303\321\306\355\371"
 233      4D57A65D 
 233      1A0D3D1F 
 233      C3D1C6ED 
 233      F9
 234 03ca 4619CF5E 		.ascii	"F\031\317^\346\231\336n\271\021mhx\344\303o\016\023"
 234      E699DE6E 
 234      B9116D68 
 234      78E4C36F 
 234      0E13
 235 03dc B2114E8C 		.ascii	"\262\021N\214O2\237\342\342S\017^\364\325\256W\225\343"
 235      4F329FE2 
 235      E2530F5E 
 235      F4D5AE57 
 235      95E3
 236 03ee 2D77D3F9 		.ascii	"-w\323\371\226\2735\372\012\005'\217\357\345\273\361"
 236      96BB35FA 
 236      0A05278F 
 236      EFE5BBF1 
 237 03fe 96F5E49C 		.ascii	"\226\365\344\234~;e\375\206\223+\0259\271\355t\362\207"
 237      7E3B65FD 
 237      86932B15 
ARM GAS  /tmp/cc83RhQM.s 			page 18


 237      39B9ED74 
 237      F287
 238 0410 AB93FB7F 		.ascii	"\253\223\373\177\215,\372\327\214dF\345\217\333\273"
 238      8D2CFAD7 
 238      8C6446E5 
 238      8FDBBB
 239 041f F63763B1 		.ascii	"\3667c\261\245\035o\265\315^+U]\223C\335^VG\343\221"
 239      A51D6FB5 
 239      CD5E2B55 
 239      5D9343DD 
 239      5E5647E3 
 240 0434 D21FEC2C 		.ascii	"\322\037\354,\355\210\275\272\305\235\262\357\224k\330"
 240      ED88BDBA 
 240      C59DB2EF 
 240      946BD8
 241 0443 7CA810F2 		.ascii	"|\250\020\362 \363\301\324R\304w\234\021\377\351\032"
 241      20F3C1D4 
 241      52C4779C 
 241      11FFE91A 
 242 0453 F1D0703E 		.ascii	"\361\320p>\342V\273\003\336J\322z\337\351\344\357r\265"
 242      E256BB03 
 242      DE4AD27A 
 242      DFE9E4EF 
 242      72B5
 243 0465 FBCAAD76 		.ascii	"\373\312\255v\307+r\362\320\351\344\221\335\011\232"
 243      C72B72F2 
 243      D0E9E491 
 243      DD099A
 244 0474 1D0AF1CD 		.ascii	"\035\012\361\315\221hk\364\375\026>\251\360R2\036O&"
 244      91686BF4 
 244      FD163EA9 
 244      F052321E 
 244      4F26
 245 0486 60168BB6 		.ascii	"`\026\213\266\362JJ\342\245H\\\216K\311\224\034\222"
 245      F24A4AE2 
 245      A5485C8E 
 245      4BC9941C 
 245      92
 246 0497 508D4027 		.ascii	"P\215@'B4\021U\275\013\337[6\275\031e0\237X\241Py\203"
 246      42341155 
 246      BD0BDF5B 
 246      36BD1965 
 246      309F58A1 
 247 04ae 8F24E332 		.ascii	"\217$\3432\237\222\025YLI\021>\"\246\302k\305\224\314"
 247      9F921559 
 247      4C49113E 
 247      22A6C26B 
 247      C594CC
 248 04c1 8BA9783D 		.ascii	"\213\251x=\277R\222\352`R'\307[\345pX\016\227>$\222"
 248      BF5292EA 
 248      605227C7 
 248      5BE57058 
 248      0E973E24 
 249 04d6 09B94E16 		.ascii	"\011\271N\026[\243u\015Bc]\375k\2577|T\317S\337\240"
 249      5BA3750D 
 249      42635DFD 
 249      6BAF377C 
ARM GAS  /tmp/cc83RhQM.s 			page 19


 249      54CF53DF 
 250 04eb C0DB14F8 		.ascii	"\300\333\024\370\206Pc\250\201\217&\244X:,\363\212\012"
 250      865063A8 
 250      818F26A4 
 250      583A2CF3 
 250      8A0A
 251 04fd 382B4211 		.ascii	"8+B\021\344U\242\037\313\202:Y\2124\003\271\246X,)5"
 251      E455A21F 
 251      CB823A59 
 251      8A3403B9 
 251      A6582C29 
 252 0512 C5A22B13 		.ascii	"\305\242+\023rx\261\207.U\213\364\327s\243\227'\025"
 252      7278B187 
 252      2E558BF4 
 252      D773A397 
 252      2715
 253 0524 3F2D94D5 		.ascii	"?-\224\325\026UT\323\312r\345i\304b\217\301\302>\232"
 253      165554D3 
 253      CA72E569 
 253      C4628FC1 
 253      C23E9A
 254 0537 5081BD2F 		.ascii	"P\201\275/\015\377\033\005u\375SI\244\273\363\270(E"
 254      0DFF1B05 
 254      75FD5349 
 254      A4BBF3B8 
 254      2845
 255 0549 A2099917 		.ascii	"\242\011\231\027 \201b:\246\012j\333jY\0012\001A`t|"
 255      2081623A 
 255      A60A6ADB 
 255      6A590132 
 255      01416074 
 256 055e 09799D0A 		.ascii	"\011y\235\012\205\237 \010\021Y\\-\264\212\212,\010"
 256      859F2008 
 256      11595C2D 
 256      B48A8A2C 
 256      08
 257 056f 5E391186 		.ascii	"^9\021\206\217A\366\021~\011\202G\002\202~AX\221NH\202"
 257      8F41F611 
 257      7E098247 
 257      02827E41 
 257      58914E48 
 258 0584 30C19884 		.ascii	"0\301\230\204\346\316i\234\353\247hs\352\005\265\246"
 258      E6CE699C 
 258      EBA76873 
 258      EA05B5A6 
 259 0594 084CA733 		.ascii	"\010L\2473\354\375\226RK\264\244\210\322\246\263\220"
 259      ECFD9652 
 259      4BB4A488 
 259      D2A6B390 
 260 05a4 222D6DCA 		.ascii	"\"-m\312\273Ii\025\357\332\233\253\223)U\341\233\226"
 260      BB496915 
 260      EFDA9BAB 
 260      932955E1 
 260      9B96
 261 05b6 2E695EB2 		.ascii	".i^\262\016\214\364\226\\\363f\234Z\322%\001*\274j\216"
 261      0E8CF496 
 261      5CF3669C 
ARM GAS  /tmp/cc83RhQM.s 			page 20


 261      5AD22501 
 261      2ABC6A8E 
 262 05ca AB25C4C4 		.ascii	"\253%\304\3047/iY\334b\372\214+QE\200\034\2025pWdUx"
 262      372F6959 
 262      DC62FA8C 
 262      2B514580 
 262      1C823570 
 263 05e2 A7A965C1 		.ascii	"\247\251e\301\007K\027O\020ck\3056\005\232=\006\271"
 263      074B174F 
 263      10636BC5 
 263      36059A3D 
 263      06B9
 264 05f4 AA5E23C6 		.ascii	"\252^#\306\322r\255\316lY\202z\250\325}\245\365\371"
 264      D272ADCE 
 264      6C59827A 
 264      A8D57DA5 
 264      F5F9
 265 0606 FFDFE5C6 		.ascii	"\377\337\345\306\352"
 265      EA
 266              		.text
 267              		.section	.gnu.lto_.symtab.d4f614f50829aa81,"",%progbits
 268 0000 5F636F72 		.ascii	"_core_init\000\000\000\000\000\000\000\000\000\000\000"
 268      655F696E 
 268      69740000 
 268      00000000 
 268      00000000 
 269 0015 00A10000 		.ascii	"\000\241\000\000\000chCoreAllocAlignedI\000\000\000"
 269      00636843 
 269      6F726541 
 269      6C6C6F63 
 269      416C6967 
 270 0030 00000000 		.ascii	"\000\000\000\000\000\000\000\000\000\246\000\000\000"
 270      00000000 
 270      00A60000 
 270      00
 271 003d 6368436F 		.ascii	"chCoreAllocAligned\000\000\000\000\000\000\000\000\000"
 271      7265416C 
 271      6C6F6341 
 271      6C69676E 
 271      65640000 
 272 0058 000000B3 		.ascii	"\000\000\000\263\000\000\000chCoreGetStatusX\000\000"
 272      00000063 
 272      68436F72 
 272      65476574 
 272      53746174 
 273 0071 00000000 		.ascii	"\000\000\000\000\000\000\000\000\000\000\270\000\000"
 273      00000000 
 273      0000B800 
 273      00
 274 007e 005F5F68 		.ascii	"\000__heap_base__\000\000\002\000\000\000\000\000\000"
 274      6561705F 
 274      62617365 
 274      5F5F0000 
 274      02000000 
 275 0095 000000C5 		.ascii	"\000\000\000\305\000\000\000__heap_end__\000\000\002"
 275      0000005F 
 275      5F686561 
ARM GAS  /tmp/cc83RhQM.s 			page 21


 275      705F656E 
 275      645F5F00 
 276 00ab 00000000 		.ascii	"\000\000\000\000\000\000\000\000\000\312\000\000\000"
 276      00000000 
 276      00CA0000 
 276      00
 277              		.text
 278              		.section	.gnu.lto_.opts,"",%progbits
 279 0000 272D6D63 		.ascii	"'-mcpu=cortex-m4' '-mno-thumb-interwork' '-mthumb' "
 279      70753D63 
 279      6F727465 
 279      782D6D34 
 279      2720272D 
 280 0033 272D6767 		.ascii	"'-ggdb' '-O2' '-fomit-frame-pointer' '-falign-funct"
 280      64622720 
 280      272D4F32 
 280      2720272D 
 280      666F6D69 
 281 0066 696F6E73 		.ascii	"ions=16' '-ffunction-sections' '-fdata-sections' '-"
 281      3D313627 
 281      20272D66 
 281      66756E63 
 281      74696F6E 
 282 0099 666E6F2D 		.ascii	"fno-common' '-flto'\000"
 282      636F6D6D 
 282      6F6E2720 
 282      272D666C 
 282      746F2700 
 283              		.text
 284              		.cfi_sections	.debug_frame
 285              		.section	.text._core_init,"ax",%progbits
 286              		.align	2
 287              		.p2align 4,,15
 288              		.global	_core_init
 289              		.thumb
 290              		.thumb_func
 291              		.type	_core_init, %function
 292              	_core_init:
 293              	.LFB239:
 294              		.file 1 "../ChibiOS/os/common/oslib/src/chmemcore.c"
 295              		.loc 1 79 0
 296              		.cfi_startproc
 297              		@ args = 0, pretend = 0, frame = 0
 298              		@ frame_needed = 0, uses_anonymous_args = 0
 299              		@ link register save eliminated.
 300              		.loc 1 85 0
 301 0000 0349     		ldr	r1, .L2
 302              		.loc 1 86 0
 303 0002 044B     		ldr	r3, .L2+4
 304              		.loc 1 85 0
 305 0004 0448     		ldr	r0, .L2+8
 306              		.loc 1 86 0
 307 0006 054A     		ldr	r2, .L2+12
 308              		.loc 1 85 0
 309 0008 0860     		str	r0, [r1]
 310              		.loc 1 86 0
 311 000a 1A60     		str	r2, [r3]
ARM GAS  /tmp/cc83RhQM.s 			page 22


 312 000c 7047     		bx	lr
 313              	.L3:
 314 000e 00BF     		.align	2
 315              	.L2:
 316 0010 00000000 		.word	.LANCHOR0
 317 0014 00000000 		.word	.LANCHOR1
 318 0018 00000000 		.word	__heap_base__
 319 001c 00000000 		.word	__heap_end__
 320              		.cfi_endproc
 321              	.LFE239:
 322              		.size	_core_init, .-_core_init
 323              		.section	.text.chCoreAllocAlignedI,"ax",%progbits
 324              		.align	2
 325              		.p2align 4,,15
 326              		.global	chCoreAllocAlignedI
 327              		.thumb
 328              		.thumb_func
 329              		.type	chCoreAllocAlignedI, %function
 330              	chCoreAllocAlignedI:
 331              	.LFB240:
 332              		.loc 1 108 0
 333              		.cfi_startproc
 334              		@ args = 0, pretend = 0, frame = 0
 335              		@ frame_needed = 0, uses_anonymous_args = 0
 336              		@ link register save eliminated.
 337              	.LVL0:
 338              		.loc 1 115 0
 339 0000 094A     		ldr	r2, .L7
 340 0002 1368     		ldr	r3, [r2]
 341              		.loc 1 108 0
 342 0004 30B4     		push	{r4, r5}
 343              		.cfi_def_cfa_offset 8
 344              		.cfi_offset 4, -8
 345              		.cfi_offset 5, -4
 346              		.loc 1 117 0
 347 0006 094C     		ldr	r4, .L7+4
 348              		.loc 1 115 0
 349 0008 013B     		subs	r3, r3, #1
 350              		.loc 1 114 0
 351 000a 451E     		subs	r5, r0, #1
 352              		.loc 1 117 0
 353 000c 2468     		ldr	r4, [r4]
 354              		.loc 1 115 0
 355 000e 5818     		adds	r0, r3, r1
 356              	.LVL1:
 357              		.loc 1 114 0
 358 0010 4B42     		negs	r3, r1
 359              		.loc 1 115 0
 360 0012 1840     		ands	r0, r0, r3
 361              		.loc 1 114 0
 362 0014 2944     		add	r1, r1, r5
 363              	.LVL2:
 364 0016 0B40     		ands	r3, r3, r1
 365              	.LVL3:
 366              		.loc 1 117 0
 367 0018 241A     		subs	r4, r4, r0
 368 001a A342     		cmp	r3, r4
ARM GAS  /tmp/cc83RhQM.s 			page 23


 369              		.loc 1 120 0
 370 001c 96BF     		itet	ls
 371 001e 1B18     		addls	r3, r3, r0
 372              	.LVL4:
 373              		.loc 1 118 0
 374 0020 0020     		movhi	r0, #0
 375              	.LVL5:
 376              		.loc 1 120 0
 377 0022 1360     		strls	r3, [r2]
 378              		.loc 1 123 0
 379 0024 30BC     		pop	{r4, r5}
 380 0026 7047     		bx	lr
 381              	.L8:
 382              		.align	2
 383              	.L7:
 384 0028 00000000 		.word	.LANCHOR0
 385 002c 00000000 		.word	.LANCHOR1
 386              		.cfi_endproc
 387              	.LFE240:
 388              		.size	chCoreAllocAlignedI, .-chCoreAllocAlignedI
 389              		.section	.text.chCoreAllocAligned,"ax",%progbits
 390              		.align	2
 391              		.p2align 4,,15
 392              		.global	chCoreAllocAligned
 393              		.thumb
 394              		.thumb_func
 395              		.type	chCoreAllocAligned, %function
 396              	chCoreAllocAligned:
 397              	.LFB241:
 398              		.loc 1 137 0
 399              		.cfi_startproc
 400              		@ args = 0, pretend = 0, frame = 0
 401              		@ frame_needed = 0, uses_anonymous_args = 0
 402              		@ link register save eliminated.
 403              	.LVL6:
 404 0000 30B4     		push	{r4, r5}
 405              		.cfi_def_cfa_offset 8
 406              		.cfi_offset 4, -8
 407              		.cfi_offset 5, -4
 408              	.LBB26:
 409              	.LBB27:
 410              	.LBB28:
 411              	.LBB29:
 412              		.file 2 "../ChibiOS/os/common/ext/CMSIS/include/cmsis_gcc.h"
 413              		.loc 2 264 0
 414 0002 2023     		movs	r3, #32
 415              	@ 264 "../ChibiOS/os/common/ext/CMSIS/include/cmsis_gcc.h" 1
 416 0004 83F31188 		MSR basepri, r3
 417              	@ 0 "" 2
 418              	.LVL7:
 419              		.thumb
 420              	.LBE29:
 421              	.LBE28:
 422              	.LBE27:
 423              	.LBE26:
 424              	.LBB30:
 425              	.LBB31:
ARM GAS  /tmp/cc83RhQM.s 			page 24


 426              		.loc 1 115 0
 427 0008 0B4B     		ldr	r3, .L12
 428              		.loc 1 117 0
 429 000a 0C4C     		ldr	r4, .L12+4
 430              		.loc 1 115 0
 431 000c 1A68     		ldr	r2, [r3]
 432              		.loc 1 117 0
 433 000e 2468     		ldr	r4, [r4]
 434              		.loc 1 115 0
 435 0010 013A     		subs	r2, r2, #1
 436 0012 0A44     		add	r2, r2, r1
 437              		.loc 1 114 0
 438 0014 4D1E     		subs	r5, r1, #1
 439 0016 4942     		negs	r1, r1
 440              	.LVL8:
 441 0018 0544     		add	r5, r5, r0
 442              		.loc 1 115 0
 443 001a 02EA0100 		and	r0, r2, r1
 444              	.LVL9:
 445              		.loc 1 117 0
 446 001e 221A     		subs	r2, r4, r0
 447              		.loc 1 114 0
 448 0020 2940     		ands	r1, r1, r5
 449              	.LVL10:
 450              		.loc 1 117 0
 451 0022 9142     		cmp	r1, r2
 452              		.loc 1 120 0
 453 0024 9ABF     		itte	ls
 454 0026 0918     		addls	r1, r1, r0
 455              	.LVL11:
 456 0028 1960     		strls	r1, [r3]
 457              		.loc 1 118 0
 458 002a 0020     		movhi	r0, #0
 459              	.LVL12:
 460              	.LBE31:
 461              	.LBE30:
 462              	.LBB32:
 463              	.LBB33:
 464              	.LBB34:
 465              	.LBB35:
 466              	.LBB36:
 467              		.loc 2 264 0
 468 002c 0023     		movs	r3, #0
 469              	@ 264 "../ChibiOS/os/common/ext/CMSIS/include/cmsis_gcc.h" 1
 470 002e 83F31188 		MSR basepri, r3
 471              	@ 0 "" 2
 472              		.thumb
 473              	.LBE36:
 474              	.LBE35:
 475              	.LBE34:
 476              	.LBE33:
 477              	.LBE32:
 478              		.loc 1 145 0
 479 0032 30BC     		pop	{r4, r5}
 480              	.LVL13:
 481 0034 7047     		bx	lr
 482              	.L13:
ARM GAS  /tmp/cc83RhQM.s 			page 25


 483 0036 00BF     		.align	2
 484              	.L12:
 485 0038 00000000 		.word	.LANCHOR0
 486 003c 00000000 		.word	.LANCHOR1
 487              		.cfi_endproc
 488              	.LFE241:
 489              		.size	chCoreAllocAligned, .-chCoreAllocAligned
 490              		.section	.text.chCoreGetStatusX,"ax",%progbits
 491              		.align	2
 492              		.p2align 4,,15
 493              		.global	chCoreGetStatusX
 494              		.thumb
 495              		.thumb_func
 496              		.type	chCoreGetStatusX, %function
 497              	chCoreGetStatusX:
 498              	.LFB242:
 499              		.loc 1 154 0
 500              		.cfi_startproc
 501              		@ args = 0, pretend = 0, frame = 0
 502              		@ frame_needed = 0, uses_anonymous_args = 0
 503              		@ link register save eliminated.
 504              		.loc 1 157 0
 505 0000 024A     		ldr	r2, .L15
 506 0002 034B     		ldr	r3, .L15+4
 507 0004 1068     		ldr	r0, [r2]
 508 0006 1B68     		ldr	r3, [r3]
 509              		.loc 1 159 0
 510 0008 C01A     		subs	r0, r0, r3
 511 000a 7047     		bx	lr
 512              	.L16:
 513              		.align	2
 514              	.L15:
 515 000c 00000000 		.word	.LANCHOR1
 516 0010 00000000 		.word	.LANCHOR0
 517              		.cfi_endproc
 518              	.LFE242:
 519              		.size	chCoreGetStatusX, .-chCoreGetStatusX
 520 0014 AFF30080 		.section	.bss.endmem,"aw",%nobits
 520      AFF30080 
 520      AFF30080 
 521              		.align	2
 522              		.set	.LANCHOR1,. + 0
 523              		.type	endmem, %object
 524              		.size	endmem, 4
 525              	endmem:
 526 0000 00000000 		.space	4
 527              		.section	.bss.nextmem,"aw",%nobits
 528              		.align	2
 529              		.set	.LANCHOR0,. + 0
 530              		.type	nextmem, %object
 531              		.size	nextmem, 4
 532              	nextmem:
 533 0000 00000000 		.space	4
 534              		.text
 535              	.Letext0:
 536              		.file 3 "/nfs/nfs5/home/research/hardware/arm2/gcc-arm-embedded/gcc-arm-none-eabi-4_8-2014q2/lib/g
 537              		.file 4 "/nfs/nfs5/home/research/hardware/arm2/gcc-arm-embedded/gcc-arm-none-eabi-4_8-2014q2/arm-n
ARM GAS  /tmp/cc83RhQM.s 			page 26


 538              		.file 5 "/nfs/nfs5/home/research/hardware/arm2/gcc-arm-embedded/gcc-arm-none-eabi-4_8-2014q2/arm-n
 539              		.file 6 "../ChibiOS/os/common/ports/ARMCMx/compilers/GCC/chtypes.h"
 540              		.file 7 "../ChibiOS/os/rt/include/chsystypes.h"
 541              		.file 8 "../ChibiOS/os/rt/include/chschd.h"
 542              		.file 9 "../ChibiOS/os/common/ports/ARMCMx/chcore.h"
 543              		.file 10 "../ChibiOS/os/common/ports/ARMCMx/chcore_v7m.h"
 544              		.file 11 "../ChibiOS/os/rt/include/chtm.h"
 545              		.file 12 "../ChibiOS/os/rt/include/chsem.h"
 546              		.file 13 "../ChibiOS/os/rt/include/chmtx.h"
 547              		.file 14 "../ChibiOS/os/rt/include/chsys.h"
 548              		.file 15 "../ChibiOS/os/common/ext/CMSIS/include/core_cm4.h"