ARM GAS  /tmp/cc83RhQM.s 			page 1


   1              		.syntax unified
   2              		.cpu cortex-m4
   3              		.fpu softvfp
   4              		.eabi_attribute 20, 1
   5              		.eabi_attribute 21, 1
   6              		.eabi_attribute 23, 3
   7              		.eabi_attribute 24, 1
   8              		.eabi_attribute 25, 1
   9              		.eabi_attribute 26, 1
  10              		.eabi_attribute 30, 2
  11              		.eabi_attribute 34, 1
  12              		.eabi_attribute 18, 4
  13              		.thumb
  14              		.file	"chmemcore.c"
  15              		.text
  16              	.Ltext0:
  17              		.section	.gnu.lto_.jmpfuncs.d4f614f50829aa81,"",%progbits
  18 0000 789C6362 		.ascii	"x\234cb`b\300\006\270\2404\013\003\003+3\0333;\003\003"
  18      6062C006 
  18      B8A0340B 
  18      03032B33 
  18      1B333B03 
  19 0015 00021E00 		.ascii	"\000\002\036\000+"
  19      2B
  20              		.text
  21              		.section	.gnu.lto_.inline.d4f614f50829aa81,"",%progbits
  22 0000 789C6362 		.ascii	"x\234cb`b\300\006*\2404\013\003\003+\013#\003\023\313"
  22      6062C006 
  22      2AA0340B 
  22      03032B0B 
  22      230313CB 
  23 0014 027906B6 		.ascii	"\002y\006\266\005\362`\305\254\014\202\002\214L\214"
  23      05F260C5 
  23      AC0C8202 
  23      8C4C8C
  24 0023 8C203688 		.ascii	"\214 6\210`\021\2310\223\021\"\313\366A\217\207\201"
  24      60119930 
  24      931122CB 
  24      F6418F87 
  24      81
  25 0034 E9023F0B 		.ascii	"\351\002?\013H\216\215AX\210\221\011\254\004\254\230"
  25      488E8D41 
  25      58889109 
  25      AC04AC98 
  26 0044 4562C30E 		.ascii	"Eb\303\0164u\034 u\354\014l\254@+\200bp+\030\000\354"
  26      34751C20 
  26      75EC0C6C 
  26      AC402B80 
  26      62702B18 
  27 005a 3A0CF7   		.ascii	":\014\367"
  28              		.text
  29              		.section	.gnu.lto_.pureconst.d4f614f50829aa81,"",%progbits
  30 0000 789C6362 		.ascii	"x\234cb`b\340d\200\000\026\006\011V\0116+v\026\000\003"
  30      6062E064 
  30      80001606 
  30      09560936 
  30      2B761600 
ARM GAS  /tmp/cc83RhQM.s 			page 2


  31 0015 380092   		.ascii	"8\000\222"
  32              		.text
  33              		.section	.gnu.lto__core_init.d4f614f50829aa81,"",%progbits
  34 0000 789C6362 		.ascii	"x\234cb`b@\007\222@\354\316\310\300\340\001\244\031"
  34      60624007 
  34      9240ECCE 
  34      C8C0E001 
  34      A419
  35 0012 99191899 		.ascii	"\231\031\030\231&\234c`h\344`bd\0041\030\030\031\352"
  35      269C6360 
  35      68E46062 
  35      64043118 
  35      1819EA
  36 0025 9918EB23 		.ascii	"\231\030\353#\031\301j\3273\035x\360\377\377\272}\307"
  36      19C16AD7 
  36      331D78F0 
  36      FFFFBA7D 
  36      C7
  37 0036 A6BF619C 		.ascii	"\246\277a\234\315\304\002\024aehih\230\240\240\304\260"
  37      CDC40214 
  37      61656869 
  37      6898A0A0 
  37      C4B0
  38 0048 B0E1C184 		.ascii	"\260\341\301\204\003\227\333\24626<l\230\330\360\357"
  38      0397DBA6 
  38      32363C6C 
  38      98D8F0EF 
  39 0058 FF7FC64C 		.ascii	"\377\177\306LF\240mz\214\014\311\214p\273\022\031\027"
  39      46A06D7A 
  39      8C0CC98C 
  39      70BB1219 
  39      17
  40 0069 33C25D00 		.ascii	"3\302]\000\325s\345XC\003\343\206\003\035\015\377\377"
  40      D573E558 
  40      4303E386 
  40      031D0DFF 
  40      FF
  41 007a D783B5D8 		.ascii	"\327\203\265\330\240iY\312\210\344h\210L\010\220\004"
  41      A06959CA 
  41      88E46888 
  41      4C089004 
  42 008a B92E1428 		.ascii	"\271.\024(\005\244\231\31724\375j\336\336+\235\310\270"
  42      05A499CF 
  42      3234FD6A 
  42      DEDE2B9D 
  42      C8B8
  43 009c 90919561 		.ascii	"\220\221\225a6\303\254\306\206\006\201LF\306j\206_\015"
  43      36C3ACC6 
  43      8606814C 
  43      46C66A86 
  43      5F0D
  44 00ae 1D201653 		.ascii	"\035 \026S.X_\004\320Q\020\303 2\015\326\231\214\314"
  44      2E585F04 
  44      D05110C3 
  44      20320DD6 
  44      998CCC
  45 00c1 B98C10DB 		.ascii	"\271\214\020\333\300\206\354\306o\010\023nC\230\301"
ARM GAS  /tmp/cc83RhQM.s 			page 3


  45      C086ECC6 
  45      6F08136E 
  45      4398C1
  46 00d0 4217191A 		.ascii	"B\027\031\032\037\354S\206\030\001\003!@\013\200\256"
  46      1FEC5386 
  46      18010321 
  46      400B80AE 
  47 00e0 04E9D1D6 		.ascii	"\004\351\321\326\323\323w\316\310L\312\364\017\326\317"
  47      D3D377CE 
  47      C84CCAF4 
  47      0FD6CF
  48 00ef 2FD64FCE 		.ascii	"/\326O\316\317\315\315\317\003\262r2\223\364\213\213"
  48      CFCDCDCF 
  48      03B27232 
  48      93F48B8B 
  49 00ff 92F59333 		.ascii	"\222\365\2233rSs\223\363\213R\365\222\031x\343\3433"
  49      72537393 
  49      F38B52F5 
  49      921978E3 
  49      E333
  50 0111 52130BE2 		.ascii	"R\023\013\342\223\022\213S\343\343y\240\274\324\274"
  50      93128B53 
  50      E3E379A0 
  50      BCD4BC
  51 0120 94F87800 		.ascii	"\224\370x\000\257\177p\256"
  51      AF7F70AE 
  52              		.text
  53              		.section	.gnu.lto_chCoreAllocAlignedI.d4f614f50829aa81,"",%progbits
  54 0000 789C9D54 		.ascii	"x\234\235TMhSA\020\236\331}yI\363\323$\255\012\361b"
  54      4D685341 
  54      109ED97D 
  54      7949F3D3 
  54      24AD0AF1 
  55 0015 E95548D4 		.ascii	"\351UH\324\"x\360\244G\017\036\264\240\027\245y\206"
  55      2278F0A4 
  55      470F1EB4 
  55      A017A579 
  55      86
  56 0026 F4812F91 		.ascii	"\364\201/\221\326\203\340\241\233\276B\353\017&\210"
  56      D683E0A1 
  56      9BBE42EB 
  56      0F2688
  57 0035 17F5D222 		.ascii	"\027\365\322\"bK\025\301\223\020\324\034D\255\250\350"
  57      624B15C1 
  57      9310D41C 
  57      44ADA8E8 
  58 0045 51BC044A 		.ascii	"Q\274\004JAPDo\245\025\343\314\276\276\3276\026\015"
  58      4150446F 
  58      A515E3CC 
  58      BEBED736 
  58      160D
  59 0057 2E6467F7 		.ascii	".dg\367\233\371f\276\235L\"@@\373\032\240\317A\003\340"
  59      9BF966BE 
  59      9D4C2240 
  59      40FB1AA0 
  59      CF4103E0 
  60 006b 34590C01 		.ascii	"4Y\014\001\212\332;\200JD\010\343s\030TT\316\276\000"
ARM GAS  /tmp/cc83RhQM.s 			page 4


  60      8ADA3B80 
  60      4A4408E3 
  60      73185454 
  60      CEBE00
  61 007e 50718986 		.ascii	"Pq\211\206\207\033\210|\000\2041!\015\034;\211\234\304"
  61      871B887C 
  61      00843121 
  61      0D1C3B89 
  61      9CC4
  62 0090 EC8719A5 		.ascii	"\354\207\031\245\2567\227V\336\213\2337\032\023\323"
  62      AE379756 
  62      DE8B9B37 
  62      1A13D3
  63 009f EA67AB85 		.ascii	"\352g\253\205h#\025\314\"X\010'\350\202}\332\010c\263"
  63      682315CC 
  63      22580827 
  63      E8827DDA 
  63      0863B3
  64 00b2 028FAB1E 		.ascii	"\002\217\253\036\315\252.\315\2236J\001\007:\2435>M"
  64      CDAA2ECD 
  64      93364A01 
  64      073AA335 
  64      3E4D
  65 00c4 5ECD5C9E 		.ascii	"^\315\\\236\036\257\251_TQ\027<\364\177\005\217tX\360"
  65      1EAFA95F 
  65      5451173C 
  65      F47F058F 
  65      7458F0
  66 00d7 C7CB6AE6 		.ascii	"\307\313j\346\365\246\202\307\267d:\370\007\265>y-\243"
  66      F5A682C7 
  66      B7643AF8 
  66      07B53E79 
  66      2DA3
  67 00e9 36514FFD 		.ascii	"6QO\375\253\350C\321h\266Zo\352\315\305ULoG\260\321"
  67      ABE843D1 
  67      68B65A6F 
  67      EACDC555 
  67      4C6F47B0 
  68 00fe 90E8201A 		.ascii	"\220\350 \032\264\211\020]\245\311[\230\267\010\325"
  68      B489105D 
  68      A5C95B98 
  68      B708D5
  69 010d 145118C2 		.ascii	"\024Q\030\302\031\354\207\030\331;d\343\354I\360\326"
  69      19EC8718 
  69      D93B64E3 
  69      EC49F0D6 
  70 011d CD5B92E0 		.ascii	"\315[\222\340y\202Sd\357\222M\223\275G\266\207\235\275"
  70      79825364 
  70      EF924D93 
  70      BD47B687 
  70      9DBD
  71 012f 7499A30B 		.ascii	"t\231\243\013\255\020L(U\353\363\202\035\224\300:i\321"
  71      AD104C28 
  71      55EBF382 
  71      1D94C03A 
  71      69D1
  72 0141 5B810760 		.ascii	"[\201\007`\020\005[\371\026\334)w\276\272s\010\037\320"
ARM GAS  /tmp/cc83RhQM.s 			page 5


  72      10055BF9 
  72      16DC2977 
  72      BEBA7308 
  72      1FD0
  73 0153 F4143154 		.ascii	"\364\0241TDYDz\004;\244\217\232\344\340\327\205Z\264"
  73      4459447A 
  73      043BA48F 
  73      9AE4E0D7 
  73      855AB4
  74 0166 92C0DEF1 		.ascii	"\222\300\336\361\271\300\033.r~\"\324\335\274\217E4"
  74      B9C01B2E 
  74      727E22D4 
  74      DDBC8F45 
  74      34
  75 0177 290CB000 		.ascii	")\014\260\000\302\303\350m\004k\352\3022\315\231\037"
  75      C2C3E86D 
  75      046BEAC2 
  75      32CD991F 
  76 0187 19BD0DB7 		.ascii	"\031\275\015\267*J\245\250\237\027aEM\361\311\364\232"
  76      2A4AA5A8 
  76      9F176145 
  76      4DF1C9F4 
  76      9A
  77 0198 CF25CDB5 		.ascii	"\317%\315\265F\022\355[P1F\2646\211q-<\326\206&\310"
  77      4612ED5B 
  77      503146B4 
  77      3689712D 
  77      3CD68626 
  78 01ad C159E4BA 		.ascii	"\301Y\344\272p\267\036x\273\265\366\204N\376\305\335"
  78      70B71E78 
  78      BBB5F684 
  78      4EFEC5DD 
  79 01bd E1C349F2 		.ascii	"\341\303I\362l\020\356\365\220`O\373\343\325\006\372"
  79      6C10EEF5 
  79      90604FFB 
  79      E3D506FA 
  80 01cd 91A9ADB5 		.ascii	"\221\251\255\265\033\177\323\236&\232\326q\311}\032"
  80      1B7FD39E 
  80      269AD671 
  80      C97D1A
  81 01dc 24EAD138 		.ascii	"$\352\3218U}\005\317\227*\211\015pd}\226\006\251\315"
  81      557D05CF 
  81      972A890D 
  81      70647D96 
  81      06A9CD
  82 01ef F473E6EF 		.ascii	"\364s\346\357\354\212\273X\335\345G\365j\311k\255\375"
  82      EC8ABB58 
  82      DDE547F5 
  82      6AC96BAD 
  82      FD
  83 0200 6E7A7027 		.ascii	"nzp']%\252\237\331\320\323\360\201\376!\030\326q\037"
  83      5D25AA9F 
  83      D9D0D3F0 
  83      81FE2118 
  83      D6711F
  84 0213 0139941E 		.ascii	"\0019\224\036#\276>\331F5\344\375gq\236 \344X\376'\332"
  84      23BE3ED9 
ARM GAS  /tmp/cc83RhQM.s 			page 6


  84      4635E4FD 
  84      67719E20 
  84      E458FE27 
  85 0228 9DCDE60E 		.ascii	"\235\315\346\016\017\333y\373\350\261\\y4g\225\035\247"
  85      0FDB79FB 
  85      E8B15C79 
  85      3467951D 
  85      A7
  86 0239 5CA2D359 		.ascii	"\\\242\323Y;\237\033\035\261r\326\260Sp\254\362H!kA"
  86      3B9F1B1D 
  86      B172D6B0 
  86      5370ACF2 
  86      48216B41 
  87 024d 57A970E1 		.ascii	"W\251p\341<]\263{\202\323\336H\241t\206\017\373\374"
  87      3C5DB37B 
  87      82D3DE48 
  87      A174860F 
  87      FBFC
  88 025f C340E0DB 		.ascii	"\303@\340\333\217\347~\003\212l\032\220"
  88      8FE77E03 
  88      8A6C1A90 
  89              		.text
  90              		.section	.gnu.lto_chCoreAllocAligned.d4f614f50829aa81,"",%progbits
  91 0000 789C9D54 		.ascii	"x\234\235T]h\024W\024>\347\316lv7\277kb\012\221\222"
  91      5D681457 
  91      143EE7CE 
  91      6C7637BF 
  91      6B620A91 
  92 0015 6E853E29 		.ascii	"n\205>);\332 }lK^\332\207Pj*X|\220\3118l\006\262\273"
  92      3BDA207D 
  92      6C4B5EDA 
  92      87506A2A 
  92      587C90C9 
  93 002e 61278AB6 		.ascii	"a'\212\266\017\336\335\255\304\264\326\204R\241T\245"
  93      0FDEDDAD 
  93      C4B4D684 
  93      52A154A5 
  94 003e 8A8D26A8 		.ascii	"\212\215&\250\330\246\224j\327\237}\020\177\"FEDD\204"
  94      D8A6946A 
  94      D79F7D10 
  94      7F224645 
  94      444484
  95 0051 05410AAD 		.ascii	"\005A\012\255b\236\014*N\317\235\2733\273\233.n\350"
  95      629E0C2A 
  95      4ECF9DBB 
  95      33BB9B2E 
  95      6EE8
  96 0063 C0DC73EF 		.ascii	"\300\334s\3579\367;\337w\356\3343\014\030,~z\350\215"
  96      39F73BDF 
  96      77EEDC33 
  96      0C182C7E 
  96      7AE88D
  97 0076 0401DA11 		.ascii	"\004\001\332\021\000\003\200lb\016 \023bL\375+\010\274"
  97      0003806C 
  97      620E2013 
  97      624CFD2B 
  97      08BC
ARM GAS  /tmp/cc83RhQM.s 			page 7


  98 0088 5199BA04 		.ascii	"Q\231\272\004\300\233\025T\245_E\024\023@\330\311\024"
  98      C09B1554 
  98      A55F4514 
  98      1340D8C9 
  98      14
  99 0099 15777E8E 		.ascii	"\025w~\216\"Ip%\034\346\374\273\342\344\3213]\374Pv"
  99      22497025 
  99      1CE6FCBB 
  99      E2E4D133 
  99      5DFC5076 
 100 00ad 82BF721C 		.ascii	"\202\277r\034\264\220\350b\010\006\302FZ`\3245L\255"
 100      B490E862 
 100      0806C246 
 100      5A60D435 
 100      4CAD
 101 00bf E697C842 		.ascii	"\346\227\310B~to%Ra\320\263D\344\374\345\361\256\331"
 101      7E746F25 
 101      5261D0B3 
 101      44E4FCE5 
 101      F1AED9
 102 00d2 2AE4BA9A 		.ascii	"*\344\272\232\310\004\376\007z\177tO\327\327e\250\312"
 102      C804FE07 
 102      7A7F744F 
 102      D7D765A8 
 102      CA
 103 00e3 E0FDA591 		.ascii	"\340\375\245\221\362\231)\036>\304_:\216\3422~\264D"
 103      F299291E 
 103      3EC45F3A 
 103      8EE2327E 
 103      B444
 104 00f5 AD7747F7 		.ascii	"\255wG\367-\"\374\364\377\021n\252\007;\305\012E\307"
 104      2D22FCF4 
 104      FF116EAA 
 104      073BC50A 
 104      45C7
 105 0107 3970FBEC 		.ascii	"9p\373\354\303il_\241`\002Q\245\201\005\201hCb\010\213"
 105      C3696C5F 
 105      A1600251 
 105      A5810581 
 105      68436208 
 106 011c A111743C 		.ascii	"\241\021t<\214+\241\211\354I\262\315d\217\223m\021\301"
 106      8C2BA189 
 106      EC49B2CD 
 106      648F936D 
 106      11C1
 107 012e 5631B489 		.ascii	"V1\264\211!B\356#\344^Fv\232l;\331cd;Dp9-&i\321I\213"
 107      2142EE23 
 107      E45E4676 
 107      9A6C3BD9 
 107      63643B44 
 108 014a 005107E0 		.ascii	"\000Q\007\340+\316'\242\245\222\177\237\335S\371a\003"
 108      2BCE27A2 
 108      A5927F9F 
 108      DD53F961 
 108      03
 109 015b 3AFE8CAC 		.ascii	":\376\214\254\216x\020qz>\243Q\334\266\015\204 \253"
 109      8E781071 
ARM GAS  /tmp/cc83RhQM.s 			page 8


 109      7A3EA351 
 109      DCB60D84 
 109      20AB
 110 016d 5C856CC8 		.ascii	"\\\205l\310;\221\342\376\321;]'f8\037+\360\005\007\305"
 110      3B91E2FE 
 110      D13B5D27 
 110      66381F2B 
 110      F00507C5 
 111 0181 B93430D8 		.ascii	"\27140\330\207\365\016F\370\032\2424\231\203\354|~\327"
 111      87F50E46 
 111      F81AA234 
 111      9983EC7C 
 111      7ED7
 112 0193 D11525B9 		.ascii	"\321\025%\271\236\356\302\037{\377\354\310\220\314_"
 112      9EEEC21F 
 112      7BFFECC8 
 112      90CC5F
 113 01a2 A924DFE9 		.ascii	"\251$\337\351\034Xhz\323_\215\315Q\037\351x\212\312"
 113      1C58687A 
 113      D35F8DCD 
 113      511FE978 
 113      8ACA
 114 01b4 355C4251 		.ascii	"5\\BQ\220\002n[ \314\323\224\342\212l\266n\310\262\203"
 114      90026E5B 
 114      20CCD394 
 114      E28A6CB6 
 114      6EC8B283 
 115 01c8 FC870F2C 		.ascii	"\374\207\017,\014V\321\227\343\273J\361\220\024(\213"
 115      0C56D197 
 115      E3BB4AF1 
 115      9014288B 
 116 01d8 949F252E 		.ascii	"\224\237%.\262VV]\370m\366\032\322u\310<u\2346\367\002"
 116      B256565D 
 116      F86DF61A 
 116      D275C83C 
 116      759C36F7 
 117 01ed 7DCBEA55 		.ascii	"}\313\352U\034Gr\\\207\334\356\334\361q\257Z\3719\275"
 117      1C47725C 
 117      87DCEEDC 
 117      F171AF5A 
 117      F939BD
 118 0200 82F8B3EF 		.ascii	"\202\370\263\357\251\340\263\344\221\264\345\342T\231"
 118      A9E0B3E4 
 118      91B4E5E2 
 118      5499
 119 020e 204842AA 		.ascii	" HB\252\322\350x\236\342q\014QLp\202CO\033\210\015\331"
 119      D2E8789E 
 119      E2710C51 
 119      4C708243 
 119      4F1B880D 
 120 0223 69C58B86 		.ascii	"i\305\213\206=L>7\340\371\032]PX\224\305\244\317+\265"
 120      3D4C3E37 
 120      E0F91A5D 
 120      505894C5 
 120      A4CF2BB5 
 121 0237 D1455F5D 		.ascii	"\321E_]x~\223y\233\233\366\303\217\031\316#t\347\277"
 121      787E9379 
ARM GAS  /tmp/cc83RhQM.s 			page 9


 121      9B9BF6C3 
 121      8F19CE23 
 121      74E7BF
 122 024a 84E77CB7 		.ascii	"\204\347|\267\230\205e#\013\326p\251B\202=\361I\233"
 122      98856523 
 122      0BD670A9 
 122      42823DF1 
 122      499B
 123 025c 092685FA 		.ascii	"\011&\205\372\256\026\322A\201E\336V\012\210,jY{.\357"
 123      AE16D241 
 123      8145DE56 
 123      0A882C6A 
 123      597B2EEF 
 124 0270 47DB5CF9 		.ascii	"G\333\\\371\255n\362\277sox\356\010E\252\264\037q\265"
 124      AD6EF2BF 
 124      736F78EE 
 124      0845AAB4 
 124      1F71B5
 125 0283 47A4F6D3 		.ascii	"G\244\366\323/\012\350\355\\V[\273\362:\355\355\004"
 125      2F0AE8ED 
 125      5C565BBB 
 125      F23AEDED 
 125      04
 126 0294 73758CE5 		.ascii	"su\214\345\316\373\211:\\?\261^\201\213\2172-\025\007"
 126      CEFB893A 
 126      5C3FB15E 
 126      818B8F32 
 126      2D1507
 127 02a7 D951FEC8 		.ascii	"\331Q\376\310\033(1\375\252\025\302~\223{8\376\226\267"
 127      1B2831FD 
 127      AA15C27E 
 127      937B38FE 
 127      96B7
 128 02b9 6BB92BB9 		.ascii	"k\271+\271t\264O\033\244{)\247JP/\263\3525_\361\340"
 128      74B44F1B 
 128      A47B29A7 
 128      4A502FB3 
 128      EA355FF1 
 129 02ce 24CA9BA1 		.ascii	"$\312\233\241\343/\356=\251\276\235\324\223\217\027"
 129      E32FEE3D 
 129      A9BE9DD4 
 129      938F17
 130 02dd F7A48E33 		.ascii	"\367\244\2163u\373\335m\012xmO>p{\362RuO\376\324\322"
 130      75FBDD6D 
 130      0A786D4F 
 130      3E707BF2 
 130      52754FFE 
 131 02f3 EDFF6ECA 		.ascii	"\355\377n\312\315y\243\2429\003\362g\322P\243?u<M\023"
 131      CD79A3A2 
 131      3903F267 
 131      D250A33F 
 131      753C4D13 
 132 0307 9FDAEB47 		.ascii	"\237\332\353G\035\363\330-e\335\202Lq\312\224\251\342"
 132      1DF3D82D 
 132      65DD824C 
 132      71CA94A9 
 132      E2
ARM GAS  /tmp/cc83RhQM.s 			page 10


 133 0318 D8295CF7 		.ascii	"\330)\\\367\240S (-\373\347\2348[\345\304\205f\361\243"
 133      A0532028 
 133      2DFBE79C 
 133      385BE5C4 
 133      8566F1A3 
 134 032c 42714622 		.ascii	"BqF\"\301\252XL\353\035\264\006\254O\372\265\224\255"
 134      C1AA584C 
 134      EB1DB406 
 134      AC4FFAB5 
 134      94AD
 135 033e 19A94422 		.ascii	"\031\251D\"\225\244\331\2205\240\331iC3\006\023f\302"
 135      95A4D990 
 135      35A0D969 
 135      43330613 
 135      66C2
 136 0350 48A5CD98 		.ascii	"H\245\315\230\001\252m}a\342p8in\037!ol]\310Ln\021\223"
 136      01AA6D7D 
 136      61E27038 
 136      696E1F21 
 136      6F6C5DC8 
 137 0368 1E6FF2AE 		.ascii	"\036o\362\256\037[\353\317\326h5)\206S\351\021[\373"
 137      1F5BEBCF 
 137      D6683529 
 137      8653E911 
 137      5BFB
 138 037a 707D5F6F 		.ascii	"p}_o\337vb\021\024\233\267\275\227\210\015B`\233>\264"
 138      DF766211 
 138      149BB7BD 
 138      97880D42 
 138      609B3EB4 
 139 038e D5ECA989 		.ascii	"\325\354\251\211\242\234Zo_\377\307\375\232\2254\206"
 139      A29C5A6F 
 139      5FFFC7FD 
 139      9A953486 
 140 039e B66E3135 		.ascii	"\266n15#a[\366\346\270a\020\362\355jLz\244\274k\320"
 140      23615BF6 
 140      E6B86110 
 140      F2ED6A4C 
 140      7AA4BC6B 
 141 03b3 DE61D38E 		.ascii	"\336a\323\216H_\377\372\350\200n\233\303iku\364\235"
 141      485FFFFA 
 141      E8806E9B 
 141      C3696B75 
 141      F49D
 142 03c5 35C0D210 		.ascii	"5\300\322\020$\225\251\364\016\010\350CV<\371/\016\302"
 142      2495A9F4 
 142      0E08E843 
 142      563CF92F 
 142      0EC2
 143 03d7 FC33     		.ascii	"\3743"
 144              		.text
 145              		.section	.gnu.lto_chCoreGetStatusX.d4f614f50829aa81,"",%progbits
 146 0000 789C9D52 		.ascii	"x\234\235R\277K\0031\030\375\276\344\322\037\213\210"
 146      BF4B0331 
 146      18FDBEE4 
 146      D21F8B88 
 147 0010 936EA5AB 		.ascii	"\223n\245\253p\267Y\335\004']\034ZA\307\366<\332\003"
ARM GAS  /tmp/cc83RhQM.s 			page 11


 147      70B759DD 
 147      04275D1C 
 147      5A41C7F6 
 147      3CDA03
 148 0023 EF0E5A07 		.ascii	"\357\016Z\007\301\241\251\355\240[).\352b\221\242\202"
 148      C1A1A9ED 
 148      A05B292E 
 148      EA6291A2 
 148      82
 149 0034 507072B3 		.ascii	"Ppr\263\253C\205N\256u\026\374\003\244p~\211\366\240"
 149      AB43854E 
 149      AE7516FC 
 149      03A4707E 
 149      89F6A0
 150 0047 222A062E 		.ascii	"\"*\006.\357\313\273\274\367\276\2040`\360u\314\321"
 150      EFCBBBBC 
 150      F7BE8430 
 150      60F075CC 
 150      D1
 151 0058 374B7496 		.ascii	"7Kt\226\0209 k>\002\324\022\014Q\025\200PeX\335B\265"
 151      1039206B 
 151      3E02D412 
 151      0C511580 
 151      506558DD 
 152 006e D548435B 		.ascii	"\325HC[\312\326\260\323\035\360\223\343^\343\\\216\302"
 152      CAD6B0D3 
 152      1DF093E3 
 152      5EE35C8E 
 152      C2
 153 007f 10D145B2 		.ascii	"\020\321E\2625\021l\204MZ`J\0033&s\264\266)o\257dR\353"
 153      35116C84 
 153      4D5A604A 
 153      03332673 
 153      B4B6296F 
 154 0097 B88B9C41 		.ascii	"\270\213\234A\346O\262\326\204\214\322\226\377\227\266"
 154      E64FB2D6 
 154      848CD296 
 154      FF97B6
 155 00a6 F69BACCB 		.ascii	"\366\233\254\313z\3030\274y\032=\337\343L\202A\036\333"
 155      7AC330BC 
 155      791A3DDF 
 155      E34C8241 
 155      1EDB
 156 00b8 98064E78 		.ascii	"\230\006NxAh\020v\010\005\341%a\014\3105N\223r\021\320"
 156      41681076 
 156      0805E125 
 156      610CC835 
 156      4E937211 
 157 00cd A0C414A8 		.ascii	"\240\304\024\250\004\0329\232\325\005n S\310\373p\360"
 157      041A399A 
 157      D5056E20 
 157      53C8FB70 
 157      F0
 158 00de 7047F796 		.ascii	"pG\367\226\307k\024PDv\006\2475)\247\3518\373\360&\017"
 158      C76B1450 
 158      447606A7 
 158      3529A7E9 
ARM GAS  /tmp/cc83RhQM.s 			page 12


 158      38FBF026 
 159 00f3 55253C2D 		.ascii	"U%<-U\215\211\317\206H\366\022i8\3114\265:f\214\357"
 159      558D89CF 
 159      8648F612 
 159      6938C934 
 159      B53A668C 
 160 0108 5DF02717 		.ascii	"]\360'\027QT\375\366\241~\024Q1\355-\364\306\327\372"
 160      5154FDF6 
 160      A17E1451 
 160      31ED2DF4 
 160      C6D7FA
 161 011b D4988ED3 		.ascii	"\324\230\216\323\037\200\001`D|\330\345(\200\316\244"
 161      1F800160 
 161      447CD8E5 
 161      2880CEA4 
 162 012b DED2BC69 		.ascii	"\336\322\274iZ+%\267\340\256g\255\240b\331\201\347\005"
 162      5A2B25B7 
 162      E0AE67AD 
 162      A062D981 
 162      E705
 163 013d 3E553B6E 		.ascii	">U;n\301\252\224m\313.y\216g\007e\307\264!\341\370\333"
 163      C1AA946D 
 163      CB2E798E 
 163      670765C7 
 163      B421E1F8 
 164 0152 B43217C6 		.ascii	"\2642\027\306E&\351;{\273\252Z\214\252\245w_\332\224"
 164      4526E93B 
 164      7BBBAA5A 
 164      8CAAA577 
 164      5FDA94
 165 0165 74       		.ascii	"t"
 166              		.text
 167              		.section	.gnu.lto_.symbol_nodes.d4f614f50829aa81,"",%progbits
 168 0000 789C4DCA 		.ascii	"x\234M\312\261\015\2000\020CQ\333\307-\3112nS2\001#"
 168      B10D8030 
 168      104351DB 
 168      C72DC932 
 168      6E533201 
 169 0015 B10A1008 		.ascii	"\261\012\020\0105 !\205\337=\351\013\302\210/\35540"
 169      35202185 
 169      DF3DE90B 
 169      C2882FED 
 169      3430
 170 0027 2D803D17 		.ascii	"-\200=\027\346J\014\216l$\214\334\250W\027\343\221*"
 170      E64A0C8E 
 170      6C248CDC 
 170      A85717E3 
 170      912A
 171 0039 CDBEEAA0 		.ascii	"\315\276\352\240\365\343IG'n\207\005\0325"
 171      F5E34947 
 171      276E8705 
 171      1A35
 172              		.text
 173              		.section	.gnu.lto_.refs.d4f614f50829aa81,"",%progbits
 174 0000 789C25C6 		.ascii	"x\234%\306\301\015\0000\010\303@'\001:G\367_\262\225"
 174      C10D0030 
 174      08C34027 
ARM GAS  /tmp/cc83RhQM.s 			page 13


 174      013A47F7 
 174      5FB295
 175 0013 F0E76CCC 		.ascii	"\360\347l\314e+$[q\245\021\2212\253\017\371\367\000"
 175      652B245B 
 175      71A51191 
 175      32AB0FF9 
 175      F700
 176 0025 0A740064 		.ascii	"\012t\000d"
 177              		.text
 178              		.section	.gnu.lto_.decls.d4f614f50829aa81,"",%progbits
 179 0000 789CB556 		.ascii	"x\234\265V[l\024U\030>g\272\335K\273 \212\022|\0210"
 179      5B6C1455 
 179      183E67BA 
 179      DD4BBB20 
 179      8A127C11 
 180 0015 E203A43B 		.ascii	"\342\003\244;Z*\326\027\2606\004HD\015\015\011ON\246"
 180      5A2AD617 
 180      B0360448 
 180      440D0D09 
 180      4F4EA6
 181 0028 B303BB61 		.ascii	"\263\003\273a/\2703\013\324\027\317\026i\204\020S*$"
 181      2FB8330B 
 181      D417CF16 
 181      69841053 
 181      2A24
 182 003a D844B205 		.ascii	"\330D\262\005\212\220\310E*\206\253YPZ\356Y\2525$&8"
 182      8A90C845 
 182      2A86AB59 
 182      505AEE59 
 182      AA352426 
 183 004f 40B08089 		.ascii	"@\260\200\211)\0021&\304\365?\263gv.\235-\333\007N\362"
 183      29023126 
 183      C4F53FB3 
 183      67762E9D 
 183      2DDB074E 
 184 0064 B767E7FC 		.ascii	"\267g\347\374\377\367\177\377\345\\8\304\241\255\030"
 184      FFF77FFF 
 184      E55C38C4 
 184      A1AD18
 185 0073 A1028C6D 		.ascii	"\241\002\214mA\204\026T!T\215\020\232\207\314\341\001"
 185      41841654 
 185      21548D10 
 185      9A87CCE1 
 185      01
 186 0084 E901D903 		.ascii	"\351\001\331\003\322\007r\224};\011r\026\344\034\310"
 186      D2077294 
 186      7D3B0972 
 186      16E41CC8 
 187 0094 05641F3D 		.ascii	"\005d\037=L\247\037\344\024\310%\220\313l\015[\326\307"
 187      4CA71FE4 
 187      14C82590 
 187      CB6C0D5B 
 187      D6C7
 188 00a6 C2A0FE7C 		.ascii	"\302\240\376|\314~\"\010\320\323\271\315\007\331\307"
 188      CC7E2208 
 188      D0D3B9CD 
 188      07D9C7
ARM GAS  /tmp/cc83RhQM.s 			page 14


 189 00b5 300DBC3D 		.ascii	"0\015\274=l\215\342\035\0029\000r\205\341Z\007\345_"
 189      6C8DE21D 
 189      02390072 
 189      85E15A07 
 189      E55F
 190 00c7 C3EC0DCC 		.ascii	"\303\354\015\314S\026\334k \327A4\013\276\217\331\335"
 190      5316DC6B 
 190      20D74134 
 190      0BBE8FD9 
 190      DD
 191 00d8 04B90D72 		.ascii	"\004\271\015r\207\371\273\017\362\320\022\307\021\220"
 191      87F9BB0F 
 191      F2D012C7 
 191      1190
 192 00e6 EF5D7CD2 		.ascii	"\357]|\322|y\035qx\\b\240z\034\263?\351\300\230\206"
 192      7C791D71 
 192      785C62A0 
 192      7A1CB33F 
 192      E9C09886 
 193 00fa 7690ACA6 		.ascii	"v\220\254\246\335\036>\364\"\311\266\347\012\205\371"
 193      DD1E3EF4 
 193      22C9B6E7 
 193      0A85F9
 194 0109 680ADA46 		.ascii	"h\012\332F`d;\010\301\252\210\347\275\200\226c\021O"
 194      60643B08 
 194      C1AA88E7 
 194      BD809663 
 194      114F
 195 011b 0CA0E9FA 		.ascii	"\014\240\351\372$\030\320\235 $\342\235x\012\233-\253"
 195      2418D09D 
 195      2024E29D 
 195      780A9B2D 
 195      AB
 196 012c 2AC27128 		.ascii	"*\302q(\204\321,\264\017\354;\011\331\371\022r\033\257"
 196      84D12CB4 
 196      0FEC3B09 
 196      D9F91272 
 196      1BAF
 197 013e A25EEA80 		.ascii	"\242^\352\200\354%U:<\005\350\301\323\254*\"\336\205"
 197      EC25553A 
 197      3C05E8C1 
 197      D3AC2A22 
 197      DE85
 198 0150 39274F6D 		.ascii	"9'Om$wl\340\"&]\344q\241\260\336\357$:\277\266,\321"
 198      24776CE0 
 198      22265DE4 
 198      71A1B0DE 
 198      EF243ABF 
 199 0167 AF19D12A 		.ascii	"\257\031\321*=\017(\200>#\244\235\032.:\007\211s\263"
 199      3D0F2880 
 199      3E23A49D 
 199      1A2E3A07 
 199      8973B3
 200 017a 9A897643 		.ascii	"\232\211vC\010\332\226\216_\037\340v\300\027\361>\034"
 200      08DA968E 
 200      5F1FE076 
 200      C017F13E 
ARM GAS  /tmp/cc83RhQM.s 			page 15


 200      1C
 201 018b 00EB1F31 		.ascii	"\000\353\0371\006\274\335xV\211hu\300N\034~\033\012"
 201      06BCDD78 
 201      56896875 
 201      C04E1C7E 
 201      1B0A
 202 019d 144F5F66 		.ascii	"\024O_f\023\272\031\236)\2610L\315\354\351\011\274\340"
 202      13BA199E 
 202      29B1304C 
 202      CDECE909 
 202      BCE0
 203 01af F0F00ADA 		.ascii	"\360\360\012\332EH\227\266\341\237\274\347K\222\363"
 203      454897B6 
 203      E19FBCE7 
 203      4B92F3
 204 01be 1844AEEB 		.ascii	"\030D\256\353j{ mn\364\213Z\314\226\374,/\322\235q\350"
 204      6A7B206D 
 204      6EF48B5A 
 204      CC96FC2C 
 204      2FD29D71 
 205 01d3 D613AC8A 		.ascii	"\326\023\254\212\214\364\002\265\223\203\035\033&y\364"
 205      8CF402B5 
 205      93831D1B 
 205      2679F4
 206 01e2 BCA2318C 		.ascii	"\274\2421\214X\330\373]\353u\370B\2603\243\025\012\323"
 206      58D8FB5D 
 206      EB75F842 
 206      B033A315 
 206      0AD3
 207 01f4 8A35E0D0 		.ascii	"\2125\340\320]\327\350\310\027\224!\245,\342\203\000"
 207      5DD7E8C8 
 207      179421A5 
 207      2CE28300 
 208 0204 24E2BE8A 		.ascii	"$\342\276\212\002\273\312\002\023\361\267O\260\032#"
 208      02BBCA02 
 208      13F1B74F 
 208      B01A23
 209 0213 B072462C 		.ascii	"\260rF,\260\357F\007\226\325r\2176m66\214\337\321\207"
 209      B0EF4607 
 209      96D5728F 
 209      366D3636 
 209      8CDFD187 
 210 0227 9460B946 		.ascii	"\224`\271F<\346\262c\036;RR\242yx/\011\260xA\341\350"
 210      3CE6B263 
 210      1E3B5252 
 210      A279782F 
 210      09B07841 
 211 023d D8348FDB 		.ascii	"\3304\217\333i\276\214z\010\031\314\025z\317\323\375"
 211      69BE8C7A 
 211      0819CC15 
 211      7ACFD3FD 
 212 024d 4246A0F1 		.ascii	"BF\240\361j\321&\263\353\331\026\320z\311\324\355\346"
 212      6AD126B3 
 212      EBD916D0 
 212      7AC9D4ED 
 212      E6
 213 025e 16F01BC0 		.ascii	"\026\360\033\300\330\334\002'\272\366\317&\304/\342"
ARM GAS  /tmp/cc83RhQM.s 			page 16


 213      D8DC0227 
 213      BAF6CF26 
 213      C42FE2
 214 026d 1FF4BECB 		.ascii	"\037\364\276\313T\331\331V\016\324\327\275\243Q\007"
 214      54D9D956 
 214      0ED4D7BD 
 214      A35107
 215 027c 3AAD037D 		.ascii	":\255\003}\356q\356$\354\330I\330\276\223p\300\234\024"
 215      EE71EE24 
 215      ECD849D8 
 215      BE9370C0 
 215      9C14
 216 028e 301A976E 		.ascii	"0\032\227n\271z\234\302\265\006\006\207\266\227\030"
 216      B97A9CC2 
 216      B5060687 
 216      B69718
 217 029d 9553FFC9 		.ascii	"\225S\377\311L2M\260\326\251\365\336\313s\031r&C\350"
 217      4C324DB0 
 217      D6A9F5DE 
 217      CB731972 
 217      2643E8
 218 02b0 9984F1B3 		.ascii	"\231\204\361\263\250\223\266\302\364\355\023\213\371"
 218      A893B6C2 
 218      F4ED138B 
 218      F9
 219 02bd 3209F6C3 		.ascii	"2\011\366\303\232ep(\353\261\306 \342\001;6\024oK\377"
 219      9A657028 
 219      EBB1C620 
 219      E2013B36 
 219      146F4BFF 
 220 02d1 56DA6384 		.ascii	"V\332c\204\374\007\320E\256\034:\360D\222\347\235$s"
 220      FC07D045 
 220      AE1C3AF0 
 220      4492E79D 
 220      2473
 221 02e3 431DDB30 		.ascii	"C\035\3330\271A\014 J\205CG\034\376/\232f\266N):.\347"
 221      B9410C20 
 221      4A854347 
 221      1CFE2F9A 
 221      66B64E29 
 222 02fa EC929940 		.ascii	"\354\222\231@\207\025\365R\316\352\262iE)\346\363\271"
 222      8715F552 
 222      CEEAB269 
 222      4529E6F3 
 222      B9
 223 030b AB031B09 		.ascii	"\253\003\033\011&\035$C;\325\314b\251\273rcw\027\275"
 223      261D2443 
 223      3BD5CC62 
 223      A9BB7263 
 223      7717BD
 224 031e 6D384B2B 		.ascii	"m8K+Nu\327\025\361U<\023\376\016\262\322\320\245\301"
 224      4E75D715 
 224      F1553C13 
 224      FE0EB2D2 
 224      D0A5C1
 225 0331 52AF0CB2 		.ascii	"R\257\014\262f\341\320\031\217\275\277,i\032\333\224"
 225      66E1D019 
ARM GAS  /tmp/cc83RhQM.s 			page 17


 225      8FBDBF2C 
 225      691ADB94 
 226 0341 39CD62C3 		.ascii	"9\315b\303\353\363\272\262\265-\006\315\343\301\251"
 226      EBF3BAB2 
 226      B52D06CD 
 226      E3C1A9
 227 0350 26E25F58 		.ascii	"&\342_X\227\350\241\220R.\203\345O\224!\013\237`\300"
 227      97E8A190 
 227      522E83E5 
 227      4F94210B 
 227      9F60C0
 228 0363 9C4CB6B1 		.ascii	"\234L\266\2616\264 \266\001\217\343\012p\262\340P\236"
 228      36B420B6 
 228      018FE30A 
 228      70B2E050 
 228      9E
 229 0374 852FE21A 		.ascii	"\205/\342\032<\236\333\362D\327\331\323\354\266\274"
 229      3C9EDBF2 
 229      44D7D9D3 
 229      ECB6BC
 230 0383 56BCA43C 		.ascii	"V\274\244<\256\207E\005P}\335'\337\322\017\213\337t"
 230      AE874505 
 230      507DDD27 
 230      DFD20F8B 
 230      DF74
 231 0395 A0E15187 		.ascii	"\240\341Q\207\205\317qX\370\354\007\200/`N\330\265;"
 231      85CF7158 
 231      F8EC0780 
 231      2F604ED8 
 231      B53B
 232 03a7 4E7556B3 		.ascii	"NuV\263\354\333\216\242M2\330r\014\352\372\270k\366"
 232      ECDB8EA2 
 232      4D32D872 
 232      0CEAFAB8 
 232      6BF6
 233 03b9 7B999A19 		.ascii	"{\231\232\031MW\246]\032\015=\037\303\321\306\355\371"
 233      4D57A65D 
 233      1A0D3D1F 
 233      C3D1C6ED 
 233      F9
 234 03ca 4619CF5E 		.ascii	"F\031\317^\346\231\336n\271\021mhx\344\303o\016\023"
 234      E699DE6E 
 234      B9116D68 
 234      78E4C36F 
 234      0E13
 235 03dc B2114E8C 		.ascii	"\262\021N\214O2\237\342\342S\017^\364\325\256W\225\343"
 235      4F329FE2 
 235      E2530F5E 
 235      F4D5AE57 
 235      95E3
 236 03ee 2D77D3F9 		.ascii	"-w\323\371\226\2735\372\012\005'\217\357\345\273\361"
 236      96BB35FA 
 236      0A05278F 
 236      EFE5BBF1 
 237 03fe 96F5E49C 		.ascii	"\226\365\344\234~;e\375\206\223+\0259\271\355t\362\207"
 237      7E3B65FD 
 237      86932B15 
ARM GAS  /tmp/cc83RhQM.s 			page 18


 237      39B9ED74 
 237      F287
 238 0410 AB93FB7F 		.ascii	"\253\223\373\177\215,\372\327\214dF\345\217\333\273"
 238      8D2CFAD7 
 238      8C6446E5 
 238      8FDBBB
 239 041f F63763B1 		.ascii	"\3667c\261\245\035o\265\315^+U]\223C\335^VG\343\221"
 239      A51D6FB5 
 239      CD5E2B55 
 239      5D9343DD 
 239      5E5647E3 
 240 0434 D21FEC2C 		.ascii	"\322\037\354,\355\210\275\272\305\235\262\357\224k\330"
 240      ED88BDBA 
 240      C59DB2EF 
 240      946BD8
 241 0443 7CA810F2 		.ascii	"|\250\020\362 \363\301\324R\304w\234\021\377\351\032"
 241      20F3C1D4 
 241      52C4779C 
 241      11FFE91A 
 242 0453 F1D0703E 		.ascii	"\361\320p>\342V\273\003\336J\322z\337\351\344\357r\265"
 242      E256BB03 
 242      DE4AD27A 
 242      DFE9E4EF 
 242      72B5
 243 0465 FBCAAD76 		.ascii	"\373\312\255v\307+r\362\320\351\344\221\335\011\232"
 243      C72B72F2 
 243      D0E9E491 
 243      DD099A
 244 0474 1D0AF1CD 		.ascii	"\035\012\361\315\221hk\364\375\026>\251\360R2\036O&"
 244      91686BF4 
 244      FD163EA9 
 244      F052321E 
 244      4F26
 245 0486 60168BB6 		.ascii	"`\026\213\266\362JJ\342\245H\\\216K\311\224\034\222"
 245      F24A4AE2 
 245      A5485C8E 
 245      4BC9941C 
 245      92
 246 0497 508D4027 		.ascii	"P\215@'B4\021U\275\013\337[6\275\031e0\237X\241Py\203"
 246      42341155 
 246      BD0BDF5B 
 246      36BD1965 
 246      309F58A1 
 247 04ae 8F24E332 		.ascii	"\217$\3432\237\222\025YLI\021>\"\246\302k\305\224\314"
 247      9F921559 
 247      4C49113E 
 247      22A6C26B 
 247      C594CC
 248 04c1 8BA9783D 		.ascii	"\213\251x=\277R\222\352`R'\307[\345pX\016\227>$\222"
 248      BF5292EA 
 248      605227C7 
 248      5BE57058 
 248      0E973E24 
 249 04d6 09B94E16 		.ascii	"\011\271N\026[\243u\015Bc]\375k\2577|T\317S\337\240"
 249      5BA3750D 
 249      42635DFD 
 249      6BAF377C 
ARM GAS  /tmp/cc83RhQM.s 			page 19


 249      54CF53DF 
 250 04eb C0DB14F8 		.ascii	"\300\333\024\370\206Pc\250\201\217&\244X:,\363\212\012"
 250      865063A8 
 250      818F26A4 
 250      583A2CF3 
 250      8A0A
 251 04fd 382B4211 		.ascii	"8+B\021\344U\242\037\313\202:Y\2124\003\271\246X,)5"
 251      E455A21F 
 251      CB823A59 
 251      8A3403B9 
 251      A6582C29 
 252 0512 C5A22B13 		.ascii	"\305\242+\023rx\261\207.U\213\364\327s\243\227'\025"
 252      7278B187 
 252      2E558BF4 
 252      D773A397 
 252      2715
 253 0524 3F2D94D5 		.ascii	"?-\224\325\026UT\323\312r\345i\304b\217\301\302>\232"
 253      165554D3 
 253      CA72E569 
 253      C4628FC1 
 253      C23E9A
 254 0537 5081BD2F 		.ascii	"P\201\275/\015\377\033\005u\375SI\244\273\363\270(E"
 254      0DFF1B05 
 254      75FD5349 
 254      A4BBF3B8 
 254      2845
 255 0549 A2099917 		.ascii	"\242\011\231\027 \201b:\246\012j\333jY\0012\001A`t|"
 255      2081623A 
 255      A60A6ADB 
 255      6A590132 
 255      01416074 
 256 055e 09799D0A 		.ascii	"\011y\235\012\205\237 \010\021Y\\-\264\212\212,\010"
 256      859F2008 
 256      11595C2D 
 256      B48A8A2C 
 256      08
 257 056f 5E391186 		.ascii	"^9\021\206\217A\366\021~\011\202G\002\202~AX\221NH\202"
 257      8F41F611 
 257      7E098247 
 257      02827E41 
 257      58914E48 
 258 0584 30C19884 		.ascii	"0\301\230\204\346\316i\234\353\247hs\352\005\265\246"
 258      E6CE699C 
 258      EBA76873 
 258      EA05B5A6 
 259 0594 084CA733 		.ascii	"\010L\2473\354\375\226RK\264\244\210\322\246\263\220"
 259      ECFD9652 
 259      4BB4A488 
 259      D2A6B390 
 260 05a4 222D6DCA 		.ascii	"\"-m\312\273Ii\025\357\332\233\253\223)U\341\233\226"
 260      BB496915 
 260      EFDA9BAB 
 260      932955E1 
 260      9B96
 261 05b6 2E695EB2 		.ascii	".i^\262\016\214\364\226\\\363f\234Z\322%\001*\274j\216"
 261      0E8CF496 
 261      5CF3669C 
ARM GAS  /tmp/cc83RhQM.s 			page 20


 261      5AD22501 
 261      2ABC6A8E 
 262 05ca AB25C4C4 		.ascii	"\253%\304\3047/iY\334b\372\214+QE\200\034\2025pWdUx"
 262      372F6959 
 262      DC62FA8C 
 262      2B514580 
 262      1C823570 
 263 05e2 A7A965C1 		.ascii	"\247\251e\301\007K\027O\020ck\3056\005\232=\006\271"
 263      074B174F 
 263      10636BC5 
 263      36059A3D 
 263      06B9
 264 05f4 AA5E23C6 		.ascii	"\252^#\306\322r\255\316lY\202z\250\325}\245\365\371"
 264      D272ADCE 
 264      6C59827A 
 264      A8D57DA5 
 264      F5F9
 265 0606 FFDFE5C6 		.ascii	"\377\337\345\306\352"
 265      EA
 266              		.text
 267              		.section	.gnu.lto_.symtab.d4f614f50829aa81,"",%progbits
 268 0000 5F636F72 		.ascii	"_core_init\000\000\000\000\000\000\000\000\000\000\000"
 268      655F696E 
 268      69740000 
 268      00000000 
 268      00000000 
 269 0015 00A10000 		.ascii	"\000\241\000\000\000chCoreAllocAlignedI\000\000\000"
 269      00636843 
 269      6F726541 
 269      6C6C6F63 
 269      416C6967 
 270 0030 00000000 		.ascii	"\000\000\000\000\000\000\000\000\000\246\000\000\000"
 270      00000000 
 270      00A60000 
 270      00
 271 003d 6368436F 		.ascii	"chCoreAllocAligned\000\000\000\000\000\000\000\000\000"
 271      7265416C 
 271      6C6F6341 
 271      6C69676E 
 271      65640000 
 272 0058 000000B3 		.ascii	"\000\000\000\263\000\000\000chCoreGetStatusX\000\000"
 272      00000063 
 272      68436F72 
 272      65476574 
 272      53746174 
 273 0071 00000000 		.ascii	"\000\000\000\000\000\000\000\000\000\000\270\000\000"
 273      00000000 
 273      0000B800 
 273      00
 274 007e 005F5F68 		.ascii	"\000__heap_base__\000\000\002\000\000\000\000\000\000"
 274      6561705F 
 274      62617365 
 274      5F5F0000 
 274      02000000 
 275 0095 000000C5 		.ascii	"\000\000\000\305\000\000\000__heap_end__\000\000\002"
 275      0000005F 
 275      5F686561 
ARM GAS  /tmp/cc83RhQM.s 			page 21


 275      705F656E 
 275      645F5F00 
 276 00ab 00000000 		.ascii	"\000\000\000\000\000\000\000\000\000\312\000\000\000"
 276      00000000 
 276      00CA0000 
 276      00
 277              		.text
 278              		.section	.gnu.lto_.opts,"",%progbits
 279 0000 272D6D63 		.ascii	"'-mcpu=cortex-m4' '-mno-thumb-interwork' '-mthumb' "
 279      70753D63 
 279      6F727465 
 279      782D6D34 
 279      2720272D 
 280 0033 272D6767 		.ascii	"'-ggdb' '-O2' '-fomit-frame-pointer' '-falign-funct"
 280      64622720 
 280      272D4F32 
 280      2720272D 
 280      666F6D69 
 281 0066 696F6E73 		.ascii	"ions=16' '-ffunction-sections' '-fdata-sections' '-"
 281      3D313627 
 281      20272D66 
 281      66756E63 
 281      74696F6E 
 282 0099 666E6F2D 		.ascii	"fno-common' '-flto'\000"
 282      636F6D6D 
 282      6F6E2720 
 282      272D666C 
 282      746F2700 
 283              		.text
 284              		.cfi_sections	.debug_frame
 285              		.section	.text._core_init,"ax",%progbits
 286              		.align	2
 287              		.p2align 4,,15
 288              		.global	_core_init
 289              		.thumb
 290              		.thumb_func
 291              		.type	_core_init, %function
 292              	_core_init:
 293              	.LFB239:
 294              		.file 1 "../ChibiOS/os/common/oslib/src/chmemcore.c"
 295              		.loc 1 79 0
 296              		.cfi_startproc
 297              		@ args = 0, pretend = 0, frame = 0
 298              		@ frame_needed = 0, uses_anonymous_args = 0
 299              		@ link register save eliminated.
 300              		.loc 1 85 0
 301 0000 0349     		ldr	r1, .L2
 302              		.loc 1 86 0
 303 0002 044B     		ldr	r3, .L2+4
 304              		.loc 1 85 0
 305 0004 0448     		ldr	r0, .L2+8
 306              		.loc 1 86 0
 307 0006 054A     		ldr	r2, .L2+12
 308              		.loc 1 85 0
 309 0008 0860     		str	r0, [r1]
 310              		.loc 1 86 0
 311 000a 1A60     		str	r2, [r3]
ARM GAS  /tmp/cc83RhQM.s 			page 22


 312 000c 7047     		bx	lr
 313              	.L3:
 314 000e 00BF     		.align	2
 315              	.L2:
 316 0010 00000000 		.word	.LANCHOR0
 317 0014 00000000 		.word	.LANCHOR1
 318 0018 00000000 		.word	__heap_base__
 319 001c 00000000 		.word	__heap_end__
 320              		.cfi_endproc
 321              	.LFE239:
 322              		.size	_core_init, .-_core_init
 323              		.section	.text.chCoreAllocAlignedI,"ax",%progbits
 324              		.align	2
 325              		.p2align 4,,15
 326              		.global	chCoreAllocAlignedI
 327              		.thumb
 328              		.thumb_func
 329              		.type	chCoreAllocAlignedI, %function
 330              	chCoreAllocAlignedI:
 331              	.LFB240:
 332              		.loc 1 108 0
 333              		.cfi_startproc
 334              		@ args = 0, pretend = 0, frame = 0
 335              		@ frame_needed = 0, uses_anonymous_args = 0
 336              		@ link register save eliminated.
 337              	.LVL0:
 338              		.loc 1 115 0
 339 0000 094A     		ldr	r2, .L7
 340 0002 1368     		ldr	r3, [r2]
 341              		.loc 1 108 0
 342 0004 30B4     		push	{r4, r5}
 343              		.cfi_def_cfa_offset 8
 344              		.cfi_offset 4, -8
 345              		.cfi_offset 5, -4
 346              		.loc 1 117 0
 347 0006 094C     		ldr	r4, .L7+4
 348              		.loc 1 115 0
 349 0008 013B     		subs	r3, r3, #1
 350              		.loc 1 114 0
 351 000a 451E     		subs	r5, r0, #1
 352              		.loc 1 117 0
 353 000c 2468     		ldr	r4, [r4]
 354              		.loc 1 115 0
 355 000e 5818     		adds	r0, r3, r1
 356              	.LVL1:
 357              		.loc 1 114 0
 358 0010 4B42     		negs	r3, r1
 359              		.loc 1 115 0
 360 0012 1840     		ands	r0, r0, r3
 361              		.loc 1 114 0
 362 0014 2944     		add	r1, r1, r5
 363              	.LVL2:
 364 0016 0B40     		ands	r3, r3, r1
 365              	.LVL3:
 366              		.loc 1 117 0
 367 0018 241A     		subs	r4, r4, r0
 368 001a A342     		cmp	r3, r4
ARM GAS  /tmp/cc83RhQM.s 			page 23


 369              		.loc 1 120 0
 370 001c 96BF     		itet	ls
 371 001e 1B18     		addls	r3, r3, r0
 372              	.LVL4:
 373              		.loc 1 118 0
 374 0020 0020     		movhi	r0, #0
 375              	.LVL5:
 376              		.loc 1 120 0
 377 0022 1360     		strls	r3, [r2]
 378              		.loc 1 123 0
 379 0024 30BC     		pop	{r4, r5}
 380 0026 7047     		bx	lr
 381              	.L8:
 382              		.align	2
 383              	.L7:
 384 0028 00000000 		.word	.LANCHOR0
 385 002c 00000000 		.word	.LANCHOR1
 386              		.cfi_endproc
 387              	.LFE240:
 388              		.size	chCoreAllocAlignedI, .-chCoreAllocAlignedI
 389              		.section	.text.chCoreAllocAligned,"ax",%progbits
 390              		.align	2
 391              		.p2align 4,,15
 392              		.global	chCoreAllocAligned
 393              		.thumb
 394              		.thumb_func
 395              		.type	chCoreAllocAligned, %function
 396              	chCoreAllocAligned:
 397              	.LFB241:
 398              		.loc 1 137 0
 399              		.cfi_startproc
 400              		@ args = 0, pretend = 0, frame = 0
 401              		@ frame_needed = 0, uses_anonymous_args = 0
 402              		@ link register save eliminated.
 403              	.LVL6:
 404 0000 30B4     		push	{r4, r5}
 405              		.cfi_def_cfa_offset 8
 406              		.cfi_offset 4, -8
 407              		.cfi_offset 5, -4
 408              	.LBB26:
 409              	.LBB27:
 410              	.LBB28:
 411              	.LBB29:
 412              		.file 2 "../ChibiOS/os/common/ext/CMSIS/include/cmsis_gcc.h"
 413              		.loc 2 264 0
 414 0002 2023     		movs	r3, #32
 415              	@ 264 "../ChibiOS/os/common/ext/CMSIS/include/cmsis_gcc.h" 1
 416 0004 83F31188 		MSR basepri, r3
 417              	@ 0 "" 2
 418              	.LVL7:
 419              		.thumb
 420              	.LBE29:
 421              	.LBE28:
 422              	.LBE27:
 423              	.LBE26:
 424              	.LBB30:
 425              	.LBB31:
ARM GAS  /tmp/cc83RhQM.s 			page 24


 426              		.loc 1 115 0
 427 0008 0B4B     		ldr	r3, .L12
 428              		.loc 1 117 0
 429 000a 0C4C     		ldr	r4, .L12+4
 430              		.loc 1 115 0
 431 000c 1A68     		ldr	r2, [r3]
 432              		.loc 1 117 0
 433 000e 2468     		ldr	r4, [r4]
 434              		.loc 1 115 0
 435 0010 013A     		subs	r2, r2, #1
 436 0012 0A44     		add	r2, r2, r1
 437              		.loc 1 114 0
 438 0014 4D1E     		subs	r5, r1, #1
 439 0016 4942     		negs	r1, r1
 440              	.LVL8:
 441 0018 0544     		add	r5, r5, r0
 442              		.loc 1 115 0
 443 001a 02EA0100 		and	r0, r2, r1
 444              	.LVL9:
 445              		.loc 1 117 0
 446 001e 221A     		subs	r2, r4, r0
 447              		.loc 1 114 0
 448 0020 2940     		ands	r1, r1, r5
 449              	.LVL10:
 450              		.loc 1 117 0
 451 0022 9142     		cmp	r1, r2
 452              		.loc 1 120 0
 453 0024 9ABF     		itte	ls
 454 0026 0918     		addls	r1, r1, r0
 455              	.LVL11:
 456 0028 1960     		strls	r1, [r3]
 457              		.loc 1 118 0
 458 002a 0020     		movhi	r0, #0
 459              	.LVL12:
 460              	.LBE31:
 461              	.LBE30:
 462              	.LBB32:
 463              	.LBB33:
 464              	.LBB34:
 465              	.LBB35:
 466              	.LBB36:
 467              		.loc 2 264 0
 468 002c 0023     		movs	r3, #0
 469              	@ 264 "../ChibiOS/os/common/ext/CMSIS/include/cmsis_gcc.h" 1
 470 002e 83F31188 		MSR basepri, r3
 471              	@ 0 "" 2
 472              		.thumb
 473              	.LBE36:
 474              	.LBE35:
 475              	.LBE34:
 476              	.LBE33:
 477              	.LBE32:
 478              		.loc 1 145 0
 479 0032 30BC     		pop	{r4, r5}
 480              	.LVL13:
 481 0034 7047     		bx	lr
 482              	.L13:
ARM GAS  /tmp/cc83RhQM.s 			page 25


 483 0036 00BF     		.align	2
 484              	.L12:
 485 0038 00000000 		.word	.LANCHOR0
 486 003c 00000000 		.word	.LANCHOR1
 487              		.cfi_endproc
 488              	.LFE241:
 489              		.size	chCoreAllocAligned, .-chCoreAllocAligned
 490              		.section	.text.chCoreGetStatusX,"ax",%progbits
 491              		.align	2
 492              		.p2align 4,,15
 493              		.global	chCoreGetStatusX
 494              		.thumb
 495              		.thumb_func
 496              		.type	chCoreGetStatusX, %function
 497              	chCoreGetStatusX:
 498              	.LFB242:
 499              		.loc 1 154 0
 500              		.cfi_startproc
 501              		@ args = 0, pretend = 0, frame = 0
 502              		@ frame_needed = 0, uses_anonymous_args = 0
 503              		@ link register save eliminated.
 504              		.loc 1 157 0
 505 0000 024A     		ldr	r2, .L15
 506 0002 034B     		ldr	r3, .L15+4
 507 0004 1068     		ldr	r0, [r2]
 508 0006 1B68     		ldr	r3, [r3]
 509              		.loc 1 159 0
 510 0008 C01A     		subs	r0, r0, r3
 511 000a 7047     		bx	lr
 512              	.L16:
 513              		.align	2
 514              	.L15:
 515 000c 00000000 		.word	.LANCHOR1
 516 0010 00000000 		.word	.LANCHOR0
 517              		.cfi_endproc
 518              	.LFE242:
 519              		.size	chCoreGetStatusX, .-chCoreGetStatusX
 520 0014 AFF30080 		.section	.bss.endmem,"aw",%nobits
 520      AFF30080 
 520      AFF30080 
 521              		.align	2
 522              		.set	.LANCHOR1,. + 0
 523              		.type	endmem, %object
 524              		.size	endmem, 4
 525              	endmem:
 526 0000 00000000 		.space	4
 527              		.section	.bss.nextmem,"aw",%nobits
 528              		.align	2
 529              		.set	.LANCHOR0,. + 0
 530              		.type	nextmem, %object
 531              		.size	nextmem, 4
 532              	nextmem:
 533 0000 00000000 		.space	4
 534              		.text
 535              	.Letext0:
 536              		.file 3 "/nfs/nfs5/home/research/hardware/arm2/gcc-arm-embedded/gcc-arm-none-eabi-4_8-2014q2/lib/g
 537              		.file 4 "/nfs/nfs5/home/research/hardware/arm2/gcc-arm-embedded/gcc-arm-none-eabi-4_8-2014q2/arm-n
ARM GAS  /tmp/cc83RhQM.s 			page 26


 538              		.file 5 "/nfs/nfs5/home/research/hardware/arm2/gcc-arm-embedded/gcc-arm-none-eabi-4_8-2014q2/arm-n
 539              		.file 6 "../ChibiOS/os/common/ports/ARMCMx/compilers/GCC/chtypes.h"
 540              		.file 7 "../ChibiOS/os/rt/include/chsystypes.h"
 541              		.file 8 "../ChibiOS/os/rt/include/chschd.h"
 542              		.file 9 "../ChibiOS/os/common/ports/ARMCMx/chcore.h"
 543              		.file 10 "../ChibiOS/os/common/ports/ARMCMx/chcore_v7m.h"
 544              		.file 11 "../ChibiOS/os/rt/include/chtm.h"
 545              		.file 12 "../ChibiOS/os/rt/include/chsem.h"
 546              		.file 13 "../ChibiOS/os/rt/include/chmtx.h"
 547              		.file 14 "../ChibiOS/os/rt/include/chsys.h"
 548              		.file 15 "../ChibiOS/os/common/ext/CMSIS/include/core_cm4.h"
 549              		.section	.debug_info,"",%progbits
 550              	.Ldebug_info0:
 551 0000 90080000 		.4byte	0x890
 552 0004 0400     		.2byte	0x4
 553 0006 00000000 		.4byte	.Ldebug_abbrev0
 554 000a 04       		.byte	0x4
 555 000b 01       		.uleb128 0x1
 556 000c 5E030000 		.4byte	.LASF106
 557 0010 01       		.byte	0x1
 558 0011 39050000 		.4byte	.LASF107
 559 0015 16020000 		.4byte	.LASF108
 560 0019 00000000 		.4byte	.Ldebug_ranges0+0
 561 001d 00000000 		.4byte	0
 562 0021 00000000 		.4byte	.Ldebug_line0
 563 0025 02       		.uleb128 0x2
 564 0026 04       		.byte	0x4
 565 0027 05       		.byte	0x5
 566 0028 696E7400 		.ascii	"int\000"
 567 002c 03       		.uleb128 0x3
 568 002d DF010000 		.4byte	.LASF2
 569 0031 03       		.byte	0x3
 570 0032 D4       		.byte	0xd4
 571 0033 37000000 		.4byte	0x37
 572 0037 04       		.uleb128 0x4
 573 0038 04       		.byte	0x4
 574 0039 07       		.byte	0x7
 575 003a 67000000 		.4byte	.LASF0
 576 003e 04       		.uleb128 0x4
 577 003f 01       		.byte	0x1
 578 0040 06       		.byte	0x6
 579 0041 EE040000 		.4byte	.LASF1
 580 0045 03       		.uleb128 0x3
 581 0046 4F030000 		.4byte	.LASF3
 582 004a 04       		.byte	0x4
 583 004b 1C       		.byte	0x1c
 584 004c 50000000 		.4byte	0x50
 585 0050 04       		.uleb128 0x4
 586 0051 01       		.byte	0x1
 587 0052 08       		.byte	0x8
 588 0053 91040000 		.4byte	.LASF4
 589 0057 04       		.uleb128 0x4
 590 0058 02       		.byte	0x2
 591 0059 05       		.byte	0x5
 592 005a F3020000 		.4byte	.LASF5
 593 005e 04       		.uleb128 0x4
 594 005f 02       		.byte	0x2
ARM GAS  /tmp/cc83RhQM.s 			page 27


 595 0060 07       		.byte	0x7
 596 0061 00050000 		.4byte	.LASF6
 597 0065 03       		.uleb128 0x3
 598 0066 88000000 		.4byte	.LASF7
 599 006a 04       		.byte	0x4
 600 006b 37       		.byte	0x37
 601 006c 70000000 		.4byte	0x70
 602 0070 04       		.uleb128 0x4
 603 0071 04       		.byte	0x4
 604 0072 05       		.byte	0x5
 605 0073 FD020000 		.4byte	.LASF8
 606 0077 03       		.uleb128 0x3
 607 0078 9F040000 		.4byte	.LASF9
 608 007c 04       		.byte	0x4
 609 007d 38       		.byte	0x38
 610 007e 82000000 		.4byte	0x82
 611 0082 04       		.uleb128 0x4
 612 0083 04       		.byte	0x4
 613 0084 07       		.byte	0x7
 614 0085 4F040000 		.4byte	.LASF10
 615 0089 04       		.uleb128 0x4
 616 008a 08       		.byte	0x8
 617 008b 05       		.byte	0x5
 618 008c A5020000 		.4byte	.LASF11
 619 0090 03       		.uleb128 0x3
 620 0091 0B020000 		.4byte	.LASF12
 621 0095 04       		.byte	0x4
 622 0096 4E       		.byte	0x4e
 623 0097 9B000000 		.4byte	0x9b
 624 009b 04       		.uleb128 0x4
 625 009c 08       		.byte	0x8
 626 009d 07       		.byte	0x7
 627 009e 59010000 		.4byte	.LASF13
 628 00a2 03       		.uleb128 0x3
 629 00a3 7B020000 		.4byte	.LASF14
 630 00a7 05       		.byte	0x5
 631 00a8 2A       		.byte	0x2a
 632 00a9 45000000 		.4byte	0x45
 633 00ad 03       		.uleb128 0x3
 634 00ae 74040000 		.4byte	.LASF15
 635 00b2 05       		.byte	0x5
 636 00b3 41       		.byte	0x41
 637 00b4 65000000 		.4byte	0x65
 638 00b8 03       		.uleb128 0x3
 639 00b9 16010000 		.4byte	.LASF16
 640 00bd 05       		.byte	0x5
 641 00be 42       		.byte	0x42
 642 00bf 77000000 		.4byte	0x77
 643 00c3 03       		.uleb128 0x3
 644 00c4 40030000 		.4byte	.LASF17
 645 00c8 05       		.byte	0x5
 646 00c9 4E       		.byte	0x4e
 647 00ca 90000000 		.4byte	0x90
 648 00ce 03       		.uleb128 0x3
 649 00cf EB020000 		.4byte	.LASF18
 650 00d3 06       		.byte	0x6
 651 00d4 39       		.byte	0x39
ARM GAS  /tmp/cc83RhQM.s 			page 28


 652 00d5 B8000000 		.4byte	0xb8
 653 00d9 03       		.uleb128 0x3
 654 00da D8020000 		.4byte	.LASF19
 655 00de 06       		.byte	0x6
 656 00df 3C       		.byte	0x3c
 657 00e0 A2000000 		.4byte	0xa2
 658 00e4 03       		.uleb128 0x3
 659 00e5 72020000 		.4byte	.LASF20
 660 00e9 06       		.byte	0x6
 661 00ea 3D       		.byte	0x3d
 662 00eb A2000000 		.4byte	0xa2
 663 00ef 03       		.uleb128 0x3
 664 00f0 47040000 		.4byte	.LASF21
 665 00f4 06       		.byte	0x6
 666 00f5 3E       		.byte	0x3e
 667 00f6 A2000000 		.4byte	0xa2
 668 00fa 03       		.uleb128 0x3
 669 00fb 40010000 		.4byte	.LASF22
 670 00ff 06       		.byte	0x6
 671 0100 40       		.byte	0x40
 672 0101 B8000000 		.4byte	0xb8
 673 0105 03       		.uleb128 0x3
 674 0106 B3020000 		.4byte	.LASF23
 675 010a 06       		.byte	0x6
 676 010b 41       		.byte	0x41
 677 010c AD000000 		.4byte	0xad
 678 0110 03       		.uleb128 0x3
 679 0111 27010000 		.4byte	.LASF24
 680 0115 06       		.byte	0x6
 681 0116 43       		.byte	0x43
 682 0117 B8000000 		.4byte	0xb8
 683 011b 03       		.uleb128 0x3
 684 011c 70010000 		.4byte	.LASF25
 685 0120 06       		.byte	0x6
 686 0121 45       		.byte	0x45
 687 0122 AD000000 		.4byte	0xad
 688 0126 03       		.uleb128 0x3
 689 0127 4B000000 		.4byte	.LASF26
 690 012b 07       		.byte	0x7
 691 012c 33       		.byte	0x33
 692 012d B8000000 		.4byte	0xb8
 693 0131 03       		.uleb128 0x3
 694 0132 BD010000 		.4byte	.LASF27
 695 0136 07       		.byte	0x7
 696 0137 3F       		.byte	0x3f
 697 0138 3C010000 		.4byte	0x13c
 698 013c 05       		.uleb128 0x5
 699 013d 8C020000 		.4byte	.LASF45
 700 0141 44       		.byte	0x44
 701 0142 08       		.byte	0x8
 702 0143 9A       		.byte	0x9a
 703 0144 1A020000 		.4byte	0x21a
 704 0148 06       		.uleb128 0x6
 705 0149 6E040000 		.4byte	.LASF28
 706 014d 08       		.byte	0x8
 707 014e 9B       		.byte	0x9b
 708 014f 4F020000 		.4byte	0x24f
ARM GAS  /tmp/cc83RhQM.s 			page 29


 709 0153 00       		.byte	0
 710 0154 06       		.uleb128 0x6
 711 0155 4E020000 		.4byte	.LASF29
 712 0159 08       		.byte	0x8
 713 015a 9C       		.byte	0x9c
 714 015b FA000000 		.4byte	0xfa
 715 015f 08       		.byte	0x8
 716 0160 07       		.uleb128 0x7
 717 0161 63747800 		.ascii	"ctx\000"
 718 0165 08       		.byte	0x8
 719 0166 9D       		.byte	0x9d
 720 0167 47040000 		.4byte	0x447
 721 016b 0C       		.byte	0xc
 722 016c 06       		.uleb128 0x6
 723 016d 8B040000 		.4byte	.LASF30
 724 0171 08       		.byte	0x8
 725 0172 9F       		.byte	0x9f
 726 0173 25020000 		.4byte	0x225
 727 0177 10       		.byte	0x10
 728 0178 06       		.uleb128 0x6
 729 0179 6A050000 		.4byte	.LASF31
 730 017d 08       		.byte	0x8
 731 017e A0       		.byte	0xa0
 732 017f 25020000 		.4byte	0x225
 733 0183 14       		.byte	0x14
 734 0184 06       		.uleb128 0x6
 735 0185 59030000 		.4byte	.LASF32
 736 0189 08       		.byte	0x8
 737 018a A7       		.byte	0xa7
 738 018b CC050000 		.4byte	0x5cc
 739 018f 18       		.byte	0x18
 740 0190 06       		.uleb128 0x6
 741 0191 6B020000 		.4byte	.LASF33
 742 0195 08       		.byte	0x8
 743 0196 B0       		.byte	0xb0
 744 0197 DE050000 		.4byte	0x5de
 745 019b 1C       		.byte	0x1c
 746 019c 06       		.uleb128 0x6
 747 019d D6040000 		.4byte	.LASF34
 748 01a1 08       		.byte	0x8
 749 01a2 B5       		.byte	0xb5
 750 01a3 E4000000 		.4byte	0xe4
 751 01a7 20       		.byte	0x20
 752 01a8 06       		.uleb128 0x6
 753 01a9 45000000 		.4byte	.LASF35
 754 01ad 08       		.byte	0x8
 755 01ae B9       		.byte	0xb9
 756 01af D9000000 		.4byte	0xd9
 757 01b3 21       		.byte	0x21
 758 01b4 06       		.uleb128 0x6
 759 01b5 92000000 		.4byte	.LASF36
 760 01b9 08       		.byte	0x8
 761 01ba BE       		.byte	0xbe
 762 01bb EF000000 		.4byte	0xef
 763 01bf 22       		.byte	0x22
 764 01c0 08       		.uleb128 0x8
 765 01c1 7500     		.ascii	"u\000"
ARM GAS  /tmp/cc83RhQM.s 			page 30


 766 01c3 08       		.byte	0x8
 767 01c4 0F01     		.2byte	0x10f
 768 01c6 01050000 		.4byte	0x501
 769 01ca 24       		.byte	0x24
 770 01cb 09       		.uleb128 0x9
 771 01cc AA040000 		.4byte	.LASF37
 772 01d0 08       		.byte	0x8
 773 01d1 1401     		.2byte	0x114
 774 01d3 2B020000 		.4byte	0x22b
 775 01d7 28       		.byte	0x28
 776 01d8 09       		.uleb128 0x9
 777 01d9 83020000 		.4byte	.LASF38
 778 01dd 08       		.byte	0x8
 779 01de 1A01     		.2byte	0x11a
 780 01e0 4F020000 		.4byte	0x24f
 781 01e4 2C       		.byte	0x2c
 782 01e5 09       		.uleb128 0x9
 783 01e6 5E000000 		.4byte	.LASF39
 784 01ea 08       		.byte	0x8
 785 01eb 2001     		.2byte	0x120
 786 01ed 10010000 		.4byte	0x110
 787 01f1 34       		.byte	0x34
 788 01f2 09       		.uleb128 0x9
 789 01f3 9E010000 		.4byte	.LASF40
 790 01f7 08       		.byte	0x8
 791 01f8 2701     		.2byte	0x127
 792 01fa C6050000 		.4byte	0x5c6
 793 01fe 38       		.byte	0x38
 794 01ff 09       		.uleb128 0x9
 795 0200 55000000 		.4byte	.LASF41
 796 0204 08       		.byte	0x8
 797 0205 2B01     		.2byte	0x12b
 798 0207 FA000000 		.4byte	0xfa
 799 020b 3C       		.byte	0x3c
 800 020c 09       		.uleb128 0x9
 801 020d 8E050000 		.4byte	.LASF42
 802 0211 08       		.byte	0x8
 803 0212 3201     		.2byte	0x132
 804 0214 02030000 		.4byte	0x302
 805 0218 40       		.byte	0x40
 806 0219 00       		.byte	0
 807 021a 03       		.uleb128 0x3
 808 021b 58020000 		.4byte	.LASF43
 809 021f 07       		.byte	0x7
 810 0220 44       		.byte	0x44
 811 0221 25020000 		.4byte	0x225
 812 0225 0A       		.uleb128 0xa
 813 0226 04       		.byte	0x4
 814 0227 31010000 		.4byte	0x131
 815 022b 03       		.uleb128 0x3
 816 022c 79000000 		.4byte	.LASF44
 817 0230 07       		.byte	0x7
 818 0231 49       		.byte	0x49
 819 0232 36020000 		.4byte	0x236
 820 0236 05       		.uleb128 0x5
 821 0237 00000000 		.4byte	.LASF46
 822 023b 04       		.byte	0x4
ARM GAS  /tmp/cc83RhQM.s 			page 31


 823 023c 08       		.byte	0x8
 824 023d 88       		.byte	0x88
 825 023e 4F020000 		.4byte	0x24f
 826 0242 06       		.uleb128 0x6
 827 0243 74000000 		.4byte	.LASF47
 828 0247 08       		.byte	0x8
 829 0248 89       		.byte	0x89
 830 0249 25020000 		.4byte	0x225
 831 024d 00       		.byte	0
 832 024e 00       		.byte	0
 833 024f 03       		.uleb128 0x3
 834 0250 88010000 		.4byte	.LASF48
 835 0254 07       		.byte	0x7
 836 0255 50       		.byte	0x50
 837 0256 5A020000 		.4byte	0x25a
 838 025a 05       		.uleb128 0x5
 839 025b DB000000 		.4byte	.LASF49
 840 025f 08       		.byte	0x8
 841 0260 08       		.byte	0x8
 842 0261 8F       		.byte	0x8f
 843 0262 7F020000 		.4byte	0x27f
 844 0266 06       		.uleb128 0x6
 845 0267 74000000 		.4byte	.LASF47
 846 026b 08       		.byte	0x8
 847 026c 90       		.byte	0x90
 848 026d 25020000 		.4byte	0x225
 849 0271 00       		.byte	0
 850 0272 06       		.uleb128 0x6
 851 0273 D6000000 		.4byte	.LASF50
 852 0277 08       		.byte	0x8
 853 0278 91       		.byte	0x91
 854 0279 25020000 		.4byte	0x225
 855 027d 04       		.byte	0x4
 856 027e 00       		.byte	0
 857 027f 03       		.uleb128 0x3
 858 0280 61040000 		.4byte	.LASF51
 859 0284 07       		.byte	0x7
 860 0285 57       		.byte	0x57
 861 0286 8A020000 		.4byte	0x28a
 862 028a 0B       		.uleb128 0xb
 863 028b BC000000 		.4byte	.LASF52
 864 028f 1C       		.byte	0x1c
 865 0290 08       		.byte	0x8
 866 0291 6A01     		.2byte	0x16a
 867 0293 E6020000 		.4byte	0x2e6
 868 0297 09       		.uleb128 0x9
 869 0298 6E040000 		.4byte	.LASF28
 870 029c 08       		.byte	0x8
 871 029d 6B01     		.2byte	0x16b
 872 029f 4F020000 		.4byte	0x24f
 873 02a3 00       		.byte	0
 874 02a4 09       		.uleb128 0x9
 875 02a5 4E020000 		.4byte	.LASF29
 876 02a9 08       		.byte	0x8
 877 02aa 6C01     		.2byte	0x16c
 878 02ac FA000000 		.4byte	0xfa
 879 02b0 08       		.byte	0x8
ARM GAS  /tmp/cc83RhQM.s 			page 32


 880 02b1 08       		.uleb128 0x8
 881 02b2 63747800 		.ascii	"ctx\000"
 882 02b6 08       		.byte	0x8
 883 02b7 6E01     		.2byte	0x16e
 884 02b9 47040000 		.4byte	0x447
 885 02bd 0C       		.byte	0xc
 886 02be 09       		.uleb128 0x9
 887 02bf 8B040000 		.4byte	.LASF30
 888 02c3 08       		.byte	0x8
 889 02c4 7101     		.2byte	0x171
 890 02c6 25020000 		.4byte	0x225
 891 02ca 10       		.byte	0x10
 892 02cb 09       		.uleb128 0x9
 893 02cc 6A050000 		.4byte	.LASF31
 894 02d0 08       		.byte	0x8
 895 02d1 7201     		.2byte	0x172
 896 02d3 25020000 		.4byte	0x225
 897 02d7 14       		.byte	0x14
 898 02d8 09       		.uleb128 0x9
 899 02d9 25050000 		.4byte	.LASF53
 900 02dd 08       		.byte	0x8
 901 02de 7501     		.2byte	0x175
 902 02e0 25020000 		.4byte	0x225
 903 02e4 18       		.byte	0x18
 904 02e5 00       		.byte	0
 905 02e6 03       		.uleb128 0x3
 906 02e7 EC000000 		.4byte	.LASF54
 907 02eb 07       		.byte	0x7
 908 02ec 5C       		.byte	0x5c
 909 02ed F1020000 		.4byte	0x2f1
 910 02f1 0A       		.uleb128 0xa
 911 02f2 04       		.byte	0x4
 912 02f3 F7020000 		.4byte	0x2f7
 913 02f7 0C       		.uleb128 0xc
 914 02f8 02030000 		.4byte	0x302
 915 02fc 0D       		.uleb128 0xd
 916 02fd 02030000 		.4byte	0x302
 917 0301 00       		.byte	0
 918 0302 0E       		.uleb128 0xe
 919 0303 04       		.byte	0x4
 920 0304 03       		.uleb128 0x3
 921 0305 B9020000 		.4byte	.LASF55
 922 0309 07       		.byte	0x7
 923 030a 61       		.byte	0x61
 924 030b 0F030000 		.4byte	0x30f
 925 030f 0B       		.uleb128 0xb
 926 0310 48010000 		.4byte	.LASF56
 927 0314 14       		.byte	0x14
 928 0315 08       		.byte	0x8
 929 0316 4501     		.2byte	0x145
 930 0318 5E030000 		.4byte	0x35e
 931 031c 09       		.uleb128 0x9
 932 031d 74000000 		.4byte	.LASF47
 933 0321 08       		.byte	0x8
 934 0322 4601     		.2byte	0x146
 935 0324 E4050000 		.4byte	0x5e4
 936 0328 00       		.byte	0
ARM GAS  /tmp/cc83RhQM.s 			page 33


 937 0329 09       		.uleb128 0x9
 938 032a D6000000 		.4byte	.LASF50
 939 032e 08       		.byte	0x8
 940 032f 4701     		.2byte	0x147
 941 0331 E4050000 		.4byte	0x5e4
 942 0335 04       		.byte	0x4
 943 0336 09       		.uleb128 0x9
 944 0337 FA040000 		.4byte	.LASF57
 945 033b 08       		.byte	0x8
 946 033c 4801     		.2byte	0x148
 947 033e 26010000 		.4byte	0x126
 948 0342 08       		.byte	0x8
 949 0343 09       		.uleb128 0x9
 950 0344 CA000000 		.4byte	.LASF58
 951 0348 08       		.byte	0x8
 952 0349 4901     		.2byte	0x149
 953 034b E6020000 		.4byte	0x2e6
 954 034f 0C       		.byte	0xc
 955 0350 08       		.uleb128 0x8
 956 0351 70617200 		.ascii	"par\000"
 957 0355 08       		.byte	0x8
 958 0356 4B01     		.2byte	0x14b
 959 0358 02030000 		.4byte	0x302
 960 035c 10       		.byte	0x10
 961 035d 00       		.byte	0
 962 035e 03       		.uleb128 0x3
 963 035f B2040000 		.4byte	.LASF59
 964 0363 07       		.byte	0x7
 965 0364 66       		.byte	0x66
 966 0365 69030000 		.4byte	0x369
 967 0369 0B       		.uleb128 0xb
 968 036a A6010000 		.4byte	.LASF60
 969 036e 10       		.byte	0x10
 970 036f 08       		.byte	0x8
 971 0370 5501     		.2byte	0x155
 972 0372 AB030000 		.4byte	0x3ab
 973 0376 09       		.uleb128 0x9
 974 0377 74000000 		.4byte	.LASF47
 975 037b 08       		.byte	0x8
 976 037c 5601     		.2byte	0x156
 977 037e E4050000 		.4byte	0x5e4
 978 0382 00       		.byte	0
 979 0383 09       		.uleb128 0x9
 980 0384 D6000000 		.4byte	.LASF50
 981 0388 08       		.byte	0x8
 982 0389 5801     		.2byte	0x158
 983 038b E4050000 		.4byte	0x5e4
 984 038f 04       		.byte	0x4
 985 0390 09       		.uleb128 0x9
 986 0391 FA040000 		.4byte	.LASF57
 987 0395 08       		.byte	0x8
 988 0396 5A01     		.2byte	0x15a
 989 0398 26010000 		.4byte	0x126
 990 039c 08       		.byte	0x8
 991 039d 09       		.uleb128 0x9
 992 039e 37030000 		.4byte	.LASF61
 993 03a2 08       		.byte	0x8
ARM GAS  /tmp/cc83RhQM.s 			page 34


 994 03a3 6201     		.2byte	0x162
 995 03a5 26010000 		.4byte	0x126
 996 03a9 0C       		.byte	0xc
 997 03aa 00       		.byte	0
 998 03ab 03       		.uleb128 0x3
 999 03ac 96020000 		.4byte	.LASF62
 1000 03b0 07       		.byte	0x7
 1001 03b1 6B       		.byte	0x6b
 1002 03b2 B6030000 		.4byte	0x3b6
 1003 03b6 0B       		.uleb128 0xb
 1004 03b7 06010000 		.4byte	.LASF63
 1005 03bb 04       		.byte	0x4
 1006 03bc 08       		.byte	0x8
 1007 03bd 7C01     		.2byte	0x17c
 1008 03bf D1030000 		.4byte	0x3d1
 1009 03c3 09       		.uleb128 0x9
 1010 03c4 CE020000 		.4byte	.LASF64
 1011 03c8 08       		.byte	0x8
 1012 03c9 8401     		.2byte	0x184
 1013 03cb EA050000 		.4byte	0x5ea
 1014 03cf 00       		.byte	0
 1015 03d0 00       		.byte	0
 1016 03d1 03       		.uleb128 0x3
 1017 03d2 DC040000 		.4byte	.LASF65
 1018 03d6 07       		.byte	0x7
 1019 03d7 70       		.byte	0x70
 1020 03d8 DC030000 		.4byte	0x3dc
 1021 03dc 0B       		.uleb128 0xb
 1022 03dd 1F030000 		.4byte	.LASF66
 1023 03e1 78       		.byte	0x78
 1024 03e2 08       		.byte	0x8
 1025 03e3 9C01     		.2byte	0x19c
 1026 03e5 2A040000 		.4byte	0x42a
 1027 03e9 09       		.uleb128 0x9
 1028 03ea 49030000 		.4byte	.LASF67
 1029 03ee 08       		.byte	0x8
 1030 03ef A001     		.2byte	0x1a0
 1031 03f1 7F020000 		.4byte	0x27f
 1032 03f5 00       		.byte	0
 1033 03f6 09       		.uleb128 0x9
 1034 03f7 A8000000 		.4byte	.LASF68
 1035 03fb 08       		.byte	0x8
 1036 03fc A401     		.2byte	0x1a4
 1037 03fe 5E030000 		.4byte	0x35e
 1038 0402 1C       		.byte	0x1c
 1039 0403 08       		.uleb128 0x8
 1040 0404 64626700 		.ascii	"dbg\000"
 1041 0408 08       		.byte	0x8
 1042 0409 A801     		.2byte	0x1a8
 1043 040b AB030000 		.4byte	0x3ab
 1044 040f 2C       		.byte	0x2c
 1045 0410 09       		.uleb128 0x9
 1046 0411 E0020000 		.4byte	.LASF69
 1047 0415 08       		.byte	0x8
 1048 0416 AC01     		.2byte	0x1ac
 1049 0418 31010000 		.4byte	0x131
 1050 041c 30       		.byte	0x30
ARM GAS  /tmp/cc83RhQM.s 			page 35


 1051 041d 08       		.uleb128 0x8
 1052 041e 746D00   		.ascii	"tm\000"
 1053 0421 08       		.byte	0x8
 1054 0422 B101     		.2byte	0x1b1
 1055 0424 F6040000 		.4byte	0x4f6
 1056 0428 74       		.byte	0x74
 1057 0429 00       		.byte	0
 1058 042a 04       		.uleb128 0x4
 1059 042b 04       		.byte	0x4
 1060 042c 07       		.byte	0x7
 1061 042d 3E040000 		.4byte	.LASF70
 1062 0431 03       		.uleb128 0x3
 1063 0432 28000000 		.4byte	.LASF71
 1064 0436 09       		.byte	0x9
 1065 0437 65       		.byte	0x65
 1066 0438 02030000 		.4byte	0x302
 1067 043c 03       		.uleb128 0x3
 1068 043d 13050000 		.4byte	.LASF72
 1069 0441 09       		.byte	0x9
 1070 0442 6D       		.byte	0x6d
 1071 0443 C3000000 		.4byte	0xc3
 1072 0447 05       		.uleb128 0x5
 1073 0448 AF000000 		.4byte	.LASF73
 1074 044c 04       		.byte	0x4
 1075 044d 09       		.byte	0x9
 1076 044e 89       		.byte	0x89
 1077 044f 5F040000 		.4byte	0x45f
 1078 0453 07       		.uleb128 0x7
 1079 0454 737000   		.ascii	"sp\000"
 1080 0457 09       		.byte	0x9
 1081 0458 8A       		.byte	0x8a
 1082 0459 DB040000 		.4byte	0x4db
 1083 045d 00       		.byte	0
 1084 045e 00       		.byte	0
 1085 045f 0B       		.uleb128 0xb
 1086 0460 06030000 		.4byte	.LASF74
 1087 0464 24       		.byte	0x24
 1088 0465 0A       		.byte	0xa
 1089 0466 5901     		.2byte	0x159
 1090 0468 DB040000 		.4byte	0x4db
 1091 046c 08       		.uleb128 0x8
 1092 046d 723400   		.ascii	"r4\000"
 1093 0470 0A       		.byte	0xa
 1094 0471 6C01     		.2byte	0x16c
 1095 0473 31040000 		.4byte	0x431
 1096 0477 00       		.byte	0
 1097 0478 08       		.uleb128 0x8
 1098 0479 723500   		.ascii	"r5\000"
 1099 047c 0A       		.byte	0xa
 1100 047d 6D01     		.2byte	0x16d
 1101 047f 31040000 		.4byte	0x431
 1102 0483 04       		.byte	0x4
 1103 0484 08       		.uleb128 0x8
 1104 0485 723600   		.ascii	"r6\000"
 1105 0488 0A       		.byte	0xa
 1106 0489 6E01     		.2byte	0x16e
 1107 048b 31040000 		.4byte	0x431
ARM GAS  /tmp/cc83RhQM.s 			page 36


 1108 048f 08       		.byte	0x8
 1109 0490 08       		.uleb128 0x8
 1110 0491 723700   		.ascii	"r7\000"
 1111 0494 0A       		.byte	0xa
 1112 0495 6F01     		.2byte	0x16f
 1113 0497 31040000 		.4byte	0x431
 1114 049b 0C       		.byte	0xc
 1115 049c 08       		.uleb128 0x8
 1116 049d 723800   		.ascii	"r8\000"
 1117 04a0 0A       		.byte	0xa
 1118 04a1 7001     		.2byte	0x170
 1119 04a3 31040000 		.4byte	0x431
 1120 04a7 10       		.byte	0x10
 1121 04a8 08       		.uleb128 0x8
 1122 04a9 723900   		.ascii	"r9\000"
 1123 04ac 0A       		.byte	0xa
 1124 04ad 7101     		.2byte	0x171
 1125 04af 31040000 		.4byte	0x431
 1126 04b3 14       		.byte	0x14
 1127 04b4 08       		.uleb128 0x8
 1128 04b5 72313000 		.ascii	"r10\000"
 1129 04b9 0A       		.byte	0xa
 1130 04ba 7201     		.2byte	0x172
 1131 04bc 31040000 		.4byte	0x431
 1132 04c0 18       		.byte	0x18
 1133 04c1 08       		.uleb128 0x8
 1134 04c2 72313100 		.ascii	"r11\000"
 1135 04c6 0A       		.byte	0xa
 1136 04c7 7301     		.2byte	0x173
 1137 04c9 31040000 		.4byte	0x431
 1138 04cd 1C       		.byte	0x1c
 1139 04ce 08       		.uleb128 0x8
 1140 04cf 6C7200   		.ascii	"lr\000"
 1141 04d2 0A       		.byte	0xa
 1142 04d3 7401     		.2byte	0x174
 1143 04d5 31040000 		.4byte	0x431
 1144 04d9 20       		.byte	0x20
 1145 04da 00       		.byte	0
 1146 04db 0A       		.uleb128 0xa
 1147 04dc 04       		.byte	0x4
 1148 04dd 5F040000 		.4byte	0x45f
 1149 04e1 0F       		.uleb128 0xf
 1150 04e2 04       		.byte	0x4
 1151 04e3 0B       		.byte	0xb
 1152 04e4 38       		.byte	0x38
 1153 04e5 F6040000 		.4byte	0x4f6
 1154 04e9 06       		.uleb128 0x6
 1155 04ea ED010000 		.4byte	.LASF75
 1156 04ee 0B       		.byte	0xb
 1157 04ef 3C       		.byte	0x3c
 1158 04f0 CE000000 		.4byte	0xce
 1159 04f4 00       		.byte	0
 1160 04f5 00       		.byte	0
 1161 04f6 03       		.uleb128 0x3
 1162 04f7 17000000 		.4byte	.LASF76
 1163 04fb 0B       		.byte	0xb
 1164 04fc 3D       		.byte	0x3d
ARM GAS  /tmp/cc83RhQM.s 			page 37


 1165 04fd E1040000 		.4byte	0x4e1
 1166 0501 10       		.uleb128 0x10
 1167 0502 04       		.byte	0x4
 1168 0503 08       		.byte	0x8
 1169 0504 D2       		.byte	0xd2
 1170 0505 64050000 		.4byte	0x564
 1171 0509 11       		.uleb128 0x11
 1172 050a E6010000 		.4byte	.LASF77
 1173 050e 08       		.byte	0x8
 1174 050f D9       		.byte	0xd9
 1175 0510 05010000 		.4byte	0x105
 1176 0514 11       		.uleb128 0x11
 1177 0515 78050000 		.4byte	.LASF78
 1178 0519 08       		.byte	0x8
 1179 051a E0       		.byte	0xe0
 1180 051b 05010000 		.4byte	0x105
 1181 051f 11       		.uleb128 0x11
 1182 0520 97000000 		.4byte	.LASF79
 1183 0524 08       		.byte	0x8
 1184 0525 E7       		.byte	0xe7
 1185 0526 02030000 		.4byte	0x302
 1186 052a 11       		.uleb128 0x11
 1187 052b E8040000 		.4byte	.LASF80
 1188 052f 08       		.byte	0x8
 1189 0530 EE       		.byte	0xee
 1190 0531 64050000 		.4byte	0x564
 1191 0535 11       		.uleb128 0x11
 1192 0536 1F010000 		.4byte	.LASF81
 1193 053a 08       		.byte	0x8
 1194 053b F3       		.byte	0xf3
 1195 053c 05010000 		.4byte	0x105
 1196 0540 11       		.uleb128 0x11
 1197 0541 7C040000 		.4byte	.LASF82
 1198 0545 08       		.byte	0x8
 1199 0546 FC       		.byte	0xfc
 1200 0547 8F050000 		.4byte	0x58f
 1201 054b 12       		.uleb128 0x12
 1202 054c 10000000 		.4byte	.LASF83
 1203 0550 08       		.byte	0x8
 1204 0551 0501     		.2byte	0x105
 1205 0553 C6050000 		.4byte	0x5c6
 1206 0557 12       		.uleb128 0x12
 1207 0558 CF000000 		.4byte	.LASF84
 1208 055c 08       		.byte	0x8
 1209 055d 0D01     		.2byte	0x10d
 1210 055f 10010000 		.4byte	0x110
 1211 0563 00       		.byte	0
 1212 0564 0A       		.uleb128 0xa
 1213 0565 04       		.byte	0x4
 1214 0566 1A020000 		.4byte	0x21a
 1215 056a 05       		.uleb128 0x5
 1216 056b 33010000 		.4byte	.LASF85
 1217 056f 0C       		.byte	0xc
 1218 0570 0C       		.byte	0xc
 1219 0571 34       		.byte	0x34
 1220 0572 8F050000 		.4byte	0x58f
 1221 0576 06       		.uleb128 0x6
ARM GAS  /tmp/cc83RhQM.s 			page 38


 1222 0577 6E040000 		.4byte	.LASF28
 1223 057b 0C       		.byte	0xc
 1224 057c 35       		.byte	0x35
 1225 057d 4F020000 		.4byte	0x24f
 1226 0581 00       		.byte	0
 1227 0582 07       		.uleb128 0x7
 1228 0583 636E7400 		.ascii	"cnt\000"
 1229 0587 0C       		.byte	0xc
 1230 0588 37       		.byte	0x37
 1231 0589 1B010000 		.4byte	0x11b
 1232 058d 08       		.byte	0x8
 1233 058e 00       		.byte	0
 1234 058f 0A       		.uleb128 0xa
 1235 0590 04       		.byte	0x4
 1236 0591 6A050000 		.4byte	0x56a
 1237 0595 05       		.uleb128 0x5
 1238 0596 02020000 		.4byte	.LASF86
 1239 059a 10       		.byte	0x10
 1240 059b 0D       		.byte	0xd
 1241 059c 39       		.byte	0x39
 1242 059d C6050000 		.4byte	0x5c6
 1243 05a1 06       		.uleb128 0x6
 1244 05a2 6E040000 		.4byte	.LASF28
 1245 05a6 0D       		.byte	0xd
 1246 05a7 3A       		.byte	0x3a
 1247 05a8 4F020000 		.4byte	0x24f
 1248 05ac 00       		.byte	0
 1249 05ad 06       		.uleb128 0x6
 1250 05ae 82010000 		.4byte	.LASF87
 1251 05b2 0D       		.byte	0xd
 1252 05b3 3C       		.byte	0x3c
 1253 05b4 25020000 		.4byte	0x225
 1254 05b8 08       		.byte	0x8
 1255 05b9 06       		.uleb128 0x6
 1256 05ba 74000000 		.4byte	.LASF47
 1257 05be 0D       		.byte	0xd
 1258 05bf 3E       		.byte	0x3e
 1259 05c0 FA050000 		.4byte	0x5fa
 1260 05c4 0C       		.byte	0xc
 1261 05c5 00       		.byte	0
 1262 05c6 0A       		.uleb128 0xa
 1263 05c7 04       		.byte	0x4
 1264 05c8 95050000 		.4byte	0x595
 1265 05cc 0A       		.uleb128 0xa
 1266 05cd 04       		.byte	0x4
 1267 05ce D2050000 		.4byte	0x5d2
 1268 05d2 13       		.uleb128 0x13
 1269 05d3 D7050000 		.4byte	0x5d7
 1270 05d7 04       		.uleb128 0x4
 1271 05d8 01       		.byte	0x1
 1272 05d9 08       		.byte	0x8
 1273 05da 53020000 		.4byte	.LASF88
 1274 05de 0A       		.uleb128 0xa
 1275 05df 04       		.byte	0x4
 1276 05e0 3C040000 		.4byte	0x43c
 1277 05e4 0A       		.uleb128 0xa
 1278 05e5 04       		.byte	0x4
ARM GAS  /tmp/cc83RhQM.s 			page 39


 1279 05e6 04030000 		.4byte	0x304
 1280 05ea 14       		.uleb128 0x14
 1281 05eb CC050000 		.4byte	0x5cc
 1282 05ef 03       		.uleb128 0x3
 1283 05f0 83040000 		.4byte	.LASF89
 1284 05f4 0D       		.byte	0xd
 1285 05f5 34       		.byte	0x34
 1286 05f6 95050000 		.4byte	0x595
 1287 05fa 0A       		.uleb128 0xa
 1288 05fb 04       		.byte	0x4
 1289 05fc EF050000 		.4byte	0x5ef
 1290 0600 15       		.uleb128 0x15
 1291 0601 29030000 		.4byte	.LASF97
 1292 0605 02       		.byte	0x2
 1293 0606 0601     		.2byte	0x106
 1294 0608 03       		.byte	0x3
 1295 0609 1A060000 		.4byte	0x61a
 1296 060d 16       		.uleb128 0x16
 1297 060e 98010000 		.4byte	.LASF93
 1298 0612 02       		.byte	0x2
 1299 0613 0601     		.2byte	0x106
 1300 0615 B8000000 		.4byte	0xb8
 1301 0619 00       		.byte	0
 1302 061a 17       		.uleb128 0x17
 1303 061b 9E000000 		.4byte	.LASF90
 1304 061f 0A       		.byte	0xa
 1305 0620 5202     		.2byte	0x252
 1306 0622 03       		.byte	0x3
 1307 0623 17       		.uleb128 0x17
 1308 0624 2D050000 		.4byte	.LASF91
 1309 0628 0A       		.byte	0xa
 1310 0629 6A02     		.2byte	0x26a
 1311 062b 03       		.byte	0x3
 1312 062c 17       		.uleb128 0x17
 1313 062d 44020000 		.4byte	.LASF92
 1314 0631 0E       		.byte	0xe
 1315 0632 7601     		.2byte	0x176
 1316 0634 03       		.byte	0x3
 1317 0635 18       		.uleb128 0x18
 1318 0636 31000000 		.4byte	.LASF100
 1319 063a 01       		.byte	0x1
 1320 063b 6C       		.byte	0x6c
 1321 063c 02030000 		.4byte	0x302
 1322 0640 01       		.byte	0x1
 1323 0641 72060000 		.4byte	0x672
 1324 0645 19       		.uleb128 0x19
 1325 0646 C9020000 		.4byte	.LASF94
 1326 064a 01       		.byte	0x1
 1327 064b 6C       		.byte	0x6c
 1328 064c 2C000000 		.4byte	0x2c
 1329 0650 19       		.uleb128 0x19
 1330 0651 64050000 		.4byte	.LASF95
 1331 0655 01       		.byte	0x1
 1332 0656 6C       		.byte	0x6c
 1333 0657 37000000 		.4byte	0x37
 1334 065b 1A       		.uleb128 0x1a
 1335 065c 7000     		.ascii	"p\000"
ARM GAS  /tmp/cc83RhQM.s 			page 40


 1336 065e 01       		.byte	0x1
 1337 065f 6D       		.byte	0x6d
 1338 0660 72060000 		.4byte	0x672
 1339 0664 1B       		.uleb128 0x1b
 1340 0665 C8040000 		.4byte	.LASF96
 1341 0669 88060000 		.4byte	0x688
 1342 066d 31000000 		.4byte	.LASF100
 1343 0671 00       		.byte	0
 1344 0672 0A       		.uleb128 0xa
 1345 0673 04       		.byte	0x4
 1346 0674 A2000000 		.4byte	0xa2
 1347 0678 1C       		.uleb128 0x1c
 1348 0679 D7050000 		.4byte	0x5d7
 1349 067d 88060000 		.4byte	0x688
 1350 0681 1D       		.uleb128 0x1d
 1351 0682 2A040000 		.4byte	0x42a
 1352 0686 13       		.byte	0x13
 1353 0687 00       		.byte	0
 1354 0688 13       		.uleb128 0x13
 1355 0689 78060000 		.4byte	0x678
 1356 068d 15       		.uleb128 0x15
 1357 068e 76010000 		.4byte	.LASF98
 1358 0692 0E       		.byte	0xe
 1359 0693 8201     		.2byte	0x182
 1360 0695 03       		.byte	0x3
 1361 0696 A8060000 		.4byte	0x6a8
 1362 069a 1B       		.uleb128 0x1b
 1363 069b F4010000 		.4byte	.LASF99
 1364 069f B8060000 		.4byte	0x6b8
 1365 06a3 76010000 		.4byte	.LASF98
 1366 06a7 00       		.byte	0
 1367 06a8 1C       		.uleb128 0x1c
 1368 06a9 D7050000 		.4byte	0x5d7
 1369 06ad B8060000 		.4byte	0x6b8
 1370 06b1 1D       		.uleb128 0x1d
 1371 06b2 2A040000 		.4byte	0x42a
 1372 06b6 0B       		.byte	0xb
 1373 06b7 00       		.byte	0
 1374 06b8 13       		.uleb128 0x13
 1375 06b9 A8060000 		.4byte	0x6a8
 1376 06bd 1E       		.uleb128 0x1e
 1377 06be C6010000 		.4byte	.LASF109
 1378 06c2 01       		.byte	0x1
 1379 06c3 4F       		.byte	0x4f
 1380 06c4 00000000 		.4byte	.LFB239
 1381 06c8 20000000 		.4byte	.LFE239-.LFB239
 1382 06cc 01       		.uleb128 0x1
 1383 06cd 9C       		.byte	0x9c
 1384 06ce E9060000 		.4byte	0x6e9
 1385 06d2 1F       		.uleb128 0x1f
 1386 06d3 D1010000 		.4byte	.LASF101
 1387 06d7 01       		.byte	0x1
 1388 06d8 51       		.byte	0x51
 1389 06d9 E9060000 		.4byte	0x6e9
 1390 06dd 1F       		.uleb128 0x1f
 1391 06de 81050000 		.4byte	.LASF102
 1392 06e2 01       		.byte	0x1
ARM GAS  /tmp/cc83RhQM.s 			page 41


 1393 06e3 52       		.byte	0x52
 1394 06e4 E9060000 		.4byte	0x6e9
 1395 06e8 00       		.byte	0
 1396 06e9 1C       		.uleb128 0x1c
 1397 06ea A2000000 		.4byte	0xa2
 1398 06ee F4060000 		.4byte	0x6f4
 1399 06f2 20       		.uleb128 0x20
 1400 06f3 00       		.byte	0
 1401 06f4 21       		.uleb128 0x21
 1402 06f5 35060000 		.4byte	0x635
 1403 06f9 00000000 		.4byte	.LFB240
 1404 06fd 30000000 		.4byte	.LFE240-.LFB240
 1405 0701 01       		.uleb128 0x1
 1406 0702 9C       		.byte	0x9c
 1407 0703 28070000 		.4byte	0x728
 1408 0707 22       		.uleb128 0x22
 1409 0708 45060000 		.4byte	0x645
 1410 070c 00000000 		.4byte	.LLST0
 1411 0710 22       		.uleb128 0x22
 1412 0711 50060000 		.4byte	0x650
 1413 0715 3D000000 		.4byte	.LLST1
 1414 0719 23       		.uleb128 0x23
 1415 071a 5B060000 		.4byte	0x65b
 1416 071e 6C000000 		.4byte	.LLST2
 1417 0722 24       		.uleb128 0x24
 1418 0723 64060000 		.4byte	0x664
 1419 0727 00       		.byte	0
 1420 0728 25       		.uleb128 0x25
 1421 0729 94050000 		.4byte	.LASF110
 1422 072d 01       		.byte	0x1
 1423 072e 89       		.byte	0x89
 1424 072f 02030000 		.4byte	0x302
 1425 0733 00000000 		.4byte	.LFB241
 1426 0737 40000000 		.4byte	.LFE241-.LFB241
 1427 073b 01       		.uleb128 0x1
 1428 073c 9C       		.byte	0x9c
 1429 073d 2A080000 		.4byte	0x82a
 1430 0741 26       		.uleb128 0x26
 1431 0742 C9020000 		.4byte	.LASF94
 1432 0746 01       		.byte	0x1
 1433 0747 89       		.byte	0x89
 1434 0748 2C000000 		.4byte	0x2c
 1435 074c 9B000000 		.4byte	.LLST3
 1436 0750 26       		.uleb128 0x26
 1437 0751 64050000 		.4byte	.LASF95
 1438 0755 01       		.byte	0x1
 1439 0756 89       		.byte	0x89
 1440 0757 37000000 		.4byte	0x37
 1441 075b BC000000 		.4byte	.LLST4
 1442 075f 1A       		.uleb128 0x1a
 1443 0760 7000     		.ascii	"p\000"
 1444 0762 01       		.byte	0x1
 1445 0763 8A       		.byte	0x8a
 1446 0764 02030000 		.4byte	0x302
 1447 0768 27       		.uleb128 0x27
 1448 0769 2C060000 		.4byte	0x62c
 1449 076d 02000000 		.4byte	.LBB26
ARM GAS  /tmp/cc83RhQM.s 			page 42


 1450 0771 06000000 		.4byte	.LBE26-.LBB26
 1451 0775 01       		.byte	0x1
 1452 0776 8C       		.byte	0x8c
 1453 0777 A4070000 		.4byte	0x7a4
 1454 077b 28       		.uleb128 0x28
 1455 077c 1A060000 		.4byte	0x61a
 1456 0780 02000000 		.4byte	.LBB27
 1457 0784 06000000 		.4byte	.LBE27-.LBB27
 1458 0788 0E       		.byte	0xe
 1459 0789 7801     		.2byte	0x178
 1460 078b 28       		.uleb128 0x28
 1461 078c 00060000 		.4byte	0x600
 1462 0790 02000000 		.4byte	.LBB28
 1463 0794 06000000 		.4byte	.LBE28-.LBB28
 1464 0798 0A       		.byte	0xa
 1465 0799 5A02     		.2byte	0x25a
 1466 079b 29       		.uleb128 0x29
 1467 079c 0D060000 		.4byte	0x60d
 1468 07a0 20       		.byte	0x20
 1469 07a1 00       		.byte	0
 1470 07a2 00       		.byte	0
 1471 07a3 00       		.byte	0
 1472 07a4 27       		.uleb128 0x27
 1473 07a5 35060000 		.4byte	0x635
 1474 07a9 08000000 		.4byte	.LBB30
 1475 07ad 24000000 		.4byte	.LBE30-.LBB30
 1476 07b1 01       		.byte	0x1
 1477 07b2 8D       		.byte	0x8d
 1478 07b3 E2070000 		.4byte	0x7e2
 1479 07b7 22       		.uleb128 0x22
 1480 07b8 50060000 		.4byte	0x650
 1481 07bc EB000000 		.4byte	.LLST5
 1482 07c0 22       		.uleb128 0x22
 1483 07c1 45060000 		.4byte	0x645
 1484 07c5 1A010000 		.4byte	.LLST6
 1485 07c9 2A       		.uleb128 0x2a
 1486 07ca 08000000 		.4byte	.LBB31
 1487 07ce 24000000 		.4byte	.LBE31-.LBB31
 1488 07d2 23       		.uleb128 0x23
 1489 07d3 5B060000 		.4byte	0x65b
 1490 07d7 71010000 		.4byte	.LLST7
 1491 07db 24       		.uleb128 0x24
 1492 07dc 64060000 		.4byte	0x664
 1493 07e0 00       		.byte	0
 1494 07e1 00       		.byte	0
 1495 07e2 2B       		.uleb128 0x2b
 1496 07e3 8D060000 		.4byte	0x68d
 1497 07e7 2C000000 		.4byte	.LBB32
 1498 07eb 06000000 		.4byte	.LBE32-.LBB32
 1499 07ef 01       		.byte	0x1
 1500 07f0 8E       		.byte	0x8e
 1501 07f1 2A       		.uleb128 0x2a
 1502 07f2 2C000000 		.4byte	.LBB33
 1503 07f6 06000000 		.4byte	.LBE33-.LBB33
 1504 07fa 24       		.uleb128 0x24
 1505 07fb 9A060000 		.4byte	0x69a
 1506 07ff 28       		.uleb128 0x28
ARM GAS  /tmp/cc83RhQM.s 			page 43


 1507 0800 23060000 		.4byte	0x623
 1508 0804 2C000000 		.4byte	.LBB34
 1509 0808 06000000 		.4byte	.LBE34-.LBB34
 1510 080c 0E       		.byte	0xe
 1511 080d 8F01     		.2byte	0x18f
 1512 080f 28       		.uleb128 0x28
 1513 0810 00060000 		.4byte	0x600
 1514 0814 2C000000 		.4byte	.LBB35
 1515 0818 06000000 		.4byte	.LBE35-.LBB35
 1516 081c 0A       		.byte	0xa
 1517 081d 6D02     		.2byte	0x26d
 1518 081f 29       		.uleb128 0x29
 1519 0820 0D060000 		.4byte	0x60d
 1520 0824 00       		.byte	0
 1521 0825 00       		.byte	0
 1522 0826 00       		.byte	0
 1523 0827 00       		.byte	0
 1524 0828 00       		.byte	0
 1525 0829 00       		.byte	0
 1526 082a 2C       		.uleb128 0x2c
 1527 082b F5000000 		.4byte	.LASF111
 1528 082f 01       		.byte	0x1
 1529 0830 9A       		.byte	0x9a
 1530 0831 2C000000 		.4byte	0x2c
 1531 0835 00000000 		.4byte	.LFB242
 1532 0839 14000000 		.4byte	.LFE242-.LFB242
 1533 083d 01       		.uleb128 0x1
 1534 083e 9C       		.byte	0x9c
 1535 083f 2D       		.uleb128 0x2d
 1536 0840 70050000 		.4byte	.LASF103
 1537 0844 01       		.byte	0x1
 1538 0845 3F       		.byte	0x3f
 1539 0846 72060000 		.4byte	0x672
 1540 084a 05       		.uleb128 0x5
 1541 084b 03       		.byte	0x3
 1542 084c 00000000 		.4byte	nextmem
 1543 0850 2D       		.uleb128 0x2d
 1544 0851 1E050000 		.4byte	.LASF104
 1545 0855 01       		.byte	0x1
 1546 0856 40       		.byte	0x40
 1547 0857 72060000 		.4byte	0x672
 1548 085b 05       		.uleb128 0x5
 1549 085c 03       		.byte	0x3
 1550 085d 00000000 		.4byte	endmem
 1551 0861 2E       		.uleb128 0x2e
 1552 0862 12030000 		.4byte	.LASF105
 1553 0866 0F       		.byte	0xf
 1554 0867 4407     		.2byte	0x744
 1555 0869 6D080000 		.4byte	0x86d
 1556 086d 14       		.uleb128 0x14
 1557 086e AD000000 		.4byte	0xad
 1558 0872 2F       		.uleb128 0x2f
 1559 0873 636800   		.ascii	"ch\000"
 1560 0876 08       		.byte	0x8
 1561 0877 D201     		.2byte	0x1d2
 1562 0879 D1030000 		.4byte	0x3d1
 1563 087d 1F       		.uleb128 0x1f
ARM GAS  /tmp/cc83RhQM.s 			page 44


 1564 087e D1010000 		.4byte	.LASF101
 1565 0882 01       		.byte	0x1
 1566 0883 51       		.byte	0x51
 1567 0884 E9060000 		.4byte	0x6e9
 1568 0888 1F       		.uleb128 0x1f
 1569 0889 81050000 		.4byte	.LASF102
 1570 088d 01       		.byte	0x1
 1571 088e 52       		.byte	0x52
 1572 088f E9060000 		.4byte	0x6e9
 1573 0893 00       		.byte	0
 1574              		.section	.debug_abbrev,"",%progbits
 1575              	.Ldebug_abbrev0:
 1576 0000 01       		.uleb128 0x1
 1577 0001 11       		.uleb128 0x11
 1578 0002 01       		.byte	0x1
 1579 0003 25       		.uleb128 0x25
 1580 0004 0E       		.uleb128 0xe
 1581 0005 13       		.uleb128 0x13
 1582 0006 0B       		.uleb128 0xb
 1583 0007 03       		.uleb128 0x3
 1584 0008 0E       		.uleb128 0xe
 1585 0009 1B       		.uleb128 0x1b
 1586 000a 0E       		.uleb128 0xe
 1587 000b 55       		.uleb128 0x55
 1588 000c 17       		.uleb128 0x17
 1589 000d 11       		.uleb128 0x11
 1590 000e 01       		.uleb128 0x1
 1591 000f 10       		.uleb128 0x10
 1592 0010 17       		.uleb128 0x17
 1593 0011 00       		.byte	0
 1594 0012 00       		.byte	0
 1595 0013 02       		.uleb128 0x2
 1596 0014 24       		.uleb128 0x24
 1597 0015 00       		.byte	0
 1598 0016 0B       		.uleb128 0xb
 1599 0017 0B       		.uleb128 0xb
 1600 0018 3E       		.uleb128 0x3e
 1601 0019 0B       		.uleb128 0xb
 1602 001a 03       		.uleb128 0x3
 1603 001b 08       		.uleb128 0x8
 1604 001c 00       		.byte	0
 1605 001d 00       		.byte	0
 1606 001e 03       		.uleb128 0x3
 1607 001f 16       		.uleb128 0x16
 1608 0020 00       		.byte	0
 1609 0021 03       		.uleb128 0x3
 1610 0022 0E       		.uleb128 0xe
 1611 0023 3A       		.uleb128 0x3a
 1612 0024 0B       		.uleb128 0xb
 1613 0025 3B       		.uleb128 0x3b
 1614 0026 0B       		.uleb128 0xb
 1615 0027 49       		.uleb128 0x49
 1616 0028 13       		.uleb128 0x13
 1617 0029 00       		.byte	0
 1618 002a 00       		.byte	0
 1619 002b 04       		.uleb128 0x4
 1620 002c 24       		.uleb128 0x24
ARM GAS  /tmp/cc83RhQM.s 			page 45


 1621 002d 00       		.byte	0
 1622 002e 0B       		.uleb128 0xb
 1623 002f 0B       		.uleb128 0xb
 1624 0030 3E       		.uleb128 0x3e
 1625 0031 0B       		.uleb128 0xb
 1626 0032 03       		.uleb128 0x3
 1627 0033 0E       		.uleb128 0xe
 1628 0034 00       		.byte	0
 1629 0035 00       		.byte	0
 1630 0036 05       		.uleb128 0x5
 1631 0037 13       		.uleb128 0x13
 1632 0038 01       		.byte	0x1
 1633 0039 03       		.uleb128 0x3
 1634 003a 0E       		.uleb128 0xe
 1635 003b 0B       		.uleb128 0xb
 1636 003c 0B       		.uleb128 0xb
 1637 003d 3A       		.uleb128 0x3a
 1638 003e 0B       		.uleb128 0xb
 1639 003f 3B       		.uleb128 0x3b
 1640 0040 0B       		.uleb128 0xb
 1641 0041 01       		.uleb128 0x1
 1642 0042 13       		.uleb128 0x13
 1643 0043 00       		.byte	0
 1644 0044 00       		.byte	0
 1645 0045 06       		.uleb128 0x6
 1646 0046 0D       		.uleb128 0xd
 1647 0047 00       		.byte	0
 1648 0048 03       		.uleb128 0x3
 1649 0049 0E       		.uleb128 0xe
 1650 004a 3A       		.uleb128 0x3a
 1651 004b 0B       		.uleb128 0xb
 1652 004c 3B       		.uleb128 0x3b
 1653 004d 0B       		.uleb128 0xb
 1654 004e 49       		.uleb128 0x49
 1655 004f 13       		.uleb128 0x13
 1656 0050 38       		.uleb128 0x38
 1657 0051 0B       		.uleb128 0xb
 1658 0052 00       		.byte	0
 1659 0053 00       		.byte	0
 1660 0054 07       		.uleb128 0x7
 1661 0055 0D       		.uleb128 0xd
 1662 0056 00       		.byte	0
 1663 0057 03       		.uleb128 0x3
 1664 0058 08       		.uleb128 0x8
 1665 0059 3A       		.uleb128 0x3a
 1666 005a 0B       		.uleb128 0xb
 1667 005b 3B       		.uleb128 0x3b
 1668 005c 0B       		.uleb128 0xb
 1669 005d 49       		.uleb128 0x49
 1670 005e 13       		.uleb128 0x13
 1671 005f 38       		.uleb128 0x38
 1672 0060 0B       		.uleb128 0xb
 1673 0061 00       		.byte	0
 1674 0062 00       		.byte	0
 1675 0063 08       		.uleb128 0x8
 1676 0064 0D       		.uleb128 0xd
 1677 0065 00       		.byte	0
ARM GAS  /tmp/cc83RhQM.s 			page 46


 1678 0066 03       		.uleb128 0x3
 1679 0067 08       		.uleb128 0x8
 1680 0068 3A       		.uleb128 0x3a
 1681 0069 0B       		.uleb128 0xb
 1682 006a 3B       		.uleb128 0x3b
 1683 006b 05       		.uleb128 0x5
 1684 006c 49       		.uleb128 0x49
 1685 006d 13       		.uleb128 0x13
 1686 006e 38       		.uleb128 0x38
 1687 006f 0B       		.uleb128 0xb
 1688 0070 00       		.byte	0
 1689 0071 00       		.byte	0
 1690 0072 09       		.uleb128 0x9
 1691 0073 0D       		.uleb128 0xd
 1692 0074 00       		.byte	0
 1693 0075 03       		.uleb128 0x3
 1694 0076 0E       		.uleb128 0xe
 1695 0077 3A       		.uleb128 0x3a
 1696 0078 0B       		.uleb128 0xb
 1697 0079 3B       		.uleb128 0x3b
 1698 007a 05       		.uleb128 0x5
 1699 007b 49       		.uleb128 0x49
 1700 007c 13       		.uleb128 0x13
 1701 007d 38       		.uleb128 0x38
 1702 007e 0B       		.uleb128 0xb
 1703 007f 00       		.byte	0
 1704 0080 00       		.byte	0
 1705 0081 0A       		.uleb128 0xa
 1706 0082 0F       		.uleb128 0xf
 1707 0083 00       		.byte	0
 1708 0084 0B       		.uleb128 0xb
 1709 0085 0B       		.uleb128 0xb
 1710 0086 49       		.uleb128 0x49
 1711 0087 13       		.uleb128 0x13
 1712 0088 00       		.byte	0
 1713 0089 00       		.byte	0
 1714 008a 0B       		.uleb128 0xb
 1715 008b 13       		.uleb128 0x13
 1716 008c 01       		.byte	0x1
 1717 008d 03       		.uleb128 0x3
 1718 008e 0E       		.uleb128 0xe
 1719 008f 0B       		.uleb128 0xb
 1720 0090 0B       		.uleb128 0xb
 1721 0091 3A       		.uleb128 0x3a
 1722 0092 0B       		.uleb128 0xb
 1723 0093 3B       		.uleb128 0x3b
 1724 0094 05       		.uleb128 0x5
 1725 0095 01       		.uleb128 0x1
 1726 0096 13       		.uleb128 0x13
 1727 0097 00       		.byte	0
 1728 0098 00       		.byte	0
 1729 0099 0C       		.uleb128 0xc
 1730 009a 15       		.uleb128 0x15
 1731 009b 01       		.byte	0x1
 1732 009c 27       		.uleb128 0x27
 1733 009d 19       		.uleb128 0x19
 1734 009e 01       		.uleb128 0x1
ARM GAS  /tmp/cc83RhQM.s 			page 47


 1735 009f 13       		.uleb128 0x13
 1736 00a0 00       		.byte	0
 1737 00a1 00       		.byte	0
 1738 00a2 0D       		.uleb128 0xd
 1739 00a3 05       		.uleb128 0x5
 1740 00a4 00       		.byte	0
 1741 00a5 49       		.uleb128 0x49
 1742 00a6 13       		.uleb128 0x13
 1743 00a7 00       		.byte	0
 1744 00a8 00       		.byte	0
 1745 00a9 0E       		.uleb128 0xe
 1746 00aa 0F       		.uleb128 0xf
 1747 00ab 00       		.byte	0
 1748 00ac 0B       		.uleb128 0xb
 1749 00ad 0B       		.uleb128 0xb
 1750 00ae 00       		.byte	0
 1751 00af 00       		.byte	0
 1752 00b0 0F       		.uleb128 0xf
 1753 00b1 13       		.uleb128 0x13
 1754 00b2 01       		.byte	0x1
 1755 00b3 0B       		.uleb128 0xb
 1756 00b4 0B       		.uleb128 0xb
 1757 00b5 3A       		.uleb128 0x3a
 1758 00b6 0B       		.uleb128 0xb
 1759 00b7 3B       		.uleb128 0x3b
 1760 00b8 0B       		.uleb128 0xb
 1761 00b9 01       		.uleb128 0x1
 1762 00ba 13       		.uleb128 0x13
 1763 00bb 00       		.byte	0
 1764 00bc 00       		.byte	0
 1765 00bd 10       		.uleb128 0x10
 1766 00be 17       		.uleb128 0x17
 1767 00bf 01       		.byte	0x1
 1768 00c0 0B       		.uleb128 0xb
 1769 00c1 0B       		.uleb128 0xb
 1770 00c2 3A       		.uleb128 0x3a
 1771 00c3 0B       		.uleb128 0xb
 1772 00c4 3B       		.uleb128 0x3b
 1773 00c5 0B       		.uleb128 0xb
 1774 00c6 01       		.uleb128 0x1
 1775 00c7 13       		.uleb128 0x13
 1776 00c8 00       		.byte	0
 1777 00c9 00       		.byte	0
 1778 00ca 11       		.uleb128 0x11
 1779 00cb 0D       		.uleb128 0xd
 1780 00cc 00       		.byte	0
 1781 00cd 03       		.uleb128 0x3
 1782 00ce 0E       		.uleb128 0xe
 1783 00cf 3A       		.uleb128 0x3a
 1784 00d0 0B       		.uleb128 0xb
 1785 00d1 3B       		.uleb128 0x3b
 1786 00d2 0B       		.uleb128 0xb
 1787 00d3 49       		.uleb128 0x49
 1788 00d4 13       		.uleb128 0x13
 1789 00d5 00       		.byte	0
 1790 00d6 00       		.byte	0
 1791 00d7 12       		.uleb128 0x12
ARM GAS  /tmp/cc83RhQM.s 			page 48


 1792 00d8 0D       		.uleb128 0xd
 1793 00d9 00       		.byte	0
 1794 00da 03       		.uleb128 0x3
 1795 00db 0E       		.uleb128 0xe
 1796 00dc 3A       		.uleb128 0x3a
 1797 00dd 0B       		.uleb128 0xb
 1798 00de 3B       		.uleb128 0x3b
 1799 00df 05       		.uleb128 0x5
 1800 00e0 49       		.uleb128 0x49
 1801 00e1 13       		.uleb128 0x13
 1802 00e2 00       		.byte	0
 1803 00e3 00       		.byte	0
 1804 00e4 13       		.uleb128 0x13
 1805 00e5 26       		.uleb128 0x26
 1806 00e6 00       		.byte	0
 1807 00e7 49       		.uleb128 0x49
 1808 00e8 13       		.uleb128 0x13
 1809 00e9 00       		.byte	0
 1810 00ea 00       		.byte	0
 1811 00eb 14       		.uleb128 0x14
 1812 00ec 35       		.uleb128 0x35
 1813 00ed 00       		.byte	0
 1814 00ee 49       		.uleb128 0x49
 1815 00ef 13       		.uleb128 0x13
 1816 00f0 00       		.byte	0
 1817 00f1 00       		.byte	0
 1818 00f2 15       		.uleb128 0x15
 1819 00f3 2E       		.uleb128 0x2e
 1820 00f4 01       		.byte	0x1
 1821 00f5 03       		.uleb128 0x3
 1822 00f6 0E       		.uleb128 0xe
 1823 00f7 3A       		.uleb128 0x3a
 1824 00f8 0B       		.uleb128 0xb
 1825 00f9 3B       		.uleb128 0x3b
 1826 00fa 05       		.uleb128 0x5
 1827 00fb 27       		.uleb128 0x27
 1828 00fc 19       		.uleb128 0x19
 1829 00fd 20       		.uleb128 0x20
 1830 00fe 0B       		.uleb128 0xb
 1831 00ff 01       		.uleb128 0x1
 1832 0100 13       		.uleb128 0x13
 1833 0101 00       		.byte	0
 1834 0102 00       		.byte	0
 1835 0103 16       		.uleb128 0x16
 1836 0104 05       		.uleb128 0x5
 1837 0105 00       		.byte	0
 1838 0106 03       		.uleb128 0x3
 1839 0107 0E       		.uleb128 0xe
 1840 0108 3A       		.uleb128 0x3a
 1841 0109 0B       		.uleb128 0xb
 1842 010a 3B       		.uleb128 0x3b
 1843 010b 05       		.uleb128 0x5
 1844 010c 49       		.uleb128 0x49
 1845 010d 13       		.uleb128 0x13
 1846 010e 00       		.byte	0
 1847 010f 00       		.byte	0
 1848 0110 17       		.uleb128 0x17
ARM GAS  /tmp/cc83RhQM.s 			page 49


 1849 0111 2E       		.uleb128 0x2e
 1850 0112 00       		.byte	0
 1851 0113 03       		.uleb128 0x3
 1852 0114 0E       		.uleb128 0xe
 1853 0115 3A       		.uleb128 0x3a
 1854 0116 0B       		.uleb128 0xb
 1855 0117 3B       		.uleb128 0x3b
 1856 0118 05       		.uleb128 0x5
 1857 0119 27       		.uleb128 0x27
 1858 011a 19       		.uleb128 0x19
 1859 011b 20       		.uleb128 0x20
 1860 011c 0B       		.uleb128 0xb
 1861 011d 00       		.byte	0
 1862 011e 00       		.byte	0
 1863 011f 18       		.uleb128 0x18
 1864 0120 2E       		.uleb128 0x2e
 1865 0121 01       		.byte	0x1
 1866 0122 3F       		.uleb128 0x3f
 1867 0123 19       		.uleb128 0x19
 1868 0124 03       		.uleb128 0x3
 1869 0125 0E       		.uleb128 0xe
 1870 0126 3A       		.uleb128 0x3a
 1871 0127 0B       		.uleb128 0xb
 1872 0128 3B       		.uleb128 0x3b
 1873 0129 0B       		.uleb128 0xb
 1874 012a 27       		.uleb128 0x27
 1875 012b 19       		.uleb128 0x19
 1876 012c 49       		.uleb128 0x49
 1877 012d 13       		.uleb128 0x13
 1878 012e 20       		.uleb128 0x20
 1879 012f 0B       		.uleb128 0xb
 1880 0130 01       		.uleb128 0x1
 1881 0131 13       		.uleb128 0x13
 1882 0132 00       		.byte	0
 1883 0133 00       		.byte	0
 1884 0134 19       		.uleb128 0x19
 1885 0135 05       		.uleb128 0x5
 1886 0136 00       		.byte	0
 1887 0137 03       		.uleb128 0x3
 1888 0138 0E       		.uleb128 0xe
 1889 0139 3A       		.uleb128 0x3a
 1890 013a 0B       		.uleb128 0xb
 1891 013b 3B       		.uleb128 0x3b
 1892 013c 0B       		.uleb128 0xb
 1893 013d 49       		.uleb128 0x49
 1894 013e 13       		.uleb128 0x13
 1895 013f 00       		.byte	0
 1896 0140 00       		.byte	0
 1897 0141 1A       		.uleb128 0x1a
 1898 0142 34       		.uleb128 0x34
 1899 0143 00       		.byte	0
 1900 0144 03       		.uleb128 0x3
 1901 0145 08       		.uleb128 0x8
 1902 0146 3A       		.uleb128 0x3a
 1903 0147 0B       		.uleb128 0xb
 1904 0148 3B       		.uleb128 0x3b
 1905 0149 0B       		.uleb128 0xb
ARM GAS  /tmp/cc83RhQM.s 			page 50


 1906 014a 49       		.uleb128 0x49
 1907 014b 13       		.uleb128 0x13
 1908 014c 00       		.byte	0
 1909 014d 00       		.byte	0
 1910 014e 1B       		.uleb128 0x1b
 1911 014f 34       		.uleb128 0x34
 1912 0150 00       		.byte	0
 1913 0151 03       		.uleb128 0x3
 1914 0152 0E       		.uleb128 0xe
 1915 0153 49       		.uleb128 0x49
 1916 0154 13       		.uleb128 0x13
 1917 0155 34       		.uleb128 0x34
 1918 0156 19       		.uleb128 0x19
 1919 0157 1C       		.uleb128 0x1c
 1920 0158 0E       		.uleb128 0xe
 1921 0159 00       		.byte	0
 1922 015a 00       		.byte	0
 1923 015b 1C       		.uleb128 0x1c
 1924 015c 01       		.uleb128 0x1
 1925 015d 01       		.byte	0x1
 1926 015e 49       		.uleb128 0x49
 1927 015f 13       		.uleb128 0x13
 1928 0160 01       		.uleb128 0x1
 1929 0161 13       		.uleb128 0x13
 1930 0162 00       		.byte	0
 1931 0163 00       		.byte	0
 1932 0164 1D       		.uleb128 0x1d
 1933 0165 21       		.uleb128 0x21
 1934 0166 00       		.byte	0
 1935 0167 49       		.uleb128 0x49
 1936 0168 13       		.uleb128 0x13
 1937 0169 2F       		.uleb128 0x2f
 1938 016a 0B       		.uleb128 0xb
 1939 016b 00       		.byte	0
 1940 016c 00       		.byte	0
 1941 016d 1E       		.uleb128 0x1e
 1942 016e 2E       		.uleb128 0x2e
 1943 016f 01       		.byte	0x1
 1944 0170 3F       		.uleb128 0x3f
 1945 0171 19       		.uleb128 0x19
 1946 0172 03       		.uleb128 0x3
 1947 0173 0E       		.uleb128 0xe
 1948 0174 3A       		.uleb128 0x3a
 1949 0175 0B       		.uleb128 0xb
 1950 0176 3B       		.uleb128 0x3b
 1951 0177 0B       		.uleb128 0xb
 1952 0178 27       		.uleb128 0x27
 1953 0179 19       		.uleb128 0x19
 1954 017a 11       		.uleb128 0x11
 1955 017b 01       		.uleb128 0x1
 1956 017c 12       		.uleb128 0x12
 1957 017d 06       		.uleb128 0x6
 1958 017e 40       		.uleb128 0x40
 1959 017f 18       		.uleb128 0x18
 1960 0180 9742     		.uleb128 0x2117
 1961 0182 19       		.uleb128 0x19
 1962 0183 01       		.uleb128 0x1
ARM GAS  /tmp/cc83RhQM.s 			page 51


 1963 0184 13       		.uleb128 0x13
 1964 0185 00       		.byte	0
 1965 0186 00       		.byte	0
 1966 0187 1F       		.uleb128 0x1f
 1967 0188 34       		.uleb128 0x34
 1968 0189 00       		.byte	0
 1969 018a 03       		.uleb128 0x3
 1970 018b 0E       		.uleb128 0xe
 1971 018c 3A       		.uleb128 0x3a
 1972 018d 0B       		.uleb128 0xb
 1973 018e 3B       		.uleb128 0x3b
 1974 018f 0B       		.uleb128 0xb
 1975 0190 49       		.uleb128 0x49
 1976 0191 13       		.uleb128 0x13
 1977 0192 3F       		.uleb128 0x3f
 1978 0193 19       		.uleb128 0x19
 1979 0194 3C       		.uleb128 0x3c
 1980 0195 19       		.uleb128 0x19
 1981 0196 00       		.byte	0
 1982 0197 00       		.byte	0
 1983 0198 20       		.uleb128 0x20
 1984 0199 21       		.uleb128 0x21
 1985 019a 00       		.byte	0
 1986 019b 00       		.byte	0
 1987 019c 00       		.byte	0
 1988 019d 21       		.uleb128 0x21
 1989 019e 2E       		.uleb128 0x2e
 1990 019f 01       		.byte	0x1
 1991 01a0 31       		.uleb128 0x31
 1992 01a1 13       		.uleb128 0x13
 1993 01a2 11       		.uleb128 0x11
 1994 01a3 01       		.uleb128 0x1
 1995 01a4 12       		.uleb128 0x12
 1996 01a5 06       		.uleb128 0x6
 1997 01a6 40       		.uleb128 0x40
 1998 01a7 18       		.uleb128 0x18
 1999 01a8 9742     		.uleb128 0x2117
 2000 01aa 19       		.uleb128 0x19
 2001 01ab 01       		.uleb128 0x1
 2002 01ac 13       		.uleb128 0x13
 2003 01ad 00       		.byte	0
 2004 01ae 00       		.byte	0
 2005 01af 22       		.uleb128 0x22
 2006 01b0 05       		.uleb128 0x5
 2007 01b1 00       		.byte	0
 2008 01b2 31       		.uleb128 0x31
 2009 01b3 13       		.uleb128 0x13
 2010 01b4 02       		.uleb128 0x2
 2011 01b5 17       		.uleb128 0x17
 2012 01b6 00       		.byte	0
 2013 01b7 00       		.byte	0
 2014 01b8 23       		.uleb128 0x23
 2015 01b9 34       		.uleb128 0x34
 2016 01ba 00       		.byte	0
 2017 01bb 31       		.uleb128 0x31
 2018 01bc 13       		.uleb128 0x13
 2019 01bd 02       		.uleb128 0x2
ARM GAS  /tmp/cc83RhQM.s 			page 52


 2020 01be 17       		.uleb128 0x17
 2021 01bf 00       		.byte	0
 2022 01c0 00       		.byte	0
 2023 01c1 24       		.uleb128 0x24
 2024 01c2 34       		.uleb128 0x34
 2025 01c3 00       		.byte	0
 2026 01c4 31       		.uleb128 0x31
 2027 01c5 13       		.uleb128 0x13
 2028 01c6 00       		.byte	0
 2029 01c7 00       		.byte	0
 2030 01c8 25       		.uleb128 0x25
 2031 01c9 2E       		.uleb128 0x2e
 2032 01ca 01       		.byte	0x1
 2033 01cb 3F       		.uleb128 0x3f
 2034 01cc 19       		.uleb128 0x19
 2035 01cd 03       		.uleb128 0x3
 2036 01ce 0E       		.uleb128 0xe
 2037 01cf 3A       		.uleb128 0x3a
 2038 01d0 0B       		.uleb128 0xb
 2039 01d1 3B       		.uleb128 0x3b
 2040 01d2 0B       		.uleb128 0xb
 2041 01d3 27       		.uleb128 0x27
 2042 01d4 19       		.uleb128 0x19
 2043 01d5 49       		.uleb128 0x49
 2044 01d6 13       		.uleb128 0x13
 2045 01d7 11       		.uleb128 0x11
 2046 01d8 01       		.uleb128 0x1
 2047 01d9 12       		.uleb128 0x12
 2048 01da 06       		.uleb128 0x6
 2049 01db 40       		.uleb128 0x40
 2050 01dc 18       		.uleb128 0x18
 2051 01dd 9742     		.uleb128 0x2117
 2052 01df 19       		.uleb128 0x19
 2053 01e0 01       		.uleb128 0x1
 2054 01e1 13       		.uleb128 0x13
 2055 01e2 00       		.byte	0
 2056 01e3 00       		.byte	0
 2057 01e4 26       		.uleb128 0x26
 2058 01e5 05       		.uleb128 0x5
 2059 01e6 00       		.byte	0
 2060 01e7 03       		.uleb128 0x3
 2061 01e8 0E       		.uleb128 0xe
 2062 01e9 3A       		.uleb128 0x3a
 2063 01ea 0B       		.uleb128 0xb
 2064 01eb 3B       		.uleb128 0x3b
 2065 01ec 0B       		.uleb128 0xb
 2066 01ed 49       		.uleb128 0x49
 2067 01ee 13       		.uleb128 0x13
 2068 01ef 02       		.uleb128 0x2
 2069 01f0 17       		.uleb128 0x17
 2070 01f1 00       		.byte	0
 2071 01f2 00       		.byte	0
 2072 01f3 27       		.uleb128 0x27
 2073 01f4 1D       		.uleb128 0x1d
 2074 01f5 01       		.byte	0x1
 2075 01f6 31       		.uleb128 0x31
 2076 01f7 13       		.uleb128 0x13
ARM GAS  /tmp/cc83RhQM.s 			page 53


 2077 01f8 11       		.uleb128 0x11
 2078 01f9 01       		.uleb128 0x1
 2079 01fa 12       		.uleb128 0x12
 2080 01fb 06       		.uleb128 0x6
 2081 01fc 58       		.uleb128 0x58
 2082 01fd 0B       		.uleb128 0xb
 2083 01fe 59       		.uleb128 0x59
 2084 01ff 0B       		.uleb128 0xb
 2085 0200 01       		.uleb128 0x1
 2086 0201 13       		.uleb128 0x13
 2087 0202 00       		.byte	0
 2088 0203 00       		.byte	0
 2089 0204 28       		.uleb128 0x28
 2090 0205 1D       		.uleb128 0x1d
 2091 0206 01       		.byte	0x1
 2092 0207 31       		.uleb128 0x31
 2093 0208 13       		.uleb128 0x13
 2094 0209 11       		.uleb128 0x11
 2095 020a 01       		.uleb128 0x1
 2096 020b 12       		.uleb128 0x12
 2097 020c 06       		.uleb128 0x6
 2098 020d 58       		.uleb128 0x58
 2099 020e 0B       		.uleb128 0xb
 2100 020f 59       		.uleb128 0x59
 2101 0210 05       		.uleb128 0x5
 2102 0211 00       		.byte	0
 2103 0212 00       		.byte	0
 2104 0213 29       		.uleb128 0x29
 2105 0214 05       		.uleb128 0x5
 2106 0215 00       		.byte	0
 2107 0216 31       		.uleb128 0x31
 2108 0217 13       		.uleb128 0x13
 2109 0218 1C       		.uleb128 0x1c
 2110 0219 0B       		.uleb128 0xb
 2111 021a 00       		.byte	0
 2112 021b 00       		.byte	0
 2113 021c 2A       		.uleb128 0x2a
 2114 021d 0B       		.uleb128 0xb
 2115 021e 01       		.byte	0x1
 2116 021f 11       		.uleb128 0x11
 2117 0220 01       		.uleb128 0x1
 2118 0221 12       		.uleb128 0x12
 2119 0222 06       		.uleb128 0x6
 2120 0223 00       		.byte	0
 2121 0224 00       		.byte	0
 2122 0225 2B       		.uleb128 0x2b
 2123 0226 1D       		.uleb128 0x1d
 2124 0227 01       		.byte	0x1
 2125 0228 31       		.uleb128 0x31
 2126 0229 13       		.uleb128 0x13
 2127 022a 11       		.uleb128 0x11
 2128 022b 01       		.uleb128 0x1
 2129 022c 12       		.uleb128 0x12
 2130 022d 06       		.uleb128 0x6
 2131 022e 58       		.uleb128 0x58
 2132 022f 0B       		.uleb128 0xb
 2133 0230 59       		.uleb128 0x59
ARM GAS  /tmp/cc83RhQM.s 			page 54


 2134 0231 0B       		.uleb128 0xb
 2135 0232 00       		.byte	0
 2136 0233 00       		.byte	0
 2137 0234 2C       		.uleb128 0x2c
 2138 0235 2E       		.uleb128 0x2e
 2139 0236 00       		.byte	0
 2140 0237 3F       		.uleb128 0x3f
 2141 0238 19       		.uleb128 0x19
 2142 0239 03       		.uleb128 0x3
 2143 023a 0E       		.uleb128 0xe
 2144 023b 3A       		.uleb128 0x3a
 2145 023c 0B       		.uleb128 0xb
 2146 023d 3B       		.uleb128 0x3b
 2147 023e 0B       		.uleb128 0xb
 2148 023f 27       		.uleb128 0x27
 2149 0240 19       		.uleb128 0x19
 2150 0241 49       		.uleb128 0x49
 2151 0242 13       		.uleb128 0x13
 2152 0243 11       		.uleb128 0x11
 2153 0244 01       		.uleb128 0x1
 2154 0245 12       		.uleb128 0x12
 2155 0246 06       		.uleb128 0x6
 2156 0247 40       		.uleb128 0x40
 2157 0248 18       		.uleb128 0x18
 2158 0249 9742     		.uleb128 0x2117
 2159 024b 19       		.uleb128 0x19
 2160 024c 00       		.byte	0
 2161 024d 00       		.byte	0
 2162 024e 2D       		.uleb128 0x2d
 2163 024f 34       		.uleb128 0x34
 2164 0250 00       		.byte	0
 2165 0251 03       		.uleb128 0x3
 2166 0252 0E       		.uleb128 0xe
 2167 0253 3A       		.uleb128 0x3a
 2168 0254 0B       		.uleb128 0xb
 2169 0255 3B       		.uleb128 0x3b
 2170 0256 0B       		.uleb128 0xb
 2171 0257 49       		.uleb128 0x49
 2172 0258 13       		.uleb128 0x13
 2173 0259 02       		.uleb128 0x2
 2174 025a 18       		.uleb128 0x18
 2175 025b 00       		.byte	0
 2176 025c 00       		.byte	0
 2177 025d 2E       		.uleb128 0x2e
 2178 025e 34       		.uleb128 0x34
 2179 025f 00       		.byte	0
 2180 0260 03       		.uleb128 0x3
 2181 0261 0E       		.uleb128 0xe
 2182 0262 3A       		.uleb128 0x3a
 2183 0263 0B       		.uleb128 0xb
 2184 0264 3B       		.uleb128 0x3b
 2185 0265 05       		.uleb128 0x5
 2186 0266 49       		.uleb128 0x49
 2187 0267 13       		.uleb128 0x13
 2188 0268 3F       		.uleb128 0x3f
 2189 0269 19       		.uleb128 0x19
 2190 026a 3C       		.uleb128 0x3c
ARM GAS  /tmp/cc83RhQM.s 			page 55


 2191 026b 19       		.uleb128 0x19
 2192 026c 00       		.byte	0
 2193 026d 00       		.byte	0
 2194 026e 2F       		.uleb128 0x2f
 2195 026f 34       		.uleb128 0x34
 2196 0270 00       		.byte	0
 2197 0271 03       		.uleb128 0x3
 2198 0272 08       		.uleb128 0x8
 2199 0273 3A       		.uleb128 0x3a
 2200 0274 0B       		.uleb128 0xb
 2201 0275 3B       		.uleb128 0x3b
 2202 0276 05       		.uleb128 0x5
 2203 0277 49       		.uleb128 0x49
 2204 0278 13       		.uleb128 0x13
 2205 0279 3F       		.uleb128 0x3f
 2206 027a 19       		.uleb128 0x19
 2207 027b 3C       		.uleb128 0x3c
 2208 027c 19       		.uleb128 0x19
 2209 027d 00       		.byte	0
 2210 027e 00       		.byte	0
 2211 027f 00       		.byte	0
 2212              		.section	.debug_loc,"",%progbits
 2213              	.Ldebug_loc0:
 2214              	.LLST0:
 2215 0000 00000000 		.4byte	.LVL0
 2216 0004 10000000 		.4byte	.LVL1
 2217 0008 0100     		.2byte	0x1
 2218 000a 50       		.byte	0x50
 2219 000b 10000000 		.4byte	.LVL1
 2220 000f 18000000 		.4byte	.LVL3
 2221 0013 0300     		.2byte	0x3
 2222 0015 75       		.byte	0x75
 2223 0016 01       		.sleb128 1
 2224 0017 9F       		.byte	0x9f
 2225 0018 18000000 		.4byte	.LVL3
 2226 001c 20000000 		.4byte	.LVL4
 2227 0020 0100     		.2byte	0x1
 2228 0022 53       		.byte	0x53
 2229 0023 20000000 		.4byte	.LVL4
 2230 0027 30000000 		.4byte	.LFE240
 2231 002b 0800     		.2byte	0x8
 2232 002d F3       		.byte	0xf3
 2233 002e 01       		.uleb128 0x1
 2234 002f 51       		.byte	0x51
 2235 0030 1F       		.byte	0x1f
 2236 0031 71       		.byte	0x71
 2237 0032 00       		.sleb128 0
 2238 0033 1A       		.byte	0x1a
 2239 0034 9F       		.byte	0x9f
 2240 0035 00000000 		.4byte	0
 2241 0039 00000000 		.4byte	0
 2242              	.LLST1:
 2243 003d 00000000 		.4byte	.LVL0
 2244 0041 16000000 		.4byte	.LVL2
 2245 0045 0100     		.2byte	0x1
 2246 0047 51       		.byte	0x51
 2247 0048 16000000 		.4byte	.LVL2
ARM GAS  /tmp/cc83RhQM.s 			page 56


 2248 004c 18000000 		.4byte	.LVL3
 2249 0050 0400     		.2byte	0x4
 2250 0052 73       		.byte	0x73
 2251 0053 00       		.sleb128 0
 2252 0054 1F       		.byte	0x1f
 2253 0055 9F       		.byte	0x9f
 2254 0056 18000000 		.4byte	.LVL3
 2255 005a 30000000 		.4byte	.LFE240
 2256 005e 0400     		.2byte	0x4
 2257 0060 F3       		.byte	0xf3
 2258 0061 01       		.uleb128 0x1
 2259 0062 51       		.byte	0x51
 2260 0063 9F       		.byte	0x9f
 2261 0064 00000000 		.4byte	0
 2262 0068 00000000 		.4byte	0
 2263              	.LLST2:
 2264 006c 18000000 		.4byte	.LVL3
 2265 0070 22000000 		.4byte	.LVL5
 2266 0074 0100     		.2byte	0x1
 2267 0076 50       		.byte	0x50
 2268 0077 22000000 		.4byte	.LVL5
 2269 007b 30000000 		.4byte	.LFE240
 2270 007f 1200     		.2byte	0x12
 2271 0081 03       		.byte	0x3
 2272 0082 00000000 		.4byte	nextmem
 2273 0086 06       		.byte	0x6
 2274 0087 F3       		.byte	0xf3
 2275 0088 01       		.uleb128 0x1
 2276 0089 51       		.byte	0x51
 2277 008a 22       		.byte	0x22
 2278 008b 31       		.byte	0x31
 2279 008c 1C       		.byte	0x1c
 2280 008d F3       		.byte	0xf3
 2281 008e 01       		.uleb128 0x1
 2282 008f 51       		.byte	0x51
 2283 0090 1F       		.byte	0x1f
 2284 0091 1A       		.byte	0x1a
 2285 0092 9F       		.byte	0x9f
 2286 0093 00000000 		.4byte	0
 2287 0097 00000000 		.4byte	0
 2288              	.LLST3:
 2289 009b 00000000 		.4byte	.LVL6
 2290 009f 1E000000 		.4byte	.LVL9
 2291 00a3 0100     		.2byte	0x1
 2292 00a5 50       		.byte	0x50
 2293 00a6 1E000000 		.4byte	.LVL9
 2294 00aa 40000000 		.4byte	.LFE241
 2295 00ae 0400     		.2byte	0x4
 2296 00b0 F3       		.byte	0xf3
 2297 00b1 01       		.uleb128 0x1
 2298 00b2 50       		.byte	0x50
 2299 00b3 9F       		.byte	0x9f
 2300 00b4 00000000 		.4byte	0
 2301 00b8 00000000 		.4byte	0
 2302              	.LLST4:
 2303 00bc 00000000 		.4byte	.LVL6
 2304 00c0 18000000 		.4byte	.LVL8
ARM GAS  /tmp/cc83RhQM.s 			page 57


 2305 00c4 0100     		.2byte	0x1
 2306 00c6 51       		.byte	0x51
 2307 00c7 18000000 		.4byte	.LVL8
 2308 00cb 22000000 		.4byte	.LVL10
 2309 00cf 0400     		.2byte	0x4
 2310 00d1 71       		.byte	0x71
 2311 00d2 00       		.sleb128 0
 2312 00d3 1F       		.byte	0x1f
 2313 00d4 9F       		.byte	0x9f
 2314 00d5 22000000 		.4byte	.LVL10
 2315 00d9 40000000 		.4byte	.LFE241
 2316 00dd 0400     		.2byte	0x4
 2317 00df F3       		.byte	0xf3
 2318 00e0 01       		.uleb128 0x1
 2319 00e1 51       		.byte	0x51
 2320 00e2 9F       		.byte	0x9f
 2321 00e3 00000000 		.4byte	0
 2322 00e7 00000000 		.4byte	0
 2323              	.LLST5:
 2324 00eb 08000000 		.4byte	.LVL7
 2325 00ef 18000000 		.4byte	.LVL8
 2326 00f3 0100     		.2byte	0x1
 2327 00f5 51       		.byte	0x51
 2328 00f6 18000000 		.4byte	.LVL8
 2329 00fa 22000000 		.4byte	.LVL10
 2330 00fe 0400     		.2byte	0x4
 2331 0100 71       		.byte	0x71
 2332 0101 00       		.sleb128 0
 2333 0102 1F       		.byte	0x1f
 2334 0103 9F       		.byte	0x9f
 2335 0104 22000000 		.4byte	.LVL10
 2336 0108 40000000 		.4byte	.LFE241
 2337 010c 0400     		.2byte	0x4
 2338 010e F3       		.byte	0xf3
 2339 010f 01       		.uleb128 0x1
 2340 0110 51       		.byte	0x51
 2341 0111 9F       		.byte	0x9f
 2342 0112 00000000 		.4byte	0
 2343 0116 00000000 		.4byte	0
 2344              	.LLST6:
 2345 011a 08000000 		.4byte	.LVL7
 2346 011e 1E000000 		.4byte	.LVL9
 2347 0122 0100     		.2byte	0x1
 2348 0124 50       		.byte	0x50
 2349 0125 1E000000 		.4byte	.LVL9
 2350 0129 22000000 		.4byte	.LVL10
 2351 012d 0400     		.2byte	0x4
 2352 012f F3       		.byte	0xf3
 2353 0130 01       		.uleb128 0x1
 2354 0131 50       		.byte	0x50
 2355 0132 9F       		.byte	0x9f
 2356 0133 22000000 		.4byte	.LVL10
 2357 0137 28000000 		.4byte	.LVL11
 2358 013b 0100     		.2byte	0x1
 2359 013d 51       		.byte	0x51
 2360 013e 28000000 		.4byte	.LVL11
 2361 0142 34000000 		.4byte	.LVL13
ARM GAS  /tmp/cc83RhQM.s 			page 58


 2362 0146 0800     		.2byte	0x8
 2363 0148 F3       		.byte	0xf3
 2364 0149 01       		.uleb128 0x1
 2365 014a 51       		.byte	0x51
 2366 014b 1F       		.byte	0x1f
 2367 014c 75       		.byte	0x75
 2368 014d 00       		.sleb128 0
 2369 014e 1A       		.byte	0x1a
 2370 014f 9F       		.byte	0x9f
 2371 0150 34000000 		.4byte	.LVL13
 2372 0154 40000000 		.4byte	.LFE241
 2373 0158 0F00     		.2byte	0xf
 2374 015a F3       		.byte	0xf3
 2375 015b 01       		.uleb128 0x1
 2376 015c 51       		.byte	0x51
 2377 015d F3       		.byte	0xf3
 2378 015e 01       		.uleb128 0x1
 2379 015f 50       		.byte	0x50
 2380 0160 22       		.byte	0x22
 2381 0161 31       		.byte	0x31
 2382 0162 1C       		.byte	0x1c
 2383 0163 F3       		.byte	0xf3
 2384 0164 01       		.uleb128 0x1
 2385 0165 51       		.byte	0x51
 2386 0166 1F       		.byte	0x1f
 2387 0167 1A       		.byte	0x1a
 2388 0168 9F       		.byte	0x9f
 2389 0169 00000000 		.4byte	0
 2390 016d 00000000 		.4byte	0
 2391              	.LLST7:
 2392 0171 22000000 		.4byte	.LVL10
 2393 0175 2C000000 		.4byte	.LVL12
 2394 0179 0100     		.2byte	0x1
 2395 017b 50       		.byte	0x50
 2396 017c 2C000000 		.4byte	.LVL12
 2397 0180 40000000 		.4byte	.LFE241
 2398 0184 1200     		.2byte	0x12
 2399 0186 03       		.byte	0x3
 2400 0187 00000000 		.4byte	nextmem
 2401 018b 06       		.byte	0x6
 2402 018c F3       		.byte	0xf3
 2403 018d 01       		.uleb128 0x1
 2404 018e 51       		.byte	0x51
 2405 018f 22       		.byte	0x22
 2406 0190 31       		.byte	0x31
 2407 0191 1C       		.byte	0x1c
 2408 0192 F3       		.byte	0xf3
 2409 0193 01       		.uleb128 0x1
 2410 0194 51       		.byte	0x51
 2411 0195 1F       		.byte	0x1f
 2412 0196 1A       		.byte	0x1a
 2413 0197 9F       		.byte	0x9f
 2414 0198 00000000 		.4byte	0
 2415 019c 00000000 		.4byte	0
 2416              		.section	.debug_aranges,"",%progbits
 2417 0000 34000000 		.4byte	0x34
 2418 0004 0200     		.2byte	0x2
ARM GAS  /tmp/cc83RhQM.s 			page 59


 2419 0006 00000000 		.4byte	.Ldebug_info0
 2420 000a 04       		.byte	0x4
 2421 000b 00       		.byte	0
 2422 000c 0000     		.2byte	0
 2423 000e 0000     		.2byte	0
 2424 0010 00000000 		.4byte	.LFB239
 2425 0014 20000000 		.4byte	.LFE239-.LFB239
 2426 0018 00000000 		.4byte	.LFB240
 2427 001c 30000000 		.4byte	.LFE240-.LFB240
 2428 0020 00000000 		.4byte	.LFB241
 2429 0024 40000000 		.4byte	.LFE241-.LFB241
 2430 0028 00000000 		.4byte	.LFB242
 2431 002c 14000000 		.4byte	.LFE242-.LFB242
 2432 0030 00000000 		.4byte	0
 2433 0034 00000000 		.4byte	0
 2434              		.section	.debug_ranges,"",%progbits
 2435              	.Ldebug_ranges0:
 2436 0000 00000000 		.4byte	.LFB239
 2437 0004 20000000 		.4byte	.LFE239
 2438 0008 00000000 		.4byte	.LFB240
 2439 000c 30000000 		.4byte	.LFE240
 2440 0010 00000000 		.4byte	.LFB241
 2441 0014 40000000 		.4byte	.LFE241
 2442 0018 00000000 		.4byte	.LFB242
 2443 001c 14000000 		.4byte	.LFE242
 2444 0020 00000000 		.4byte	0
 2445 0024 00000000 		.4byte	0
 2446              		.section	.debug_line,"",%progbits
 2447              	.Ldebug_line0:
 2448 0000 64030000 		.section	.debug_str,"MS",%progbits,1
 2448      0200E002 
 2448      00000201 
 2448      FB0E0D00 
 2448      01010101 
 2449              	.LASF46:
 2450 0000 63685F74 		.ascii	"ch_threads_list\000"
 2450      68726561 
 2450      64735F6C 
 2450      69737400 
 2451              	.LASF83:
 2452 0010 77746D74 		.ascii	"wtmtxp\000"
 2452      787000
 2453              	.LASF76:
 2454 0017 746D5F63 		.ascii	"tm_calibration_t\000"
 2454      616C6962 
 2454      72617469 
 2454      6F6E5F74 
 2454      00
 2455              	.LASF71:
 2456 0028 72656761 		.ascii	"regarm_t\000"
 2456      726D5F74 
 2456      00
 2457              	.LASF100:
 2458 0031 6368436F 		.ascii	"chCoreAllocAlignedI\000"
 2458      7265416C 
 2458      6C6F6341 
 2458      6C69676E 
ARM GAS  /tmp/cc83RhQM.s 			page 60


 2458      65644900 
 2459              	.LASF35:
 2460 0045 666C6167 		.ascii	"flags\000"
 2460      7300
 2461              	.LASF26:
 2462 004b 73797374 		.ascii	"systime_t\000"
 2462      696D655F 
 2462      7400
 2463              	.LASF41:
 2464 0055 7265616C 		.ascii	"realprio\000"
 2464      7072696F 
 2464      00
 2465              	.LASF39:
 2466 005e 6570656E 		.ascii	"epending\000"
 2466      64696E67 
 2466      00
 2467              	.LASF0:
 2468 0067 756E7369 		.ascii	"unsigned int\000"
 2468      676E6564 
 2468      20696E74 
 2468      00
 2469              	.LASF47:
 2470 0074 6E657874 		.ascii	"next\000"
 2470      00
 2471              	.LASF44:
 2472 0079 74687265 		.ascii	"threads_list_t\000"
 2472      6164735F 
 2472      6C697374 
 2472      5F7400
 2473              	.LASF7:
 2474 0088 5F5F696E 		.ascii	"__int32_t\000"
 2474      7433325F 
 2474      7400
 2475              	.LASF36:
 2476 0092 72656673 		.ascii	"refs\000"
 2476      00
 2477              	.LASF79:
 2478 0097 77746F62 		.ascii	"wtobjp\000"
 2478      6A7000
 2479              	.LASF90:
 2480 009e 706F7274 		.ascii	"port_lock\000"
 2480      5F6C6F63 
 2480      6B00
 2481              	.LASF68:
 2482 00a8 76746C69 		.ascii	"vtlist\000"
 2482      737400
 2483              	.LASF73:
 2484 00af 706F7274 		.ascii	"port_context\000"
 2484      5F636F6E 
 2484      74657874 
 2484      00
 2485              	.LASF52:
 2486 00bc 63685F72 		.ascii	"ch_ready_list\000"
 2486      65616479 
 2486      5F6C6973 
 2486      7400
 2487              	.LASF58:
ARM GAS  /tmp/cc83RhQM.s 			page 61


 2488 00ca 66756E63 		.ascii	"func\000"
 2488      00
 2489              	.LASF84:
 2490 00cf 65776D61 		.ascii	"ewmask\000"
 2490      736B00
 2491              	.LASF50:
 2492 00d6 70726576 		.ascii	"prev\000"
 2492      00
 2493              	.LASF49:
 2494 00db 63685F74 		.ascii	"ch_threads_queue\000"
 2494      68726561 
 2494      64735F71 
 2494      75657565 
 2494      00
 2495              	.LASF54:
 2496 00ec 76746675 		.ascii	"vtfunc_t\000"
 2496      6E635F74 
 2496      00
 2497              	.LASF111:
 2498 00f5 6368436F 		.ascii	"chCoreGetStatusX\000"
 2498      72654765 
 2498      74537461 
 2498      74757358 
 2498      00
 2499              	.LASF63:
 2500 0106 63685F73 		.ascii	"ch_system_debug\000"
 2500      79737465 
 2500      6D5F6465 
 2500      62756700 
 2501              	.LASF16:
 2502 0116 75696E74 		.ascii	"uint32_t\000"
 2502      33325F74 
 2502      00
 2503              	.LASF81:
 2504 011f 73656E74 		.ascii	"sentmsg\000"
 2504      6D736700 
 2505              	.LASF24:
 2506 0127 6576656E 		.ascii	"eventmask_t\000"
 2506      746D6173 
 2506      6B5F7400 
 2507              	.LASF85:
 2508 0133 63685F73 		.ascii	"ch_semaphore\000"
 2508      656D6170 
 2508      686F7265 
 2508      00
 2509              	.LASF22:
 2510 0140 74707269 		.ascii	"tprio_t\000"
 2510      6F5F7400 
 2511              	.LASF56:
 2512 0148 63685F76 		.ascii	"ch_virtual_timer\000"
 2512      69727475 
 2512      616C5F74 
 2512      696D6572 
 2512      00
 2513              	.LASF13:
 2514 0159 6C6F6E67 		.ascii	"long long unsigned int\000"
 2514      206C6F6E 
ARM GAS  /tmp/cc83RhQM.s 			page 62


 2514      6720756E 
 2514      7369676E 
 2514      65642069 
 2515              	.LASF25:
 2516 0170 636E745F 		.ascii	"cnt_t\000"
 2516      7400
 2517              	.LASF98:
 2518 0176 63685379 		.ascii	"chSysUnlock\000"
 2518      73556E6C 
 2518      6F636B00 
 2519              	.LASF87:
 2520 0182 6F776E65 		.ascii	"owner\000"
 2520      7200
 2521              	.LASF48:
 2522 0188 74687265 		.ascii	"threads_queue_t\000"
 2522      6164735F 
 2522      71756575 
 2522      655F7400 
 2523              	.LASF93:
 2524 0198 76616C75 		.ascii	"value\000"
 2524      6500
 2525              	.LASF40:
 2526 019e 6D74786C 		.ascii	"mtxlist\000"
 2526      69737400 
 2527              	.LASF60:
 2528 01a6 63685F76 		.ascii	"ch_virtual_timers_list\000"
 2528      69727475 
 2528      616C5F74 
 2528      696D6572 
 2528      735F6C69 
 2529              	.LASF27:
 2530 01bd 74687265 		.ascii	"thread_t\000"
 2530      61645F74 
 2530      00
 2531              	.LASF109:
 2532 01c6 5F636F72 		.ascii	"_core_init\000"
 2532      655F696E 
 2532      697400
 2533              	.LASF101:
 2534 01d1 5F5F6865 		.ascii	"__heap_base__\000"
 2534      61705F62 
 2534      6173655F 
 2534      5F00
 2535              	.LASF2:
 2536 01df 73697A65 		.ascii	"size_t\000"
 2536      5F7400
 2537              	.LASF77:
 2538 01e6 7264796D 		.ascii	"rdymsg\000"
 2538      736700
 2539              	.LASF75:
 2540 01ed 6F666673 		.ascii	"offset\000"
 2540      657400
 2541              	.LASF99:
 2542 01f4 5F5F6675 		.ascii	"__func__.5702\000"
 2542      6E635F5F 
 2542      2E353730 
 2542      3200
ARM GAS  /tmp/cc83RhQM.s 			page 63


 2543              	.LASF86:
 2544 0202 63685F6D 		.ascii	"ch_mutex\000"
 2544      75746578 
 2544      00
 2545              	.LASF12:
 2546 020b 5F5F7569 		.ascii	"__uint64_t\000"
 2546      6E743634 
 2546      5F7400
 2547              	.LASF108:
 2548 0216 2F6E6673 		.ascii	"/nfs/nfs7/home/npalumbo/p442-submissions/lab4\000"
 2548      2F6E6673 
 2548      372F686F 
 2548      6D652F6E 
 2548      70616C75 
 2549              	.LASF92:
 2550 0244 63685379 		.ascii	"chSysLock\000"
 2550      734C6F63 
 2550      6B00
 2551              	.LASF29:
 2552 024e 7072696F 		.ascii	"prio\000"
 2552      00
 2553              	.LASF88:
 2554 0253 63686172 		.ascii	"char\000"
 2554      00
 2555              	.LASF43:
 2556 0258 74687265 		.ascii	"thread_reference_t\000"
 2556      61645F72 
 2556      65666572 
 2556      656E6365 
 2556      5F7400
 2557              	.LASF33:
 2558 026b 77616261 		.ascii	"wabase\000"
 2558      736500
 2559              	.LASF20:
 2560 0272 74737461 		.ascii	"tstate_t\000"
 2560      74655F74 
 2560      00
 2561              	.LASF14:
 2562 027b 75696E74 		.ascii	"uint8_t\000"
 2562      385F7400 
 2563              	.LASF38:
 2564 0283 6D736771 		.ascii	"msgqueue\000"
 2564      75657565 
 2564      00
 2565              	.LASF45:
 2566 028c 63685F74 		.ascii	"ch_thread\000"
 2566      68726561 
 2566      6400
 2567              	.LASF62:
 2568 0296 73797374 		.ascii	"system_debug_t\000"
 2568      656D5F64 
 2568      65627567 
 2568      5F7400
 2569              	.LASF11:
 2570 02a5 6C6F6E67 		.ascii	"long long int\000"
 2570      206C6F6E 
 2570      6720696E 
ARM GAS  /tmp/cc83RhQM.s 			page 64


 2570      7400
 2571              	.LASF23:
 2572 02b3 6D73675F 		.ascii	"msg_t\000"
 2572      7400
 2573              	.LASF55:
 2574 02b9 76697274 		.ascii	"virtual_timer_t\000"
 2574      75616C5F 
 2574      74696D65 
 2574      725F7400 
 2575              	.LASF94:
 2576 02c9 73697A65 		.ascii	"size\000"
 2576      00
 2577              	.LASF64:
 2578 02ce 70616E69 		.ascii	"panic_msg\000"
 2578      635F6D73 
 2578      6700
 2579              	.LASF19:
 2580 02d8 746D6F64 		.ascii	"tmode_t\000"
 2580      655F7400 
 2581              	.LASF69:
 2582 02e0 6D61696E 		.ascii	"mainthread\000"
 2582      74687265 
 2582      616400
 2583              	.LASF18:
 2584 02eb 7274636E 		.ascii	"rtcnt_t\000"
 2584      745F7400 
 2585              	.LASF5:
 2586 02f3 73686F72 		.ascii	"short int\000"
 2586      7420696E 
 2586      7400
 2587              	.LASF8:
 2588 02fd 6C6F6E67 		.ascii	"long int\000"
 2588      20696E74 
 2588      00
 2589              	.LASF74:
 2590 0306 706F7274 		.ascii	"port_intctx\000"
 2590      5F696E74 
 2590      63747800 
 2591              	.LASF105:
 2592 0312 49544D5F 		.ascii	"ITM_RxBuffer\000"
 2592      52784275 
 2592      66666572 
 2592      00
 2593              	.LASF66:
 2594 031f 63685F73 		.ascii	"ch_system\000"
 2594      79737465 
 2594      6D00
 2595              	.LASF97:
 2596 0329 5F5F7365 		.ascii	"__set_BASEPRI\000"
 2596      745F4241 
 2596      53455052 
 2596      4900
 2597              	.LASF61:
 2598 0337 6C617374 		.ascii	"lasttime\000"
 2598      74696D65 
 2598      00
 2599              	.LASF17:
ARM GAS  /tmp/cc83RhQM.s 			page 65


 2600 0340 75696E74 		.ascii	"uint64_t\000"
 2600      36345F74 
 2600      00
 2601              	.LASF67:
 2602 0349 726C6973 		.ascii	"rlist\000"
 2602      7400
 2603              	.LASF3:
 2604 034f 5F5F7569 		.ascii	"__uint8_t\000"
 2604      6E74385F 
 2604      7400
 2605              	.LASF32:
 2606 0359 6E616D65 		.ascii	"name\000"
 2606      00
 2607              	.LASF106:
 2608 035e 474E5520 		.ascii	"GNU C 4.8.4 20140526 (release) [ARM/embedded-4_8-br"
 2608      4320342E 
 2608      382E3420 
 2608      32303134 
 2608      30353236 
 2609 0391 616E6368 		.ascii	"anch revision 211358] -mcpu=cortex-m4 -mno-thumb-in"
 2609      20726576 
 2609      6973696F 
 2609      6E203231 
 2609      31333538 
 2610 03c4 74657277 		.ascii	"terwork -mthumb -ggdb -O2 -fomit-frame-pointer -fal"
 2610      6F726B20 
 2610      2D6D7468 
 2610      756D6220 
 2610      2D676764 
 2611 03f7 69676E2D 		.ascii	"ign-functions=16 -ffunction-sections -fdata-section"
 2611      66756E63 
 2611      74696F6E 
 2611      733D3136 
 2611      202D6666 
 2612 042a 73202D66 		.ascii	"s -fno-common -flto\000"
 2612      6E6F2D63 
 2612      6F6D6D6F 
 2612      6E202D66 
 2612      6C746F00 
 2613              	.LASF70:
 2614 043e 73697A65 		.ascii	"sizetype\000"
 2614      74797065 
 2614      00
 2615              	.LASF21:
 2616 0447 74726566 		.ascii	"trefs_t\000"
 2616      735F7400 
 2617              	.LASF10:
 2618 044f 6C6F6E67 		.ascii	"long unsigned int\000"
 2618      20756E73 
 2618      69676E65 
 2618      6420696E 
 2618      7400
 2619              	.LASF51:
 2620 0461 72656164 		.ascii	"ready_list_t\000"
 2620      795F6C69 
 2620      73745F74 
 2620      00
ARM GAS  /tmp/cc83RhQM.s 			page 66


 2621              	.LASF28:
 2622 046e 71756575 		.ascii	"queue\000"
 2622      6500
 2623              	.LASF15:
 2624 0474 696E7433 		.ascii	"int32_t\000"
 2624      325F7400 
 2625              	.LASF82:
 2626 047c 77747365 		.ascii	"wtsemp\000"
 2626      6D7000
 2627              	.LASF89:
 2628 0483 6D757465 		.ascii	"mutex_t\000"
 2628      785F7400 
 2629              	.LASF30:
 2630 048b 6E657765 		.ascii	"newer\000"
 2630      7200
 2631              	.LASF4:
 2632 0491 756E7369 		.ascii	"unsigned char\000"
 2632      676E6564 
 2632      20636861 
 2632      7200
 2633              	.LASF9:
 2634 049f 5F5F7569 		.ascii	"__uint32_t\000"
 2634      6E743332 
 2634      5F7400
 2635              	.LASF37:
 2636 04aa 77616974 		.ascii	"waiting\000"
 2636      696E6700 
 2637              	.LASF59:
 2638 04b2 76697274 		.ascii	"virtual_timers_list_t\000"
 2638      75616C5F 
 2638      74696D65 
 2638      72735F6C 
 2638      6973745F 
 2639              	.LASF96:
 2640 04c8 5F5F6675 		.ascii	"__func__.6386\000"
 2640      6E635F5F 
 2640      2E363338 
 2640      3600
 2641              	.LASF34:
 2642 04d6 73746174 		.ascii	"state\000"
 2642      6500
 2643              	.LASF65:
 2644 04dc 63685F73 		.ascii	"ch_system_t\000"
 2644      79737465 
 2644      6D5F7400 
 2645              	.LASF80:
 2646 04e8 77747472 		.ascii	"wttrp\000"
 2646      7000
 2647              	.LASF1:
 2648 04ee 7369676E 		.ascii	"signed char\000"
 2648      65642063 
 2648      68617200 
 2649              	.LASF57:
 2650 04fa 64656C74 		.ascii	"delta\000"
 2650      6100
 2651              	.LASF6:
 2652 0500 73686F72 		.ascii	"short unsigned int\000"
ARM GAS  /tmp/cc83RhQM.s 			page 67


 2652      7420756E 
 2652      7369676E 
 2652      65642069 
 2652      6E7400
 2653              	.LASF72:
 2654 0513 73746B61 		.ascii	"stkalign_t\000"
 2654      6C69676E 
 2654      5F7400
 2655              	.LASF104:
 2656 051e 656E646D 		.ascii	"endmem\000"
 2656      656D00
 2657              	.LASF53:
 2658 0525 63757272 		.ascii	"current\000"
 2658      656E7400 
 2659              	.LASF91:
 2660 052d 706F7274 		.ascii	"port_unlock\000"
 2660      5F756E6C 
 2660      6F636B00 
 2661              	.LASF107:
 2662 0539 2E2E2F43 		.ascii	"../ChibiOS/os/common/oslib/src/chmemcore.c\000"
 2662      68696269 
 2662      4F532F6F 
 2662      732F636F 
 2662      6D6D6F6E 
 2663              	.LASF95:
 2664 0564 616C6967 		.ascii	"align\000"
 2664      6E00
 2665              	.LASF31:
 2666 056a 6F6C6465 		.ascii	"older\000"
 2666      7200
 2667              	.LASF103:
 2668 0570 6E657874 		.ascii	"nextmem\000"
 2668      6D656D00 
 2669              	.LASF78:
 2670 0578 65786974 		.ascii	"exitcode\000"
 2670      636F6465 
 2670      00
 2671              	.LASF102:
 2672 0581 5F5F6865 		.ascii	"__heap_end__\000"
 2672      61705F65 
 2672      6E645F5F 
 2672      00
 2673              	.LASF42:
 2674 058e 6D706F6F 		.ascii	"mpool\000"
 2674      6C00
 2675              	.LASF110:
 2676 0594 6368436F 		.ascii	"chCoreAllocAligned\000"
 2676      7265416C 
 2676      6C6F6341 
 2676      6C69676E 
 2676      656400
 2677              		.comm	__gnu_lto_v1,1,1
 2678              		.ident	"GCC: (GNU Tools for ARM Embedded Processors) 4.8.4 20140526 (release) [ARM/embedded-4_8-br
ARM GAS  /tmp/cc83RhQM.s 			page 68


DEFINED SYMBOLS
                            *ABS*:00000000 chmemcore.c
     /tmp/cc83RhQM.s:286    .text._core_init:00000000 $t
     /tmp/cc83RhQM.s:292    .text._core_init:00000000 _core_init
     /tmp/cc83RhQM.s:316    .text._core_init:00000010 $d
     /tmp/cc83RhQM.s:324    .text.chCoreAllocAlignedI:00000000 $t
     /tmp/cc83RhQM.s:330    .text.chCoreAllocAlignedI:00000000 chCoreAllocAlignedI
     /tmp/cc83RhQM.s:384    .text.chCoreAllocAlignedI:00000028 $d
     /tmp/cc83RhQM.s:390    .text.chCoreAllocAligned:00000000 $t
     /tmp/cc83RhQM.s:396    .text.chCoreAllocAligned:00000000 chCoreAllocAligned
     /tmp/cc83RhQM.s:485    .text.chCoreAllocAligned:00000038 $d
     /tmp/cc83RhQM.s:491    .text.chCoreGetStatusX:00000000 $t
     /tmp/cc83RhQM.s:497    .text.chCoreGetStatusX:00000000 chCoreGetStatusX
     /tmp/cc83RhQM.s:515    .text.chCoreGetStatusX:0000000c $d
     /tmp/cc83RhQM.s:521    .bss.endmem:00000000 $d
     /tmp/cc83RhQM.s:525    .bss.endmem:00000000 endmem
     /tmp/cc83RhQM.s:528    .bss.nextmem:00000000 $d
     /tmp/cc83RhQM.s:532    .bss.nextmem:00000000 nextmem
                            *COM*:00000001 __gnu_lto_v1
                     .debug_frame:00000010 $d
     /tmp/cc83RhQM.s:520    .text.chCoreGetStatusX:00000014 $t

UNDEFINED SYMBOLS
__heap_base__
__heap_end__
