ARM GAS  /tmp/ccR5eLeZ.s 			page 1


   1              		.syntax unified
   2              		.cpu cortex-m4
   3              		.fpu softvfp
   4              		.eabi_attribute 20, 1
   5              		.eabi_attribute 21, 1
   6              		.eabi_attribute 23, 3
   7              		.eabi_attribute 24, 1
   8              		.eabi_attribute 25, 1
   9              		.eabi_attribute 26, 1
  10              		.eabi_attribute 30, 2
  11              		.eabi_attribute 34, 1
  12              		.eabi_attribute 18, 4
  13              		.thumb
  14              		.file	"chregistry.c"
  15              		.text
  16              	.Ltext0:
  17              		.section	.gnu.lto_.jmpfuncs.e16e6773c32f41c6,"",%progbits
  18 0000 789C6362 		.ascii	"x\234cb`b\300\006\224\2404+\003\003\023##\003\0033\210"
  18      6062C006 
  18      94A0342B 
  18      03031323 
  18      23030333 
  19 0015 002A6506 		.ascii	"\000*e\006\212\22510\260\200\270\254 \202\001\000\017"
  19      8A953130 
  19      B080B8AC 
  19      20820100 
  19      0F
  20 0026 B600BD   		.ascii	"\266\000\275"
  21              		.text
  22              		.section	.gnu.lto_.inline.e16e6773c32f41c6,"",%progbits
  23 0000 789C6362 		.ascii	"x\234cb`b\300\006z\2404+\003\003'\007#\003\023\317\203"
  23      6062C006 
  23      7AA0342B 
  23      03032707 
  23      230313CF 
  24 0015 5806B605 		.ascii	"X\006\266\005\362`\305L\014\274\242@!\376\005%\014\354"
  24      F260C54C 
  24      0CBCA240 
  24      21FE0525 
  24      0CEC
  25 0027 1DEA1021 		.ascii	"\035\352\020!n\006\006\306\011~\314\014\242\327\230"
  25      6E0606C6 
  25      097ECC0C 
  25      A2D798
  26 0036 80526287 		.ascii	"\200Rb\207\216\262\303\2253\3630\202\344Xx\201\022\023"
  26      8EB2C395 
  26      33F33082 
  26      E4587881 
  26      1213
  27 0048 FC3EB0B1 		.ascii	"\374>\260\2610\010lg\004\262E\376LfCW\304\312 x\210"
  27      30086C67 
  27      04B245FE 
  27      4C664357 
  27      C4CA2078 
  28 005d 1187010C 		.ascii	"\021\207\001\014\000r-\024A"
  28      00722D14 
  28      41
ARM GAS  /tmp/ccR5eLeZ.s 			page 2


  29              		.text
  30              		.section	.gnu.lto_.pureconst.e16e6773c32f41c6,"",%progbits
  31 0000 789C6362 		.ascii	"x\234cb`b\340f\200\000V\006+&+f+\026+V+\000\007]\001"
  31      6062E066 
  31      80005606 
  31      2B262B66 
  31      2B162B56 
  32 0019 45       		.ascii	"E"
  33              		.text
  34              		.section	.gnu.lto_chRegFirstThread.e16e6773c32f41c6,"",%progbits
  35 0000 789C8552 		.ascii	"x\234\205RMh\023Q\020\236\331M\3324A(\336\024\211\261"
  35      4D681351 
  35      109ED94D 
  35      DA344128 
  35      DE1489B1 
  36 0014 50502B59 		.ascii	"PP+YE\304\253\222S\017Al*\350\305\262Y\227\344A7\033"
  36      45C4AB92 
  36      530F416C 
  36      2AE8C5B2 
  36      5997E441 
  37 002a 76D3D2E0 		.ascii	"v\323\322\340\241/?\207z+\005\241Z\212\226jm-(\202\340"
  37      A12F3F87 
  37      7A2B05A1 
  37      5A8A966A 
  37      6D2D2882 
  38 003f 4DE24168 		.ascii	"M\342Ah\301\244\324\223x\012\212\207\212\027o\"B\234"
  38      C1A4D493 
  38      780A8A87 
  38      8A176F22 
  38      429C
  39 0051 B77F3651 		.ascii	"\267\1776Q\354\013\273o\366\315\314\367}\231\357I A"
  39      EC0BBB6F 
  39      F6CDCCF7 
  39      7D99EF49 
  39      2041
  40 0063 EF3A42CF 		.ascii	"\357:B\317M\031`\207v\224\001\245\371\026@%\"!\212\000"
  40      4D196087 
  40      769401A5 
  40      F9164025 
  40      22218A00 
  41 0077 1066259C 		.ascii	"\020f%\234\275\201\242\024\207`\205\363\205\366\227"
  41      BD81A214 
  41      876085F3 
  41      85F697
  42 0086 D53DBCC7 		.ascii	"\325=\274\307\033\365\207\374W\247\203\310\220`\207"
  42      1BF587FC 
  42      57A783C8 
  42      906087
  43 0095 113484EB 		.ascii	"\0214\204\353\364\201\011g\223B\335<\317\245F\273\323"
  43      F4810967 
  43      9342DD3C 
  43      CFA546BB 
  43      D3
  44 00a6 F9B6BBFE 		.ascii	"\371\266\273\376i\003\017GePq\205\360B\300P\016\213"
  44      69030F47 
  44      65507185 
  44      F042C050 
ARM GAS  /tmp/ccR5eLeZ.s 			page 3


  44      0E8B
  45 00b8 179584A1 		.ascii	"\027\225\204\241\316\371|\302\315\200\300\2435No\241"
  45      CEF97CC2 
  45      CD80C0A3 
  45      354E6FA1 
  46 00c8 E41A4A62 		.ascii	"\344\032Jb\227\267\241\032\001\360\224\274\330h\276"
  46      97B7A11A 
  46      01F094BC 
  46      D868BE
  47 00d7 C1851ADF 		.ascii	"\301\205\032\337\342\365\006I9\3160$\021\373\001R\304"
  47      E2F50649 
  47      39CE3024 
  47      11FB0152 
  47      C4
  48 00e8 59284141 		.ascii	"Y(AA\013\252\337_\327\326\216z\304\276\202\306\347\367"
  48      0BAADF5F 
  48      D7D68E7A 
  48      C4BE82C6 
  48      E7F7
  49 00fa 4BF24915 		.ascii	"K\362I\025\03792\274\263\315\273?b\307\202\257\355w"
  49      1F3932BC 
  49      B3CDBB3F 
  49      62C782AF 
  49      ED77
  50 010c 34491557 		.ascii	"4I\025W1L\\\202O\242Gv\206D\277\227\024R^v\307\035\207"
  50      314C5C82 
  50      4FA24776 
  50      8644BF97 
  50      14525E76 
  51 0123 B7B8CC17 		.ascii	"\267\270\314\027/1*\336\317\376'\277\345\345\373\\}"
  51      2F312ADE 
  51      CFFE27BF 
  51      E5E5FB5C 
  51      7D
  52 0134 4DA87EFC 		.ascii	"M\250~\374\260v\316\205\317\241<\002O9\255\2534h/\274"
  52      B076CE85 
  52      CFA13C02 
  52      4F39ADAB 
  52      34682FBC 
  53 0148 C0B07F09 		.ascii	"\300\260\177\011\356W8\037d\030\271\015?\371\234\210"
  53      EE57381F 
  53      6418B90D 
  53      3FF99C88 
  54 0158 060CF419 		.ascii	"\006\014\364\031\006\034\244,\202\267{\001\320\370\032"
  54      061CA42C 
  54      82B77B01 
  54      D0F81A
  55 0167 7D2EB23B 		.ascii	"}.\262;\347\234\220-\030\027\237\234\362\031C#p\232"
  55      E79C902D 
  55      18179F9C 
  55      F2194323 
  55      709A
  56 0179 61941808 		.ascii	"a\224\030\010)F\025\002\321G\362\257P\023js\265\202"
  56      29461502 
  56      D147F2AF 
  56      50136A73 
  56      B582
ARM GAS  /tmp/ccR5eLeZ.s 			page 4


  57 018b DF12A62E 		.ascii	"\337\022\246.Q\025E\367\017\214\272\011Oo\354\000\264"
  57      511545F7 
  57      0F8CBA09 
  57      4F6FEC00 
  57      B4
  58 019c 9C184DB7 		.ascii	"\234\030M\267\263{\255^gU|\354\214\371@k\341\177\326"
  58      B37BAD5E 
  58      67557CEC 
  58      8CF9406B 
  58      E17FD6
  59 01af 7E5D16D6 		.ascii	"~]\026\326\276\352\266\366\301\241xp\375\202\343;;\373"
  59      BEEAB6F6 
  59      C1A17870 
  59      FD82E33B 
  59      3BFB
  60 01c1 3C764035 		.ascii	"<v@5'\354\265Y\305M\012\002f\337V\025\237a\334U\265"
  60      27ECB559 
  60      C54D0A02 
  60      66DF5615 
  60      9F61DC55 
  61 01d6 0B95F6BA 		.ascii	"\013\225\366\272\036\370\351\036\216\223't\241E\355"
  61      1EF8E91E 
  61      8E932774 
  61      A145ED
  62 01e5 5032A9A4 		.ascii	"P2\251\244\362,\313\256d\024\323V\254\222b[\232\242"
  62      F22CCBAE 
  62      6414D356 
  62      AC92625B 
  62      9AA2
  63 01f7 E52D3DC7 		.ascii	"\345-=\307\354\222UNj \225\212Jw\225f\032\206YP\212"
  63      EC92554E 
  63      6A20958A 
  63      4A779566 
  63      1A865950 
  64 020c A655B295 		.ascii	"\246U\262\225\313c\351Tz\206Z4\323\322'\246/\032\311"
  64      CB63E954 
  64      7A865A34 
  64      D3D227A6 
  64      2F1AC9
  65 021f 3C84A7D5 		.ascii	"<\204\247\325\311)\375\374?\273\364\231\222\222JgF3"
  65      C929FDFC 
  65      3FBBF499 
  65      92924A67 
  65      4633
  66 0231 0A2B6893 		.ascii	"\012+h\223S\267tE3lfO\3444\215:O\374\245'\250\312\333"
  66      53B77445 
  66      336C664F 
  66      E4348D3A 
  66      4FFCA527 
  67 0248 659B2A06 		.ascii	"e\233*\006\323\231\261DV\265\365\242\305\316$\206\317"
  67      D399B144 
  67      56B5F5A2 
  67      C5CE2486 
  67      CF
  68 0259 826441BF 		.ascii	"\202dA\277\241\033\246U\206\337\266\033\005\337"
  68      A11BA655 
  68      86DFB61B 
ARM GAS  /tmp/ccR5eLeZ.s 			page 5


  68      05DF
  69              		.text
  70              		.section	.gnu.lto_chRegNextThread.e16e6773c32f41c6,"",%progbits
  71 0000 789C8553 		.ascii	"x\234\205S]H\024Q\024>gf\366'\265\220\036Cl\023\204"
  71      5D481451 
  71      143E6766 
  71      F627B590 
  71      1E436C13 
  72 0015 C8D8297C 		.ascii	"\310\330)|\220\336\012\237|X\0027!\237dv\034v/8\256"
  72      90DE0A9F 
  72      7C580237 
  72      219F6476 
  72      1C762F38 
  73 002a CCACA2F9 		.ascii	"\314\254\242\371\340\325\335\007\243\027\021\202L\244"
  73      E0D5DD07 
  73      A3171182 
  73      4CA4
  74 0038 A41FE887 		.ascii	"\244\037\350\207\204\242zl\205\010\2054\353\245\354"
  74      84A27A6C 
  74      85088534 
  74      EBA5EC
  75 0047 6909452D 		.ascii	"i\011E-)z\223\010\266s\347\317\325\"\3570s\377\316\371"
  75      297A9308 
  75      B673E7CF 
  75      D522EF30 
  75      73FFCEF9 
  76 005b CE77BFFB 		.ascii	"\316w\277\373\215\004\022\354o\315\364~\227\001V\250"
  76      8D0412EC 
  76      6FCDF47E 
  76      970156A8 
  77 006b C710A034 		.ascii	"\307\020\2404\261\0140\032\225$\245\210\300\253\344"
  77      B10C301A 
  77      9524A588 
  77      C0ABE4
  78 007a 95B700BC 		.ascii	"\225\267\000\274FF\305]W\020\305\000\020F$Y\301\221"
  78      4646C55D 
  78      5710C500 
  78      10462459 
  78      C191
  79 008c 4E1420D8 		.ascii	"N\024 \330\000\263\234O\226\326\347\266p\212\027\013"
  79      00B39C4F 
  79      96D6E7B6 
  79      708A170B 
  80 009c B7F9EF72 		.ascii	"\267\371\357r\031\221!\025lD\320\021.\323\004cN'){\031"
  80      19912115 
  80      6C44D011 
  80      2ED30463 
  80      4E27297B 
  81 00b1 CC49C552 		.ascii	"\314I\305R\271\274\375q\355\3136\036=\202\240\341,\341"
  81      B9BCFD71 
  81      EDCB361E 
  81      3D82A0E1 
  81      2CE1
  82 00c3 85D04408 		.ascii	"\205\320D\010{\223\0100\224\243\342C\361!(p>\021swL"
  82      7B930830 
  82      94A3E243 
  82      F1212870 
ARM GAS  /tmp/ccR5eLeZ.s 			page 6


  82      3E117377 
  83 00d8 2402BA43 		.ascii	"$\002\272C\342\022}\005\267\016\224D//\302X\024\300"
  83      E2127D05 
  83      B70E9444 
  83      2F2FC258 
  83      14C0
  84 00ea 63F6ECC1 		.ascii	"c\366\354\301\322<N\346\371\002/\024\211\332q\206\212"
  84      D23C4EE6 
  84      F9022F14 
  84      89DA7186 
  84      8A
  85 00fb 049D0751 		.ascii	"\004\235\007Q\023kJ\214\006\3130\366\363U\376\3761\257"
  85      136B4A8C 
  85      06CB30F6 
  85      F355FEFE 
  85      31AF
  86 010d B64FA2B8 		.ascii	"\266O\242\270\361aZ>\251\341]b\022\254\315]\337\251"
  86      F1615A3E 
  86      A9E15D62 
  86      12ACCD5D 
  86      DFA9
  87 011f AE0B668B 		.ascii	"\256\013f\213k\244\271\206wH[\035E=\211^\331\021\215"
  87      6BA4B986 
  87      77485B1D 
  87      453D895E 
  87      D9118D
  88 0132 9EE734A4 		.ascii	"\236\3474\244}\331\275\230zx\2033\374\306yF\301\225"
  88      7DD9BD98 
  88      7A788333 
  88      FCC67946 
  88      C195
  89 0144 D577F717 		.ascii	"\325w\367\027\275\375\260\313o\011\306>\177zz\316\205"
  89      BDFDB0CB 
  89      6F09C63E 
  89      7F7A7ACE 
  89      85
  90 0155 4F63B809 		.ascii	"Oc\270\011\036rj-$\3744\334\244\364H\032C\002\306\015"
  90      1E726A2D 
  90      24FC34DC 
  90      A4F4481A 
  90      4302C60D 
  91 0169 4FA17F30 		.ascii	"O\241\1770\322\246\030q\323\\\035\323\002r\001^o\314"
  91      D2A61871 
  91      D35C1DD3 
  91      0272015E 
  91      6FCC
  92 017b 4F5D9303 		.ascii	"O]\223\003\274a\370\305\3079\357g\030\365\240\207\031"
  92      BC61F8C5 
  92      C739EF67 
  92      18F5A087 
  92      19
  93 018c 1E32514A 		.ascii	"\0362QJa\000\265\333:\3500d\027Y\260\332y1\217>L\244"
  93      6100B5DB 
  93      3AE83064 
  93      1759B0DA 
  93      79318F3E 
  94 01a2 094E31AC 		.ascii	"\011N1\254\012\030\205+\031\371\216\\\202\374x\376\212"
ARM GAS  /tmp/ccR5eLeZ.s 			page 7


  94      0A18852B 
  94      19F98E5C 
  94      82FC78FE 
  94      8A
  95 01b3 9F12A52C 		.ascii	"\237\022\245,\021U\205\356)\333\334\015\217\304\331"
  95      115585EE 
  95      29DBDC0D 
  95      8FC4D9
  96 01c2 03D028DF 		.ascii	"\003\320(\337g\244TX\301?):\347\257\360\306\326\362"
  96      67A45458 
  96      C13F293A 
  96      E7AFF0C6 
  96      D6F2
  97 01d4 7E6F6878 		.ascii	"~ohx\317\271\250\003\315\001\3773\307\327\031a\216\227"
  97      CFB9A803 
  97      CD01FF33 
  97      C7D71961 
  97      8E97
  98 01e6 7BCD71EB 		.ascii	"{\315q\353p}\340\341`\371\352\217\012\2278\240\2723"
  98      707DE0E1 
  98      60F9EA8F 
  98      0A9738A0 
  98      BA33
  99 01f8 DC6F140D 		.ascii	"\334o\024\015\037\321 \250\354\033C\303'X\357\262z\007"
  99      1FD120A8 
  99      EC1B43C3 
  99      2758EFB2 
  99      7A07
 100 020a 85D2E6BA 		.ascii	"\205\322\346\272w\267\000\356\015\3262\254\326=\323"
 100      77B700EE 
 100      0DD632AC 
 100      D63DD3
 101 0219 902318D6 		.ascii	"\220#\030\326\000\274\207\321\3227\303\027\334Qp\025"
 101      00BC87D1 
 101      D237C317 
 101      DC517015 
 102 0229 D01353DA 		.ascii	"\320\023S\332^\355&i\345\307\253u\342\307B\241\242\250"
 102      5EED2669 
 102      E5C7AB75 
 102      E2C742A1 
 102      A2A8
 103 023b D4108FAB 		.ascii	"\324\020\217\253\255\031\226b\027\223j\326V\255\234"
 103      AD199662 
 103      17936AD6 
 103      56AD9C
 104 024a 6A5BBAAA 		.ascii	"j[\272\252g,#\315\354\2345\024\327A\356\315\365\251"
 104      672C23CD 
 104      EC9C3514 
 104      D741EECD 
 104      F5A9
 105 025c 7BC3F4AC 		.ascii	"{\303\364\254if{\325\276\254\225\263\325\013\355\211"
 105      69667BD5 
 105      BEAC95B3 
 105      D50BED89 
 106 026c D6C420E5 		.ascii	"\326\304 \345\350Y\313\350\032h1\343\031\010\015h=\375"
 106      E859CBE8 
 106      1A6831E3 
ARM GAS  /tmp/ccR5eLeZ.s 			page 8


 106      19080D68 
 106      3DFD
 107 027e 46F33FB3 		.ascii	"F\363?\263\214\301\234\332\232H\266%U\326\253\367\364"
 107      8CC19CDA 
 107      9A48B625 
 107      55D6ABF7 
 107      F4
 108 028f 771BAA6E 		.ascii	"w\033\252n\332\314\356J\353:e\236\370\213P\020\225\261"
 108      DACCEE4A 
 108      EB3A659E 
 108      F88B5010 
 108      95B1
 109 02a1 876C8AA8 		.ascii	"\207l\212\250M$\333c)\3156\372,v:\326x\006$\013\"\246"
 109      4D24DB63 
 109      29CD36FA 
 109      2C763AD6 
 109      7806240B 
 110 02b7 6166AD21 		.ascii	"af\255!\370\003\012(-\027"
 110      F8030A28 
 110      2D17
 111              		.text
 112              		.section	.gnu.lto_chRegFindThreadByName.e16e6773c32f41c6,"",%progbits
 113 0000 789C8D54 		.ascii	"x\234\215T]H\024Q\024>\347\316\356\354\352\256f\365"
 113      5D481451 
 113      143EE7CE 
 113      EEECEAAE 
 113      66F5
 114 0012 5261B605 		.ascii	"Ra\266\005E\1778ED\257\205OA\022eB=\3058-\263\003\215"
 114      457F3845 
 114      44AF854F 
 114      41126542 
 114      3DC5382D 
 115 0029 2B33AB24 		.ascii	"+3\253$\005]W\003{\021)\002+C\243?2C(\202\376\240-\202"
 115      055D5703 
 115      7B112902 
 115      2B43A33F 
 115      32432882 
 116 0041 5472A59E 		.ascii	"Tr\245\236*z\220\"\244\360!\361%\"\262s\347\316\216"
 116      2A7A9022 
 116      A4F021F1 
 116      2522B273 
 116      E7CE8E
 117 0054 6B457697 		.ascii	"kEv\227\235{\356=\347|\347\273\347\234{\0310\370}\354"
 117      9D7BEE3D 
 117      E77CE7BB 
 117      E79C7B19 
 117      30F87DEC 
 118 0068 A17F5B18 		.ascii	"\241\177[\030\340;\315\030\001d\335y\332\2102T\244\240"
 118      E03BCD18 
 118      0164DD79 
 118      DA883254 
 118      A4A0
 119 007a B0F03305 		.ascii	"\260\3603\005xi(?\012\300\343!\246zB\251\267\033W\245"
 119      7869283F 
 119      0AC0E321 
 119      A67A42A9 
 119      B71B57A5 
ARM GAS  /tmp/ccR5eLeZ.s 			page 9


 120 008e 198611C5 		.ascii	"\031\206\021\305\014\010'\231\022R\303x\362\020\012"
 120      0C082799 
 120      1252C378 
 120      F2100A
 121 009d 745C0397 		.ascii	"t\\\003\2279?3\361\351\303g<\317s\035\375\374\307\354"
 121      393F33F1 
 121      E9C3673C 
 121      CF731DFD 
 121      FCC7EC
 122 00b0 2CA285C4 		.ascii	",\242\205\304d-\202\201p\220\026\230\360&\026\232Om"
 122      642D8281 
 122      70901698 
 122      F026169A 
 122      4F6D
 123 00c2 88E52666 		.ascii	"\210\345&fg\007\247\007?\366\341\322%\010:^&<\006\344"
 123      6707A707 
 123      3FF6E1D2 
 123      25083A5E 
 123      263C06E4 
 124 00d6 1DA18F12 		.ascii	"\035\241\217\022E\033\241\204\244P\314\327\305\375\271"
 124      451BA184 
 124      A450CCD7 
 124      C5FDB9
 125 00e5 8C36C3E5 		.ascii	"\2146\303\345\342C0a\350\340\274;!5 b\3228@\337\257"
 125      E2433061 
 125      E8E0BC3B 
 125      21352062 
 125      D23840DF 
 126 00fa 2AD423A3 		.ascii	"*\324#\243I\031\201l\024\300\347z\367\346\330S<\323"
 126      4919816C 
 126      14C0E77A 
 126      F7E6D853 
 126      3CD3
 127 010c CE877947 		.ascii	"\316\207yG\216\310\256\262Peph!\262bOM\220\220\207\354"
 127      8EC8AEB2 
 127      50657068 
 127      21B2624F 
 127      4D909087 
 128 0121 F493F6EB 		.ascii	"\364\223\366\353+\374\260\205\370\271\311\327\027\225"
 128      2BFCB085 
 128      F8B9C9D7 
 128      1795
 129 012f F53A5EF5 		.ascii	"\365:^\365H\370{C\347\276\305*\203\325\310K\026\260"
 129      48F87B43 
 129      E7BEC52A 
 129      83D5C84B 
 129      16B0
 130 0141 955C727D 		.ascii	"\225\\r}\243]\313y\177\266\233\377$&^\326\356\341BL"
 130      A35DCB79 
 130      7FB69BFF 
 130      24265ED6 
 130      EEE1424C 
 131 0155 0A18FC51 		.ascii	"\012\030\374Qo\004(!W(\013\006z\2476\350\270\006*\364"
 131      6F042821 
 131      57280B06 
 131      7AA736E8 
 131      B8062AF4 
ARM GAS  /tmp/ccR5eLeZ.s 			page 10


 132 0169 F77C907E 		.ascii	"\367|\220~\367iIa\025\331\032U0\202\227x\317N\213Z\241"
 132      F7694961 
 132      15D91A55 
 132      30829778 
 132      CF4E8B5A 
 133 017e F85073FA 		.ascii	"\370Ps\372\227\276>*C\215A\366\335\233\353[u\034\240"
 133      97BE3E2A 
 133      438D41F6 
 133      DD9BEB5B 
 133      751CA0
 134 0191 2826C637 		.ascii	"(&\3067\301\000\247\261\217\270\372\342v\013K.\302\205"
 134      C100A7B1 
 134      8FB8FAE2 
 134      760B4B2E 
 134      C285
 135 01a3 36CE2B2C 		.ascii	"6\316+,,=\016\337y\247\220b\266GID\210yH\015b\251\343"
 135      2C3D0EDF 
 135      79A79062 
 135      B6474944 
 135      8879480D 
 136 01ba 6D51B306 		.ascii	"mQ\263\006\241\363e\000\252NN\225\021t\274E\371\243"
 136      A1F36500 
 136      AA4E4E95 
 136      1174BC45 
 136      F9A3
 137 01cc 383272CF 		.ascii	"82r\317\215\015\205\310e\233`\243\205\361 R\031\031"
 137      8D0D85C8 
 137      659B60A3 
 137      85F12052 
 137      1919
 138 01de 0970F0C1 		.ascii	"\011p\360\301Y\021\340\030\264w\2667\026<\313\311YX"
 138      5911E018 
 138      B477B637 
 138      163CCBC9 
 138      5958
 139 01f0 C6519E67 		.ascii	"\306Q\236g\267T\370\364c\377\007J0\036\321\2426\372"
 139      B754F8F4 
 139      63FF074A 
 139      301ED1A2 
 139      36FA
 140 0202 9CFFBD8D 		.ascii	"\234\377\275\215t\274\346\025`\301>\202\177\365\321"
 140      74BCE615 
 140      60C13E82 
 140      7FF5D1
 141 0211 974BA28F 		.ascii	"\227K\242\217\036\315\357\243\276\262\252\240w\202\355"
 141      1ECDEFA3 
 141      BEB2AAA0 
 141      7782ED
 142 0220 D3E31EC1 		.ascii	"\323\343\036\301\001\257\001\302\262\001\324\277\024"
 142      01AF01C2 
 142      B201D4BF 
 142      14
 143 022d 5FC72112 		.ascii	"_\307!\022\202\310\205b\353x\007\253$+:\331D\327$\312"
 143      82C88562 
 143      EB7807AB 
 143      242B3AD9 
 143      44D724CA 
ARM GAS  /tmp/ccR5eLeZ.s 			page 11


 144 0241 662ADC24 		.ascii	"f*\334$9\352\311\225\356\276\177\207\244\316\024\365"
 144      39EAC995 
 144      EEBE7F87 
 144      A4CE14F5 
 145 0251 A3543E3C 		.ascii	"\243T><5\324\273R$'B)$x\205\024^\376\226\315\301\366"
 145      35D4BB52 
 145      24274229 
 145      24788514 
 145      5EFE96CD 
 146 0267 4C4624AC 		.ascii	"LF$\254\215\314\363\233\227\305\267\371\367w\360lq\026"
 146      8DCCF39B 
 146      97C5B7F9 
 146      F777F06C 
 146      7116
 147 0279 29C4E082 		.ascii	")\304\340\202Y\264Ei\306\341\324\327\354\314\011\211"
 147      59B44569 
 147      C6E1D4D7 
 147      ECCC0989 
 148 0289 6E6249D0 		.ascii	"nbI\320{\345\206loA\314\304\250\205\213\000\206\341"
 148      7BE5866C 
 148      6F41CCC4 
 148      A8858B00 
 148      86E1
 149 029b F964DBD6 		.ascii	"\371d\333\326\300V\200\026a\276\005\244\322\263\251"
 149      C0568016 
 149      61BE05A4 
 149      D2B3A9
 150 02aa E94A1363 		.ascii	"\351J\023c\352\343\231#\342\334!\240\247P\031\207P\301"
 150      EAE39923 
 150      E2DC21A0 
 150      A7501987 
 150      50C1
 151 02bc 2B1644A8 		.ascii	"+\026D\2500\374\013b\212\307n\2618\024+N\236)\232~\030"
 151      30FC0B62 
 151      8AC76EB1 
 151      38142B4E 
 151      9E299A7E 
 152 02d1 3AA69E3E 		.ascii	":\246\236>\310c\340>\327Z\3768@\005\351\177\001XOzz"
 152      C863E03E 
 152      D75AFE38 
 152      4005E97F 
 152      01584F7A 
 153 02e6 A65ED17B 		.ascii	"\246^\321{, \231\244$\322\245\364\316T\372n\241\251"
 153      2C2099A4 
 153      24D2A5F4 
 153      CE54FA6E 
 153      A1A9
 154 02f8 99B87041 		.ascii	"\231\270pA2\025\026k\252\253\265\232\224\325`\355\255"
 154      3215166B 
 154      AAABB59A 
 154      94D560ED 
 154      AD
 155 0309 D3D2AEE6 		.ascii	"\323\322\256\346d4\32714#\345$M\313\3158\255\325\006"
 155      6434D731 
 155      3423E524 
 155      4DCBCD38 
 155      ADD506
ARM GAS  /tmp/ccR5eLeZ.s 			page 12


 156 031c 2846A649 		.ascii	"(F\246I\233of\244m;\335\2505\245\235\214\253\355\332"
 156      9B6F66A4 
 156      6D3BDDA8 
 156      35A59D8C 
 156      ABEDDA
 157 032f 5F5B537B 		.ascii	"_[S{\214|\214\264\223<\334\262\303\256NA\270E?\332\234"
 157      8C7C8CB4 
 157      933CDCB2 
 157      C3AE4E41 
 157      B8453FDA 
 158 0344 DCF657AF 		.ascii	"\334\366W\257\344\261\214VS[\267\273N\263\032\215\243"
 158      E4B18C56 
 158      535BB7BB 
 158      4EB31A8D 
 158      A3
 159 0355 CD47929A 		.ascii	"\315G\222\232a\273\226{\3304\014\362\\\375\007\241\300"
 159      61BB967B 
 159      D8340CF2 
 159      5CFD07A1 
 159      C0
 160 0366 2AE5B6BA 		.ascii	"*\345\266\272d\3012M\025\265u\373\023\015\272\233lr"
 160      64C1324D 
 160      15B575FB 
 160      130DBA9B 
 160      6C72
 161 0378 ACCD89B5 		.ascii	"\254\315\211\265[\2009\020\261\223v\332i\205u\377\000"
 161      5B803910 
 161      B19376DA 
 161      698575FF 
 161      00
 162 0389 084E9582 		.ascii	"\010N\225\202_2\271\230D"
 162      5F32B998 
 162      44
 163              		.text
 164              		.section	.gnu.lto_chRegFindThreadByPointer.e16e6773c32f41c6,"",%progbits
 165 0000 789C8D54 		.ascii	"x\234\215T]HTA\024>g\356\335]\367G\020z*\3046A\250\014"
 165      5D485441 
 165      143E67EE 
 165      DD5DF747 
 165      107A2AC4 
 166 0018 6F11D16B 		.ascii	"o\021\321k\342\223\220D\376@>\311\365\272\254\027ZW"
 166      E2939044 
 166      FE403EC9 
 166      F5BAAC17 
 166      5A57
 167 002a EE5D45E9 		.ascii	"\356]E\351\301\361\347\301^J\204\310RS\251\264\214\020"
 167      C1F1E7C1 
 167      5E4A84C8 
 167      5253A9B4 
 167      8C10
 168 003c 8A20E8A1 		.ascii	"\212 \350\2415\012\177\360\207\352\245\244\007\241\007"
 168      350A7FF0 
 168      87EAA5A4 
 168      07A107
 169 004b 3184EAA9 		.ascii	"1\204\352\251\254\310\316\334\271{\375I\262Y\366\316"
 169      ACC8CEDC 
 169      B97BFD49 
ARM GAS  /tmp/ccR5eLeZ.s 			page 13


 169      B259F6CE 
 170 005b 9939E73B 		.ascii	"\2319\347;\33773g\206\001\203\235\355,\375\247T\200"
 170      DF373367 
 170      8601839D 
 170      ED2CFDA7 
 170      5480
 171 006d B7D46300 		.ascii	"\267\324c\000\220\365,\000\264g1T\244\2410\337\013\005"
 171      90F52C00 
 171      B4673154 
 171      A4A130DF 
 171      0B05
 172 007f 78485D98 		.ascii	"xH]\230\005\340\021\225\371\035#\344\314F\3742\254\330"
 172      05E01195 
 172      F91D23E4 
 172      CC46FC32 
 172      ACD8
 173 0091 87287A40 		.ascii	"\207(z@hc\212\352\367a[5\212\354\230\017#\234\367.\277"
 173      68638AEA 
 173      F7615B35 
 173      8AEC980F 
 173      239CF72E 
 174 00a6 FABC8A37 		.ascii	"\372\274\2127x\272k\230\377\332\330@4\221\224\024 \030"
 174      78BA6B98 
 174      FFDAD840 
 174      34919414 
 174      2018
 175 00b8 08176880 		.ascii	"\010\027h\200Q\247c\352vi\023,\275\274\261\361\341\333"
 175      51A763EA 
 175      7669132C 
 175      BDBCB1F1 
 175      E1DB
 176 00ca BD8F4BB8 		.ascii	"\275\217K\270/\007A\307\021\312\307\200\320\001L \004"
 176      2F0741C7 
 176      11CAC780 
 176      D0014C20 
 176      04
 177 00db DD9990DB 		.ascii	"\335\231\220\333\207\311\243D\304\207\300>\350\342\274"
 177      87C9A344 
 177      C487C03E 
 177      E8E2BC
 178 00ea 272A3D20 		.ascii	"'*= \230\250U\322\367\213\037\252\220Q\247\314@G\026"
 178      98A855D2 
 178      F78B1FAA 
 178      9051A7CC 
 178      404716
 179 00fd 80ABF0F1 		.ascii	"\200\253\360\361\375\371I\354\355\344\323\274+M\022"
 179      FDF949EC 
 179      EDE4D3BC 
 179      2B4D12
 180 010c 0F9AA832 		.ascii	"\017\232\2502\250\336K\242\230S\243d,@\307\327\347\235"
 180      A8DE4BA2 
 180      9853A364 
 180      2C40C7D7 
 180      E79D
 181 011e A3075CDA 		.ascii	"\243\007\\\332\014\177z\345M\277rX\307;\216\010wn\342"
 181      0C7F7AE5 
 181      4DBF7258 
ARM GAS  /tmp/ccR5eLeZ.s 			page 14


 181      C73B8E08 
 181      776EE2
 182 0131 DAF770AE 		.ascii	"\332\367p\2567\232\231c\236Z\251%=4{e?\037\356\350\341"
 182      379A9963 
 182      9E5AA925 
 182      3D347B65 
 182      3F1FEEE8 
 183 0146 BF4989B3 		.ascii	"\277I\211\263WOp/%\231\034|\354V\000hCn\243\217\020"
 183      574F702F 
 183      25991C7C 
 183      EC560068 
 183      436EA38F 
 184 015b CEAA0D5A 		.ascii	"\316\252\015Z\256A\233b\240\203A\372=\245!\321*\262"
 184      AE419B62 
 184      A08341FA 
 184      3DA521D1 
 184      2AB2
 185 016d 20F26006 		.ascii	" \362`\006\007y\337\031\2230[\027\265\351\237s\375~"
 185      0779DF19 
 185      93305B17 
 185      B5E99F73 
 185      FD7E
 186 017f 49350F1D 		.ascii	"I5\017\035K\357FO\3508N\2108\206\012a\234S;OZ]\363\224"
 186      4BEF464F 
 186      E8384E88 
 186      38860A61 
 186      9C533B4F 
 187 0197 89817EB8 		.ascii	"\211\201~\270\331\316y\216\211Y\227\340\007\357\026"
 187      D9CE798E 
 187      895997E0 
 187      07EF16
 188 01a6 5630E148 		.ascii	"V0\341H\022\014A'S\255\030\352\370P0\327\012\237k\003"
 188      120C4127 
 188      53AD18EA 
 188      F85030D7 
 188      0A9F6B03 
 189 01ba D0E9A4FD 		.ascii	"\320\351\244\375\222A\307\007\264\177\304#\231\373\306"
 189      9241C707 
 189      B47FC423 
 189      99FBC6
 190 01c9 8E6498C3 		.ascii	"\216d\230\303\205p\324\304\220\307\024\246 \221\034"
 190      8570D4C4 
 190      90C714A6 
 190      20911C
 191 01d8 DCE46C4B 		.ascii	"\334\344lK\302y\350\354\356l\310 #\004\026\221!\224"
 191      C279E8EC 
 191      EE6CC820 
 191      23041691 
 191      2194
 192 01ea EB29950E 		.ascii	"\353)\225\016W~\370\377\222R\032G\350\2262Z]\330YF:"
 192      577EF8FF 
 192      92521A47 
 192      E896325A 
 192      5DD85946 
 193 01ff DE750E60 		.ascii	"\336u\016`\317:\202\177\325\321\247AQG\317\266\327\321"
 193      CF3A827F 
 193      D5D1A741 
ARM GAS  /tmp/ccR5eLeZ.s 			page 15


 193      5147CFB6 
 193      D7D1
 194 0211 50769E57 		.ascii	"Pv\236W;\336\364\345EG\340\270S\000>Y\000\376]\016_"
 194      3BDEF4E5 
 194      4547E0B8 
 194      53003E59 
 194      00FE5D0E 
 195 0226 C709323C 		.ascii	"\307\0112<\346\314a\353\370\010\363\244*Z\331\362\314"
 195      E6CC61EB 
 195      F808F3A4 
 195      2A5AD9F2 
 195      CC
 196 0237 0ACA62CA 		.ascii	"\012\312b\312\334$\331\252\010J7\336\275C\322\027\027"
 196      DC24D9AA 
 196      084A37DE 
 196      BD43D217 
 196      17
 197 0248 E7370D2F 		.ascii	"\3477\015/W&\257_\215H\020M\305\351Uq\333{\240Q\210"
 197      5726AF5F 
 197      8D48104D 
 197      C5E95571 
 197      DB7BA051 
 198 025d 0DACE7C6 		.ascii	"\015\254\347\3061\350_[\257\023yT\240\007EY\0045\203"
 198      31E85F5B 
 198      AF137954 
 198      A0074559 
 198      043583
 199 0270 087AD512 		.ascii	"\010z\325\0221\\l\\<\031\331B\020\333*&.\212h\032\272"
 199      315C6C5C 
 199      3C19D942 
 199      10DB2A26 
 199      2E8A681A 
 200 0285 D6268716 		.ascii	"\326&\207\026\321\203o\036\225\333*i\371\303S\200U\344"
 200      D1836F1E 
 200      95DB2A69 
 200      F9C35380 
 200      55E4
 201 0297 A76BFF9A 		.ascii	"\247k\377\232^5\221\222II\214\222+s\353\271.L\035\370"
 201      5E359192 
 201      49498C92 
 201      2B73EBB9 
 201      2E4C1DF8 
 202 02ab 191110A4 		.ascii	"\031\021\020\244P\021\221_T\244\225\324\233\265\346"
 202      5011915F 
 202      54A495D4 
 202      9BB5E6
 203 02ba B90A2D69 		.ascii	"\271\012-ikVJ\263-C3\352\255X\334\264SVk\221\001\212"
 203      6B564AB3 
 203      2D4333EA 
 203      AD58DCB4 
 203      53566B91 
 204 02d0 916AD4B6 		.ascii	"\221j\324\266\207\031\311D\"\331\2405&\255\224\255\025"
 204      8719C944 
 204      22D9A035 
 204      26AD94AD 
 204      15
 205 02e1 97979594 		.ascii	"\227\227\225\224\265\020\306HZ\261\232\346\323\211\242"
ARM GAS  /tmp/ccR5eLeZ.s 			page 16


 205      B510C648 
 205      5AB19AE6 
 205      D389A2
 206 02f0 7AF035EB 		.ascii	"z\3605\353\027\233b'wE\305ZRZIYEi\205f6\030\027\233"
 206      179B6227 
 206      7745C55A 
 206      525A4959 
 206      45698566 
 207 0308 EA629A91 		.ascii	"\352b\232\221\260M\273&n\030\204<\364\227 /\252\336"
 207      B04DBB26 
 207      6E18843C 
 207      F497202F 
 207      AADE
 208 031a 6EB52982 		.ascii	"n\265)\202\245\032s\312*\312\243\265\272\035k\264\314"
 208      A51A73CA 
 208      2ACAA3B5 
 208      BA1D6BB4 
 208      CC
 209 032b 63D182E3 		.ascii	"c\321\202\343\300,\010$b\211\244\325\012\177\000c\347"
 209      C02C0824 
 209      6289A4D5 
 209      0A7F0063 
 209      E7
 210 033c 6142     		.ascii	"aB"
 211              		.text
 212              		.section	.gnu.lto_chRegFindThreadByWorkingArea.e16e6773c32f41c6,"",%progbits
 213 0000 789C8D54 		.ascii	"x\234\215T]H\024Q\024>\347\316\316\356\266?e\320Ka\266"
 213      5D481451 
 213      143EE7CE 
 213      CEEEB63F 
 213      65D04B61 
 214 0015 05427F38 		.ascii	"\005B\1778ED\257\211OB\026eB=\3058.\353@\343\312\314"
 214      4544AF89 
 214      4F421665 
 214      423DC538 
 214      2EEB40E3 
 215 002b 2A4A0FDD 		.ascii	"*J\017\335\374\001{15\202~\321\376\311\012\241\010\242"
 215      FC017B31 
 215      35827ED1 
 215      FEC90AA1 
 215      08A2
 216 003d 82D60852 		.ascii	"\202\326\010RI\243\236\262'#B\014\241z\353\017\267s"
 216      49A39EB2 
 216      2723420C 
 216      A17AEB0F 
 216      B773
 217 004f E7CE8E6E 		.ascii	"\347\316\216n\205v\207\231{\356=\347|\347\273\347\234"
 217      85768799 
 217      7BEE3DE7 
 217      7CE7BBE7 
 217      9C
 218 0060 B90C18FC 		.ascii	"\271\014\030\3749\366\320\273W\005\370N3\206\000Y\317"
 218      39F6D0BB 
 218      5705F84E 
 218      33860059 
 218      CF
 219 0071 04C08930 		.ascii	"\004\300\2110CE\012\012S\237)\300#\201\2111\000\036"
ARM GAS  /tmp/ccR5eLeZ.s 			page 17


 219      43450A0A 
 219      539F29C0 
 219      23818931 
 219      001E
 220 0083 0BB0A02B 		.ascii	"\013\260\240+D\334\335XP\232\225\253\210b\006\204\343"
 220      44DCDD58 
 220      509A95AB 
 220      88620684 
 220      E3
 221 0094 4C090455 		.ascii	"L\011\004U<~\030\005:n\200\313\234\367M}\234\233\301"
 221      3C7E1805 
 221      3A6E80CB 
 221      9CF74D7D 
 221      9C9BC1
 222 00a7 733CDB31 		.ascii	"s<\3331\300\177\345r\210&\022\223R\004\003\341\020-"
 222      C07FE572 
 222      88261293 
 222      520403E1 
 222      102D
 223 00b9 30E14E2C 		.ascii	"0\341N,PHm\210e\247r\271;\271\251\017\247p\325J\004"
 223      50486D88 
 223      65A772B9 
 223      3BB9A90F 
 223      A770D54A 
 224 00ce 1D2F131E 		.ascii	"\035/\023\036\003\362\016\321G\011\243\205\020\361\266"
 224      03F20ED1 
 224      4709A385 
 224      10F1B6
 225 00dd A3DE1C23 		.ascii	"\243\336\034#M .>\204\240B\007\347=\011\251\001\021"
 225      4D202E3E 
 225      84A04207 
 225      E73D09A9 
 225      0111
 226 00ef 8EC641FA 		.ascii	"\216\306A\372~\011B\0152\232\224Qh\013\003x4\357\337"
 226      7E09420D 
 226      329A9451 
 226      680B0378 
 226      34EFDF
 227 0102 1A1FC6BE 		.ascii	"\032\037\306\276v>\302;\262\304s\235\211*\203\303K\361"
 227      763EC23B 
 227      B2C4739D 
 227      892A83C3 
 227      4BF1
 228 0114 147B6A82 		.ascii	"\024{j\202\204\011h\373\372\264\375\306\032/l>~v\372"
 228      840968FB 
 228      FAB4FDC6 
 228      1A2F6C3E 
 228      7E76FA
 229 0127 CD0565A3 		.ascii	"\315\005e\243\216\327\\\022\336\336\320\231o\321b\177"
 229      8ED75C12 
 229      DEDED099 
 229      6FD1627F 
 230 0137 35FA92F9 		.ascii	"5\372\222\371l%\227l\377X\367j>\320\326\303\347\210"
 230      6C25976C 
 230      FF58F76A 
 230      3ED0D6C3 
 230      E788
ARM GAS  /tmp/ccR5eLeZ.s 			page 18


 231 0149 899BB007 		.ascii	"\211\233\260\007\270\024\223<\006\377\331\037\002J\310"
 231      B814933C 
 231      06FFD91F 
 231      024AC8
 232 0158 5554C9C3 		.ascii	"UT\311\303=\265A\3075P\241\327\365Az\036\322\222\302"
 232      3DB541C7 
 232      3550A1D7 
 232      F5417A1E 
 232      D292C2
 233 016b 2AB22B4A 		.ascii	"*\262+J`\024/\361\263\273M\014\026\034j^\377\322\323"
 233      60142FF1 
 233      B3BB4D0C 
 233      161C6A5E 
 233      FFD2D3
 234 017e 8764A871 		.ascii	"\207d\250qh{\367\366\306v\035\007)J\012\243[`\220\323"
 234      687BF7F6 
 234      C6761D07 
 234      294A0AA3 
 234      5B6090D3 
 235 0192 D84F5C3D 		.ascii	"\330O\\=q\247\211\341\013p\376\004\347E&.;\006?x\227"
 235      71A789E1 
 235      0B70FE04 
 235      E745262E 
 235      3B063F78 
 236 01a7 9022964B 		.ascii	"\220\"\226KID\210\270H\265b\251\343]\302!\031}\031\200"
 236      494488B8 
 236      48B562A9 
 236      E35DC221 
 236      197D1980 
 237 01bb AA930DCA 		.ascii	"\252\223\015\312\010:\336\246\374Q\034\031\371\354\315"
 237      083ADEA6 
 237      FC511C19 
 237      F9ECCD
 238 01ca 4DF9C8B1 		.ascii	"M\371\310\261-\260\331\304\250\037)FF\002\034<p\266"
 238      2DB0D9C4 
 238      A81F2946 
 238      46021C3C 
 238      70B6
 239 01dc 00701CDA 		.ascii	"\000p\034\332\273\332\033\362\236qr\026\226Q\224\347"
 239      BBDA1BF2 
 239      9E717216 
 239      965194E7 
 240 01ec A9940A8F 		.ascii	"\251\224\012\217~\364\377@\011\306%\272\240\215f&\376"
 240      7EF4FF40 
 240      09C625BA 
 240      A08D6626 
 240      FE
 241 01fd 6C231DAF 		.ascii	"l#\035\257\273\005X\262\217`\261>\372tI\364\321\343"
 241      BB0558B2 
 241      8F60B13E 
 241      FA7449F4 
 241      D1E3
 242 020f C23EEA8F 		.ascii	"\302>\352\217\227\370\275\343o\237|\345\022\034t\033"
 242      97F8BDE3 
 242      6F9F7CE5 
 242      121C741B 
 243 021f 40950D10 		.ascii	"@\225\015\020\374G\361u\034\"\301\217\234/\266\216\367"
ARM GAS  /tmp/ccR5eLeZ.s 			page 19


 243      FC47F175 
 243      1C22C18F 
 243      9C2FB68E 
 243      F7
 244 0230 B044B2A2 		.ascii	"\260D\262\242\223M\315M\243l\246\374\237$G\015\271\322"
 244      934DCD4D 
 244      A36CA6FC 
 244      9F24470D 
 244      B9D2
 245 0242 6FEFFD43 		.ascii	"o\357\375CR\227\022\365\243T>\352\374\334\277V$'D)$"
 245      529712F5 
 245      A3543EEA 
 245      FCDCBF56 
 245      24274429 
 246 0257 7885146E 		.ascii	"x\205\024n\376\212\347a\273n\255\220\260\0262\327\257"
 246      FE8AE761 
 246      BB6EAD90 
 246      B01632D7 
 246      AF
 247 0268 208B93DD 		.ascii	" \213\223\335\317\037\340\351\205Y\244\020w\226\314"
 247      CF1FE0E9 
 247      8559A410 
 247      7796CC
 248 0277 A2254A33 		.ascii	"\242%J3\002\317\247\337w^y\346\321&\026)\014\347-&\001"
 248      02CFA7DF 
 248      775E79E6 
 248      D1261629 
 248      0CE72D26 
 249 028c A9986C36 		.ascii	"\251\230l6W\234\302H\360IoR\234$\000t\257)\257 \220"
 249      579CC248 
 249      F0496F52 
 249      9C240074 
 249      AF29AF20 
 250 02a1 F788F8FD 		.ascii	"\367\210\370\375\0327\274\226O\211\233k\271\240\311"
 250      1A37BC96 
 250      4F899B6B 
 250      B9A0C9
 251 02b0 16A62325 		.ascii	"\026\246#%\332x\004:f\207\317\275\361\003F\346\233\305"
 251      DA78043A 
 251      6687CFBD 
 251      F10346E6 
 251      9BC5
 252 02c2 1B07A900 		.ascii	"\033\007\251\000\003/\000kHO\027\317k\272\\\005$\223"
 252      032F006B 
 252      484F17CF 
 252      6BBA5C05 
 252      2493
 253 02d4 94440294 		.ascii	"\224D\002\224\213\275k=\267\300lo\\\270 \231\012\213"
 253      8BBD6B3D 
 253      B7C06C6F 
 253      5CB82099 
 253      0A8B
 254 02e6 0D65655A 		.ascii	"\015eeZE\275Yk\356\253\326\322\216fg4\30764\243\336"
 254      45BD596B 
 254      EEABD6D2 
 254      8E666734 
 254      C73634A3 
ARM GAS  /tmp/ccR5eLeZ.s 			page 20


 255 02fb 4EA64C27 		.ascii	"N\246L'c\267\226\031\240\030\231F\255\320\314H[V\272"
 255      63B79619 
 255      A0189946 
 255      ADD0CC48 
 255      5B56BA
 256 030e 416B4CDB 		.ascii	"AkL\333\031G+?PUQ\325B>F\332N\036i\336e\225\325\203"
 256      19472B3F 
 256      505551D5 
 256      423E46DA 
 256      4E1E69DE 
 257 0326 DAAC1F6D 		.ascii	"\332\254\037mJ\356\370\247W\262%\243UTUWVkf\203q\264"
 257      4AEEF8A7 
 257      57B225A3 
 257      55545557 
 257      566B6683 
 258 033c A92EA919 		.ascii	"\251.\251\031\226c:GR\206A\236\353\377\"\344[\325;\255"
 258      96633A47 
 258      5286419E 
 258      EBFF22E4 
 258      5BD53BAD 
 259 0350 0E59B04C 		.ascii	"\016Y\260LcQU\365\201D\255\356$\033msk\242t\0330\033"
 259      635155F5 
 259      8144ADEE 
 259      241B6D73 
 259      6BA2741B 
 260 0366 4256D24A 		.ascii	"BV\322J\333\255P\272\010@\206\316\245\327\011\220\337"
 260      DBAD50BA 
 260      084086CE 
 260      A5D70990 
 260      DF
 261 0377 F4338D62 		.ascii	"\3643\215b"
 262              		.text
 263              		.section	.gnu.lto_.symbol_nodes.e16e6773c32f41c6,"",%progbits
 264 0000 789C4D8C 		.ascii	"x\234M\214=\016Aa\024Dg\346\276\213]X\352\274(\020\225"
 264      3D0E4161 
 264      144467E6 
 264      BE8B5D58 
 264      EABC2810 
 265 0015 15682C45 		.ascii	"\025h,E\241\323k\011\211D\342?\242\363^\010\337T\347"
 265      A1D36B09 
 265      8944E23F 
 265      A2F35E08 
 265      DF54E7
 266 0028 9C620461 		.ascii	"\234b\004a\216\357t\246\201\351\012\260gc\346\203\015"
 266      8EEF74A6 
 266      81E90AB0 
 266      6763E683 
 266      0D
 267 0039 41179AFF 		.ascii	"A\027\232\377\252+\255Bot\024z\247\253\342\342D\246"
 267      AA2BAD42 
 267      6F74147A 
 267      A7ABE2E2 
 267      44A6
 268 004b C1279D9F 		.ascii	"\301'\235\237Z\327\344\213\356\374,\324\305vx\354G\364"
 268      5AD7E48B 
 268      EEFC2CD4 
 268      C57678EC 
ARM GAS  /tmp/ccR5eLeZ.s 			page 21


 268      47F4
 269 005d B058EE0E 		.ascii	"\260X\356\016\031!\014&\373uF\325\300\250\205\0246-"
 269      19210C26 
 269      FB7546D5 
 269      C0A88514 
 269      362D
 270 006f E00D940A 		.ascii	"\340\015\224\0124\002"
 270      3402
 271              		.text
 272              		.section	.gnu.lto_.refs.e16e6773c32f41c6,"",%progbits
 273 0000 789C6362 		.ascii	"x\234cb`b\020e\200\000F bdbbdd\006\322,@\314\012\024"
 273      60621065 
 273      80004620 
 273      62646262 
 273      646406D2 
 274 0019 0200040B 		.ascii	"\002\000\004\013\0004"
 274      0034
 275              		.text
 276              		.section	.gnu.lto_.decls.e16e6773c32f41c6,"",%progbits
 277 0000 789CC55B 		.ascii	"x\234\305[{\224\024\325\231\257\252\356\231\356f\006"
 277      7B9414D5 
 277      99AFAAEE 
 277      99EE6606 
 278 0010 188DB2B3 		.ascii	"\030\215\262\263g\3310zb\342\352\302\200\"\220\234\023"
 278      67D9307A 
 278      62E2EAC2 
 278      8022909C 
 278      13
 279 0021 C590DDE8 		.ascii	"\305\220\335\3509\321\365H<\233svM\247\350)\230\216"
 279      39D1F548 
 279      3C9B7376 
 279      4DA7E829 
 279      988E
 280 0033 FD9854D7 		.ascii	"\375\230T\3270\340?)\206\307\000\3120\274\007\035`x"
 280      30E03F29 
 280      86C700CA 
 280      30BC071D 
 280      6078
 281 0045 09A8C843 		.ascii	"\011\250\310Cy\030\036iI\200\021X\236\002\022\024Z\302"
 281      79181E69 
 281      49801158 
 281      9E021214 
 281      5AC2
 282 0057 43C982A0 		.ascii	"C\311\202\240\216:\210\314~\367\253[\325u\253\253\272"
 282      8E3A88CC 
 282      7EF7AB5B 
 282      D575ABAB 
 282      BA
 283 0068 AB0675EB 		.ascii	"\253\006u\353\234\272}\353\326\275\277\373\275\357\253"
 283      9CBA7DEB 
 283      D6BDBFFB 
 283      BDEFAB
 284 0077 5AE004AE 		.ascii	"Z\340\004\256\324\307q\235p}\3610\307\315\015r\\1\307"
 284      D4C7719D 
 284      707DF130 
 284      C7CD0D72 
 284      5C31C7
ARM GAS  /tmp/ccR5eLeZ.s 			page 22


 285 008a 710F72D9 		.ascii	"q\017r\331+\000\367b\270\237\3469\256\012\356\337\301"
 285      2B00F762 
 285      B89FE639 
 285      AE0AEEDF 
 285      C1
 286 009b 9D80BB16 		.ascii	"\235\200\273\026\356\261p\013\360n\022\374\236\3449"
 286      EEB1700B 
 286      F06E12FC 
 286      9EE439
 287 00aa E6226D4A 		.ascii	"\346\"mJ\341^\012w\017\232'U\266\300}+4\272\015\356"
 287      E15E0A77 
 287      0F9A2755 
 287      B6C07D2B 
 287      34BA0DEE 
 288 00be 46286880 		.ascii	"F(h\200\273\027\344\273\301\3572x\007\344p\323 ?\017"
 288      BB17E4BB 
 288      C1EF3278 
 288      07E470D3 
 288      203F0F
 289 00d1 EE10AFD1 		.ascii	"\356\020\257\321C\260\376\001\352\374\023\334\337\207"
 289      43B0FE01 
 289      EAFC13DC 
 289      DF87
 290 00df FB4770DF 		.ascii	"\373Gp\337#hx\223,\375\022:\273\027\350\227\364\323"
 290      23687893 
 290      2CFD123A 
 290      BB17E897 
 290      F4D3
 291 00f1 97F64FFA 		.ascii	"\227\366O\372\355\007\371\321\274\326\367\031\332?\351"
 291      ED07F9D1 
 291      BCD6F719 
 291      DA3FE9
 292 0100 3B40F1EC 		.ascii	";@\361\354\372\256\245\365E\370\255\024r\351 \262\272"
 292      FAAEA5F5 
 292      45F8AD14 
 292      72E920B2 
 292      BA
 293 0111 D542C705 		.ascii	"\325B\307\005\270\375.\345\360\000\344\237\205\374 "
 293      B8FD2EE5 
 293      F000E49F 
 293      85FC20
 294 0120 F8FD0D9F 		.ascii	"\370\375\015\237+\227\020\355\303I6D7O\323v\325\274"
 294      2B9710ED 
 294      C3493644 
 294      374FD376 
 294      D5BC
 295 0132 46DF6081 		.ascii	"F\337`\201\245\221\350\262G\027t\344DS\220b:\321\364"
 295      A591E8B2 
 295      471774E4 
 295      44539062 
 295      3AD1F4
 296 0145 34B59718 		.ascii	"4\265\227\030\237+/bS=-\264\\\376\006\350I\024\240\207"
 296      9F2B2F62 
 296      533D2DB4 
 296      5CFE06E8 
 296      4914A087 
 297 0159 B491293D 		.ascii	"\264\221)=C,\362\351\303-T3W2;\227\236\340\347\253\351"
ARM GAS  /tmp/ccR5eLeZ.s 			page 23


 297      432CF2E9 
 297      C32D5433 
 297      57323B97 
 297      9EE0E7AB 
 298 016e 096A67E7 		.ascii	"\011jg\347\037\370^\334\034\025\256\326I\252\312+%\334"
 298      1FF85EDC 
 298      1C15AED6 
 298      49AACA2B 
 298      25DC
 299 0180 5455AD27 		.ascii	"TU\255'\017\217\264\365\270\225\233A\336T\264\001\371"
 299      0F8FB4F5 
 299      B8959B41 
 299      DE54B401 
 299      F9
 300 0191 BFE645BE 		.ascii	"\277\346E\276G\210k\365c\2564\304\375\034\340\356\342"
 300      47886BF5 
 300      63AE34C4 
 300      FD1CE0EE 
 300      E2
 301 01a2 96A96A53 		.ascii	"\226\251jS\346\305\257\217\370T5(\362\313\370[A\034"
 301      E6C5AF8F 
 301      F8543528 
 301      F2CBF85B 
 301      411C
 302 01b4 BFE4B97B 		.ascii	"\277\344\271{\270U\320\260IU\227\334k\221\012^\005\201"
 302      B855D0B0 
 302      495597DC 
 302      6B910A5E 
 302      0581
 303 01c6 05EEBF79 		.ascii	"\005\356\277y0\304\225\200'\362+\370{\264\236\324\314"
 303      30C49580 
 303      27F22BF8 
 303      7BB49ED4 
 303      CC
 304 01d7 8286F7EB 		.ascii	"\202\206\367\353\371q@\250\366\216\243om\256;\270Vh"
 304      F97140A8 
 304      F68EA36F 
 304      6DAE3BB8 
 304      5668
 305 01e9 90FE624F 		.ascii	"\220\376bO\013\257\266\356\340mz\034\252w\0304q\262"
 305      0BAFB6EE 
 305      E06D7A1C 
 305      AA771834 
 305      71B2
 306 01fb 78DAA3C8 		.ascii	"x\332\243\310\311\253\310\311\024\236gz\240(\255C\235"
 306      C9ABC8C9 
 306      149E677A 
 306      A028AD43 
 306      9D
 307 020c 60046E3E 		.ascii	"`\004n>6Y\223C\370\356\003:\341k\\\020^\237>4u\301?"
 307      36599343 
 307      F8EE033A 
 307      E16B5C10 
 307      5E9F3E34 
 308 0223 12C2457E 		.ascii	"\022\302E~)_\002\270/\033\270\264\337\012\275_\342\177"
 308      295F02B8 
 308      2F1BB8B4 
ARM GAS  /tmp/ccR5eLeZ.s 			page 24


 308      DF0ABD5F 
 308      E27F
 309 0235 34AB5DB4 		.ascii	"4\253]\264\002\213wxOi\223\250\203\255\361\014VaG\252"
 309      028B7778 
 309      4F6993A8 
 309      83ADF10C 
 309      566147AA 
 310 0249 7699B915 		.ascii	"v\231\271\025\371u\374]\220\256\347\357\200\364\015"
 310      F975FC5D 
 310      90AEE7EF 
 310      80F40D
 311 0258 488D4BE0 		.ascii	"H\215K\340\336\340u\235\332\211\2560\013\035{ZP$!nr"
 311      DEE0759D 
 311      DA89AE30 
 311      0B1D7B5A 
 311      5024216E 
 312 026d D646395B 		.ascii	"\326F9[\026\250:\333\237\373\313!~<J}34\023\270v\213"
 312      16A83ADB 
 312      9FFBCB21 
 312      7E3C4A7D 
 312      333413B8 
 313 0283 42DD437D 		.ascii	"B\335C}5}\347[|=BmA\250\253BW\241\332\347m\3751\032"
 313      357DE75B 
 313      7C3D426D 
 313      41A8AB42 
 313      57A1DAE7 
 314 029b D97604EA 		.ascii	"\331v\004\352\364\261@\"\037087\236\365\012\004\015"
 314      F4B14022 
 314      1F303837 
 314      9EF50A04 
 314      0D
 315 02ac 5FD30C19 		.ascii	"_\323\014\031\350zr\337ru\201\233\352\267\250\316\316"
 315      E87A72DF 
 315      7275819B 
 315      EAB7A8CE 
 315      CE
 316 02bd 60824EAA 		.ascii	"`\202N\252S3-\273O\011$\340\370t\017*v\222\221\300M"
 316      53332DBB 
 316      4F0924E0 
 316      F8740F2A 
 316      769291C0 
 317 02d2 C7BEFE6C 		.ascii	"\307\276\376l\365\240\2163m\377\322\254\252e\332\253"
 317      F5A08E33 
 317      6DFFD2AC 
 317      AA65DAAB 
 318 02e2 C20EB461 		.ascii	"\302\016\264a\317<\264\226\202\021M\320\273\377\001"
 318      CF3CB496 
 318      82114DD0 
 318      BBFF01
 319 02f1 76DF86DD 		.ascii	"v\337\206\335\267Y\273?q\276\355\277\264\356\333\\u"
 319      B759BB3F 
 319      71BEEDBF 
 319      B4EEDB5C 
 319      75
 320 0302 FFE6F1D9 		.ascii	"\377\346\361\331\271\335\213\374\203\267\347\263\214"
 320      B9DD8BFC 
 320      83B7E7B3 
ARM GAS  /tmp/ccR5eLeZ.s 			page 25


 320      8C
 321 030f 8E331FF6 		.ascii	"\2163\037\366^\204\235\354C?\235Pd5\215\207JX\345\301"
 321      5E849DEC 
 321      433F9D50 
 321      64358D87 
 321      4A58E5C1 
 322 0323 B3A982C0 		.ascii	"\263\251\202\300M+\322\251\357R\230\0006?|z\325zU\235"
 322      4D2BD2A9 
 322      EF529800 
 322      363F7C7A 
 322      D57A559D 
 323 0337 52ACD3D0 		.ascii	"R\254\323\320\344\031\261\202\021\304\326\343\030x4"
 323      E419B182 
 323      11C4D6E3 
 323      187834
 324 0346 B0596EC0 		.ascii	"\260Yn\300\034\355\250>\275\335\0146\3273\030K\331A"
 324      1CEDA83E 
 324      BDDD0C36 
 324      D733184B 
 324      D941
 325 0358 33D87C37 		.ascii	"3\330|7`e\316\224\0356\203\265x\006c){\307\014\266\310"
 325      6065CE94 
 325      1D3683B5 
 325      78066329 
 325      7BC70CB6 
 326 036d 0D58B933 		.ascii	"\015X\2713e\307\314`K=\203\261\224\275k\006[\341\006"
 326      65C7CC60 
 326      4B3D83B1 
 326      94BD6B06 
 326      5BE106
 327 0380 ACC28632 		.ascii	"\254\302\2062\343\262kG\314z7o\3309\014}Ez@\360h\323"
 327      E3B26B47 
 327      CC7A376F 
 327      D8390C7D 
 327      457A40F0 
 328 0396 5C166375 		.ascii	"\\\026cu\221\327\000\306\360\015\343\367\351%\374\254"
 328      91D700C6 
 328      F00DE3F7 
 328      E925FCAC 
 329 03a6 F16A5B7F 		.ascii	"\361j[\177}\014]\347\0061\217\3014\3555\015\310\233"
 329      7D0C5DE7 
 329      06318FC1 
 329      34ED350D 
 329      C89B
 330 03b8 3C83B16A 		.ascii	"<\203\261jYH\300\230PC\207\243\314\362tys6\330\005u"
 330      5948C098 
 330      504387A3 
 330      CCF27479 
 330      7336D805 
 331 03cd 2C322BD3 		.ascii	",2+\323\"\033L\322\004\243\262Z^n_W\344?\302\201\375"
 331      221B4CD2 
 331      04A3B25A 
 331      5E6E5F57 
 331      E43FC281 
 332 03e2 221F32A8 		.ascii	"\"\0372\250\320\362z\256\023\247\302\333\212\354\346"
 332      D0F27AAE 
 332      13A7C2DB 
ARM GAS  /tmp/ccR5eLeZ.s 			page 26


 332      8AECE6
 333 03f1 7B0890BF 		.ascii	"{\010\220\277\251\223%\\0[\302\0167b\312\343\012\007"
 333      A993255C 
 333      305BC20E 
 333      3762CAE3 
 333      0A07
 334 0403 9DC4949E 		.ascii	"\235\304\224\236\244N\346\307\255\353\235wr\010\321"
 334      A44EE6C7 
 334      ADEB9D77 
 334      7208D1
 335 0412 F99F5FC6 		.ascii	"\371\237_\306\350\3741\016\334\273\213lg\000\256\260"
 335      E8FC310E 
 335      DCBB8B6C 
 335      6700AEB0 
 336 0422 BE9A7E40 		.ascii	"\276\232~@\237N|\202`\207\273\016\326\332~\274\267\352"
 336      9F4E7C82 
 336      6087BB0E 
 336      D6DA7EBC 
 336      B7EA
 337 0434 17F97604 		.ascii	"\027\371v\004:\2313f\204,\323\211\020;\340\207B\331"
 337      3A993366 
 337      842CD389 
 337      103BE087 
 337      42D9
 338 0446 4CA77EB1 		.ascii	"L\247~\261Z\374V\3338i\376\262Y\363\347=k\236q\020\230"
 338      5AFC56DB 
 338      3869FEB2 
 338      59F3E73D 
 338      6B9E7110 
 339 045b 807C2ECC 		.ascii	"\200|.\314S\323\343|&S\317\353\0270M\333\273\375\247"
 339      53D3E37C 
 339      2653CFEB 
 339      17304DDB 
 339      BBFDA7
 340 046e 384DBB86 		.ascii	"8M\273\206r\275d\257 \027@_M_}/\002}\215@\237w\031\250"
 340      72BD64AF 
 340      2017405F 
 340      4D5F7D2F 
 340      027D8D40 
 341 0486 7DDEC221 		.ascii	"}\336\302!\010D<V\340n\344h\232\267h\232g5`8\035\365"
 341      08443C56 
 341      E06EE468 
 341      9AB7689A 
 341      67356038 
 342 049c B96FABAE 		.ascii	"\271o\253\256\300M.\266\250\213a'\317\310`\204\333\353"
 342      C04D2EB6 
 342      A88B6127 
 342      CFC86084 
 342      DBEB
 343 04ae 33F94FEB 		.ascii	"3\371O\353\325\346\376\036\244\363\034\325\327D\224"
 343      D5E6FE1E 
 343      A4F31CD5 
 343      D74494
 344 04bd 4E63B155 		.ascii	"Nc\261U:_{\024\017\3140<\263\021d\331h\350\354\002\033"
 344      3A5F7B14 
 344      0FCC303C 
 344      B31164D9 
ARM GAS  /tmp/ccR5eLeZ.s 			page 27


 344      68E8EC02 
 345 04d2 7FD2D898 		.ascii	"\177\322\330\230\212l\264|\003l,\363\314F\231\211\015"
 345      8A6CB47C 
 345      036C2CF3 
 345      CC469989 
 345      0D
 346 04e3 5CBCCED6 		.ascii	"\\\274\316\326\006\277\357q3\363O\337\011=\323\205\357"
 346      06BFEF71 
 346      33F34FDF 
 346      093DD385 
 346      EF
 347 04f4 3173E7F4 		.ascii	"1s\347\364\321\375|\205V\\x\301\376\351~\323\"Ou\265"
 347      D1FD7C85 
 347      565C78C1 
 347      FEE97ED3 
 347      224F75B5 
 348 0508 9CDA6B2C 		.ascii	"\234\332k,\362f\242\310V\025\3338\230\033\250\326\257"
 348      F266A2C8 
 348      5615DB38 
 348      981BA8D6 
 348      AF
 349 0519 0EDC4E02 		.ascii	"\016\334N\002\351\034\204Y\323U\230L\373\361M\232\237"
 349      E91C8459 
 349      D355984C 
 349      FBF14D9A 
 349      9F
 350 052a 3623D0A6 		.ascii	"6#\320\246\034\025\026[4X\314j\020\036IO_b\200\374\003"
 350      1C15165B 
 350      3458CC6A 
 350      101E494F 
 350      5F6280FC 
 351 053f 2D210F01 		.ascii	"-!\017\001\356;o'po!\371D{\036\247_\272\3654\234\235"
 351      EE3B6F27 
 351      706F21F9 
 351      447B1EA7 
 351      5FBAF534 
 352 0555 A54F9D34 		.ascii	"\245O\2354\005\265\335\024b}z\321t}o\344!2y:t\223p["
 352      05B5DD14 
 352      627D7AD1 
 352      747D6FE4 
 352      2132793A 
 353 056d 0F586705 		.ascii	"\017Xg\005\226E\3332\207aG\3374Z\367\374\277\242\272"
 353      9645DB32 
 353      876147DF 
 353      345AF7FC 
 353      BFA2BA
 354 0580 9708849C 		.ascii	"\227\010\204\234ws\324\275\224\267\254\332H\201\251"
 354      7773D4BD 
 354      94B7ACDA 
 354      4881A9
 355 058f 8A93232D 		.ascii	"\212\223#-\026L#\340\337oV\015\273\333-j\270z\223r\353"
 355      164C23E0 
 355      DF6F560D 
 355      BBDB2D6A 
 355      B87A9372 
 356 05a4 A06A28B4 		.ascii	"\240j(\264\302\376\255\216U\212\214t`\267/\013\326\035"
 356      C2FEAD8E 
ARM GAS  /tmp/ccR5eLeZ.s 			page 28


 356      558A8C74 
 356      60B72F0B 
 356      D61D
 357 05b6 B26B9949 		.ascii	"\262k\231ItFD\336\025\216\024'\317\205\324\231\245\332"
 357      744644DE 
 357      158E1427 
 357      CF85D499 
 357      A5DA
 358 05c8 569DC86F 		.ascii	"V\235\310o\344\005\212j7Q*(\236\364)\251\255\277\227"
 358      E4058A6A 
 358      37512A28 
 358      9EF429A9 
 358      ADBF97
 359 05db 98B34B8F 		.ascii	"\230\263K\2179kP\226+\003V\245\223 \302(\335\223\323"
 359      396B5096 
 359      2B0356A5 
 359      9320C228 
 359      DD93D3
 360 05ee BD16E059 		.ascii	"\275\026\340Yv\334.\224\215\313\311\250V\231\215j}\340"
 360      76DC2E94 
 360      8DCBC9A8 
 360      56998D6A 
 360      7DE0
 361 0600 A64C008C 		.ascii	"\246L\000\214j\3272\315\250\012\031\201\312\233\227"
 361      6AD732CD 
 361      A80A1981 
 361      CA9B97
 362 060f 3102F726 		.ascii	"1\002\367&\366\274\321j\005sn\2645\320}\322\215\256"
 362      F6BCD16A 
 362      05736EB4 
 362      35D07DD2 
 362      8DAE
 363 0621 ACA0DDC6 		.ascii	"\254\240\335\306\0126v\321\012\300\244?z\233G8mYv\326"
 363      0A3676D1 
 363      0AC0A43F 
 363      7A9B4738 
 363      6D5976D6 
 364 0635 20D2A316 		.ascii	" \322\243\026(\334u\311\253`4\373J\2378GF\314\355\002"
 364      28DC75C9 
 364      AB6034FB 
 364      4A9F3847 
 364      46CCED02 
 365 0649 D984BE98 		.ascii	"\331\204\276\230cZ\232dL\246\225\025\243\310o\026\310"
 365      635A9A64 
 365      4CA69515 
 365      A3C86F16 
 365      C8
 366 065a 3AED4D81 		.ascii	":\355M\201l\300\376\021\323\255\202i\033\326\311,\266"
 366      6CC0FE11 
 366      D3AD8269 
 366      1BD6C92C 
 366      B6
 367 066b 65CD42E4 		.ascii	"e\315B\344_\267\212\321\355j\271`7\033\314\326\367\311"
 367      5FB78AD1 
 367      ED6AB960 
 367      371BCCD6 
 367      F7C9
ARM GAS  /tmp/ccR5eLeZ.s 			page 29


 368 067d 4D5A5FCB 		.ascii	"MZ_\313\356\375~\334U\364\260\367\272w\247\356\270\177"
 368      EEFD7EDC 
 368      55F4B0F7 
 368      BA77A7EE 
 368      B87F
 369 068f 46C7EDC8 		.ascii	"F\307\355\310\221\356\026\353\374\312\315\006\351\304"
 369      91EE16EB 
 369      FCCACD06 
 369      E9C4
 370 069d 60175931 		.ascii	"`\027Y1.\201{>\350b\215Sa#uc\240=F\247i\005wY\365\221"
 370      2E817B3E 
 370      E8628D53 
 370      61237563 
 370      A03D46A7 
 371 06b7 EBDCF38F 		.ascii	"\353\334\363\217\340\310\3656ZZc\320\376\270#\317f\355"
 371      E0C8F536 
 371      5A5A63D0 
 371      FEB823CF 
 371      66ED
 372 06c9 026CB22F 		.ascii	"\002l\262/'\2307\354\323\217;\366\271p\343\372\364\353"
 372      279837EC 
 372      D38F3BF6 
 372      B970E3FA 
 372      F4EB
 373 06db CC71876E 		.ascii	"\314q\207n\201\373\362[`^y2*\334gr\220\375\350 \007"
 373      81FBF25B 
 373      605E7932 
 373      2ADC6772 
 373      90FDE820 
 374 06f0 CC4E2170 		.ascii	"\314N!p\253\335\310\376n'S\2040tX;g\322O\2166X\361\354"
 374      ABDDC8FE 
 374      6E275384 
 374      3074583B 
 374      67D24F8E 
 375 0708 02118367 		.ascii	"\002\021\203g\326e}\272\351\010\356\016i6\272\335\015"
 375      D6657DBA 
 375      E908EE0E 
 375      6936BADD 
 375      0D
 376 0719 71FD9DC1 		.ascii	"q\375\235\301\026\315\322\205\273\001g(\273\335\340"
 376      16CDD285 
 376      BB016728 
 376      BBDDE0
 377 0728 0D7162B6 		.ascii	"\015qb\266>\275\351H\013\305\323NU\016x\306c\351;:\213"
 377      3EBDE948 
 377      0BC5D34E 
 377      550E78C6 
 377      63E93B3A 
 378 073d 99CFBDEB 		.ascii	"\231\317\275\353\006n\250k\335g\017\021a@\305M\254W"
 378      066EA86B 
 378      DD670F11 
 378      6140C54D 
 378      AC57
 379 074f F0746A13 		.ascii	"\360tj\023\246;0=\203\351YL\317cz\011\323\016L'`\030"
 379      A63B303D 
 379      83E9594C 
 379      CF637A09 
ARM GAS  /tmp/ccR5eLeZ.s 			page 30


 379      D30E4C27 
 380 0765 9D826923 		.ascii	"\235\202i#\246m\230\036\302\364\010\246G1=\216\351\011"
 380      A66D981E 
 380      C2F408A6 
 380      47313D8E 
 380      E909
 381 0777 3701D7E5 		.ascii	"7\001\327\345\034p\011\337\213\346\236\362\351\306z"
 381      1C7009DF 
 381      8BE69EF2 
 381      E9C67A
 382 0786 CAE2A71C 		.ascii	"\312\342\247\034\367Cn9\011\210x\256;;\355\327\247\234"
 382      F7436E39 
 382      098878AE 
 382      3B3BEDD7 
 382      A79C
 383 0798 3085E4FB 		.ascii	"0\205\344\3738@\343\353\223\002s@\254\035\017\247\257"
 383      3840E3EB 
 383      93027340 
 383      AC1D0FA7 
 383      AF
 384 07a9 EF296D1A 		.ascii	"\357)m\032\227\351\354\354\303\034\015k\240Nt\236\022"
 384      97E9ECEC 
 384      C31C0D6B 
 384      A04E749E 
 384      12
 385 07ba 343A7D78 		.ascii	"4:}x\036n\360\247\023\215t\177l\241\373\007\334RU\235"
 385      1E6EF0A7 
 385      138D747F 
 385      6CA1FB07 
 385      DC52559D 
 386 07ce A9BE     		.ascii	"\251\276"
 387 07d0 283DA20F 		.ascii	"(=\242\017\270\235X\343}\301\236hc&\255\261\253n:\373"
 387      B89D58E3 
 387      7DC19E68 
 387      6326ADB1 
 387      AB6E3AFB 
 388 07e4 C4235956 		.ascii	"\304#YV\235ZQ\0023\271\254\266f\322\263\367{g\365\234"
 388      9D5A5102 
 388      33B9ACB6 
 388      66D2B3F7 
 388      7B67F59C 
 389 07f8 95D50BB9 		.ascii	"\225\325\013\271\254\326\207lY\335BX\325\252\377/F\270"
 389      ACD6876C 
 389      59DD4258 
 389      D5AAFF2F 
 389      46B8
 390 080a B38EAC5E 		.ascii	"\263\216\254^\310\303\252S+J\340\005[V\257\351\254j"
 390      C8C3AA53 
 390      2B4AE005 
 390      5B56AFE9 
 390      AC6A
 391 081c CA12B866 		.ascii	"\312\022\270f{\032\267\351\352\000\267\020\010\215\027"
 391      7B1AB7E9 
 391      EA00B710 
 391      088D17
 392 082b BBA40EA7 		.ascii	"\273\244\016\247V\224\306\277\333\322\370\331\001\357"
 392      5694C6BF 
ARM GAS  /tmp/ccR5eLeZ.s 			page 31


 392      DBD2F8D9 
 392      01EF
 393 0839 EAF8D8AA 		.ascii	"\352\370\330\252\216\313\271\352Xg\317\352\011\302\352"
 393      8ECBB9EA 
 393      5867CFEA 
 393      09C2EA
 394 0848 65B4BCFD 		.ascii	"e\264\274\375X\343\262#\253\227\363\260\352\324\212"
 394      58E3B223 
 394      AB97F3B0 
 394      EAD48A
 395 0857 1278D5C6 		.ascii	"\022x\325\306\311\2322G^\353\370i\363zu\302\024\365"
 395      C99A3247 
 395      5EEBF869 
 395      F37A75C2 
 395      14F5
 396 0869 86F5230C 		.ascii	"\206\365#\014\307cB\202\366\271\013G\373\"d\015\020"
 396      C7634282 
 396      F6B90B47 
 396      FB22640D 
 396      10
 397 087a 5AD52F6D 		.ascii	"Z\325/m(Y\233\231\277\376\203\310|u\007\371\032\244"
 397      28599B99 
 397      BFFE83C8 
 397      7C7507F9 
 397      1AA4
 398 088c B35C6D5A 		.ascii	"\263\\mZo%\306\037\262!\006\273\027\270/\273\361Y\370"
 398      6F25C61F 
 398      B22106BB 
 398      17B82FBB 
 398      F159F8
 399 089f 6B768EC1 		.ascii	"kv\216\301<p\234\225T\265\304L*Em(\341\263\017\323K"
 399      3C709C95 
 399      54B5C44C 
 399      2A456D28 
 399      E1B30FD3 
 400 08b4 6817F479 		.ascii	"h\027\364yv\211\321\245\335u'\267\230\210wA\303\321"
 400      7689D1A5 
 400      DD7527B7 
 400      98887741 
 400      C3D1
 401 08c6 DDFC4CB5 		.ascii	"\335\374L\265\265\015\006gX`\365\261\231y\247\003:;"
 401      B50D0667 
 401      5860F5B1 
 401      9979A703 
 401      3A3B
 402 08d8 6338D317 		.ascii	"c8\323\027 \323\177\202S\242\006\037\031\307\347\227"
 402      20D37F82 
 402      53A2061F 
 402      19C7E797 
 403 08e8 B0922C08 		.ascii	"\260\222,\010#p\313\261\311T_\316\224\350\324$:%\"\357"
 403      2370CBB1 
 403      C9545FCE 
 403      94E8D424 
 403      3A2522EF 
 404 08fc 0AAF6C66 		.ascii	"\012\257lf\234t\374t%c\254\031z\233(\3376\355A\244\274"
 404      9C74FC74 
 404      2563AC19 
ARM GAS  /tmp/ccR5eLeZ.s 			page 32


 404      7A9B28DF 
 404      36ED41A4 
 405 0911 11295F53 		.ascii	"\021)_S\230r\026F\340\266b\223\031\271\224_\232H)\237"
 405      98721646 
 405      E0B66293 
 405      19B9945F 
 405      9A48299F 
 406 0925 E18AF24D 		.ascii	"\341\212\362M\307\315\223!}UF\332vmU\266Y;t\334\214"
 406      C7CD9321 
 406      7D5546DA 
 406      766D55B6 
 406      593B74DC 
 407 093a 1B9D6F59 		.ascii	"\033\235oY\301<\255\311T\375<Z\373\276\340\003\317`"
 407      C13CADC9 
 407      54FD3C5A 
 407      FBBEE003 
 407      CF60
 408 094c 150C6547 		.ascii	"\025\014eG\346\261\323\326\277\271\301\313s(H\017~5"
 408      E6B1D3D6 
 408      BFB9C1CB 
 408      7328480F 
 408      7E35
 409 095e B0739EC1 		.ascii	"\260s\236\301X\342\376z\334t\302\270\307\320m\0360\273"
 409      58E2FE7A 
 409      DC74C2B8 
 409      C7D06D1E 
 409      30BB
 410 0970 A333BBCB 		.ascii	"\2433\273\313l$\"?\313G&U\263}d\3523\007\323\271\230"
 410      6C24223F 
 410      CB472655 
 410      B37D64EA 
 410      3307D3B9 
 411 0985 CEC3B419 		.ascii	"\316\303\264\031\323\371>f\272}\330\360\021[S,d\022"
 411      D3F93E66 
 411      BA7DD8F0 
 411      115B532C 
 411      6412
 412 0997 6A7ABEB3 		.ascii	"jz\276\263s\330-\2503/\276\331\370kt\216\005\350\034"
 412      73D82DA8 
 412      332FBED9 
 412      F86B748E 
 412      05E81C
 413 09aa EF16760E 		.ascii	"\357\026v\016\353\206\305el\322\232\343\034\273\217"
 413      EB86C565 
 413      6CD29AE3 
 413      1CBB8F
 414 09b9 E9CED1EA 		.ascii	"\351\316\321\352\3029\352\323\357\317u\267k\326j\364"
 414      C239EAD3 
 414      EFCF75B7 
 414      6BD66AF4 
 415 09c9 7F9B898D 		.ascii	"\177\233\211\215\345\215\332\367i\313\221\215\211\245"
 415      E58DDAF7 
 415      69CB918D 
 415      89A5
 416 09d7 05D96061 		.ascii	"\005\331`a\004n\0166Y\231\313\306.\235\215\225\256\330"
 416      046E0E36 
 416      5999CBC6 
ARM GAS  /tmp/ccR5eLeZ.s 			page 33


 416      2E9D8D95 
 416      AED8
 417 09e9 583057B7 		.ascii	"X0W\267\374e\276\354\202me~\373rTh}z\34114V\015l\203"
 417      FC65BEEC 
 417      826D657E 
 417      FB725468 
 417      7D7AE131 
 418 0a02 6730D6F2 		.ascii	"g0\326\362\327\035\363\372\245\330\213\253\217\010("
 418      D71DF3FA 
 418      A5D88BAB 
 418      8F0828
 419 0a11 D8D77C64 		.ascii	"\330\327|dE\363\222E\260]\334\025Xk\010\273+\261\212"
 419      45F39245 
 419      B05DDC15 
 419      586B08BB 
 419      2BB18A
 420 0a24 6CAFED9B 		.ascii	"l\257\355\233c\263\275\346~\262\360\206\3172\"?d\231"
 420      63B3BDE6 
 420      7EB2F086 
 420      CF32223F 
 420      6499
 421 0a36 2BE413C9 		.ascii	"+\344\023\311\325iw\243H^\367\221\000\262\321\"\022"
 421      D56977A3 
 421      485EF791 
 421      00B2D122 
 421      12
 422 0a47 CB1E39E9 		.ascii	"\313\0369\351\311\211\212\315\276\022\007{\312y'p\177"
 422      C9898ACD 
 422      BE12077B 
 422      CA792770 
 422      7F
 423 0a58 F22C3346 		.ascii	"\362,3F\367 \263\377Y\256\357s\343r\362/n\000\355b\262"
 423      F720B3FF 
 423      59AEEF73 
 423      E372F22F 
 423      6E00ED62 
 424 0a6d DD65761D 		.ascii	"\335ev\035XNb\344{\005#\334\253\230\256\306t=\246\177"
 424      584E62E4 
 424      7B0523DC 
 424      AB98AEC6 
 424      743DA67F 
 425 0a81 34C73C27 		.ascii	"4\307<'\331\020\2037\2605'j\355\262\023]\311u\"/`\214"
 425      D9108337 
 425      B035276A 
 425      EDB2135D 
 425      C975222F 
 426 0a97 20D3EDC7 		.ascii	" \323\355\307\364U>\361\011\221_\347s\201\227g3t\266"
 426      F4553EF1 
 426      09915FE7 
 426      73819767 
 426      3374B6
 427 0aaa 361C690E 		.ascii	"6\034i\016\326V\312{\004\253\310\247\224V\223R\226\240"
 427      D656CA7B 
 427      04ABC8A7 
 427      94569352 
 427      96A0
 428 0abc 5296A20A 		.ascii	"R\226\242\012\266b\272\015\323\355\354\020t\250\324"
ARM GAS  /tmp/ccR5eLeZ.s 			page 34


 428      B662BA0D 
 428      D3EDEC10 
 428      74A8D4
 429 0acb 3204B101 		.ascii	"2\004\261\001\337nD4\313GM\257=\011\374\270\336i\273"
 429      DF6E4434 
 429      CB474DAF 
 429      3D09FCB8 
 429      DE69BB
 430 0ade D4A8EDB4 		.ascii	"\324\250\355\264\355\320\306\037\373\300\235o\247\355"
 430      EDD0C61F 
 430      FBC09D6F 
 430      A7ED
 431 0aec 0236D999 		.ascii	"\0026\331\231;9\273\241\007\356\235\205\003\367\204"
 431      3B39BBA1 
 431      07EE9D85 
 431      03F784
 432 0afb F1E9F92F 		.ascii	"\361\351\371/\274\224\035\177\306\033\376\373!o7\313"
 432      BC941D7F 
 432      C61BFEFB 
 432      216F37CB 
 433 0b0b D7A4CB7C 		.ascii	"\327\244\313|\203\363\205A\207G\033\265\327\334N\223"
 433      83F38541 
 433      87471BB5 
 433      D7DC4E93 
 434 0b1b E676A3E6 		.ascii	"\346v\243\346\332X=\215\353n\321S\301\2359VMo\236\324"
 434      DA583D8D 
 434      EB6ED153 
 434      C19D3956 
 434      4D6F9ED4 
 435 0b2f 27A3DAD7 		.ascii	"'\243\332\327\351\023\255x\255\314\227\3474\313\354"
 435      E913AD78 
 435      ADCC97E7 
 435      34CBEC
 436 0b3e A6710CE0 		.ascii	"\246q\014\340a/z?t\361\243\301\250\367\003\250\367u"
 436      612F7A3F 
 436      74F1A3C1 
 436      A8F703A8 
 436      F775
 437 0b50 DD3DEA9D 		.ascii	"\335=\352\235\210\350\260E\347\351\253R\205VZx\230\356"
 437      88E8B045 
 437      E7E9AB52 
 437      85565A78 
 437      98EE
 438 0b62 3887071A 		.ascii	"8\207\007\032^6\310\267j\237\037\034E?\335\321\375\033"
 438      5E36C8B7 
 438      6A9F1F1C 
 438      453FDDD1 
 438      FD1B
 439 0b74 1908F720 		.ascii	"\031\010\367 \314\341o\312h\016\233\214\346\010\032"
 439      CCE16FCA 
 439      680E9B8C 
 439      E6081A
 440 0b83 CD3B16E7 		.ascii	"\315;\026\347vc456Fc\337\337TS\177\317c\177\3230\244"
 440      76633435 
 440      364663DF 
 440      DF54537F 
 440      CF637FD3 
ARM GAS  /tmp/ccR5eLeZ.s 			page 35


 441 0b99 B460FA16 		.ascii	"\264`\372\026\246\3730\335\317\322\361\216!>\332\015"
 441      A6FB30DD 
 441      CFD2F18E 
 441      213EDA0D 
 442 0ba9 BB5824D8 		.ascii	"\273X$\330\177\365\031kr\262t]\233\316\234\273\230\021"
 442      7FF5196B 
 442      72B2745D 
 442      9BCE9CBB 
 442      9811
 443 0bbb C6917F67 		.ascii	"\306\221\177g\250\327a\345\252OqA\235\374\312\254\356"
 443      A8D761E5 
 443      AA4F7141 
 443      9DFCCAAC 
 443      EE
 444 0bcc D61AD1AA 		.ascii	"\326\032\321\252WVy\247/w\224\223\303\015}\036\350X"
 444      575679A7 
 444      2F779493 
 444      C30D7D1E 
 444      E858
 445 0bde 5FE4DF07 		.ascii	"_\344\337\0076\012V#\025O[\255\357\004\261\276\323\256"
 445      360A5623 
 445      154F5BAD 
 445      EF04B1BE 
 445      D3AE
 446 0bf0 168227DB 		.ascii	"\026\202'\333\203\352\244\322[\270&d`h\271\366\271\237"
 446      83EAA4D2 
 446      5BB82664 
 446      6068B9F6 
 446      B99F
 447 0c02 939D9FF1 		.ascii	"\223\235\237\361\335\2029\346\030\026k8\265\370\233"
 447      DD8239E6 
 447      18166B38 
 447      B5F89B
 448 0c11 2FFB4961 		.ascii	"/\373Iai(\233\321\3477\002w\003\025p\272\313#\352{O"
 448      69289BD1 
 448      E7370277 
 448      031570BA 
 448      CB23EA7B 
 449 0c26 37F7D73F 		.ascii	"7\367\327?\334\232\322\303\202e\367\031\015\203U\301"
 449      DC9AD2C3 
 449      8265F719 
 449      0D8355C1 
 450 0c36 609D3261 		.ascii	"`\2352a5z\306\272\233\301\272\"\256\324\277)R'\251w"
 450      357AC6BA 
 450      9BC1BA22 
 450      AED4BF29 
 450      5227A977 
 451 0c4a 9B3458A6 		.ascii	"\2334X\246\267\0268\323\027h\233\264/\024.\242S\317"
 451      B71638D3 
 451      17689BB4 
 451      2F142EA2 
 451      53CF
 452 0c5c EA61FB05 		.ascii	"\352a\373\005\232\013\240\366y+\264\277.\\B\240\226"
 452      9A0BA0F6 
 452      792BB4BF 
 452      2E5C42A0 
 452      96
ARM GAS  /tmp/ccR5eLeZ.s 			page 36


 453 0c6d 1ED6E8E0 		.ascii	"\036\326\350\340\263\004\007\037\033\034|\241l\246\263"
 453      B304071F 
 453      1B1C7CA1 
 453      6CA6B3
 454 0c7c D3C779AB 		.ascii	"\323\307y\253,p+\254bc\210\264\023[\177\263\330\300"
 454      2C702BAC 
 454      626388B4 
 454      135B7FB3 
 454      D8C0
 455 0c8e 41DE3ECE 		.ascii	"A\336>\316_%\037d\351\212X\343F\021yf5\237\231\224\272"
 455      5F251F64 
 455      E98A58E3 
 455      46117966 
 455      359F9994 
 456 0ca3 C93316F3 		.ascii	"\3113\026\363\271X\372s\023V\3323V\031\203\365\245\011"
 456      B958FA73 
 456      1356DA33 
 456      561983F5 
 456      A509
 457 0cb5 6BAF67AC 		.ascii	"k\257g\254r\006\353\232\011\353\035\317X\254\023\\7"
 457      7206EB9A 
 457      09EB1DCF 
 457      58AC135C 
 457      37
 458 0cc6 61BDE719 		.ascii	"a\275\347\031\213u\202\033&\254\363\236\261\030\313"
 458      8B75821B 
 458      26ACF39E 
 458      B118CB
 459 0cd5 4837ED2A 		.ascii	"H7\355*Y\373[\035\354\212g\260!\014\330L3X\207\033\260"
 459      59FB5B1D 
 459      EC8A67B0 
 459      210CD84C 
 459      3358871B 
 460 0cea 3C7B42B3 		.ascii	"<{B\263\315`\223zz\005cMl\256\031\254\3113\030kc\315"
 460      CD60937A 
 460      7A05634D 
 460      6CAE19AC 
 460      C933186B 
 461 0d00 66B0173C 		.ascii	"f\260\027<\203\261F\366\202\031l\251g0\326\312Z\314"
 461      83B146F6 
 461      82196CA9 
 461      6730D6CA 
 461      5ACC
 462 0d12 606B3C83 		.ascii	"`k<\203\335\315\261\227>\366gp\354\377\000G\372s\230"
 462      DDCDB197 
 462      3EF66770 
 462      ECFF0047 
 462      FA7398
 463 0d25 5EC0F423 		.ascii	"^\300\364#L\257b\372)\246\355\230~\201i\007\246_a\372"
 463      4CAF62FA 
 463      29A6ED98 
 463      7E816907 
 463      A65F61FA 
 464 0d39 35A69D98 		.ascii	"5\246\235\230\216\363\223t<\246\0231m\300t\012\246\317"
 464      8EF39374 
 464      3CA61331 
 464      6DC0740A 
ARM GAS  /tmp/ccR5eLeZ.s 			page 37


 464      A6CF
 465 0d4b F99999C4 		.ascii	"\371\231\231\304\346\236\326P\253\015\301&\032\263#"
 465      E69ED650 
 465      AB0DC126 
 465      1AB323
 466 0d5a 35F7FF45 		.ascii	"5\367\377E\345\016\203J\307\371D\243_\340\276\317\355"
 466      E50E834A 
 466      C7F944A3 
 466      5FE0BECF 
 466      ED
 467 0d6b EDB940D5 		.ascii	"\355\271@\325,s \367\272:9\335Z$\362\357!\375\204n\255"
 467      2C7320F7 
 467      BA3A39DD 
 467      5A24F2EF 
 467      21FD846E 
 468 0d80 6CA83625 		.ascii	"l\2506%0\234\202d\310\374!\256\027\361F\221\250\027"
 468      309C8264 
 468      C8FC21AE 
 468      17F14691 
 468      A817
 469 0d92 09465154 		.ascii	"\011FQT/\362\031E\011\216J\204\024\3404V\023\015}\354"
 469      2FF21945 
 469      098E4A84 
 469      14E03456 
 469      130D7DEC 
 470 0da6 45654487 		.ascii	"EeD\207\034u(\225\026}\355\247b3=\266g\037\177N\005"
 470      1C752895 
 470      167DEDA7 
 470      62333DB6 
 470      671F7F4E 
 471 0dbb 491F8354 		.ascii	"I\037\203T\242\364\261\224\212\226>\226Q\031\323\307"
 471      A2F4B194 
 471      8A963E96 
 471      5119D3C7 
 472 0dcb DBA8B0E9 		.ascii	"\333\250\260\351c9\225:}\354M\305O\037+\250\036\350"
 472      6339953A 
 472      7DEC4DC5 
 472      4F1F2BA8 
 472      1EE8
 473 0ddd A3AE10FA 		.ascii	"\243\256\020\372x'\325\214\211\303\347\314\217\034g"
 473      7827D58C 
 473      89C3E7CC 
 473      8F1C67
 474 0dec CCC69A7B 		.ascii	"\314\306\232{0\3231f$%\355f\372\275N\307f\371\355\247"
 474      30D33166 
 474      2425ED66 
 474      FABD4EC7 
 474      66F9EDA7 
 475 0e00 63FA790D 		.ascii	"c\372y\015\355\272\302\322\363\020\275^\200\342\314"
 475      EDBAC2D2 
 475      F310BD5E 
 475      80E2CC
 476 0e0f F6DCF31C 		.ascii	"\366\334\363\034\207\236\213i\317\226\315\252\006\207"
 476      879E8B69 
 476      CF96CDAA 
 476      0687
 477 0e1d F920819A 		.ascii	"\371 \201\232\3537\026\273\344|,}%\323q\343\352o^%\377"
ARM GAS  /tmp/ccR5eLeZ.s 			page 38


 477      EB3716BB 
 477      E47C2C7D 
 477      25D371E3 
 477      EA6F5E25 
 478 0e32 89232775 		.ascii	"\211#'u\343&x8\253k\366\347\036\336\337\26082=S\204"
 478      E3267838 
 478      AB6BF6E7 
 478      1EDEDFB0 
 478      38323D53 
 479 0e47 6BA5EA43 		.ascii	"k\245\352C4R\177\236\277\017\353\334\363\3759Gw@\332"
 479      34527F9E 
 479      BF0FEBDC 
 479      F3FD3947 
 479      7740DA
 480 0e5a BBE70FBE 		.ascii	"\273\347\017\276\300\317\030\257\266\251W`\245\325\032"
 480      C0CF18AF 
 480      B6A95760 
 480      A5D51A
 481 0e69 D4BA14B8 		.ascii	"\324\272\024\270\311en:y\321\332I\213m'G\227|\362HG"
 481      C9656E3A 
 481      79D1DA49 
 481      8B6D2747 
 481      977CF248 
 482 0e7e 96FF3BDC 		.ascii	"\226\377;\334\363\277\310o\331~\334\202G8\314\001\340"
 482      F3BFC86F 
 482      D97EDC82 
 482      4738CC01 
 482      E0
 483 0e8f 2E86547A 		.ascii	".\206Tz\306\367N\031\265\031zP{hWi\023\257\377\363\366"
 483      C6F74E19 
 483      B5197A50 
 483      7B685769 
 483      13AFFFF3 
 484 0ea4 0CB658E8 		.ascii	"\014\266X\350w:\252\245+T\312\361\247\343\236(78^h\345"
 484      773AAAA5 
 484      2B54CAF1 
 484      A7E39E28 
 484      37385E68 
 485 0eb9 78B12DC7 		.ascii	"x\261-\307\0357\016U\2335\256\213\365CWb]a\355d\245"
 485      1D370E55 
 485      9B35AE8B 
 485      F5435762 
 485      5D61ED64 
 486 0ece 93EE16D8 		.ascii	"\223\356\026\330\351\3563W\235\274l\355\344\025\266"
 486      E9EE3357 
 486      9DBC6CED 
 486      E415B6
 487 0edd 138BC537 		.ascii	"\023\213\3057\346\261\370\325Y\213\267\264\"g\315N\255"
 487      E6B1F8D5 
 487      598BB7B4 
 487      2267CD4E 
 487      AD
 488 0eee 5ECBB622 		.ascii	"^\313\266\"\353\326\203\0073;7\256\342'g\324&\020Z'"
 488      EBD68307 
 488      333B37AE 
 488      E22767D4 
 488      26105A27 
ARM GAS  /tmp/ccR5eLeZ.s 			page 39


 489 0f02 6FF675D3 		.ascii	"o\366u\323\336\022\273\311\346\030\022\254\325D~\235"
 489      DE12BBC9 
 489      E61812AC 
 489      D5447E9D 
 490 0f12 E798B0DE 		.ascii	"\347\230\260\336!&\230\377\377\234\255E\216\242o\261"
 490      212698FF 
 490      FF9CAD45 
 490      8EA26FB1 
 491 0f22 7C7C62A5 		.ascii	"||b\245\002\226\200\267\360\264\0359\367\266H\353Z\036"
 491      029680B7 
 491      F0B41D39 
 491      F7B648EB 
 491      5A1E
 492 0f34 696D7094 		.ascii	"imp\224\361\251<\2556f[\375\210{\211\254\250\027\035"
 492      F1A93CAD 
 492      36665BFD 
 492      887B89AC 
 492      A8171D
 493 0f47 6E1B473E 		.ascii	"n\033G>\015\265|R\256\277W\327\267\226\331\274\344\356"
 493      0DB57C52 
 493      AEBF57D7 
 493      B796D9BC 
 493      E4EE
 494 0f59 ECD7AF72 		.ascii	"\354\327\257rXutD\364?\206W&S\225\262R\231\222#\225"
 494      58757444 
 494      F43F8657 
 494      265395B2 
 494      52999223 
 495 0f6e 916A591A 		.ascii	"\221jY\032\025M)\362\330~\021\356\2079U\242\211H\254"
 495      154D29F2 
 495      D87E11EE 
 495      873955A2 
 495      8948AC
 496 0f81 B64A826A 		.ascii	"\266J\202j\251\261)el\215\224\352W\315\005\025h$V\205"
 496      A9B12965 
 496      6C8D94EA 
 496      57CD0515 
 496      68245685 
 497 0f95 95E25F3C 		.ascii	"\225\342_<\376T\3050.\024\251"
 497      FE54C530 
 497      2E14A9
 498 0fa0 0E6B45B9 		.ascii	"\016kE\271}\230\000\"\325U\320\270\247V3\025\376}\255"
 498      7D980022 
 498      D555D0B8 
 498      A7563315 
 498      FE7DAD
 499 0fb3 542B8595 		.ascii	"T+\205\2252\2431-\362'\2441\212\277F\226F\027\341\363"
 499      32A3312D 
 499      F227A431 
 499      8ABF4696 
 499      4617E1F3 
 500 0fc7 4F58CC48 		.ascii	"OX\314H2\036O&*k\222\262\222\252|\370\311\307\206=6"
 500      321E4F26 
 500      2A6B92B2 
 500      92AA7CF8 
 500      C9C7863D 
 501 0fdc 8694D544 		.ascii	"\206\224\325Dc\222\234\252\374\305\260a\320\225Nh@\251"
ARM GAS  /tmp/ccR5eLeZ.s 			page 40


 501      63929CAA 
 501      FCC5B061 
 501      D0954E68 
 501      40A9
 502 0fee 91A3C930 		.ascii	"\221\243\3110TL\214\304\373\201\312\352d\\\252\224\245"
 502      544C8CC4 
 502      FB81CAEA 
 502      645CAA94 
 502      A5
 503 0fff 94       		.ascii	"\224"
 504 1000 24CA91EA 		.ascii	"$\312\221\352\312jQ\256\252\023e\251R\224\343\367U\216"
 504      CA6A51AE 
 504      AA1365A9 
 504      5294E3F7 
 504      558E
 505 1012 8A44FA42 		.ascii	"\212D\372B\246\257\024\037!UUIUFA\"\231\220\372J\342"
 505      A6AF141F 
 505      21555549 
 505      55464122 
 505      9990FA4A 
 506 1027 8868DF81 		.ascii	"\210h\337\201\341!}\357\353?`\340\357\357\253d^\030"
 506      E1217DEF 
 506      EB3F60E0 
 506      EFEFAB64 
 506      5E18
 507 1039 7CA694AA 		.ascii	"|\246\224\252hB!B\252\205\337\373\357\013+\343\371\357"
 507      68422142 
 507      AA85DFFB 
 507      EF0B2BE3 
 507      F9EF
 508 104b AEF7B818 		.ascii	"\256\367\270\030\251\216&\244\312p\2254R\254\215)a]"
 508      A98E26A4 
 508      CA709534 
 508      52AC8D29 
 508      615D
 509 105d 12DDC261 		.ascii	"\022\335\302a\235\036?\221I)\221_8\222L( \354{]H\270"
 509      9D1E3F91 
 509      4929915F 
 509      38924C28 
 509      20EC7B5D 
 510 1073 3A929425 		.ascii	":\222\224%\000*\301\206\000\025Q\306T\272m\027\036="
 510      002AC186 
 510      001551C6 
 510      54BA6D17 
 510      1E3D
 511 1085 384E4402 		.ascii	"8ND\002\246\006t\207\025A\036(\310\017\010\362 A\036"
 511      A6067487 
 511      15411E28 
 511      C80F08F2 
 511      20411E
 512 1098 2CC84304 		.ascii	",\310C\004\371\307>y@\177\270\007\0101YH\325\370\000"
 512      F9C73E79 
 512      407FB807 
 512      08315948 
 512      D5F800
 513 10ab BC2821D5 		.ascii	"\274(!\325IrQ2V%\311\376\010\210\312\237\020\343R\267"
 513      49725132 
ARM GAS  /tmp/ccR5eLeZ.s 			page 41


 513      5625C9FE 
 513      0888CA9F 
 513      10E352B7 
 514 10bf 94F28C18 		.ascii	"\224\362\214\030\213\216J\204\025\024\360\240\201a\205"
 514      8B8E4A84 
 514      1514F0A0 
 514      816185
 515 10ce F246B2C5 		.ascii	"\362F\262\305u\342\0101%\005\225\224\"*`\\\001\362b"
 515      75E20831 
 515      25059594 
 515      222A605C 
 515      01F262
 516 10e1 48580969 		.ascii	"HX\011iU W\204o\002J<Y\005\357\213F\306\304Q\251\200"
 516      55205784 
 516      6F024A3C 
 516      5905EF8B 
 516      46C6C451 
 517 10f7 224B2353 		.ascii	"\"K#S \031\362S\024O\215\202\206TX\320\220\346\212\345"
 517      2019F253 
 517      144F8D82 
 517      865458D0 
 517      90E68AE5 
 518 110b AAB1F02A 		.ascii	"\252\261\360*(\215\211*\021h\\\\\247$G\374\256\346V"
 518      288D892A 
 518      11685C5C 
 518      A72447FC 
 518      AEE656
 519 111e EA0BD054 		.ascii	"\352\013\320T\222\245D\204\200\326)\212\\\023HI\011"
 519      92A54484 
 519      80D6298A 
 519      5C134849 
 519      09
 520 112f 051A9482 		.ascii	"\005\032\224\202}\247\244\270XS\015\202\270#\237\177"
 520      7DA7A4B8 
 520      58530D82 
 520      B8239F7F 
 521 113f 48444645 		.ascii	"HDFE\221\004h\315\007)t\000E5Ah\037\257\0055\345k\033"
 521      910468CD 
 521      07297400 
 521      45354168 
 521      1FAF0535 
 522 1156 57C690B6 		.ascii	"W\306\220\266\311\272\204$\007\2606\221\205\002\305"
 522      C9BA8424 
 522      07B03691 
 522      8502C5
 523 1165 3525D268 		.ascii	"5%\322hB\210\230z\006\212\244:\222\341k{\350\036\027"
 523      4288987A 
 523      068AA43A 
 523      92E16B7B 
 523      E81E17
 524 1178 03D70F2B 		.ascii	"\003\327\017+=M>HJ\002ubT\211&F\005\201~\364\301\240"
 524      3D4D3E48 
 524      4A027562 
 524      54892646 
 524      05817EF4 
 525 118e 542325C0 		.ascii	"T#%\300\260G\005\000\222\324\000U\2121bHE\361\232d2"
 525      B0470500 
ARM GAS  /tmp/ccR5eLeZ.s 			page 42


 525      92D40055 
 525      8A316248 
 525      45F19A64 
 526 11a3 064EFCA4 		.ascii	"\006N\374\2444\352\337\243rJ\371\025\342\364\304\202"
 526      34EADFA3 
 526      724AF915 
 526      E2F4C482 
 527 11b3 C7C1B8B4 		.ascii	"\307\301\270\264gA\251\271\235\326ITiE?\033\3738(\264"
 527      6741A9B9 
 527      9DD64954 
 527      69453F1B 
 527      FB3828B4 
 528 11c7 3CA7F489 		.ascii	"<\247\364\211$H\\\222{\347\274\370\317\244\374\014\220"
 528      24485C92 
 528      7BE7BCF8 
 528      CFA4FC0C 
 528      90
 529 11d8 F0303C09 		.ascii	"\3600<\011u\342]y\304Ay\001\221\200\364\177U]\365\244"
 529      75E25D79 
 529      C4417901 
 529      9180F47F 
 529      555DF5A4 
 530 11ec 1493C02C 		.ascii	"\024\223\300,\276\3230 \003\251$\004\301\273Dm,V\014"
 530      BED33020 
 530      03A92404 
 530      C1BB446D 
 530      2C560C
 531 11ff 2591780D 		.ascii	"%\221x\015<\002q\311:?\0204\322_S+K%\304> \266J\340"
 531      3C0271C9 
 531      3A3F1034 
 531      D25F532B 
 531      4B25C43E 
 532 1217 1721235F 		.ascii	"\027!#_J\030\030K\325\323\035\212\263\317\201H\255\014"
 532      4A18184B 
 532      D5D31D8A 
 532      B3CF8148 
 532      AD0C
 533 1229 96A614C9 		.ascii	"\226\246\024\311\344\351\366\321QY\251\025ca%\032\207"
 533      E4E9F6D1 
 533      5159A915 
 533      6361251A 
 533      87
 534 123a 00485BF4 		.ascii	"\000H[\364\202\0266/z2eZ\354e\212B\244w\310\200\021"
 534      8216362F 
 534      7A32655A 
 534      EC658A42 
 534      A477C880 
 535 124f 57493145 		.ascii	"WI1E\014\216VF\326&\"\340\032\344\307W#\312\301\230"
 535      0C8E5646 
 535      D62622E0 
 535      1AE4C757 
 535      23CAC198 
 536 1263 98524895 		.ascii	"\230RH\225\342\321\012\201\354Ai\257\222F\324\216\322"
 536      E2D10A81 
 536      EC4169AF 
 536      9246D48E 
 536      D2
ARM GAS  /tmp/ccR5eLeZ.s 			page 43


 537 1274 2CC95C12 		.ascii	",\311\\\022\252\021\023\321H\030\354\310W5bT\267\270"
 537      AA1113D1 
 537      4818ECC8 
 537      57356254 
 537      B7B8
 538 1286 08BA45E5 		.ascii	"\010\272E\345T\344S\037q\2042%\036\216\200\253\217\220"
 538      54E4531F 
 538      71843225 
 538      1E8E80AB 
 538      8F90
 539 1298 45259A04 		.ascii	"E%\232\004\177\017\310\012\372Fqr\344\310\224\244\010"
 539      7F0FC80A 
 539      FA467172 
 539      E4C894A4 
 539      08
 540 12a9 4A5C8854 		.ascii	"J\\\210T\347\033\261\214\201\015\302_\264\012$\026\035"
 540      E71BB18C 
 540      810DC25F 
 540      B40A2416 
 540      1D
 541 12ba 198558F2 		.ascii	"\031\205X\362\254$'\375\251\350\263\022\006\220\001"
 541      AC2427FD 
 541      A9E8B312 
 541      069001
 542 12c9 838C0042 		.ascii	"\203\214\000B\262\201\321 +\350.P\243\310X\207\260J"
 542      B281D120 
 542      2BE82E50 
 542      A3C85887 
 542      B04A
 543 12db 32DDA84D 		.ascii	"2\335\250M\2212  Ll?@2\020\252B\344\027\303\025\346"
 543      91322020 
 543      4C6C3F40 
 543      3210AA42 
 543      E417C315 
 544 12f0 30646125 		.ascii	"0da%\022\261JI\006\242V,\032\217*!\355\001\"\020\346"
 544      12B14A49 
 544      06A2562C 
 544      1A8F2A21 
 544      ED012210 
 545 1305 30FA604D 		.ascii	"0\372`M\022yJ4\\\011\234^\301B\3227\230\004\025-\011"
 545      12794A34 
 545      5C099C5E 
 545      C142D237 
 545      9804152D 
 546 131a 04982DEB 		.ascii	"\004\230-\353''\253DE\354\247\027\344\215*c\211\033"
 546      2727AB44 
 546      45ECA717 
 546      E48D2A63 
 546      891B
 547 132c 00CAF0B1 		.ascii	"\000\312\360\261\251_&#\317\2040~\307 w\277m\364\006"
 547      A95F2623 
 547      CF84307E 
 547      C72077BF 
 547      6DF406
 548 133f 8FAD1CF6 		.ascii	"\217\255\034\366\330\360G\207g1\342\251h*\014>\0008"
 548      D8F04787 
 548      6731E2A9 
ARM GAS  /tmp/ccR5eLeZ.s 			page 44


 548      682A0C3E 
 548      0038
 549 1351 DDC310CB 		.ascii	"\335\303\020\313\224\360\317\036\036\376oO<\371hw1V"
 549      94F0CF1E 
 549      1EFE6F4F 
 549      3CF96877 
 549      3156
 550 1363 278E4D41 		.ascii	"'\216MA\204\214\301\240S4Z\214\325\022s\206\236\236"
 550      848CC1A0 
 550      53345A8C 
 550      D5127386 
 550      9E9E
 551 1375 4A901EB4 		.ascii	"J\220\036\264\261\242\026\363\301p\030-)\334]\317\364"
 551      B1A216F3 
 551      C170182D 
 551      29DC5DCF 
 551      F4
 552 1386 1B3478C0 		.ascii	"\0334x\300\375\377\007\031$9r"
 552      FDFF0719 
 552      243972
 553              		.text
 554              		.section	.gnu.lto_.symtab.e16e6773c32f41c6,"",%progbits
 555 0000 63685265 		.ascii	"chRegFirstThread\000\000\000\000\000\000\000\000\000"
 555      67466972 
 555      73745468 
 555      72656164 
 555      00000000 
 556 0019 000000A1 		.ascii	"\000\000\000\241\000\000\000chRegNextThread\000\000"
 556      00000063 
 556      68526567 
 556      4E657874 
 556      54687265 
 557 0031 00000000 		.ascii	"\000\000\000\000\000\000\000\000\000\000]\001\000\000"
 557      00000000 
 557      00005D01 
 557      0000
 558 003f 63685265 		.ascii	"chRegFindThreadByName\000\000\000\000\000\000\000\000"
 558      6746696E 
 558      64546872 
 558      65616442 
 558      794E616D 
 559 005c 00000000 		.ascii	"\000\000\000\000d\001\000\000chRegFindThreadByPoint"
 559      64010000 
 559      63685265 
 559      6746696E 
 559      64546872 
 560 007a 65720000 		.ascii	"er\000\000\000\000\000\000\000\000\000\000\000\000j"
 560      00000000 
 560      00000000 
 560      00006A
 561 0089 01000063 		.ascii	"\001\000\000chRegFindThreadByWorkingArea\000\000\000"
 561      68526567 
 561      46696E64 
 561      54687265 
 561      61644279 
 562 00ab 00000000 		.ascii	"\000\000\000\000\000\000\000\000\000n\001\000\000ch"
 562      00000000 
ARM GAS  /tmp/ccR5eLeZ.s 			page 45


 562      006E0100 
 562      006368
 563 00ba 5F646562 		.ascii	"_debug\000\000\000\000\000\000\000\000\000\000\000\000"
 563      75670000 
 563      00000000 
 563      00000000 
 563      0000
 564 00cc DB010000 		.ascii	"\333\001\000\000ch\000\000\002\000\000\000\000\000\000"
 564      63680000 
 564      02000000 
 564      000000
 565 00db 00000086 		.ascii	"\000\000\000\206\001\000\000chThdRelease\000\000\002"
 565      01000063 
 565      68546864 
 565      52656C65 
 565      61736500 
 566 00f1 00000000 		.ascii	"\000\000\000\000\000\000\000\000\000u\001\000\000"
 566      00000000 
 566      00750100 
 566      00
 567              		.text
 568              		.section	.gnu.lto_.opts,"",%progbits
 569 0000 272D6D63 		.ascii	"'-mcpu=cortex-m4' '-mno-thumb-interwork' '-mthumb' "
 569      70753D63 
 569      6F727465 
 569      782D6D34 
 569      2720272D 
 570 0033 272D6767 		.ascii	"'-ggdb' '-O2' '-fomit-frame-pointer' '-falign-funct"
 570      64622720 
 570      272D4F32 
 570      2720272D 
 570      666F6D69 
 571 0066 696F6E73 		.ascii	"ions=16' '-ffunction-sections' '-fdata-sections' '-"
 571      3D313627 
 571      20272D66 
 571      66756E63 
 571      74696F6E 
 572 0099 666E6F2D 		.ascii	"fno-common' '-flto'\000"
 572      636F6D6D 
 572      6F6E2720 
 572      272D666C 
 572      746F2700 
 573              		.text
 574              		.cfi_sections	.debug_frame
 575              		.section	.text.chRegFirstThread,"ax",%progbits
 576              		.align	2
 577              		.p2align 4,,15
 578              		.global	chRegFirstThread
 579              		.thumb
 580              		.thumb_func
 581              		.type	chRegFirstThread, %function
 582              	chRegFirstThread:
 583              	.LFB239:
 584              		.file 1 "../ChibiOS/os/rt/src/chregistry.c"
 585              		.loc 1 134 0
 586              		.cfi_startproc
 587              		@ args = 0, pretend = 0, frame = 0
ARM GAS  /tmp/ccR5eLeZ.s 			page 46


 588              		@ frame_needed = 0, uses_anonymous_args = 0
 589              		@ link register save eliminated.
 590              	.LVL0:
 591              	.LBB71:
 592              	.LBB72:
 593              	.LBB73:
 594              	.LBB74:
 595              		.file 2 "../ChibiOS/os/common/ext/CMSIS/include/cmsis_gcc.h"
 596              		.loc 2 264 0
 597 0000 2023     		movs	r3, #32
 598              	@ 264 "../ChibiOS/os/common/ext/CMSIS/include/cmsis_gcc.h" 1
 599 0002 83F31188 		MSR basepri, r3
 600              	@ 0 "" 2
 601              		.thumb
 602              	.LBE74:
 603              	.LBE73:
 604              	.LBE72:
 605              	.LBE71:
 606              		.loc 1 138 0
 607 0006 054B     		ldr	r3, .L2
 608 0008 1869     		ldr	r0, [r3, #16]
 609              	.LVL1:
 610              		.loc 1 140 0
 611 000a 90F82230 		ldrb	r3, [r0, #34]	@ zero_extendqisi2
 612 000e 0133     		adds	r3, r3, #1
 613 0010 80F82230 		strb	r3, [r0, #34]
 614              	.LVL2:
 615              	.LBB75:
 616              	.LBB76:
 617              	.LBB77:
 618              	.LBB78:
 619              	.LBB79:
 620              		.loc 2 264 0
 621 0014 0023     		movs	r3, #0
 622              	@ 264 "../ChibiOS/os/common/ext/CMSIS/include/cmsis_gcc.h" 1
 623 0016 83F31188 		MSR basepri, r3
 624              	@ 0 "" 2
 625              		.thumb
 626              	.LBE79:
 627              	.LBE78:
 628              	.LBE77:
 629              	.LBE76:
 630              	.LBE75:
 631              		.loc 1 145 0
 632 001a 7047     		bx	lr
 633              	.L3:
 634              		.align	2
 635              	.L2:
 636 001c 00000000 		.word	ch
 637              		.cfi_endproc
 638              	.LFE239:
 639              		.size	chRegFirstThread, .-chRegFirstThread
 640              		.section	.text.chRegNextThread,"ax",%progbits
 641              		.align	2
 642              		.p2align 4,,15
 643              		.global	chRegNextThread
 644              		.thumb
ARM GAS  /tmp/ccR5eLeZ.s 			page 47


 645              		.thumb_func
 646              		.type	chRegNextThread, %function
 647              	chRegNextThread:
 648              	.LFB240:
 649              		.loc 1 158 0
 650              		.cfi_startproc
 651              		@ args = 0, pretend = 0, frame = 0
 652              		@ frame_needed = 0, uses_anonymous_args = 0
 653              	.LVL3:
 654 0000 10B5     		push	{r4, lr}
 655              		.cfi_def_cfa_offset 8
 656              		.cfi_offset 4, -8
 657              		.cfi_offset 14, -4
 658              	.LBB80:
 659              	.LBB81:
 660              	.LBB82:
 661              	.LBB83:
 662              		.loc 2 264 0
 663 0002 2023     		movs	r3, #32
 664              	@ 264 "../ChibiOS/os/common/ext/CMSIS/include/cmsis_gcc.h" 1
 665 0004 83F31188 		MSR basepri, r3
 666              	@ 0 "" 2
 667              		.thumb
 668              	.LBE83:
 669              	.LBE82:
 670              	.LBE81:
 671              	.LBE80:
 672              		.loc 1 164 0
 673 0008 084B     		ldr	r3, .L7
 674              		.loc 1 162 0
 675 000a 0469     		ldr	r4, [r0, #16]
 676              	.LVL4:
 677              		.loc 1 164 0
 678 000c 9C42     		cmp	r4, r3
 679              		.loc 1 171 0
 680 000e 1DBF     		ittte	ne
 681 0010 94F82230 		ldrbne	r3, [r4, #34]	@ zero_extendqisi2
 682 0014 0133     		addne	r3, r3, #1
 683 0016 84F82230 		strbne	r3, [r4, #34]
 684              		.loc 1 166 0
 685 001a 0024     		moveq	r4, #0
 686              	.LVL5:
 687              	.LBB84:
 688              	.LBB85:
 689              	.LBB86:
 690              	.LBB87:
 691              	.LBB88:
 692              		.loc 2 264 0
 693 001c 0023     		movs	r3, #0
 694              	@ 264 "../ChibiOS/os/common/ext/CMSIS/include/cmsis_gcc.h" 1
 695 001e 83F31188 		MSR basepri, r3
 696              	@ 0 "" 2
 697              		.thumb
 698              	.LBE88:
 699              	.LBE87:
 700              	.LBE86:
 701              	.LBE85:
ARM GAS  /tmp/ccR5eLeZ.s 			page 48


 702              	.LBE84:
 703              		.loc 1 176 0
 704 0022 FFF7FEFF 		bl	chThdRelease
 705              	.LVL6:
 706              		.loc 1 180 0
 707 0026 2046     		mov	r0, r4
 708 0028 10BD     		pop	{r4, pc}
 709              	.LVL7:
 710              	.L8:
 711 002a 00BF     		.align	2
 712              	.L7:
 713 002c 00000000 		.word	ch
 714              		.cfi_endproc
 715              	.LFE240:
 716              		.size	chRegNextThread, .-chRegNextThread
 717              		.section	.text.chRegFindThreadByName,"ax",%progbits
 718              		.align	2
 719              		.p2align 4,,15
 720              		.global	chRegFindThreadByName
 721              		.thumb
 722              		.thumb_func
 723              		.type	chRegFindThreadByName, %function
 724              	chRegFindThreadByName:
 725              	.LFB241:
 726              		.loc 1 194 0
 727              		.cfi_startproc
 728              		@ args = 0, pretend = 0, frame = 0
 729              		@ frame_needed = 0, uses_anonymous_args = 0
 730              	.LVL8:
 731 0000 38B5     		push	{r3, r4, r5, lr}
 732              		.cfi_def_cfa_offset 16
 733              		.cfi_offset 3, -16
 734              		.cfi_offset 4, -12
 735              		.cfi_offset 5, -8
 736              		.cfi_offset 14, -4
 737              		.loc 1 194 0
 738 0002 0546     		mov	r5, r0
 739              	.LBB89:
 740              	.LBB90:
 741              	.LBB91:
 742              	.LBB92:
 743              	.LBB93:
 744              	.LBB94:
 745              		.loc 2 264 0
 746 0004 2023     		movs	r3, #32
 747              	@ 264 "../ChibiOS/os/common/ext/CMSIS/include/cmsis_gcc.h" 1
 748 0006 83F31188 		MSR basepri, r3
 749              	@ 0 "" 2
 750              		.thumb
 751              	.LBE94:
 752              	.LBE93:
 753              	.LBE92:
 754              	.LBE91:
 755              		.loc 1 138 0
 756 000a 0C4B     		ldr	r3, .L18
 757 000c 1C69     		ldr	r4, [r3, #16]
 758              	.LVL9:
ARM GAS  /tmp/ccR5eLeZ.s 			page 49


 759              		.loc 1 140 0
 760 000e 94F82230 		ldrb	r3, [r4, #34]	@ zero_extendqisi2
 761 0012 0133     		adds	r3, r3, #1
 762 0014 84F82230 		strb	r3, [r4, #34]
 763              	.LVL10:
 764              	.LBB95:
 765              	.LBB96:
 766              	.LBB97:
 767              	.LBB98:
 768              	.LBB99:
 769              		.loc 2 264 0
 770 0018 0023     		movs	r3, #0
 771              	@ 264 "../ChibiOS/os/common/ext/CMSIS/include/cmsis_gcc.h" 1
 772 001a 83F31188 		MSR basepri, r3
 773              	@ 0 "" 2
 774              		.thumb
 775 001e 04E0     		b	.L11
 776              	.LVL11:
 777              	.L17:
 778              	.LBE99:
 779              	.LBE98:
 780              	.LBE97:
 781              	.LBE96:
 782              	.LBE95:
 783              	.LBE90:
 784              	.LBE89:
 785              		.loc 1 203 0
 786 0020 2046     		mov	r0, r4
 787 0022 FFF7FEFF 		bl	chRegNextThread
 788              	.LVL12:
 789              		.loc 1 204 0
 790 0026 0446     		mov	r4, r0
 791              	.LVL13:
 792 0028 28B1     		cbz	r0, .L10
 793              	.LVL14:
 794              	.L11:
 795              		.loc 1 200 0
 796 002a A069     		ldr	r0, [r4, #24]
 797 002c 2946     		mov	r1, r5
 798 002e FFF7FEFF 		bl	strcmp
 799              	.LVL15:
 800 0032 0028     		cmp	r0, #0
 801 0034 F4D1     		bne	.L17
 802              	.LVL16:
 803              	.L10:
 804              		.loc 1 207 0
 805 0036 2046     		mov	r0, r4
 806 0038 38BD     		pop	{r3, r4, r5, pc}
 807              	.LVL17:
 808              	.L19:
 809 003a 00BF     		.align	2
 810              	.L18:
 811 003c 00000000 		.word	ch
 812              		.cfi_endproc
 813              	.LFE241:
 814              		.size	chRegFindThreadByName, .-chRegFindThreadByName
 815              		.section	.text.chRegFindThreadByPointer,"ax",%progbits
ARM GAS  /tmp/ccR5eLeZ.s 			page 50


 816              		.align	2
 817              		.p2align 4,,15
 818              		.global	chRegFindThreadByPointer
 819              		.thumb
 820              		.thumb_func
 821              		.type	chRegFindThreadByPointer, %function
 822              	chRegFindThreadByPointer:
 823              	.LFB242:
 824              		.loc 1 221 0
 825              		.cfi_startproc
 826              		@ args = 0, pretend = 0, frame = 0
 827              		@ frame_needed = 0, uses_anonymous_args = 0
 828              	.LVL18:
 829 0000 10B5     		push	{r4, lr}
 830              		.cfi_def_cfa_offset 8
 831              		.cfi_offset 4, -8
 832              		.cfi_offset 14, -4
 833              	.LBB100:
 834              	.LBB101:
 835              	.LBB102:
 836              	.LBB103:
 837              	.LBB104:
 838              	.LBB105:
 839              		.loc 2 264 0
 840 0002 2023     		movs	r3, #32
 841              	.LBE105:
 842              	.LBE104:
 843              	.LBE103:
 844              	.LBE102:
 845              	.LBE101:
 846              	.LBE100:
 847              		.loc 1 221 0
 848 0004 0446     		mov	r4, r0
 849              	.LBB116:
 850              	.LBB115:
 851              	.LBB109:
 852              	.LBB108:
 853              	.LBB107:
 854              	.LBB106:
 855              		.loc 2 264 0
 856              	@ 264 "../ChibiOS/os/common/ext/CMSIS/include/cmsis_gcc.h" 1
 857 0006 83F31188 		MSR basepri, r3
 858              	@ 0 "" 2
 859              		.thumb
 860              	.LBE106:
 861              	.LBE107:
 862              	.LBE108:
 863              	.LBE109:
 864              		.loc 1 138 0
 865 000a 0B4B     		ldr	r3, .L26
 866 000c 1869     		ldr	r0, [r3, #16]
 867              	.LVL19:
 868              		.loc 1 140 0
 869 000e 90F82230 		ldrb	r3, [r0, #34]	@ zero_extendqisi2
 870 0012 0133     		adds	r3, r3, #1
 871 0014 80F82230 		strb	r3, [r0, #34]
 872              	.LVL20:
ARM GAS  /tmp/ccR5eLeZ.s 			page 51


 873              	.LBB110:
 874              	.LBB111:
 875              	.LBB112:
 876              	.LBB113:
 877              	.LBB114:
 878              		.loc 2 264 0
 879 0018 0023     		movs	r3, #0
 880              	@ 264 "../ChibiOS/os/common/ext/CMSIS/include/cmsis_gcc.h" 1
 881 001a 83F31188 		MSR basepri, r3
 882              	@ 0 "" 2
 883              	.LVL21:
 884              		.thumb
 885              	.LBE114:
 886              	.LBE113:
 887              	.LBE112:
 888              	.LBE111:
 889              	.LBE110:
 890              	.LBE115:
 891              	.LBE116:
 892              		.loc 1 227 0
 893 001e 8442     		cmp	r4, r0
 894 0020 02D1     		bne	.L22
 895 0022 06E0     		b	.L25
 896              	.LVL22:
 897              	.L23:
 898 0024 8442     		cmp	r4, r0
 899 0026 04D0     		beq	.L25
 900              	.L22:
 901              		.loc 1 230 0
 902 0028 FFF7FEFF 		bl	chRegNextThread
 903              	.LVL23:
 904              		.loc 1 231 0
 905 002c 0028     		cmp	r0, #0
 906 002e F9D1     		bne	.L23
 907 0030 10BD     		pop	{r4, pc}
 908              	.LVL24:
 909              	.L25:
 910              		.loc 1 230 0
 911 0032 2046     		mov	r0, r4
 912              	.LVL25:
 913              		.loc 1 234 0
 914 0034 10BD     		pop	{r4, pc}
 915              	.LVL26:
 916              	.L27:
 917 0036 00BF     		.align	2
 918              	.L26:
 919 0038 00000000 		.word	ch
 920              		.cfi_endproc
 921              	.LFE242:
 922              		.size	chRegFindThreadByPointer, .-chRegFindThreadByPointer
 923 003c AFF30080 		.section	.text.chRegFindThreadByWorkingArea,"ax",%progbits
 924              		.align	2
 925              		.p2align 4,,15
 926              		.global	chRegFindThreadByWorkingArea
 927              		.thumb
 928              		.thumb_func
 929              		.type	chRegFindThreadByWorkingArea, %function
ARM GAS  /tmp/ccR5eLeZ.s 			page 52


 930              	chRegFindThreadByWorkingArea:
 931              	.LFB243:
 932              		.loc 1 250 0
 933              		.cfi_startproc
 934              		@ args = 0, pretend = 0, frame = 0
 935              		@ frame_needed = 0, uses_anonymous_args = 0
 936              	.LVL27:
 937 0000 10B5     		push	{r4, lr}
 938              		.cfi_def_cfa_offset 8
 939              		.cfi_offset 4, -8
 940              		.cfi_offset 14, -4
 941              	.LBB117:
 942              	.LBB118:
 943              	.LBB119:
 944              	.LBB120:
 945              	.LBB121:
 946              	.LBB122:
 947              		.loc 2 264 0
 948 0002 2023     		movs	r3, #32
 949              	.LBE122:
 950              	.LBE121:
 951              	.LBE120:
 952              	.LBE119:
 953              	.LBE118:
 954              	.LBE117:
 955              		.loc 1 250 0
 956 0004 0446     		mov	r4, r0
 957              	.LBB133:
 958              	.LBB132:
 959              	.LBB126:
 960              	.LBB125:
 961              	.LBB124:
 962              	.LBB123:
 963              		.loc 2 264 0
 964              	@ 264 "../ChibiOS/os/common/ext/CMSIS/include/cmsis_gcc.h" 1
 965 0006 83F31188 		MSR basepri, r3
 966              	@ 0 "" 2
 967              		.thumb
 968              	.LBE123:
 969              	.LBE124:
 970              	.LBE125:
 971              	.LBE126:
 972              		.loc 1 138 0
 973 000a 094B     		ldr	r3, .L35
 974 000c 1869     		ldr	r0, [r3, #16]
 975              	.LVL28:
 976              		.loc 1 140 0
 977 000e 90F82230 		ldrb	r3, [r0, #34]	@ zero_extendqisi2
 978 0012 0133     		adds	r3, r3, #1
 979 0014 80F82230 		strb	r3, [r0, #34]
 980              	.LVL29:
 981              	.LBB127:
 982              	.LBB128:
 983              	.LBB129:
 984              	.LBB130:
 985              	.LBB131:
 986              		.loc 2 264 0
ARM GAS  /tmp/ccR5eLeZ.s 			page 53


 987 0018 0023     		movs	r3, #0
 988              	@ 264 "../ChibiOS/os/common/ext/CMSIS/include/cmsis_gcc.h" 1
 989 001a 83F31188 		MSR basepri, r3
 990              	@ 0 "" 2
 991              		.thumb
 992 001e 02E0     		b	.L30
 993              	.LVL30:
 994              	.L34:
 995              	.LBE131:
 996              	.LBE130:
 997              	.LBE129:
 998              	.LBE128:
 999              	.LBE127:
 1000              	.LBE132:
 1001              	.LBE133:
 1002              		.loc 1 259 0
 1003 0020 FFF7FEFF 		bl	chRegNextThread
 1004              	.LVL31:
 1005              		.loc 1 260 0
 1006 0024 10B1     		cbz	r0, .L29
 1007              	.LVL32:
 1008              	.L30:
 1009              		.loc 1 256 0
 1010 0026 C369     		ldr	r3, [r0, #28]
 1011 0028 A342     		cmp	r3, r4
 1012 002a F9D1     		bne	.L34
 1013              	.LVL33:
 1014              	.L29:
 1015              		.loc 1 263 0
 1016 002c 10BD     		pop	{r4, pc}
 1017              	.LVL34:
 1018              	.L36:
 1019 002e 00BF     		.align	2
 1020              	.L35:
 1021 0030 00000000 		.word	ch
 1022              		.cfi_endproc
 1023              	.LFE243:
 1024              		.size	chRegFindThreadByWorkingArea, .-chRegFindThreadByWorkingArea
 1025              		.global	ch_debug
 1026 0034 AFF30080 		.section	.rodata.ch_debug,"a",%progbits
 1026      AFF30080 
 1026      AFF30080 
 1027              		.align	2
 1028              		.type	ch_debug, %object
 1029              		.size	ch_debug, 22
 1030              	ch_debug:
 1031 0000 6D       		.byte	109
 1032 0001 61       		.byte	97
 1033 0002 69       		.byte	105
 1034 0003 6E       		.byte	110
 1035 0004 00       		.byte	0
 1036 0005 16       		.byte	22
 1037 0006 0020     		.short	8192
 1038 0008 04       		.byte	4
 1039 0009 04       		.byte	4
 1040 000a 44       		.byte	68
 1041 000b 08       		.byte	8
ARM GAS  /tmp/ccR5eLeZ.s 			page 54


 1042 000c 0C       		.byte	12
 1043 000d 10       		.byte	16
 1044 000e 14       		.byte	20
 1045 000f 18       		.byte	24
 1046 0010 1C       		.byte	28
 1047 0011 20       		.byte	32
 1048 0012 21       		.byte	33
 1049 0013 22       		.byte	34
 1050 0014 00       		.byte	0
 1051 0015 00       		.byte	0
 1052 0016 0000     		.text
 1053              	.Letext0:
 1054              		.file 3 "/nfs/nfs5/home/research/hardware/arm2/gcc-arm-embedded/gcc-arm-none-eabi-4_8-2014q2/lib/g
 1055              		.file 4 "/nfs/nfs5/home/research/hardware/arm2/gcc-arm-embedded/gcc-arm-none-eabi-4_8-2014q2/arm-n
 1056              		.file 5 "/nfs/nfs5/home/research/hardware/arm2/gcc-arm-embedded/gcc-arm-none-eabi-4_8-2014q2/arm-n
 1057              		.file 6 "../ChibiOS/os/common/ports/ARMCMx/compilers/GCC/chtypes.h"
 1058              		.file 7 "../ChibiOS/os/rt/include/chsystypes.h"
 1059              		.file 8 "../ChibiOS/os/rt/include/chschd.h"
 1060              		.file 9 "../ChibiOS/os/common/ports/ARMCMx/chcore.h"
 1061              		.file 10 "../ChibiOS/os/common/ports/ARMCMx/chcore_v7m.h"
 1062              		.file 11 "../ChibiOS/os/rt/include/chtm.h"
 1063              		.file 12 "../ChibiOS/os/rt/include/chsem.h"
 1064              		.file 13 "../ChibiOS/os/rt/include/chmtx.h"
 1065              		.file 14 "../ChibiOS/os/rt/include/chregistry.h"
 1066              		.file 15 "../ChibiOS/os/rt/include/chthreads.h"
 1067              		.file 16 "../ChibiOS/os/rt/include/chsys.h"
 1068              		.file 17 "../ChibiOS/os/common/ext/CMSIS/include/core_cm4.h"
 1069              		.file 18 "/nfs/nfs5/home/research/hardware/arm2/gcc-arm-embedded/gcc-arm-none-eabi-4_8-2014q2/arm-