ARM GAS  /tmp/ccjSXgYT.s 			page 1


   1              		.syntax unified
   2              		.cpu cortex-m4
   3              		.fpu softvfp
   4              		.eabi_attribute 20, 1
   5              		.eabi_attribute 21, 1
   6              		.eabi_attribute 23, 3
   7              		.eabi_attribute 24, 1
   8              		.eabi_attribute 25, 1
   9              		.eabi_attribute 26, 1
  10              		.eabi_attribute 30, 2
  11              		.eabi_attribute 34, 1
  12              		.eabi_attribute 18, 4
  13              		.thumb
  14              		.file	"chtm.c"
  15              		.text
  16              	.Ltext0:
  17              		.section	.gnu.lto_.jmpfuncs.adbdaccb2a73384b,"",%progbits
  18 0000 789C6362 		.ascii	"x\234cb`b\300\006\034\2404+\003###\023#\013\003#\003"
  18      6062C006 
  18      1CA0342B 
  18      03232323 
  18      13230B03 
  19 0016 10B13232 		.ascii	"\020\26122D0f22\374\007\002~\006\0050\033\250\026J'"
  19      44306632 
  19      32FC0702 
  19      7E060530 
  19      1BA8164A 
  20 002b 40E90646 		.ascii	"@\351\006F\020\003\310bef\000\000:\272\011\200"
  20      1003C862 
  20      65660000 
  20      3ABA0980 
  21              		.text
  22              		.section	.gnu.lto_.inline.adbdaccb2a73384b,"",%progbits
  23 0000 789C6D8E 		.ascii	"x\234m\216!\022\3020\020E\377n\3236\320\016d\020mP\004"
  23      2112C230 
  23      1045FF6E 
  23      D336D00E 
  23      64106D50 
  24 0015 85E30C75 		.ascii	"\205\343\014u8$\232\243T\"\020(4\202# 8\001\272\247"
  24      38249AA3 
  24      54221028 
  24      34822320 
  24      3801BAA7 
  25 0029 60902834 		.ascii	"`\220(4\331\255\2413\254x\273\371\331\344\177\006\343"
  25      D9ADA133 
  25      AC78BBF9 
  25      D9E47F06 
  25      E3
  26 003a 5F15D4F7 		.ascii	"_\025\324\367\024\030Y\002g\3575\312\323V\227\011\251"
  26      14185902 
  26      67EF35CA 
  26      D3569709 
  26      A9
  27 004b 0138B9D7 		.ascii	"\0018\271\327\310\017+\225\030\363:\356\306G\311^\331"
  27      C80F2B95 
  27      18F33AEE 
  27      C647C95E 
ARM GAS  /tmp/ccjSXgYT.s 			page 2


  27      D9
  28 005c 285BD216 		.ascii	"([\322\026\224(\375\343F(\317\033\006\275r\303\210?"
  28      9428FDE3 
  28      4628CF1B 
  28      06BD72C3 
  28      883F
  29 006e 1819AD0A 		.ascii	"\030\031\255\012\026\334M\035+\345\034T\015\202F\307"
  29      16DC4D1D 
  29      2BE51C54 
  29      0D8246C7 
  30 007e 469C8C77 		.ascii	"F\234\214w\313\230g\326\035\011\331e\321\273\027\022"
  30      CB9867D6 
  30      1D09D965 
  30      D1BB1712 
  31 008e AA670A5F 		.ascii	"\252g\012_\301\374$\031f\030W\237+a\362\334\0152DK\253"
  31      C1FC2419 
  31      6618579F 
  31      2B61F2DC 
  31      0D32444B 
  32 00a3 C65654A7 		.ascii	"\306VT\247w\203\014R_\335\333 \301"
  32      77830C52 
  32      5FDDDB20 
  32      C1
  33              		.text
  34              		.section	.gnu.lto_.pureconst.adbdaccb2a73384b,"",%progbits
  35 0000 789C6362 		.ascii	"x\234cb`b\340f\200\000V\006)F)&)\026\011V)\000\004)"
  35      6062E066 
  35      80005606 
  35      29462926 
  35      29160956 
  36 0018 00A1     		.ascii	"\000\241"
  37              		.text
  38              		.section	.gnu.lto_chTMObjectInit.adbdaccb2a73384b,"",%progbits
  39 0000 789C6362 		.ascii	"x\234cb`b@\007\222@<\225\221\201A\016H32302M8\307\300"
  39      60624007 
  39      92403C95 
  39      9181410E 
  39      48333233 
  40 001a D0C8C1C4 		.ascii	"\320\310\301\304\310\010b002\32431\326G2\202\325\256"
  40      C8086230 
  40      3032D433 
  40      31D64732 
  40      82D5AE
  41 002d 673AF0E0 		.ascii	"g:\360\340\377\377u\223\332\327\3670\316e\002\252\311"
  41      FFFF7593 
  41      DAD7F730 
  41      CE6502AA 
  41      C9
  42 003e 058BB332 		.ascii	"\005\213\2632\26444LP``H\006sC\200$Ho(#\023\210f>\313"
  42      B434344C 
  42      50606048 
  42      06734380 
  42      24486F28 
  43 0058 D0B4E3C7 		.ascii	"\320\264\343\307\247\033L\211\214\013\031Y\031\264\031"
  43      A71B4C89 
  43      8C0B1959 
  43      19B419
ARM GAS  /tmp/ccjSXgYT.s 			page 3


  44 0067 56350001 		.ascii	"V5\000\001o&#\303l\206Y\214\231\214\214\351\214L\021"
  44      6F2623C3 
  44      6C86598C 
  44      998C8CE9 
  44      8C4C11
  45 007a 401AE2B4 		.ascii	"@\032\342\264$\210M\014 \021\346\377@\300\017\344\200"
  45      24884D0C 
  45      2011E6FF 
  45      40C00FE4 
  45      80
  46 008b 4C98F199 		.ascii	"L\230\361\231h\023\030\021&0@u\357 ^7\023\246\356\033"
  46      68131811 
  46      26304075 
  46      EF205E37 
  46      13A6EE1B 
  47 009f 5874B360 		.ascii	"Xt\263`\327\315\214\251\373\007\026\335\254\330u\263"
  47      D7CD8CA9 
  47      FB0716DD 
  47      ACD875B3 
  48 00af C075B381 		.ascii	"\300u\263\201\030\027\031\032\037\334P\206\350\205\201"
  48      1817191A 
  48      1FDC5086 
  48      E88581
  49 00be 10A0F780 		.ascii	"\020\240\367\200\241\012\322!\243\247\247\357\234\221"
  49      A10AD221 
  49      A3A7A7EF 
  49      9C91
  50 00cc 9994E91F 		.ascii	"\231\224\351\037\254\237_\254_T\242_\\\224\254\237\234"
  50      AC9F5FAC 
  50      5F54A25F 
  50      5C94AC9F 
  50      9C
  51 00dd 5192AB97 		.ascii	"Q\222\253\227\314\000\000L\032g\360"
  51      CC00004C 
  51      1A67F0
  52              		.text
  53              		.section	.gnu.lto_chTMStartMeasurementX.adbdaccb2a73384b,"",%progbits
  54 0000 789C6362 		.ascii	"x\234cb`b@\007\222@\314\312\310\300\340\007\244\031"
  54      60624007 
  54      9240CCCA 
  54      C8C0E007 
  54      A419
  55 0012 99191899 		.ascii	"\231\031\030\231&\234c`h\344`bd\0041\030\030\031\352"
  55      269C6360 
  55      68E46062 
  55      64043118 
  55      1819EA
  56 0025 9918EB23 		.ascii	"\231\030\353#\031\301j\3273\035x\360\377\377\272+\355"
  56      19C16AD7 
  56      331D78F0 
  56      FFFFBA2B 
  56      ED
  57 0036 FBEF30CE 		.ascii	"\373\3570\316cbcf\314ed`e\310\004K\2622\26444LP``H\006"
  57      63626366 
  57      CC656460 
  57      65C8044B 
  57      B232B434 
ARM GAS  /tmp/ccjSXgYT.s 			page 4


  58 0051 73438024 		.ascii	"sC\200$\310\200PF&\020\315|\226\341\320\255?\375\307"
  58      C8805046 
  58      2610CD7C 
  58      96E1D0AD 
  58      3FFDC7
  59 0064 66B3C1D5 		.ascii	"f\263\301\325A\030\007\272\277}df`Hd\\\310\310\012\324"
  59      411807BA 
  59      BF7D6466 
  59      6048645C 
  59      C8C80AD4 
  60 0078 0AD69BCE 		.ascii	"\012\326\233\316\310\252\315\260\252\241\245\361\301"
  60      C8AACDB0 
  60      AAA1A5F1 
  60      C1
  61 0085 FF0D772E 		.ascii	"\377\015w.22f22\316f\230\3258\241A \223\221)\002\310"
  61      32326632 
  61      32CE6698 
  61      D538A141 
  61      20939129 
  62 009b 656E58D0 		.ascii	"enX\320\320\300\307\000f\202\035\226\004\322\227\310"
  62      D0C0C700 
  62      66821D96 
  62      04D297C8 
  63 00ab B8186806 		.ascii	"\270\030h\006\020\234eh:yf\003?\304L\220I@\300\013t"
  63      109C6568 
  63      3A796603 
  63      3FC44C90 
  63      4940C00B 
  64 00c0 25D010A0 		.ascii	"%\320\020\240\016\226tFf\220NV\250N\210\327\322A\374"
  64      0E967446 
  64      66904E56 
  64      A84E88D7 
  64      D241FC
  65 00d3 8B0C8D0F 		.ascii	"\213\014\215\017\336*C\364\301@\010P\001\320\003\240"
  65      DE2A43F4 
  65      C1400850 
  65      01D003A0 
  66 00e3 8093D1D3 		.ascii	"\200\223\321\323\323w\316\310L\312\364\017\326\317/"
  66      D377CEC8 
  66      4CCAF40F 
  66      D6CF2F
  67 00f2 D62F2AD1 		.ascii	"\326/*\321/.J\326O\316(\311\325Kf\320G\225L\316\317"
  67      2F2E4AD6 
  67      4FCE28C9 
  67      D54B66D0 
  67      47954CCE 
  68 0107 CDCDCFD3 		.ascii	"\315\315\317\323/\310/*)\326w\014\362u\366\255\000\252"
  68      2FC82F2A 
  68      29D6770C 
  68      F275F6AD 
  68      00AA
  69 0119 4CCE2F4A 		.ascii	"L\316/J\215/3\317\325\313`\000\000\346\261]\322"
  69      8D2F33CF 
  69      D5CB6000 
  69      00E6B15D 
  69      D2
  70              		.text
ARM GAS  /tmp/ccjSXgYT.s 			page 5


  71              		.section	.gnu.lto_chTMStopMeasurementX.adbdaccb2a73384b,"",%progbits
  72 0000 789C8D54 		.ascii	"x\234\215TMHTQ\024>\347\375\315\2173\343,\2122$D\010"
  72      4D485451 
  72      143EE7FD 
  72      CD8F33E3 
  72      2C8A3224 
  73 0016 21611EAD 		.ascii	"!a\036\255Z\207\253\010\021R\251\026\021:\3508\213\347"
  73      5A87AB08 
  73      1152A916 
  73      113AE838 
  73      8BE7
  74 0028 9399A182 		.ascii	"\223\231\241\202\026\336\231q1\266q\210\026\222\220"
  74      16DE9971 
  74      31B67188 
  74      169290
  75 0037 5A512162 		.ascii	"ZQ!b\326J\242b\010\313$\014\004\027!\"CPK7m$\302\351"
  75      D64AA262 
  75      08CB240C 
  75      04172122 
  75      43504B37 
  76 004f DC7BDF1B 		.ascii	"\334{\337\033}\226\315\\x\337\275\367\334{\276\373\335"
  76      7D96CD5C 
  76      78DFBDF7 
  76      DC7BBEFB 
  76      DD
  77 0060 EFBCF714 		.ascii	"\357\274\367\024P\340p\273D\317\274\016p\235z\364\001"
  77      50E070BB 
  77      44CFBC0E 
  77      709D7AF4 
  77      01
  78 0071 2AC52F00 		.ascii	"*\305/\000Y\277\242\250\2056`A\215cHEM\2065E\3370)l"
  78      59BFA2A8 
  78      85366041 
  78      8D634845 
  78      4D863545 
  79 0089 BC394D61 		.ascii	"\2749Ma\035\015\0316\020\371\000\020F\025U\323\015\034"
  79      1D0D1936 
  79      10F90010 
  79      461555D3 
  79      0D1C
  80 009b BD8682FD 		.ascii	"\275\206\202\375\205R*W*\013{+\357\346\361\271rR\205"
  80      85522A57 
  80      2A0B7B2B 
  80      EFE6F1B9 
  80      725285
  81 00ae 24828616 		.ascii	"$\202\206\026\202A#:\216\246~\016\001\016A\016\015\034"
  81      8241233A 
  81      8EA67E0E 
  81      010E410E 
  81      0D1C
  82 00c0 42044A98 		.ascii	"B\004J\230C\204C#\217E9P\323a\214\261b\013@\\L{\010"
  82      43844323 
  82      8F453950 
  82      D3618CB1 
  82      620B405C 
  83 00d7 F9D9BDA8 		.ascii	"\371\331\275\250\360^]\203\367\233\277'>N\031\325}r"
  83      F05E5D83 
ARM GAS  /tmp/ccjSXgYT.s 			page 6


  83      F79BBF27 
  83      3E4E19D5 
  83      7D72
  84 00e9 50FABCFC 		.ascii	"P\372\274\374H\005\350\303Y\324)U\344&\320h\20796\226"
  84      4805E8C3 
  84      59D42955 
  84      E426D068 
  84      87393696 
  85 00fd 2D5716B7 		.ascii	"-W\026\267\326\021\223\250N\301\203l\221E\223\250]\245"
  85      D61193A8 
  85      4EC1836C 
  85      914593A8 
  85      5DA5
  86 010f A9CE6618 		.ascii	"\251\316f\030\213\200\030\212\373\364\363\274>|,\247"
  86      8B80188A 
  86      FBF4F3BC 
  86      3E7C2CA7 
  87 011f 6B90DBDC 		.ascii	"k\220\333\334zr\377\224$M\240\332\016g\351Z\234\223"
  87      7A72FF94 
  87      244DA0DA 
  87      0E67E95A 
  87      9C93
  88 0131 DA5BCA32 		.ascii	"\332[\31228\037\343|\276;\360\213\025\370\310o\211\323"
  88      381FE37C 
  88      BE3BF08B 
  88      15F8C86F 
  88      89D3
  89 0143 39A9DF21 		.ascii	"9\251\337!E\247w\313\263\012\271\222\303\332\012\263"
  89      45A777CB 
  89      B30AB992 
  89      C3DA0AB3 
  90 0153 8CDD2B55 		.ascii	"\214\335+UV&\232\330L\256\310\366*\025J\014(\320\205"
  90      56269AD8 
  90      4CAEC8F6 
  90      2A154A0C 
  90      28D085
  91 0166 DC01CE12 		.ascii	"\334\001\316\022l\021]\203\346\255l\0025\301T\036\377"
  91      6C115D83 
  91      E6AD6C02 
  91      35C1541E 
  91      FF
  92 0177 60FC8F8B 		.ascii	"`\374\217\213N\355\256\315e\324\313u\2456\227*\255["
  92      4EEDAECD 
  92      65D4CB75 
  92      A536972A 
  92      AD5B
  93 0189 7AA81E2A 		.ascii	"z\250\036*\022{\306\315\\\300V\362x^\340\034\341~\325"
  93      127BC6CD 
  93      5CC056F2 
  93      785EE01C 
  93      E17ED5
  94 019c 1499EF93 		.ascii	"\024\231\357\223\016\227~6%1Tu8\234\220E\0138f\212j"
  94      0E977E36 
  94      25315475 
  94      389C9045 
  94      0B38668A 
  95 01b1 BF742B95 		.ascii	"\277t+\225/\344\007\373pQ\324\311O\024|g\010e\021/\312"
ARM GAS  /tmp/ccjSXgYT.s 			page 7


  95      2FE407FB 
  95      7051D4C9 
  95      4F147C67 
  95      0865112F 
  96 01c6 05A76EE1 		.ascii	"\005\247n\341\372H\023\274z\374\032_\267\233]\342\200"
  96      FA4813BC 
  96      7AFC1A5F 
  96      B79B5DE2 
  96      80
  97 01d7 7C018ECC 		.ascii	"|\001\216\314\326\274\222\306\363\257\320M\015\222\305"
  97      D6BC92C6 
  97      F3AFD04D 
  97      0D92C5
  98 01e6 09BE51C4 		.ascii	"\011\276Q\304\237*n\274A,I\307V\027}\207\225\326s\026"
  98      9F2A6EBC 
  98      412C49C7 
  98      56177D87 
  98      95D67316 
  99 01fa 9148A5BB 		.ascii	"\221H\245\273\333\307]\332\220\244\240\274\310\221\014"
  99      DBC75DDA 
  99      90A4A0BC 
  99      C8910C
 100 0209 BA476D6E 		.ascii	"\272Gmn'\377\272\2526\354p\222\253\013\325`\204hi\351"
 100      27FFBAAA 
 100      36EC7092 
 100      AB0BD560 
 100      846869E9 
 101 021d 6F4BEB3C 		.ascii	"oK\353<\205\030\244\316\311\351\023.gc\015G\215\003"
 101      8518A4CE 
 101      C9E9132E 
 101      67630D47 
 101      8D03
 102 022f 1A3FC1F2 		.ascii	"\032?\301\362\217l\370\200q\215\373/]/YXhS\271\211K"
 102      8F6CF880 
 102      718DFB2F 
 102      5D2F5958 
 102      6853B989 
 103 0244 D3C73C2E 		.ascii	"\323\307<.\236\253\217_\334XRi\316\237\206\034\335W"
 103      9EAB8F5F 
 103      DC585269 
 103      CE9F861C 
 103      DD57
 104 0256 1AADA1D4 		.ascii	"\032\255\241\324\347U\372\335\2434zP\251\016\033\246"
 104      E755FADD 
 104      A3347A50 
 104      A90E1BA6 
 105 0266 503AF96D 		.ascii	"P:\371m\027\353\227\352\373\227TCH]\207l\371\356\031"
 105      17EB97EA 
 105      FB975443 
 105      485D876C 
 105      F9EE19
 106 0279 F915B9AD 		.ascii	"\371\025\271\255\207\376:\264\306?\251\346X\314\354"
 106      87FE3AB4 
 106      C63FA9E6 
 106      58CCEC
 107 0288 184AF627 		.ascii	"\030J\366'\273\272M;m\2462f:\0257\343C\031+\026\007"
 107      BBBA4D3B 
ARM GAS  /tmp/ccjSXgYT.s 			page 8


 107      6DA63266 
 107      3A1537E3 
 107      43192B16 
 108 029d D3BB18B7 		.ascii	"\323\273\030\267-\313\0366G\354T&m^\270\334\331\321"
 108      2DCB1E36 
 108      47EC5426 
 108      6D5EB8DC 
 108      D9D1
 109 02af 799B76C6 		.ascii	"y\233v\306\355\324\300\215\233\347\255\330\020\250\031"
 109      EDD4C08D 
 109      9BE7ADD8 
 109      10A819
 110 02be 6B441DB6 		.ascii	"kD\035\266o\031\366\340`z \363\007w\003m4"
 110      6F19F6E0 
 110      607A20F3 
 110      0777036D 
 110      34
 111              		.text
 112              		.section	.gnu.lto__tm_init.adbdaccb2a73384b,"",%progbits
 113 0000 789CAD53 		.ascii	"x\234\255S\277k\024Q\020\376\346\355\335%\346L\242`"
 113      BF6B1451 
 113      10FEE6ED 
 113      DD25E64C 
 113      A260
 114 0012 11414888 		.ascii	"\021AH\210\010j\340\226\200\377\201\177\200\205\012"
 114      086AE096 
 114      80FF817F 
 114      80850A
 115 0021 5ADE6D91 		.ascii	"Z\336m\221\274\342P\222\253\264\310\333xh\032\341H\223"
 115      BCE25092 
 115      ABB4C8DB 
 115      78681AE1 
 115      4893
 116 0033 60AA6023 		.ascii	"`\252`#\376,\316\342 \315CP\010\022\305\356\024\213"
 116      FE2CCEE2 
 116      20CD4350 
 116      0812C5EE 
 116      148B
 117 0045 150BC134 		.ascii	"\025\013\3014A\233\303f\235\331\267\233\270aI\345\300"
 117      419BC366 
 117      9DD9B79B 
 117      B86149E5 
 117      C0
 118 0056 EE0CEC7C 		.ascii	"\356\014\354|\337\314\367\355{\012\012\207\3434?\033"
 118      DFCCF7ED 
 118      7B0A0A87 
 118      E3343F1B 
 119 0066 1E708E33 		.ascii	"\036p\2163y \325\371\000\204\303\212H\012\020\226\024"
 119      7920D5F9 
 119      0084C38A 
 119      480A1096 
 119      14
 120 0077 2DDD2469 		.ascii	"-\335$i\245il\032\333\211\336\376\330S\241\261\353\246"
 120      A5696C1A 
 120      DB89DEFE 
 120      D853A1B1 
 120      EBA6
ARM GAS  /tmp/ccjSXgYT.s 			page 9


 121 0089 6DE39826 		.ascii	"m\343\230&51\355$! \334 Md]V\023\371A\257\224\215\342"
 121      3531ED24 
 121      2120DC20 
 121      4D645D56 
 121      13F941AF 
 122 00a0 F86BF7F5 		.ascii	"\370k\367\365\267\036\235\034\253@\3634\240\214\266"
 122      B71E9D1C 
 122      AB40F334 
 122      A08CB6
 123 00af 319DA93A 		.ascii	"1\235\251:m2;\204\203\343\032\277e\372uR\222\275\035"
 123      6D323B84 
 123      83E31ABF 
 123      65FA7552 
 123      92BD1D
 124 00c2 2CF7063F 		.ascii	",\367\006?\255\252\323c*c\006O\015\307\254\246RZV5\225"
 124      ADAAD363 
 124      2A63064F 
 124      0DC7ACA6 
 124      525A5635 
 125 00d7 37F02834 		.ascii	"7\360(4\346\204\246\312]\3741+R\0155\0236Yf(Y\241AH"
 125      E684A6CA 
 125      5DFC312B 
 125      520D3513 
 125      36596628 
 126 00ef B32BE48B 		.ascii	"\263+\344\213,\201m,\333\363\216]4\232U\273u\377=\231"
 126      2C816D2C 
 126      DBF38E5D 
 126      349A55BB 
 126      75FF3D99 
 127 0103 5513EEC5 		.ascii	"U\023\356\305\361\270\246a\205\351\003\201SN_)\257O"
 127      F1B8A661 
 127      85E90381 
 127      534E5F29 
 127      AF4F
 128 0115 C61A633F 		.ascii	"\306\032c?\277;\305\375N\217c\344H\004\374\352\253T"
 128      BF3BC5FD 
 128      4E8F63E4 
 128      4804FCEA 
 128      AB54
 129 0127 6D26DB74 		.ascii	"m&\333t\037^\250\323\223D\271\353\015\334fN\227]{\340"
 129      1F5EA8D3 
 129      9344B9EB 
 129      0DDC664E 
 129      975D7BE0 
 130 013b B148C7D5 		.ascii	"\261H\307\325`/\270\351\271\020&{\307\034\343)\367\372"
 130      602FB8E9 
 130      B910267B 
 130      C71CE329 
 130      F7FA
 131 014d EF3E9BF3 		.ascii	"\357>\233\363\354\300\234\321\177p^\036\227\355\323"
 131      ECC09CD1 
 131      7F705E1E 
 131      97EDD3
 132 015c 3B0A532A 		.ascii	";\012S*\306\364\0130\3072L\271\0303(\300\214d\230J\016"
 132      C6F40B30 
 132      C7324CB9 
 132      183328C0 
ARM GAS  /tmp/ccjSXgYT.s 			page 10


 132      8C64984A 
 133 0171 5315CC47 		.ascii	"S\025\314G\264\243\027\367\3062\357\366\377\346\361"
 133      B4A317F7 
 133      C632EFF6 
 133      FFE6F1
 134 0180 80546AF4 		.ascii	"\200Tj\364\235\303\016k\032u\300\227\337\253E@\357H"
 134      9DC30E6B 
 134      1A75C097 
 134      DFAB4540 
 134      EF48
 135 0192 206FF965 		.ascii	" o\371e\260\033\245\307k\216*3\270\230\367\002\251\230"
 135      B01BA5C7 
 135      6B8E2A33 
 135      B898F702 
 135      A998
 136 01a4 EDCEC8FF 		.ascii	"\355\316\310\377>\203s\342\301\016\336\354\246\343\335"
 136      3E8373E2 
 136      C10EDEEC 
 136      A6E3DD
 137 01b3 D44BE89A 		.ascii	"\324K\350\232\025\306H\307'\204Q\357\354\376Y\202\273"
 137      15C648C7 
 137      278451EF 
 137      ECFE5982 
 137      BB
 138 01c4 21243743 		.ascii	"!$7C\0149S\253\371\227\347uC_\271\352\337Z\364\027Z"
 138      0C3953AB 
 138      F997E775 
 138      435FB9EA 
 138      DF5AF417 
 139 01d9 FEE242E0 		.ascii	"\376\342B\340\007\363\255f-\200j5\275V\363\366_{\253"
 139      07F3AD66 
 139      2D806A35 
 139      BD56F3F6 
 139      5F7BAB
 140 01ec EC6E     		.ascii	"\354n"
 141              		.text
 142              		.section	.gnu.lto_chTMChainMeasurementToX.adbdaccb2a73384b,"",%progbits
 143 0000 789C8D94 		.ascii	"x\234\215\224_HSq\024\307\317\371\335?\233\323\271="
 143      5F485371 
 143      14C7CFF9 
 143      DD3F9BD3 
 143      B93D
 144 0012 14658888 		.ascii	"\024e\210\210 B\302.=\365\034>E\210\220J\365\0201\207"
 144      2042C22E 
 144      3DF51C3E 
 144      4588904A 
 144      F5103187 
 145 0026 CE3DCC2B 		.ascii	"\316=\314+\333\260\336\374m\363\301\350\301\021\010"
 145      DBB0DEFC 
 145      6DF3C1E8 
 145      C11108
 146 0035 92904A2F 		.ascii	"\222\220J/!\241\322\323\210\240\025\026)\030\030\022"
 146      21A1D2D3 
 146      88A01516 
 146      29181812 
 147 0045 212223A8 		.ascii	"!\"#\250\307^z\361!Z\347\334\337\246\273f\354^\330\271"
 147      C75E7AF1 
ARM GAS  /tmp/ccjSXgYT.s 			page 11


 147      215AE7DC 
 147      DFA6BB66 
 147      EC5ED8B9 
 148 0059 F7777EF7 		.ascii	"\367w~\367|~\337\337\367\374\356\004\0108}\335\240\337"
 148      7C7EDFDF 
 148      F7FCEE04 
 148      08387DDD 
 148      A0DF
 149 006b 94017097 		.ascii	"\224\001p\227\356\350\003\024\205O\000Y\277\020\332"
 149      EEE80314 
 149      854F0059 
 149      BF10DA
 150 007a 6C0FC880 		.ascii	"l\017\310\200\316\261EC]\245ua\354Y\2246_wP\332@S\245"
 150      CEB14543 
 150      5DA57561 
 150      EC599436 
 150      5F7750DA 
 151 0091 4D447E00 		.ascii	"MD~\000\204i\241\351\206\211\323w\320\241\257\213R\271"
 151      8469A1E9 
 151      8689D377 
 151      D0A1AF8B 
 151      52B9
 152 00a3 5259FBBC 		.ascii	"RY\373\274\275\371\026\213\335\0275L\"\030\024h\245"
 152      BDF9168B 
 152      DD17354C 
 152      22181468 
 152      A5
 153 00b4 04829F02 		.ascii	"\004\202\237\0026q\010ph\346\320BA\0049\264r\010q.\314"
 153      36710870 
 153      68E6D042 
 153      410439B4 
 153      7208712E 
 154 00c9 816806CC 		.ascii	"\201h\006\314HY\350\004\2109\364!\212\274\3540\012\276"
 154      4859E804 
 154      8839F421 
 154      8ABCEC30 
 154      0ABE
 155 00db 6B3BF06E 		.ascii	"k;\360n\377\367\334\207E\363\370=\365Pz\364%G;\214\342"
 155      FFF7DC87 
 155      45F3F83D 
 155      F5507AF4 
 155      25473B8C 
 156 00f0 0A1A54EA 		.ascii	"\012\032T\352\324\306\321\327\013\253r&[\256l\034\354"
 156      D4C6D1D7 
 156      0BAB7226 
 156      5BAE6C1C 
 156      EC
 157 0101 2226505B 		.ascii	"\"&P[\204'\331\202\014'P\277MCC.K\331\012\316\243\263"
 157      8427D982 
 157      0C2750BF 
 157      4D43432E 
 157      4BD90ACE 
 158 0117 9511AE8B 		.ascii	"\225\021\256\213\34235\334\201\334\326\301\306|\207"
 158      E23335DC 
 158      81DCD6C1 
 158      C67C87
 159 0126 82328AAE 		.ascii	"\2022\212\256\020\355\211(Tb\306Q\343R_\265T\271\021"
ARM GAS  /tmp/ccjSXgYT.s 			page 12


 159      10ED8928 
 159      5462C651 
 159      E3525FB5 
 159      54B911
 160 0139 E7F116E4 		.ascii	"\347\361\026\344\312\353\357MU\330\005+R>.\355n\317"
 160      CAEBEF4D 
 160      55D8052B 
 160      523E2EED 
 160      6ECF
 161 014b B5C9E55C 		.ascii	"\265\311\345\\A\376\251T\270J\300\000\362&\031\341\357"
 161      41FEA954 
 161      B84AC000 
 161      F22619E1 
 161      EF
 162 015c 746E4DBA 		.ascii	"tnM\272\273oq\326\341\201E-\037l\314\362\246\213X\267"
 162      BB6F71D6 
 162      E181452D 
 162      1F6CCCF2 
 162      A68B58B7 
 163 0170 1AB13887 		.ascii	"\032\2618\207U\207\366\213O\265S\275\220o\346/E\361"
 163      5587F68B 
 163      4FB553BD 
 163      906FE62F 
 163      45F1
 164 0182 05769195 		.ascii	"\005v\221\225\253N|N\361\2449B\351\361+GK\277\332\022"
 164      AB4E7C4E 
 164      F1A43942 
 164      E9F12B47 
 164      4BBFDA12 
 165 0196 18E0C648 		.ascii	"\030\340\306Hn\014\271j\324\273*\270n\275\326\220\374"
 165      6E0CB96A 
 165      D4BB2AB8 
 165      6EBDD690 
 165      FC
 166 01a7 6C7E2C8A 		.ascii	"l~,\212k4\214c\023!\370\315\000*%\327\325D\265OAoP\302"
 166      6B348C63 
 166      1321F8CD 
 166      002A25D7 
 166      D544B54F 
 167 01bf A86D7C3D 		.ascii	"\250m|=l\257\201\003\275pYu\371\354jtKz\230\177\211"
 167      6CAF8103 
 167      BD705975 
 167      F9EC6A74 
 167      4B7A987F 
 168 01d4 B5D266B2 		.ascii	"\265\322f\262\231\000\352\354l\370N+\362\302$\210Rt"
 168      9900EAEC 
 168      6CF84E2B 
 168      F2C22488 
 168      5274
 169 01e6 7478BE86 		.ascii	"tx\276\206mQ\010\252k\376/As\251\312\375\314\277:V\025"
 169      6D5108AA 
 169      6BFE2F41 
 169      73A9CAFD 
 169      CCBF3A56 
 170 01fb AC32C9BD 		.ascii	"\2542\311\275\265\343d+ai\352_\353<\256B\004\245sa\351"
 170      B5E3642B 
 170      6169EA5F 
ARM GAS  /tmp/ccjSXgYT.s 			page 13


 170      EB3CAE42 
 170      04A57361 
 171 0210 428D196A 		.ascii	"B\215\031j\340\234^\247\361#l\376\310\006\353\214\013"
 171      E09C5EA7 
 171      F1236CFE 
 171      C806EB8C 
 171      0B
 172 0221 9D1CB061 		.ascii	"\235\034\260aZg\266Gc\023\213K\347\\.^\361\306wv\254"
 172      5A67B647 
 172      63138B4B 
 172      E75C2E5E 
 172      F1C67776 
 173 0236 507AF58F 		.ascii	"Pz\365\217\203\034=Q\032n\240\324p+\375\356R\032\256"
 173      831C3D51 
 173      1A6EA0D4 
 173      702BFDEE 
 173      521AAE
 174 0249 576AC09E 		.ascii	"Wj\300\236\345(]\370v\204\336\245\032gI5\035\251\273"
 174      E5285DF8 
 174      7684DEA5 
 174      1A674935 
 174      1DA9BB
 175 025c 902D17BB 		.ascii	"\220-\027\273\325\327R\273\206\350\204\320\034\177:"
 175      D5D752BB 
 175      86E884D0 
 175      1C7F3A
 176 026b ED9188D5 		.ascii	"\355\221\210\3257\236\030I\014\014Zv\332Je\254t*f\305"
 176      379E1849 
 176      0C0C5A76 
 176      DA4A65AC 
 176      742A66C5 
 177 027f C633C948 		.ascii	"\3063\311H\014,\367d\314N&\355\011k\322Ne\322\326\265"
 177      0C2CF764 
 177      CC4E26ED 
 177      096BD24E 
 177      65D2D6B5 
 178 0293 9BFD7DFD 		.ascii	"\233\375}\375\017\350\315\230\235\032\2757u5\031\031"
 178      0FE8CD98 
 178      9D1ABD37 
 178      75351919 
 179 02a3 072D939C 		.ascii	"\007-\223\234\324&\354\373\246=6\226\036\315\374\005"
 179      D426ECFB 
 179      A63D3696 
 179      1ECDFC05 
 180 02b3 A7276154 		.ascii	"\247'aT"
 181              		.text
 182              		.section	.gnu.lto_.symbol_nodes.adbdaccb2a73384b,"",%progbits
 183 0000 789C6362 		.ascii	"x\234cb`bHa\200\002\246\217\214\365\014\014\023\316"
 183      60624861 
 183      8002A68F 
 183      8CF50C0C 
 183      13CE
 184 0012 3130D4D7 		.ascii	"10\324\327\317\353`d\372\304X\317\210\304\375\314X\317"
 184      CFEB6064 
 184      FAC458CF 
 184      88C4FDCC 
 184      58CF
ARM GAS  /tmp/ccjSXgYT.s 			page 14


 185 0024 84E0B27E 		.ascii	"\204\340\262~e\004\262\030\230>0\3263#)\372\302X\317"
 185      6504B218 
 185      983E30D6 
 185      332329FA 
 185      C258CF
 186 0037 82E032B3 		.ascii	"\202\3402\26302<z\370\017H314\265\275\221g\000\000Z"
 186      30323C7A 
 186      F80F4833 
 186      3134B5BD 
 186      91670000 
 187 004c 211FA6   		.ascii	"!\037\246"
 188              		.text
 189              		.section	.gnu.lto_.refs.adbdaccb2a73384b,"",%progbits
 190 0000 789C6362 		.ascii	"x\234cb`b\340f\200\000F&\006f&\026FfFf\006\000\001\267"
 190      6062E066 
 190      80004626 
 190      06662616 
 190      46664666 
 191 0018 0024     		.ascii	"\000$"
 192              		.text
 193              		.section	.gnu.lto_.decls.adbdaccb2a73384b,"",%progbits
 194 0000 789CBD5B 		.ascii	"x\234\275[\017t\324\306\231\227\264k\357.v\201\322&"
 194      0F74D4C6 
 194      9997B46B 
 194      EF2E7681 
 194      D226
 195 0012 252DB99A 		.ascii	"%-\271\232\274\266\357\032\036YphK\356\335\245\3649"
 195      BCB6EF1A 
 195      1E597068 
 195      4BEEDDA5 
 195      F439
 196 0024 B4E12E04 		.ascii	"\264\341.\004\036&-\271\273\276\255\274\026\3666\336"
 196      1E262DB9 
 196      BBBEADBC 
 196      16F636DE 
 197 0034 5D572B63 		.ascii	"]W+cr\357\336\2530\304!>h\214C\010\020\300&\301I\000"
 197      72EFDEAB 
 197      30C4213E 
 197      688C4308 
 197      10C026C1 
 198 004a 1330943F 		.ascii	"\0230\224?\006\002\242I\300\230\206\030\363\317\204"
 198      0602A249 
 198      C0988618 
 198      F3CF84
 199 0059 4096B450 		.ascii	"@\226\264P\223\177\2058.`\010\276\231o$\255F+\255%C"
 199      937F8538 
 199      2E6008BE 
 199      996F24AD 
 199      462BAD25 
 200 006e ABB7FA56 		.ascii	"\253\267\372V\322h~\363\375\233\371\276\031I\034\303"
 200      D2687EF3 
 200      FD9BF9BE 
 200      19491CC3 
 201 007e 31FFCB31 		.ascii	"1\377\3131L\037\332\2761\201a~\356c\230l\206a\036D;"
 201      4C1FDABE 
 201      3181617E 
 201      EE63986C 
ARM GAS  /tmp/ccjSXgYT.s 			page 15


 201      86611E44 
 202 0093 BACCA053 		.ascii	"\272\314\240S&\300\220-\013\355\253\321~\030\355\307"
 202      26C0902D 
 202      0BEDABD1 
 202      7E18EDC7 
 203 00a3 D07E0AED 		.ascii	"\320~\012\355g\320\316\242\275\213\241\267\325j\335"
 203      67D0CEA2 
 203      BD8BA1B7 
 203      D56ADD
 204 00b2 26B437A2 		.ascii	"&\2647\242}\215z\276\013\355\212\212\211\361\326\243"
 204      7D8D7ABE 
 204      0BED8A8A 
 204      89F1D6A3 
 205 00c2 7D1BDA77 		.ascii	"}\033\332w\240}'\332\367\252x\253\325\377C&\\\334v\266"
 205      A07D27DA 
 205      F7AA78AB 
 205      D5FF4326 
 205      5CDC76B6 
 206 00d6 8A7B1EDD 		.ascii	"\212{\036\335p\001\355#\270T\033\230\347OY\202\307\251"
 206      7001ED23 
 206      B8541B98 
 206      E74F5982 
 206      C7A9
 207 00e8 F7DFCD11 		.ascii	"\367\337\315\021\254\016\023\026\226a\210\201\317\200"
 207      AC0E1316 
 207      96618881 
 207      CF80
 208 00f6 09F37DF4 		.ascii	"\011\363}\364\177\021]\033\311\021\354\301h\317UehT"
 208      7F115D1B 
 208      C911ECC1 
 208      68CF5565 
 208      6854
 209 0108 E5F0ABED 		.ascii	"\345\360\253\355\235F\3739\226\310\260C\225c\233*\237"
 209      9D46FB39 
 209      96C8B043 
 209      95639B2A 
 209      9F
 210 0119 476D0BF3 		.ascii	"Gm\013\363q\017G\370:i\241\263Sj\033\215\206\2664\336"
 210      710F47F8 
 210      3A69A1B3 
 210      536A1B8D 
 210      86B634DE 
 211 012d CCBC18F5 		.ascii	"\314\274\030\3658\032]{I\275W\343\303J\257^\265\015"
 211      381A5D7B 
 211      49BD57E3 
 211      C34AAF5E 
 211      B50D
 212 013f A30DAD6C 		.ascii	"\243\015\255lwFm\273\211I\331\337J\327F}(\252]4\335"
 212      77466DBB 
 212      8949D9DF 
 212      4AD7467D 
 212      28AA5D34 
 213 0154 6B6D1A75 		.ascii	"km\032up\306\244\203\363h\377\223\251\355o3\253\344"
 213      70C6A483 
 213      F368FF93 
 213      A9ED6F33 
 213      ABE4
ARM GAS  /tmp/ccjSXgYT.s 			page 16


 214 0166 E4A564E3 		.ascii	"\344\245d\343\347\233\356\222\033\252\224\276\276\275"
 214      E79BEE92 
 214      1BAA94BE 
 214      BEBD
 215 0174 32CBDCC9 		.ascii	"2\313\334\311</\243\255\241Z\226Y\211g\037\274\203\231"
 215      3C2FA3AD 
 215      A15A9659 
 215      89671FBC 
 215      8399
 216 0186 C1F2ECE0 		.ascii	"\301\362\354\340\000\223\007\007\271\001\020\215ax\366"
 216      00930707 
 216      B901108D 
 216      6178F6
 217 0195 25F64E38 		.ascii	"%\366N8\362@\003L\016S#\313U\270\342\303\255\203\207"
 217      F240034C 
 217      0E5323CB 
 217      55B8E2C3 
 217      AD8387
 218 01a8 318B304A 		.ascii	"1\2130J\336\374?!\036U\000\205\325\020\206\243\333\277"
 218      DEFC3F21 
 218      1E550085 
 218      D51086A3 
 218      DBBF
 219 01ba CBAC91E5 		.ascii	"\313\254\221\345\332d\337\325\005\036Y\366\363l#;\014"
 219      DA64DFD5 
 219      051E59F6 
 219      F36C233B 
 219      0C
 220 01cb E14C6099 		.ascii	"\341L`\231{\231\265\250f\255,\177x/\313\244o\375#c\336"
 220      7B99B5A8 
 220      66AD2C7F 
 220      782FCBA4 
 220      6FFD2363 
 221 01e0 D622349E 		.ascii	"\326\"4\236}\215\275\227\264#+\315\373se/\271\316\250"
 221      7D8DBD97 
 221      B4232BCD 
 221      FB73652F 
 221      B9CEA8
 222 01f3 2516DB48 		.ascii	"%\026\333H\246\001\311\240l\331\277\002i\344\017l\200"
 222      A601C9A0 
 222      6CD9BF02 
 222      69E40F6C 
 222      80
 223 0204 999F1289 		.ascii	"\231\237\022\211\261T\204*F\317\376\335\377\006b4\241"
 223      B154842A 
 223      46CFFEDD 
 223      FF066234 
 223      A1
 224 0215 4A1CF33C 		.ascii	"J\034\363<\313R\2158\007\272^\363\366>\266\012\351\236"
 224      CB528D38 
 224      07BA5EF3 
 224      F63EB60A 
 224      E99E
 225 0227 673702D4 		.ascii	"g7\002\324\"n\240P=u\273\037\000\2366\003P\275\207\006"
 225      226EA050 
 225      3D75BB1F 
 225      009E3603 
ARM GAS  /tmp/ccjSXgYT.s 			page 17


 225      50BD8706 
 226 023b E2595FC0 		.ascii	"\342Y_\300(;\234k7`4(V\017\360\2205\204\371;\337\316"
 226      283B9C6B 
 226      37603428 
 226      560FF090 
 226      3584F93B 
 227 0251 31EB8047 		.ascii	"1\353\200Gl$+\271\324C\262\2517P\206K\336\354Z\000\206"
 227      6C242BB9 
 227      D443B2A9 
 227      3750864B 
 227      DEEC5A00 
 228 0266 D3ECB0D1 		.ascii	"\323\354\260\3215^\036\345\010\333\366\347\326\362\032"
 228      355E1EE5 
 228      08DBF6E7 
 228      D6F21A
 229 0275 D8562760 		.ascii	"\330V'`~[\346\224\035\030\314\205\371\252\017\034a\347"
 229      7E5BE694 
 229      1D18CC85 
 229      F9AA0F1C 
 229      61E7
 230 0287 8227EC82 		.ascii	"\202'\354\202\366w\246\031\020{\210k\035\357s-\006\245"
 230      F677A619 
 230      107B886B 
 230      1DEF732D 
 230      06A5
 231 0299 9364DF17 		.ascii	"\223d\337\027\013\036X.+K\307\250\242(\325\362|vN\363"
 231      0B1E582E 
 231      2B4BC7A8 
 231      A228D5F2 
 231      7C764EF3 
 232 02ad 08FDF609 		.ascii	"\010\375\366\011F\020]\2307H\377P@\2247=\226N\355\010"
 232      46105D98 
 232      3748FF50 
 232      4094373D 
 232      964EED08 
 233 02c1 EA7ACDBB 		.ascii	"\352z\315\273Z\017y\023\300\3768p\260\206\236\216\021"
 233      5A0F7913 
 233      C0FE3870 
 233      B0869E8E 
 233      11
 234 02d2 7858D80F 		.ascii	"xX\330\017@\307\323\024\0340\3517@\3537\020H\035\364"
 234      40C7D314 
 234      1C30E937 
 234      40EB3710 
 234      481DF4
 235 02e5 691B3D68 		.ascii	"i\033=h\375]\353pL\322lLJH\365p\250\205OZm\306a\223"
 235      FD5DEB70 
 235      4CD26C4C 
 235      4A48F570 
 235      A8854F5A 
 236 02fd 67D7B1DF 		.ascii	"g\327\261\337Et=;\022\321m@w\000\335\011t/\242\372f"
 236      45743D3B 
 236      12D16D40 
 236      7700DD09 
 236      742FA2FA 
 237 0312 1721D6B0 		.ascii	"\027!\326\2609)\354\307<\372\375\034\363\261I\325\337"
 237      3929ECC7 
ARM GAS  /tmp/ccjSXgYT.s 			page 18


 237      3CFAFD1C 
 237      F3B149D5 
 237      DF
 238 0323 615E96E5 		.ascii	"a^\226\345:\024\212Z\263\226\311\212\227T\345\230^\270"
 238      3A148A5A 
 238      B396C98A 
 238      9754E598 
 238      5EB8
 239 0335 6D35FB6D 		.ascii	"m5\373m\313&\364\006\276\3074\342\230\260P~j(\013!\213"
 239      CB26F406 
 239      BEC734E2 
 239      98B0507E 
 239      6A280B21 
 240 034a 516B51C2 		.ascii	"QkQ\302\265\261\234\361\002\211~\312\361\003\317j\321"
 240      B5B19CF1 
 240      02897ECA 
 240      F103CF6A 
 240      D1
 241 035b 6F821AD4 		.ascii	"o\202\032\3248\346&\305\036\0048\216Y\354e\215\314\312"
 241      38E626C5 
 241      1E04388E 
 241      59EC658D 
 241      CCCA
 242 036d DDC2C384 		.ascii	"\335\302\303\204\003\236\375#\202\346\331\303\016\371"
 242      039EFD23 
 242      82E6D9C3 
 242      0EF9
 243 037b DC2B4F1D 		.ascii	"\334+O\035\256\263y\330\314\346\273\226l\336<\220[;"
 243      AEB379D8 
 243      CCE6BB96 
 243      6CDE3C90 
 243      5B3B
 244 038d 27D9D757 		.ascii	"'\331\327W\237\247\361\270\322\233\306#\317\036\321"
 244      9FA7F1B8 
 244      D29BC623 
 244      CF1ED1
 245 039c 2AAB3C5E 		.ascii	"*\253<^6\363xl <\0363\363x<\235\307\206\244\262\253"
 245      36F3786C 
 245      203C1E33 
 245      F3783C9D 
 245      C786A4B2 
 246 03b1 FA108BDA 		.ascii	"\372\020\213\332\274\321\327\347q\221F\274\247\246\021"
 246      BCD1D7E7 
 246      719146BC 
 246      A7A611
 247 03c0 290FE198 		.ascii	")\017\341\230\315^\332=t\266\344\327d\217\316\326)3"
 247      CD5EDA3D 
 247      74B6E4D7 
 247      648FCED6 
 247      2933
 248 03d2 5BA72DD9 		.ascii	"[\247-\331:\322f\260\260s\276\316\322\351\015Q\020u"
 248      3AD266B0 
 248      B073BECE 
 248      D2E90D51 
 248      1075
 249 03e4 C2A4B9F5 		.ascii	"\302\244\271\365.'6\271\242\331\204c\216\302\375g2\333"
 249      2E2736B9 
ARM GAS  /tmp/ccjSXgYT.s 			page 19


 249      A2D98463 
 249      8EC2FD67 
 249      32DB
 250 03f6 8454533A 		.ascii	"\204TS:\332rkY\255b\247\223\212\232\326\220\006\206"
 250      DA726B59 
 250      AD62A793 
 250      8A9AD690 
 250      0686
 251 0408 D4FC4A57 		.ascii	"\324\374JW\333\031\263\332\316\321j\273\207Y-'\3218"
 251      DB19B3DA 
 251      CED16ABB 
 251      87592D27 
 251      D138
 252 041a 7BA1FD7F 		.ascii	"{\241\375\177\232\252\344y\317\310\362\325>\266\317"
 252      9AAAE479 
 252      CFC8F2D5 
 252      3EB6CF
 253 0429 A3255E86 		.ascii	"\243%^\206\260\245\370\264Vg3\372\370\274\350#\345\237"
 253      B0A5F8B4 
 253      566733FA 
 253      F8BCE823 
 253      E59F
 254 043b 76CAF250 		.ascii	"v\312\362P\236\275\010)\335\253Y\264-\373\305\341\230"
 254      9EBD0829 
 254      DDAB59B4 
 254      2DFBC5E1 
 254      98
 255 044c 2D50E513 		.ascii	"-P\345\023S\016\2078J>\261\024\220?q\220\306\311\312"
 255      530E8738 
 255      4A3EB114 
 255      903F7190 
 255      C6C9CA
 256 045f A2D32B58 		.ascii	"\242\323+X\234\015X\264\230\3243\306\021F\316\257~s"
 256      9C0D58B4 
 256      98D433C6 
 256      1146CEAF 
 256      7E73
 257 0471 0FE05F02 		.ascii	"\017\340_\002\316\337\350\237s\032\207c\332\240Jw:\347"
 257      CEDFE89F 
 257      731A8763 
 257      DAA04A77 
 257      3AE7
 258 0483 EDBF249C 		.ascii	"\355\277$\234w;\342|\373I[\316\255B\"R\3717\017\002"
 258      773BE27C 
 258      FB495BCE 
 258      AD422252 
 258      F9370F02 
 259 0497 FC1560BC 		.ascii	"\374\025`\274\323\232\361\206\011v8\034\323\005Uz\323"
 259      D39AF186 
 259      0976381C 
 259      D305557A 
 259      D3
 260 04a8 19BFFA7D 		.ascii	"\031\277\372}\302x\257\243\314\371H\315JH\300,'\003"
 260      C278AFA3 
 260      CCF948CD 
 260      4A48C02C 
 260      2703
ARM GAS  /tmp/ccjSXgYT.s 			page 20


 261 04ba 86D61BBC 		.ascii	"\206\326\033\274Z\363\017\245\304\250\375\350\252\017"
 261      5AF30FA5 
 261      C4A8FDE8 
 261      AA0F
 262 04c8 92843E90 		.ascii	"\222\204>\220\342Z\377\352\247a8\246*\033W\251\342\322"
 262      E25AFFEA 
 262      A76138A6 
 262      2A1B57A9 
 262      E2D2
 263 04da D53F8A48 		.ascii	"\325?\212H\201\213\372W\377\2256\242~M\237\013t\330"
 263      818BFA57 
 263      FF9536A2 
 263      7E4D9F0B 
 263      74D8
 264 04ec 0C51966C 		.ascii	"\014Q\226l\226\231\337\3256\227\231\337[Z\3467\237\303"
 264      9699DFD5 
 264      369799DF 
 264      5B5AE637 
 264      9FC3
 265 04fe 89495DF6 		.ascii	"\211I]\366m\311\374\226\233\305p\225\300b5v\215j\331"
 265      6DC9FC96 
 265      9BC57095 
 265      C0623576 
 265      8D6AD9
 266 0511 2CCBCF64 		.ascii	",\313\317dk\016\225m'\011\232n@c\013\315\246h\351nU"
 266      6B0E956D 
 266      27099A6E 
 266      40630BCD 
 266      A668E96E 
 267 0526 1D6AA103 		.ascii	"\035j\241\003ST)[\333^p\346P\234\326\374w\240\371Nh"
 267      5354295B 
 267      DB5E70E6 
 267      509CD6FC 
 267      77A0F94E 
 268 053b BECEDCFC 		.ascii	"\276\316\334\374\262+\255\377E\232\257s\324|\313\311"
 268      B22BADFF 
 268      459AAF73 
 268      D47CCBC9 
 269 054b C5E9CDDB 		.ascii	"\305\351\315\333\206\015\325~-\335]#\352\241\221%\034"
 269      860DD57E 
 269      2DDD5D23 
 269      EAA19125 
 269      1C
 270 055c 1EAC17FB 		.ascii	"\036\254\027\373\314\346\373q\216\261-87\334\200b\273"
 270      CCE6FB71 
 270      8EB12D38 
 270      37DC8062 
 270      BB
 271 056d 4FE37E60 		.ascii	"O\343~`\363\240eW\272~\271\026,\245\361\320\340\032"
 271      F3A06557 
 271      BA7EB916 
 271      2CA5F1D0 
 271      E01A
 272 057f 318F52C4 		.ascii	"1\217R\304\356\2230\023\"`/;\001\3130\023\332c\004{"
 272      EE933013 
 272      22602F3B 
 272      01CB3013 
ARM GAS  /tmp/ccjSXgYT.s 			page 21


 272      DA63047B 
 273 0593 C53518CD 		.ascii	"\3055\030\315Y\273\021l\255\0230\253|X\005\3530\202"
 273      59BB116C 
 273      AD1330AB 
 273      7C5805EB 
 273      3082
 274 05a5 35B906A3 		.ascii	"5\271\006\2439;f\004\333\350\004l\270=g'\214`[\\\203"
 274      393B6604 
 274      DBE8046C 
 274      B83D6727 
 274      8C605B5C 
 275 05ba D19C751A 		.ascii	"\321\234u\032\301\266;\001\313\263\340L\337\354R\250"
 275      C1B63B01 
 275      CBB3E04C 
 275      DFEC52A8 
 276 05ca 459CEEE7 		.ascii	"E\234\356\347h\372\352\323\006\004\227>\315\2440\336"
 276      68FAEAD3 
 276      0604973E 
 276      CDA430DE 
 277 05da F0B91DC1 		.ascii	"\360\271\035\301(\271q8\033\265S\355\0277!\221\332\347"
 277      28B97138 
 277      1BB553ED 
 277      17372191 
 277      DAE7
 278 05ec 043183C3 		.ascii	"\0041\203\303\324\036\002M\022\260\003\256\301h\263"
 278      D41E024D 
 278      12B003AE 
 278      C168B3
 279 05fb ACC260D4 		.ascii	"\254\302`\324P\243\006\215d\2432|ij\260\363kXxBBF\266"
 279      50A3068D 
 279      64A3327C 
 279      696AB0F3 
 279      6B587842 
 280 0612 5A59E6F4 		.ascii	"ZY\346\364\233\345\341\303\255\357\345\331-\034\236"
 280      9BE5E1C3 
 280      ADEFE5D9 
 280      2D1C9E
 281 0621 D5FD9E0B 		.ascii	"\325\375\236\013\350\\\220c\355\210L+\337\361Y-\275"
 281      E85C9063 
 281      ED884C2B 
 281      DFF1592D 
 281      BD
 282 0632 0140E6AA 		.ascii	"\001@\346\252v\236\320l\364\204\016'j\312\320\025\332"
 282      769ED06C 
 282      F4840E27 
 282      6ACAD015 
 282      DA
 283 0643 EDD4E468 		.ascii	"\355\324\344h\375\000\215\316w\257\203\321\271\005\202"
 283      FD008DCE 
 283      77AF83D1 
 283      B90582
 284 0652 EBC9B4D1 		.ascii	"\353\311\264\321\371Mspu8\035\267\023~\207Q\370\017"
 284      F94D7370 
 284      75381DB7 
 284      137E8751 
 284      F80F
 285 0664 5D0B6F76 		.ascii	"]\013ov\341\256\373Z^\227\345\271\331\006sg\364\015"
ARM GAS  /tmp/ccjSXgYT.s 			page 22


 285      E1AEFB5A 
 285      5E97E5B9 
 285      D9067367 
 285      F40D
 286 0676 BC3AB987 		.ascii	"\274:\271\207\254\276\354\001\211/\232$v\016t\275f\303"
 286      ACBEEC01 
 286      892F9A24 
 286      760E74BD 
 286      66C3
 287 0688 2800DA07 		.ascii	"(\000\332\007@\237\017\030\250\247n\325x\000z\013\200"
 287      409F0F18 
 287      A8A76ED5 
 287      78007A0B 
 287      80
 288 0699 7AD36C60 		.ascii	"z\323l`6\001K\233\200\015\244\016\322VOn\343\275\034"
 288      36014B9B 
 288      800DA40E 
 288      D2564F6E 
 288      E3BD1C
 289 06ac 33CF6FB2 		.ascii	"3\317o\262\027%N\206\321Q\267Wk\320\265\275\252U{\035"
 289      17254E86 
 289      D151B757 
 289      6BD0B5BD 
 289      AA557B1D 
 290 06c0 04EDD4F8 		.ascii	"\004\355\324\370\315\332\331\307\271S\017J!]\213\341"
 290      CDDAD9C7 
 290      B9530F4A 
 290      215D8BE1 
 291 06d0 37897169 		.ascii	"7\211qi\000b\354%b\034\0061\226\336\0061\032\\\2131"
 291      0062EC25 
 291      621C0631 
 291      96DE0631 
 291      1A5C8B31 
 292 06e4 D42006CC 		.ascii	"\324 \006\314g&\221\024\366kL]\346\024\026\363s\224"
 292      67269114 
 292      F66B4C5D 
 292      E61416F3 
 292      7394
 293 06f6 FB1A953F 		.ascii	"\373\032\225?*\307\017\263y\344r\377\263\210\356\303"
 293      2AC70FB3 
 293      79E472FF 
 293      B388EEC3 
 294 0706 86A708B2 		.ascii	"\206\247\010\262\263\247\010z\342\177\002T\326\350\267"
 294      B3A7087A 
 294      E27F0254 
 294      D6E8B7
 295 0715 E8604EA0 		.ascii	"\350`N\240\032\256\267\335\201\0276O\001\314\372\201"
 295      1AAEB7DD 
 295      8117364F 
 295      01CCFA81 
 296 0725 C2247B3A 		.ascii	"\302${:\266\223~\372>\000mI3a\266\311\202\331\264\005"
 296      B6937EFA 
 296      3E006D49 
 296      3361B6C9 
 296      82D9B405 
 297 0739 D1296EE9 		.ascii	"\321)n\351*\214\220\277U\257\340\023\037\363\017\257"
 297      2A8C90BF 
ARM GAS  /tmp/ccjSXgYT.s 			page 23


 297      55AFE013 
 297      1FF30FAF 
 298 0749 87D20760 		.ascii	"\207\322\007`\037[o i5\366\036\345_[\324\364\201\030"
 298      1F5B6F20 
 298      6935F61E 
 298      E55F5BD4 
 298      F48118
 299 075c E8AD5B42 		.ascii	"\350\255[B\254R\352\237]\251>\260\3701N \336\271E\270"
 299      AC52EA9F 
 299      5DA93EB0 
 299      F8314E20 
 299      DEB945B8 
 300 0770 DDEF9A23 		.ascii	"\335\357\232#\243i\342\322g\263\354\257/$$\2077Al\274"
 300      A369E2D2 
 300      67B3ECAF 
 300      2F242487 
 300      37416CBC 
 301 0784 00A9E1B1 		.ascii	"\000\251\341\2614{\337dMS\227\233,5w\261\353I\347\215"
 301      347BDF64 
 301      4D53979B 
 301      2C3577B1 
 301      EB49E78D 
 302 0798 31F02FB7 		.ascii	"1\360/\267l\207\316\007i;|z\213\212\273\366\254\263"
 302      6C87CE07 
 302      693B7C7A 
 302      8B8ABBF6 
 302      ACB3
 303 07aa 758B5F69 		.ascii	"u\213_iX\271 H\0174\373\231y\226\371\374\272s\325\352"
 303      58B92048 
 303      0F34FB99 
 303      7996F9FC 
 303      BA73D5EA 
 304 07be 238ACF1C 		.ascii	"#\212\317\034-8\234>\037\220\353r\311r\003\317Vs"
 304      2D389C3E 
 304      1F90EB72 
 304      C97203CF 
 304      5673
 305 07d0 9C8A6A95 		.ascii	"\234\212j\225\306\364\253\036\345\254\320:\306\315\240"
 305      C6F4AB1E 
 305      E5ACD03A 
 305      C6CDA0
 306 07df B35F1B74 		.ascii	"\263_\033t\272A\227k\002f\243\2372\217\323\256z\335"
 306      BA41976B 
 306      0266A39F 
 306      328FD3AE 
 306      7ADD
 307 07f1 BA004B8B 		.ascii	"\272\000K\213\343t\266\250ovN\365\251\321\251^\017\334"
 307      E374B6A8 
 307      6F764EF5 
 307      A9D1A95E 
 307      0FDC
 308 0803 920BE0C4 		.ascii	"\222\013\340\304\352a27\350\317\011d}\321o(\264\274"
 308      EA613237 
 308      E8CF0964 
 308      7DD16F28 
 308      B4BC
 309 0815 155AEE35 		.ascii	"\025Z\3565{\301\227\353\017>\315\316\001\305\366:\362"
ARM GAS  /tmp/ccjSXgYT.s 			page 24


 309      7BC197EB 
 309      0F3ECDCE 
 309      01C5F63A 
 309      F2
 310 0826 821E0B2F 		.ascii	"\202\036\013/\350\035\360\242\323\265\213\007Y\200#"
 310      E81DF0A2 
 310      D3B58B07 
 310      598023
 311 0835 7393A4CE 		.ascii	"s\223\244\316\244K+\250p7\220S\271S\014\361/\345\324"
 311      A44B2BA8 
 311      70379053 
 311      B9530CF1 
 311      2FE5D4
 312 0848 791C32AB 		.ascii	"y\0342\253<x!\355B\232k\021\315\030\\+\245F\236\275"
 312      3C7821ED 
 312      429A6B11 
 312      CD185C2B 
 312      A5469EBD 
 313 085c 0193952F 		.ascii	"\001\223\225/9\374\300\351&P\331\343\340\261\323\034"
 313      39FCC0E9 
 313      2650D9E3 
 313      E0B1D31C 
 314 086c 8FC12D3E 		.ascii	"\217\301->s-w\236C\357\273f\364\276\356[\364\276\336"
 314      732D779E 
 314      43EFBB66 
 314      F4BEEE5B 
 314      F4BEDE
 315 087f 0B5D9396 		.ascii	"\013]\223\226\311\312<\217\233w\016\336\326\227\011"
 315      C9CA3C8F 
 315      9B770EDE 
 315      D69709
 316 088e 3D9045A7 		.ascii	"=\220E\247iw@\313\204\325\203\006(\212\276q\314\302"
 316      697740CB 
 316      84D58306 
 316      288ABE71 
 316      CCC2
 317 08a0 410E6639 		.ascii	"A\016f9y\026Z\327G\370\344\277;\\j\324CW\353]\255\020"
 317      79165AD7 
 317      47F8E4BF 
 317      3B5C6AD4 
 317      4357EB5D 
 318 08b6 BA7E07AE 		.ascii	"\272~\007\256\366\354 \3535\360\014K\226\253\240\312"
 318      F6EC20EB 
 318      35F00C4B 
 318      96ABA0CA 
 319 08c6 224FDAEA 		.ascii	"\"O\332\352\261\242.Y\342\"\007o\217\324h1\235\304\306"
 319      B1A22E59 
 319      E222076F 
 319      8FD46831 
 319      9DC4C6
 320 08d9 A73C9C0A 		.ascii	"\247<\234\012;P}R&L\361\307\263\317yp\007Yl\354\024"
 320      3B507D52 
 320      264CF1C7 
 320      B3CF7970 
 320      07596CEC 
 321 08ee 682074A2 		.ascii	"h t\242\373\177\266sE4\014u\320\253\337\333\314xV\003"
 321      FB7FB673 
ARM GAS  /tmp/ccjSXgYT.s 			page 25


 321      45340C75 
 321      D0ABDFDB 
 321      CC785603 
 322 0902 118567B4 		.ascii	"\021\205g\264e\225R{\024\226H\210\217\356u\302\334\030"
 322      6595527B 
 322      14964888 
 322      8FEE75C2 
 322      DC18
 323 0914 7BB0FAE7 		.ascii	"{\260\372\3474\345^\203\014\245\325\011\336x;a\253\224"
 323      34E55E83 
 323      0CA5D509 
 323      DE783B61 
 323      AB94
 324 0926 ED4757A8 		.ascii	"\355GW\250xd\251\275\3355\036\315\337\361\347\250\204"
 324      7864A9BD 
 324      DD351ECD 
 324      DFF1E7A8 
 324      84
 325 0937 EE9413B8 		.ascii	"\356\224\023\270\011\216m_e\030\034\347\301\340\370"
 325      098E6D5F 
 325      65181CE7 
 325      C1E0F8
 326 0946 140C8B4F 		.ascii	"\024\014\213O\003]\000\264\011\350\353@7\001\335\016"
 326      035D00B4 
 326      09E8EB40 
 326      3701DD0E 
 327 0956 F40DA0AD 		.ascii	"\364\015\240\255@\337\001\332\001t\241\007\323%@\227"
 327      40DF01DA 
 327      0174A107 
 327      D3254097 
 328 0966 025D0E74 		.ascii	"\002]\016t\005\320UN\006\\S\016\250\271|\357@\337\343"
 328      05D0554E 
 328      065C530E 
 328      A8B97CEF 
 328      40DFE3
 329 0979 81679DBC 		.ascii	"\201g\235\274\026\271>\030\304\272\004\313\313\244\303"
 329      16B93E18 
 329      C4BA04CB 
 329      CBA4C3
 330 0988 5EC33B0E 		.ascii	"^\303;\0167\340\035\207/\341\215\206\006\243\244Z\370"
 330      37E01D87 
 330      2FE18D86 
 330      06A3A45A 
 330      F8
 331 0999 EDCEFC66 		.ascii	"\355\316\374fE\006\021ZN\032\035\213g\377\317\214\347"
 331      4506115A 
 331      4E1A1D8B 
 331      67FFCF8C 
 331      E7
 332 09aa 2AFECADA 		.ascii	"*\376\312\332\002<y\240\262\3365\030\355\245G_\240\207"
 332      023C79A0 
 332      B2DE3518 
 332      EDA5475F 
 332      A087
 333 09bc A80D4EF0 		.ascii	"\250\015N\3602\254\202\252+\335\004l\243k0\232\271\367"
 333      32AC82AA 
 333      2BDD046C 
ARM GAS  /tmp/ccjSXgYT.s 			page 26


 333      A36B309A 
 333      B9F7
 334 09ce 4E1A8CFF 		.ascii	"N\032\214\377\347Al\377`Vk\205\326\306\3576\030\277"
 334      E7416CFF 
 334      60566B85 
 334      D6C6EF36 
 334      18BF
 335 09e0 078CFF37 		.ascii	"\007\214\37770\376K\340\354/\003]\003\264\021\350+\364"
 335      30FE4BE0 
 335      EC2F035D 
 335      03B411E8 
 335      2BF4
 336 09f2 D0FAC920 		.ascii	"\320\372\311 \355\301\264\332\030\375\374\267\377\324"
 336      EDC1B4DA 
 336      18FDFCB7 
 336      FFD4
 337 0a00 7C99FD23 		.ascii	"|\231\375#i\253\344\011E\265K#:!\366\254\203\250\366"
 337      69ABE409 
 337      45B54B23 
 337      3A21F6AC 
 337      83A8F6
 338 0a13 B97554CB 		.ascii	"\271uT\313\224\235\316\317\301U6\244G\265\256\377$Q"
 338      949DCECF 
 338      C15536A4 
 338      47B5AEFF 
 338      2451
 339 0a25 6D83A3A8 		.ascii	"m\203\243\250vf\211\303'\273z\363_7\212\321:\202<\240"
 339      766689C3 
 339      27BB7AF3 
 339      5F378AD1 
 339      3A823CA0 
 340 0a39 DE0C62D4 		.ascii	"\336\014b\324\347\364\377h\227\302\341\230\215Pe\253"
 340      E7F4FF68 
 340      97C2E198 
 340      8D5065AB 
 341 0a49 85183388 		.ascii	"\205\0303\210\030[\035\211\261r\211\346\371\315\236"
 341      185B1D89 
 341      B17289E6 
 341      F9CD9E
 342 0a58 5470DEEA 		.ascii	"Tp\336\352>8kK\366'\300Y\011\330j\327`\264\3477\237"
 342      3E386B4B 
 342      F627C059 
 342      09D86AD7 
 342      60B4E737 
 343 0a6d 70FBDEE9 		.ascii	"p\373\336\351\242\217:_Qg\232\273 \276*&\315\0160\007"
 343      A28F3A5F 
 343      51679ABB 
 343      20BE2A26 
 343      CD0E3007 
 344 0a81 6CD3B53D 		.ascii	"l\323\265=\240\331\002^\365|\274%}2\345\374\355\233"
 344      A0D9025E 
 344      F57CBC25 
 344      7D32E5FC 
 344      ED9B
 345 0a93 7D1ED3DB 		.ascii	"}\036\323\3337\360\210\324\360\262MF\245$\277\365\032"
 345      37F088D4 
 345      F0B24D46 
ARM GAS  /tmp/ccjSXgYT.s 			page 27


 345      A524BFF5 
 345      1A
 346 0aa4 F884E2C1 		.ascii	"\370\204\342\301cH\273I'\2465\021\334\224\035\033o{"
 346      6348BB49 
 346      27A63511 
 346      DC941D1B 
 346      6F7B
 347 0ab6 726C5C2A 		.ascii	"rl\\*\255\014\005{\327J\243\314\217\2275\036\327\236"
 347      AD0C057B 
 347      D74AA3CC 
 347      8F97351E 
 347      D79E
 348 0ac8 4E41F670 		.ascii	"NA\366p\326\011\240\363\267\373\266\0322\307\355\220"
 348      D609A0F3 
 348      B7FBB61A 
 348      32C7ED90 
 349 0ad8 39EE8041 		.ascii	"9\356\200A\256\005\350N\240{\201\036p\022\365\233=\206"
 349      AE05E84E 
 349      A07B811E 
 349      7012F59B 
 349      3D86
 350 0aea B7FB483F 		.ascii	"\267\373H?\3320\340~t)\275\037\271\001\243\024\251\364"
 350      DA30E07E 
 350      7429BD1F 
 350      B901A314 
 350      A9F4
 351 0afc 9CD0622F 		.ascii	"\234\320b/\356\024<\273\307\011^\206\271\357b\022\221"
 351      EE143CBB 
 351      C7095E86 
 351      B9EF6212 
 351      91
 352 0b0d 480FFB50 		.ascii	"H\017\373P\037O]Z\331\332(\033\014F\331\010F\331\004"
 352      1F4F5D5A 
 352      D9DA281B 
 352      0C46D908 
 352      46D904
 353 0b20 263808B4 		.ascii	"&8\010\264\015\350!:\012}\234c\212B\364\220o\025\024"
 353      0DE8213A 
 353      0A7D9C63 
 353      8A42F490 
 353      6F1514
 354 0b33 8DFA9195 		.ascii	"\215\372\221\225M\247\221<\316'V\235w\223\211\325\273"
 354      4DA7913C 
 354      CE27569D 
 354      779389D5 
 354      BB
 355 0b44 2404598F 		.ascii	"$\004Y\217\335\231&Vsrq\225\216\364\261;\031\"cwG\377"
 355      DD992656 
 355      73727195 
 355      8EF4B13B 
 355      19226377 
 356 0b5a 63F7BCB9 		.ascii	"c\367\274\271\312\262\345\257\244B\320\\\275\377nF\371"
 356      CAB2E5AF 
 356      A442D05C 
 356      BDFF6E46 
 356      F9
 357 0b6b 95AD8F1A 		.ascii	"\225\255\217\032\347\350\213t6\\\372\250\265\345:\014"
ARM GAS  /tmp/ccjSXgYT.s 			page 28


 357      E7E88B74 
 357      365CFAA8 
 357      B5E53A0C 
 358 0b7b 963B0696 		.ascii	"\226;\006\226;N\333\351\305\\\223\235\372\235\210\321"
 358      3B4EDBE9 
 358      C55C939D 
 358      FA9D88D1 
 359 0b8b 666A39AD 		.ascii	"fj9\255M\304\310\013Q\365f<\372\365'\365\220\232<1\024"
 359      4DC4C80B 
 359      51F5663C 
 359      FAF527F5 
 359      909A3C31 
 360 0ba0 60871BBB 		.ascii	"`\207\033\273\367}\361-\374\004\341}0\372\272\\\227"
 360      F77DF12D 
 360      FC04E17D 
 360      30FABA5C 
 360      97
 361 0bb1 46C70AFA 		.ascii	"F\307\012\372\300dp\345\262\220G\256\366\037\247\257"
 361      C06470E5 
 361      B29047AE 
 361      F61FA7AF 
 362 0bc1 9D5757AF 		.ascii	"\235WW\257\310\273\367\273\240\375\017n\227\351>0\230"
 362      C8BBF7BB 
 362      A0FD0F6E 
 362      97E93E30 
 362      98
 363 0bd2 2E09A63B 		.ascii	".\011\246;G\233\356\017NLWna:\353\366>1\244\235\237"
 363      479BEE0F 
 363      4E4C576E 
 363      613AEBF6 
 363      3E31A49D 
 364 0be7 41DAF957 		.ascii	"A\332\371WH;\327B\367>\014\364\024\320\3234\037o\353"
 364      483BD742 
 364      F73E0CF4 
 364      14D0D334 
 364      1F6FEB
 365 0bfa 7A579BA1 		.ascii	"zW\233\241_\225\304\330\177\366\350ooB\33607c\336\200"
 365      5F95C4D8 
 365      7FF6E86F 
 365      6F42DE30 
 365      3763DE80 
 366 0c0e 861768BF 		.ascii	"\206\027h\277\377$\300\352m\307,\015\352\277S~\322|"
 366      FF24C0EA 
 366      6DC72C0D 
 366      EABF537E 
 366      D27C
 367 0c20 E1DCC76C 		.ascii	"\341\334\307l3yh\000\276r\335\332W\354\2010W\027\315"
 367      33796800 
 367      BE72DDDA 
 367      57EC8130 
 367      5717CD
 368 0c33 BEF2426F 		.ascii	"\276\362Bo+\013O\236.:\032\033^\354m\347`\375\214g\317"
 368      2B0B4F9E 
 368      2E3A1A1B 
 368      5EEC6DE7 
 368      60FD8C67 
 369 0c48 C3303DEF 		.ascii	"\3030=\357+\254\012;\200\200\204\000W\340\366\261\003"
ARM GAS  /tmp/ccjSXgYT.s 			page 29


 369      2BAC0A3B 
 369      80808400 
 369      57E0F6B1 
 369      03
 370 0c59 12B8675C 		.ascii	"\022\270g\\\303\345Qp\253h\270Z'pv\021\011\301m\242"
 370      C3E55170 
 370      AB68B85A 
 370      27707611 
 370      09C16DA2 
 371 0c6d E15E700D 		.ascii	"\341^p\015Gs\267\231\206[\345\004\316n:\210\340~O\303"
 371      4773B799 
 371      865BE504 
 371      CE6E3A88 
 371      E07E4FC3 
 372 0c81 BDEA1A8E 		.ascii	"\275\352\032\216\346n\033\015\367\272\0238\273\327G"
 372      E66E1B0D 
 372      F7BA1338 
 372      BBD747
 373 0c90 16CF5576 		.ascii	"\026\317Uv\0208\275\263(\267\241\263p\3146\327\\\321"
 373      1038BDB3 
 373      28B7A1B3 
 373      70CC36D7 
 373      5CD1
 374 0ca2 42EEA485 		.ascii	"B\356\244\205\334\345\004.\317\336\004\273i\270}\256"
 374      DCE5042E 
 374      CFDE04BB 
 374      69B87DAE 
 375 0cb2 E168EEF6 		.ascii	"\341h\356\366\320p\007\234\300eXbl'p_ej\265(B\346)v"
 375      D070079C 
 375      C0655862 
 375      6C27705F 
 375      656AB528 
 376 0cca 9164AEF7 		.ascii	"\221d\256\367\253pD=\325\202;\354j\314\363\246^S\312"
 376      AB70443D 
 376      D5823BEC 
 376      6ACCF3A6 
 376      5E53CA
 377 0cdd 0D180FC8 		.ascii	"\015\030\017\310\3061G\\\313@\253\244\203V\311i'pv\261"
 377      C631475C 
 377      CB40ABA4 
 377      8356C969 
 377      277076B1 
 378 0cf1 19C11DA3 		.ascii	"\031\301\035\243\341\316\271\206\243\271;A\303\375\305"
 378      E1CEB986 
 378      A3B93B41 
 378      C3FDC5
 379 0d00 099CED32 		.ascii	"\011\234\3552\251\254tjp\330\022\034s\3315\034\315\335"
 379      A9AC746A 
 379      70D8121C 
 379      73D9351C 
 379      CDDD
 380 0d12 7B3477D7 		.ascii	"{4w\327\235\300M\260\327\335\3734\334\234\301n\341h"
 380      9DC04DB0 
 380      D7DDFB34 
 380      DC9CC16E 
 380      E168
 381 0d24 EECED270 		.ascii	"\356\316\322pO;\201{\330^w\227h\335-r\015Gs\3679\315"
ARM GAS  /tmp/ccjSXgYT.s 			page 30


 381      4F3B817B 
 381      D85E7797 
 381      68DD2D72 
 381      0D4773F7 
 382 0d3a DD8B4EE0 		.ascii	"\335\213N\340\246\332\353\356\013\032n\265k8\232\273"
 382      A6DAEBEE 
 382      0B1A6EB5 
 382      6B389ABB 
 383 0d4a BF99867E 		.ascii	"\277\231\206~'p3,\270\263\332\214Y\002\317~\004y\333"
 383      2770332C 
 383      B8B3DA8C 
 383      5902CF7E 
 383      0479DB
 384 0d5d C790357D 		.ascii	"\307\2205}\012\364\257@/\003\355\006\332\003\364\012"
 384      0AF4AF40 
 384      2F03ED06 
 384      DA03F40A 
 385 0d6d D06B406F 		.ascii	"\320k@o\000\275\011T\366bZ\005\264\032\350|\2405@\027"
 385      00BD0954 
 385      F6625A05 
 385      B41AE87C 
 385      A0354017 
 386 0d81 00FD1DD0 		.ascii	"\000\375\035\320Z\240u@\027\003]\002t)\320\345^C\316"
 386      5AA07540 
 386      17035D02 
 386      7429D0E5 
 386      5E43CE
 387 0d94 665A5CB8 		.ascii	"fZ\\\270`#:\226f\205W\237\234\340O\225\224K\311eW\332"
 387      60233A96 
 387      6685579F 
 387      9CE04F95 
 387      944BC965 
 388 0daa 77B0971B 		.ascii	"w\260\227\033\253e\374\255\327o\353\225\241\246\005"
 388      AB65FCAD 
 388      D76FEB95 
 388      A1A605
 389 0db9 93A60C63 		.ascii	"\223\246\014c\344*o\372wT\315\203\351TL\375\"\250J\336"
 389      E42A6FFA 
 389      7754CD83 
 389      E9544CFD 
 389      22A84ADE 
 390 0dcd FC9A1C20 		.ascii	"\374\232\034 p\270\302J\257\365wD*^\275\227\372>\310"
 390      70B8C24A 
 390      AFF57744 
 390      2A5EBD97 
 390      FA3EC8
 391 0de0 24E1459B 		.ascii	"$\341E\233$\031\276\301K\223\260\361\305%\372\307\346"
 391      2419BEC1 
 391      4B93B0F1 
 391      C525FAC7 
 391      E6
 392 0df1 235D7C8D 		.ascii	"#]|\215\365\2627\323\327XD\220\264s\323\327Y\207L\332"
 392      F5B237D3 
 392      D7584490 
 392      B473D3D7 
 392      59874CDA 
 393 0e05 50BFC73A 		.ascii	"P\277\307:b\376F\356%\033u\320\337c\235inc\345a\332"
ARM GAS  /tmp/ccjSXgYT.s 			page 31


 393      62FE46EE 
 393      251B75D0 
 393      DF639D69 
 393      6E63E561 
 394 0e1a 04E52860 		.ascii	"\004\345(`\333\327\004\216\324\232gq\203M\360\256\333"
 394      DBD7048E 
 394      D49A6771 
 394      834DF0AE 
 394      DB
 395 0e2b 879ECC0D 		.ascii	"\207\236\314\015\252\202\250\337q\235n\236\323\300\312"
 395      AA82A8DF 
 395      719D6E9E 
 395      D3C0CA
 396 0e3a D9FA975C 		.ascii	"\331\372\227\\\270\036\325?^\315h)\374\335\240\235~"
 396      B81ED53F 
 396      5ECD6829 
 396      FCDDA09D 
 396      7E
 397 0e4b 37A42CC5 		.ascii	"7\244,\305\214\270\357\276`Ai\244(2\2450\030O\004E)"
 397      8CB8EFBE 
 397      604169A4 
 397      2832A530 
 397      184F0445 
 398 0e60 9810C3C1 		.ascii	"\230\020\303\301p\251\024\275/\314\344\245\025Fb\341"
 398      70A914BD 
 398      2FCCE4A5 
 398      154662E1 
 399 0e70 B28A6281 		.ascii	"\262\212b\201\334P\312\014\223\"Q!\024\025\370D\205"
 399      DC50CA0C 
 399      93225121 
 399      1415F844 
 399      85
 400 0e81 28448598 		.ascii	"(D\205\230\024\222\262\177\366\350cy\005\314\277\320"
 400      1492B27F 
 400      F6E86379 
 400      05CCBFD0 
 401 0e91 55C3F168 		.ascii	"U\303\361h4\036\013\226\307E)\021\374\311\264\311\005"
 401      341E0B96 
 401      C7452911 
 401      FCC9B4C9 
 401      05
 402 0ea2 9367E36B 		.ascii	"\223g\343k\345\2212AL\004\177VP\200\021\237,\027\022"
 402      E5913241 
 402      4C047F56 
 402      5080119F 
 402      2C1712
 403 0eb5 08D4274A 		.ascii	"\010\324'Ja\214\224\010\306f\302\376\203`i<*\004E!!"
 403      618C9408 
 403      C666C2FE 
 403      8360693C 
 403      2A044521 
 404 0eca F062B834 		.ascii	"\360b\2704X\312\213\305\225\274(\004y1\232\037,\011"
 404      58CA8BC5 
 404      95BC2804 
 404      79319A1F 
 404      2C09
 405 0edc 8747A383 		.ascii	"\207G\243\203\321B\264H(.\026\212\365\013\261xL\030"
ARM GAS  /tmp/ccjSXgYT.s 			page 32


 405      D142B448 
 405      282E168A 
 405      F50BB178 
 405      4C18
 406 0eee 2DF04591 		.ascii	"-\360E\221\321\343B\343G\347\217\031;\3567\371A\252"
 406      D1E342E3 
 406      47E78F19 
 406      3BEE37F9 
 406      41AA
 407 0f00 40172721 		.ascii	"@\027'!\025Gb\022j\333_\201\376\357\317\017Is\331\177"
 407      15476212 
 407      6ADB5F81 
 407      FEEFCF0F 
 407      4973D97F 
 408 0f14 5CEB513E 		.ascii	"\\\353Q>\\\032\211\011\301P\2610\223\257(C\242\253\232"
 408      5C1A8909 
 408      C150B130 
 408      93AF2843 
 408      A2AB9A
 409 0f27 18140A69 		.ascii	"\030\024\012i\374x\213\204\204\224U\031\027\023\222"
 409      FC788B84 
 409      84945519 
 409      171392
 410 0f36 B78C4F48 		.ascii	"\267\214OH\331\025\240#6\346\027%0\202\004\254\377p"
 410      D915A023 
 410      36E61725 
 410      308204AC 
 410      FF70
 411 0f48 5C48526B 		.ascii	"\\HRk\301a\270\"ZQ\306K\221Y\302\340p\351\364\311S\212"
 411      C161B822 
 411      5A51C64B 
 411      9159C2E0 
 411      70E9F4C9 
 412 0f5e 7E2D84A5 		.ascii	"~-\204\245I\261\210\344\221\242\345w\340K\205\022/J"
 412      49B188E4 
 412      91A2E577 
 412      E04B8512 
 412      2F4A
 413 0f70 9353169C 		.ascii	"\223S\026\234\341\217\305#\2612\304\317\327Iq\274\234"
 413      E18FC523 
 413      B132C4CF 
 413      D74971BC 
 413      9C
 414 0f81 2A0D49D1 		.ascii	"*\015I\321P\004\001|\003\227\026\224\362\221\230\241"
 414      5004017C 
 414      03971694 
 414      F29198A1 
 415 0f91 787A7C86 		.ascii	"xz|\206\027\001\217\305$\377\236\014\336\223\010"
 415      17018FC5 
 415      24FF9E0C 
 415      DE9308
 416 0fa0 97162301 		.ascii	"\227\026#\001\277\227\351\226'\023\232\036r\302\245"
 416      BF97E996 
 416      27139A1E 
 416      72C2A5
 417 0faf 217C2A44 		.ascii	"!|*DCR@?\316\025\005\276\370\311PY$\201\024\361\025"
 417      4352403F 
ARM GAS  /tmp/ccjSXgYT.s 			page 33


 417      CE1505BE 
 417      F8C95059 
 417      248114F1 
 418 0fc4 7439753E 		.ascii	"t9u>D*\305'\211\320o*\204\012\244\233\241\250\224\272"
 418      442AC527 
 418      89D06F2A 
 418      840AA49B 
 418      A1A894BA 
 419 0fd8 E4276704 		.ascii	"\344'g\004\216\034gA\201O*\027#q\244o\374\227\213\375"
 419      8E1C6741 
 419      814F2A17 
 419      2371A46F 
 419      FC978BFD 
 420 0fec 35148EC7 		.ascii	"5\024\216\307$a\2664\312\201G\227\206\343\242\200\031"
 420      2461B634 
 420      CA814797 
 420      86E3A280 
 420      19
 421 0ffd 868AC8   		.ascii	"\206\212\310"
 422 1000 08616976 		.ascii	"\010aiv\320i\275\320\254\037\341>\345\027\205\022\344"
 422      D069BDD0 
 422      AC1FE13E 
 422      E5178512 
 422      E4
 423 1011 27218913 		.ascii	"'!\211\023\307q\342\0178\361\207\234\370#N\034\317\211"
 423      C771E20F 
 423      38F1879C 
 423      F8234E1C 
 423      CF89
 424 1023 0F78C4B1 		.ascii	"\017x\304\261c\320>\226+\023\271D\271\007\201g\305\204"
 424      63D03E96 
 424      2B13B944 
 424      B9078167 
 424      C584
 425 1035 4A41CC8A 		.ascii	"JA\314\212\227\025\013\2427\214\\\323\033\343\243\302"
 425      97150BA2 
 425      378C5CD3 
 425      1BE3A3C2 
 426 1045 A084F404 		.ascii	"\240\204\364\004_\026)\211\241\356X\311\027\361\011"
 426      5F162989 
 426      A1EE58C9 
 426      17F109
 427 1054 246F42E2 		.ascii	"$oB\342%\244\011\037v\215\361Hn\342$\350(\013J|R4^\214"
 427      25A4091F 
 427      768DF148 
 427      6EE224E8 
 427      280B4A7C 
 428 106c CAB36696 		.ascii	"\312\263f\226\361%\011\237$\0123\023H\013\370/+\232"
 428      F125099F 
 428      240A3313 
 428      480BF82F 
 428      2B9A
 429 107e 28411555 		.ascii	"(A\025UGD\025\325\243l\261\370IT\344\027fG\2440\252"
 429      474415D5 
 429      A36CB1F8 
 429      4954E417 
 429      6647A430 
ARM GAS  /tmp/ccjSXgYT.s 			page 34


 430 1093 9C5D29C5 		.ascii	"\234])\305\213~]>LU-\252*\210B,\214A+%I,\367%\220\207"
 430      8B7E5D3E 
 430      4C552DAA 
 430      2A88422C 
 430      8C412B25 
 431 10ad A00AB9D8 		.ascii	"\240\012\271\330\202B\224//EB\217\314\344\001\002\326"
 431      8242942F 
 431      2F45428F 
 431      CCE40102 
 431      D6
 432 10be 471638BA 		.ascii	"G\0268\272\007Q\324\000\272T\356G\365\243\025\310$\231"
 432      0751D400 
 432      BA54EE47 
 432      F5A315C8 
 432      2499
 433 10d0 EA46A5D9 		.ascii	"\352F\245\331\270n\2742&\210>\270\033I\023CfD \250\254"
 433      B86EBC32 
 433      26883EB8 
 433      1B491343 
 433      664420A8 
 434 10e5 3C479885 		.ascii	"<G\230\205\271\341\023O A\204J|\300V\014\326|\204\370"
 434      B9E1134F 
 434      2041844A 
 434      7CC0560C 
 434      D67C84F8 
 435 10f9 D41083D7 		.ascii	"\324\020\203\327\340+\276J>\"Eb%~$\004\361\"\241\\\210"
 435      E02BBE4A 
 435      3E224562 
 435      257E2404 
 435      F122A15C 
 436 110e A191A3C4 		.ascii	"\241\221\243\304\207 \361\035\310v|\031\366\234\254"
 436      8720F11D 
 436      C8767C19 
 436      F69CAC
 437 111d 68793C5E 		.ascii	"hy<^\206\234H\230\345\013W\210H\017R\226\210\357\270"
 437      869C4898 
 437      E50B5788 
 437      480F5296 
 437      88EFB8
 438 1130 63564494 		.ascii	"cVD\224*\370\262\020\356\264\242\326\322\235\250%\213"
 438      2AF8B210 
 438      EEB4A2D6 
 438      D29DA825 
 438      8B
 439 1141 8221D435 		.ascii	"\202!\3245\342\306\324\245\000\356\011\320\373\263\212"
 439      E2C6D4A5 
 439      00EE09D0 
 439      FBB38A
 440 1150 853289F7 		.ascii	"\2052\211\367\317\222fV\304\302HT\374\347)\347E?\036"
 440      CF926656 
 440      C4C24854 
 440      FCE729E7 
 440      453F1E
 441 1163 2CF02DD9 		.ascii	",\360-\331\263$\0149X\355G\305BQE\011\021\321x%P\316"
 441      B3240C39 
 441      58ED47C5 
 441      42514509 
ARM GAS  /tmp/ccjSXgYT.s 			page 35


 441      11D17825 
 442 1179 C722E110 		.ascii	"\307\"\341\020\022\320S\\T2(\212\2727\321\300P\324\355"
 442      12D0535C 
 442      5432288A 
 442      BA37D1C0 
 442      50D4ED
 443 118c C3C8A78A 		.ascii	"\303\310\247\212D4\232\304\261c\305g\316L\010\022'E"
 443      44349AC4 
 443      B163C567 
 443      CE4C0812 
 443      2745
 444 119e B97069BE 		.ascii	"\271pi\276\245\217#m\007\013&\027N*L\331\005\273y8:"
 444      A58F236D 
 444      070B2617 
 444      4E2A4CD9 
 444      05BB7938 
 445 11b3 0EBBF943 		.ascii	"\016\273\371C\277\230\036\232\216:\270\267`\372\264"
 445      BF981E9A 
 445      8E3AB8B7 
 445      60FAB4
 446 11c2 47B20B1E 		.ascii	"G\262\013\036/(xtzv\301\324I\370o\342\014|\346/|d\342"
 446      2F287874 
 446      7A76C1D4 
 446      49F86FE2 
 446      0C7CE62F 
 447 11d9 C4A9F8FC 		.ascii	"\304\251\370\374\221\302\307\320\237\357\247S\036y\010"
 447      91C2C7D0 
 447      9FEFA753 
 447      1E7908
 448 11e8 FD7BA716 		.ascii	"\375{\247\026\024N\313*\2302y\352\230\254\311?)\374"
 448      144ECB2A 
 448      983279EA 
 448      98ACC93F 
 448      29FC
 449 11fa 8F31819F 		.ascii	"\2171\201\237>\366h\301\364IS\036\035\023\2306\261p"
 449      3EF668C1 
 449      F449531E 
 449      1D139836 
 449      B170
 450 120c E2B49F4F 		.ascii	"\342\264\237O|h\014\224\217\205\362\261z\371X\275|,"
 450      7C680C94 
 450      8F85F2B1 
 450      7AF958BD 
 450      7C2C
 451 121e 94E74379 		.ascii	"\224\347Cy\276^\236\257\227\347C\371\375P~\277^~\377"
 451      BE5E9EAF 
 451      97E743F9 
 451      FD507EBF 
 451      5E7EFF
 452 1231 5DD0B1D1 		.ascii	"]\320\261\321\257D\300\003C\005\032\031\304\320,\276"
 452      AF44C003 
 452      43051A19 
 452      C4D02CBE 
 453 1241 0C0F1CD1 		.ascii	"\014\017\034\321P\002\015\226\236X\274\362\377\001\255"
 453      50020D96 
 453      9E58BCF2 
 453      FF01AD
ARM GAS  /tmp/ccjSXgYT.s 			page 36


 454 1250 89A4F4   		.ascii	"\211\244\364"
 455              		.text
 456              		.section	.gnu.lto_.symtab.adbdaccb2a73384b,"",%progbits
 457 0000 6368544D 		.ascii	"chTMObjectInit\000\000\000\000\000\000\000\000\000\000"
 457      4F626A65 
 457      6374496E 
 457      69740000 
 457      00000000 
 458 0018 0000A100 		.ascii	"\000\000\241\000\000\000chTMStartMeasurementX\000\000"
 458      00006368 
 458      544D5374 
 458      6172744D 
 458      65617375 
 459 0035 00000000 		.ascii	"\000\000\000\000\000\000\000\000\000\000\316\000\000"
 459      00000000 
 459      0000CE00 
 459      00
 460 0042 00636854 		.ascii	"\000chTMStopMeasurementX\000\000\000\000\000\000\000"
 460      4D53746F 
 460      704D6561 
 460      73757265 
 460      6D656E74 
 461 005e 00000000 		.ascii	"\000\000\000\000\000\324\000\000\000_tm_init\000\000"
 461      00D40000 
 461      005F746D 
 461      5F696E69 
 461      740000
 462 0071 00000000 		.ascii	"\000\000\000\000\000\000\000\000\000\000\331\000\000"
 462      00000000 
 462      0000D900 
 462      00
 463 007e 00636854 		.ascii	"\000chTMChainMeasurementToX\000\000\000\000\000\000"
 463      4D436861 
 463      696E4D65 
 463      61737572 
 463      656D656E 
 464 009c 00000000 		.ascii	"\000\000\000\000\000\000\335\000\000\000ch\000\000\002"
 464      0000DD00 
 464      00006368 
 464      000002
 465 00ab 00000000 		.ascii	"\000\000\000\000\000\000\000\000\000\350\000\000\000"
 465      00000000 
 465      00E80000 
 465      00
 466              		.text
 467              		.section	.gnu.lto_.opts,"",%progbits
 468 0000 272D6D63 		.ascii	"'-mcpu=cortex-m4' '-mno-thumb-interwork' '-mthumb' "
 468      70753D63 
 468      6F727465 
 468      782D6D34 
 468      2720272D 
 469 0033 272D6767 		.ascii	"'-ggdb' '-O2' '-fomit-frame-pointer' '-falign-funct"
 469      64622720 
 469      272D4F32 
 469      2720272D 
 469      666F6D69 
 470 0066 696F6E73 		.ascii	"ions=16' '-ffunction-sections' '-fdata-sections' '-"
ARM GAS  /tmp/ccjSXgYT.s 			page 37


 470      3D313627 
 470      20272D66 
 470      66756E63 
 470      74696F6E 
 471 0099 666E6F2D 		.ascii	"fno-common' '-flto'\000"
 471      636F6D6D 
 471      6F6E2720 
 471      272D666C 
 471      746F2700 
 472              		.text
 473              		.cfi_sections	.debug_frame
 474              		.section	.text.chTMObjectInit,"ax",%progbits
 475              		.align	2
 476              		.p2align 4,,15
 477              		.global	chTMObjectInit
 478              		.thumb
 479              		.thumb_func
 480              		.type	chTMObjectInit, %function
 481              	chTMObjectInit:
 482              	.LFB241:
 483              		.file 1 "../ChibiOS/os/rt/src/chtm.c"
 484              		.loc 1 97 0
 485              		.cfi_startproc
 486              		@ args = 0, pretend = 0, frame = 0
 487              		@ frame_needed = 0, uses_anonymous_args = 0
 488              		@ link register save eliminated.
 489              	.LVL0:
 490              		.loc 1 103 0
 491 0000 0022     		movs	r2, #0
 492 0002 0023     		movs	r3, #0
 493 0004 C0E90423 		strd	r2, [r0, #16]
 494              		.loc 1 100 0
 495 0008 0023     		movs	r3, #0
 496 000a 4FF0FF32 		mov	r2, #-1
 497 000e 80E80C00 		stmia	r0, {r2, r3}
 498              		.loc 1 101 0
 499 0012 8360     		str	r3, [r0, #8]
 500              		.loc 1 102 0
 501 0014 C360     		str	r3, [r0, #12]
 502 0016 7047     		bx	lr
 503              		.cfi_endproc
 504              	.LFE241:
 505              		.size	chTMObjectInit, .-chTMObjectInit
 506 0018 AFF30080 		.section	.text.chTMStartMeasurementX,"ax",%progbits
 506      AFF30080 
 507              		.align	2
 508              		.p2align 4,,15
 509              		.global	chTMStartMeasurementX
 510              		.thumb
 511              		.thumb_func
 512              		.type	chTMStartMeasurementX, %function
 513              	chTMStartMeasurementX:
 514              	.LFB242:
 515              		.loc 1 114 0
 516              		.cfi_startproc
 517              		@ args = 0, pretend = 0, frame = 0
 518              		@ frame_needed = 0, uses_anonymous_args = 0
ARM GAS  /tmp/ccjSXgYT.s 			page 38


 519              		@ link register save eliminated.
 520              	.LVL1:
 521              	.LBB14:
 522              	.LBB15:
 523              		.file 2 "../ChibiOS/os/common/ports/ARMCMx/chcore_v7m.h"
 524              		.loc 2 708 0
 525 0000 014B     		ldr	r3, .L3
 526 0002 5B68     		ldr	r3, [r3, #4]
 527              	.LBE15:
 528              	.LBE14:
 529              		.loc 1 116 0
 530 0004 8360     		str	r3, [r0, #8]
 531 0006 7047     		bx	lr
 532              	.L4:
 533              		.align	2
 534              	.L3:
 535 0008 001000E0 		.word	-536866816
 536              		.cfi_endproc
 537              	.LFE242:
 538              		.size	chTMStartMeasurementX, .-chTMStartMeasurementX
 539 000c AFF30080 		.section	.text.chTMStopMeasurementX,"ax",%progbits
 540              		.align	2
 541              		.p2align 4,,15
 542              		.global	chTMStopMeasurementX
 543              		.thumb
 544              		.thumb_func
 545              		.type	chTMStopMeasurementX, %function
 546              	chTMStopMeasurementX:
 547              	.LFB243:
 548              		.loc 1 127 0
 549              		.cfi_startproc
 550              		@ args = 0, pretend = 0, frame = 0
 551              		@ frame_needed = 0, uses_anonymous_args = 0
 552              		@ link register save eliminated.
 553              	.LVL2:
 554              	.LBB16:
 555              	.LBB17:
 556              		.loc 2 708 0
 557 0000 0E4A     		ldr	r2, .L8
 558              	.LBE17:
 559              	.LBE16:
 560              		.loc 1 129 0
 561 0002 0F4B     		ldr	r3, .L8+4
 562              	.LBB19:
 563              	.LBB18:
 564              		.loc 2 708 0
 565 0004 5168     		ldr	r1, [r2, #4]
 566              	.LBE18:
 567              	.LBE19:
 568              		.loc 1 127 0
 569 0006 F0B4     		push	{r4, r5, r6, r7}
 570              		.cfi_def_cfa_offset 16
 571              		.cfi_offset 4, -16
 572              		.cfi_offset 5, -12
 573              		.cfi_offset 6, -8
 574              		.cfi_offset 7, -4
 575              	.LBB20:
ARM GAS  /tmp/ccjSXgYT.s 			page 39


 576              	.LBB21:
 577              		.loc 1 58 0
 578 0008 8668     		ldr	r6, [r0, #8]
 579              	.LBE21:
 580              	.LBE20:
 581              		.loc 1 129 0
 582 000a 5F6F     		ldr	r7, [r3, #116]
 583              	.LVL3:
 584              	.LBB23:
 585              	.LBB22:
 586              		.loc 1 60 0
 587 000c 4468     		ldr	r4, [r0, #4]
 588              		.loc 1 57 0
 589 000e C568     		ldr	r5, [r0, #12]
 590              		.loc 1 59 0
 591 0010 D0E90423 		ldrd	r2, [r0, #16]
 592              		.loc 1 58 0
 593 0014 891B     		subs	r1, r1, r6
 594              	.LVL4:
 595 0016 C91B     		subs	r1, r1, r7
 596              		.loc 1 59 0
 597 0018 5218     		adds	r2, r2, r1
 598 001a 43F10003 		adc	r3, r3, #0
 599 001e C0E90423 		strd	r2, [r0, #16]
 600              		.loc 1 63 0
 601 0022 0368     		ldr	r3, [r0]
 602              		.loc 1 58 0
 603 0024 8160     		str	r1, [r0, #8]
 604              		.loc 1 60 0
 605 0026 A142     		cmp	r1, r4
 606              		.loc 1 57 0
 607 0028 05F10105 		add	r5, r5, #1
 608              		.loc 1 61 0
 609 002c 88BF     		it	hi
 610 002e 4160     		strhi	r1, [r0, #4]
 611              		.loc 1 63 0
 612 0030 9942     		cmp	r1, r3
 613              		.loc 1 57 0
 614 0032 C560     		str	r5, [r0, #12]
 615              		.loc 1 64 0
 616 0034 38BF     		it	cc
 617 0036 0160     		strcc	r1, [r0]
 618              	.LBE22:
 619              	.LBE23:
 620              		.loc 1 130 0
 621 0038 F0BC     		pop	{r4, r5, r6, r7}
 622              	.LVL5:
 623 003a 7047     		bx	lr
 624              	.L9:
 625              		.align	2
 626              	.L8:
 627 003c 001000E0 		.word	-536866816
 628 0040 00000000 		.word	ch
 629              		.cfi_endproc
 630              	.LFE243:
 631              		.size	chTMStopMeasurementX, .-chTMStopMeasurementX
 632 0044 AFF30080 		.section	.text._tm_init,"ax",%progbits
ARM GAS  /tmp/ccjSXgYT.s 			page 40


 632      AFF30080 
 632      AFF30080 
 633              		.align	2
 634              		.p2align 4,,15
 635              		.global	_tm_init
 636              		.thumb
 637              		.thumb_func
 638              		.type	_tm_init, %function
 639              	_tm_init:
 640              	.LFB240:
 641              		.loc 1 77 0
 642              		.cfi_startproc
 643              		@ args = 0, pretend = 0, frame = 24
 644              		@ frame_needed = 0, uses_anonymous_args = 0
 645 0000 30B5     		push	{r4, r5, lr}
 646              		.cfi_def_cfa_offset 12
 647              		.cfi_offset 4, -12
 648              		.cfi_offset 5, -8
 649              		.cfi_offset 14, -4
 650              		.loc 1 83 0
 651 0002 0C4C     		ldr	r4, .L11
 652              		.loc 1 77 0
 653 0004 87B0     		sub	sp, sp, #28
 654              		.cfi_def_cfa_offset 40
 655              		.loc 1 83 0
 656 0006 0021     		movs	r1, #0
 657              	.LBB24:
 658              	.LBB25:
 659              		.loc 1 103 0
 660 0008 0022     		movs	r2, #0
 661 000a 0023     		movs	r3, #0
 662              	.LBE25:
 663              	.LBE24:
 664              		.loc 1 85 0
 665 000c 6846     		mov	r0, sp
 666              	.LBB28:
 667              	.LBB26:
 668              		.loc 1 99 0
 669 000e 4FF0FF35 		mov	r5, #-1
 670              		.loc 1 103 0
 671 0012 CDE90423 		strd	r2, [sp, #16]
 672              	.LBE26:
 673              	.LBE28:
 674              		.loc 1 83 0
 675 0016 6167     		str	r1, [r4, #116]
 676              	.LVL6:
 677              	.LBB29:
 678              	.LBB27:
 679              		.loc 1 100 0
 680 0018 0191     		str	r1, [sp, #4]
 681              		.loc 1 101 0
 682 001a 0291     		str	r1, [sp, #8]
 683              		.loc 1 102 0
 684 001c 0391     		str	r1, [sp, #12]
 685              		.loc 1 99 0
 686 001e 0095     		str	r5, [sp]
 687              	.LBE27:
ARM GAS  /tmp/ccjSXgYT.s 			page 41


 688              	.LBE29:
 689              		.loc 1 85 0
 690 0020 FFF7FEFF 		bl	chTMStartMeasurementX
 691              	.LVL7:
 692              		.loc 1 86 0
 693 0024 6846     		mov	r0, sp
 694 0026 FFF7FEFF 		bl	chTMStopMeasurementX
 695              	.LVL8:
 696              		.loc 1 87 0
 697 002a 029B     		ldr	r3, [sp, #8]
 698 002c 6367     		str	r3, [r4, #116]
 699              		.loc 1 88 0
 700 002e 07B0     		add	sp, sp, #28
 701              	.LVL9:
 702              		@ sp needed
 703 0030 30BD     		pop	{r4, r5, pc}
 704              	.LVL10:
 705              	.L12:
 706 0032 00BF     		.align	2
 707              	.L11:
 708 0034 00000000 		.word	ch
 709              		.cfi_endproc
 710              	.LFE240:
 711              		.size	_tm_init, .-_tm_init
 712 0038 AFF30080 		.section	.text.chTMChainMeasurementToX,"ax",%progbits
 712      AFF30080 
 713              		.align	2
 714              		.p2align 4,,15
 715              		.global	chTMChainMeasurementToX
 716              		.thumb
 717              		.thumb_func
 718              		.type	chTMChainMeasurementToX, %function
 719              	chTMChainMeasurementToX:
 720              	.LFB244:
 721              		.loc 1 145 0
 722              		.cfi_startproc
 723              		@ args = 0, pretend = 0, frame = 0
 724              		@ frame_needed = 0, uses_anonymous_args = 0
 725              		@ link register save eliminated.
 726              	.LVL11:
 727              	.LBB30:
 728              	.LBB31:
 729              		.loc 2 708 0
 730 0000 0D4B     		ldr	r3, .L16
 731              	.LBE31:
 732              	.LBE30:
 733              		.loc 1 145 0
 734 0002 70B4     		push	{r4, r5, r6}
 735              		.cfi_def_cfa_offset 12
 736              		.cfi_offset 4, -12
 737              		.cfi_offset 5, -8
 738              		.cfi_offset 6, -4
 739              	.LBB33:
 740              	.LBB32:
 741              		.loc 2 708 0
 742 0004 5C68     		ldr	r4, [r3, #4]
 743              	.LBE32:
ARM GAS  /tmp/ccjSXgYT.s 			page 42


 744              	.LBE33:
 745              		.loc 1 148 0
 746 0006 8C60     		str	r4, [r1, #8]
 747              	.LVL12:
 748              	.LBB34:
 749              	.LBB35:
 750              		.loc 1 59 0
 751 0008 D0E90423 		ldrd	r2, [r0, #16]
 752              		.loc 1 58 0
 753 000c 8168     		ldr	r1, [r0, #8]
 754              	.LVL13:
 755              		.loc 1 60 0
 756 000e 4568     		ldr	r5, [r0, #4]
 757              		.loc 1 57 0
 758 0010 C668     		ldr	r6, [r0, #12]
 759              		.loc 1 58 0
 760 0012 611A     		subs	r1, r4, r1
 761              		.loc 1 59 0
 762 0014 5218     		adds	r2, r2, r1
 763 0016 43F10003 		adc	r3, r3, #0
 764 001a C0E90423 		strd	r2, [r0, #16]
 765              		.loc 1 63 0
 766 001e 0368     		ldr	r3, [r0]
 767              		.loc 1 58 0
 768 0020 8160     		str	r1, [r0, #8]
 769              		.loc 1 60 0
 770 0022 A942     		cmp	r1, r5
 771              		.loc 1 57 0
 772 0024 06F10106 		add	r6, r6, #1
 773              		.loc 1 61 0
 774 0028 88BF     		it	hi
 775 002a 4160     		strhi	r1, [r0, #4]
 776              		.loc 1 63 0
 777 002c 9942     		cmp	r1, r3
 778              		.loc 1 57 0
 779 002e C660     		str	r6, [r0, #12]
 780              		.loc 1 64 0
 781 0030 38BF     		it	cc
 782 0032 0160     		strcc	r1, [r0]
 783              	.LBE35:
 784              	.LBE34:
 785              		.loc 1 152 0
 786 0034 70BC     		pop	{r4, r5, r6}
 787              	.LVL14:
 788 0036 7047     		bx	lr
 789              	.L17:
 790              		.align	2
 791              	.L16:
 792 0038 001000E0 		.word	-536866816
 793              		.cfi_endproc
 794              	.LFE244:
 795              		.size	chTMChainMeasurementToX, .-chTMChainMeasurementToX
 796 003c AFF30080 		.text
 797              	.Letext0:
 798              		.file 3 "/nfs/nfs5/home/research/hardware/arm2/gcc-arm-embedded/gcc-arm-none-eabi-4_8-2014q2/arm-n
 799              		.file 4 "/nfs/nfs5/home/research/hardware/arm2/gcc-arm-embedded/gcc-arm-none-eabi-4_8-2014q2/arm-n
 800              		.file 5 "../ChibiOS/os/common/ports/ARMCMx/compilers/GCC/chtypes.h"
ARM GAS  /tmp/ccjSXgYT.s 			page 43


 801              		.file 6 "../ChibiOS/os/rt/include/chsystypes.h"
 802              		.file 7 "../ChibiOS/os/rt/include/chschd.h"
 803              		.file 8 "../ChibiOS/os/common/ext/CMSIS/include/core_cm4.h"
 804              		.file 9 "../ChibiOS/os/common/ports/ARMCMx/chcore.h"
 805              		.file 10 "../ChibiOS/os/rt/include/chtm.h"
 806              		.file 11 "../ChibiOS/os/rt/include/chsem.h"
 807              		.file 12 "../ChibiOS/os/rt/include/chmtx.h"
 808              		.section	.debug_info,"",%progbits
 809              	.Ldebug_info0:
 810 0000 99090000 		.4byte	0x999
 811 0004 0400     		.2byte	0x4
 812 0006 00000000 		.4byte	.Ldebug_abbrev0
 813 000a 04       		.byte	0x4
 814 000b 01       		.uleb128 0x1
 815 000c 41040000 		.4byte	.LASF127
 816 0010 01       		.byte	0x1
 817 0011 DE000000 		.4byte	.LASF128
 818 0015 3E020000 		.4byte	.LASF129
 819 0019 68000000 		.4byte	.Ldebug_ranges0+0x68
 820 001d 00000000 		.4byte	0
 821 0021 00000000 		.4byte	.Ldebug_line0
 822 0025 02       		.uleb128 0x2
 823 0026 04       		.byte	0x4
 824 0027 05       		.byte	0x5
 825 0028 696E7400 		.ascii	"int\000"
 826 002c 03       		.uleb128 0x3
 827 002d 04       		.byte	0x4
 828 002e 07       		.byte	0x7
 829 002f A3000000 		.4byte	.LASF0
 830 0033 03       		.uleb128 0x3
 831 0034 01       		.byte	0x1
 832 0035 06       		.byte	0x6
 833 0036 DF050000 		.4byte	.LASF1
 834 003a 04       		.uleb128 0x4
 835 003b 29040000 		.4byte	.LASF5
 836 003f 03       		.byte	0x3
 837 0040 1C       		.byte	0x1c
 838 0041 45000000 		.4byte	0x45
 839 0045 03       		.uleb128 0x3
 840 0046 01       		.byte	0x1
 841 0047 08       		.byte	0x8
 842 0048 79050000 		.4byte	.LASF2
 843 004c 03       		.uleb128 0x3
 844 004d 02       		.byte	0x2
 845 004e 05       		.byte	0x5
 846 004f DB030000 		.4byte	.LASF3
 847 0053 03       		.uleb128 0x3
 848 0054 02       		.byte	0x2
 849 0055 07       		.byte	0x7
 850 0056 F1050000 		.4byte	.LASF4
 851 005a 04       		.uleb128 0x4
 852 005b CF000000 		.4byte	.LASF6
 853 005f 03       		.byte	0x3
 854 0060 37       		.byte	0x37
 855 0061 65000000 		.4byte	0x65
 856 0065 03       		.uleb128 0x3
 857 0066 04       		.byte	0x4
ARM GAS  /tmp/ccjSXgYT.s 			page 44


 858 0067 05       		.byte	0x5
 859 0068 E5030000 		.4byte	.LASF7
 860 006c 04       		.uleb128 0x4
 861 006d 87050000 		.4byte	.LASF8
 862 0071 03       		.byte	0x3
 863 0072 38       		.byte	0x38
 864 0073 77000000 		.4byte	0x77
 865 0077 03       		.uleb128 0x3
 866 0078 04       		.byte	0x4
 867 0079 07       		.byte	0x7
 868 007a 32050000 		.4byte	.LASF9
 869 007e 03       		.uleb128 0x3
 870 007f 08       		.byte	0x8
 871 0080 05       		.byte	0x5
 872 0081 21030000 		.4byte	.LASF10
 873 0085 04       		.uleb128 0x4
 874 0086 33020000 		.4byte	.LASF11
 875 008a 03       		.byte	0x3
 876 008b 4E       		.byte	0x4e
 877 008c 90000000 		.4byte	0x90
 878 0090 03       		.uleb128 0x3
 879 0091 08       		.byte	0x8
 880 0092 07       		.byte	0x7
 881 0093 A1010000 		.4byte	.LASF12
 882 0097 04       		.uleb128 0x4
 883 0098 DF020000 		.4byte	.LASF13
 884 009c 04       		.byte	0x4
 885 009d 2A       		.byte	0x2a
 886 009e 3A000000 		.4byte	0x3a
 887 00a2 04       		.uleb128 0x4
 888 00a3 57050000 		.4byte	.LASF14
 889 00a7 04       		.byte	0x4
 890 00a8 41       		.byte	0x41
 891 00a9 5A000000 		.4byte	0x5a
 892 00ad 04       		.uleb128 0x4
 893 00ae 5E010000 		.4byte	.LASF15
 894 00b2 04       		.byte	0x4
 895 00b3 42       		.byte	0x42
 896 00b4 6C000000 		.4byte	0x6c
 897 00b8 04       		.uleb128 0x4
 898 00b9 1A040000 		.4byte	.LASF16
 899 00bd 04       		.byte	0x4
 900 00be 4E       		.byte	0x4e
 901 00bf 85000000 		.4byte	0x85
 902 00c3 04       		.uleb128 0x4
 903 00c4 A0030000 		.4byte	.LASF17
 904 00c8 05       		.byte	0x5
 905 00c9 39       		.byte	0x39
 906 00ca AD000000 		.4byte	0xad
 907 00ce 04       		.uleb128 0x4
 908 00cf 9E020000 		.4byte	.LASF18
 909 00d3 05       		.byte	0x5
 910 00d4 3A       		.byte	0x3a
 911 00d5 B8000000 		.4byte	0xb8
 912 00d9 04       		.uleb128 0x4
 913 00da 7D030000 		.4byte	.LASF19
 914 00de 05       		.byte	0x5
ARM GAS  /tmp/ccjSXgYT.s 			page 45


 915 00df 3C       		.byte	0x3c
 916 00e0 97000000 		.4byte	0x97
 917 00e4 04       		.uleb128 0x4
 918 00e5 AE020000 		.4byte	.LASF20
 919 00e9 05       		.byte	0x5
 920 00ea 3D       		.byte	0x3d
 921 00eb 97000000 		.4byte	0x97
 922 00ef 04       		.uleb128 0x4
 923 00f0 2A050000 		.4byte	.LASF21
 924 00f4 05       		.byte	0x5
 925 00f5 3E       		.byte	0x3e
 926 00f6 97000000 		.4byte	0x97
 927 00fa 04       		.uleb128 0x4
 928 00fb 88010000 		.4byte	.LASF22
 929 00ff 05       		.byte	0x5
 930 0100 40       		.byte	0x40
 931 0101 AD000000 		.4byte	0xad
 932 0105 04       		.uleb128 0x4
 933 0106 2F030000 		.4byte	.LASF23
 934 010a 05       		.byte	0x5
 935 010b 41       		.byte	0x41
 936 010c A2000000 		.4byte	0xa2
 937 0110 04       		.uleb128 0x4
 938 0111 6F010000 		.4byte	.LASF24
 939 0115 05       		.byte	0x5
 940 0116 43       		.byte	0x43
 941 0117 AD000000 		.4byte	0xad
 942 011b 04       		.uleb128 0x4
 943 011c D2010000 		.4byte	.LASF25
 944 0120 05       		.byte	0x5
 945 0121 45       		.byte	0x45
 946 0122 A2000000 		.4byte	0xa2
 947 0126 04       		.uleb128 0x4
 948 0127 85030000 		.4byte	.LASF26
 949 012b 05       		.byte	0x5
 950 012c 46       		.byte	0x46
 951 012d AD000000 		.4byte	0xad
 952 0131 04       		.uleb128 0x4
 953 0132 6A000000 		.4byte	.LASF27
 954 0136 06       		.byte	0x6
 955 0137 33       		.byte	0x33
 956 0138 AD000000 		.4byte	0xad
 957 013c 04       		.uleb128 0x4
 958 013d 13020000 		.4byte	.LASF28
 959 0141 06       		.byte	0x6
 960 0142 3F       		.byte	0x3f
 961 0143 47010000 		.4byte	0x147
 962 0147 05       		.uleb128 0x5
 963 0148 08030000 		.4byte	.LASF46
 964 014c 44       		.byte	0x44
 965 014d 07       		.byte	0x7
 966 014e 9A       		.byte	0x9a
 967 014f 25020000 		.4byte	0x225
 968 0153 06       		.uleb128 0x6
 969 0154 51050000 		.4byte	.LASF29
 970 0158 07       		.byte	0x7
 971 0159 9B       		.byte	0x9b
ARM GAS  /tmp/ccjSXgYT.s 			page 46


 972 015a 5A020000 		.4byte	0x25a
 973 015e 00       		.byte	0
 974 015f 06       		.uleb128 0x6
 975 0160 94020000 		.4byte	.LASF30
 976 0164 07       		.byte	0x7
 977 0165 9C       		.byte	0x9c
 978 0166 FA000000 		.4byte	0xfa
 979 016a 08       		.byte	0x8
 980 016b 07       		.uleb128 0x7
 981 016c 63747800 		.ascii	"ctx\000"
 982 0170 07       		.byte	0x7
 983 0171 9D       		.byte	0x9d
 984 0172 AD050000 		.4byte	0x5ad
 985 0176 0C       		.byte	0xc
 986 0177 06       		.uleb128 0x6
 987 0178 6E050000 		.4byte	.LASF31
 988 017c 07       		.byte	0x7
 989 017d 9F       		.byte	0x9f
 990 017e 30020000 		.4byte	0x230
 991 0182 10       		.byte	0x10
 992 0183 06       		.uleb128 0x6
 993 0184 17060000 		.4byte	.LASF32
 994 0188 07       		.byte	0x7
 995 0189 A0       		.byte	0xa0
 996 018a 30020000 		.4byte	0x230
 997 018e 14       		.byte	0x14
 998 018f 06       		.uleb128 0x6
 999 0190 33040000 		.4byte	.LASF33
 1000 0194 07       		.byte	0x7
 1001 0195 A7       		.byte	0xa7
 1002 0196 80070000 		.4byte	0x780
 1003 019a 18       		.byte	0x18
 1004 019b 06       		.uleb128 0x6
 1005 019c A7020000 		.4byte	.LASF34
 1006 01a0 07       		.byte	0x7
 1007 01a1 B0       		.byte	0xb0
 1008 01a2 92070000 		.4byte	0x792
 1009 01a6 1C       		.byte	0x1c
 1010 01a7 06       		.uleb128 0x6
 1011 01a8 B8050000 		.4byte	.LASF35
 1012 01ac 07       		.byte	0x7
 1013 01ad B5       		.byte	0xb5
 1014 01ae E4000000 		.4byte	0xe4
 1015 01b2 20       		.byte	0x20
 1016 01b3 06       		.uleb128 0x6
 1017 01b4 64000000 		.4byte	.LASF36
 1018 01b8 07       		.byte	0x7
 1019 01b9 B9       		.byte	0xb9
 1020 01ba D9000000 		.4byte	0xd9
 1021 01be 21       		.byte	0x21
 1022 01bf 06       		.uleb128 0x6
 1023 01c0 D9000000 		.4byte	.LASF37
 1024 01c4 07       		.byte	0x7
 1025 01c5 BE       		.byte	0xbe
 1026 01c6 EF000000 		.4byte	0xef
 1027 01ca 22       		.byte	0x22
 1028 01cb 08       		.uleb128 0x8
ARM GAS  /tmp/ccjSXgYT.s 			page 47


 1029 01cc 7500     		.ascii	"u\000"
 1030 01ce 07       		.byte	0x7
 1031 01cf 0F01     		.2byte	0x10f
 1032 01d1 B5060000 		.4byte	0x6b5
 1033 01d5 24       		.byte	0x24
 1034 01d6 09       		.uleb128 0x9
 1035 01d7 92050000 		.4byte	.LASF38
 1036 01db 07       		.byte	0x7
 1037 01dc 1401     		.2byte	0x114
 1038 01de 36020000 		.4byte	0x236
 1039 01e2 28       		.byte	0x28
 1040 01e3 09       		.uleb128 0x9
 1041 01e4 FF020000 		.4byte	.LASF39
 1042 01e8 07       		.byte	0x7
 1043 01e9 1A01     		.2byte	0x11a
 1044 01eb 5A020000 		.4byte	0x25a
 1045 01ef 2C       		.byte	0x2c
 1046 01f0 09       		.uleb128 0x9
 1047 01f1 9A000000 		.4byte	.LASF40
 1048 01f5 07       		.byte	0x7
 1049 01f6 2001     		.2byte	0x120
 1050 01f8 10010000 		.4byte	0x110
 1051 01fc 34       		.byte	0x34
 1052 01fd 09       		.uleb128 0x9
 1053 01fe F4010000 		.4byte	.LASF41
 1054 0202 07       		.byte	0x7
 1055 0203 2701     		.2byte	0x127
 1056 0205 7A070000 		.4byte	0x77a
 1057 0209 38       		.byte	0x38
 1058 020a 09       		.uleb128 0x9
 1059 020b 74000000 		.4byte	.LASF42
 1060 020f 07       		.byte	0x7
 1061 0210 2B01     		.2byte	0x12b
 1062 0212 FA000000 		.4byte	0xfa
 1063 0216 3C       		.byte	0x3c
 1064 0217 09       		.uleb128 0x9
 1065 0218 2D060000 		.4byte	.LASF43
 1066 021c 07       		.byte	0x7
 1067 021d 3201     		.2byte	0x132
 1068 021f 0D030000 		.4byte	0x30d
 1069 0223 40       		.byte	0x40
 1070 0224 00       		.byte	0
 1071 0225 04       		.uleb128 0x4
 1072 0226 39000000 		.4byte	.LASF44
 1073 022a 06       		.byte	0x6
 1074 022b 44       		.byte	0x44
 1075 022c 30020000 		.4byte	0x230
 1076 0230 0A       		.uleb128 0xa
 1077 0231 04       		.byte	0x4
 1078 0232 3C010000 		.4byte	0x13c
 1079 0236 04       		.uleb128 0x4
 1080 0237 B5000000 		.4byte	.LASF45
 1081 023b 06       		.byte	0x6
 1082 023c 49       		.byte	0x49
 1083 023d 41020000 		.4byte	0x241
 1084 0241 05       		.uleb128 0x5
 1085 0242 00000000 		.4byte	.LASF47
ARM GAS  /tmp/ccjSXgYT.s 			page 48


 1086 0246 04       		.byte	0x4
 1087 0247 07       		.byte	0x7
 1088 0248 88       		.byte	0x88
 1089 0249 5A020000 		.4byte	0x25a
 1090 024d 06       		.uleb128 0x6
 1091 024e B0000000 		.4byte	.LASF48
 1092 0252 07       		.byte	0x7
 1093 0253 89       		.byte	0x89
 1094 0254 30020000 		.4byte	0x230
 1095 0258 00       		.byte	0
 1096 0259 00       		.byte	0
 1097 025a 04       		.uleb128 0x4
 1098 025b E4010000 		.4byte	.LASF49
 1099 025f 06       		.byte	0x6
 1100 0260 50       		.byte	0x50
 1101 0261 65020000 		.4byte	0x265
 1102 0265 05       		.uleb128 0x5
 1103 0266 34010000 		.4byte	.LASF50
 1104 026a 08       		.byte	0x8
 1105 026b 07       		.byte	0x7
 1106 026c 8F       		.byte	0x8f
 1107 026d 8A020000 		.4byte	0x28a
 1108 0271 06       		.uleb128 0x6
 1109 0272 B0000000 		.4byte	.LASF48
 1110 0276 07       		.byte	0x7
 1111 0277 90       		.byte	0x90
 1112 0278 30020000 		.4byte	0x230
 1113 027c 00       		.byte	0
 1114 027d 06       		.uleb128 0x6
 1115 027e 2F010000 		.4byte	.LASF51
 1116 0282 07       		.byte	0x7
 1117 0283 91       		.byte	0x91
 1118 0284 30020000 		.4byte	0x230
 1119 0288 04       		.byte	0x4
 1120 0289 00       		.byte	0
 1121 028a 04       		.uleb128 0x4
 1122 028b 44050000 		.4byte	.LASF52
 1123 028f 06       		.byte	0x6
 1124 0290 57       		.byte	0x57
 1125 0291 95020000 		.4byte	0x295
 1126 0295 0B       		.uleb128 0xb
 1127 0296 15010000 		.4byte	.LASF53
 1128 029a 1C       		.byte	0x1c
 1129 029b 07       		.byte	0x7
 1130 029c 6A01     		.2byte	0x16a
 1131 029e F1020000 		.4byte	0x2f1
 1132 02a2 09       		.uleb128 0x9
 1133 02a3 51050000 		.4byte	.LASF29
 1134 02a7 07       		.byte	0x7
 1135 02a8 6B01     		.2byte	0x16b
 1136 02aa 5A020000 		.4byte	0x25a
 1137 02ae 00       		.byte	0
 1138 02af 09       		.uleb128 0x9
 1139 02b0 94020000 		.4byte	.LASF30
 1140 02b4 07       		.byte	0x7
 1141 02b5 6C01     		.2byte	0x16c
 1142 02b7 FA000000 		.4byte	0xfa
ARM GAS  /tmp/ccjSXgYT.s 			page 49


 1143 02bb 08       		.byte	0x8
 1144 02bc 08       		.uleb128 0x8
 1145 02bd 63747800 		.ascii	"ctx\000"
 1146 02c1 07       		.byte	0x7
 1147 02c2 6E01     		.2byte	0x16e
 1148 02c4 AD050000 		.4byte	0x5ad
 1149 02c8 0C       		.byte	0xc
 1150 02c9 09       		.uleb128 0x9
 1151 02ca 6E050000 		.4byte	.LASF31
 1152 02ce 07       		.byte	0x7
 1153 02cf 7101     		.2byte	0x171
 1154 02d1 30020000 		.4byte	0x230
 1155 02d5 10       		.byte	0x10
 1156 02d6 09       		.uleb128 0x9
 1157 02d7 17060000 		.4byte	.LASF32
 1158 02db 07       		.byte	0x7
 1159 02dc 7201     		.2byte	0x172
 1160 02de 30020000 		.4byte	0x230
 1161 02e2 14       		.byte	0x14
 1162 02e3 09       		.uleb128 0x9
 1163 02e4 0F060000 		.4byte	.LASF54
 1164 02e8 07       		.byte	0x7
 1165 02e9 7501     		.2byte	0x175
 1166 02eb 30020000 		.4byte	0x230
 1167 02ef 18       		.byte	0x18
 1168 02f0 00       		.byte	0
 1169 02f1 04       		.uleb128 0x4
 1170 02f2 45010000 		.4byte	.LASF55
 1171 02f6 06       		.byte	0x6
 1172 02f7 5C       		.byte	0x5c
 1173 02f8 FC020000 		.4byte	0x2fc
 1174 02fc 0A       		.uleb128 0xa
 1175 02fd 04       		.byte	0x4
 1176 02fe 02030000 		.4byte	0x302
 1177 0302 0C       		.uleb128 0xc
 1178 0303 0D030000 		.4byte	0x30d
 1179 0307 0D       		.uleb128 0xd
 1180 0308 0D030000 		.4byte	0x30d
 1181 030c 00       		.byte	0
 1182 030d 0E       		.uleb128 0xe
 1183 030e 04       		.byte	0x4
 1184 030f 04       		.uleb128 0x4
 1185 0310 4D030000 		.4byte	.LASF56
 1186 0314 06       		.byte	0x6
 1187 0315 61       		.byte	0x61
 1188 0316 1A030000 		.4byte	0x31a
 1189 031a 0B       		.uleb128 0xb
 1190 031b 90010000 		.4byte	.LASF57
 1191 031f 14       		.byte	0x14
 1192 0320 07       		.byte	0x7
 1193 0321 4501     		.2byte	0x145
 1194 0323 69030000 		.4byte	0x369
 1195 0327 09       		.uleb128 0x9
 1196 0328 B0000000 		.4byte	.LASF48
 1197 032c 07       		.byte	0x7
 1198 032d 4601     		.2byte	0x146
 1199 032f 98070000 		.4byte	0x798
ARM GAS  /tmp/ccjSXgYT.s 			page 50


 1200 0333 00       		.byte	0
 1201 0334 09       		.uleb128 0x9
 1202 0335 2F010000 		.4byte	.LASF51
 1203 0339 07       		.byte	0x7
 1204 033a 4701     		.2byte	0x147
 1205 033c 98070000 		.4byte	0x798
 1206 0340 04       		.byte	0x4
 1207 0341 09       		.uleb128 0x9
 1208 0342 EB050000 		.4byte	.LASF58
 1209 0346 07       		.byte	0x7
 1210 0347 4801     		.2byte	0x148
 1211 0349 31010000 		.4byte	0x131
 1212 034d 08       		.byte	0x8
 1213 034e 09       		.uleb128 0x9
 1214 034f 23010000 		.4byte	.LASF59
 1215 0353 07       		.byte	0x7
 1216 0354 4901     		.2byte	0x149
 1217 0356 F1020000 		.4byte	0x2f1
 1218 035a 0C       		.byte	0xc
 1219 035b 08       		.uleb128 0x8
 1220 035c 70617200 		.ascii	"par\000"
 1221 0360 07       		.byte	0x7
 1222 0361 4B01     		.2byte	0x14b
 1223 0363 0D030000 		.4byte	0x30d
 1224 0367 10       		.byte	0x10
 1225 0368 00       		.byte	0
 1226 0369 04       		.uleb128 0x4
 1227 036a A2050000 		.4byte	.LASF60
 1228 036e 06       		.byte	0x6
 1229 036f 66       		.byte	0x66
 1230 0370 74030000 		.4byte	0x374
 1231 0374 0B       		.uleb128 0xb
 1232 0375 FC010000 		.4byte	.LASF61
 1233 0379 10       		.byte	0x10
 1234 037a 07       		.byte	0x7
 1235 037b 5501     		.2byte	0x155
 1236 037d B6030000 		.4byte	0x3b6
 1237 0381 09       		.uleb128 0x9
 1238 0382 B0000000 		.4byte	.LASF48
 1239 0386 07       		.byte	0x7
 1240 0387 5601     		.2byte	0x156
 1241 0389 98070000 		.4byte	0x798
 1242 038d 00       		.byte	0
 1243 038e 09       		.uleb128 0x9
 1244 038f 2F010000 		.4byte	.LASF51
 1245 0393 07       		.byte	0x7
 1246 0394 5801     		.2byte	0x158
 1247 0396 98070000 		.4byte	0x798
 1248 039a 04       		.byte	0x4
 1249 039b 09       		.uleb128 0x9
 1250 039c EB050000 		.4byte	.LASF58
 1251 03a0 07       		.byte	0x7
 1252 03a1 5A01     		.2byte	0x15a
 1253 03a3 31010000 		.4byte	0x131
 1254 03a7 08       		.byte	0x8
 1255 03a8 09       		.uleb128 0x9
 1256 03a9 11040000 		.4byte	.LASF62
ARM GAS  /tmp/ccjSXgYT.s 			page 51


 1257 03ad 07       		.byte	0x7
 1258 03ae 6201     		.2byte	0x162
 1259 03b0 31010000 		.4byte	0x131
 1260 03b4 0C       		.byte	0xc
 1261 03b5 00       		.byte	0
 1262 03b6 04       		.uleb128 0x4
 1263 03b7 12030000 		.4byte	.LASF63
 1264 03bb 06       		.byte	0x6
 1265 03bc 6B       		.byte	0x6b
 1266 03bd C1030000 		.4byte	0x3c1
 1267 03c1 0B       		.uleb128 0xb
 1268 03c2 4E010000 		.4byte	.LASF64
 1269 03c6 04       		.byte	0x4
 1270 03c7 07       		.byte	0x7
 1271 03c8 7C01     		.2byte	0x17c
 1272 03ca DC030000 		.4byte	0x3dc
 1273 03ce 09       		.uleb128 0x9
 1274 03cf 62030000 		.4byte	.LASF65
 1275 03d3 07       		.byte	0x7
 1276 03d4 8401     		.2byte	0x184
 1277 03d6 9E070000 		.4byte	0x79e
 1278 03da 00       		.byte	0
 1279 03db 00       		.byte	0
 1280 03dc 04       		.uleb128 0x4
 1281 03dd C6050000 		.4byte	.LASF66
 1282 03e1 06       		.byte	0x6
 1283 03e2 70       		.byte	0x70
 1284 03e3 E7030000 		.4byte	0x3e7
 1285 03e7 0B       		.uleb128 0xb
 1286 03e8 07040000 		.4byte	.LASF67
 1287 03ec 78       		.byte	0x78
 1288 03ed 07       		.byte	0x7
 1289 03ee 9C01     		.2byte	0x19c
 1290 03f0 35040000 		.4byte	0x435
 1291 03f4 09       		.uleb128 0x9
 1292 03f5 23040000 		.4byte	.LASF68
 1293 03f9 07       		.byte	0x7
 1294 03fa A001     		.2byte	0x1a0
 1295 03fc 8A020000 		.4byte	0x28a
 1296 0400 00       		.byte	0
 1297 0401 09       		.uleb128 0x9
 1298 0402 01010000 		.4byte	.LASF69
 1299 0406 07       		.byte	0x7
 1300 0407 A401     		.2byte	0x1a4
 1301 0409 69030000 		.4byte	0x369
 1302 040d 1C       		.byte	0x1c
 1303 040e 08       		.uleb128 0x8
 1304 040f 64626700 		.ascii	"dbg\000"
 1305 0413 07       		.byte	0x7
 1306 0414 A801     		.2byte	0x1a8
 1307 0416 B6030000 		.4byte	0x3b6
 1308 041a 2C       		.byte	0x2c
 1309 041b 09       		.uleb128 0x9
 1310 041c 8C030000 		.4byte	.LASF70
 1311 0420 07       		.byte	0x7
 1312 0421 AC01     		.2byte	0x1ac
 1313 0423 3C010000 		.4byte	0x13c
ARM GAS  /tmp/ccjSXgYT.s 			page 52


 1314 0427 30       		.byte	0x30
 1315 0428 08       		.uleb128 0x8
 1316 0429 746D00   		.ascii	"tm\000"
 1317 042c 07       		.byte	0x7
 1318 042d B101     		.2byte	0x1b1
 1319 042f 5C060000 		.4byte	0x65c
 1320 0433 74       		.byte	0x74
 1321 0434 00       		.byte	0
 1322 0435 03       		.uleb128 0x3
 1323 0436 04       		.byte	0x4
 1324 0437 07       		.byte	0x7
 1325 0438 21050000 		.4byte	.LASF71
 1326 043c 0F       		.uleb128 0xf
 1327 043d AD000000 		.4byte	0xad
 1328 0441 10       		.uleb128 0x10
 1329 0442 3C040000 		.4byte	0x43c
 1330 0446 11       		.uleb128 0x11
 1331 0447 AD000000 		.4byte	0xad
 1332 044b 56040000 		.4byte	0x456
 1333 044f 12       		.uleb128 0x12
 1334 0450 35040000 		.4byte	0x435
 1335 0454 00       		.byte	0
 1336 0455 00       		.byte	0
 1337 0456 13       		.uleb128 0x13
 1338 0457 5C       		.byte	0x5c
 1339 0458 08       		.byte	0x8
 1340 0459 8303     		.2byte	0x383
 1341 045b 8B050000 		.4byte	0x58b
 1342 045f 09       		.uleb128 0x9
 1343 0460 33060000 		.4byte	.LASF72
 1344 0464 08       		.byte	0x8
 1345 0465 8503     		.2byte	0x385
 1346 0467 3C040000 		.4byte	0x43c
 1347 046b 00       		.byte	0
 1348 046c 09       		.uleb128 0x9
 1349 046d D8050000 		.4byte	.LASF73
 1350 0471 08       		.byte	0x8
 1351 0472 8603     		.2byte	0x386
 1352 0474 3C040000 		.4byte	0x43c
 1353 0478 04       		.byte	0x4
 1354 0479 09       		.uleb128 0x9
 1355 047a 93000000 		.4byte	.LASF74
 1356 047e 08       		.byte	0x8
 1357 047f 8703     		.2byte	0x387
 1358 0481 3C040000 		.4byte	0x43c
 1359 0485 08       		.byte	0x8
 1360 0486 09       		.uleb128 0x9
 1361 0487 26060000 		.4byte	.LASF75
 1362 048b 08       		.byte	0x8
 1363 048c 8803     		.2byte	0x388
 1364 048e 3C040000 		.4byte	0x43c
 1365 0492 0C       		.byte	0xc
 1366 0493 09       		.uleb128 0x9
 1367 0494 97030000 		.4byte	.LASF76
 1368 0498 08       		.byte	0x8
 1369 0499 8903     		.2byte	0x389
 1370 049b 3C040000 		.4byte	0x43c
ARM GAS  /tmp/ccjSXgYT.s 			page 53


 1371 049f 10       		.byte	0x10
 1372 04a0 09       		.uleb128 0x9
 1373 04a1 7A020000 		.4byte	.LASF77
 1374 04a5 08       		.byte	0x8
 1375 04a6 8A03     		.2byte	0x38a
 1376 04a8 3C040000 		.4byte	0x43c
 1377 04ac 14       		.byte	0x14
 1378 04ad 09       		.uleb128 0x9
 1379 04ae BE050000 		.4byte	.LASF78
 1380 04b2 08       		.byte	0x8
 1381 04b3 8B03     		.2byte	0x38b
 1382 04b5 3C040000 		.4byte	0x43c
 1383 04b9 18       		.byte	0x18
 1384 04ba 09       		.uleb128 0x9
 1385 04bb 5D030000 		.4byte	.LASF79
 1386 04bf 08       		.byte	0x8
 1387 04c0 8C03     		.2byte	0x38c
 1388 04c2 41040000 		.4byte	0x441
 1389 04c6 1C       		.byte	0x1c
 1390 04c7 09       		.uleb128 0x9
 1391 04c8 21000000 		.4byte	.LASF80
 1392 04cc 08       		.byte	0x8
 1393 04cd 8D03     		.2byte	0x38d
 1394 04cf 3C040000 		.4byte	0x43c
 1395 04d3 20       		.byte	0x20
 1396 04d4 09       		.uleb128 0x9
 1397 04d5 35030000 		.4byte	.LASF81
 1398 04d9 08       		.byte	0x8
 1399 04da 8E03     		.2byte	0x38e
 1400 04dc 3C040000 		.4byte	0x43c
 1401 04e0 24       		.byte	0x24
 1402 04e1 09       		.uleb128 0x9
 1403 04e2 B7020000 		.4byte	.LASF82
 1404 04e6 08       		.byte	0x8
 1405 04e7 8F03     		.2byte	0x38f
 1406 04e9 3C040000 		.4byte	0x43c
 1407 04ed 28       		.byte	0x28
 1408 04ee 09       		.uleb128 0x9
 1409 04ef BD030000 		.4byte	.LASF83
 1410 04f3 08       		.byte	0x8
 1411 04f4 9003     		.2byte	0x390
 1412 04f6 46040000 		.4byte	0x446
 1413 04fa 2C       		.byte	0x2c
 1414 04fb 09       		.uleb128 0x9
 1415 04fc 27000000 		.4byte	.LASF84
 1416 0500 08       		.byte	0x8
 1417 0501 9103     		.2byte	0x391
 1418 0503 3C040000 		.4byte	0x43c
 1419 0507 30       		.byte	0x30
 1420 0508 09       		.uleb128 0x9
 1421 0509 3B030000 		.4byte	.LASF85
 1422 050d 08       		.byte	0x8
 1423 050e 9203     		.2byte	0x392
 1424 0510 3C040000 		.4byte	0x43c
 1425 0514 34       		.byte	0x34
 1426 0515 09       		.uleb128 0x9
 1427 0516 C1020000 		.4byte	.LASF86
ARM GAS  /tmp/ccjSXgYT.s 			page 54


 1428 051a 08       		.byte	0x8
 1429 051b 9303     		.2byte	0x393
 1430 051d 3C040000 		.4byte	0x43c
 1431 0521 38       		.byte	0x38
 1432 0522 09       		.uleb128 0x9
 1433 0523 C7030000 		.4byte	.LASF87
 1434 0527 08       		.byte	0x8
 1435 0528 9403     		.2byte	0x394
 1436 052a 46040000 		.4byte	0x446
 1437 052e 3C       		.byte	0x3c
 1438 052f 09       		.uleb128 0x9
 1439 0530 2D000000 		.4byte	.LASF88
 1440 0534 08       		.byte	0x8
 1441 0535 9503     		.2byte	0x395
 1442 0537 3C040000 		.4byte	0x43c
 1443 053b 40       		.byte	0x40
 1444 053c 09       		.uleb128 0x9
 1445 053d 41030000 		.4byte	.LASF89
 1446 0541 08       		.byte	0x8
 1447 0542 9603     		.2byte	0x396
 1448 0544 3C040000 		.4byte	0x43c
 1449 0548 44       		.byte	0x44
 1450 0549 09       		.uleb128 0x9
 1451 054a CB020000 		.4byte	.LASF90
 1452 054e 08       		.byte	0x8
 1453 054f 9703     		.2byte	0x397
 1454 0551 3C040000 		.4byte	0x43c
 1455 0555 48       		.byte	0x48
 1456 0556 09       		.uleb128 0x9
 1457 0557 D1030000 		.4byte	.LASF91
 1458 055b 08       		.byte	0x8
 1459 055c 9803     		.2byte	0x398
 1460 055e 46040000 		.4byte	0x446
 1461 0562 4C       		.byte	0x4c
 1462 0563 09       		.uleb128 0x9
 1463 0564 33000000 		.4byte	.LASF92
 1464 0568 08       		.byte	0x8
 1465 0569 9903     		.2byte	0x399
 1466 056b 3C040000 		.4byte	0x43c
 1467 056f 50       		.byte	0x50
 1468 0570 09       		.uleb128 0x9
 1469 0571 47030000 		.4byte	.LASF93
 1470 0575 08       		.byte	0x8
 1471 0576 9A03     		.2byte	0x39a
 1472 0578 3C040000 		.4byte	0x43c
 1473 057c 54       		.byte	0x54
 1474 057d 09       		.uleb128 0x9
 1475 057e D5020000 		.4byte	.LASF94
 1476 0582 08       		.byte	0x8
 1477 0583 9B03     		.2byte	0x39b
 1478 0585 3C040000 		.4byte	0x43c
 1479 0589 58       		.byte	0x58
 1480 058a 00       		.byte	0
 1481 058b 14       		.uleb128 0x14
 1482 058c 6C020000 		.4byte	.LASF95
 1483 0590 08       		.byte	0x8
 1484 0591 9C03     		.2byte	0x39c
ARM GAS  /tmp/ccjSXgYT.s 			page 55


 1485 0593 56040000 		.4byte	0x456
 1486 0597 04       		.uleb128 0x4
 1487 0598 4C000000 		.4byte	.LASF96
 1488 059c 09       		.byte	0x9
 1489 059d 65       		.byte	0x65
 1490 059e 0D030000 		.4byte	0x30d
 1491 05a2 04       		.uleb128 0x4
 1492 05a3 04060000 		.4byte	.LASF97
 1493 05a7 09       		.byte	0x9
 1494 05a8 6D       		.byte	0x6d
 1495 05a9 B8000000 		.4byte	0xb8
 1496 05ad 05       		.uleb128 0x5
 1497 05ae 08010000 		.4byte	.LASF98
 1498 05b2 04       		.byte	0x4
 1499 05b3 09       		.byte	0x9
 1500 05b4 89       		.byte	0x89
 1501 05b5 C5050000 		.4byte	0x5c5
 1502 05b9 07       		.uleb128 0x7
 1503 05ba 737000   		.ascii	"sp\000"
 1504 05bd 09       		.byte	0x9
 1505 05be 8A       		.byte	0x8a
 1506 05bf 41060000 		.4byte	0x641
 1507 05c3 00       		.byte	0
 1508 05c4 00       		.byte	0
 1509 05c5 0B       		.uleb128 0xb
 1510 05c6 EE030000 		.4byte	.LASF99
 1511 05ca 24       		.byte	0x24
 1512 05cb 02       		.byte	0x2
 1513 05cc 5901     		.2byte	0x159
 1514 05ce 41060000 		.4byte	0x641
 1515 05d2 08       		.uleb128 0x8
 1516 05d3 723400   		.ascii	"r4\000"
 1517 05d6 02       		.byte	0x2
 1518 05d7 6C01     		.2byte	0x16c
 1519 05d9 97050000 		.4byte	0x597
 1520 05dd 00       		.byte	0
 1521 05de 08       		.uleb128 0x8
 1522 05df 723500   		.ascii	"r5\000"
 1523 05e2 02       		.byte	0x2
 1524 05e3 6D01     		.2byte	0x16d
 1525 05e5 97050000 		.4byte	0x597
 1526 05e9 04       		.byte	0x4
 1527 05ea 08       		.uleb128 0x8
 1528 05eb 723600   		.ascii	"r6\000"
 1529 05ee 02       		.byte	0x2
 1530 05ef 6E01     		.2byte	0x16e
 1531 05f1 97050000 		.4byte	0x597
 1532 05f5 08       		.byte	0x8
 1533 05f6 08       		.uleb128 0x8
 1534 05f7 723700   		.ascii	"r7\000"
 1535 05fa 02       		.byte	0x2
 1536 05fb 6F01     		.2byte	0x16f
 1537 05fd 97050000 		.4byte	0x597
 1538 0601 0C       		.byte	0xc
 1539 0602 08       		.uleb128 0x8
 1540 0603 723800   		.ascii	"r8\000"
 1541 0606 02       		.byte	0x2
ARM GAS  /tmp/ccjSXgYT.s 			page 56


 1542 0607 7001     		.2byte	0x170
 1543 0609 97050000 		.4byte	0x597
 1544 060d 10       		.byte	0x10
 1545 060e 08       		.uleb128 0x8
 1546 060f 723900   		.ascii	"r9\000"
 1547 0612 02       		.byte	0x2
 1548 0613 7101     		.2byte	0x171
 1549 0615 97050000 		.4byte	0x597
 1550 0619 14       		.byte	0x14
 1551 061a 08       		.uleb128 0x8
 1552 061b 72313000 		.ascii	"r10\000"
 1553 061f 02       		.byte	0x2
 1554 0620 7201     		.2byte	0x172
 1555 0622 97050000 		.4byte	0x597
 1556 0626 18       		.byte	0x18
 1557 0627 08       		.uleb128 0x8
 1558 0628 72313100 		.ascii	"r11\000"
 1559 062c 02       		.byte	0x2
 1560 062d 7301     		.2byte	0x173
 1561 062f 97050000 		.4byte	0x597
 1562 0633 1C       		.byte	0x1c
 1563 0634 08       		.uleb128 0x8
 1564 0635 6C7200   		.ascii	"lr\000"
 1565 0638 02       		.byte	0x2
 1566 0639 7401     		.2byte	0x174
 1567 063b 97050000 		.4byte	0x597
 1568 063f 20       		.byte	0x20
 1569 0640 00       		.byte	0
 1570 0641 0A       		.uleb128 0xa
 1571 0642 04       		.byte	0x4
 1572 0643 C5050000 		.4byte	0x5c5
 1573 0647 15       		.uleb128 0x15
 1574 0648 04       		.byte	0x4
 1575 0649 0A       		.byte	0xa
 1576 064a 38       		.byte	0x38
 1577 064b 5C060000 		.4byte	0x65c
 1578 064f 06       		.uleb128 0x6
 1579 0650 23020000 		.4byte	.LASF100
 1580 0654 0A       		.byte	0xa
 1581 0655 3C       		.byte	0x3c
 1582 0656 C3000000 		.4byte	0xc3
 1583 065a 00       		.byte	0
 1584 065b 00       		.byte	0
 1585 065c 04       		.uleb128 0x4
 1586 065d 6C030000 		.4byte	.LASF101
 1587 0661 0A       		.byte	0xa
 1588 0662 3D       		.byte	0x3d
 1589 0663 47060000 		.4byte	0x647
 1590 0667 15       		.uleb128 0x15
 1591 0668 18       		.byte	0x18
 1592 0669 0A       		.byte	0xa
 1593 066a 48       		.byte	0x48
 1594 066b AA060000 		.4byte	0x6aa
 1595 066f 06       		.uleb128 0x6
 1596 0670 74050000 		.4byte	.LASF102
 1597 0674 0A       		.byte	0xa
 1598 0675 49       		.byte	0x49
ARM GAS  /tmp/ccjSXgYT.s 			page 57


 1599 0676 C3000000 		.4byte	0xc3
 1600 067a 00       		.byte	0
 1601 067b 06       		.uleb128 0x6
 1602 067c D8010000 		.4byte	.LASF103
 1603 0680 0A       		.byte	0xa
 1604 0681 4A       		.byte	0x4a
 1605 0682 C3000000 		.4byte	0xc3
 1606 0686 04       		.byte	0x4
 1607 0687 06       		.uleb128 0x6
 1608 0688 75020000 		.4byte	.LASF104
 1609 068c 0A       		.byte	0xa
 1610 068d 4B       		.byte	0x4b
 1611 068e C3000000 		.4byte	0xc3
 1612 0692 08       		.byte	0x8
 1613 0693 07       		.uleb128 0x7
 1614 0694 6E00     		.ascii	"n\000"
 1615 0696 0A       		.byte	0xa
 1616 0697 4C       		.byte	0x4c
 1617 0698 26010000 		.4byte	0x126
 1618 069c 0C       		.byte	0xc
 1619 069d 06       		.uleb128 0x6
 1620 069e C4000000 		.4byte	.LASF105
 1621 06a2 0A       		.byte	0xa
 1622 06a3 4D       		.byte	0x4d
 1623 06a4 CE000000 		.4byte	0xce
 1624 06a8 10       		.byte	0x10
 1625 06a9 00       		.byte	0
 1626 06aa 04       		.uleb128 0x4
 1627 06ab 81020000 		.4byte	.LASF106
 1628 06af 0A       		.byte	0xa
 1629 06b0 4E       		.byte	0x4e
 1630 06b1 67060000 		.4byte	0x667
 1631 06b5 16       		.uleb128 0x16
 1632 06b6 04       		.byte	0x4
 1633 06b7 07       		.byte	0x7
 1634 06b8 D2       		.byte	0xd2
 1635 06b9 18070000 		.4byte	0x718
 1636 06bd 17       		.uleb128 0x17
 1637 06be 1C020000 		.4byte	.LASF107
 1638 06c2 07       		.byte	0x7
 1639 06c3 D9       		.byte	0xd9
 1640 06c4 05010000 		.4byte	0x105
 1641 06c8 17       		.uleb128 0x17
 1642 06c9 1D060000 		.4byte	.LASF108
 1643 06cd 07       		.byte	0x7
 1644 06ce E0       		.byte	0xe0
 1645 06cf 05010000 		.4byte	0x105
 1646 06d3 17       		.uleb128 0x17
 1647 06d4 FA000000 		.4byte	.LASF109
 1648 06d8 07       		.byte	0x7
 1649 06d9 E7       		.byte	0xe7
 1650 06da 0D030000 		.4byte	0x30d
 1651 06de 17       		.uleb128 0x17
 1652 06df D2050000 		.4byte	.LASF110
 1653 06e3 07       		.byte	0x7
 1654 06e4 EE       		.byte	0xee
 1655 06e5 18070000 		.4byte	0x718
ARM GAS  /tmp/ccjSXgYT.s 			page 58


 1656 06e9 17       		.uleb128 0x17
 1657 06ea 67010000 		.4byte	.LASF111
 1658 06ee 07       		.byte	0x7
 1659 06ef F3       		.byte	0xf3
 1660 06f0 05010000 		.4byte	0x105
 1661 06f4 17       		.uleb128 0x17
 1662 06f5 5F050000 		.4byte	.LASF112
 1663 06f9 07       		.byte	0x7
 1664 06fa FC       		.byte	0xfc
 1665 06fb 43070000 		.4byte	0x743
 1666 06ff 18       		.uleb128 0x18
 1667 0700 1A000000 		.4byte	.LASF113
 1668 0704 07       		.byte	0x7
 1669 0705 0501     		.2byte	0x105
 1670 0707 7A070000 		.4byte	0x77a
 1671 070b 18       		.uleb128 0x18
 1672 070c 28010000 		.4byte	.LASF114
 1673 0710 07       		.byte	0x7
 1674 0711 0D01     		.2byte	0x10d
 1675 0713 10010000 		.4byte	0x110
 1676 0717 00       		.byte	0
 1677 0718 0A       		.uleb128 0xa
 1678 0719 04       		.byte	0x4
 1679 071a 25020000 		.4byte	0x225
 1680 071e 05       		.uleb128 0x5
 1681 071f 7B010000 		.4byte	.LASF115
 1682 0723 0C       		.byte	0xc
 1683 0724 0B       		.byte	0xb
 1684 0725 34       		.byte	0x34
 1685 0726 43070000 		.4byte	0x743
 1686 072a 06       		.uleb128 0x6
 1687 072b 51050000 		.4byte	.LASF29
 1688 072f 0B       		.byte	0xb
 1689 0730 35       		.byte	0x35
 1690 0731 5A020000 		.4byte	0x25a
 1691 0735 00       		.byte	0
 1692 0736 07       		.uleb128 0x7
 1693 0737 636E7400 		.ascii	"cnt\000"
 1694 073b 0B       		.byte	0xb
 1695 073c 37       		.byte	0x37
 1696 073d 1B010000 		.4byte	0x11b
 1697 0741 08       		.byte	0x8
 1698 0742 00       		.byte	0
 1699 0743 0A       		.uleb128 0xa
 1700 0744 04       		.byte	0x4
 1701 0745 1E070000 		.4byte	0x71e
 1702 0749 05       		.uleb128 0x5
 1703 074a 2A020000 		.4byte	.LASF116
 1704 074e 10       		.byte	0x10
 1705 074f 0C       		.byte	0xc
 1706 0750 39       		.byte	0x39
 1707 0751 7A070000 		.4byte	0x77a
 1708 0755 06       		.uleb128 0x6
 1709 0756 51050000 		.4byte	.LASF29
 1710 075a 0C       		.byte	0xc
 1711 075b 3A       		.byte	0x3a
 1712 075c 5A020000 		.4byte	0x25a
ARM GAS  /tmp/ccjSXgYT.s 			page 59


 1713 0760 00       		.byte	0
 1714 0761 06       		.uleb128 0x6
 1715 0762 DE010000 		.4byte	.LASF117
 1716 0766 0C       		.byte	0xc
 1717 0767 3C       		.byte	0x3c
 1718 0768 30020000 		.4byte	0x230
 1719 076c 08       		.byte	0x8
 1720 076d 06       		.uleb128 0x6
 1721 076e B0000000 		.4byte	.LASF48
 1722 0772 0C       		.byte	0xc
 1723 0773 3E       		.byte	0x3e
 1724 0774 AE070000 		.4byte	0x7ae
 1725 0778 0C       		.byte	0xc
 1726 0779 00       		.byte	0
 1727 077a 0A       		.uleb128 0xa
 1728 077b 04       		.byte	0x4
 1729 077c 49070000 		.4byte	0x749
 1730 0780 0A       		.uleb128 0xa
 1731 0781 04       		.byte	0x4
 1732 0782 86070000 		.4byte	0x786
 1733 0786 10       		.uleb128 0x10
 1734 0787 8B070000 		.4byte	0x78b
 1735 078b 03       		.uleb128 0x3
 1736 078c 01       		.byte	0x1
 1737 078d 08       		.byte	0x8
 1738 078e 99020000 		.4byte	.LASF118
 1739 0792 0A       		.uleb128 0xa
 1740 0793 04       		.byte	0x4
 1741 0794 A2050000 		.4byte	0x5a2
 1742 0798 0A       		.uleb128 0xa
 1743 0799 04       		.byte	0x4
 1744 079a 0F030000 		.4byte	0x30f
 1745 079e 0F       		.uleb128 0xf
 1746 079f 80070000 		.4byte	0x780
 1747 07a3 04       		.uleb128 0x4
 1748 07a4 66050000 		.4byte	.LASF119
 1749 07a8 0C       		.byte	0xc
 1750 07a9 34       		.byte	0x34
 1751 07aa 49070000 		.4byte	0x749
 1752 07ae 0A       		.uleb128 0xa
 1753 07af 04       		.byte	0x4
 1754 07b0 A3070000 		.4byte	0x7a3
 1755 07b4 19       		.uleb128 0x19
 1756 07b5 B8010000 		.4byte	.LASF130
 1757 07b9 02       		.byte	0x2
 1758 07ba C202     		.2byte	0x2c2
 1759 07bc C3000000 		.4byte	0xc3
 1760 07c0 03       		.byte	0x3
 1761 07c1 1A       		.uleb128 0x1a
 1762 07c2 9A050000 		.4byte	.LASF131
 1763 07c6 01       		.byte	0x1
 1764 07c7 35       		.byte	0x35
 1765 07c8 03       		.byte	0x3
 1766 07c9 EF070000 		.4byte	0x7ef
 1767 07cd 1B       		.uleb128 0x1b
 1768 07ce 746D7000 		.ascii	"tmp\000"
 1769 07d2 01       		.byte	0x1
ARM GAS  /tmp/ccjSXgYT.s 			page 60


 1770 07d3 35       		.byte	0x35
 1771 07d4 EF070000 		.4byte	0x7ef
 1772 07d8 1B       		.uleb128 0x1b
 1773 07d9 6E6F7700 		.ascii	"now\000"
 1774 07dd 01       		.byte	0x1
 1775 07de 36       		.byte	0x36
 1776 07df C3000000 		.4byte	0xc3
 1777 07e3 1C       		.uleb128 0x1c
 1778 07e4 23020000 		.4byte	.LASF100
 1779 07e8 01       		.byte	0x1
 1780 07e9 37       		.byte	0x37
 1781 07ea C3000000 		.4byte	0xc3
 1782 07ee 00       		.byte	0
 1783 07ef 0A       		.uleb128 0xa
 1784 07f0 04       		.byte	0x4
 1785 07f1 AA060000 		.4byte	0x6aa
 1786 07f5 1D       		.uleb128 0x1d
 1787 07f6 55000000 		.4byte	.LASF132
 1788 07fa 01       		.byte	0x1
 1789 07fb 61       		.byte	0x61
 1790 07fc 01       		.byte	0x1
 1791 07fd 0D080000 		.4byte	0x80d
 1792 0801 1B       		.uleb128 0x1b
 1793 0802 746D7000 		.ascii	"tmp\000"
 1794 0806 01       		.byte	0x1
 1795 0807 61       		.byte	0x61
 1796 0808 EF070000 		.4byte	0x7ef
 1797 080c 00       		.byte	0
 1798 080d 1E       		.uleb128 0x1e
 1799 080e F5070000 		.4byte	0x7f5
 1800 0812 00000000 		.4byte	.LFB241
 1801 0816 18000000 		.4byte	.LFE241-.LFB241
 1802 081a 01       		.uleb128 0x1
 1803 081b 9C       		.byte	0x9c
 1804 081c 28080000 		.4byte	0x828
 1805 0820 1F       		.uleb128 0x1f
 1806 0821 01080000 		.4byte	0x801
 1807 0825 01       		.uleb128 0x1
 1808 0826 50       		.byte	0x50
 1809 0827 00       		.byte	0
 1810 0828 20       		.uleb128 0x20
 1811 0829 7D000000 		.4byte	.LASF120
 1812 082d 01       		.byte	0x1
 1813 082e 72       		.byte	0x72
 1814 082f 00000000 		.4byte	.LFB242
 1815 0833 0C000000 		.4byte	.LFE242-.LFB242
 1816 0837 01       		.uleb128 0x1
 1817 0838 9C       		.byte	0x9c
 1818 0839 5A080000 		.4byte	0x85a
 1819 083d 21       		.uleb128 0x21
 1820 083e 746D7000 		.ascii	"tmp\000"
 1821 0842 01       		.byte	0x1
 1822 0843 72       		.byte	0x72
 1823 0844 EF070000 		.4byte	0x7ef
 1824 0848 01       		.uleb128 0x1
 1825 0849 50       		.byte	0x50
 1826 084a 22       		.uleb128 0x22
ARM GAS  /tmp/ccjSXgYT.s 			page 61


 1827 084b B4070000 		.4byte	0x7b4
 1828 084f 00000000 		.4byte	.LBB14
 1829 0853 04000000 		.4byte	.LBE14-.LBB14
 1830 0857 01       		.byte	0x1
 1831 0858 74       		.byte	0x74
 1832 0859 00       		.byte	0
 1833 085a 20       		.uleb128 0x20
 1834 085b A8030000 		.4byte	.LASF121
 1835 085f 01       		.byte	0x1
 1836 0860 7F       		.byte	0x7f
 1837 0861 00000000 		.4byte	.LFB243
 1838 0865 44000000 		.4byte	.LFE243-.LFB243
 1839 0869 01       		.uleb128 0x1
 1840 086a 9C       		.byte	0x9c
 1841 086b B5080000 		.4byte	0x8b5
 1842 086f 21       		.uleb128 0x21
 1843 0870 746D7000 		.ascii	"tmp\000"
 1844 0874 01       		.byte	0x1
 1845 0875 7F       		.byte	0x7f
 1846 0876 EF070000 		.4byte	0x7ef
 1847 087a 01       		.uleb128 0x1
 1848 087b 50       		.byte	0x50
 1849 087c 23       		.uleb128 0x23
 1850 087d B4070000 		.4byte	0x7b4
 1851 0881 00000000 		.4byte	.LBB16
 1852 0885 00000000 		.4byte	.Ldebug_ranges0+0
 1853 0889 01       		.byte	0x1
 1854 088a 81       		.byte	0x81
 1855 088b 24       		.uleb128 0x24
 1856 088c C1070000 		.4byte	0x7c1
 1857 0890 08000000 		.4byte	.LBB20
 1858 0894 18000000 		.4byte	.Ldebug_ranges0+0x18
 1859 0898 01       		.byte	0x1
 1860 0899 81       		.byte	0x81
 1861 089a 25       		.uleb128 0x25
 1862 089b E3070000 		.4byte	0x7e3
 1863 089f 00000000 		.4byte	.LLST0
 1864 08a3 25       		.uleb128 0x25
 1865 08a4 D8070000 		.4byte	0x7d8
 1866 08a8 13000000 		.4byte	.LLST1
 1867 08ac 1F       		.uleb128 0x1f
 1868 08ad CD070000 		.4byte	0x7cd
 1869 08b1 01       		.uleb128 0x1
 1870 08b2 50       		.byte	0x50
 1871 08b3 00       		.byte	0
 1872 08b4 00       		.byte	0
 1873 08b5 20       		.uleb128 0x20
 1874 08b6 38040000 		.4byte	.LASF122
 1875 08ba 01       		.byte	0x1
 1876 08bb 4D       		.byte	0x4d
 1877 08bc 00000000 		.4byte	.LFB240
 1878 08c0 38000000 		.4byte	.LFE240-.LFB240
 1879 08c4 01       		.uleb128 0x1
 1880 08c5 9C       		.byte	0x9c
 1881 08c6 19090000 		.4byte	0x919
 1882 08ca 26       		.uleb128 0x26
 1883 08cb 746D00   		.ascii	"tm\000"
ARM GAS  /tmp/ccjSXgYT.s 			page 62


 1884 08ce 01       		.byte	0x1
 1885 08cf 4E       		.byte	0x4e
 1886 08d0 AA060000 		.4byte	0x6aa
 1887 08d4 02       		.uleb128 0x2
 1888 08d5 91       		.byte	0x91
 1889 08d6 58       		.sleb128 -40
 1890 08d7 27       		.uleb128 0x27
 1891 08d8 F5070000 		.4byte	0x7f5
 1892 08dc 08000000 		.4byte	.LBB24
 1893 08e0 30000000 		.4byte	.Ldebug_ranges0+0x30
 1894 08e4 01       		.byte	0x1
 1895 08e5 54       		.byte	0x54
 1896 08e6 F4080000 		.4byte	0x8f4
 1897 08ea 25       		.uleb128 0x25
 1898 08eb 01080000 		.4byte	0x801
 1899 08ef 26000000 		.4byte	.LLST2
 1900 08f3 00       		.byte	0
 1901 08f4 28       		.uleb128 0x28
 1902 08f5 24000000 		.4byte	.LVL7
 1903 08f9 28080000 		.4byte	0x828
 1904 08fd 08090000 		.4byte	0x908
 1905 0901 29       		.uleb128 0x29
 1906 0902 01       		.uleb128 0x1
 1907 0903 50       		.byte	0x50
 1908 0904 02       		.uleb128 0x2
 1909 0905 7D       		.byte	0x7d
 1910 0906 00       		.sleb128 0
 1911 0907 00       		.byte	0
 1912 0908 2A       		.uleb128 0x2a
 1913 0909 2A000000 		.4byte	.LVL8
 1914 090d 5A080000 		.4byte	0x85a
 1915 0911 29       		.uleb128 0x29
 1916 0912 01       		.uleb128 0x1
 1917 0913 50       		.byte	0x50
 1918 0914 02       		.uleb128 0x2
 1919 0915 7D       		.byte	0x7d
 1920 0916 00       		.sleb128 0
 1921 0917 00       		.byte	0
 1922 0918 00       		.byte	0
 1923 0919 20       		.uleb128 0x20
 1924 091a E7020000 		.4byte	.LASF123
 1925 091e 01       		.byte	0x1
 1926 091f 90       		.byte	0x90
 1927 0920 00000000 		.4byte	.LFB244
 1928 0924 3C000000 		.4byte	.LFE244-.LFB244
 1929 0928 01       		.uleb128 0x1
 1930 0929 9C       		.byte	0x9c
 1931 092a 80090000 		.4byte	0x980
 1932 092e 2B       		.uleb128 0x2b
 1933 092f 10000000 		.4byte	.LASF124
 1934 0933 01       		.byte	0x1
 1935 0934 90       		.byte	0x90
 1936 0935 EF070000 		.4byte	0x7ef
 1937 0939 01       		.uleb128 0x1
 1938 093a 50       		.byte	0x50
 1939 093b 2C       		.uleb128 0x2c
 1940 093c 15000000 		.4byte	.LASF125
ARM GAS  /tmp/ccjSXgYT.s 			page 63


 1941 0940 01       		.byte	0x1
 1942 0941 91       		.byte	0x91
 1943 0942 EF070000 		.4byte	0x7ef
 1944 0946 5E000000 		.4byte	.LLST3
 1945 094a 23       		.uleb128 0x23
 1946 094b B4070000 		.4byte	0x7b4
 1947 094f 00000000 		.4byte	.LBB30
 1948 0953 50000000 		.4byte	.Ldebug_ranges0+0x50
 1949 0957 01       		.byte	0x1
 1950 0958 94       		.byte	0x94
 1951 0959 2D       		.uleb128 0x2d
 1952 095a C1070000 		.4byte	0x7c1
 1953 095e 08000000 		.4byte	.LBB34
 1954 0962 2C000000 		.4byte	.LBE34-.LBB34
 1955 0966 01       		.byte	0x1
 1956 0967 97       		.byte	0x97
 1957 0968 2E       		.uleb128 0x2e
 1958 0969 E3070000 		.4byte	0x7e3
 1959 096d 00       		.byte	0
 1960 096e 25       		.uleb128 0x25
 1961 096f D8070000 		.4byte	0x7d8
 1962 0973 7F000000 		.4byte	.LLST4
 1963 0977 1F       		.uleb128 0x1f
 1964 0978 CD070000 		.4byte	0x7cd
 1965 097c 01       		.uleb128 0x1
 1966 097d 50       		.byte	0x50
 1967 097e 00       		.byte	0
 1968 097f 00       		.byte	0
 1969 0980 2F       		.uleb128 0x2f
 1970 0981 FA030000 		.4byte	.LASF126
 1971 0985 08       		.byte	0x8
 1972 0986 4407     		.2byte	0x744
 1973 0988 8C090000 		.4byte	0x98c
 1974 098c 0F       		.uleb128 0xf
 1975 098d A2000000 		.4byte	0xa2
 1976 0991 30       		.uleb128 0x30
 1977 0992 636800   		.ascii	"ch\000"
 1978 0995 07       		.byte	0x7
 1979 0996 D201     		.2byte	0x1d2
 1980 0998 DC030000 		.4byte	0x3dc
 1981 099c 00       		.byte	0
 1982              		.section	.debug_abbrev,"",%progbits
 1983              	.Ldebug_abbrev0:
 1984 0000 01       		.uleb128 0x1
 1985 0001 11       		.uleb128 0x11
 1986 0002 01       		.byte	0x1
 1987 0003 25       		.uleb128 0x25
 1988 0004 0E       		.uleb128 0xe
 1989 0005 13       		.uleb128 0x13
 1990 0006 0B       		.uleb128 0xb
 1991 0007 03       		.uleb128 0x3
 1992 0008 0E       		.uleb128 0xe
 1993 0009 1B       		.uleb128 0x1b
 1994 000a 0E       		.uleb128 0xe
 1995 000b 55       		.uleb128 0x55
 1996 000c 17       		.uleb128 0x17
 1997 000d 11       		.uleb128 0x11
ARM GAS  /tmp/ccjSXgYT.s 			page 64


 1998 000e 01       		.uleb128 0x1
 1999 000f 10       		.uleb128 0x10
 2000 0010 17       		.uleb128 0x17
 2001 0011 00       		.byte	0
 2002 0012 00       		.byte	0
 2003 0013 02       		.uleb128 0x2
 2004 0014 24       		.uleb128 0x24
 2005 0015 00       		.byte	0
 2006 0016 0B       		.uleb128 0xb
 2007 0017 0B       		.uleb128 0xb
 2008 0018 3E       		.uleb128 0x3e
 2009 0019 0B       		.uleb128 0xb
 2010 001a 03       		.uleb128 0x3
 2011 001b 08       		.uleb128 0x8
 2012 001c 00       		.byte	0
 2013 001d 00       		.byte	0
 2014 001e 03       		.uleb128 0x3
 2015 001f 24       		.uleb128 0x24
 2016 0020 00       		.byte	0
 2017 0021 0B       		.uleb128 0xb
 2018 0022 0B       		.uleb128 0xb
 2019 0023 3E       		.uleb128 0x3e
 2020 0024 0B       		.uleb128 0xb
 2021 0025 03       		.uleb128 0x3
 2022 0026 0E       		.uleb128 0xe
 2023 0027 00       		.byte	0
 2024 0028 00       		.byte	0
 2025 0029 04       		.uleb128 0x4
 2026 002a 16       		.uleb128 0x16
 2027 002b 00       		.byte	0
 2028 002c 03       		.uleb128 0x3
 2029 002d 0E       		.uleb128 0xe
 2030 002e 3A       		.uleb128 0x3a
 2031 002f 0B       		.uleb128 0xb
 2032 0030 3B       		.uleb128 0x3b
 2033 0031 0B       		.uleb128 0xb
 2034 0032 49       		.uleb128 0x49
 2035 0033 13       		.uleb128 0x13
 2036 0034 00       		.byte	0
 2037 0035 00       		.byte	0
 2038 0036 05       		.uleb128 0x5
 2039 0037 13       		.uleb128 0x13
 2040 0038 01       		.byte	0x1
 2041 0039 03       		.uleb128 0x3
 2042 003a 0E       		.uleb128 0xe
 2043 003b 0B       		.uleb128 0xb
 2044 003c 0B       		.uleb128 0xb
 2045 003d 3A       		.uleb128 0x3a
 2046 003e 0B       		.uleb128 0xb
 2047 003f 3B       		.uleb128 0x3b
 2048 0040 0B       		.uleb128 0xb
 2049 0041 01       		.uleb128 0x1
 2050 0042 13       		.uleb128 0x13
 2051 0043 00       		.byte	0
 2052 0044 00       		.byte	0
 2053 0045 06       		.uleb128 0x6
 2054 0046 0D       		.uleb128 0xd
ARM GAS  /tmp/ccjSXgYT.s 			page 65


 2055 0047 00       		.byte	0
 2056 0048 03       		.uleb128 0x3
 2057 0049 0E       		.uleb128 0xe
 2058 004a 3A       		.uleb128 0x3a
 2059 004b 0B       		.uleb128 0xb
 2060 004c 3B       		.uleb128 0x3b
 2061 004d 0B       		.uleb128 0xb
 2062 004e 49       		.uleb128 0x49
 2063 004f 13       		.uleb128 0x13
 2064 0050 38       		.uleb128 0x38
 2065 0051 0B       		.uleb128 0xb
 2066 0052 00       		.byte	0
 2067 0053 00       		.byte	0
 2068 0054 07       		.uleb128 0x7
 2069 0055 0D       		.uleb128 0xd
 2070 0056 00       		.byte	0
 2071 0057 03       		.uleb128 0x3
 2072 0058 08       		.uleb128 0x8
 2073 0059 3A       		.uleb128 0x3a
 2074 005a 0B       		.uleb128 0xb
 2075 005b 3B       		.uleb128 0x3b
 2076 005c 0B       		.uleb128 0xb
 2077 005d 49       		.uleb128 0x49
 2078 005e 13       		.uleb128 0x13
 2079 005f 38       		.uleb128 0x38
 2080 0060 0B       		.uleb128 0xb
 2081 0061 00       		.byte	0
 2082 0062 00       		.byte	0
 2083 0063 08       		.uleb128 0x8
 2084 0064 0D       		.uleb128 0xd
 2085 0065 00       		.byte	0
 2086 0066 03       		.uleb128 0x3
 2087 0067 08       		.uleb128 0x8
 2088 0068 3A       		.uleb128 0x3a
 2089 0069 0B       		.uleb128 0xb
 2090 006a 3B       		.uleb128 0x3b
 2091 006b 05       		.uleb128 0x5
 2092 006c 49       		.uleb128 0x49
 2093 006d 13       		.uleb128 0x13
 2094 006e 38       		.uleb128 0x38
 2095 006f 0B       		.uleb128 0xb
 2096 0070 00       		.byte	0
 2097 0071 00       		.byte	0
 2098 0072 09       		.uleb128 0x9
 2099 0073 0D       		.uleb128 0xd
 2100 0074 00       		.byte	0
 2101 0075 03       		.uleb128 0x3
 2102 0076 0E       		.uleb128 0xe
 2103 0077 3A       		.uleb128 0x3a
 2104 0078 0B       		.uleb128 0xb
 2105 0079 3B       		.uleb128 0x3b
 2106 007a 05       		.uleb128 0x5
 2107 007b 49       		.uleb128 0x49
 2108 007c 13       		.uleb128 0x13
 2109 007d 38       		.uleb128 0x38
 2110 007e 0B       		.uleb128 0xb
 2111 007f 00       		.byte	0
ARM GAS  /tmp/ccjSXgYT.s 			page 66


 2112 0080 00       		.byte	0
 2113 0081 0A       		.uleb128 0xa
 2114 0082 0F       		.uleb128 0xf
 2115 0083 00       		.byte	0
 2116 0084 0B       		.uleb128 0xb
 2117 0085 0B       		.uleb128 0xb
 2118 0086 49       		.uleb128 0x49
 2119 0087 13       		.uleb128 0x13
 2120 0088 00       		.byte	0
 2121 0089 00       		.byte	0
 2122 008a 0B       		.uleb128 0xb
 2123 008b 13       		.uleb128 0x13
 2124 008c 01       		.byte	0x1
 2125 008d 03       		.uleb128 0x3
 2126 008e 0E       		.uleb128 0xe
 2127 008f 0B       		.uleb128 0xb
 2128 0090 0B       		.uleb128 0xb
 2129 0091 3A       		.uleb128 0x3a
 2130 0092 0B       		.uleb128 0xb
 2131 0093 3B       		.uleb128 0x3b
 2132 0094 05       		.uleb128 0x5
 2133 0095 01       		.uleb128 0x1
 2134 0096 13       		.uleb128 0x13
 2135 0097 00       		.byte	0
 2136 0098 00       		.byte	0
 2137 0099 0C       		.uleb128 0xc
 2138 009a 15       		.uleb128 0x15
 2139 009b 01       		.byte	0x1
 2140 009c 27       		.uleb128 0x27
 2141 009d 19       		.uleb128 0x19
 2142 009e 01       		.uleb128 0x1
 2143 009f 13       		.uleb128 0x13
 2144 00a0 00       		.byte	0
 2145 00a1 00       		.byte	0
 2146 00a2 0D       		.uleb128 0xd
 2147 00a3 05       		.uleb128 0x5
 2148 00a4 00       		.byte	0
 2149 00a5 49       		.uleb128 0x49
 2150 00a6 13       		.uleb128 0x13
 2151 00a7 00       		.byte	0
 2152 00a8 00       		.byte	0
 2153 00a9 0E       		.uleb128 0xe
 2154 00aa 0F       		.uleb128 0xf
 2155 00ab 00       		.byte	0
 2156 00ac 0B       		.uleb128 0xb
 2157 00ad 0B       		.uleb128 0xb
 2158 00ae 00       		.byte	0
 2159 00af 00       		.byte	0
 2160 00b0 0F       		.uleb128 0xf
 2161 00b1 35       		.uleb128 0x35
 2162 00b2 00       		.byte	0
 2163 00b3 49       		.uleb128 0x49
 2164 00b4 13       		.uleb128 0x13
 2165 00b5 00       		.byte	0
 2166 00b6 00       		.byte	0
 2167 00b7 10       		.uleb128 0x10
 2168 00b8 26       		.uleb128 0x26
ARM GAS  /tmp/ccjSXgYT.s 			page 67


 2169 00b9 00       		.byte	0
 2170 00ba 49       		.uleb128 0x49
 2171 00bb 13       		.uleb128 0x13
 2172 00bc 00       		.byte	0
 2173 00bd 00       		.byte	0
 2174 00be 11       		.uleb128 0x11
 2175 00bf 01       		.uleb128 0x1
 2176 00c0 01       		.byte	0x1
 2177 00c1 49       		.uleb128 0x49
 2178 00c2 13       		.uleb128 0x13
 2179 00c3 01       		.uleb128 0x1
 2180 00c4 13       		.uleb128 0x13
 2181 00c5 00       		.byte	0
 2182 00c6 00       		.byte	0
 2183 00c7 12       		.uleb128 0x12
 2184 00c8 21       		.uleb128 0x21
 2185 00c9 00       		.byte	0
 2186 00ca 49       		.uleb128 0x49
 2187 00cb 13       		.uleb128 0x13
 2188 00cc 2F       		.uleb128 0x2f
 2189 00cd 0B       		.uleb128 0xb
 2190 00ce 00       		.byte	0
 2191 00cf 00       		.byte	0
 2192 00d0 13       		.uleb128 0x13
 2193 00d1 13       		.uleb128 0x13
 2194 00d2 01       		.byte	0x1
 2195 00d3 0B       		.uleb128 0xb
 2196 00d4 0B       		.uleb128 0xb
 2197 00d5 3A       		.uleb128 0x3a
 2198 00d6 0B       		.uleb128 0xb
 2199 00d7 3B       		.uleb128 0x3b
 2200 00d8 05       		.uleb128 0x5
 2201 00d9 01       		.uleb128 0x1
 2202 00da 13       		.uleb128 0x13
 2203 00db 00       		.byte	0
 2204 00dc 00       		.byte	0
 2205 00dd 14       		.uleb128 0x14
 2206 00de 16       		.uleb128 0x16
 2207 00df 00       		.byte	0
 2208 00e0 03       		.uleb128 0x3
 2209 00e1 0E       		.uleb128 0xe
 2210 00e2 3A       		.uleb128 0x3a
 2211 00e3 0B       		.uleb128 0xb
 2212 00e4 3B       		.uleb128 0x3b
 2213 00e5 05       		.uleb128 0x5
 2214 00e6 49       		.uleb128 0x49
 2215 00e7 13       		.uleb128 0x13
 2216 00e8 00       		.byte	0
 2217 00e9 00       		.byte	0
 2218 00ea 15       		.uleb128 0x15
 2219 00eb 13       		.uleb128 0x13
 2220 00ec 01       		.byte	0x1
 2221 00ed 0B       		.uleb128 0xb
 2222 00ee 0B       		.uleb128 0xb
 2223 00ef 3A       		.uleb128 0x3a
 2224 00f0 0B       		.uleb128 0xb
 2225 00f1 3B       		.uleb128 0x3b
ARM GAS  /tmp/ccjSXgYT.s 			page 68


 2226 00f2 0B       		.uleb128 0xb
 2227 00f3 01       		.uleb128 0x1
 2228 00f4 13       		.uleb128 0x13
 2229 00f5 00       		.byte	0
 2230 00f6 00       		.byte	0
 2231 00f7 16       		.uleb128 0x16
 2232 00f8 17       		.uleb128 0x17
 2233 00f9 01       		.byte	0x1
 2234 00fa 0B       		.uleb128 0xb
 2235 00fb 0B       		.uleb128 0xb
 2236 00fc 3A       		.uleb128 0x3a
 2237 00fd 0B       		.uleb128 0xb
 2238 00fe 3B       		.uleb128 0x3b
 2239 00ff 0B       		.uleb128 0xb
 2240 0100 01       		.uleb128 0x1
 2241 0101 13       		.uleb128 0x13
 2242 0102 00       		.byte	0
 2243 0103 00       		.byte	0
 2244 0104 17       		.uleb128 0x17
 2245 0105 0D       		.uleb128 0xd
 2246 0106 00       		.byte	0
 2247 0107 03       		.uleb128 0x3
 2248 0108 0E       		.uleb128 0xe
 2249 0109 3A       		.uleb128 0x3a
 2250 010a 0B       		.uleb128 0xb
 2251 010b 3B       		.uleb128 0x3b
 2252 010c 0B       		.uleb128 0xb
 2253 010d 49       		.uleb128 0x49
 2254 010e 13       		.uleb128 0x13
 2255 010f 00       		.byte	0
 2256 0110 00       		.byte	0
 2257 0111 18       		.uleb128 0x18
 2258 0112 0D       		.uleb128 0xd
 2259 0113 00       		.byte	0
 2260 0114 03       		.uleb128 0x3
 2261 0115 0E       		.uleb128 0xe
 2262 0116 3A       		.uleb128 0x3a
 2263 0117 0B       		.uleb128 0xb
 2264 0118 3B       		.uleb128 0x3b
 2265 0119 05       		.uleb128 0x5
 2266 011a 49       		.uleb128 0x49
 2267 011b 13       		.uleb128 0x13
 2268 011c 00       		.byte	0
 2269 011d 00       		.byte	0
 2270 011e 19       		.uleb128 0x19
 2271 011f 2E       		.uleb128 0x2e
 2272 0120 00       		.byte	0
 2273 0121 03       		.uleb128 0x3
 2274 0122 0E       		.uleb128 0xe
 2275 0123 3A       		.uleb128 0x3a
 2276 0124 0B       		.uleb128 0xb
 2277 0125 3B       		.uleb128 0x3b
 2278 0126 05       		.uleb128 0x5
 2279 0127 27       		.uleb128 0x27
 2280 0128 19       		.uleb128 0x19
 2281 0129 49       		.uleb128 0x49
 2282 012a 13       		.uleb128 0x13
ARM GAS  /tmp/ccjSXgYT.s 			page 69


 2283 012b 20       		.uleb128 0x20
 2284 012c 0B       		.uleb128 0xb
 2285 012d 00       		.byte	0
 2286 012e 00       		.byte	0
 2287 012f 1A       		.uleb128 0x1a
 2288 0130 2E       		.uleb128 0x2e
 2289 0131 01       		.byte	0x1
 2290 0132 03       		.uleb128 0x3
 2291 0133 0E       		.uleb128 0xe
 2292 0134 3A       		.uleb128 0x3a
 2293 0135 0B       		.uleb128 0xb
 2294 0136 3B       		.uleb128 0x3b
 2295 0137 0B       		.uleb128 0xb
 2296 0138 27       		.uleb128 0x27
 2297 0139 19       		.uleb128 0x19
 2298 013a 20       		.uleb128 0x20
 2299 013b 0B       		.uleb128 0xb
 2300 013c 01       		.uleb128 0x1
 2301 013d 13       		.uleb128 0x13
 2302 013e 00       		.byte	0
 2303 013f 00       		.byte	0
 2304 0140 1B       		.uleb128 0x1b
 2305 0141 05       		.uleb128 0x5
 2306 0142 00       		.byte	0
 2307 0143 03       		.uleb128 0x3
 2308 0144 08       		.uleb128 0x8
 2309 0145 3A       		.uleb128 0x3a
 2310 0146 0B       		.uleb128 0xb
 2311 0147 3B       		.uleb128 0x3b
 2312 0148 0B       		.uleb128 0xb
 2313 0149 49       		.uleb128 0x49
 2314 014a 13       		.uleb128 0x13
 2315 014b 00       		.byte	0
 2316 014c 00       		.byte	0
 2317 014d 1C       		.uleb128 0x1c
 2318 014e 05       		.uleb128 0x5
 2319 014f 00       		.byte	0
 2320 0150 03       		.uleb128 0x3
 2321 0151 0E       		.uleb128 0xe
 2322 0152 3A       		.uleb128 0x3a
 2323 0153 0B       		.uleb128 0xb
 2324 0154 3B       		.uleb128 0x3b
 2325 0155 0B       		.uleb128 0xb
 2326 0156 49       		.uleb128 0x49
 2327 0157 13       		.uleb128 0x13
 2328 0158 00       		.byte	0
 2329 0159 00       		.byte	0
 2330 015a 1D       		.uleb128 0x1d
 2331 015b 2E       		.uleb128 0x2e
 2332 015c 01       		.byte	0x1
 2333 015d 3F       		.uleb128 0x3f
 2334 015e 19       		.uleb128 0x19
 2335 015f 03       		.uleb128 0x3
 2336 0160 0E       		.uleb128 0xe
 2337 0161 3A       		.uleb128 0x3a
 2338 0162 0B       		.uleb128 0xb
 2339 0163 3B       		.uleb128 0x3b
ARM GAS  /tmp/ccjSXgYT.s 			page 70


 2340 0164 0B       		.uleb128 0xb
 2341 0165 27       		.uleb128 0x27
 2342 0166 19       		.uleb128 0x19
 2343 0167 20       		.uleb128 0x20
 2344 0168 0B       		.uleb128 0xb
 2345 0169 01       		.uleb128 0x1
 2346 016a 13       		.uleb128 0x13
 2347 016b 00       		.byte	0
 2348 016c 00       		.byte	0
 2349 016d 1E       		.uleb128 0x1e
 2350 016e 2E       		.uleb128 0x2e
 2351 016f 01       		.byte	0x1
 2352 0170 31       		.uleb128 0x31
 2353 0171 13       		.uleb128 0x13
 2354 0172 11       		.uleb128 0x11
 2355 0173 01       		.uleb128 0x1
 2356 0174 12       		.uleb128 0x12
 2357 0175 06       		.uleb128 0x6
 2358 0176 40       		.uleb128 0x40
 2359 0177 18       		.uleb128 0x18
 2360 0178 9742     		.uleb128 0x2117
 2361 017a 19       		.uleb128 0x19
 2362 017b 01       		.uleb128 0x1
 2363 017c 13       		.uleb128 0x13
 2364 017d 00       		.byte	0
 2365 017e 00       		.byte	0
 2366 017f 1F       		.uleb128 0x1f
 2367 0180 05       		.uleb128 0x5
 2368 0181 00       		.byte	0
 2369 0182 31       		.uleb128 0x31
 2370 0183 13       		.uleb128 0x13
 2371 0184 02       		.uleb128 0x2
 2372 0185 18       		.uleb128 0x18
 2373 0186 00       		.byte	0
 2374 0187 00       		.byte	0
 2375 0188 20       		.uleb128 0x20
 2376 0189 2E       		.uleb128 0x2e
 2377 018a 01       		.byte	0x1
 2378 018b 3F       		.uleb128 0x3f
 2379 018c 19       		.uleb128 0x19
 2380 018d 03       		.uleb128 0x3
 2381 018e 0E       		.uleb128 0xe
 2382 018f 3A       		.uleb128 0x3a
 2383 0190 0B       		.uleb128 0xb
 2384 0191 3B       		.uleb128 0x3b
 2385 0192 0B       		.uleb128 0xb
 2386 0193 27       		.uleb128 0x27
 2387 0194 19       		.uleb128 0x19
 2388 0195 11       		.uleb128 0x11
 2389 0196 01       		.uleb128 0x1
 2390 0197 12       		.uleb128 0x12
 2391 0198 06       		.uleb128 0x6
 2392 0199 40       		.uleb128 0x40
 2393 019a 18       		.uleb128 0x18
 2394 019b 9742     		.uleb128 0x2117
 2395 019d 19       		.uleb128 0x19
 2396 019e 01       		.uleb128 0x1
ARM GAS  /tmp/ccjSXgYT.s 			page 71


 2397 019f 13       		.uleb128 0x13
 2398 01a0 00       		.byte	0
 2399 01a1 00       		.byte	0
 2400 01a2 21       		.uleb128 0x21
 2401 01a3 05       		.uleb128 0x5
 2402 01a4 00       		.byte	0
 2403 01a5 03       		.uleb128 0x3
 2404 01a6 08       		.uleb128 0x8
 2405 01a7 3A       		.uleb128 0x3a
 2406 01a8 0B       		.uleb128 0xb
 2407 01a9 3B       		.uleb128 0x3b
 2408 01aa 0B       		.uleb128 0xb
 2409 01ab 49       		.uleb128 0x49
 2410 01ac 13       		.uleb128 0x13
 2411 01ad 02       		.uleb128 0x2
 2412 01ae 18       		.uleb128 0x18
 2413 01af 00       		.byte	0
 2414 01b0 00       		.byte	0
 2415 01b1 22       		.uleb128 0x22
 2416 01b2 1D       		.uleb128 0x1d
 2417 01b3 00       		.byte	0
 2418 01b4 31       		.uleb128 0x31
 2419 01b5 13       		.uleb128 0x13
 2420 01b6 11       		.uleb128 0x11
 2421 01b7 01       		.uleb128 0x1
 2422 01b8 12       		.uleb128 0x12
 2423 01b9 06       		.uleb128 0x6
 2424 01ba 58       		.uleb128 0x58
 2425 01bb 0B       		.uleb128 0xb
 2426 01bc 59       		.uleb128 0x59
 2427 01bd 0B       		.uleb128 0xb
 2428 01be 00       		.byte	0
 2429 01bf 00       		.byte	0
 2430 01c0 23       		.uleb128 0x23
 2431 01c1 1D       		.uleb128 0x1d
 2432 01c2 00       		.byte	0
 2433 01c3 31       		.uleb128 0x31
 2434 01c4 13       		.uleb128 0x13
 2435 01c5 52       		.uleb128 0x52
 2436 01c6 01       		.uleb128 0x1
 2437 01c7 55       		.uleb128 0x55
 2438 01c8 17       		.uleb128 0x17
 2439 01c9 58       		.uleb128 0x58
 2440 01ca 0B       		.uleb128 0xb
 2441 01cb 59       		.uleb128 0x59
 2442 01cc 0B       		.uleb128 0xb
 2443 01cd 00       		.byte	0
 2444 01ce 00       		.byte	0
 2445 01cf 24       		.uleb128 0x24
 2446 01d0 1D       		.uleb128 0x1d
 2447 01d1 01       		.byte	0x1
 2448 01d2 31       		.uleb128 0x31
 2449 01d3 13       		.uleb128 0x13
 2450 01d4 52       		.uleb128 0x52
 2451 01d5 01       		.uleb128 0x1
 2452 01d6 55       		.uleb128 0x55
 2453 01d7 17       		.uleb128 0x17
ARM GAS  /tmp/ccjSXgYT.s 			page 72


 2454 01d8 58       		.uleb128 0x58
 2455 01d9 0B       		.uleb128 0xb
 2456 01da 59       		.uleb128 0x59
 2457 01db 0B       		.uleb128 0xb
 2458 01dc 00       		.byte	0
 2459 01dd 00       		.byte	0
 2460 01de 25       		.uleb128 0x25
 2461 01df 05       		.uleb128 0x5
 2462 01e0 00       		.byte	0
 2463 01e1 31       		.uleb128 0x31
 2464 01e2 13       		.uleb128 0x13
 2465 01e3 02       		.uleb128 0x2
 2466 01e4 17       		.uleb128 0x17
 2467 01e5 00       		.byte	0
 2468 01e6 00       		.byte	0
 2469 01e7 26       		.uleb128 0x26
 2470 01e8 34       		.uleb128 0x34
 2471 01e9 00       		.byte	0
 2472 01ea 03       		.uleb128 0x3
 2473 01eb 08       		.uleb128 0x8
 2474 01ec 3A       		.uleb128 0x3a
 2475 01ed 0B       		.uleb128 0xb
 2476 01ee 3B       		.uleb128 0x3b
 2477 01ef 0B       		.uleb128 0xb
 2478 01f0 49       		.uleb128 0x49
 2479 01f1 13       		.uleb128 0x13
 2480 01f2 02       		.uleb128 0x2
 2481 01f3 18       		.uleb128 0x18
 2482 01f4 00       		.byte	0
 2483 01f5 00       		.byte	0
 2484 01f6 27       		.uleb128 0x27
 2485 01f7 1D       		.uleb128 0x1d
 2486 01f8 01       		.byte	0x1
 2487 01f9 31       		.uleb128 0x31
 2488 01fa 13       		.uleb128 0x13
 2489 01fb 52       		.uleb128 0x52
 2490 01fc 01       		.uleb128 0x1
 2491 01fd 55       		.uleb128 0x55
 2492 01fe 17       		.uleb128 0x17
 2493 01ff 58       		.uleb128 0x58
 2494 0200 0B       		.uleb128 0xb
 2495 0201 59       		.uleb128 0x59
 2496 0202 0B       		.uleb128 0xb
 2497 0203 01       		.uleb128 0x1
 2498 0204 13       		.uleb128 0x13
 2499 0205 00       		.byte	0
 2500 0206 00       		.byte	0
 2501 0207 28       		.uleb128 0x28
 2502 0208 898201   		.uleb128 0x4109
 2503 020b 01       		.byte	0x1
 2504 020c 11       		.uleb128 0x11
 2505 020d 01       		.uleb128 0x1
 2506 020e 31       		.uleb128 0x31
 2507 020f 13       		.uleb128 0x13
 2508 0210 01       		.uleb128 0x1
 2509 0211 13       		.uleb128 0x13
 2510 0212 00       		.byte	0
ARM GAS  /tmp/ccjSXgYT.s 			page 73


 2511 0213 00       		.byte	0
 2512 0214 29       		.uleb128 0x29
 2513 0215 8A8201   		.uleb128 0x410a
 2514 0218 00       		.byte	0
 2515 0219 02       		.uleb128 0x2
 2516 021a 18       		.uleb128 0x18
 2517 021b 9142     		.uleb128 0x2111
 2518 021d 18       		.uleb128 0x18
 2519 021e 00       		.byte	0
 2520 021f 00       		.byte	0
 2521 0220 2A       		.uleb128 0x2a
 2522 0221 898201   		.uleb128 0x4109
 2523 0224 01       		.byte	0x1
 2524 0225 11       		.uleb128 0x11
 2525 0226 01       		.uleb128 0x1
 2526 0227 31       		.uleb128 0x31
 2527 0228 13       		.uleb128 0x13
 2528 0229 00       		.byte	0
 2529 022a 00       		.byte	0
 2530 022b 2B       		.uleb128 0x2b
 2531 022c 05       		.uleb128 0x5
 2532 022d 00       		.byte	0
 2533 022e 03       		.uleb128 0x3
 2534 022f 0E       		.uleb128 0xe
 2535 0230 3A       		.uleb128 0x3a
 2536 0231 0B       		.uleb128 0xb
 2537 0232 3B       		.uleb128 0x3b
 2538 0233 0B       		.uleb128 0xb
 2539 0234 49       		.uleb128 0x49
 2540 0235 13       		.uleb128 0x13
 2541 0236 02       		.uleb128 0x2
 2542 0237 18       		.uleb128 0x18
 2543 0238 00       		.byte	0
 2544 0239 00       		.byte	0
 2545 023a 2C       		.uleb128 0x2c
 2546 023b 05       		.uleb128 0x5
 2547 023c 00       		.byte	0
 2548 023d 03       		.uleb128 0x3
 2549 023e 0E       		.uleb128 0xe
 2550 023f 3A       		.uleb128 0x3a
 2551 0240 0B       		.uleb128 0xb
 2552 0241 3B       		.uleb128 0x3b
 2553 0242 0B       		.uleb128 0xb
 2554 0243 49       		.uleb128 0x49
 2555 0244 13       		.uleb128 0x13
 2556 0245 02       		.uleb128 0x2
 2557 0246 17       		.uleb128 0x17
 2558 0247 00       		.byte	0
 2559 0248 00       		.byte	0
 2560 0249 2D       		.uleb128 0x2d
 2561 024a 1D       		.uleb128 0x1d
 2562 024b 01       		.byte	0x1
 2563 024c 31       		.uleb128 0x31
 2564 024d 13       		.uleb128 0x13
 2565 024e 11       		.uleb128 0x11
 2566 024f 01       		.uleb128 0x1
 2567 0250 12       		.uleb128 0x12
ARM GAS  /tmp/ccjSXgYT.s 			page 74


 2568 0251 06       		.uleb128 0x6
 2569 0252 58       		.uleb128 0x58
 2570 0253 0B       		.uleb128 0xb
 2571 0254 59       		.uleb128 0x59
 2572 0255 0B       		.uleb128 0xb
 2573 0256 00       		.byte	0
 2574 0257 00       		.byte	0
 2575 0258 2E       		.uleb128 0x2e
 2576 0259 05       		.uleb128 0x5
 2577 025a 00       		.byte	0
 2578 025b 31       		.uleb128 0x31
 2579 025c 13       		.uleb128 0x13
 2580 025d 1C       		.uleb128 0x1c
 2581 025e 0B       		.uleb128 0xb
 2582 025f 00       		.byte	0
 2583 0260 00       		.byte	0
 2584 0261 2F       		.uleb128 0x2f
 2585 0262 34       		.uleb128 0x34
 2586 0263 00       		.byte	0
 2587 0264 03       		.uleb128 0x3
 2588 0265 0E       		.uleb128 0xe
 2589 0266 3A       		.uleb128 0x3a
 2590 0267 0B       		.uleb128 0xb
 2591 0268 3B       		.uleb128 0x3b
 2592 0269 05       		.uleb128 0x5
 2593 026a 49       		.uleb128 0x49
 2594 026b 13       		.uleb128 0x13
 2595 026c 3F       		.uleb128 0x3f
 2596 026d 19       		.uleb128 0x19
 2597 026e 3C       		.uleb128 0x3c
 2598 026f 19       		.uleb128 0x19
 2599 0270 00       		.byte	0
 2600 0271 00       		.byte	0
 2601 0272 30       		.uleb128 0x30
 2602 0273 34       		.uleb128 0x34
 2603 0274 00       		.byte	0
 2604 0275 03       		.uleb128 0x3
 2605 0276 08       		.uleb128 0x8
 2606 0277 3A       		.uleb128 0x3a
 2607 0278 0B       		.uleb128 0xb
 2608 0279 3B       		.uleb128 0x3b
 2609 027a 05       		.uleb128 0x5
 2610 027b 49       		.uleb128 0x49
 2611 027c 13       		.uleb128 0x13
 2612 027d 3F       		.uleb128 0x3f
 2613 027e 19       		.uleb128 0x19
 2614 027f 3C       		.uleb128 0x3c
 2615 0280 19       		.uleb128 0x19
 2616 0281 00       		.byte	0
 2617 0282 00       		.byte	0
 2618 0283 00       		.byte	0
 2619              		.section	.debug_loc,"",%progbits
 2620              	.Ldebug_loc0:
 2621              	.LLST0:
 2622 0000 0C000000 		.4byte	.LVL3
 2623 0004 3A000000 		.4byte	.LVL5
 2624 0008 0100     		.2byte	0x1
ARM GAS  /tmp/ccjSXgYT.s 			page 75


 2625 000a 57       		.byte	0x57
 2626 000b 00000000 		.4byte	0
 2627 000f 00000000 		.4byte	0
 2628              	.LLST1:
 2629 0013 0C000000 		.4byte	.LVL3
 2630 0017 16000000 		.4byte	.LVL4
 2631 001b 0100     		.2byte	0x1
 2632 001d 51       		.byte	0x51
 2633 001e 00000000 		.4byte	0
 2634 0022 00000000 		.4byte	0
 2635              	.LLST2:
 2636 0026 18000000 		.4byte	.LVL6
 2637 002a 23000000 		.4byte	.LVL7-1
 2638 002e 0100     		.2byte	0x1
 2639 0030 50       		.byte	0x50
 2640 0031 23000000 		.4byte	.LVL7-1
 2641 0035 30000000 		.4byte	.LVL9
 2642 0039 0100     		.2byte	0x1
 2643 003b 5D       		.byte	0x5d
 2644 003c 30000000 		.4byte	.LVL9
 2645 0040 32000000 		.4byte	.LVL10
 2646 0044 0300     		.2byte	0x3
 2647 0046 91       		.byte	0x91
 2648 0047 58       		.sleb128 -40
 2649 0048 9F       		.byte	0x9f
 2650 0049 32000000 		.4byte	.LVL10
 2651 004d 38000000 		.4byte	.LFE240
 2652 0051 0300     		.2byte	0x3
 2653 0053 7D       		.byte	0x7d
 2654 0054 58       		.sleb128 -40
 2655 0055 9F       		.byte	0x9f
 2656 0056 00000000 		.4byte	0
 2657 005a 00000000 		.4byte	0
 2658              	.LLST3:
 2659 005e 00000000 		.4byte	.LVL11
 2660 0062 0E000000 		.4byte	.LVL13
 2661 0066 0100     		.2byte	0x1
 2662 0068 51       		.byte	0x51
 2663 0069 0E000000 		.4byte	.LVL13
 2664 006d 3C000000 		.4byte	.LFE244
 2665 0071 0400     		.2byte	0x4
 2666 0073 F3       		.byte	0xf3
 2667 0074 01       		.uleb128 0x1
 2668 0075 51       		.byte	0x51
 2669 0076 9F       		.byte	0x9f
 2670 0077 00000000 		.4byte	0
 2671 007b 00000000 		.4byte	0
 2672              	.LLST4:
 2673 007f 08000000 		.4byte	.LVL12
 2674 0083 36000000 		.4byte	.LVL14
 2675 0087 0100     		.2byte	0x1
 2676 0089 54       		.byte	0x54
 2677 008a 00000000 		.4byte	0
 2678 008e 00000000 		.4byte	0
 2679              		.section	.debug_aranges,"",%progbits
 2680 0000 3C000000 		.4byte	0x3c
 2681 0004 0200     		.2byte	0x2
ARM GAS  /tmp/ccjSXgYT.s 			page 76


 2682 0006 00000000 		.4byte	.Ldebug_info0
 2683 000a 04       		.byte	0x4
 2684 000b 00       		.byte	0
 2685 000c 0000     		.2byte	0
 2686 000e 0000     		.2byte	0
 2687 0010 00000000 		.4byte	.LFB241
 2688 0014 18000000 		.4byte	.LFE241-.LFB241
 2689 0018 00000000 		.4byte	.LFB242
 2690 001c 0C000000 		.4byte	.LFE242-.LFB242
 2691 0020 00000000 		.4byte	.LFB243
 2692 0024 44000000 		.4byte	.LFE243-.LFB243
 2693 0028 00000000 		.4byte	.LFB240
 2694 002c 38000000 		.4byte	.LFE240-.LFB240
 2695 0030 00000000 		.4byte	.LFB244
 2696 0034 3C000000 		.4byte	.LFE244-.LFB244
 2697 0038 00000000 		.4byte	0
 2698 003c 00000000 		.4byte	0
 2699              		.section	.debug_ranges,"",%progbits
 2700              	.Ldebug_ranges0:
 2701 0000 00000000 		.4byte	.LBB16
 2702 0004 02000000 		.4byte	.LBE16
 2703 0008 04000000 		.4byte	.LBB19
 2704 000c 06000000 		.4byte	.LBE19
 2705 0010 00000000 		.4byte	0
 2706 0014 00000000 		.4byte	0
 2707 0018 08000000 		.4byte	.LBB20
 2708 001c 0A000000 		.4byte	.LBE20
 2709 0020 0C000000 		.4byte	.LBB23
 2710 0024 38000000 		.4byte	.LBE23
 2711 0028 00000000 		.4byte	0
 2712 002c 00000000 		.4byte	0
 2713 0030 08000000 		.4byte	.LBB24
 2714 0034 0C000000 		.4byte	.LBE24
 2715 0038 0E000000 		.4byte	.LBB28
 2716 003c 16000000 		.4byte	.LBE28
 2717 0040 18000000 		.4byte	.LBB29
 2718 0044 20000000 		.4byte	.LBE29
 2719 0048 00000000 		.4byte	0
 2720 004c 00000000 		.4byte	0
 2721 0050 00000000 		.4byte	.LBB30
 2722 0054 02000000 		.4byte	.LBE30
 2723 0058 04000000 		.4byte	.LBB33
 2724 005c 06000000 		.4byte	.LBE33
 2725 0060 00000000 		.4byte	0
 2726 0064 00000000 		.4byte	0
 2727 0068 00000000 		.4byte	.LFB241
 2728 006c 18000000 		.4byte	.LFE241
 2729 0070 00000000 		.4byte	.LFB242
 2730 0074 0C000000 		.4byte	.LFE242
 2731 0078 00000000 		.4byte	.LFB243
 2732 007c 44000000 		.4byte	.LFE243
 2733 0080 00000000 		.4byte	.LFB240
 2734 0084 38000000 		.4byte	.LFE240
 2735 0088 00000000 		.4byte	.LFB244
 2736 008c 3C000000 		.4byte	.LFE244
 2737 0090 00000000 		.4byte	0
 2738 0094 00000000 		.4byte	0
ARM GAS  /tmp/ccjSXgYT.s 			page 77


 2739              		.section	.debug_line,"",%progbits
 2740              	.Ldebug_line0:
 2741 0000 1C030000 		.section	.debug_str,"MS",%progbits,1
 2741      02003302 
 2741      00000201 
 2741      FB0E0D00 
 2741      01010101 
 2742              	.LASF47:
 2743 0000 63685F74 		.ascii	"ch_threads_list\000"
 2743      68726561 
 2743      64735F6C 
 2743      69737400 
 2744              	.LASF124:
 2745 0010 746D7031 		.ascii	"tmp1\000"
 2745      00
 2746              	.LASF125:
 2747 0015 746D7032 		.ascii	"tmp2\000"
 2747      00
 2748              	.LASF113:
 2749 001a 77746D74 		.ascii	"wtmtxp\000"
 2749      787000
 2750              	.LASF80:
 2751 0021 434F4D50 		.ascii	"COMP0\000"
 2751      3000
 2752              	.LASF84:
 2753 0027 434F4D50 		.ascii	"COMP1\000"
 2753      3100
 2754              	.LASF88:
 2755 002d 434F4D50 		.ascii	"COMP2\000"
 2755      3200
 2756              	.LASF92:
 2757 0033 434F4D50 		.ascii	"COMP3\000"
 2757      3300
 2758              	.LASF44:
 2759 0039 74687265 		.ascii	"thread_reference_t\000"
 2759      61645F72 
 2759      65666572 
 2759      656E6365 
 2759      5F7400
 2760              	.LASF96:
 2761 004c 72656761 		.ascii	"regarm_t\000"
 2761      726D5F74 
 2761      00
 2762              	.LASF132:
 2763 0055 6368544D 		.ascii	"chTMObjectInit\000"
 2763      4F626A65 
 2763      6374496E 
 2763      697400
 2764              	.LASF36:
 2765 0064 666C6167 		.ascii	"flags\000"
 2765      7300
 2766              	.LASF27:
 2767 006a 73797374 		.ascii	"systime_t\000"
 2767      696D655F 
 2767      7400
 2768              	.LASF42:
 2769 0074 7265616C 		.ascii	"realprio\000"
ARM GAS  /tmp/ccjSXgYT.s 			page 78


 2769      7072696F 
 2769      00
 2770              	.LASF120:
 2771 007d 6368544D 		.ascii	"chTMStartMeasurementX\000"
 2771      53746172 
 2771      744D6561 
 2771      73757265 
 2771      6D656E74 
 2772              	.LASF74:
 2773 0093 43504943 		.ascii	"CPICNT\000"
 2773      4E5400
 2774              	.LASF40:
 2775 009a 6570656E 		.ascii	"epending\000"
 2775      64696E67 
 2775      00
 2776              	.LASF0:
 2777 00a3 756E7369 		.ascii	"unsigned int\000"
 2777      676E6564 
 2777      20696E74 
 2777      00
 2778              	.LASF48:
 2779 00b0 6E657874 		.ascii	"next\000"
 2779      00
 2780              	.LASF45:
 2781 00b5 74687265 		.ascii	"threads_list_t\000"
 2781      6164735F 
 2781      6C697374 
 2781      5F7400
 2782              	.LASF105:
 2783 00c4 63756D75 		.ascii	"cumulative\000"
 2783      6C617469 
 2783      766500
 2784              	.LASF6:
 2785 00cf 5F5F696E 		.ascii	"__int32_t\000"
 2785      7433325F 
 2785      7400
 2786              	.LASF37:
 2787 00d9 72656673 		.ascii	"refs\000"
 2787      00
 2788              	.LASF128:
 2789 00de 2E2E2F43 		.ascii	"../ChibiOS/os/rt/src/chtm.c\000"
 2789      68696269 
 2789      4F532F6F 
 2789      732F7274 
 2789      2F737263 
 2790              	.LASF109:
 2791 00fa 77746F62 		.ascii	"wtobjp\000"
 2791      6A7000
 2792              	.LASF69:
 2793 0101 76746C69 		.ascii	"vtlist\000"
 2793      737400
 2794              	.LASF98:
 2795 0108 706F7274 		.ascii	"port_context\000"
 2795      5F636F6E 
 2795      74657874 
 2795      00
 2796              	.LASF53:
ARM GAS  /tmp/ccjSXgYT.s 			page 79


 2797 0115 63685F72 		.ascii	"ch_ready_list\000"
 2797      65616479 
 2797      5F6C6973 
 2797      7400
 2798              	.LASF59:
 2799 0123 66756E63 		.ascii	"func\000"
 2799      00
 2800              	.LASF114:
 2801 0128 65776D61 		.ascii	"ewmask\000"
 2801      736B00
 2802              	.LASF51:
 2803 012f 70726576 		.ascii	"prev\000"
 2803      00
 2804              	.LASF50:
 2805 0134 63685F74 		.ascii	"ch_threads_queue\000"
 2805      68726561 
 2805      64735F71 
 2805      75657565 
 2805      00
 2806              	.LASF55:
 2807 0145 76746675 		.ascii	"vtfunc_t\000"
 2807      6E635F74 
 2807      00
 2808              	.LASF64:
 2809 014e 63685F73 		.ascii	"ch_system_debug\000"
 2809      79737465 
 2809      6D5F6465 
 2809      62756700 
 2810              	.LASF15:
 2811 015e 75696E74 		.ascii	"uint32_t\000"
 2811      33325F74 
 2811      00
 2812              	.LASF111:
 2813 0167 73656E74 		.ascii	"sentmsg\000"
 2813      6D736700 
 2814              	.LASF24:
 2815 016f 6576656E 		.ascii	"eventmask_t\000"
 2815      746D6173 
 2815      6B5F7400 
 2816              	.LASF115:
 2817 017b 63685F73 		.ascii	"ch_semaphore\000"
 2817      656D6170 
 2817      686F7265 
 2817      00
 2818              	.LASF22:
 2819 0188 74707269 		.ascii	"tprio_t\000"
 2819      6F5F7400 
 2820              	.LASF57:
 2821 0190 63685F76 		.ascii	"ch_virtual_timer\000"
 2821      69727475 
 2821      616C5F74 
 2821      696D6572 
 2821      00
 2822              	.LASF12:
 2823 01a1 6C6F6E67 		.ascii	"long long unsigned int\000"
 2823      206C6F6E 
 2823      6720756E 
ARM GAS  /tmp/ccjSXgYT.s 			page 80


 2823      7369676E 
 2823      65642069 
 2824              	.LASF130:
 2825 01b8 706F7274 		.ascii	"port_rt_get_counter_value\000"
 2825      5F72745F 
 2825      6765745F 
 2825      636F756E 
 2825      7465725F 
 2826              	.LASF25:
 2827 01d2 636E745F 		.ascii	"cnt_t\000"
 2827      7400
 2828              	.LASF103:
 2829 01d8 776F7273 		.ascii	"worst\000"
 2829      7400
 2830              	.LASF117:
 2831 01de 6F776E65 		.ascii	"owner\000"
 2831      7200
 2832              	.LASF49:
 2833 01e4 74687265 		.ascii	"threads_queue_t\000"
 2833      6164735F 
 2833      71756575 
 2833      655F7400 
 2834              	.LASF41:
 2835 01f4 6D74786C 		.ascii	"mtxlist\000"
 2835      69737400 
 2836              	.LASF61:
 2837 01fc 63685F76 		.ascii	"ch_virtual_timers_list\000"
 2837      69727475 
 2837      616C5F74 
 2837      696D6572 
 2837      735F6C69 
 2838              	.LASF28:
 2839 0213 74687265 		.ascii	"thread_t\000"
 2839      61645F74 
 2839      00
 2840              	.LASF107:
 2841 021c 7264796D 		.ascii	"rdymsg\000"
 2841      736700
 2842              	.LASF100:
 2843 0223 6F666673 		.ascii	"offset\000"
 2843      657400
 2844              	.LASF116:
 2845 022a 63685F6D 		.ascii	"ch_mutex\000"
 2845      75746578 
 2845      00
 2846              	.LASF11:
 2847 0233 5F5F7569 		.ascii	"__uint64_t\000"
 2847      6E743634 
 2847      5F7400
 2848              	.LASF129:
 2849 023e 2F6E6673 		.ascii	"/nfs/nfs7/home/npalumbo/p442-submissions/lab4\000"
 2849      2F6E6673 
 2849      372F686F 
 2849      6D652F6E 
 2849      70616C75 
 2850              	.LASF95:
 2851 026c 4457545F 		.ascii	"DWT_Type\000"
ARM GAS  /tmp/ccjSXgYT.s 			page 81


 2851      54797065 
 2851      00
 2852              	.LASF104:
 2853 0275 6C617374 		.ascii	"last\000"
 2853      00
 2854              	.LASF77:
 2855 027a 4C535543 		.ascii	"LSUCNT\000"
 2855      4E5400
 2856              	.LASF106:
 2857 0281 74696D65 		.ascii	"time_measurement_t\000"
 2857      5F6D6561 
 2857      73757265 
 2857      6D656E74 
 2857      5F7400
 2858              	.LASF30:
 2859 0294 7072696F 		.ascii	"prio\000"
 2859      00
 2860              	.LASF118:
 2861 0299 63686172 		.ascii	"char\000"
 2861      00
 2862              	.LASF18:
 2863 029e 72747469 		.ascii	"rttime_t\000"
 2863      6D655F74 
 2863      00
 2864              	.LASF34:
 2865 02a7 77616261 		.ascii	"wabase\000"
 2865      736500
 2866              	.LASF20:
 2867 02ae 74737461 		.ascii	"tstate_t\000"
 2867      74655F74 
 2867      00
 2868              	.LASF82:
 2869 02b7 46554E43 		.ascii	"FUNCTION0\000"
 2869      54494F4E 
 2869      3000
 2870              	.LASF86:
 2871 02c1 46554E43 		.ascii	"FUNCTION1\000"
 2871      54494F4E 
 2871      3100
 2872              	.LASF90:
 2873 02cb 46554E43 		.ascii	"FUNCTION2\000"
 2873      54494F4E 
 2873      3200
 2874              	.LASF94:
 2875 02d5 46554E43 		.ascii	"FUNCTION3\000"
 2875      54494F4E 
 2875      3300
 2876              	.LASF13:
 2877 02df 75696E74 		.ascii	"uint8_t\000"
 2877      385F7400 
 2878              	.LASF123:
 2879 02e7 6368544D 		.ascii	"chTMChainMeasurementToX\000"
 2879      43686169 
 2879      6E4D6561 
 2879      73757265 
 2879      6D656E74 
 2880              	.LASF39:
ARM GAS  /tmp/ccjSXgYT.s 			page 82


 2881 02ff 6D736771 		.ascii	"msgqueue\000"
 2881      75657565 
 2881      00
 2882              	.LASF46:
 2883 0308 63685F74 		.ascii	"ch_thread\000"
 2883      68726561 
 2883      6400
 2884              	.LASF63:
 2885 0312 73797374 		.ascii	"system_debug_t\000"
 2885      656D5F64 
 2885      65627567 
 2885      5F7400
 2886              	.LASF10:
 2887 0321 6C6F6E67 		.ascii	"long long int\000"
 2887      206C6F6E 
 2887      6720696E 
 2887      7400
 2888              	.LASF23:
 2889 032f 6D73675F 		.ascii	"msg_t\000"
 2889      7400
 2890              	.LASF81:
 2891 0335 4D41534B 		.ascii	"MASK0\000"
 2891      3000
 2892              	.LASF85:
 2893 033b 4D41534B 		.ascii	"MASK1\000"
 2893      3100
 2894              	.LASF89:
 2895 0341 4D41534B 		.ascii	"MASK2\000"
 2895      3200
 2896              	.LASF93:
 2897 0347 4D41534B 		.ascii	"MASK3\000"
 2897      3300
 2898              	.LASF56:
 2899 034d 76697274 		.ascii	"virtual_timer_t\000"
 2899      75616C5F 
 2899      74696D65 
 2899      725F7400 
 2900              	.LASF79:
 2901 035d 50435352 		.ascii	"PCSR\000"
 2901      00
 2902              	.LASF65:
 2903 0362 70616E69 		.ascii	"panic_msg\000"
 2903      635F6D73 
 2903      6700
 2904              	.LASF101:
 2905 036c 746D5F63 		.ascii	"tm_calibration_t\000"
 2905      616C6962 
 2905      72617469 
 2905      6F6E5F74 
 2905      00
 2906              	.LASF19:
 2907 037d 746D6F64 		.ascii	"tmode_t\000"
 2907      655F7400 
 2908              	.LASF26:
 2909 0385 75636E74 		.ascii	"ucnt_t\000"
 2909      5F7400
 2910              	.LASF70:
ARM GAS  /tmp/ccjSXgYT.s 			page 83


 2911 038c 6D61696E 		.ascii	"mainthread\000"
 2911      74687265 
 2911      616400
 2912              	.LASF76:
 2913 0397 534C4545 		.ascii	"SLEEPCNT\000"
 2913      50434E54 
 2913      00
 2914              	.LASF17:
 2915 03a0 7274636E 		.ascii	"rtcnt_t\000"
 2915      745F7400 
 2916              	.LASF121:
 2917 03a8 6368544D 		.ascii	"chTMStopMeasurementX\000"
 2917      53746F70 
 2917      4D656173 
 2917      7572656D 
 2917      656E7458 
 2918              	.LASF83:
 2919 03bd 52455345 		.ascii	"RESERVED0\000"
 2919      52564544 
 2919      3000
 2920              	.LASF87:
 2921 03c7 52455345 		.ascii	"RESERVED1\000"
 2921      52564544 
 2921      3100
 2922              	.LASF91:
 2923 03d1 52455345 		.ascii	"RESERVED2\000"
 2923      52564544 
 2923      3200
 2924              	.LASF3:
 2925 03db 73686F72 		.ascii	"short int\000"
 2925      7420696E 
 2925      7400
 2926              	.LASF7:
 2927 03e5 6C6F6E67 		.ascii	"long int\000"
 2927      20696E74 
 2927      00
 2928              	.LASF99:
 2929 03ee 706F7274 		.ascii	"port_intctx\000"
 2929      5F696E74 
 2929      63747800 
 2930              	.LASF126:
 2931 03fa 49544D5F 		.ascii	"ITM_RxBuffer\000"
 2931      52784275 
 2931      66666572 
 2931      00
 2932              	.LASF67:
 2933 0407 63685F73 		.ascii	"ch_system\000"
 2933      79737465 
 2933      6D00
 2934              	.LASF62:
 2935 0411 6C617374 		.ascii	"lasttime\000"
 2935      74696D65 
 2935      00
 2936              	.LASF16:
 2937 041a 75696E74 		.ascii	"uint64_t\000"
 2937      36345F74 
 2937      00
ARM GAS  /tmp/ccjSXgYT.s 			page 84


 2938              	.LASF68:
 2939 0423 726C6973 		.ascii	"rlist\000"
 2939      7400
 2940              	.LASF5:
 2941 0429 5F5F7569 		.ascii	"__uint8_t\000"
 2941      6E74385F 
 2941      7400
 2942              	.LASF33:
 2943 0433 6E616D65 		.ascii	"name\000"
 2943      00
 2944              	.LASF122:
 2945 0438 5F746D5F 		.ascii	"_tm_init\000"
 2945      696E6974 
 2945      00
 2946              	.LASF127:
 2947 0441 474E5520 		.ascii	"GNU C 4.8.4 20140526 (release) [ARM/embedded-4_8-br"
 2947      4320342E 
 2947      382E3420 
 2947      32303134 
 2947      30353236 
 2948 0474 616E6368 		.ascii	"anch revision 211358] -mcpu=cortex-m4 -mno-thumb-in"
 2948      20726576 
 2948      6973696F 
 2948      6E203231 
 2948      31333538 
 2949 04a7 74657277 		.ascii	"terwork -mthumb -ggdb -O2 -fomit-frame-pointer -fal"
 2949      6F726B20 
 2949      2D6D7468 
 2949      756D6220 
 2949      2D676764 
 2950 04da 69676E2D 		.ascii	"ign-functions=16 -ffunction-sections -fdata-section"
 2950      66756E63 
 2950      74696F6E 
 2950      733D3136 
 2950      202D6666 
 2951 050d 73202D66 		.ascii	"s -fno-common -flto\000"
 2951      6E6F2D63 
 2951      6F6D6D6F 
 2951      6E202D66 
 2951      6C746F00 
 2952              	.LASF71:
 2953 0521 73697A65 		.ascii	"sizetype\000"
 2953      74797065 
 2953      00
 2954              	.LASF21:
 2955 052a 74726566 		.ascii	"trefs_t\000"
 2955      735F7400 
 2956              	.LASF9:
 2957 0532 6C6F6E67 		.ascii	"long unsigned int\000"
 2957      20756E73 
 2957      69676E65 
 2957      6420696E 
 2957      7400
 2958              	.LASF52:
 2959 0544 72656164 		.ascii	"ready_list_t\000"
 2959      795F6C69 
 2959      73745F74 
ARM GAS  /tmp/ccjSXgYT.s 			page 85


 2959      00
 2960              	.LASF29:
 2961 0551 71756575 		.ascii	"queue\000"
 2961      6500
 2962              	.LASF14:
 2963 0557 696E7433 		.ascii	"int32_t\000"
 2963      325F7400 
 2964              	.LASF112:
 2965 055f 77747365 		.ascii	"wtsemp\000"
 2965      6D7000
 2966              	.LASF119:
 2967 0566 6D757465 		.ascii	"mutex_t\000"
 2967      785F7400 
 2968              	.LASF31:
 2969 056e 6E657765 		.ascii	"newer\000"
 2969      7200
 2970              	.LASF102:
 2971 0574 62657374 		.ascii	"best\000"
 2971      00
 2972              	.LASF2:
 2973 0579 756E7369 		.ascii	"unsigned char\000"
 2973      676E6564 
 2973      20636861 
 2973      7200
 2974              	.LASF8:
 2975 0587 5F5F7569 		.ascii	"__uint32_t\000"
 2975      6E743332 
 2975      5F7400
 2976              	.LASF38:
 2977 0592 77616974 		.ascii	"waiting\000"
 2977      696E6700 
 2978              	.LASF131:
 2979 059a 746D5F73 		.ascii	"tm_stop\000"
 2979      746F7000 
 2980              	.LASF60:
 2981 05a2 76697274 		.ascii	"virtual_timers_list_t\000"
 2981      75616C5F 
 2981      74696D65 
 2981      72735F6C 
 2981      6973745F 
 2982              	.LASF35:
 2983 05b8 73746174 		.ascii	"state\000"
 2983      6500
 2984              	.LASF78:
 2985 05be 464F4C44 		.ascii	"FOLDCNT\000"
 2985      434E5400 
 2986              	.LASF66:
 2987 05c6 63685F73 		.ascii	"ch_system_t\000"
 2987      79737465 
 2987      6D5F7400 
 2988              	.LASF110:
 2989 05d2 77747472 		.ascii	"wttrp\000"
 2989      7000
 2990              	.LASF73:
 2991 05d8 43594343 		.ascii	"CYCCNT\000"
 2991      4E5400
 2992              	.LASF1:
ARM GAS  /tmp/ccjSXgYT.s 			page 86


 2993 05df 7369676E 		.ascii	"signed char\000"
 2993      65642063 
 2993      68617200 
 2994              	.LASF58:
 2995 05eb 64656C74 		.ascii	"delta\000"
 2995      6100
 2996              	.LASF4:
 2997 05f1 73686F72 		.ascii	"short unsigned int\000"
 2997      7420756E 
 2997      7369676E 
 2997      65642069 
 2997      6E7400
 2998              	.LASF97:
 2999 0604 73746B61 		.ascii	"stkalign_t\000"
 2999      6C69676E 
 2999      5F7400
 3000              	.LASF54:
 3001 060f 63757272 		.ascii	"current\000"
 3001      656E7400 
 3002              	.LASF32:
 3003 0617 6F6C6465 		.ascii	"older\000"
 3003      7200
 3004              	.LASF108:
 3005 061d 65786974 		.ascii	"exitcode\000"
 3005      636F6465 
 3005      00
 3006              	.LASF75:
 3007 0626 45584343 		.ascii	"EXCCNT\000"
 3007      4E5400
 3008              	.LASF43:
 3009 062d 6D706F6F 		.ascii	"mpool\000"
 3009      6C00
 3010              	.LASF72:
 3011 0633 4354524C 		.ascii	"CTRL\000"
 3011      00
 3012              		.comm	__gnu_lto_v1,1,1
 3013              		.ident	"GCC: (GNU Tools for ARM Embedded Processors) 4.8.4 20140526 (release) [ARM/embedded-4_8-br
ARM GAS  /tmp/ccjSXgYT.s 			page 87


DEFINED SYMBOLS
                            *ABS*:00000000 chtm.c
     /tmp/ccjSXgYT.s:475    .text.chTMObjectInit:00000000 $t
     /tmp/ccjSXgYT.s:481    .text.chTMObjectInit:00000000 chTMObjectInit
     /tmp/ccjSXgYT.s:507    .text.chTMStartMeasurementX:00000000 $t
     /tmp/ccjSXgYT.s:513    .text.chTMStartMeasurementX:00000000 chTMStartMeasurementX
     /tmp/ccjSXgYT.s:535    .text.chTMStartMeasurementX:00000008 $d
     /tmp/ccjSXgYT.s:540    .text.chTMStopMeasurementX:00000000 $t
     /tmp/ccjSXgYT.s:546    .text.chTMStopMeasurementX:00000000 chTMStopMeasurementX
     /tmp/ccjSXgYT.s:627    .text.chTMStopMeasurementX:0000003c $d
     /tmp/ccjSXgYT.s:633    .text._tm_init:00000000 $t
     /tmp/ccjSXgYT.s:639    .text._tm_init:00000000 _tm_init
     /tmp/ccjSXgYT.s:708    .text._tm_init:00000034 $d
     /tmp/ccjSXgYT.s:713    .text.chTMChainMeasurementToX:00000000 $t
     /tmp/ccjSXgYT.s:719    .text.chTMChainMeasurementToX:00000000 chTMChainMeasurementToX
     /tmp/ccjSXgYT.s:792    .text.chTMChainMeasurementToX:00000038 $d
                            *COM*:00000001 __gnu_lto_v1
                     .debug_frame:00000010 $d
     /tmp/ccjSXgYT.s:539    .text.chTMStartMeasurementX:0000000c $t
     /tmp/ccjSXgYT.s:632    .text.chTMStopMeasurementX:00000044 $t
     /tmp/ccjSXgYT.s:712    .text._tm_init:00000038 $t
     /tmp/ccjSXgYT.s:796    .text.chTMChainMeasurementToX:0000003c $t

UNDEFINED SYMBOLS
ch
