ARM GAS  /tmp/ccjSXgYT.s 			page 1


   1              		.syntax unified
   2              		.cpu cortex-m4
   3              		.fpu softvfp
   4              		.eabi_attribute 20, 1
   5              		.eabi_attribute 21, 1
   6              		.eabi_attribute 23, 3
   7              		.eabi_attribute 24, 1
   8              		.eabi_attribute 25, 1
   9              		.eabi_attribute 26, 1
  10              		.eabi_attribute 30, 2
  11              		.eabi_attribute 34, 1
  12              		.eabi_attribute 18, 4
  13              		.thumb
  14              		.file	"chtm.c"
  15              		.text
  16              	.Ltext0:
  17              		.section	.gnu.lto_.jmpfuncs.adbdaccb2a73384b,"",%progbits
  18 0000 789C6362 		.ascii	"x\234cb`b\300\006\034\2404+\003###\023#\013\003#\003"
  18      6062C006 
  18      1CA0342B 
  18      03232323 
  18      13230B03 
  19 0016 10B13232 		.ascii	"\020\26122D0f22\374\007\002~\006\0050\033\250\026J'"
  19      44306632 
  19      32FC0702 
  19      7E060530 
  19      1BA8164A 
  20 002b 40E90646 		.ascii	"@\351\006F\020\003\310bef\000\000:\272\011\200"
  20      1003C862 
  20      65660000 
  20      3ABA0980 
  21              		.text
  22              		.section	.gnu.lto_.inline.adbdaccb2a73384b,"",%progbits
  23 0000 789C6D8E 		.ascii	"x\234m\216!\022\3020\020E\377n\3236\320\016d\020mP\004"
  23      2112C230 
  23      1045FF6E 
  23      D336D00E 
  23      64106D50 
  24 0015 85E30C75 		.ascii	"\205\343\014u8$\232\243T\"\020(4\202# 8\001\272\247"
  24      38249AA3 
  24      54221028 
  24      34822320 
  24      3801BAA7 
  25 0029 60902834 		.ascii	"`\220(4\331\255\2413\254x\273\371\331\344\177\006\343"
  25      D9ADA133 
  25      AC78BBF9 
  25      D9E47F06 
  25      E3
  26 003a 5F15D4F7 		.ascii	"_\025\324\367\024\030Y\002g\3575\312\323V\227\011\251"
  26      14185902 
  26      67EF35CA 
  26      D3569709 
  26      A9
  27 004b 0138B9D7 		.ascii	"\0018\271\327\310\017+\225\030\363:\356\306G\311^\331"
  27      C80F2B95 
  27      18F33AEE 
  27      C647C95E 
ARM GAS  /tmp/ccjSXgYT.s 			page 2


  27      D9
  28 005c 285BD216 		.ascii	"([\322\026\224(\375\343F(\317\033\006\275r\303\210?"
  28      9428FDE3 
  28      4628CF1B 
  28      06BD72C3 
  28      883F
  29 006e 1819AD0A 		.ascii	"\030\031\255\012\026\334M\035+\345\034T\015\202F\307"
  29      16DC4D1D 
  29      2BE51C54 
  29      0D8246C7 
  30 007e 469C8C77 		.ascii	"F\234\214w\313\230g\326\035\011\331e\321\273\027\022"
  30      CB9867D6 
  30      1D09D965 
  30      D1BB1712 
  31 008e AA670A5F 		.ascii	"\252g\012_\301\374$\031f\030W\237+a\362\334\0152DK\253"
  31      C1FC2419 
  31      6618579F 
  31      2B61F2DC 
  31      0D32444B 
  32 00a3 C65654A7 		.ascii	"\306VT\247w\203\014R_\335\333 \301"
  32      77830C52 
  32      5FDDDB20 
  32      C1
  33              		.text
  34              		.section	.gnu.lto_.pureconst.adbdaccb2a73384b,"",%progbits
  35 0000 789C6362 		.ascii	"x\234cb`b\340f\200\000V\006)F)&)\026\011V)\000\004)"
  35      6062E066 
  35      80005606 
  35      29462926 
  35      29160956 
  36 0018 00A1     		.ascii	"\000\241"
  37              		.text
  38              		.section	.gnu.lto_chTMObjectInit.adbdaccb2a73384b,"",%progbits
  39 0000 789C6362 		.ascii	"x\234cb`b@\007\222@<\225\221\201A\016H32302M8\307\300"
  39      60624007 
  39      92403C95 
  39      9181410E 
  39      48333233 
  40 001a D0C8C1C4 		.ascii	"\320\310\301\304\310\010b002\32431\326G2\202\325\256"
  40      C8086230 
  40      3032D433 
  40      31D64732 
  40      82D5AE
  41 002d 673AF0E0 		.ascii	"g:\360\340\377\377u\223\332\327\3670\316e\002\252\311"
  41      FFFF7593 
  41      DAD7F730 
  41      CE6502AA 
  41      C9
  42 003e 058BB332 		.ascii	"\005\213\2632\26444LP``H\006sC\200$Ho(#\023\210f>\313"
  42      B434344C 
  42      50606048 
  42      06734380 
  42      24486F28 
  43 0058 D0B4E3C7 		.ascii	"\320\264\343\307\247\033L\211\214\013\031Y\031\264\031"
  43      A71B4C89 
  43      8C0B1959 
  43      19B419
ARM GAS  /tmp/ccjSXgYT.s 			page 3


  44 0067 56350001 		.ascii	"V5\000\001o&#\303l\206Y\214\231\214\214\351\214L\021"
  44      6F2623C3 
  44      6C86598C 
  44      998C8CE9 
  44      8C4C11
  45 007a 401AE2B4 		.ascii	"@\032\342\264$\210M\014 \021\346\377@\300\017\344\200"
  45      24884D0C 
  45      2011E6FF 
  45      40C00FE4 
  45      80
  46 008b 4C98F199 		.ascii	"L\230\361\231h\023\030\021&0@u\357 ^7\023\246\356\033"
  46      68131811 
  46      26304075 
  46      EF205E37 
  46      13A6EE1B 
  47 009f 5874B360 		.ascii	"Xt\263`\327\315\214\251\373\007\026\335\254\330u\263"
  47      D7CD8CA9 
  47      FB0716DD 
  47      ACD875B3 
  48 00af C075B381 		.ascii	"\300u\263\201\030\027\031\032\037\334P\206\350\205\201"
  48      1817191A 
  48      1FDC5086 
  48      E88581
  49 00be 10A0F780 		.ascii	"\020\240\367\200\241\012\322!\243\247\247\357\234\221"
  49      A10AD221 
  49      A3A7A7EF 
  49      9C91
  50 00cc 9994E91F 		.ascii	"\231\224\351\037\254\237_\254_T\242_\\\224\254\237\234"
  50      AC9F5FAC 
  50      5F54A25F 
  50      5C94AC9F 
  50      9C
  51 00dd 5192AB97 		.ascii	"Q\222\253\227\314\000\000L\032g\360"
  51      CC00004C 
  51      1A67F0
  52              		.text
  53              		.section	.gnu.lto_chTMStartMeasurementX.adbdaccb2a73384b,"",%progbits
  54 0000 789C6362 		.ascii	"x\234cb`b@\007\222@\314\312\310\300\340\007\244\031"
  54      60624007 
  54      9240CCCA 
  54      C8C0E007 
  54      A419
  55 0012 99191899 		.ascii	"\231\031\030\231&\234c`h\344`bd\0041\030\030\031\352"
  55      269C6360 
  55      68E46062 
  55      64043118 
  55      1819EA
  56 0025 9918EB23 		.ascii	"\231\030\353#\031\301j\3273\035x\360\377\377\272+\355"
  56      19C16AD7 
  56      331D78F0 
  56      FFFFBA2B 
  56      ED
  57 0036 FBEF30CE 		.ascii	"\373\3570\316cbcf\314ed`e\310\004K\2622\26444LP``H\006"
  57      63626366 
  57      CC656460 
  57      65C8044B 
  57      B232B434 
ARM GAS  /tmp/ccjSXgYT.s 			page 4


  58 0051 73438024 		.ascii	"sC\200$\310\200PF&\020\315|\226\341\320\255?\375\307"
  58      C8805046 
  58      2610CD7C 
  58      96E1D0AD 
  58      3FFDC7
  59 0064 66B3C1D5 		.ascii	"f\263\301\325A\030\007\272\277}df`Hd\\\310\310\012\324"
  59      411807BA 
  59      BF7D6466 
  59      6048645C 
  59      C8C80AD4 
  60 0078 0AD69BCE 		.ascii	"\012\326\233\316\310\252\315\260\252\241\245\361\301"
  60      C8AACDB0 
  60      AAA1A5F1 
  60      C1
  61 0085 FF0D772E 		.ascii	"\377\015w.22f22\316f\230\3258\241A \223\221)\002\310"
  61      32326632 
  61      32CE6698 
  61      D538A141 
  61      20939129 
  62 009b 656E58D0 		.ascii	"enX\320\320\300\307\000f\202\035\226\004\322\227\310"
  62      D0C0C700 
  62      66821D96 
  62      04D297C8 
  63 00ab B8186806 		.ascii	"\270\030h\006\020\234eh:yf\003?\304L\220I@\300\013t"
  63      109C6568 
  63      3A796603 
  63      3FC44C90 
  63      4940C00B 
  64 00c0 25D010A0 		.ascii	"%\320\020\240\016\226tFf\220NV\250N\210\327\322A\374"
  64      0E967446 
  64      66904E56 
  64      A84E88D7 
  64      D241FC
  65 00d3 8B0C8D0F 		.ascii	"\213\014\215\017\336*C\364\301@\010P\001\320\003\240"
  65      DE2A43F4 
  65      C1400850 
  65      01D003A0 
  66 00e3 8093D1D3 		.ascii	"\200\223\321\323\323w\316\310L\312\364\017\326\317/"
  66      D377CEC8 
  66      4CCAF40F 
  66      D6CF2F
  67 00f2 D62F2AD1 		.ascii	"\326/*\321/.J\326O\316(\311\325Kf\320G\225L\316\317"
  67      2F2E4AD6 
  67      4FCE28C9 
  67      D54B66D0 
  67      47954CCE 
  68 0107 CDCDCFD3 		.ascii	"\315\315\317\323/\310/*)\326w\014\362u\366\255\000\252"
  68      2FC82F2A 
  68      29D6770C 
  68      F275F6AD 
  68      00AA
  69 0119 4CCE2F4A 		.ascii	"L\316/J\215/3\317\325\313`\000\000\346\261]\322"
  69      8D2F33CF 
  69      D5CB6000 
  69      00E6B15D 
  69      D2
  70              		.text
ARM GAS  /tmp/ccjSXgYT.s 			page 5


  71              		.section	.gnu.lto_chTMStopMeasurementX.adbdaccb2a73384b,"",%progbits
  72 0000 789C8D54 		.ascii	"x\234\215TMHTQ\024>\347\375\315\2173\343,\2122$D\010"
  72      4D485451 
  72      143EE7FD 
  72      CD8F33E3 
  72      2C8A3224 
  73 0016 21611EAD 		.ascii	"!a\036\255Z\207\253\010\021R\251\026\021:\3508\213\347"
  73      5A87AB08 
  73      1152A916 
  73      113AE838 
  73      8BE7
  74 0028 9399A182 		.ascii	"\223\231\241\202\026\336\231q1\266q\210\026\222\220"
  74      16DE9971 
  74      31B67188 
  74      169290
  75 0037 5A512162 		.ascii	"ZQ!b\326J\242b\010\313$\014\004\027!\"CPK7m$\302\351"
  75      D64AA262 
  75      08CB240C 
  75      04172122 
  75      43504B37 
  76 004f DC7BDF1B 		.ascii	"\334{\337\033}\226\315\\x\337\275\367\334{\276\373\335"
  76      7D96CD5C 
  76      78DFBDF7 
  76      DC7BBEFB 
  76      DD
  77 0060 EFBCF714 		.ascii	"\357\274\367\024P\340p\273D\317\274\016p\235z\364\001"
  77      50E070BB 
  77      44CFBC0E 
  77      709D7AF4 
  77      01
  78 0071 2AC52F00 		.ascii	"*\305/\000Y\277\242\250\2056`A\215cHEM\2065E\3370)l"
  78      59BFA2A8 
  78      85366041 
  78      8D634845 
  78      4D863545 
  79 0089 BC394D61 		.ascii	"\2749Ma\035\015\0316\020\371\000\020F\025U\323\015\034"
  79      1D0D1936 
  79      10F90010 
  79      461555D3 
  79      0D1C
  80 009b BD8682FD 		.ascii	"\275\206\202\375\205R*W*\013{+\357\346\361\271rR\205"
  80      85522A57 
  80      2A0B7B2B 
  80      EFE6F1B9 
  80      725285
  81 00ae 24828616 		.ascii	"$\202\206\026\202A#:\216\246~\016\001\016A\016\015\034"
  81      8241233A 
  81      8EA67E0E 
  81      010E410E 
  81      0D1C
  82 00c0 42044A98 		.ascii	"B\004J\230C\204C#\217E9P\323a\214\261b\013@\\L{\010"
  82      43844323 
  82      8F453950 
  82      D3618CB1 
  82      620B405C 
  83 00d7 F9D9BDA8 		.ascii	"\371\331\275\250\360^]\203\367\233\277'>N\031\325}r"
  83      F05E5D83 
ARM GAS  /tmp/ccjSXgYT.s 			page 6


  83      F79BBF27 
  83      3E4E19D5 
  83      7D72
  84 00e9 50FABCFC 		.ascii	"P\372\274\374H\005\350\303Y\324)U\344&\320h\20796\226"
  84      4805E8C3 
  84      59D42955 
  84      E426D068 
  84      87393696 
  85 00fd 2D5716B7 		.ascii	"-W\026\267\326\021\223\250N\301\203l\221E\223\250]\245"
  85      D61193A8 
  85      4EC1836C 
  85      914593A8 
  85      5DA5
  86 010f A9CE6618 		.ascii	"\251\316f\030\213\200\030\212\373\364\363\274>|,\247"
  86      8B80188A 
  86      FBF4F3BC 
  86      3E7C2CA7 
  87 011f 6B90DBDC 		.ascii	"k\220\333\334zr\377\224$M\240\332\016g\351Z\234\223"
  87      7A72FF94 
  87      244DA0DA 
  87      0E67E95A 
  87      9C93
  88 0131 DA5BCA32 		.ascii	"\332[\31228\037\343|\276;\360\213\025\370\310o\211\323"
  88      381FE37C 
  88      BE3BF08B 
  88      15F8C86F 
  88      89D3
  89 0143 39A9DF21 		.ascii	"9\251\337!E\247w\313\263\012\271\222\303\332\012\263"
  89      45A777CB 
  89      B30AB992 
  89      C3DA0AB3 
  90 0153 8CDD2B55 		.ascii	"\214\335+UV&\232\330L\256\310\366*\025J\014(\320\205"
  90      56269AD8 
  90      4CAEC8F6 
  90      2A154A0C 
  90      28D085
  91 0166 DC01CE12 		.ascii	"\334\001\316\022l\021]\203\346\255l\0025\301T\036\377"
  91      6C115D83 
  91      E6AD6C02 
  91      35C1541E 
  91      FF
  92 0177 60FC8F8B 		.ascii	"`\374\217\213N\355\256\315e\324\313u\2456\227*\255["
  92      4EEDAECD 
  92      65D4CB75 
  92      A536972A 
  92      AD5B
  93 0189 7AA81E2A 		.ascii	"z\250\036*\022{\306\315\\\300V\362x^\340\034\341~\325"
  93      127BC6CD 
  93      5CC056F2 
  93      785EE01C 
  93      E17ED5
  94 019c 1499EF93 		.ascii	"\024\231\357\223\016\227~6%1Tu8\234\220E\0138f\212j"
  94      0E977E36 
  94      25315475 
  94      389C9045 
  94      0B38668A 
  95 01b1 BF742B95 		.ascii	"\277t+\225/\344\007\373pQ\324\311O\024|g\010e\021/\312"
ARM GAS  /tmp/ccjSXgYT.s 			page 7


  95      2FE407FB 
  95      7051D4C9 
  95      4F147C67 
  95      0865112F 
  96 01c6 05A76EE1 		.ascii	"\005\247n\341\372H\023\274z\374\032_\267\233]\342\200"
  96      FA4813BC 
  96      7AFC1A5F 
  96      B79B5DE2 
  96      80
  97 01d7 7C018ECC 		.ascii	"|\001\216\314\326\274\222\306\363\257\320M\015\222\305"
  97      D6BC92C6 
  97      F3AFD04D 
  97      0D92C5
  98 01e6 09BE51C4 		.ascii	"\011\276Q\304\237*n\274A,I\307V\027}\207\225\326s\026"
  98      9F2A6EBC 
  98      412C49C7 
  98      56177D87 
  98      95D67316 
  99 01fa 9148A5BB 		.ascii	"\221H\245\273\333\307]\332\220\244\240\274\310\221\014"
  99      DBC75DDA 
  99      90A4A0BC 
  99      C8910C
 100 0209 BA476D6E 		.ascii	"\272Gmn'\377\272\2526\354p\222\253\013\325`\204hi\351"
 100      27FFBAAA 
 100      36EC7092 
 100      AB0BD560 
 100      846869E9 
 101 021d 6F4BEB3C 		.ascii	"oK\353<\205\030\244\316\311\351\023.gc\015G\215\003"
 101      8518A4CE 
 101      C9E9132E 
 101      67630D47 
 101      8D03
 102 022f 1A3FC1F2 		.ascii	"\032?\301\362\217l\370\200q\215\373/]/YXhS\271\211K"
 102      8F6CF880 
 102      718DFB2F 
 102      5D2F5958 
 102      6853B989 
 103 0244 D3C73C2E 		.ascii	"\323\307<.\236\253\217_\334XRi\316\237\206\034\335W"
 103      9EAB8F5F 
 103      DC585269 
 103      CE9F861C 
 103      DD57
 104 0256 1AADA1D4 		.ascii	"\032\255\241\324\347U\372\335\2434zP\251\016\033\246"
 104      E755FADD 
 104      A3347A50 
 104      A90E1BA6 
 105 0266 503AF96D 		.ascii	"P:\371m\027\353\227\352\373\227TCH]\207l\371\356\031"
 105      17EB97EA 
 105      FB975443 
 105      485D876C 
 105      F9EE19
 106 0279 F915B9AD 		.ascii	"\371\025\271\255\207\376:\264\306?\251\346X\314\354"
 106      87FE3AB4 
 106      C63FA9E6 
 106      58CCEC
 107 0288 184AF627 		.ascii	"\030J\366'\273\272M;m\2462f:\0257\343C\031+\026\007"
 107      BBBA4D3B 
ARM GAS  /tmp/ccjSXgYT.s 			page 8


 107      6DA63266 
 107      3A1537E3 
 107      43192B16 
 108 029d D3BB18B7 		.ascii	"\323\273\030\267-\313\0366G\354T&m^\270\334\331\321"
 108      2DCB1E36 
 108      47EC5426 
 108      6D5EB8DC 
 108      D9D1
 109 02af 799B76C6 		.ascii	"y\233v\306\355\324\300\215\233\347\255\330\020\250\031"
 109      EDD4C08D 
 109      9BE7ADD8 
 109      10A819
 110 02be 6B441DB6 		.ascii	"kD\035\266o\031\366\340`z \363\007w\003m4"
 110      6F19F6E0 
 110      607A20F3 
 110      0777036D 
 110      34
 111              		.text
 112              		.section	.gnu.lto__tm_init.adbdaccb2a73384b,"",%progbits
 113 0000 789CAD53 		.ascii	"x\234\255S\277k\024Q\020\376\346\355\335%\346L\242`"
 113      BF6B1451 
 113      10FEE6ED 
 113      DD25E64C 
 113      A260
 114 0012 11414888 		.ascii	"\021AH\210\010j\340\226\200\377\201\177\200\205\012"
 114      086AE096 
 114      80FF817F 
 114      80850A
 115 0021 5ADE6D91 		.ascii	"Z\336m\221\274\342P\222\253\264\310\333xh\032\341H\223"
 115      BCE25092 
 115      ABB4C8DB 
 115      78681AE1 
 115      4893
 116 0033 60AA6023 		.ascii	"`\252`#\376,\316\342 \315CP\010\022\305\356\024\213"
 116      FE2CCEE2 
 116      20CD4350 
 116      0812C5EE 
 116      148B
 117 0045 150BC134 		.ascii	"\025\013\3014A\233\303f\235\331\267\233\270aI\345\300"
 117      419BC366 
 117      9DD9B79B 
 117      B86149E5 
 117      C0
 118 0056 EE0CEC7C 		.ascii	"\356\014\354|\337\314\367\355{\012\012\207\3434?\033"
 118      DFCCF7ED 
 118      7B0A0A87 
 118      E3343F1B 
 119 0066 1E708E33 		.ascii	"\036p\2163y \325\371\000\204\303\212H\012\020\226\024"
 119      7920D5F9 
 119      0084C38A 
 119      480A1096 
 119      14
 120 0077 2DDD2469 		.ascii	"-\335$i\245il\032\333\211\336\376\330S\241\261\353\246"
 120      A5696C1A 
 120      DB89DEFE 
 120      D853A1B1 
 120      EBA6
ARM GAS  /tmp/ccjSXgYT.s 			page 9


 121 0089 6DE39826 		.ascii	"m\343\230&51\355$! \334 Md]V\023\371A\257\224\215\342"
 121      3531ED24 
 121      2120DC20 
 121      4D645D56 
 121      13F941AF 
 122 00a0 F86BF7F5 		.ascii	"\370k\367\365\267\036\235\034\253@\3634\240\214\266"
 122      B71E9D1C 
 122      AB40F334 
 122      A08CB6
 123 00af 319DA93A 		.ascii	"1\235\251:m2;\204\203\343\032\277e\372uR\222\275\035"
 123      6D323B84 
 123      83E31ABF 
 123      65FA7552 
 123      92BD1D
 124 00c2 2CF7063F 		.ascii	",\367\006?\255\252\323c*c\006O\015\307\254\246RZV5\225"
 124      ADAAD363 
 124      2A63064F 
 124      0DC7ACA6 
 124      525A5635 
 125 00d7 37F02834 		.ascii	"7\360(4\346\204\246\312]\3741+R\0155\0236Yf(Y\241AH"
 125      E684A6CA 
 125      5DFC312B 
 125      520D3513 
 125      36596628 
 126 00ef B32BE48B 		.ascii	"\263+\344\213,\201m,\333\363\216]4\232U\273u\377=\231"
 126      2C816D2C 
 126      DBF38E5D 
 126      349A55BB 
 126      75FF3D99 
 127 0103 5513EEC5 		.ascii	"U\023\356\305\361\270\246a\205\351\003\201SN_)\257O"
 127      F1B8A661 
 127      85E90381 
 127      534E5F29 
 127      AF4F
 128 0115 C61A633F 		.ascii	"\306\032c?\277;\305\375N\217c\344H\004\374\352\253T"
 128      BF3BC5FD 
 128      4E8F63E4 
 128      4804FCEA 
 128      AB54
 129 0127 6D26DB74 		.ascii	"m&\333t\037^\250\323\223D\271\353\015\334fN\227]{\340"
 129      1F5EA8D3 
 129      9344B9EB 
 129      0DDC664E 
 129      975D7BE0 
 130 013b B148C7D5 		.ascii	"\261H\307\325`/\270\351\271\020&{\307\034\343)\367\372"
 130      602FB8E9 
 130      B910267B 
 130      C71CE329 
 130      F7FA
 131 014d EF3E9BF3 		.ascii	"\357>\233\363\354\300\234\321\177p^\036\227\355\323"
 131      ECC09CD1 
 131      7F705E1E 
 131      97EDD3
 132 015c 3B0A532A 		.ascii	";\012S*\306\364\0130\3072L\271\0303(\300\214d\230J\016"
 132      C6F40B30 
 132      C7324CB9 
 132      183328C0 
ARM GAS  /tmp/ccjSXgYT.s 			page 10


 132      8C64984A 
 133 0171 5315CC47 		.ascii	"S\025\314G\264\243\027\367\3062\357\366\377\346\361"
 133      B4A317F7 
 133      C632EFF6 
 133      FFE6F1
 134 0180 80546AF4 		.ascii	"\200Tj\364\235\303\016k\032u\300\227\337\253E@\357H"
 134      9DC30E6B 
 134      1A75C097 
 134      DFAB4540 
 134      EF48
 135 0192 206FF965 		.ascii	" o\371e\260\033\245\307k\216*3\270\230\367\002\251\230"
 135      B01BA5C7 
 135      6B8E2A33 
 135      B898F702 
 135      A998
 136 01a4 EDCEC8FF 		.ascii	"\355\316\310\377>\203s\342\301\016\336\354\246\343\335"
 136      3E8373E2 
 136      C10EDEEC 
 136      A6E3DD
 137 01b3 D44BE89A 		.ascii	"\324K\350\232\025\306H\307'\204Q\357\354\376Y\202\273"
 137      15C648C7 
 137      278451EF 
 137      ECFE5982 
 137      BB
 138 01c4 21243743 		.ascii	"!$7C\0149S\253\371\227\347uC_\271\352\337Z\364\027Z"
 138      0C3953AB 
 138      F997E775 
 138      435FB9EA 
 138      DF5AF417 
 139 01d9 FEE242E0 		.ascii	"\376\342B\340\007\363\255f-\200j5\275V\363\366_{\253"
 139      07F3AD66 
 139      2D806A35 
 139      BD56F3F6 
 139      5F7BAB
 140 01ec EC6E     		.ascii	"\354n"
 141              		.text
 142              		.section	.gnu.lto_chTMChainMeasurementToX.adbdaccb2a73384b,"",%progbits
 143 0000 789C8D94 		.ascii	"x\234\215\224_HSq\024\307\317\371\335?\233\323\271="
 143      5F485371 
 143      14C7CFF9 
 143      DD3F9BD3 
 143      B93D
 144 0012 14658888 		.ascii	"\024e\210\210 B\302.=\365\034>E\210\220J\365\0201\207"
 144      2042C22E 
 144      3DF51C3E 
 144      4588904A 
 144      F5103187 
 145 0026 CE3DCC2B 		.ascii	"\316=\314+\333\260\336\374m\363\301\350\301\021\010"
 145      DBB0DEFC 
 145      6DF3C1E8 
 145      C11108
 146 0035 92904A2F 		.ascii	"\222\220J/!\241\322\323\210\240\025\026)\030\030\022"
 146      21A1D2D3 
 146      88A01516 
 146      29181812 
 147 0045 212223A8 		.ascii	"!\"#\250\307^z\361!Z\347\334\337\246\273f\354^\330\271"
 147      C75E7AF1 
ARM GAS  /tmp/ccjSXgYT.s 			page 11


 147      215AE7DC 
 147      DFA6BB66 
 147      EC5ED8B9 
 148 0059 F7777EF7 		.ascii	"\367w~\367|~\337\337\367\374\356\004\0108}\335\240\337"
 148      7C7EDFDF 
 148      F7FCEE04 
 148      08387DDD 
 148      A0DF
 149 006b 94017097 		.ascii	"\224\001p\227\356\350\003\024\205O\000Y\277\020\332"
 149      EEE80314 
 149      854F0059 
 149      BF10DA
 150 007a 6C0FC880 		.ascii	"l\017\310\200\316\261EC]\245ua\354Y\2246_wP\332@S\245"
 150      CEB14543 
 150      5DA57561 
 150      EC599436 
 150      5F7750DA 
 151 0091 4D447E00 		.ascii	"MD~\000\204i\241\351\206\211\323w\320\241\257\213R\271"
 151      8469A1E9 
 151      8689D377 
 151      D0A1AF8B 
 151      52B9
 152 00a3 5259FBBC 		.ascii	"RY\373\274\275\371\026\213\335\0275L\"\030\024h\245"
 152      BDF9168B 
 152      DD17354C 
 152      22181468 
 152      A5
 153 00b4 04829F02 		.ascii	"\004\202\237\0026q\010ph\346\320BA\0049\264r\010q.\314"
 153      36710870 
 153      68E6D042 
 153      410439B4 
 153      7208712E 
 154 00c9 816806CC 		.ascii	"\201h\006\314HY\350\004\2109\364!\212\274\3540\012\276"
 154      4859E804 
 154      8839F421 
 154      8ABCEC30 
 154      0ABE
 155 00db 6B3BF06E 		.ascii	"k;\360n\377\367\334\207E\363\370=\365Pz\364%G;\214\342"
 155      FFF7DC87 
 155      45F3F83D 
 155      F5507AF4 
 155      25473B8C 
 156 00f0 0A1A54EA 		.ascii	"\012\032T\352\324\306\321\327\013\253r&[\256l\034\354"
 156      D4C6D1D7 
 156      0BAB7226 
 156      5BAE6C1C 
 156      EC
 157 0101 2226505B 		.ascii	"\"&P[\204'\331\202\014'P\277MCC.K\331\012\316\243\263"
 157      8427D982 
 157      0C2750BF 
 157      4D43432E 
 157      4BD90ACE 
 158 0117 9511AE8B 		.ascii	"\225\021\256\213\34235\334\201\334\326\301\306|\207"
 158      E23335DC 
 158      81DCD6C1 
 158      C67C87
 159 0126 82328AAE 		.ascii	"\2022\212\256\020\355\211(Tb\306Q\343R_\265T\271\021"
ARM GAS  /tmp/ccjSXgYT.s 			page 12


 159      10ED8928 
 159      5462C651 
 159      E3525FB5 
 159      54B911
 160 0139 E7F116E4 		.ascii	"\347\361\026\344\312\353\357MU\330\005+R>.\355n\317"
 160      CAEBEF4D 
 160      55D8052B 
 160      523E2EED 
 160      6ECF
 161 014b B5C9E55C 		.ascii	"\265\311\345\\A\376\251T\270J\300\000\362&\031\341\357"
 161      41FEA954 
 161      B84AC000 
 161      F22619E1 
 161      EF
 162 015c 746E4DBA 		.ascii	"tnM\272\273oq\326\341\201E-\037l\314\362\246\213X\267"
 162      BB6F71D6 
 162      E181452D 
 162      1F6CCCF2 
 162      A68B58B7 
 163 0170 1AB13887 		.ascii	"\032\2618\207U\207\366\213O\265S\275\220o\346/E\361"
 163      5587F68B 
 163      4FB553BD 
 163      906FE62F 
 163      45F1
 164 0182 05769195 		.ascii	"\005v\221\225\253N|N\361\2449B\351\361+GK\277\332\022"
 164      AB4E7C4E 
 164      F1A43942 
 164      E9F12B47 
 164      4BBFDA12 
 165 0196 18E0C648 		.ascii	"\030\340\306Hn\014\271j\324\273*\270n\275\326\220\374"
 165      6E0CB96A 
 165      D4BB2AB8 
 165      6EBDD690 
 165      FC
 166 01a7 6C7E2C8A 		.ascii	"l~,\212k4\214c\023!\370\315\000*%\327\325D\265OAoP\302"
 166      6B348C63 
 166      1321F8CD 
 166      002A25D7 
 166      D544B54F 
 167 01bf A86D7C3D 		.ascii	"\250m|=l\257\201\003\275pYu\371\354jtKz\230\177\211"
 167      6CAF8103 
 167      BD705975 
 167      F9EC6A74 
 167      4B7A987F 
 168 01d4 B5D266B2 		.ascii	"\265\322f\262\231\000\352\354l\370N+\362\302$\210Rt"
 168      9900EAEC 
 168      6CF84E2B 
 168      F2C22488 
 168      5274
 169 01e6 7478BE86 		.ascii	"tx\276\206mQ\010\252k\376/As\251\312\375\314\277:V\025"
 169      6D5108AA 
 169      6BFE2F41 
 169      73A9CAFD 
 169      CCBF3A56 
 170 01fb AC32C9BD 		.ascii	"\2542\311\275\265\343d+ai\352_\353<\256B\004\245sa\351"
 170      B5E3642B 
 170      6169EA5F 
ARM GAS  /tmp/ccjSXgYT.s 			page 13


 170      EB3CAE42 
 170      04A57361 
 171 0210 428D196A 		.ascii	"B\215\031j\340\234^\247\361#l\376\310\006\353\214\013"
 171      E09C5EA7 
 171      F1236CFE 
 171      C806EB8C 
 171      0B
 172 0221 9D1CB061 		.ascii	"\235\034\260aZg\266Gc\023\213K\347\\.^\361\306wv\254"
 172      5A67B647 
 172      63138B4B 
 172      E75C2E5E 
 172      F1C67776 
 173 0236 507AF58F 		.ascii	"Pz\365\217\203\034=Q\032n\240\324p+\375\356R\032\256"
 173      831C3D51 
 173      1A6EA0D4 
 173      702BFDEE 
 173      521AAE
 174 0249 576AC09E 		.ascii	"Wj\300\236\345(]\370v\204\336\245\032gI5\035\251\273"
 174      E5285DF8 
 174      7684DEA5 
 174      1A674935 
 174      1DA9BB
 175 025c 902D17BB 		.ascii	"\220-\027\273\325\327R\273\206\350\204\320\034\177:"
 175      D5D752BB 
 175      86E884D0 
 175      1C7F3A
 176 026b ED9188D5 		.ascii	"\355\221\210\3257\236\030I\014\014Zv\332Je\254t*f\305"
 176      379E1849 
 176      0C0C5A76 
 176      DA4A65AC 
 176      742A66C5 
 177 027f C633C948 		.ascii	"\3063\311H\014,\367d\314N&\355\011k\322Ne\322\326\265"
 177      0C2CF764 
 177      CC4E26ED 
 177      096BD24E 
 177      65D2D6B5 
 178 0293 9BFD7DFD 		.ascii	"\233\375}\375\017\350\315\230\235\032\2757u5\031\031"
 178      0FE8CD98 
 178      9D1ABD37 
 178      75351919 
 179 02a3 072D939C 		.ascii	"\007-\223\234\324&\354\373\246=6\226\036\315\374\005"
 179      D426ECFB 
 179      A63D3696 
 179      1ECDFC05 
 180 02b3 A7276154 		.ascii	"\247'aT"
 181              		.text
 182              		.section	.gnu.lto_.symbol_nodes.adbdaccb2a73384b,"",%progbits
 183 0000 789C6362 		.ascii	"x\234cb`bHa\200\002\246\217\214\365\014\014\023\316"
 183      60624861 
 183      8002A68F 
 183      8CF50C0C 
 183      13CE
 184 0012 3130D4D7 		.ascii	"10\324\327\317\353`d\372\304X\317\210\304\375\314X\317"
 184      CFEB6064 
 184      FAC458CF 
 184      88C4FDCC 
 184      58CF
ARM GAS  /tmp/ccjSXgYT.s 			page 14


 185 0024 84E0B27E 		.ascii	"\204\340\262~e\004\262\030\230>0\3263#)\372\302X\317"
 185      6504B218 
 185      983E30D6 
 185      332329FA 
 185      C258CF
 186 0037 82E032B3 		.ascii	"\202\3402\26302<z\370\017H314\265\275\221g\000\000Z"
 186      30323C7A 
 186      F80F4833 
 186      3134B5BD 
 186      91670000 
 187 004c 211FA6   		.ascii	"!\037\246"
 188              		.text
 189              		.section	.gnu.lto_.refs.adbdaccb2a73384b,"",%progbits
 190 0000 789C6362 		.ascii	"x\234cb`b\340f\200\000F&\006f&\026FfFf\006\000\001\267"
 190      6062E066 
 190      80004626 
 190      06662616 
 190      46664666 
 191 0018 0024     		.ascii	"\000$"
 192              		.text
 193              		.section	.gnu.lto_.decls.adbdaccb2a73384b,"",%progbits
 194 0000 789CBD5B 		.ascii	"x\234\275[\017t\324\306\231\227\264k\357.v\201\322&"
 194      0F74D4C6 
 194      9997B46B 
 194      EF2E7681 
 194      D226
 195 0012 252DB99A 		.ascii	"%-\271\232\274\266\357\032\036YphK\356\335\245\3649"
 195      BCB6EF1A 
 195      1E597068 
 195      4BEEDDA5 
 195      F439
 196 0024 B4E12E04 		.ascii	"\264\341.\004\036&-\271\273\276\255\274\026\3666\336"
 196      1E262DB9 
 196      BBBEADBC 
 196      16F636DE 
 197 0034 5D572B63 		.ascii	"]W+cr\357\336\2530\304!>h\214C\010\020\300&\301I\000"
 197      72EFDEAB 
 197      30C4213E 
 197      688C4308 
 197      10C026C1 
 198 004a 1330943F 		.ascii	"\0230\224?\006\002\242I\300\230\206\030\363\317\204"
 198      0602A249 
 198      C0988618 
 198      F3CF84
 199 0059 4096B450 		.ascii	"@\226\264P\223\177\2058.`\010\276\231o$\255F+\255%C"
 199      937F8538 
 199      2E6008BE 
 199      996F24AD 
 199      462BAD25 
 200 006e ABB7FA56 		.ascii	"\253\267\372V\322h~\363\375\233\371\276\031I\034\303"
 200      D2687EF3 
 200      FD9BF9BE 
 200      19491CC3 
 201 007e 31FFCB31 		.ascii	"1\377\3131L\037\332\2761\201a~\356c\230l\206a\036D;"
 201      4C1FDABE 
 201      3181617E 
 201      EE63986C 
ARM GAS  /tmp/ccjSXgYT.s 			page 15


 201      86611E44 
 202 0093 BACCA053 		.ascii	"\272\314\240S&\300\220-\013\355\253\321~\030\355\307"
 202      26C0902D 
 202      0BEDABD1 
 202      7E18EDC7 
 203 00a3 D07E0AED 		.ascii	"\320~\012\355g\320\316\242\275\213\241\267\325j\335"
 203      67D0CEA2 
 203      BD8BA1B7 
 203      D56ADD
 204 00b2 26B437A2 		.ascii	"&\2647\242}\215z\276\013\355\212\212\211\361\326\243"
 204      7D8D7ABE 
 204      0BED8A8A 
 204      89F1D6A3 
 205 00c2 7D1BDA77 		.ascii	"}\033\332w\240}'\332\367\252x\253\325\377C&\\\334v\266"
 205      A07D27DA 
 205      F7AA78AB 
 205      D5FF4326 
 205      5CDC76B6 
 206 00d6 8A7B1EDD 		.ascii	"\212{\036\335p\001\355#\270T\033\230\347OY\202\307\251"
 206      7001ED23 
 206      B8541B98 
 206      E74F5982 
 206      C7A9
 207 00e8 F7DFCD11 		.ascii	"\367\337\315\021\254\016\023\026\226a\210\201\317\200"
 207      AC0E1316 
 207      96618881 
 207      CF80
 208 00f6 09F37DF4 		.ascii	"\011\363}\364\177\021]\033\311\021\354\301h\317UehT"
 208      7F115D1B 
 208      C911ECC1 
 208      68CF5565 
 208      6854
 209 0108 E5F0ABED 		.ascii	"\345\360\253\355\235F\3739\226\310\260C\225c\233*\237"
 209      9D46FB39 
 209      96C8B043 
 209      95639B2A 
 209      9F
 210 0119 476D0BF3 		.ascii	"Gm\013\363q\017G\370:i\241\263Sj\033\215\206\2664\336"
 210      710F47F8 
 210      3A69A1B3 
 210      536A1B8D 
 210      86B634DE 
 211 012d CCBC18F5 		.ascii	"\314\274\030\3658\032]{I\275W\343\303J\257^\265\015"
 211      381A5D7B 
 211      49BD57E3 
 211      C34AAF5E 
 211      B50D
 212 013f A30DAD6C 		.ascii	"\243\015\255lwFm\273\211I\331\337J\327F}(\252]4\335"
 212      77466DBB 
 212      8949D9DF 
 212      4AD7467D 
 212      28AA5D34 
 213 0154 6B6D1A75 		.ascii	"km\032up\306\244\203\363h\377\223\251\355o3\253\344"
 213      70C6A483 
 213      F368FF93 
 213      A9ED6F33 
 213      ABE4
ARM GAS  /tmp/ccjSXgYT.s 			page 16


 214 0166 E4A564E3 		.ascii	"\344\245d\343\347\233\356\222\033\252\224\276\276\275"
 214      E79BEE92 
 214      1BAA94BE 
 214      BEBD
 215 0174 32CBDCC9 		.ascii	"2\313\334\311</\243\255\241Z\226Y\211g\037\274\203\231"
 215      3C2FA3AD 
 215      A15A9659 
 215      89671FBC 
 215      8399
 216 0186 C1F2ECE0 		.ascii	"\301\362\354\340\000\223\007\007\271\001\020\215ax\366"
 216      00930707 
 216      B901108D 
 216      6178F6
 217 0195 25F64E38 		.ascii	"%\366N8\362@\003L\016S#\313U\270\342\303\255\203\207"
 217      F240034C 
 217      0E5323CB 
 217      55B8E2C3 
 217      AD8387
 218 01a8 318B304A 		.ascii	"1\2130J\336\374?!\036U\000\205\325\020\206\243\333\277"
 218      DEFC3F21 
 218      1E550085 
 218      D51086A3 
 218      DBBF
 219 01ba CBAC91E5 		.ascii	"\313\254\221\345\332d\337\325\005\036Y\366\363l#;\014"
 219      DA64DFD5 
 219      051E59F6 
 219      F36C233B 
 219      0C
 220 01cb E14C6099 		.ascii	"\341L`\231{\231\265\250f\255,\177x/\313\244o\375#c\336"
 220      7B99B5A8 
 220      66AD2C7F 
 220      782FCBA4 
 220      6FFD2363 
 221 01e0 D622349E 		.ascii	"\326\"4\236}\215\275\227\264#+\315\373se/\271\316\250"
 221      7D8DBD97 
 221      B4232BCD 
 221      FB73652F 
 221      B9CEA8
 222 01f3 2516DB48 		.ascii	"%\026\333H\246\001\311\240l\331\277\002i\344\017l\200"
 222      A601C9A0 
 222      6CD9BF02 
 222      69E40F6C 
 222      80
 223 0204 999F1289 		.ascii	"\231\237\022\211\261T\204*F\317\376\335\377\006b4\241"
 223      B154842A 
 223      46CFFEDD 
 223      FF066234 
 223      A1
 224 0215 4A1CF33C 		.ascii	"J\034\363<\313R\2158\007\272^\363\366>\266\012\351\236"
 224      CB528D38 
 224      07BA5EF3 
 224      F63EB60A 
 224      E99E
 225 0227 673702D4 		.ascii	"g7\002\324\"n\240P=u\273\037\000\2366\003P\275\207\006"
 225      226EA050 
 225      3D75BB1F 
 225      009E3603 
ARM GAS  /tmp/ccjSXgYT.s 			page 17


 225      50BD8706 
 226 023b E2595FC0 		.ascii	"\342Y_\300(;\234k7`4(V\017\360\2205\204\371;\337\316"
 226      283B9C6B 
 226      37603428 
 226      560FF090 
 226      3584F93B 
 227 0251 31EB8047 		.ascii	"1\353\200Gl$+\271\324C\262\2517P\206K\336\354Z\000\206"
 227      6C242BB9 
 227      D443B2A9 
 227      3750864B 
 227      DEEC5A00 
 228 0266 D3ECB0D1 		.ascii	"\323\354\260\3215^\036\345\010\333\366\347\326\362\032"
 228      355E1EE5 
 228      08DBF6E7 
 228      D6F21A
 229 0275 D8562760 		.ascii	"\330V'`~[\346\224\035\030\314\205\371\252\017\034a\347"
 229      7E5BE694 
 229      1D18CC85 
 229      F9AA0F1C 
 229      61E7
 230 0287 8227EC82 		.ascii	"\202'\354\202\366w\246\031\020{\210k\035\357s-\006\245"
 230      F677A619 
 230      107B886B 
 230      1DEF732D 
 230      06A5
 231 0299 9364DF17 		.ascii	"\223d\337\027\013\036X.+K\307\250\242(\325\362|vN\363"
 231      0B1E582E 
 231      2B4BC7A8 
 231      A228D5F2 
 231      7C764EF3 
 232 02ad 08FDF609 		.ascii	"\010\375\366\011F\020]\2307H\377P@\2247=\226N\355\010"
 232      46105D98 
 232      3748FF50 
 232      4094373D 
 232      964EED08 
 233 02c1 EA7ACDBB 		.ascii	"\352z\315\273Z\017y\023\300\3768p\260\206\236\216\021"
 233      5A0F7913 
 233      C0FE3870 
 233      B0869E8E 
 233      11
 234 02d2 7858D80F 		.ascii	"xX\330\017@\307\323\024\0340\3517@\3537\020H\035\364"
 234      40C7D314 
 234      1C30E937 
 234      40EB3710 
 234      481DF4
 235 02e5 691B3D68 		.ascii	"i\033=h\375]\353pL\322lLJH\365p\250\205OZm\306a\223"
 235      FD5DEB70 
 235      4CD26C4C 
 235      4A48F570 
 235      A8854F5A 
 236 02fd 67D7B1DF 		.ascii	"g\327\261\337Et=;\022\321m@w\000\335\011t/\242\372f"
 236      45743D3B 
 236      12D16D40 
 236      7700DD09 
 236      742FA2FA 
 237 0312 1721D6B0 		.ascii	"\027!\326\2609)\354\307<\372\375\034\363\261I\325\337"
 237      3929ECC7 
ARM GAS  /tmp/ccjSXgYT.s 			page 18


 237      3CFAFD1C 
 237      F3B149D5 
 237      DF
 238 0323 615E96E5 		.ascii	"a^\226\345:\024\212Z\263\226\311\212\227T\345\230^\270"
 238      3A148A5A 
 238      B396C98A 
 238      9754E598 
 238      5EB8
 239 0335 6D35FB6D 		.ascii	"m5\373m\313&\364\006\276\3074\342\230\260P~j(\013!\213"
 239      CB26F406 
 239      BEC734E2 
 239      98B0507E 
 239      6A280B21 
 240 034a 516B51C2 		.ascii	"QkQ\302\265\261\234\361\002\211~\312\361\003\317j\321"
 240      B5B19CF1 
 240      02897ECA 
 240      F103CF6A 
 240      D1
 241 035b 6F821AD4 		.ascii	"o\202\032\3248\346&\305\036\0048\216Y\354e\215\314\312"
 241      38E626C5 
 241      1E04388E 
 241      59EC658D 
 241      CCCA
 242 036d DDC2C384 		.ascii	"\335\302\303\204\003\236\375#\202\346\331\303\016\371"
 242      039EFD23 
 242      82E6D9C3 
 242      0EF9
 243 037b DC2B4F1D 		.ascii	"\334+O\035\256\263y\330\314\346\273\226l\336<\220[;"
 243      AEB379D8 
 243      CCE6BB96 
 243      6CDE3C90 
 243      5B3B
 244 038d 27D9D757 		.ascii	"'\331\327W\237\247\361\270\322\233\306#\317\036\321"
 244      9FA7F1B8 
 244      D29BC623 
 244      CF1ED1
 245 039c 2AAB3C5E 		.ascii	"*\253<^6\363xl <\0363\363x<\235\307\206\244\262\253"
 245      36F3786C 
 245      203C1E33 
 245      F3783C9D 
 245      C786A4B2 
 246 03b1 FA108BDA 		.ascii	"\372\020\213\332\274\321\327\347q\221F\274\247\246\021"
 246      BCD1D7E7 
 246      719146BC 
 246      A7A611
 247 03c0 290FE198 		.ascii	")\017\341\230\315^\332=t\266\344\327d\217\316\326)3"
 247      CD5EDA3D 
 247      74B6E4D7 
 247      648FCED6 
 247      2933
 248 03d2 5BA72DD9 		.ascii	"[\247-\331:\322f\260\260s\276\316\322\351\015Q\020u"
 248      3AD266B0 
 248      B073BECE 
 248      D2E90D51 
 248      1075
 249 03e4 C2A4B9F5 		.ascii	"\302\244\271\365.'6\271\242\331\204c\216\302\375g2\333"
 249      2E2736B9 
ARM GAS  /tmp/ccjSXgYT.s 			page 19


 249      A2D98463 
 249      8EC2FD67 
 249      32DB
 250 03f6 8454533A 		.ascii	"\204TS:\332rkY\255b\247\223\212\232\326\220\006\206"
 250      DA726B59 
 250      AD62A793 
 250      8A9AD690 
 250      0686
 251 0408 D4FC4A57 		.ascii	"\324\374JW\333\031\263\332\316\321j\273\207Y-'\3218"
 251      DB19B3DA 
 251      CED16ABB 
 251      87592D27 
 251      D138
 252 041a 7BA1FD7F 		.ascii	"{\241\375\177\232\252\344y\317\310\362\325>\266\317"
 252      9AAAE479 
 252      CFC8F2D5 
 252      3EB6CF
 253 0429 A3255E86 		.ascii	"\243%^\206\260\245\370\264Vg3\372\370\274\350#\345\237"
 253      B0A5F8B4 
 253      566733FA 
 253      F8BCE823 
 253      E59F
 254 043b 76CAF250 		.ascii	"v\312\362P\236\275\010)\335\253Y\264-\373\305\341\230"
 254      9EBD0829 
 254      DDAB59B4 
 254      2DFBC5E1 
 254      98
 255 044c 2D50E513 		.ascii	"-P\345\023S\016\2078J>\261\024\220?q\220\306\311\312"
 255      530E8738 
 255      4A3EB114 
 255      903F7190 
 255      C6C9CA
 256 045f A2D32B58 		.ascii	"\242\323+X\234\015X\264\230\3243\306\021F\316\257~s"
 256      9C0D58B4 
 256      98D433C6 
 256      1146CEAF 
 256      7E73
 257 0471 0FE05F02 		.ascii	"\017\340_\002\316\337\350\237s\032\207c\332\240Jw:\347"
 257      CEDFE89F 
 257      731A8763 
 257      DAA04A77 
 257      3AE7
 258 0483 EDBF249C 		.ascii	"\355\277$\234w;\342|\373I[\316\255B\"R\3717\017\002"
 258      773BE27C 
 258      FB495BCE 
 258      AD422252 
 258      F9370F02 
 259 0497 FC1560BC 		.ascii	"\374\025`\274\323\232\361\206\011v8\034\323\005Uz\323"
 259      D39AF186 
 259      0976381C 
 259      D305557A 
 259      D3
 260 04a8 19BFFA7D 		.ascii	"\031\277\372}\302x\257\243\314\371H\315JH\300,'\003"
 260      C278AFA3 
 260      CCF948CD 
 260      4A48C02C 
 260      2703
ARM GAS  /tmp/ccjSXgYT.s 			page 20


 261 04ba 86D61BBC 		.ascii	"\206\326\033\274Z\363\017\245\304\250\375\350\252\017"
 261      5AF30FA5 
 261      C4A8FDE8 
 261      AA0F
 262 04c8 92843E90 		.ascii	"\222\204>\220\342Z\377\352\247a8\246*\033W\251\342\322"
 262      E25AFFEA 
 262      A76138A6 
 262      2A1B57A9 
 262      E2D2
 263 04da D53F8A48 		.ascii	"\325?\212H\201\213\372W\377\2256\242~M\237\013t\330"
 263      818BFA57 
 263      FF9536A2 
 263      7E4D9F0B 
 263      74D8
 264 04ec 0C51966C 		.ascii	"\014Q\226l\226\231\337\3256\227\231\337[Z\3467\237\303"
 264      9699DFD5 
 264      369799DF 
 264      5B5AE637 
 264      9FC3
 265 04fe 89495DF6 		.ascii	"\211I]\366m\311\374\226\233\305p\225\300b5v\215j\331"
 265      6DC9FC96 
 265      9BC57095 
 265      C0623576 
 265      8D6AD9
 266 0511 2CCBCF64 		.ascii	",\313\317dk\016\225m'\011\232n@c\013\315\246h\351nU"
 266      6B0E956D 
 266      27099A6E 
 266      40630BCD 
 266      A668E96E 
 267 0526 1D6AA103 		.ascii	"\035j\241\003ST)[\333^p\346P\234\326\374w\240\371Nh"
 267      5354295B 
 267      DB5E70E6 
 267      509CD6FC 
 267      77A0F94E 
 268 053b BECEDCFC 		.ascii	"\276\316\334\374\262+\255\377E\232\257s\324|\313\311"
 268      B22BADFF 
 268      459AAF73 
 268      D47CCBC9 
 269 054b C5E9CDDB 		.ascii	"\305\351\315\333\206\015\325~-\335]#\352\241\221%\034"
 269      860DD57E 
 269      2DDD5D23 
 269      EAA19125 
 269      1C
 270 055c 1EAC17FB 		.ascii	"\036\254\027\373\314\346\373q\216\261-87\334\200b\273"
 270      CCE6FB71 
 270      8EB12D38 
 270      37DC8062 
 270      BB
 271 056d 4FE37E60 		.ascii	"O\343~`\363\240eW\272~\271\026,\245\361\320\340\032"
 271      F3A06557 
 271      BA7EB916 
 271      2CA5F1D0 
 271      E01A
 272 057f 318F52C4 		.ascii	"1\217R\304\356\2230\023\"`/;\001\3130\023\332c\004{"
 272      EE933013 
 272      22602F3B 
 272      01CB3013 
ARM GAS  /tmp/ccjSXgYT.s 			page 21


 272      DA63047B 
 273 0593 C53518CD 		.ascii	"\3055\030\315Y\273\021l\255\0230\253|X\005\3530\202"
 273      59BB116C 
 273      AD1330AB 
 273      7C5805EB 
 273      3082
 274 05a5 35B906A3 		.ascii	"5\271\006\2439;f\004\333\350\004l\270=g'\214`[\\\203"
 274      393B6604 
 274      DBE8046C 
 274      B83D6727 
 274      8C605B5C 
 275 05ba D19C751A 		.ascii	"\321\234u\032\301\266;\001\313\263\340L\337\354R\250"
 275      C1B63B01 
 275      CBB3E04C 
 275      DFEC52A8 
 276 05ca 459CEEE7 		.ascii	"E\234\356\347h\372\352\323\006\004\227>\315\2440\336"
 276      68FAEAD3 
 276      0604973E 
 276      CDA430DE 
 277 05da F0B91DC1 		.ascii	"\360\271\035\301(\271q8\033\265S\355\0277!\221\332\347"
 277      28B97138 
 277      1BB553ED 
 277      17372191 
 277      DAE7
 278 05ec 043183C3 		.ascii	"\0041\203\303\324\036\002M\022\260\003\256\301h\263"
 278      D41E024D 
 278      12B003AE 
 278      C168B3
 279 05fb ACC260D4 		.ascii	"\254\302`\324P\243\006\215d\2432|ij\260\363kXxBBF\266"
 279      50A3068D 
 279      64A3327C 
 279      696AB0F3 
 279      6B587842 
 280 0612 5A59E6F4 		.ascii	"ZY\346\364\233\345\341\303\255\357\345\331-\034\236"
 280      9BE5E1C3 
 280      ADEFE5D9 
 280      2D1C9E
 281 0621 D5FD9E0B 		.ascii	"\325\375\236\013\350\\\220c\355\210L+\337\361Y-\275"
 281      E85C9063 
 281      ED884C2B 
 281      DFF1592D 
 281      BD
 282 0632 0140E6AA 		.ascii	"\001@\346\252v\236\320l\364\204\016'j\312\320\025\332"
 282      769ED06C 
 282      F4840E27 
 282      6ACAD015 
 282      DA
 283 0643 EDD4E468 		.ascii	"\355\324\344h\375\000\215\316w\257\203\321\271\005\202"
 283      FD008DCE 
 283      77AF83D1 
 283      B90582
 284 0652 EBC9B4D1 		.ascii	"\353\311\264\321\371Mspu8\035\267\023~\207Q\370\017"
 284      F94D7370 
 284      75381DB7 
 284      137E8751 
 284      F80F
 285 0664 5D0B6F76 		.ascii	"]\013ov\341\256\373Z^\227\345\271\331\006sg\364\015"
ARM GAS  /tmp/ccjSXgYT.s 			page 22


 285      E1AEFB5A 
 285      5E97E5B9 
 285      D9067367 
 285      F40D
 286 0676 BC3AB987 		.ascii	"\274:\271\207\254\276\354\001\211/\232$v\016t\275f\303"
 286      ACBEEC01 
 286      892F9A24 
 286      760E74BD 
 286      66C3
 287 0688 2800DA07 		.ascii	"(\000\332\007@\237\017\030\250\247n\325x\000z\013\200"
 287      409F0F18 
 287      A8A76ED5 
 287      78007A0B 
 287      80
 288 0699 7AD36C60 		.ascii	"z\323l`6\001K\233\200\015\244\016\322VOn\343\275\034"
 288      36014B9B 
 288      800DA40E 
 288      D2564F6E 
 288      E3BD1C
 289 06ac 33CF6FB2 		.ascii	"3\317o\262\027%N\206\321Q\267Wk\320\265\275\252U{\035"
 289      17254E86 
 289      D151B757 
 289      6BD0B5BD 
 289      AA557B1D 
 290 06c0 04EDD4F8 		.ascii	"\004\355\324\370\315\332\331\307\271S\017J!]\213\341"
 290      CDDAD9C7 
 290      B9530F4A 
 290      215D8BE1 
 291 06d0 37897169 		.ascii	"7\211qi\000b\354%b\034\0061\226\336\0061\032\\\2131"
 291      0062EC25 
 291      621C0631 
 291      96DE0631 
 291      1A5C8B31 
 292 06e4 D42006CC 		.ascii	"\324 \006\314g&\221\024\366kL]\346\024\026\363s\224"
 292      67269114 
 292      F66B4C5D 
 292      E61416F3 
 292      7394
 293 06f6 FB1A953F 		.ascii	"\373\032\225?*\307\017\263y\344r\377\263\210\356\303"
 293      2AC70FB3 
 293      79E472FF 
 293      B388EEC3 
 294 0706 86A708B2 		.ascii	"\206\247\010\262\263\247\010z\342\177\002T\326\350\267"
 294      B3A7087A 
 294      E27F0254 
 294      D6E8B7
 295 0715 E8604EA0 		.ascii	"\350`N\240\032\256\267\335\201\0276O\001\314\372\201"
 295      1AAEB7DD 
 295      8117364F 
 295      01CCFA81 
 296 0725 C2247B3A 		.ascii	"\302${:\266\223~\372>\000mI3a\266\311\202\331\264\005"
 296      B6937EFA 
 296      3E006D49 
 296      3361B6C9 
 296      82D9B405 
 297 0739 D1296EE9 		.ascii	"\321)n\351*\214\220\277U\257\340\023\037\363\017\257"
 297      2A8C90BF 
ARM GAS  /tmp/ccjSXgYT.s 			page 23


 297      55AFE013 
 297      1FF30FAF 
 298 0749 87D20760 		.ascii	"\207\322\007`\037[o i5\366\036\345_[\324\364\201\030"
 298      1F5B6F20 
 298      6935F61E 
 298      E55F5BD4 
 298      F48118
 299 075c E8AD5B42 		.ascii	"\350\255[B\254R\352\237]\251>\260\3701N \336\271E\270"
 299      AC52EA9F 
 299      5DA93EB0 
 299      F8314E20 
 299      DEB945B8 
 300 0770 DDEF9A23 		.ascii	"\335\357\232#\243i\342\322g\263\354\257/$$\2077Al\274"
 300      A369E2D2 
 300      67B3ECAF 
 300      2F242487 
 300      37416CBC 
 301 0784 00A9E1B1 		.ascii	"\000\251\341\2614{\337dMS\227\233,5w\261\353I\347\215"
 301      347BDF64 
 301      4D53979B 
 301      2C3577B1 
 301      EB49E78D 
 302 0798 31F02FB7 		.ascii	"1\360/\267l\207\316\007i;|z\213\212\273\366\254\263"
 302      6C87CE07 
 302      693B7C7A 
 302      8B8ABBF6 
 302      ACB3
 303 07aa 758B5F69 		.ascii	"u\213_iX\271 H\0174\373\231y\226\371\374\272s\325\352"
 303      58B92048 
 303      0F34FB99 
 303      7996F9FC 
 303      BA73D5EA 
 304 07be 238ACF1C 		.ascii	"#\212\317\034-8\234>\037\220\353r\311r\003\317Vs"
 304      2D389C3E 
 304      1F90EB72 
 304      C97203CF 
 304      5673
 305 07d0 9C8A6A95 		.ascii	"\234\212j\225\306\364\253\036\345\254\320:\306\315\240"
 305      C6F4AB1E 
 305      E5ACD03A 
 305      C6CDA0
 306 07df B35F1B74 		.ascii	"\263_\033t\272A\227k\002f\243\2372\217\323\256z\335"
 306      BA41976B 
 306      0266A39F 
 306      328FD3AE 
 306      7ADD
 307 07f1 BA004B8B 		.ascii	"\272\000K\213\343t\266\250ovN\365\251\321\251^\017\334"
 307      E374B6A8 
 307      6F764EF5 
 307      A9D1A95E 
 307      0FDC
 308 0803 920BE0C4 		.ascii	"\222\013\340\304\352a27\350\317\011d}\321o(\264\274"
 308      EA613237 
 308      E8CF0964 
 308      7DD16F28 
 308      B4BC
 309 0815 155AEE35 		.ascii	"\025Z\3565{\301\227\353\017>\315\316\001\305\366:\362"
ARM GAS  /tmp/ccjSXgYT.s 			page 24


 309      7BC197EB 
 309      0F3ECDCE 
 309      01C5F63A 
 309      F2
 310 0826 821E0B2F 		.ascii	"\202\036\013/\350\035\360\242\323\265\213\007Y\200#"
 310      E81DF0A2 
 310      D3B58B07 
 310      598023
 311 0835 7393A4CE 		.ascii	"s\223\244\316\244K+\250p7\220S\271S\014\361/\345\324"
 311      A44B2BA8 
 311      70379053 
 311      B9530CF1 
 311      2FE5D4
 312 0848 791C32AB 		.ascii	"y\0342\253<x!\355B\232k\021\315\030\\+\245F\236\275"
 312      3C7821ED 
 312      429A6B11 
 312      CD185C2B 
 312      A5469EBD 
 313 085c 0193952F 		.ascii	"\001\223\225/9\374\300\351&P\331\343\340\261\323\034"
 313      39FCC0E9 
 313      2650D9E3 
 313      E0B1D31C 
 314 086c 8FC12D3E 		.ascii	"\217\301->s-w\236C\357\273f\364\276\356[\364\276\336"
 314      732D779E 
 314      43EFBB66 
 314      F4BEEE5B 
 314      F4BEDE
 315 087f 0B5D9396 		.ascii	"\013]\223\226\311\312<\217\233w\016\336\326\227\011"
 315      C9CA3C8F 
 315      9B770EDE 
 315      D69709
 316 088e 3D9045A7 		.ascii	"=\220E\247iw@\313\204\325\203\006(\212\276q\314\302"
 316      697740CB 
 316      84D58306 
 316      288ABE71 
 316      CCC2
 317 08a0 410E6639 		.ascii	"A\016f9y\026Z\327G\370\344\277;\\j\324CW\353]\255\020"
 317      79165AD7 
 317      47F8E4BF 
 317      3B5C6AD4 
 317      4357EB5D 
 318 08b6 BA7E07AE 		.ascii	"\272~\007\256\366\354 \3535\360\014K\226\253\240\312"
 318      F6EC20EB 
 318      35F00C4B 
 318      96ABA0CA 
 319 08c6 224FDAEA 		.ascii	"\"O\332\352\261\242.Y\342\"\007o\217\324h1\235\304\306"
 319      B1A22E59 
 319      E222076F 
 319      8FD46831 
 319      9DC4C6
 320 08d9 A73C9C0A 		.ascii	"\247<\234\012;P}R&L\361\307\263\317yp\007Yl\354\024"
 320      3B507D52 
 320      264CF1C7 
 320      B3CF7970 
 320      07596CEC 
 321 08ee 682074A2 		.ascii	"h t\242\373\177\266sE4\014u\320\253\337\333\314xV\003"
 321      FB7FB673 
ARM GAS  /tmp/ccjSXgYT.s 			page 25


 321      45340C75 
 321      D0ABDFDB 
 321      CC785603 
 322 0902 118567B4 		.ascii	"\021\205g\264e\225R{\024\226H\210\217\356u\302\334\030"
 322      6595527B 
 322      14964888 
 322      8FEE75C2 
 322      DC18
 323 0914 7BB0FAE7 		.ascii	"{\260\372\3474\345^\203\014\245\325\011\336x;a\253\224"
 323      34E55E83 
 323      0CA5D509 
 323      DE783B61 
 323      AB94
 324 0926 ED4757A8 		.ascii	"\355GW\250xd\251\275\3355\036\315\337\361\347\250\204"
 324      7864A9BD 
 324      DD351ECD 
 324      DFF1E7A8 
 324      84
 325 0937 EE9413B8 		.ascii	"\356\224\023\270\011\216m_e\030\034\347\301\340\370"
 325      098E6D5F 
 325      65181CE7 
 325      C1E0F8
 326 0946 140C8B4F 		.ascii	"\024\014\213O\003]\000\264\011\350\353@7\001\335\016"
 326      035D00B4 
 326      09E8EB40 
 326      3701DD0E 
 327 0956 F40DA0AD 		.ascii	"\364\015\240\255@\337\001\332\001t\241\007\323%@\227"
 327      40DF01DA 
 327      0174A107 
 327      D3254097 
 328 0966 025D0E74 		.ascii	"\002]\016t\005\320UN\006\\S\016\250\271|\357@\337\343"
 328      05D0554E 
 328      065C530E 
 328      A8B97CEF 
 328      40DFE3
 329 0979 81679DBC 		.ascii	"\201g\235\274\026\271>\030\304\272\004\313\313\244\303"
 329      16B93E18 
 329      C4BA04CB 
 329      CBA4C3
 330 0988 5EC33B0E 		.ascii	"^\303;\0167\340\035\207/\341\215\206\006\243\244Z\370"
 330      37E01D87 
 330      2FE18D86 
 330      06A3A45A 
 330      F8
 331 0999 EDCEFC66 		.ascii	"\355\316\374fE\006\021ZN\032\035\213g\377\317\214\347"
 331      4506115A 
 331      4E1A1D8B 
 331      67FFCF8C 
 331      E7
 332 09aa 2AFECADA 		.ascii	"*\376\312\332\002<y\240\262\3365\030\355\245G_\240\207"
 332      023C79A0 
 332      B2DE3518 
 332      EDA5475F 
 332      A087
 333 09bc A80D4EF0 		.ascii	"\250\015N\3602\254\202\252+\335\004l\243k0\232\271\367"
 333      32AC82AA 
 333      2BDD046C 
ARM GAS  /tmp/ccjSXgYT.s 			page 26


 333      A36B309A 
 333      B9F7
 334 09ce 4E1A8CFF 		.ascii	"N\032\214\377\347Al\377`Vk\205\326\306\3576\030\277"
 334      E7416CFF 
 334      60566B85 
 334      D6C6EF36 
 334      18BF
 335 09e0 078CFF37 		.ascii	"\007\214\37770\376K\340\354/\003]\003\264\021\350+\364"
 335      30FE4BE0 
 335      EC2F035D 
 335      03B411E8 
 335      2BF4
 336 09f2 D0FAC920 		.ascii	"\320\372\311 \355\301\264\332\030\375\374\267\377\324"
 336      EDC1B4DA 
 336      18FDFCB7 
 336      FFD4
 337 0a00 7C99FD23 		.ascii	"|\231\375#i\253\344\011E\265K#:!\366\254\203\250\366"
 337      69ABE409 
 337      45B54B23 
 337      3A21F6AC 
 337      83A8F6
 338 0a13 B97554CB 		.ascii	"\271uT\313\224\235\316\317\301U6\244G\265\256\377$Q"
 338      949DCECF 
 338      C15536A4 
 338      47B5AEFF 
 338      2451
 339 0a25 6D83A3A8 		.ascii	"m\203\243\250vf\211\303'\273z\363_7\212\321:\202<\240"
 339      766689C3 
 339      27BB7AF3 
 339      5F378AD1 
 339      3A823CA0 
 340 0a39 DE0C62D4 		.ascii	"\336\014b\324\347\364\377h\227\302\341\230\215Pe\253"
 340      E7F4FF68 
 340      97C2E198 
 340      8D5065AB 
 341 0a49 85183388 		.ascii	"\205\0303\210\030[\035\211\261r\211\346\371\315\236"
 341      185B1D89 
 341      B17289E6 
 341      F9CD9E
 342 0a58 5470DEEA 		.ascii	"Tp\336\352>8kK\366'\300Y\011\330j\327`\264\3477\237"
 342      3E386B4B 
 342      F627C059 
 342      09D86AD7 
 342      60B4E737 
 343 0a6d 70FBDEE9 		.ascii	"p\373\336\351\242\217:_Qg\232\273 \276*&\315\0160\007"
 343      A28F3A5F 
 343      51679ABB 
 343      20BE2A26 
 343      CD0E3007 
 344 0a81 6CD3B53D 		.ascii	"l\323\265=\240\331\002^\365|\274%}2\345\374\355\233"
 344      A0D9025E 
 344      F57CBC25 
 344      7D32E5FC 
 344      ED9B
 345 0a93 7D1ED3DB 		.ascii	"}\036\323\3337\360\210\324\360\262MF\245$\277\365\032"
 345      37F088D4 
 345      F0B24D46 
ARM GAS  /tmp/ccjSXgYT.s 			page 27


 345      A524BFF5 
 345      1A
 346 0aa4 F884E2C1 		.ascii	"\370\204\342\301cH\273I'\2465\021\334\224\035\033o{"
 346      6348BB49 
 346      27A63511 
 346      DC941D1B 
 346      6F7B
 347 0ab6 726C5C2A 		.ascii	"rl\\*\255\014\005{\327J\243\314\217\2275\036\327\236"
 347      AD0C057B 
 347      D74AA3CC 
 347      8F97351E 
 347      D79E
 348 0ac8 4E41F670 		.ascii	"NA\366p\326\011\240\363\267\373\266\0322\307\355\220"
 348      D609A0F3 
 348      B7FBB61A 
 348      32C7ED90 
 349 0ad8 39EE8041 		.ascii	"9\356\200A\256\005\350N\240{\201\036p\022\365\233=\206"
 349      AE05E84E 
 349      A07B811E 
 349      7012F59B 
 349      3D86
 350 0aea B7FB483F 		.ascii	"\267\373H?\3320\340~t)\275\037\271\001\243\024\251\364"
 350      DA30E07E 
 350      7429BD1F 
 350      B901A314 
 350      A9F4
 351 0afc 9CD0622F 		.ascii	"\234\320b/\356\024<\273\307\011^\206\271\357b\022\221"
 351      EE143CBB 
 351      C7095E86 
 351      B9EF6212 
 351      91
 352 0b0d 480FFB50 		.ascii	"H\017\373P\037O]Z\331\332(\033\014F\331\010F\331\004"
 352      1F4F5D5A 
 352      D9DA281B 
 352      0C46D908 
 352      46D904
 353 0b20 263808B4 		.ascii	"&8\010\264\015\350!:\012}\234c\212B\364\220o\025\024"
 353      0DE8213A 
 353      0A7D9C63 
 353      8A42F490 
 353      6F1514
 354 0b33 8DFA9195 		.ascii	"\215\372\221\225M\247\221<\316'V\235w\223\211\325\273"
 354      4DA7913C 
 354      CE27569D 
 354      779389D5 
 354      BB
 355 0b44 2404598F 		.ascii	"$\004Y\217\335\231&Vsrq\225\216\364\261;\031\"cwG\377"
 355      DD992656 
 355      73727195 
 355      8EF4B13B 
 355      19226377 
 356 0b5a 63F7BCB9 		.ascii	"c\367\274\271\312\262\345\257\244B\320\\\275\377nF\371"
 356      CAB2E5AF 
 356      A442D05C 
 356      BDFF6E46 
 356      F9
 357 0b6b 95AD8F1A 		.ascii	"\225\255\217\032\347\350\213t6\\\372\250\265\345:\014"
ARM GAS  /tmp/ccjSXgYT.s 			page 28


 357      E7E88B74 
 357      365CFAA8 
 357      B5E53A0C 
 358 0b7b 963B0696 		.ascii	"\226;\006\226;N\333\351\305\\\223\235\372\235\210\321"
 358      3B4EDBE9 
 358      C55C939D 
 358      FA9D88D1 
 359 0b8b 666A39AD 		.ascii	"fj9\255M\304\310\013Q\365f<\372\365'\365\220\232<1\024"
 359      4DC4C80B 
 359      51F5663C 
 359      FAF527F5 
 359      909A3C31 
 360 0ba0 60871BBB 		.ascii	"`\207\033\273\367}\361-\374\004\341}0\372\272\\\227"
 360      F77DF12D 
 360      FC04E17D 
 360      30FABA5C 
 360      97
 361 0bb1 46C70AFA 		.ascii	"F\307\012\372\300dp\345\262\220G\256\366\037\247\257"
 361      C06470E5 
 361      B29047AE 
 361      F61FA7AF 
 362 0bc1 9D5757AF 		.ascii	"\235WW\257\310\273\367\273\240\375\017n\227\351>0\230"
 362      C8BBF7BB 
 362      A0FD0F6E 
 362      97E93E30 
 362      98
 363 0bd2 2E09A63B 		.ascii	".\011\246;G\233\356\017NLWna:\353\366>1\244\235\237"
 363      479BEE0F 
 363      4E4C576E 
 363      613AEBF6 
 363      3E31A49D 
 364 0be7 41DAF957 		.ascii	"A\332\371WH;\327B\367>\014\364\024\320\3234\037o\353"
 364      483BD742 
 364      F73E0CF4 
 364      14D0D334 
 364      1F6FEB
 365 0bfa 7A579BA1 		.ascii	"zW\233\241_\225\304\330\177\366\350ooB\33607c\336\200"
 365      5F95C4D8 
 365      7FF6E86F 
 365      6F42DE30 
 365      3763DE80 
 366 0c0e 861768BF 		.ascii	"\206\027h\277\377$\300\352m\307,\015\352\277S~\322|"
 366      FF24C0EA 
 366      6DC72C0D 
 366      EABF537E 
 366      D27C
 367 0c20 E1DCC76C 		.ascii	"\341\334\307l3yh\000\276r\335\332W\354\2010W\027\315"
 367      33796800 
 367      BE72DDDA 
 367      57EC8130 
 367      5717CD
 368 0c33 BEF2426F 		.ascii	"\276\362Bo+\013O\236.:\032\033^\354m\347`\375\214g\317"
 368      2B0B4F9E 
 368      2E3A1A1B 
 368      5EEC6DE7 
 368      60FD8C67 
 369 0c48 C3303DEF 		.ascii	"\3030=\357+\254\012;\200\200\204\000W\340\366\261\003"
ARM GAS  /tmp/ccjSXgYT.s 			page 29


 369      2BAC0A3B 
 369      80808400 
 369      57E0F6B1 
 369      03
 370 0c59 12B8675C 		.ascii	"\022\270g\\\303\345Qp\253h\270Z'pv\021\011\301m\242"
 370      C3E55170 
 370      AB68B85A 
 370      27707611 
 370      09C16DA2 
 371 0c6d E15E700D 		.ascii	"\341^p\015Gs\267\231\206[\345\004\316n:\210\340~O\303"
 371      4773B799 
 371      865BE504 
 371      CE6E3A88 
 371      E07E4FC3 
 372 0c81 BDEA1A8E 		.ascii	"\275\352\032\216\346n\033\015\367\272\0238\273\327G"
 372      E66E1B0D 
 372      F7BA1338 
 372      BBD747
 373 0c90 16CF5576 		.ascii	"\026\317Uv\0208\275\263(\267\241\263p\3146\327\\\321"
 373      1038BDB3 
 373      28B7A1B3 
 373      70CC36D7 
 373      5CD1
 374 0ca2 42EEA485 		.ascii	"B\356\244\205\334\345\004.\317\336\004\273i\270}\256"
 374      DCE5042E 
 374      CFDE04BB 
 374      69B87DAE 
 375 0cb2 E168EEF6 		.ascii	"\341h\356\366\320p\007\234\300eXbl'p_ej\265(B\346)v"
 375      D070079C 
 375      C0655862 
 375      6C27705F 
 375      656AB528 
 376 0cca 9164AEF7 		.ascii	"\221d\256\367\253pD=\325\202;\354j\314\363\246^S\312"
 376      AB70443D 
 376      D5823BEC 
 376      6ACCF3A6 
 376      5E53CA
 377 0cdd 0D180FC8 		.ascii	"\015\030\017\310\3061G\\\313@\253\244\203V\311i'pv\261"
 377      C631475C 
 377      CB40ABA4 
 377      8356C969 
 377      277076B1 
 378 0cf1 19C11DA3 		.ascii	"\031\301\035\243\341\316\271\206\243\271;A\303\375\305"
 378      E1CEB986 
 378      A3B93B41 
 378      C3FDC5
 379 0d00 099CED32 		.ascii	"\011\234\3552\251\254tjp\330\022\034s\3315\034\315\335"
 379      A9AC746A 
 379      70D8121C 
 379      73D9351C 
 379      CDDD
 380 0d12 7B3477D7 		.ascii	"{4w\327\235\300M\260\327\335\3734\334\234\301n\341h"
 380      9DC04DB0 
 380      D7DDFB34 
 380      DC9CC16E 
 380      E168
 381 0d24 EECED270 		.ascii	"\356\316\322pO;\201{\330^w\227h\335-r\015Gs\3679\315"
ARM GAS  /tmp/ccjSXgYT.s 			page 30


 381      4F3B817B 
 381      D85E7797 
 381      68DD2D72 
 381      0D4773F7 
 382 0d3a DD8B4EE0 		.ascii	"\335\213N\340\246\332\353\356\013\032n\265k8\232\273"
 382      A6DAEBEE 
 382      0B1A6EB5 
 382      6B389ABB 
 383 0d4a BF99867E 		.ascii	"\277\231\206~'p3,\270\263\332\214Y\002\317~\004y\333"
 383      2770332C 
 383      B8B3DA8C 
 383      5902CF7E 
 383      0479DB
 384 0d5d C790357D 		.ascii	"\307\2205}\012\364\257@/\003\355\006\332\003\364\012"
 384      0AF4AF40 
 384      2F03ED06 
 384      DA03F40A 
 385 0d6d D06B406F 		.ascii	"\320k@o\000\275\011T\366bZ\005\264\032\350|\2405@\027"
 385      00BD0954 
 385      F6625A05 
 385      B41AE87C 
 385      A0354017 
 386 0d81 00FD1DD0 		.ascii	"\000\375\035\320Z\240u@\027\003]\002t)\320\345^C\316"
 386      5AA07540 
 386      17035D02 
 386      7429D0E5 
 386      5E43CE
 387 0d94 665A5CB8 		.ascii	"fZ\\\270`#:\226f\205W\237\234\340O\225\224K\311eW\332"
 387      60233A96 
 387      6685579F 
 387      9CE04F95 
 387      944BC965 
 388 0daa 77B0971B 		.ascii	"w\260\227\033\253e\374\255\327o\353\225\241\246\005"
 388      AB65FCAD 
 388      D76FEB95 
 388      A1A605
 389 0db9 93A60C63 		.ascii	"\223\246\014c\344*o\372wT\315\203\351TL\375\"\250J\336"
 389      E42A6FFA 
 389      7754CD83 
 389      E9544CFD 
 389      22A84ADE 
 390 0dcd FC9A1C20 		.ascii	"\374\232\034 p\270\302J\257\365wD*^\275\227\372>\310"
 390      70B8C24A 
 390      AFF57744 
 390      2A5EBD97 
 390      FA3EC8
 391 0de0 24E1459B 		.ascii	"$\341E\233$\031\276\301K\223\260\361\305%\372\307\346"
 391      2419BEC1 
 391      4B93B0F1 
 391      C525FAC7 
 391      E6
 392 0df1 235D7C8D 		.ascii	"#]|\215\365\2627\323\327XD\220\264s\323\327Y\207L\332"
 392      F5B237D3 
 392      D7584490 
 392      B473D3D7 
 392      59874CDA 
 393 0e05 50BFC73A 		.ascii	"P\277\307:b\376F\356%\033u\320\337c\235inc\345a\332"
ARM GAS  /tmp/ccjSXgYT.s 			page 31


 393      62FE46EE 
 393      251B75D0 
 393      DF639D69 
 393      6E63E561 
 394 0e1a 04E52860 		.ascii	"\004\345(`\333\327\004\216\324\232gq\203M\360\256\333"
 394      DBD7048E 
 394      D49A6771 
 394      834DF0AE 
 394      DB
 395 0e2b 879ECC0D 		.ascii	"\207\236\314\015\252\202\250\337q\235n\236\323\300\312"
 395      AA82A8DF 
 395      719D6E9E 
 395      D3C0CA
 396 0e3a D9FA975C 		.ascii	"\331\372\227\\\270\036\325?^\315h)\374\335\240\235~"
 396      B81ED53F 
 396      5ECD6829 
 396      FCDDA09D 
 396      7E
 397 0e4b 37A42CC5 		.ascii	"7\244,\305\214\270\357\276`Ai\244(2\2450\030O\004E)"
 397      8CB8EFBE 
 397      604169A4 
 397      2832A530 
 397      184F0445 
 398 0e60 9810C3C1 		.ascii	"\230\020\303\301p\251\024\275/\314\344\245\025Fb\341"
 398      70A914BD 
 398      2FCCE4A5 
 398      154662E1 
 399 0e70 B28A6281 		.ascii	"\262\212b\201\334P\312\014\223\"Q!\024\025\370D\205"
 399      DC50CA0C 
 399      93225121 
 399      1415F844 
 399      85
 400 0e81 28448598 		.ascii	"(D\205\230\024\222\262\177\366\350cy\005\314\277\320"
 400      1492B27F 
 400      F6E86379 
 400      05CCBFD0 
 401 0e91 55C3F168 		.ascii	"U\303\361h4\036\013\226\307E)\021\374\311\264\311\005"
 401      341E0B96 
 401      C7452911 
 401      FCC9B4C9 
 401      05
 402 0ea2 9367E36B 		.ascii	"\223g\343k\345\2212AL\004\177VP\200\021\237,\027\022"
 402      E5913241 
 402      4C047F56 
 402      5080119F 
 402      2C1712
 403 0eb5 08D4274A 		.ascii	"\010\324'Ja\214\224\010\306f\302\376\203`i<*\004E!!"
 403      618C9408 
 403      C666C2FE 
 403      8360693C 
 403      2A044521 
 404 0eca F062B834 		.ascii	"\360b\2704X\312\213\305\225\274(\004y1\232\037,\011"
 404      58CA8BC5 
 404      95BC2804 
 404      79319A1F 
 404      2C09
 405 0edc 8747A383 		.ascii	"\207G\243\203\321B\264H(.\026\212\365\013\261xL\030"
ARM GAS  /tmp/ccjSXgYT.s 			page 32


 405      D142B448 
 405      282E168A 
 405      F50BB178 
 405      4C18
 406 0eee 2DF04591 		.ascii	"-\360E\221\321\343B\343G\347\217\031;\3567\371A\252"
 406      D1E342E3 
 406      47E78F19 
 406      3BEE37F9 
 406      41AA
 407 0f00 40172721 		.ascii	"@\027'!\025Gb\022j\333_\201\376\357\317\017Is\331\177"
 407      15476212 
 407      6ADB5F81 
 407      FEEFCF0F 
 407      4973D97F 
 408 0f14 5CEB513E 		.ascii	"\\\353Q>\\\032\211\011\301P\2610\223\257(C\242\253\232"
 408      5C1A8909 
 408      C150B130 
 408      93AF2843 
 408      A2AB9A
 409 0f27 18140A69 		.ascii	"\030\024\012i\374x\213\204\204\224U\031\027\023\222"
 409      FC788B84 
 409      84945519 
 409      171392
 410 0f36 B78C4F48 		.ascii	"\267\214OH\331\025\240#6\346\027%0\202\004\254\377p"
 410      D915A023 
 410      36E61725 
 410      308204AC 
 410      FF70
 411 0f48 5C48526B 		.ascii	"\\HRk\301a\270\"ZQ\306K\221Y\302\340p\351\364\311S\212"
 411      C161B822 
 411      5A51C64B 
 411      9159C2E0 
 411      70E9F4C9 
 412 0f5e 7E2D84A5 		.ascii	"~-\204\245I\261\210\344\221\242\345w\340K\205\022/J"
 412      49B188E4 
 412      91A2E577 
 412      E04B8512 
 412      2F4A
 413 0f70 9353169C 		.ascii	"\223S\026\234\341\217\305#\2612\304\317\327Iq\274\234"
 413      E18FC523 
 413      B132C4CF 
 413      D74971BC 
 413      9C
 414 0f81 2A0D49D1 		.ascii	"*\015I\321P\004\001|\003\227\026\224\362\221\230\241"
 414      5004017C 
 414      03971694 
 414      F29198A1 
 415 0f91 787A7C86 		.ascii	"xz|\206\027\001\217\305$\377\236\014\336\223\010"
 415      17018FC5 
 415      24FF9E0C 
 415      DE9308
 416 0fa0 97162301 		.ascii	"\227\026#\001\277\227\351\226'\023\232\036r\302\245"
 416      BF97E996 
 416      27139A1E 
 416      72C2A5
 417 0faf 217C2A44 		.ascii	"!|*DCR@?\316\025\005\276\370\311PY$\201\024\361\025"
 417      4352403F 
ARM GAS  /tmp/ccjSXgYT.s 			page 33


 417      CE1505BE 
 417      F8C95059 
 417      248114F1 
 418 0fc4 7439753E 		.ascii	"t9u>D*\305'\211\320o*\204\012\244\233\241\250\224\272"
 418      442AC527 
 418      89D06F2A 
 418      840AA49B 
 418      A1A894BA 
 419 0fd8 E4276704 		.ascii	"\344'g\004\216\034gA\201O*\027#q\244o\374\227\213\375"
 419      8E1C6741 
 419      814F2A17 
 419      2371A46F 
 419      FC978BFD 
 420 0fec 35148EC7 		.ascii	"5\024\216\307$a\2664\312\201G\227\206\343\242\200\031"
 420      2461B634 
 420      CA814797 
 420      86E3A280 
 420      19
 421 0ffd 868AC8   		.ascii	"\206\212\310"
 422 1000 08616976 		.ascii	"\010aiv\320i\275\320\254\037\341>\345\027\205\022\344"
 422      D069BDD0 
 422      AC1FE13E 
 422      E5178512 
 422      E4
 423 1011 27218913 		.ascii	"'!\211\023\307q\342\0178\361\207\234\370#N\034\317\211"
 423      C771E20F 
 423      38F1879C 
 423      F8234E1C 
 423      CF89
 424 1023 0F78C4B1 		.ascii	"\017x\304\261c\320>\226+\023\271D\271\007\201g\305\204"
 424      63D03E96 
 424      2B13B944 
 424      B9078167 
 424      C584
 425 1035 4A41CC8A 		.ascii	"JA\314\212\227\025\013\2427\214\\\323\033\343\243\302"
 425      97150BA2 
 425      378C5CD3 
 425      1BE3A3C2 
 426 1045 A084F404 		.ascii	"\240\204\364\004_\026)\211\241\356X\311\027\361\011"
 426      5F162989 
 426      A1EE58C9 
 426      17F109
 427 1054 246F42E2 		.ascii	"$oB\342%\244\011\037v\215\361Hn\342$\350(\013J|R4^\214"
 427      25A4091F 
 427      768DF148 
 427      6EE224E8 
 427      280B4A7C 
 428 106c CAB36696 		.ascii	"\312\263f\226\361%\011\237$\0123\023H\013\370/+\232"
 428      F125099F 
 428      240A3313 
 428      480BF82F 
 428      2B9A
 429 107e 28411555 		.ascii	"(A\025UGD\025\325\243l\261\370IT\344\027fG\2440\252"
 429      474415D5 
 429      A36CB1F8 
 429      4954E417 
 429      6647A430 
ARM GAS  /tmp/ccjSXgYT.s 			page 34


 430 1093 9C5D29C5 		.ascii	"\234])\305\213~]>LU-\252*\210B,\214A+%I,\367%\220\207"
 430      8B7E5D3E 
 430      4C552DAA 
 430      2A88422C 
 430      8C412B25 
 431 10ad A00AB9D8 		.ascii	"\240\012\271\330\202B\224//EB\217\314\344\001\002\326"
 431      8242942F 
 431      2F45428F 
 431      CCE40102 
 431      D6
 432 10be 471638BA 		.ascii	"G\0268\272\007Q\324\000\272T\356G\365\243\025\310$\231"
 432      0751D400 
 432      BA54EE47 
 432      F5A315C8 
 432      2499
 433 10d0 EA46A5D9 		.ascii	"\352F\245\331\270n\2742&\210>\270\033I\023CfD \250\254"
 433      B86EBC32 
 433      26883EB8 
 433      1B491343 
 433      664420A8 
 434 10e5 3C479885 		.ascii	"<G\230\205\271\341\023O A\204J|\300V\014\326|\204\370"
 434      B9E1134F 
 434      2041844A 
 434      7CC0560C 
 434      D67C84F8 
 435 10f9 D41083D7 		.ascii	"\324\020\203\327\340+\276J>\"Eb%~$\004\361\"\241\\\210"
 435      E02BBE4A 
 435      3E224562 
 435      257E2404 
 435      F122A15C 
 436 110e A191A3C4 		.ascii	"\241\221\243\304\207 \361\035\310v|\031\366\234\254"
 436      8720F11D 
 436      C8767C19 
 436      F69CAC
 437 111d 68793C5E 		.ascii	"hy<^\206\234H\230\345\013W\210H\017R\226\210\357\270"
 437      869C4898 
 437      E50B5788 
 437      480F5296 
 437      88EFB8
 438 1130 63564494 		.ascii	"cVD\224*\370\262\020\356\264\242\326\322\235\250%\213"
 438      2AF8B210 
 438      EEB4A2D6 
 438      D29DA825 
 438      8B
 439 1141 8221D435 		.ascii	"\202!\3245\342\306\324\245\000\356\011\320\373\263\212"
 439      E2C6D4A5 
 439      00EE09D0 
 439      FBB38A
 440 1150 853289F7 		.ascii	"\2052\211\367\317\222fV\304\302HT\374\347)\347E?\036"
 440      CF926656 
 440      C4C24854 
 440      FCE729E7 
 440      453F1E
 441 1163 2CF02DD9 		.ascii	",\360-\331\263$\0149X\355G\305BQE\011\021\321x%P\316"
 441      B3240C39 
 441      58ED47C5 
 441      42514509 
ARM GAS  /tmp/ccjSXgYT.s 			page 35


 441      11D17825 
 442 1179 C722E110 		.ascii	"\307\"\341\020\022\320S\\T2(\212\2727\321\300P\324\355"
 442      12D0535C 
 442      5432288A 
 442      BA37D1C0 
 442      50D4ED
 443 118c C3C8A78A 		.ascii	"\303\310\247\212D4\232\304\261c\305g\316L\010\022'E"
 443      44349AC4 
 443      B163C567 
 443      CE4C0812 
 443      2745
 444 119e B97069BE 		.ascii	"\271pi\276\245\217#m\007\013&\027N*L\331\005\273y8:"
 444      A58F236D 
 444      070B2617 
 444      4E2A4CD9 
 444      05BB7938 
 445 11b3 0EBBF943 		.ascii	"\016\273\371C\277\230\036\232\216:\270\267`\372\264"
 445      BF981E9A 
 445      8E3AB8B7 
 445      60FAB4
 446 11c2 47B20B1E 		.ascii	"G\262\013\036/(xtzv\301\324I\370o\342\014|\346/|d\342"
 446      2F287874 
 446      7A76C1D4 
 446      49F86FE2 
 446      0C7CE62F 
 447 11d9 C4A9F8FC 		.ascii	"\304\251\370\374\221\302\307\320\237\357\247S\036y\010"
 447      91C2C7D0 
 447      9FEFA753 
 447      1E7908
 448 11e8 FD7BA716 		.ascii	"\375{\247\026\024N\313*\2302y\352\230\254\311?)\374"
 448      144ECB2A 
 448      983279EA 
 448      98ACC93F 
 448      29FC
 449 11fa 8F31819F 		.ascii	"\2171\201\237>\366h\301\364IS\036\035\023\2306\261p"
 449      3EF668C1 
 449      F449531E 
 449      1D139836 
 449      B170
 450 120c E2B49F4F 		.ascii	"\342\264\237O|h\014\224\217\205\362\261z\371X\275|,"
 450      7C680C94 
 450      8F85F2B1 
 450      7AF958BD 
 450      7C2C
 451 121e 94E74379 		.ascii	"\224\347Cy\276^\236\257\227\347C\371\375P~\277^~\377"
 451      BE5E9EAF 
 451      97E743F9 
 451      FD507EBF 
 451      5E7EFF
 452 1231 5DD0B1D1 		.ascii	"]\320\261\321\257D\300\003C\005\032\031\304\320,\276"
 452      AF44C003 
 452      43051A19 
 452      C4D02CBE 
 453 1241 0C0F1CD1 		.ascii	"\014\017\034\321P\002\015\226\236X\274\362\377\001\255"
 453      50020D96 
 453      9E58BCF2 
 453      FF01AD
ARM GAS  /tmp/ccjSXgYT.s 			page 36


 454 1250 89A4F4   		.ascii	"\211\244\364"
 455              		.text
 456              		.section	.gnu.lto_.symtab.adbdaccb2a73384b,"",%progbits
 457 0000 6368544D 		.ascii	"chTMObjectInit\000\000\000\000\000\000\000\000\000\000"
 457      4F626A65 
 457      6374496E 
 457      69740000 
 457      00000000 
 458 0018 0000A100 		.ascii	"\000\000\241\000\000\000chTMStartMeasurementX\000\000"
 458      00006368 
 458      544D5374 
 458      6172744D 
 458      65617375 
 459 0035 00000000 		.ascii	"\000\000\000\000\000\000\000\000\000\000\316\000\000"
 459      00000000 
 459      0000CE00 
 459      00
 460 0042 00636854 		.ascii	"\000chTMStopMeasurementX\000\000\000\000\000\000\000"
 460      4D53746F 
 460      704D6561 
 460      73757265 
 460      6D656E74 
 461 005e 00000000 		.ascii	"\000\000\000\000\000\324\000\000\000_tm_init\000\000"
 461      00D40000 
 461      005F746D 
 461      5F696E69 
 461      740000
 462 0071 00000000 		.ascii	"\000\000\000\000\000\000\000\000\000\000\331\000\000"
 462      00000000 
 462      0000D900 
 462      00
 463 007e 00636854 		.ascii	"\000chTMChainMeasurementToX\000\000\000\000\000\000"
 463      4D436861 
 463      696E4D65 
 463      61737572 
 463      656D656E 
 464 009c 00000000 		.ascii	"\000\000\000\000\000\000\335\000\000\000ch\000\000\002"
 464      0000DD00 
 464      00006368 
 464      000002
 465 00ab 00000000 		.ascii	"\000\000\000\000\000\000\000\000\000\350\000\000\000"
 465      00000000 
 465      00E80000 
 465      00
 466              		.text
 467              		.section	.gnu.lto_.opts,"",%progbits
 468 0000 272D6D63 		.ascii	"'-mcpu=cortex-m4' '-mno-thumb-interwork' '-mthumb' "
 468      70753D63 
 468      6F727465 
 468      782D6D34 
 468      2720272D 
 469 0033 272D6767 		.ascii	"'-ggdb' '-O2' '-fomit-frame-pointer' '-falign-funct"
 469      64622720 
 469      272D4F32 
 469      2720272D 
 469      666F6D69 
 470 0066 696F6E73 		.ascii	"ions=16' '-ffunction-sections' '-fdata-sections' '-"
ARM GAS  /tmp/ccjSXgYT.s 			page 37


 470      3D313627 
 470      20272D66 
 470      66756E63 
 470      74696F6E 
 471 0099 666E6F2D 		.ascii	"fno-common' '-flto'\000"
 471      636F6D6D 
 471      6F6E2720 
 471      272D666C 
 471      746F2700 
 472              		.text
 473              		.cfi_sections	.debug_frame
 474              		.section	.text.chTMObjectInit,"ax",%progbits
 475              		.align	2
 476              		.p2align 4,,15
 477              		.global	chTMObjectInit
 478              		.thumb
 479              		.thumb_func
 480              		.type	chTMObjectInit, %function
 481              	chTMObjectInit:
 482              	.LFB241:
 483              		.file 1 "../ChibiOS/os/rt/src/chtm.c"
 484              		.loc 1 97 0
 485              		.cfi_startproc
 486              		@ args = 0, pretend = 0, frame = 0
 487              		@ frame_needed = 0, uses_anonymous_args = 0
 488              		@ link register save eliminated.
 489              	.LVL0:
 490              		.loc 1 103 0
 491 0000 0022     		movs	r2, #0
 492 0002 0023     		movs	r3, #0
 493 0004 C0E90423 		strd	r2, [r0, #16]
 494              		.loc 1 100 0
 495 0008 0023     		movs	r3, #0
 496 000a 4FF0FF32 		mov	r2, #-1
 497 000e 80E80C00 		stmia	r0, {r2, r3}
 498              		.loc 1 101 0
 499 0012 8360     		str	r3, [r0, #8]
 500              		.loc 1 102 0
 501 0014 C360     		str	r3, [r0, #12]
 502 0016 7047     		bx	lr
 503              		.cfi_endproc
 504              	.LFE241:
 505              		.size	chTMObjectInit, .-chTMObjectInit
 506 0018 AFF30080 		.section	.text.chTMStartMeasurementX,"ax",%progbits
 506      AFF30080 
 507              		.align	2
 508              		.p2align 4,,15
 509              		.global	chTMStartMeasurementX
 510              		.thumb
 511              		.thumb_func
 512              		.type	chTMStartMeasurementX, %function
 513              	chTMStartMeasurementX:
 514              	.LFB242:
 515              		.loc 1 114 0
 516              		.cfi_startproc
 517              		@ args = 0, pretend = 0, frame = 0
 518              		@ frame_needed = 0, uses_anonymous_args = 0
ARM GAS  /tmp/ccjSXgYT.s 			page 38


 519              		@ link register save eliminated.
 520              	.LVL1:
 521              	.LBB14:
 522              	.LBB15:
 523              		.file 2 "../ChibiOS/os/common/ports/ARMCMx/chcore_v7m.h"
 524              		.loc 2 708 0
 525 0000 014B     		ldr	r3, .L3
 526 0002 5B68     		ldr	r3, [r3, #4]
 527              	.LBE15:
 528              	.LBE14:
 529              		.loc 1 116 0
 530 0004 8360     		str	r3, [r0, #8]
 531 0006 7047     		bx	lr
 532              	.L4:
 533              		.align	2
 534              	.L3:
 535 0008 001000E0 		.word	-536866816
 536              		.cfi_endproc
 537              	.LFE242:
 538              		.size	chTMStartMeasurementX, .-chTMStartMeasurementX
 539 000c AFF30080 		.section	.text.chTMStopMeasurementX,"ax",%progbits
 540              		.align	2
 541              		.p2align 4,,15
 542              		.global	chTMStopMeasurementX
 543              		.thumb
 544              		.thumb_func
 545              		.type	chTMStopMeasurementX, %function
 546              	chTMStopMeasurementX:
 547              	.LFB243:
 548              		.loc 1 127 0
 549              		.cfi_startproc
 550              		@ args = 0, pretend = 0, frame = 0
 551              		@ frame_needed = 0, uses_anonymous_args = 0
 552              		@ link register save eliminated.
 553              	.LVL2:
 554              	.LBB16:
 555              	.LBB17:
 556              		.loc 2 708 0
 557 0000 0E4A     		ldr	r2, .L8
 558              	.LBE17:
 559              	.LBE16:
 560              		.loc 1 129 0
 561 0002 0F4B     		ldr	r3, .L8+4
 562              	.LBB19:
 563              	.LBB18:
 564              		.loc 2 708 0
 565 0004 5168     		ldr	r1, [r2, #4]
 566              	.LBE18:
 567              	.LBE19:
 568              		.loc 1 127 0
 569 0006 F0B4     		push	{r4, r5, r6, r7}
 570              		.cfi_def_cfa_offset 16
 571              		.cfi_offset 4, -16
 572              		.cfi_offset 5, -12
 573              		.cfi_offset 6, -8
 574              		.cfi_offset 7, -4
 575              	.LBB20:
ARM GAS  /tmp/ccjSXgYT.s 			page 39


 576              	.LBB21:
 577              		.loc 1 58 0
 578 0008 8668     		ldr	r6, [r0, #8]
 579              	.LBE21:
 580              	.LBE20:
 581              		.loc 1 129 0
 582 000a 5F6F     		ldr	r7, [r3, #116]
 583              	.LVL3:
 584              	.LBB23:
 585              	.LBB22:
 586              		.loc 1 60 0
 587 000c 4468     		ldr	r4, [r0, #4]
 588              		.loc 1 57 0
 589 000e C568     		ldr	r5, [r0, #12]
 590              		.loc 1 59 0
 591 0010 D0E90423 		ldrd	r2, [r0, #16]
 592              		.loc 1 58 0
 593 0014 891B     		subs	r1, r1, r6
 594              	.LVL4:
 595 0016 C91B     		subs	r1, r1, r7
 596              		.loc 1 59 0
 597 0018 5218     		adds	r2, r2, r1
 598 001a 43F10003 		adc	r3, r3, #0
 599 001e C0E90423 		strd	r2, [r0, #16]
 600              		.loc 1 63 0
 601 0022 0368     		ldr	r3, [r0]
 602              		.loc 1 58 0
 603 0024 8160     		str	r1, [r0, #8]
 604              		.loc 1 60 0
 605 0026 A142     		cmp	r1, r4
 606              		.loc 1 57 0
 607 0028 05F10105 		add	r5, r5, #1
 608              		.loc 1 61 0
 609 002c 88BF     		it	hi
 610 002e 4160     		strhi	r1, [r0, #4]
 611              		.loc 1 63 0
 612 0030 9942     		cmp	r1, r3
 613              		.loc 1 57 0
 614 0032 C560     		str	r5, [r0, #12]
 615              		.loc 1 64 0
 616 0034 38BF     		it	cc
 617 0036 0160     		strcc	r1, [r0]
 618              	.LBE22:
 619              	.LBE23:
 620              		.loc 1 130 0
 621 0038 F0BC     		pop	{r4, r5, r6, r7}
 622              	.LVL5:
 623 003a 7047     		bx	lr
 624              	.L9:
 625              		.align	2
 626              	.L8:
 627 003c 001000E0 		.word	-536866816
 628 0040 00000000 		.word	ch
 629              		.cfi_endproc
 630              	.LFE243:
 631              		.size	chTMStopMeasurementX, .-chTMStopMeasurementX
 632 0044 AFF30080 		.section	.text._tm_init,"ax",%progbits
ARM GAS  /tmp/ccjSXgYT.s 			page 40


 632      AFF30080 
 632      AFF30080 
 633              		.align	2
 634              		.p2align 4,,15
 635              		.global	_tm_init
 636              		.thumb
 637              		.thumb_func
 638              		.type	_tm_init, %function
 639              	_tm_init:
 640              	.LFB240:
 641              		.loc 1 77 0
 642              		.cfi_startproc
 643              		@ args = 0, pretend = 0, frame = 24
 644              		@ frame_needed = 0, uses_anonymous_args = 0
 645 0000 30B5     		push	{r4, r5, lr}
 646              		.cfi_def_cfa_offset 12
 647              		.cfi_offset 4, -12
 648              		.cfi_offset 5, -8
 649              		.cfi_offset 14, -4
 650              		.loc 1 83 0
 651 0002 0C4C     		ldr	r4, .L11
 652              		.loc 1 77 0
 653 0004 87B0     		sub	sp, sp, #28
 654              		.cfi_def_cfa_offset 40
 655              		.loc 1 83 0
 656 0006 0021     		movs	r1, #0
 657              	.LBB24:
 658              	.LBB25:
 659              		.loc 1 103 0
 660 0008 0022     		movs	r2, #0
 661 000a 0023     		movs	r3, #0
 662              	.LBE25:
 663              	.LBE24:
 664              		.loc 1 85 0
 665 000c 6846     		mov	r0, sp
 666              	.LBB28:
 667              	.LBB26:
 668              		.loc 1 99 0
 669 000e 4FF0FF35 		mov	r5, #-1
 670              		.loc 1 103 0
 671 0012 CDE90423 		strd	r2, [sp, #16]
 672              	.LBE26:
 673              	.LBE28:
 674              		.loc 1 83 0
 675 0016 6167     		str	r1, [r4, #116]
 676              	.LVL6:
 677              	.LBB29:
 678              	.LBB27:
 679              		.loc 1 100 0
 680 0018 0191     		str	r1, [sp, #4]
 681              		.loc 1 101 0
 682 001a 0291     		str	r1, [sp, #8]
 683              		.loc 1 102 0
 684 001c 0391     		str	r1, [sp, #12]
 685              		.loc 1 99 0
 686 001e 0095     		str	r5, [sp]
 687              	.LBE27:
ARM GAS  /tmp/ccjSXgYT.s 			page 41


 688              	.LBE29:
 689              		.loc 1 85 0
 690 0020 FFF7FEFF 		bl	chTMStartMeasurementX
 691              	.LVL7:
 692              		.loc 1 86 0
 693 0024 6846     		mov	r0, sp
 694 0026 FFF7FEFF 		bl	chTMStopMeasurementX
 695              	.LVL8:
 696              		.loc 1 87 0
 697 002a 029B     		ldr	r3, [sp, #8]
 698 002c 6367     		str	r3, [r4, #116]
 699              		.loc 1 88 0
 700 002e 07B0     		add	sp, sp, #28
 701              	.LVL9:
 702              		@ sp needed
 703 0030 30BD     		pop	{r4, r5, pc}
 704              	.LVL10:
 705              	.L12:
 706 0032 00BF     		.align	2
 707              	.L11:
 708 0034 00000000 		.word	ch
 709              		.cfi_endproc
 710              	.LFE240:
 711              		.size	_tm_init, .-_tm_init
 712 0038 AFF30080 		.section	.text.chTMChainMeasurementToX,"ax",%progbits
 712      AFF30080 
 713              		.align	2
 714              		.p2align 4,,15
 715              		.global	chTMChainMeasurementToX
 716              		.thumb
 717              		.thumb_func
 718              		.type	chTMChainMeasurementToX, %function
 719              	chTMChainMeasurementToX:
 720              	.LFB244:
 721              		.loc 1 145 0
 722              		.cfi_startproc
 723              		@ args = 0, pretend = 0, frame = 0
 724              		@ frame_needed = 0, uses_anonymous_args = 0
 725              		@ link register save eliminated.
 726              	.LVL11:
 727              	.LBB30:
 728              	.LBB31:
 729              		.loc 2 708 0
 730 0000 0D4B     		ldr	r3, .L16
 731              	.LBE31:
 732              	.LBE30:
 733              		.loc 1 145 0
 734 0002 70B4     		push	{r4, r5, r6}
 735              		.cfi_def_cfa_offset 12
 736              		.cfi_offset 4, -12
 737              		.cfi_offset 5, -8
 738              		.cfi_offset 6, -4
 739              	.LBB33:
 740              	.LBB32:
 741              		.loc 2 708 0
 742 0004 5C68     		ldr	r4, [r3, #4]
 743              	.LBE32:
ARM GAS  /tmp/ccjSXgYT.s 			page 42


 744              	.LBE33:
 745              		.loc 1 148 0
 746 0006 8C60     		str	r4, [r1, #8]
 747              	.LVL12:
 748              	.LBB34:
 749              	.LBB35:
 750              		.loc 1 59 0
 751 0008 D0E90423 		ldrd	r2, [r0, #16]
 752              		.loc 1 58 0
 753 000c 8168     		ldr	r1, [r0, #8]
 754              	.LVL13:
 755              		.loc 1 60 0
 756 000e 4568     		ldr	r5, [r0, #4]
 757              		.loc 1 57 0
 758 0010 C668     		ldr	r6, [r0, #12]
 759              		.loc 1 58 0
 760 0012 611A     		subs	r1, r4, r1
 761              		.loc 1 59 0
 762 0014 5218     		adds	r2, r2, r1
 763 0016 43F10003 		adc	r3, r3, #0
 764 001a C0E90423 		strd	r2, [r0, #16]
 765              		.loc 1 63 0
 766 001e 0368     		ldr	r3, [r0]
 767              		.loc 1 58 0
 768 0020 8160     		str	r1, [r0, #8]
 769              		.loc 1 60 0
 770 0022 A942     		cmp	r1, r5
 771              		.loc 1 57 0
 772 0024 06F10106 		add	r6, r6, #1
 773              		.loc 1 61 0
 774 0028 88BF     		it	hi
 775 002a 4160     		strhi	r1, [r0, #4]
 776              		.loc 1 63 0
 777 002c 9942     		cmp	r1, r3
 778              		.loc 1 57 0
 779 002e C660     		str	r6, [r0, #12]
 780              		.loc 1 64 0
 781 0030 38BF     		it	cc
 782 0032 0160     		strcc	r1, [r0]
 783              	.LBE35:
 784              	.LBE34:
 785              		.loc 1 152 0
 786 0034 70BC     		pop	{r4, r5, r6}
 787              	.LVL14:
 788 0036 7047     		bx	lr
 789              	.L17:
 790              		.align	2
 791              	.L16:
 792 0038 001000E0 		.word	-536866816
 793              		.cfi_endproc
 794              	.LFE244:
 795              		.size	chTMChainMeasurementToX, .-chTMChainMeasurementToX
 796 003c AFF30080 		.text
 797              	.Letext0:
 798              		.file 3 "/nfs/nfs5/home/research/hardware/arm2/gcc-arm-embedded/gcc-arm-none-eabi-4_8-2014q2/arm-n
 799              		.file 4 "/nfs/nfs5/home/research/hardware/arm2/gcc-arm-embedded/gcc-arm-none-eabi-4_8-2014q2/arm-n
 800              		.file 5 "../ChibiOS/os/common/ports/ARMCMx/compilers/GCC/chtypes.h"
ARM GAS  /tmp/ccjSXgYT.s 			page 43


 801              		.file 6 "../ChibiOS/os/rt/include/chsystypes.h"
 802              		.file 7 "../ChibiOS/os/rt/include/chschd.h"
 803              		.file 8 "../ChibiOS/os/common/ext/CMSIS/include/core_cm4.h"
 804              		.file 9 "../ChibiOS/os/common/ports/ARMCMx/chcore.h"
 805              		.file 10 "../ChibiOS/os/rt/include/chtm.h"
 806              		.file 11 "../ChibiOS/os/rt/include/chsem.h"
 807              		.file 12 "../ChibiOS/os/rt/include/chmtx.h"