ARM GAS  /tmp/ccrw7w3s.s 			page 1


   1              		.syntax unified
   2              		.cpu cortex-m4
   3              		.fpu softvfp
   4              		.eabi_attribute 20, 1
   5              		.eabi_attribute 21, 1
   6              		.eabi_attribute 23, 3
   7              		.eabi_attribute 24, 1
   8              		.eabi_attribute 25, 1
   9              		.eabi_attribute 26, 1
  10              		.eabi_attribute 30, 2
  11              		.eabi_attribute 34, 1
  12              		.eabi_attribute 18, 4
  13              		.thumb
  14              		.file	"chvt.c"
  15              		.text
  16              	.Ltext0:
  17              		.section	.gnu.lto_.jmpfuncs.4eae468d83fbeabb,"",%progbits
  18 0000 789C6362 		.ascii	"x\234cb`b\300\006d\2404\013\003#\020\002\0251\363\003"
  18      6062C006 
  18      64A0340B 
  18      03231002 
  18      1531F303 
  19 0014 29206261 		.ascii	") badd\006\212\227\001\231\000\011|\000\275"
  19      6464068A 
  19      97019900 
  19      097C00BD 
  20              		.text
  21              		.section	.gnu.lto_.inline.4eae468d83fbeabb,"",%progbits
  22 0000 789C6362 		.ascii	"x\234cb`b\300\006\224\031\031\030d\2014\013\003\203"
  22      6062C006 
  22      94191918 
  22      6481340B 
  22      0383
  23 0012 9414230B 		.ascii	"\224\024#\013Cz5\303\257\206\216\206\007\213\277Yf2"
  23      437A35C3 
  23      AF868E86 
  23      078BBF59 
  23      6632
  24 0024 326833AC 		.ascii	"2h3\254j\000\002\323LF\306\\F\206$F\2706f\006\206\214"
  24      6A0002D3 
  24      4C46C65C 
  24      46862446 
  24      B8366606 
  25 003a 44C6858C 		.ascii	"D\306\205\214\325 \026#\003\214t`g\355Pg`\357Pgb`|\301"
  25      D5201623 
  25      038C7460 
  25      67ED5067 
  25      60EF5067 
  26 0052 2EC0C400 		.ascii	".\300\304\000\344\0120H}[\302\310\301\300\270\233]\201"
  26      E40A3048 
  26      7D5BC2C8 
  26      C1C0B89B 
  26      5D81
  27 0064 83094281 		.ascii	"\203\011B\201\214`\344\002Y\312\304\315\000\224\232"
  27      8C60E402 
  27      59CAC4CD 
  27      00949A
ARM GAS  /tmp/ccrw7w3s.s 			page 2


  28 0073 E0C7C4C0 		.ascii	"\340\307\304\300\316\306\310\300\304q\300\216\201m\201"
  28      CEC6C8C0 
  28      C471C08E 
  28      816D81
  29 0082 3C13C40E 		.ascii	"<\023\304\016\303\213\014\214\314\214)\021\214\231\214"
  29      C38B0C8C 
  29      CC8C2911 
  29      8C998C
  30 0091 4C40E319 		.ascii	"L@\343\031S\341,\220K\230=n\276\344`\340[\352\306\304"
  30      53E12C90 
  30      4B983D6E 
  30      BEE460E0 
  30      5BEAC6C4 
  31 00a5 C0B2405E 		.ascii	"\300\262@^\000\244\005h\032\3300\010\305\302 \"\300"
  31      00A40568 
  31      1AD83008 
  31      C5C22022 
  31      C0
  32 00b6 C80C7698 		.ascii	"\310\014v\230\002\262#9\304&Lfd\3408\242\003t\315%6"
  32      02B22339 
  32      C4264C66 
  32      64E038A2 
  32      0374CD25 
  33 00cb 16080922 		.ascii	"\026\010\011\"8\300L\240{.\261\0120\201I$C\031d\364"
  33      38C04CA0 
  33      7B2EB10A 
  33      30814924 
  33      431964F4 
  34 00df F4F49D33 		.ascii	"\364\364\23532\2232\375\203\365\363\213\365\213J\364"
  34      329332FD 
  34      83F5F38B 
  34      F58B4AF4 
  35 00ef 8B8B92F5 		.ascii	"\213\213\222\365\2233\312J\364\222\031\000\221\2642"
  35      9333CA4A 
  35      F4921900 
  35      91B432
  36 00fe 97       		.ascii	"\227"
  37              		.text
  38              		.section	.gnu.lto_.pureconst.4eae468d83fbeabb,"",%progbits
  39 0000 789C6362 		.ascii	"x\234cb`b\340d\200\000\026\006)&\011f)\026)\000\002"
  39      6062E064 
  39      80001606 
  39      29260966 
  39      29162900 
  40 0015 D80081   		.ascii	"\330\000\201"
  41              		.text
  42              		.section	.gnu.lto_chVTDoResetI.part.0.4eae468d83fbeabb,"",%progbits
  43 0000 789C9555 		.ascii	"x\234\225U]h\024W\024>g\376gwu\365\301\207@m\203\320"
  43      5D681457 
  43      143E67FE 
  43      677775F5 
  43      C187406D 
  44 0016 974A33D8 		.ascii	"\227J3\330\"\324'\021}\021\014B\263\201\226B\303:Yv"
  44      22D42711 
  44      7D110C42 
  44      B3819642 
  44      C33A5976 
ARM GAS  /tmp/ccrw7w3s.s 			page 3


  45 002a 0776B3B2 		.ascii	"\007v\263\262\331j\241\017N\262K\321*\230\010\242\265"
  45      D96AA10F 
  45      4EB24BD1 
  45      2A9808A2 
  45      B5
  46 003b 3FB669B0 		.ascii	"?\266i\260\364\007J\373P\033Rj,\376$\206\304\012\375"
  46      F4074AFB 
  46      501B526A 
  46      2CFE2486 
  46      C40AFD
  47 004e 3314C983 		.ascii	"3\024\311\203h\245\024\202\372bj\335\236sg\356\354l"
  47      68A51482 
  47      FA626ADD 
  47      9E7367EE 
  47      EC6C
  48 0060 34682FCC 		.ascii	"4h/\314=\347\336{\316w\276{\356\271w\024P`i+\321w\310"
  48      3DE7DE7B 
  48      CE77BE7B 
  48      EEB97714 
  48      5060692B 
  49 0077 00182789 		.ascii	"\000\030'\211\011@{h\226\024\033\025!\025E\035S\301"
  49      09407B68 
  49      96141B15 
  49      2115451D 
  49      53C1
  50 0089 4F68BF5D 		.ascii	"Oh\277]\002\360S*Z<=`i\212\365\375\3234\257\377\354"
  50      02F0532A 
  50      5A3C3D60 
  50      698AF5FD 
  50      D334AFFF 
  51 009e D0B4AE18 		.ascii	"\320\264\256\030\207\326\320\310\254o\242\221\201f`"
  51      87D6D0C8 
  51      AC6FA291 
  51      816660
  52 00ad 644A6B0B 		.ascii	"dJk\013\221\025@\330g+\252\246\033\246\205\373^E\016"
  52      911540D8 
  52      672BAAA6 
  52      1BA685FB 
  52      5E450E
  53 00c0 AF9510D6 		.ascii	"\257\225\020\326\301\307\276\177b\376\374\231\257\333"
  53      C1C7BE7F 
  53      62FEFC99 
  53      AFDB
  54 00ce DEF96870 		.ascii	"\336\371hp\310\177\320h\240\307\253.\302+\244a\273\020"
  54      C87FD068 
  54      A0C7AB2E 
  54      C22BA461 
  54      BB10
  55 00e0 8AD6CA5C 		.ascii	"\212\326\312\\\270\035\231\370e\366X\233\037sS\340\031"
  55      B81D99F8 
  55      65F6589B 
  55      1F7353E0 
  55      19
  56 00f1 7C224F7F 		.ascii	"|\"O\177\274w\322\257O4\032\233\205\327\263\217\363"
  56      BC77D2AF 
  56      4F341A9B 
  56      85D7B38F 
ARM GAS  /tmp/ccrw7w3s.s 			page 4


  56      F3
  57 0102 FA4AF1E7 		.ascii	"\372J\361\347\033\215w?M\254A,!*\340\241\252R\247i\334"
  57      1B8D773F 
  57      4DAC412C 
  57      212AE0A1 
  57      AA52A769 
  58 0117 E9DC19D4 		.ascii	"\351\334\031\324\201\311\232\005Y\034\305u`\223\034"
  58      81C99A05 
  58      591CC575 
  58      60931C
  59 0126 2199E0C9 		.ascii	"!\231\340\311d8H\361\200\020u\250\373\376P{`\031,\211"
  59      643848F1 
  59      801075A8 
  59      FBFE507B 
  59      60192C89 
  60 013a 4D53CB50 		.ascii	"MS\313P\3179\313\240\315R\355\246x,g`p\356\370\235{"
  60      CF39CBA0 
  60      CD52EDA6 
  60      782C6760 
  60      70EEF89D 
  61 014f 4A164FA1 		.ascii	"J\026O\241\016yT\326\303s\304\343=81\340\373\253<\324"
  61      0E7954D6 
  61      C373C4E3 
  61      3D3831E0 
  61      FBAB3CD4 
  62 0163 F3884C5E 		.ascii	"\363\210L^\025\224w\241$O~S?%\002\257\365\360\271Om"
  62      159477A1 
  62      244F7E53 
  62      3F2502AF 
  62      F5F0B94F 
  63 0178 1359856A 		.ascii	"\023Y\205j\322C#\2020\337\202E\177?kV\011\271`\030\317"
  63      D2432382 
  63      30DF8245 
  63      7F3F6B56 
  63      09B96018 
  64 018d 0AF13094 		.ascii	"\012\3610\224A!\345Y\022\364b\355\364\207/\265\200w"
  64      4121E559 
  64      12F462ED 
  64      F4872FB5 
  64      8077
  65 019f 2D21A5C4 		.ascii	"-!\245\304I\0052\010\343\217\323\202\035z]!\335\240"
  65      49053208 
  65      E38FD382 
  65      1D7A5D21 
  65      DDA0
  66 01b1 A0328EA4 		.ascii	"\2402\216\244\376\335\357wna\013\376\012\017\023\313"
  66      FEDDEF77 
  66      6E610BFE 
  66      0A0F13CB 
  67 01c1 6E3A3838 		.ascii	"n:88\236I\2602\011\347n\236\375&\035\245,\014\234n\306"
  67      9E49B032 
  67      09E76E9E 
  67      FD261DA5 
  67      2C0C9C6E 
  68 01d6 DDF888B0 		.ascii	"\335\370\210\260\262u\023\354\230\252^\206\332\302\265"
  68      B27513EC 
  68      98AA5E86 
ARM GAS  /tmp/ccrw7w3s.s 			page 5


  68      DAC2B5
  69 01e5 5FDF4E87 		.ascii	"_\337N\207g&\017o\342\340\337\237\230\000\001\266+\375"
  69      67260F6F 
  69      E2E0DF9F 
  69      980001B6 
  69      2BFD
  70 01f7 A30C265D 		.ascii	"\243\014&]\244\243\372\226\326\250y\230\222\220\032"
  70      A4A3FA96 
  70      D6A87998 
  70      92901A
  71 0206 D0850A0E 		.ascii	"\320\205\012\016sqJ\225\314\302\343 ?X6wz3+s\013\321"
  71      73714A95 
  71      CCC2E320 
  71      3F583677 
  71      7A332B73 
  72 021c 9E345106 		.ascii	"\2364Q\006\260lF\232^\265\375\265\033(\335\310L\315"
  72      B06C469A 
  72      5EB5FDB5 
  72      1B28DDC8 
  72      4CCD
  73 022e 73BA086D 		.ascii	"s\272\010m{<\277O@!\317r\006~\234{\377\366\237\237\031"
  73      7B3CBF4F 
  73      4021CF72 
  73      067E9C7B 
  73      FFF69F9F 
  74 0243 4BD3726F 		.ascii	"K\323ronm\244\217\035\275jF\203\351\3735\273\231/\225"
  74      6E6DA48F 
  74      1DBD6A46 
  74      83E9FB35 
  74      BB992F95 
  75 0257 3E8D3E3D 		.ascii	">\215>=@48z}`~\370\342\354\010R\304\025\314a\2109\254"
  75      4034387A 
  75      7D607EF8 
  75      E2EC0852 
  75      C415CC61 
  76 026e 6402693E 		.ascii	"d\002i>+M\034l:\344b0\326\231\300\237S\362\307\365\223"
  76      2B4D1C6C 
  76      3AE46230 
  76      D699C09F 
  76      53F2C7F5 
  77 0283 AFCBDD99 		.ascii	"\257\313\335\231AR\3023>\211\377\273\310\315f\326\016"
  77      4152C233 
  77      3E89FFBB 
  77      C8CD66D6 
  77      0E
  78 0294 D42A12D6 		.ascii	"\324*\022\326\"\236y^\233\202\360\032\006\0278\317\376"
  78      229E795E 
  78      9B82F01A 
  78      061738CF 
  78      FE
  79 02a5 9350BF71 		.ascii	"\223P\277q\366\237\303j,\303V\274\226t\270\370\274*"
  79      F69FC36A 
  79      2CC356BC 
  79      9674B8F8 
  79      BC2A
  80 02b7 F0BE186D 		.ascii	"\360\276\030m\223F\266\264\213!\216\010D;D\374\340H"
  80      9346B6B4 
ARM GAS  /tmp/ccrw7w3s.s 			page 6


  80      8B218E08 
  80      443B44FC 
  80      E048
  81 02c9 84683353 		.ascii	"\204h3S\210\027j7e\341TJ\235\202\301\371\303\267\214"
  81      88176A37 
  81      65E1544A 
  81      9D82C1F9 
  81      C3B78C
  82 02dc 38009B6A 		.ascii	"8\000\233jJdfrp2\263 \012\220\014k\342\257\321\327d"
  82      4A646672 
  82      7032B320 
  82      0A900C6B 
  82      E2AFD1D7 
  83 02f1 80046D4E 		.ascii	"\200\004mN\260\021\013?D\305\222\022K\311\030\313\360"
  83      B0110B3F 
  83      44C59212 
  83      4BC918CB 
  83      F0
  84 0302 05FEF7E0 		.ascii	"\005\376\367\3404\322s:\260\320h\244\305Sz\032\037\367"
  84      34D2733A 
  84      B0D068A4 
  84      C5537A1A 
  84      1FF7
  85 0314 96E6F92A 		.ascii	"\226\346\371*\\\206\372\302\265\007\027V>t\245f\356"
  85      5C86FAC2 
  85      B5071756 
  85      3E74A566 
  85      EE
  86 0325 EA599C14 		.ascii	"\352Y\234\024\257\241,\024c\311\305Z\345\242\231\305"
  86      AFA12C14 
  86      63C9C55A 
  86      E5A299C5 
  87 0335 69593829 		.ascii	"iY8)\017W\263v\025\222\224!\375\313\341\\\270u\343\376"
  87      0F57B376 
  87      15929421 
  87      FDCBE15C 
  87      B875E3FE 
  88 0349 7089B76E 		.ascii	"p\211\267n\211\327\363\012\375\214\232$2D\223f9?Out"
  88      89D7F30A 
  88      FD8C9A24 
  88      32449366 
  88      393F4F75 
  89 035e 385B0BDE 		.ascii	"8[\013\336.og\227S\356w*U\247\277\342:naO\265\303\005"
  89      2E6F6797 
  89      53EE772A 
  89      55A7BFE2 
  89      3A6E614F 
  90 0375 BD3757AC 		.ascii	"\2757W\254f\255\276\362^\241lh\265u\313\245R\271\317"
  90      66ADBEF2 
  90      5EA16C68 
  90      B575CBA5 
  90      52B9CF
  91 0388 D95DAE54 		.ascii	"\331]\256T\373\235-/wn\355|\223\034\335r%\327S\365J"
  91      FB9D2D2F 
  91      776EED7C 
  91      931CDD72 
  91      25D753F5 
ARM GAS  /tmp/ccrw7w3s.s 			page 7


  92 039d B94A4701 		.ascii	"\271JG\0016\266z\024\262\305\320\274+\323\371\342\013"
  92      36B67A14 
  92      B2C5D0BC 
  92      2BD3F9E2 
  92      0B
  93 03ae CE8E1DDB 		.ascii	"\316\216\035\333\234\314\366\316=\033x\245\247\277\332"
  93      9CCCF6CE 
  93      3D1B78A5 
  93      A7BFDA
  94 03bd 532CF692 		.ascii	"S,\366\222W\373C\234\274>\267\370Fo.\340U\000\215\361"
  94      57FB439C 
  94      BC3EB7F8 
  94      466F2EE0 
  94      55008DF1 
  95 03d1 FF035049 		.ascii	"\377\003PI\310e"
  95      C865
  96              		.text
  97              		.section	.gnu.lto__vt_init.4eae468d83fbeabb,"",%progbits
  98 0000 789C6362 		.ascii	"x\234cb`b@\007\222@,\015\024\226\003\322\214\314\014"
  98      60624007 
  98      92402C0D 
  98      149603D2 
  98      8CCC0C
  99 0013 8C4C13CE 		.ascii	"\214L\023\316104r012\202\030\014\214\014\365L\214\365"
  99      31303472 
  99      30313282 
  99      180C8C0C 
  99      F54C8CF5 
 100 0027 918C60B5 		.ascii	"\221\214`\265\353\231\016<\370\377\177\335\257\255\017"
 100      EB990E3C 
 100      F8FF7FDD 
 100      AFAD0F
 101 0036 FB1905D9 		.ascii	"\373\031\005\331\200\002\254\014-\015\015\023\024\030"
 101      8002AC0C 
 101      2D0D0D13 
 101      1418
 102 0044 1892C10A 		.ascii	"\030\222\301\012B\200$HW(#\023\210f>\313\320\364\253"
 102      42802448 
 102      57282313 
 102      88663ECB 
 102      D0F4AB
 103 0057 F9FF65A6 		.ascii	"\371\377e\246D\306\205\214\254\014\332\014\253\032\200"
 103      44C6858C 
 103      AC0CDA0C 
 103      AB1A80
 104 0066 C0329311 		.ascii	"\3002\223\021\306\344\316dd\234\3150\253\261\241A \223"
 104      C6E4CE64 
 104      649CCD30 
 104      ABB1A141 
 104      2093
 105 0078 91A99AE1 		.ascii	"\221\251\232\341WC\007\210\305\234\0136-\202\021\310"
 105      57430788 
 105      C59C0B36 
 105      2D8211C8 
 106 0088 04DB9B04 		.ascii	"\004\333\233\004\261\036HC\030\020\225\015\363\201\012"
 106      B11E4843 
 106      1810950D 
ARM GAS  /tmp/ccrw7w3s.s 			page 8


 106      F3810A
 107 0097 58A0466D 		.ascii	"X\240Fm\005\262\031\201\372`J\301\000l\377\342\036-"
 107      05B21981 
 107      FA604AC1 
 107      006CFFE2 
 107      1E2D
 108 00a9 EAD9CF44 		.ascii	"\352\331\317D\252\375;v<\272\201\341\177V\262\355\207"
 108      AAFD3B76 
 108      3CBA81E1 
 108      7F56B2ED 
 108      87
 109 00ba F041326C 		.ascii	"\360A2l\377\201\200\037f\311\343\017T\264\204\005a\011"
 109      FF81801F 
 109      66C9E30F 
 109      54B48405 
 109      6109
 110 00cc 887191A1 		.ascii	"\210q\221\241\361A\2772\304x\030\010\001\306\0040\206"
 110      F141BF32 
 110      C4781808 
 110      01C60430 
 110      86
 111 00dd 41C121A3 		.ascii	"A\301!\243\247\247\357\234\221\231\224\351\037\254\237"
 111      A7A7EF9C 
 111      919994E9 
 111      1FAC9F
 112 00ec 5FAC5F54 		.ascii	"_\254_T\242_\\\224\254\237\234QV\242\227\314\000\000"
 112      A25F5C94 
 112      AC9F9C51 
 112      56A297CC 
 112      0000
 113 00fe 0AA58E10 		.ascii	"\012\245\216\020"
 114              		.text
 115              		.section	.gnu.lto_chVTDoSetI.4eae468d83fbeabb,"",%progbits
 116 0000 789CAD56 		.ascii	"x\234\255V{l\223U\024\277\347\336\266_\337#&\010{0\347"
 116      7B6C9355 
 116      14BFE7DE 
 116      B65FDF23 
 116      26087B30 
 117 0015 1626F258 		.ascii	"\026&\362X\201\205\030b\374\303\340?$,F\031\211\306"
 117      81851862 
 117      FCC3E03F 
 117      242C4619 
 117      89C6
 118 0027 3F48E996 		.ascii	"?H\351\226\256I\273\221\255\242\211&|\335\032EAY\014"
 118      AE49BB91 
 118      ADA28926 
 118      7CDD1A45 
 118      41590C
 119 003a 18548C90 		.ascii	"\030T\214\220\005L\200\000\001\303\306+n\204\004\352"
 119      054C8000 
 119      01C3C62B 
 119      6E8404EA 
 120 004a 220C90B0 		.ascii	"\"\014\220\260\2421\305\004\024C\314\020\321\211\270"
 120      A231C504 
 120      1443CC10 
 120      D189B8
 121 0059 7AEEEBDB 		.ascii	"z\356\353\333\272\026\012\304/\351\275\275\347\236\363"
ARM GAS  /tmp/ccrw7w3s.s 			page 9


 121      BA160AC4 
 121      2FE9BDBD 
 121      E79EF3
 122 0068 BBE77D2F 		.ascii	"\273\347}/%\224L\376v\343\357W/!}8C\011\001\332}\206"
 122      25944CFE 
 122      76E3EF57 
 122      2F217D38 
 122      430901DA 
 123 007e 90849352 		.ascii	"\220\204\223R\266a*1\335\266\344bbz\031\330$\331F\355"
 123      B6612A31 
 123      DDB6E462 
 123      627A19D8 
 123      24D946ED 
 124 0092 8719921D 		.ascii	"\207\031\222\035\227\276!H\267\203_\322\035\324X\367"
 124      97BE2148 
 124      B7835FD2 
 124      1DD458F7 
 125 00a2 14D29D7C 		.ascii	"\024\322\235|\364\032\340\226d'u}\3678\222\335\307\236"
 125      F41AE096 
 125      6427757D 
 125      F73892DD 
 125      C79E
 126 00b4 41B24B93 		.ascii	"A\262K\223\335\340\345\177\300#\347\001\247\227z6\234"
 126      DDE0E57F 
 126      C023E701 
 126      A7977A36 
 126      9C
 127 00c5 4240B72F 		.ascii	"B@\267/i \243O\303\372\001\370\037\002d-e6\273\303p"
 127      6920A34F 
 127      C3FA01F8 
 127      1F02642D 
 127      6536BBC3 
 128 00da BADC1EAF 		.ascii	"\272\334\036\257\317\017k_\005\256<\255&\333M\363\243"
 128      CF0F6B5F 
 128      05AE3CAD 
 128      26DB4DF3 
 128      A3
 129 00eb CC8EDF33 		.ascii	"\314\216\3373\364\023\263?\271\315\274\233\315\002D"
 129      F413B33F 
 129      B9CDBC9B 
 129      CD0244
 130 00fa 000D7D02 		.ascii	"\000\015}\002H\010\310+\270\200*1Q[\256\345R\266\177"
 130      4808C82B 
 130      B8802A31 
 130      515BAEE5 
 130      52B67F
 131 010d F3A90F4B 		.ascii	"\363\251\017K\315m\235\335\346\030\212F\200Q\362d1\311"
 131      CD6D9DDD 
 131      E6188A46 
 131      8051F264 
 131      31C9
 132 011f 7DB43F93 		.ascii	"}\264?\223\315n8\374\307O7\340\261z 1~^\020\266C5a8"
 132      CD6E38FC 
 132      C74F37E0 
 132      B17A2031 
 132      7E5E10B6 
 133 0137 F7E06C40 		.ascii	"\367\340l@\014\300\211\003u\343\300|8\020?A\305\246"
ARM GAS  /tmp/ccrw7w3s.s 			page 10


 133      0CC08903 
 133      75E3C07C 
 133      38103F41 
 133      C5A6
 134 0149 E2609BC6 		.ascii	"\342`\233\306\207\351|(U\374e|Q\256\026\025\012l\006"
 134      87E97C28 
 134      55FC657C 
 134      51AE1615 
 134      0A6C06
 135 015c 2756F2A1 		.ascii	"'V\362\241\212\017\325j\273Fm\317Ts-\307\235\2456\347"
 135      8A0FD56A 
 135      BB466DCF 
 135      54732DC7 
 135      9DA536E7 
 136 0170 72CE797C 		.ascii	"r\316y|\230\217\003Cm\355$i\232\335U\222W2\305\000-"
 136      988F0343 
 136      6DED2469 
 136      9ADD5592 
 136      5732C500 
 137 0185 0A091736 		.ascii	"\012\011\0276\342\270\327 +\200\342\304\276%\235\203"
 137      E2B8D720 
 137      2B80E2C4 
 137      BE259D83 
 138 0195 A3B73210 		.ascii	"\243\2672\020\204\035`'s\310.\023?_\004\354\237\221"
 138      841D6027 
 138      73C82E13 
 138      3F5F04EC 
 138      9F91
 139 01a7 4FD1118E 		.ascii	"O\321\021\2160\030\334!\322\015\253\324\034\006'!\\"
 139      3018DC21 
 139      D20DABD4 
 139      1C062721 
 139      5C
 140 01b8 72CB9FBF 		.ascii	"r\313\237\277\344I\032\205%AI\272\271\344\211\313w/"
 140      E4491A85 
 140      254149BA 
 140      B9E489CB 
 140      772F
 141 01ca 9C59A8F4 		.ascii	"\234Y\250\364\324\012\367\337\376\340{f-\376\335\224"
 141      D40AF7DF 
 141      FEE07B66 
 141      2DFEDD94 
 142 01da 36ACC5FA 		.ascii	"6\254\305\372\337nZ;U2\214\346\001\323t\211\3603\021"
 142      DF6E5A3B 
 142      55328CE6 
 142      01D37489 
 142      F03311
 143 01ed C3FD502C 		.ascii	"\303\375P,\210\204HU\011\367\004g\246\370cR\253\371"
 143      88844855 
 143      09F70467 
 143      A6F86352 
 143      ABF9
 144 01ff 5CFF6422 		.ascii	"\\\377d\"\363\305\355Me\021p\242\011\211nsJ\004\\\034"
 144      F3C5ED4D 
 144      651170A2 
 144      09896E73 
 144      4A045C1C 
ARM GAS  /tmp/ccrw7w3s.s 			page 11


 145 0213 C8CD2DB3 		.ascii	"\310\315-\263\011L\267\262\206r\260\335\022,E:GN\034"
 145      094CB7B2 
 145      8672B0DD 
 145      122C453A 
 145      474E1C
 146 0226 7D3B087B 		.ascii	"};\010{q\035\204}\350n\376\235&\311k\003\347\336\365"
 146      711D847D 
 146      E86EFE9D 
 146      26C96B03 
 146      E7DEF5
 147 0239 4A7A187C 		.ascii	"Jz\030|\\\236\301\004uV\340\351c\300P>s\275\307\220"
 147      5C9EC104 
 147      7556E0E9 
 147      63C0503E 
 147      73BDC790 
 148 024d 7C316982 		.ascii	"|1i\202\215Z<6\036&\344A\227\343f\230;\022]\177\271"
 148      8D5A3C36 
 148      1E26E441 
 148      97E36698 
 148      3B125D7F 
 149 0262 EF9FD386 		.ascii	"\357\237\323\206\206\366\317!\263\321\323*\006\027Q"
 149      86F6CF21 
 149      B3D1D32A 
 149      061751
 150 0271 DEC32D30 		.ascii	"\336\303-0\271\005\336\267\310\035s\035\377\347\213"
 150      B905DEB7 
 150      C81D731D 
 150      FFE78B
 151 0280 097D39BC 		.ascii	"\011}9\274O\231\301\324\254=u\232\234\3749\261\300\202"
 151      4F99C1D4 
 151      AC3D759A 
 151      9CFC39B1 
 151      C082
 152 0292 95A2667D 		.ascii	"\225\242f}\204\237 \260\027#4\302h\311\011_\232\000"
 152      849F20B0 
 152      172334C2 
 152      68C9095F 
 152      9A00
 153 02a4 DA484169 		.ascii	"\332HAi\317\266\036\217s\355\355d6\317\261T\337\330"
 153      CFB61E8F 
 153      73EDED64 
 153      36CFB154 
 153      DFD8
 154 02b6 1093B80A 		.ascii	"\020\223\270\012\351%t\206\372[\377\320\372\332U2\315"
 154      E9257486 
 154      FA5BFFD0 
 154      FADA5532 
 154      CD
 155 02c7 9769383C 		.ascii	"\227i8<6B'\203\223G\006\267)pC\202\217\376\257\340\216"
 155      36422783 
 155      934706B7 
 155      29704382 
 155      8FFEAFE0 
 156 02dc 1CF03B5D 		.ascii	"\034\360;]\2676>\235\003\276\010\301\013\027\220!f\025"
 156      B7363E9D 
 156      03BE08C1 
 156      0B179021 
ARM GAS  /tmp/ccrw7w3s.s 			page 12


 156      6615
 157 02ee 92CF613C 		.ascii	"\222\317a<&\007\241@P\004\370_\017\014\356|X\360\301"
 157      2607A140 
 157      5004F85F 
 157      0F0CEE7C 
 157      58F0C1
 158 0301 E1EC109D 		.ascii	"\341\354\020\235\014\316\012\203\273\224\315\"s\273"
 158      0CCE0A83 
 158      BB94CD22 
 158      73BB
 159 030f D6757DB9 		.ascii	"\326u}\271\3519\235bS\221*\302\230\"\012M5\351\354;"
 159      E9399D62 
 159      53912AC2 
 159      98220A4D 
 159      35E9EC3B 
 160 0323 8380459E 		.ascii	"\203\200E\236\030\311fKD}\177U\264\276\021\215\220\263"
 160      18C9664B 
 160      447D7F55 
 160      B4BE118D 
 160      90B3
 161 0335 243972BC 		.ascii	"$9r\274\347\332(Ln.\203'\317c\275\234\025\305)O\012"
 161      E7DA284C 
 161      6E2E8327 
 161      CF63BD9C 
 161      15C5294F 
 162 034a E9B4B7E2 		.ascii	"\351\264\267\342V\022\002{\020\316\313\364B\270\010"
 162      5612027B 
 162      10CECBF4 
 162      42B808
 163 0359 4CD155E8 		.ascii	"L\321U\350 IQ\205\231\215WAW:o\257X%\262\036Gw^a\332"
 163      20495185 
 163      998D5741 
 163      573A6FAF 
 163      5825B21E 
 164 0372 AA69A21E 		.ascii	"\252i\242\036uz\277\366\210\351-\274\365^\327N\320\260"
 164      757ABFF6 
 164      88E92DBC 
 164      F55ED74E 
 164      D0B0
 165 0384 D3D15308 		.ascii	"\323\321S\010\256\274\330\252\311\245b\007&\370P\366"
 165      AEBCD8AA 
 165      C9A56207 
 165      26F850F6 
 166 0394 7CDC1115 		.ascii	"|\334\021\025}m\340\350\373\336\011\030\245\343.[\201"
 166      7D6DE0E8 
 166      FBDE0918 
 166      A5E32E5B 
 166      81
 167 03a5 59758231 		.ascii	"Yu\2021\321Ov\245\250f*\223\372[\321\364\347GS)\267"
 167      D14F76A5 
 167      A8662A93 
 167      FA5BD1F4 
 167      E7475329 
 168 03ba 468B940B 		.ascii	"F\213\224\013=\312\012(Q.\3753\274+e\031R1\336MH\341"
 168      3DCA0A28 
 168      512EFD33 
 168      BC2B6519 
ARM GAS  /tmp/ccrw7w3s.s 			page 13


 168      5231DE4D 
 169 03d0 430C7508 		.ascii	"C\014u\010z\274\2774\327\337\025Zu\247V}\313\356\277"
 169      7ABCBF34 
 169      D7DF155A 
 169      75A7567D 
 169      CBEEBF
 170 03e3 2DD5673C 		.ascii	"-\325g<\210\352\334)\211g-\221I.q\221.`\302\305_o\266"
 170      88EADC29 
 170      89672D91 
 170      492E7191 
 170      2E60C2C5 
 171 03fa 982AD1F1 		.ascii	"\230*\321\361\202\257H\242\006aH\334+\367O\324J\221"
 171      82AF48A2 
 171      066148DC 
 171      2BF74FD4 
 171      4A91
 172 040c A843C77B 		.ascii	"\250C\307{\214\2744\275t\000\323\364\307\2344u\344\247"
 172      8CBC34BD 
 172      7400D3F4 
 172      C79C3475 
 172      E4A7
 173 041e 29F26474 		.ascii	")\362dt\232VNHS7OS\336\214g\242\351\316\273\347*prq"
 173      9A564E48 
 173      53374F53 
 173      DE8C67A2 
 173      E9CEBBE7 
 174 0436 A7197B2E 		.ascii	"\247\031{.6\245\311,4\301y\354B\024'N-7\266^\024]\332"
 174      36A5C92C 
 174      34C179EC 
 174      4214274E 
 174      2D37B65E 
 175 044d 43F035C6 		.ascii	"C\3605\306DD{?.\227\327d\030\252\303\300\302h\203\264"
 175      44447B3F 
 175      2E97D764 
 175      18AAC3C0 
 175      C26883B4 
 176 0461 79C78498 		.ascii	"y\307\204\230V\253\230\036\\\254yk\012\265\030z\257"
 176      56AB981E 
 176      5CAC796B 
 176      0AB5187A 
 176      AF
 177 0472 901A1A4E 		.ascii	"\220\032\032N\206\264F\253\357%\370\372\003y\331\351"
 177      86B446AB 
 177      EF25F8FA 
 177      0379D9E9 
 178 0482 B3981011 		.ascii	"\263\230\020\021\004\311M\345\341[\016\246A\237^5)\352"
 178      04C94DE5 
 178      E15B0EA6 
 178      419F5E35 
 178      29EA
 179 0494 F41E51BF 		.ascii	"\364\036Q\277\232\250\267D\302\343\035-Mh\030f\272\261"
 179      9AA8B744 
 179      C2E31D2D 
 179      4D681866 
 179      BAB1
 180 04a6 13D5786E 		.ascii	"\023\325xn\244+\322\004\315\236\305\227\325\236\037"
 180      A42BD204 
ARM GAS  /tmp/ccrw7w3s.s 			page 14


 180      CD9EC597 
 180      D59E1F
 181 04b5 D251AE98 		.ascii	"\322Q\256\230\217\373\225\337c\303\207\256\347\275x"
 181      8FFB95DF 
 181      63C387AE 
 181      E7BD78
 182 04c4 EEDBB02D 		.ascii	"\356\333\260-}G\017\0150}x\255\274\260\013\353\353\264"
 182      7D470F0D 
 182      307D78AD 
 182      BCB00BEB 
 182      EBB4
 183 04d6 0AAC33B5 		.ascii	"\012\2543\265\337x\300\303\234\352\260Z\3650\353M\323"
 183      DF78C0C3 
 183      9CEAB05A 
 183      F530EB4D 
 183      D3
 184 04e7 1CC99C52 		.ascii	"\034\311\234R\253-\244\246\272\356\372z\323\271\006"
 184      AB2DA4A6 
 184      BAEEFA7A 
 184      D3B906
 185 04f6 BA8A28AA 		.ascii	"\272\212(\252%S\303\2757\363\\S\344F`*\217\216\\\261"
 185      2553C3BD 
 185      37F35C53 
 185      E446602A 
 185      8F8E5CB1 
 186 050a 4239570A 		.ascii	"B9W\012O)\032N\236\255\226C\347\241\240\206[:Q\211b"
 186      4F291A4E 
 186      9EAD9643 
 186      E7A1A086 
 186      5B3A5189 
 187 051f 38282A84 		.ascii	"8(*\204\372F\217\344{Lwp\317Cwp\371N\024o\241,~%Dg\270"
 187      FA468FE4 
 187      7B4C7770 
 187      CF437770 
 187      F94E146F 
 188 053a 9FBFE6CE 		.ascii	"\237\277\346\316\221Df\275\276G\364\327\210-|\257\301"
 188      914466BD 
 188      BE47F4D7 
 188      882D7CAF 
 188      C1
 189 054b DF7D1575 		.ascii	"\337}\025uu\201%-\221U\221\027\227\007\332:\002\355"
 189      7581252D 
 189      91559117 
 189      9707DA3A 
 189      02ED
 190 055d F140477B 		.ascii	"\361@G{(\020jY\023\257\013\021Xmoj\216\306\203\213r"
 190      28106A59 
 190      13AF0B11 
 190      586D6F6A 
 190      8EC6838B 
 191 0572 995A82D1 		.ascii	"\231Z\202\321\300\352\266\366xG`ycC\375\302\300\262"
 191      C0EAB6F6 
 191      78476079 
 191      6343FDC2 
 191      C0B2
 192 0584 652F041A 		.ascii	"e/\004\032\2276\254Y\300wVv\304WF\243Mu-dA\256T\250"
 192      9736AC59 
ARM GAS  /tmp/ccrw7w3s.s 			page 15


 192      C0775676 
 192      C45746A3 
 192      4D752D64 
 193 059c 2D166B6B 		.ascii	"-\026kkU\202\317\277\334\260\244\341M<'\324\326\336"
 193      5582CFBF 
 193      DCB0A4E1 
 193      4D3C27D4 
 193      D6DE
 194 05ae BC321E89 		.ascii	"\2742\036\2115\267\243DU\2362\221\326P\364\365\246f"
 194      35B7A344 
 194      559E3291 
 194      D650F4F5 
 194      A666
 195 05c0 A9500B61 		.ascii	"\251P\013a\255mo\3308\367\177[\3064&"
 195      AD6D6FD8 
 195      38F77F5B 
 195      C63426
 196              		.text
 197              		.section	.gnu.lto_chVTDoResetI.4eae468d83fbeabb,"",%progbits
 198 0000 789CAD93 		.ascii	"x\234\255\2231h\024A\024\206\337{\263\263{\271=5`%\010"
 198      31681441 
 198      1486DF7B 
 198      B3B37BB9 
 198      3D356025 
 199 0015 062B3178 		.ascii	"\006+1x\213\330h!)\254\004\301\302\034h\231l$Y\360\014"
 199      8BD86821 
 199      29AC04C1 
 199      C21C6899 
 199      6C2459F0 
 200 002a 24871616 		.ascii	"$\207\026\026\231K\256H%G\252\240\215iE\324\302\"vw"
 200      994BAE48 
 200      2547AAA0 
 200      8D6945D4 
 200      C2227677 
 201 003e 56096AD4 		.ascii	"V\011j\324B\010\022PlMbm\020\32773;\267w\346H\032\007"
 201      42081250 
 201      6C4D626D 
 201      10D73733 
 201      3BB777E6 
 202 0055 F6BD99DD 		.ascii	"\366\275\231\335\371\336\377\346\275Y\002\202\177\307"
 202      F9DEFFE6 
 202      BD590282 
 202      7FC7
 203 0063 357E7604 		.ascii	"5~v\004\3009\366\030\000Rs\003\240^ \022\257\336\000"
 203      C039F618 
 203      00527303 
 203      A05E2012 
 203      AFDE00
 204 0076 A8A2DC0A 		.ascii	"\250\242\334\012A\225\004yv\351\233\245\207\276\335"
 204      41950479 
 204      76E99BA5 
 204      87BEDD
 205 0085 26ED047D 		.ascii	"&\355\004}D\355\001a\216\204'}\234\273\205&\374\013"
 205      44ED0161 
 205      8E84277D 
 205      9CBB8526 
 205      FC0B
ARM GAS  /tmp/ccrw7w3s.s 			page 16


 206 0097 6A7D4BD3 		.ascii	"j}K\323\347\277\337>{\207\353t\234 A\020XE\360\364L"
 206      E7BFDF3E 
 206      7B87EB74 
 206      9C204110 
 206      5845F0F4 
 207 00ac 6A136853 		.ascii	"j\023hSd\203\2416%m\230\224\320P\2529TE<\015+J-\265"
 207      6483A136 
 207      256D9894 
 207      D050AA39 
 207      54453C0D 
 208 00c4 3E6F3C3C 		.ascii	">o<<\241\236\3147\325\2374\305\004\211\340\024B\214"
 208      A19ECC37 
 208      D59F34C5 
 208      0489E014 
 208      428C
 209 00d6 70931762 		.ascii	"p\223\027b\3108\317\353=\234%\325\327\2115\325h\245"
 209      C838CFEB 
 209      3D9C25D5 
 209      D78935D5 
 209      68A5
 210 00e8 E988A1CE 		.ascii	"\351\210\241\316\034F\201\376\316c\224\255>U\005I{\361"
 210      1C4681FE 
 210      CE6394AD 
 210      3E550549 
 210      7BF1
 211 00fa 1EE6BF6C 		.ascii	"\036\346\277l\376h\323\030\256\240\204I\244a8\313\251"
 211      FE68D318 
 211      AEA08449 
 211      A46138CB 
 211      A9
 212 010b 0FC353C5 		.ascii	"\017\303S\305\343B\202\3621<\252+5\230\240\377\000\366"
 212      E34282F2 
 212      313CAA2B 
 212      3598A0FF 
 212      00F6
 213 011d D4A29E05 		.ascii	"\324\242\236\005U\324E\327:\201\211=n\013\303>\233\300"
 213      55D445D7 
 213      3A81893D 
 213      6E0BC33E 
 213      9BC0
 214 012f 1A34B6EB 		.ascii	"\0324\266\353G:Q'Q\344\231Tx\301\2257\332\313\273mt"
 214      473A5127 
 214      51E49954 
 214      78C19537 
 214      DACBBB6D 
 215 0144 BB3CABCD 		.ascii	"\273<\253\315\202\034\270\300\210\026p\201]\2275\364"
 215      821CB8C0 
 215      88167081 
 215      5D9735F4 
 216 0154 F1A843E4 		.ascii	"\361\250C\344A\210\310\221\365\227\241E\262\203]\356"
 216      4188C891 
 216      F597A145 
 216      B2835DEE 
 217 0164 86BCFD10 		.ascii	"\206\274\375\020G\266R\253]\371\005\377C,\330\177(\316"
 217      47B652AB 
 217      5DF905FF 
 217      432CD87F 
ARM GAS  /tmp/ccrw7w3s.s 			page 17


 217      28CE
 218 0176 C070AB9B 		.ascii	"\300p\253\233\273\277\260\207<\237\340@\1779\333^\375"
 218      BBBFB087 
 218      3C9FE040 
 218      7F39DB5E 
 218      FD
 219 0187 66C095BB 		.ascii	"f\300\225\273\275\327)K`[\245\373W\314B]\342Vr\333\\"
 219      BDD7294B 
 219      605BA5FB 
 219      57CC425D 
 219      E25672DB 
 220 019c A77A4685 		.ascii	"\247zF\205\303\275\276h\357\302\317\266pQ2\224\033N"
 220      C3BDBE68 
 220      EFC2CFB6 
 220      70513294 
 220      1B4E
 221 01ae FDD397DD 		.ascii	"\375\323\227\335=9\346\260\320\224\211\372\347\235#"
 221      3D39E6B0 
 221      D09489FA 
 221      E79D23
 222 01bd 0B8B0BDF 		.ascii	"\013\213\013\337;\245-\261\032\223&\324\325\356\022"
 222      3BA52DB1 
 222      1A9326D4 
 222      D5EE12
 223 01cc 1C26CEA8 		.ascii	"\034&\316\250;\203\204\255P|\200F\301\362\000\235\373"
 223      3B8384AD 
 223      507C8046 
 223      C1F2009D 
 223      FB
 224 01dd 1AC6D9BD 		.ascii	"\032\306\331\275\344d\222\034\360\315\037\360\211\177"
 224      E464921C 
 224      F0CD1FF0 
 224      897F
 225 01eb F9BC14A3 		.ascii	"\371\274\024\243\274\223\337\352\306\234,\227\243+S"
 225      BC93DFEA 
 225      C69C2C97 
 225      A32B53
 226 01fa C97872FD 		.ascii	"\311xr\375F4=\033\315\324\242\331\2318\212\247\356\325"
 226      46343D1B 
 226      CDD4A2D9 
 226      99388AA7 
 226      EED5
 227 020c CA3114EE 		.ascii	"\3121\024\356N\337\237\270}\2476&\215\375\013,/\344"
 227      4EDF9FB8 
 227      7DA73626 
 227      8DFD0B2C 
 227      2FE4
 228 021e DC       		.ascii	"\334"
 229              		.text
 230              		.section	.gnu.lto_.symbol_nodes.4eae468d83fbeabb,"",%progbits
 231 0000 789C4DC8 		.ascii	"x\234M\310\261\015\302@\024\203a\333/w\314\300\022\254"
 231      B10DC240 
 231      148361DB 
 231      2F77CCC0 
 231      12AC
 232 0012 E8744454 		.ascii	"\350tDTi(I\301\015C\201\240\240a\000\006\200D $*\220"
 232      692849C1 
ARM GAS  /tmp/ccrw7w3s.s 			page 18


 232      0D4381A0 
 232      A0610006 
 232      80442024 
 233 0028 8808AEFE 		.ascii	"\210\010\256\376\317\202\260\3068\275h\240=\002\366"
 233      CF82B0C6 
 233      38BD68A0 
 233      3D02F6
 234 0037 A6611AF8 		.ascii	"\246a\032\370)\350Js|\273\206\272\321\372cO\307D>\351"
 234      29E84A73 
 234      7CBB86BA 
 234      D1FA634F 
 234      C7443EE9 
 235 004b EACBBA26 		.ascii	"\352\313\272&\037t\232t\247\363O\201\214\313~7\017$"
 235      1F749A74 
 235      A7F34F81 
 235      8CCB7E37 
 235      0F24
 236 005d 945E1133 		.ascii	"\224^\0213\224\325\"\"\243\234\016\212\012\330.\317"
 236      94D52222 
 236      A39C0E8A 
 236      0AD82ECF 
 237 006d C21BBDA6 		.ascii	"\302\033\275\246,\366"
 237      2CF6
 238              		.text
 239              		.section	.gnu.lto_.refs.4eae468d83fbeabb,"",%progbits
 240 0000 789C6362 		.ascii	"x\234cb`b0f\200\000\026\006FF& d`dc\002\261 \230\221"
 240      60623066 
 240      80001606 
 240      46462620 
 240      64606463 
 241 0019 91939901 		.ascii	"\221\223\231\001\312\202\311\003i\026\220\030\003\000"
 241      CA82C903 
 241      69169018 
 241      0300
 242 0027 152A0084 		.ascii	"\025*\000\204"
 243              		.text
 244              		.section	.gnu.lto_.decls.4eae468d83fbeabb,"",%progbits
 245 0000 789CBD5B 		.ascii	"x\234\275[{p\024U\272\357\3233\231dHx\210\253\305\275"
 245      7B701455 
 245      BAEFD333 
 245      99644878 
 245      88ABC5BD 
 246 0014 B245DCBB 		.ascii	"\262E\334\273k]\335\202\341\245\342\255[+\336\340U\253"
 246      6B5DDD82 
 246      E1A5E2AD 
 246      5B2BDEE0 
 246      55AB
 247 0026 965D2BB0 		.ascii	"\226]+\260\267\250\262n\3156\223&\231\273\231\231\354"
 247      B7A8B26E 
 247      CD369326 
 247      99BB9999 
 247      EC
 248 0037 4C27C05F 		.ascii	"L'\300_v\002\004\305\007!\341\021\004!\200\260<|\005"
 248      760204C5 
 248      0721E111 
 248      042180B0 
 248      3C7C05
ARM GAS  /tmp/ccrw7w3s.s 			page 19


 249 004a 0416451D 		.ascii	"\004\026E\035d7&\300\205\010B\200\0107\362Z\036>\000"
 249      643726C0 
 249      85084280 
 249      0837F25A 
 249      1E3E00
 250 005d 153508B9 		.ascii	"\0255\010\271\337\371N\367\314\351\236\356Iwp\267\253"
 250      DFF94EF7 
 250      CCE99EEE 
 250      497770B7 
 250      AB
 251 006e CEC999EE 		.ascii	"\316\311\231\356s~\337\363|\3379\247;\242 \012\353E"
 251      737EDFF3 
 251      7CDF39A7 
 251      3BA2200A 
 251      EB45
 252 0080 41E881EB 		.ascii	"A\350\201\353\205\361\202\360y\256 \344\010\202\360"
 252      85F182F0 
 252      79AE20E4 
 252      0882F0
 253 008f 2B281E28 		.ascii	"+(\036(\253\240\254\206\262\015\012\201\262\037\012"
 253      ABA0AC86 
 253      B20D0A81 
 253      B21F0A
 254 009e 741136C2 		.ascii	"t\0216\302\217f([\241\354\206\322\006e/\224\003\204"
 254      8F66285B 
 254      A1EC86D2 
 254      06652F94 
 254      0384
 255 00b0 F5FB8856 		.ascii	"\365\373\210V\334E\373\017\326p\006@)\240\3674\254M"
 255      DC45FB0F 
 255      D6700640 
 255      29A0F734 
 255      AC4D
 256 00c2 1A8D83D0 		.ascii	"\032\215\203\320\347\010a4wA\351\200\366f(G\241\034"
 256      E7086134 
 256      7741E980 
 256      F6662847 
 256      A11C
 257 00d4 8352007C 		.ascii	"\203R\000|\366\207\262\017\332y\360\274Y\343g\003\224"
 257      F687B20F 
 257      DA79F0BC 
 257      59E36703 
 257      94
 258 00e5 2D509250 		.ascii	"-P\222P\266B\271\014\317\367\011\254\017\245;@d\374"
 258      B642B90C 
 258      CFF709AC 
 258      0FA53B40 
 258      64FC
 259 00f7 DD067FEF 		.ascii	"\335\006\177\357\2002\004\312]\"\343\227\312X\010\355"
 259      803204CA 
 259      5D22E397 
 259      CA5808ED 
 260 0107 D74926CF 		.ascii	"\327I&\317T\276\\\215O3\177\3334\336s8\036\366@\331"
 260      54BE5C8D 
 260      4F337FDB 
 260      34DE7338 
 260      1EF640D9 
ARM GAS  /tmp/ccrw7w3s.s 			page 20


 261 011b 2B30DA44 		.ascii	"+0\332D\033o\245\013\252\263\3334\\]\027:\336\303\232"
 261      1B6FA50B 
 261      AAB3DB34 
 261      5C5D173A 
 261      DEC39A
 262 012e 3EA8FCBC 		.ascii	">\250\374\274\334f\372\272\036\362\241\335\252\311N"
 262      DC66FABA 
 262      1EF2A1DD 
 262      AAC94E
 263 013d E5D679D9 		.ascii	"\345\326y\331\247\361\323\254\351f\253\306[\236N\237"
 263      A7F1D3AC 
 263      E966ABC6 
 263      5B9E4E9F 
 264 014d D3C53D22 		.ascii	"\323\305=\"\263\233\256\023\037\364y\027\376\356\204"
 264      B39BAE13 
 264      1FF47917 
 264      FEEE84
 265 015c B20BCAFB 		.ascii	"\262\013\312\373P\356\0233\345\240v\357\317\331\221"
 265      50EE1333 
 265      E5A076EF 
 265      CFD991
 266 016b B72DCFAF 		.ascii	"\267-\317\257.\017\345;\0008\2334\032\274\355\2329\373"
 266      2E0FE53B 
 266      00389B34 
 266      1ABCED9A 
 266      39FB
 267 017d 891AF646 		.ascii	"\211\032\366F\315>\037\022f#3\375|a\236\252\326\250"
 267      CD3E1F12 
 267      662333FD 
 267      7C619EAA 
 267      D6A8
 268 018f 4DB5EAE3 		.ascii	"M\265\352\343\255\003\006\013\013T\270\012[\201\203"
 268      AD03060B 
 268      0B54B80A 
 268      5B8183
 269 019e 29442203 		.ascii	")D\"\003\374\202J\260U\340\027\006A\357_\010\257\250"
 269      FC824AB0 
 269      55E01706 
 269      41EF5F08 
 269      AFA8
 270 01b0 6A5DD75F 		.ascii	"j]\327_\277J\346\250j\236DV\223\301@\351^\"\334'l\200"
 270      BF4AE6A8 
 270      6A9E4456 
 270      93C140E9 
 270      5E22DC27 
 271 01c6 8175AA7A 		.ascii	"\201u\252zj\230\220y\365\212+\012\377I\004\211\254\003"
 271      6A989079 
 271      F58A2B0A 
 271      FF490489 
 271      AC03
 272 01d8 3889AC25 		.ascii	"8\211\254%\3671Bj\327\365\226#sH\265\252\022\366L\320"
 272      F731426A 
 272      D7F59623 
 272      7348B5AA 
 272      12F64CD0 
 273 01ec 9E5A5C77 		.ascii	"\236Z\\w\013M G\362\304\342\227\377Im\372\200\364&V"
 273      0B4D2047 
ARM GAS  /tmp/ccrw7w3s.s 			page 21


 273      F2C4E297 
 273      FF496DFA 
 273      80F42656 
 274 0200 538AFC4F 		.ascii	"S\212\374O\322b\255\275\332\352E\2616\241X*!\006z\275"
 274      D262ADBD 
 274      DAEA45B1 
 274      36A1582A 
 274      21067ABD 
 275 0214 C288421D 		.ascii	"\302\210B\035\016y=S\214\026]\214\327\035\211\361\262"
 275      0E793D53 
 275      8C165D8C 
 275      D71D89F1 
 275      B2
 276 0225 26864436 		.ascii	"&\206D6\202(\242\260*\205\253\021.\324\351z\005Ao\262"
 276      8228A2B0 
 276      2A85AB11 
 276      2ED4E97A 
 276      05416FB2 
 277 0239 4BEB60C4 		.ascii	"K\353`\304[q\244\240N\322\301\326\271\006+4\2005\037"
 277      5B71A4A0 
 277      4ED2C1D6 
 277      B9062B34 
 277      80351F
 278 024c 598ECCF9 		.ascii	"Y\216\314\371\205g\322:\026,\3014\305\236}\351\016\325"
 278      8567D23A 
 278      162CC134 
 278      C59E7DE9 
 278      0ED5
 279 025e 2B916D30 		.ascii	"+\221m0D\004\3175\252\3259L\347s\177\335EjP\215;\020"
 279      4404CF35 
 279      AAD5394C 
 279      E7737FDD 
 279      456A508D 
 280 0274 6A83D857 		.ascii	"j\203\330W\250\303\015;\037BS\357D\240\355\036#\220"
 280      A8C30D3B 
 280      1F4253EF 
 280      44A0ED1E 
 280      2390
 281 0286 4472532A 		.ascii	"DrS*L\375\326;P4|\2545h\330\037(\374\235\273\213\302"
 281      4CFDD63B 
 281      50347CAC 
 281      3568D81F 
 281      28FC9DBB 
 282 029c 071E0766 		.ascii	"\007\036\007f\313\263\365\201\256\356\226}9K\325\344"
 282      CBB3F581 
 282      AEEE967D 
 282      394BD5E4 
 283 02ac 6C8F616E 		.ascii	"l\217an\334),\242N\015?T\242H\344WwX\242S\036? wb\313"
 283      DC292CA2 
 283      4E0D3F54 
 283      A248E457 
 283      7758A253 
 284 02c6 83B1056E 		.ascii	"\203\261\005n<\234\017\325\357<)1\262\250{\316\227I"
 284      3C9C0FD5 
 284      EF3C2931 
 284      B2A87BCE 
 284      9749
ARM GAS  /tmp/ccrw7w3s.s 			page 22


 285 02d8 11D5BD0B 		.ascii	"\021\325\275\013=\260\325\244n\003G\214\222\035\027"
 285      3DB0D5A4 
 285      6E03478C 
 285      921D17
 286 02e7 2D24DF66 		.ascii	"-$\337f\366d<\023\205\217\\\253\314\340\3510o\377w-"
 286      F6643C13 
 286      858F5CAB 
 286      CCE0E930 
 286      6FFF772D 
 287 02fb 6998A5B6 		.ascii	"i\230\245\266\216DiE\341\210\023\300A\0266\260\272\370"
 287      8E446945 
 287      E18813C0 
 287      411636B0 
 287      BAF8
 288 030d 40219137 		.ascii	"@!\2217\311/\240n&wC\275\005\353\255X'\261n\205:\253"
 288      C92FA06E 
 288      267743BD 
 288      05EBAD58 
 288      27B16E85 
 289 0323 A2291C9D 		.ascii	"\242)\034\235\336)\354\315D\324\"j\337B\306\345t\310"
 289      DE29ECCD 
 289      44D4226A 
 289      DF42C6E5 
 289      74C8
 290 0335 90C85BAE 		.ascii	"\220\310[\256\301\014\212L~\243\205\014\026\003$\362"
 290      C10C8A4C 
 290      7EA3850C 
 290      160324F2 
 291 0345 BE133C7B 		.ascii	"\276\023<{_N.\354@\346X@9\356!.\301\012\263\031e\035"
 291      5F4E2EEC 
 291      40E65840 
 291      39EE212E 
 291      C10AB319 
 292 035b 6794F568 		.ascii	"g\224\365h\224\015h\202=X\357\305z\237\023s\254J\233"
 292      940D6882 
 292      3D58EFC5 
 292      7A9F1373 
 292      AC4A9B
 293 036e 03D95693 		.ascii	"\003\331V\223\215OQ\256Y\322<\015\\[d\224d\256\0163"
 293      8D4F51AE 
 293      59D23C0D 
 293      5C5B6494 
 293      64AE0E33 
 294 0382 43A02E7C 		.ascii	"C\240.|\021\205k7e\224\344\367/\025\320\210\332\356"
 294      11856B37 
 294      6594E4F7 
 294      2F15D088 
 294      DAEE
 295 0394 209BA8C9 		.ascii	" \233\250\311\005\235\313\011\325\276\005\271\256T\002"
 295      059DCB09 
 295      D5BE05B9 
 295      AE5402
 296 03a3 1B2AA4C3 		.ascii	"\033*\244\303\365\245\313\036\234\255\037#\247_{z\315"
 296      F5A5CB1E 
 296      9CAD1F23 
 296      A75F7B7A 
 296      CD
ARM GAS  /tmp/ccrw7w3s.s 			page 23


 297 03b4 83461851 		.ascii	"\203F\030Q\250\366\322!\035\031y\260\366s=\017v8\342"
 297      A8F6D221 
 297      1D1979B0 
 297      F6733D0F 
 297      7638E2
 298 03c7 7C7B872D 		.ascii	"|{\207-\347\343y\313\352a\346\242\226\300;\221\361\371"
 298      E7E379CB 
 298      EA61E6A2 
 298      96C03B91 
 298      F1F9
 299 03d9 5E4BC69B 		.ascii	"^K\306\233\306\333\301\210\302J\034r23\201\037\250\321"
 299      C6DBC188 
 299      C24A1C72 
 299      3233811F 
 299      A8D1
 300 03eb 183FE928 		.ascii	"\030?\351(\201\1774\317\341:\304\253\323\237\220\026"
 300      817F34CF 
 300      E13AC4AB 
 300      D39F9016 
 301 03fb E3CC3051 		.ascii	"\343\3140Q\"\247Q\2047\255E\260\207\020\205\0358\344"
 301      22A75184 
 301      37AD45B0 
 301      8710851D 
 301      38E4
 302 040d 5CA6EE4F 		.ascii	"\\\246\356O\350\"\234s\244\373o\3670\335\353\332\334"
 302      E8229C73 
 302      A4FB6FF7 
 302      30DDEBDA 
 302      DC
 303 041e 9DC2B552 		.ascii	"\235\302\265R]\357\001\345\273=0g\235g\350-\347\222"
 303      5DEF01E5 
 303      BB3D3067 
 303      9D67E82D 
 303      E792
 304 0430 43DE55D5 		.ascii	"C\336U\325A\022\371\014g\371\354\034s\212\246k\000\356"
 304      4112F90C 
 304      67F9EC1C 
 304      738AA66B 
 304      00EE
 305 0442 7296459F 		.ascii	"r\226E\237\3171I\341*\362PO8Y\317R\202\356M>;ADa\001"
 305      CF3149E1 
 305      2AF2504F 
 305      3859CF52 
 305      82EE4D3E 
 306 045b 12BB6236 		.ascii	"\022\273b6\305\215\213\255\3676\242hW\0349\323\326="
 306      C58D8BAD 
 306      F736A268 
 306      571C39D3 
 306      D63D
 307 046d 4B9C3993 		.ascii	"K\2349\223\250\223\3779\222\337\203\344\257\231\311"
 307      A893FF39 
 307      92DF83E4 
 307      AF99C9
 308 047c 9FF8A2F5 		.ascii	"\237\370\242\365)F\376\232#\362;:\026f\222\267]*h\346"
 308      2946FE9A 
 308      23F23B3A 
 308      166692B7 
ARM GAS  /tmp/ccrw7w3s.s 			page 24


 308      5D2A68E6 
 309 0490 BB71F1FC 		.ascii	"\273q\361\374\320\225H\244\033S~\255\317l\276\207\363"
 309      D09548A4 
 309      1B537EAD 
 309      CF6CBE87 
 309      F3
 310 04a1 795ADA72 		.ascii	"yZ\332r\202K\336\363}:\367}J` \346\371\377\336\260Y"
 310      824BDEF3 
 310      7D3AF77D 
 310      4A6020E6 
 310      F9FFDEB0 
 311 04b6 559FF5E9 		.ascii	"U\237\365\351<\324\273F,4(b'\313:\014l\221\023\260,"
 311      3CD4BB46 
 311      2C342862 
 311      27CB3A0C 
 311      6C9113B0 
 312 04cb 29EC3D1E 		.ascii	")\354=\036\254\3215\230\221\263v\036l\231\0230\253E"
 312      ACD13598 
 312      91B3761E 
 312      6C991330 
 312      AB45
 313 04dd 8A067690 		.ascii	"\212\006v\220\007[\341\032\314\310\331\307<\330*'`C"
 313      075BE11A 
 313      CCC8D9C7 
 313      3CD82A27 
 313      6043
 314 04ef EC393BC2 		.ascii	"\3549;\302\203\255u\015f\344\354(\017\266\301\011X\241"
 314      83AD750D 
 314      66E4EC28 
 314      0FB6C109 
 314      58A1
 315 0501 0567A9CB 		.ascii	"\005g\251\313n\025\360Mz\025 \012\257\372\364\200\340"
 315      6E15F04D 
 315      7A15200A 
 315      AFFAF480 
 315      E0
 316 0512 D2A78534 		.ascii	"\322\247\2054\306\033>\267\021\314 7D\260\377[\255/"
 316      C61B3EB7 
 316      11CC2037 
 316      44B0FF5B 
 316      AD2F
 317 0524 6A4FA1F0 		.ascii	"jO\241\360[\234 fq\230\272\275\250I\006\266\3035\230"
 317      5B9C2066 
 317      7198BABD 
 317      A84906B6 
 317      C33598
 318 0537 D12C2B28 		.ascii	"\321,+(\230!\324h9\243kmrHc:\330\345\351X\364@\203E"
 318      9821D468 
 318      39A36B6D 
 318      7248633A 
 318      D8E5E958 
 319 054f B63A5515 		.ascii	"\266:U\025S\235\325!C\254\373Jd\211HWu\215\242?\305"
 319      539DD521 
 319      43ACFB4A 
 319      64894857 
 319      758DA23F 
 320 0564 056BEBAD 		.ascii	"\005k\353\255\036B\365\374\276\317tT\242_\275\015\265"
ARM GAS  /tmp/ccrw7w3s.s 			page 25


 320      1E42F5FC 
 320      BECF7454 
 320      A25FBD0D 
 320      B5
 321 0575 F3844522 		.ascii	"\363\204E\"\347\011\177q\242\246,S\241\335NM\311Z\365"
 321      E7097F71 
 321      A2A62C53 
 321      A1DD4E4D 
 321      C95AF5
 322 0588 1952DD3C 		.ascii	"\031R\335<4\353B\011\242\363O7bt~Y\244\311\265\315\024"
 322      34EB4209 
 322      A2F34F37 
 322      62747E59 
 322      A4C9B5CD 
 323 059d 9DDD6075 		.ascii	"\235\335`u>w@\337\2257!\330\307}\007k:|h(]\327\256A"
 323      3E7740DF 
 323      953721D8 
 323      C77D076B 
 323      3A7C6828 
 324 05b5 A0131939 		.ascii	"\240\023\0319\303o\312\370~c\306\367\373\323\215\036"
 324      C36FCAF8 
 324      7E63C6F7 
 324      FBD38D1E 
 325 05c5 FD325AF1 		.ascii	"\3752Z\361\357:\306\316\362\313y\313\237wmy\303\004"
 325      EF3AC6CE 
 325      F2CB79CB 
 325      9F776D79 
 325      C304
 326 05d7 817DFC35 		.ascii	"\201}\3745q\211\232\254\366p\256\236u^\320\265\324\371"
 326      71899AAC 
 326      F670AE9E 
 326      755ED0B5 
 326      D4F9
 327 05e9 0E320B4D 		.ascii	"\0162\013M\264\0365\373\245\265\211\034@u>\367\332/"
 327      B41E35FB 
 327      A5B5891C 
 327      40753EF7 
 327      DA2F
 328 05fb D9191902 		.ascii	"\331\031\031\002}\327g\240\303\015+\306!\320\353\010"
 328      7DD767A0 
 328      C30D2BC6 
 328      21D0EB08 
 329 060b A4E69A6D 		.ascii	"\244\346\232mm^\335\021\243\015\210?\335\310\260\327"
 329      6D5EDD11 
 329      A30D883F 
 329      DDC8B0D7 
 330 061b 8FD85714 		.ascii	"\217\330W\024\346\345\232\014f\020'KnH\005\334\037\352"
 330      E6E59A0C 
 330      6610274B 
 330      6E4805DC 
 330      1FEA
 331 062d C957356A 		.ascii	"\311W5j\343H7\026\353\322-\266\005\365S\227\241\237"
 331      E3483716 
 331      EBD22DB6 
 331      05F55397 
 331      A19F
 332 063f 4DA23B05 		.ascii	"M\242;\005\301*\303\265 yFAj{\372 \310e]\220?\243 +"
ARM GAS  /tmp/ccrw7w3s.s 			page 26


 332      C12AC3B5 
 332      20794641 
 332      6A7BFA20 
 332      C8655D90 
 333 0657 7E0441D6 		.ascii	"~\004A\326\271\026d\020'\010n\347\026\262\024x\273P"
 333      B9166410 
 333      27086EE7 
 333      16B21478 
 333      BB50
 334 0669 9F7D114F 		.ascii	"\237}\021O\371yW\274\335\270\373>\274\237\024\262\333"
 334      F97957BC 
 334      DDB8FB3E 
 334      BC9F14B2 
 334      DB
 335 067a BD6FA3BE 		.ascii	"\275o\243\276\332\317\235\226\252\316v>\255\332\316"
 335      DACF9D96 
 335      AACE763E 
 335      ADDACE
 336 0689 27891ADB 		.ascii	"'\211\032\333\224k1\307\234 5u\356\305s\327\335\010"
 336      946B31C7 
 336      9C203575 
 336      EEC573D7 
 336      DD08
 337 069b D3DC5798 		.ascii	"\323\334W\230\256\303\207\266\263\251\332\202@;2,\350"
 337      AEC387B6 
 337      B3A9DA82 
 337      403B322C 
 337      E8
 338 06ac 3319D067 		.ascii	"3\031\320g4 \374\244\224\276\303(\371\264v\207\376\310"
 338      3420FCA4 
 338      94BEC328 
 338      F9B47687 
 338      FEC8
 339 06be 15FEE1E3 		.ascii	"\025\376\341\343`\037\213\354S\343\271\\\203\351\316"
 339      601F8BEC 
 339      53E3B95C 
 339      83E9CE
 340 06cd 537BA641 		.ascii	"S{\246A_?1\003\355\271%\304\232\344\312\371\372i?\036"
 340      5F3F3103 
 340      EDB925C4 
 340      9AE4CAF9 
 340      FA693F1E 
 341 06e1 321EBA45 		.ascii	"2\036\272E\270\235\007\314K\003\323\316\355\264M\356"
 341      B89D07CC 
 341      4B03D3CE 
 341      EDB44DEE 
 342 06f1 D14F514E 		.ascii	"\321OQNw\261\303\332v\221\262s<\303\334\247\210i\353"
 342      77B1C3DA 
 342      7691B273 
 342      3CC3DCA7 
 342      8869EB
 343 0704 76CA78F0 		.ascii	"v\312x\360j7\217\016\360i\360\363[5C\3137&3|u\213z\373"
 343      6A378F0E 
 343      F069F0F3 
 343      5B3543CB 
 343      3726337C 
 344 071c 7EBEB333 		.ascii	"~\276\2633\233\337\353X\005(\310u${T4\355\262\233W\177"
ARM GAS  /tmp/ccrw7w3s.s 			page 27


 344      9BDFEB58 
 344      0528C875 
 344      247B5434 
 344      EDB29B57 
 345 0731 5AAB2D8B 		.ascii	"Z\253-\213\350\263\336\003E\347Y\277Z_\300N[$r\021O"
 345      E8B3DE03 
 345      45E759BF 
 345      5A5FC04E 
 345      5B247211 
 346 0746 48E948AB 		.ascii	"H\351H\253\325R\257\352I\236\224[G\272\0119\347\265"
 346      D552AFEA 
 346      499E945B 
 346      47BA0939 
 346      E7B5
 347 0758 90730255 		.ascii	"\220s\002U\2711\317l\363\335\346 \355j\316\275\231G"
 347      B931CF6C 
 347      F3DDE620 
 347      ED6ACEBD 
 347      9947
 348 076a 8CD238DD 		.ascii	"\214\3228\335,\247.;\237\352\340}\352\255\274[\362\000"
 348      2CA72E3B 
 348      9FEAE07D 
 348      EAADBC5B 
 348      F200
 349 077c FA9EEE15 		.ascii	"\372\236\356\025\346S\356^\213\212\302;H\371\214\331"
 349      E653EE5E 
 349      8B8AC23B 
 349      48F98CD9 
 350 078c 0996AE6B 		.ascii	"\011\226\256k\233\253\035\272\235q\344\004\337X8\301"
 350      9BAB1DBA 
 350      9D71E404 
 350      DF5838C1 
 351 079c 993E3A01 		.ascii	"\231>:\001x\364\2056\202plkv.\305\244K+hp?\310n\025"
 351      78F48536 
 351      82706C6B 
 351      762EC5A4 
 351      4B2B6870 
 352 07b4 C3DC2B79 		.ascii	"\303\334+y\354,\315\227\237\211\364\030\361\263\014"
 352      EC2CCD97 
 352      9F89F418 
 352      F1B30C
 353 07c3 D7629AE1 		.ascii	"\327b\232\341\\+\255FH\362\270W\373"
 353      5C2BAD46 
 353      48F2B857 
 353      FB
 354 07d0 9B484FDD 		.ascii	"\233HO\335\317c}Qtp\366~I\314x\025\342F\356B\207\336"
 354      CF637D51 
 354      7470F67E 
 354      49CC7815 
 354      E246EE42 
 355 07e6 779AF7BE 		.ascii	"w\232\367\276\257o\321\373\272[\366{\361\005\235\233"
 355      AF6FD1FB 
 355      BA5BF67B 
 355      F1059D9B 
 356 07f6 43D2A3DA 		.ascii	"C\322\243\332\274\275\202\363\366z\206r\373tH:\327\337"
 356      BCBD82F3 
 356      F67A8672 
ARM GAS  /tmp/ccrw7w3s.s 			page 28


 356      FB74483A 
 356      D7DF
 357 0808 47495297 		.ascii	"GIR\227(\274\350w\260\315)\264Pz*\315\036Y\350\360\240"
 357      28BCE877 
 357      B0CD29B4 
 357      507A2ACD 
 357      1E59E8F0 
 358 081d 557F7D7F 		.ascii	"U\177}\177.\311N\377\277EG\253\363[\237\376g9\257]\211"
 358      2EC94EFF 
 358      BF4547AB 
 358      F35B9FFE 
 358      6739AF5D 
 359 0832 43BACDB3 		.ascii	"C\272\315\263\370z\355>\375\350\274\333\301,\256In\231"
 359      F87AED3E 
 359      FDE8BCDB 
 359      C12CAE49 
 359      6E99
 360 0844 A7277496 		.ascii	"\247't\226\031\231\003vgw\300\254\3724\230\260\233\233"
 360      19990376 
 360      6777C0AC 
 360      FA3498B0 
 360      9B9B
 361 0856 1F3FE0FC 		.ascii	"\037?\340\374\270\301\317\011Qx\303\211\356\377\325"
 361      B8C1CF09 
 361      5178C389 
 361      EEFFD5
 362 0865 CE13210A 		.ascii	"\316\023!\012\0354\036\375o7\343Y\305!\003\036o\313"
 362      1D341EFD 
 362      6F37E359 
 362      C521031E 
 362      6FCB
 363 0877 9A64DD21 		.ascii	"\232d\335!< b>\232t\302\334H{\260\225\015\272rO\343"
 363      3C20623E 
 363      9A74C2DC 
 363      487BB095 
 363      0DBA724F 
 364 088c FAA4CD09 		.ascii	"\372\244\315\011\3368;ak\222\333\017\351\357&\331\213"
 364      DE383B61 
 364      6B92DB0F 
 364      E9EF26D9 
 364      8B
 365 089d 868F5CE3 		.ascii	"\206\217\\\343\031\371;\334`X\315\035w\0027\336\261"
 365      19F93BDC 
 365      6058CD1D 
 365      770237DE 
 365      B1
 366 08ae EDD3EF75 		.ascii	"\355\323\357u \036\342\333\311\013\370F\362\022\326"
 366      201EE2DB 
 366      C90BF846 
 366      F212D6
 367 08bd 97B1AEC3 		.ascii	"\227\261\256\3038Y\217\365B\254\227a\375'\2547c\275"
 367      38598FF5 
 367      42AC9761 
 367      FD27AC37 
 367      63BD
 368 08cf 1DEB9D58 		.ascii	"\035\353\235X_\303\272\007\353j\017\255ga=\007\353\271"
 368      5FC3BA07 
ARM GAS  /tmp/ccrw7w3s.s 			page 29


 368      EB6A0FAD 
 368      67613D07 
 368      EBB9
 369 08e1 1E07F1D6 		.ascii	"\036\007\361\326\264\002\324]\376d\237_?\037\334\223"
 369      B402D45D 
 369      FE649F5F 
 369      3F1FDC93 
 370 08f1 3A53D45F 		.ascii	":S\324_?\273\001+\314\246\303\223\234\016\273P\207\237"
 370      3FBB012B 
 370      CCA6C393 
 370      9C0EBB50 
 370      879F
 371 0903 A2DE9EE5 		.ascii	"\242\336\236\345%\325\263oG\237_x\355\350\340\035K\""
 371      25D5B36F 
 371      479F5F78 
 371      EDE8E01D 
 371      4B22
 372 0915 5F9AF15C 		.ascii	"_\232\361\\\245_U\177\375\300^'\315\027\335\202\031"
 372      A55F557F 
 372      FDC05E27 
 372      CD17DD82 
 372      19
 373 0926 BDF4D012 		.ascii	"\275\364\320\022c\210Z\340\004/\313\031\260v\316\317"
 373      63885AE0 
 373      042FCB19 
 373      B076CECF 
 374 0936 C01A5C83 		.ascii	"\300\032\\\203\031\231;\336\301\035(w\371I\357`V'\245"
 374      19993BDE 
 374      C11D2877 
 374      F949EF60 
 374      5627A5
 375 0949 D6C6EFE0 		.ascii	"\326\306\357\340\214\177\014\215\177\034\215?\017\235"
 375      8C7F0C8D 
 375      7F1C8D3F 
 375      0F9D
 376 0957 FD39AC9F 		.ascii	"\3759\254\237\307\372\005\254_\364\030B\353y\277\376"
 376      C7FA05AC 
 376      5FF41842 
 376      EB79BFFE 
 377 0967 3E5E2366 		.ascii	">^#f|\365\235\305+$\262\037\010i\266l\356d\276\3414"
 377      7CF59DC5 
 377      2B24B21F 
 377      0869B66C 
 377      EE64BEE1 
 378 097c B79DBD96 		.ascii	"\267\235\275\226d\271\255\336C\003\362\027\356s\333"
 378      64B9ADDE 
 378      4303F217 
 378      EE73DB
 379 098b 0D1CB2C8 		.ascii	"\015\034\262\310\223\221\333n\352\257\344\351\263^r"
 379      9391DB6E 
 379      EAAFE4E9 
 379      B35E72
 380 099a DBEC59C9 		.ascii	"\333\354Y\311\245/\255K\357\222f\245\366\224\213!\266"
 380      A52FAD4B 
 380      EF9266A5 
 380      F6948B21 
 380      B6
ARM GAS  /tmp/ccrw7w3s.s 			page 30


 381 09ab DB0507C3 		.ascii	"\333\005\007\303\301\367\013\375t>~\224\\\230\026H\""
 381      C1F70BFD 
 381      743E7E94 
 381      5C981648 
 381      22
 382 09bc 4B3C78AE 		.ascii	"K<x\256o4\330\222~&\203\365\232\013\013\323\362\202"
 382      6F34D892 
 382      7E2683F5 
 382      9A0B0BD3 
 382      F282
 383 09ce A57674EA 		.ascii	"\245vt\352\271\220\275\221_f\3063\276\177\267\312_\202"
 383      B990BD91 
 383      5F66C633 
 383      BE7FB7CA 
 383      5F82
 384 09e0 01F06027 		.ascii	"\001\360`'8\267S\273\277\274\345\302\203h\367\225h\367"
 384      38B753BB 
 384      BFBCE5C2 
 384      8368F795 
 384      68F7
 385 09f2 0FFBB9B4 		.ascii	"\017\373\271\264;U\321j\223\315\223W\344Bv\267\367\225"
 385      3B55D16A 
 385      93CD9357 
 385      E44276B7 
 385      F795
 386 0a04 CCF76771 		.ascii	"\314\367gq\007\341fE\332\252\237\367\255\365\320tz\324"
 386      07E16645 
 386      DAAA9FF7 
 386      ADF5D074 
 386      7AD4
 387 0a16 C4721F97 		.ascii	"\304r\037\227\244]\010\263\372\307r\233\325\234\333"
 387      A45D08B3 
 387      FAC7729B 
 387      D59CDB
 388 0a25 AC41B779 		.ascii	"\254A\267y\305\3506\177s\3426\025\026n\223\272\264\333"
 388      C5E8367F 
 388      73E23615 
 388      166E93BA 
 388      B4DB
 389 0a37 C60D9155 		.ascii	"\306\015\221U\270\322\006\016\023V\250\311\313][\267"
 389      B8D2060E 
 389      1356A8C9 
 389      CB5D5BB7 
 390 0a47 5F092C9E 		.ascii	"_\011,\236U\323\252^\246\222;\377<o\223\307\364y\036"
 390      55D3AA5E 
 390      A6923BFF 
 390      3C6F93C7 
 390      F4791E
 391 0a5a FB728BFB 		.ascii	"\373r\213\373>\017\326\365\371F[\374\\X\243\252\365"
 391      3E0FD6F5 
 391      F9465BFC 
 391      5C58A3AA 
 391      F5
 392 0a6b EA52F971 		.ascii	"\352R\371q\375\333\320e\330c\243g\230%\235\324'f\367"
 392      FDDBD065 
 392      D863A367 
 392      98259DD4 
ARM GAS  /tmp/ccrw7w3s.s 			page 31


 392      2766F7
 393 0a7e 086BE9EB 		.ascii	"\010k\351\353\266\027\3249\203\010r%h\243\014J~\315"
 393      B617D439 
 393      83087225 
 393      68A30C4A 
 393      7ECD
 394 0a90 23F237A8 		.ascii	"#\3627\250\200M]\311n\231\311\346\\\264\315\232hii`"
 394      804D5DC9 
 394      6E99C9E6 
 394      5CB4CD9A 
 394      68696960 
 395 0aa4 A96E1245 		.ascii	"\251n\022E\343\011\256\365\252'\305R\263\231\245-\231"
 395      E309AEF5 
 395      AA27C552 
 395      B399A52D 
 395      99
 396 0ab5 2C755D4E 		.ascii	",u]N\336l)\250\253\356\352\351\031\346\234\247mV\352"
 396      DE6C29A8 
 396      ABEEEAE9 
 396      19E69CA7 
 396      6D56EA
 397 0ac8 4EFDD8C6 		.ascii	"N\375\330\306\\<\365{\027S\033\377\351\244A\036\024"
 397      5C3CF57B 
 397      17531BFF 
 397      E9A4411E 
 397      14
 398 0ad9 69BDB575 		.ascii	"i\275\265u\026\351\326\221\310\033\036\232W\267f\267"
 398      16E9D691 
 398      C81B1E9A 
 398      57B766B7 
 399 0ae9 8E36EC10 		.ascii	"\2166\354\020\035\306>\220\333\202\300\366\303\220["
 399      1DC63E90 
 399      DB82C0F6 
 399      C3905B
 400 0af8 362CB960 		.ascii	"6,\271`.]\027\210\372\227\232;z\031\272\213\243\330"
 400      2E5D1788 
 400      FA979A3B 
 400      7A19BA8B 
 400      A3D8
 401 0b0a 4C29E257 		.ascii	"L)\342W\034m$;\237\017\247\235HM\366\324\316j\"\252"
 401      1C6D243B 
 401      9F0FA79D 
 401      484DF6D4 
 401      CE6A22AA 
 402 0b1e 2F65B3AD 		.ascii	"/e\263\255f\233\275ci\263\037\3662\233\255\034\357\334"
 402      669BBD63 
 402      69B31FF6 
 402      329BAD1C 
 402      EFDC
 403 0b30 687F7130 		.ascii	"h\177q0G\222\275\314\021\335\012\273\035\315\021\325"
 403      4792BDCC 
 403      11DD0ABB 
 403      1DCD11D5 
 404 0b40 3447769B 		.ascii	"4Gv\233\205k\261\020\256\256\353\235\367v\335\325\270"
 404      856BB110 
 404      AEAEEB9D 
 404      F776DDD5 
ARM GAS  /tmp/ccrw7w3s.s 			page 32


 404      B8
 405 0b51 599DFDAC 		.ascii	"Y\235\375\254z\263\347i\302f\200(\\\311\360y\206\261"
 405      7AB3E769 
 405      C2668028 
 405      5CC9F079 
 405      86B1
 406 0b63 C70A2379 		.ascii	"\307\012#y\265\345y\225\270u\353}f\015\261\3575\015"
 406      B5E57995 
 406      B875EB7D 
 406      660DB1EF 
 406      350D
 407 0b75 1ABA61C3 		.ascii	"\032\272a\303\306~K6N\246\331`\360\242\360L\2015@\273"
 407      C67E4B36 
 407      4EA6D960 
 407      F0A2F04C 
 407      813540BB 
 408 0b89 11E067C2 		.ascii	"\021\340g\302*\252\213\353\265\207?$\365jS+\365\225"
 408      2AAA8BEB 
 408      B5873F24 
 408      F56A532B 
 408      F595
 409 0b9b 1E32ACD7 		.ascii	"\0362\254\327\217&\365c\354\356v\366\025\343AL\235\213"
 409      8F26F563 
 409      ECEE76F6 
 409      15E3414C 
 409      9D8B
 410 0bad 0ACC7988 		.ascii	"\012\314y\210}<\311\323\347\226\206\007qix\010\227\206"
 410      7D3CC9D3 
 410      E7968607 
 410      71697808 
 410      9786
 411 0bbf FBB15E80 		.ascii	"\373\261^\200\313\301\345X\2570&\213U)lK\206(\366\341"
 411      CBC1E558 
 411      AF30268B 
 411      55296C4B 
 411      8628F6E1 
 412 0bd3 B46CA6D3 		.ascii	"\264l\246\323\370\20369\215\216:\342\311\267\031E=\302"
 412      F8833639 
 412      8D8E3AE2 
 412      C9B71945 
 412      3DC2
 413 0be5 6E54477A 		.ascii	"nTGz\024&\356YY\023\267D\336FY{\317\302V\307}>\035\352"
 413      1426EE59 
 413      5913B744 
 413      DE46597B 
 413      CFC256C7 
 414 0bfd F769CD2F 		.ascii	"\367i\315/=}%\312\226\000\307P\365\307\012,W-\3668\224"
 414      3D7D25CA 
 414      9600C750 
 414      F5C70A2C 
 414      572DF638 
 415 0c12 A94FCCAB 		.ascii	"\251O\314\253\226\206N\374\344\365\023G\253\324E\235"
 415      96864EFC 
 415      E4F51347 
 415      ABD4459D 
 416 0c22 FADEEB28 		.ascii	"\372\336\353(\256B\316\"\013\237\270_>hx\213;qG\302"
 416      AE42CE22 
ARM GAS  /tmp/ccrw7w3s.s 			page 33


 416      0B9FB85F 
 416      3E68788B 
 416      3B7147C2 
 417 0c36 C02EB806 		.ascii	"\300.\270\006+4\2005\362`\237;\001\263\333\025\002\330"
 417      2B348035 
 417      F2609F3B 
 417      01B3DB15 
 417      02D8
 418 0c48 4B3CD855 		.ascii	"K<\330U\327`F\316\226\363`\337:\001\263\333\022\002"
 418      D76046CE 
 418      96F360DF 
 418      3A01B3DB 
 418      1202
 419 0c5a D80A1EAC 		.ascii	"\330\012\036\254\3335\230\221\2637y\260\233N\300\354"
 419      DB359891 
 419      B33779B0 
 419      9B4EC0EC 
 420 0c6a 3E9E01B0 		.ascii	">\236\001\260\315<\330\354\376n\301\214\234\275\305"
 420      CD3CD8EC 
 420      FE6EC18C 
 420      9CBDC5
 421 0c79 83CD7302 		.ascii	"\203\315s\002Vh\317\3316\036l\276k0#g\177\346\301\032"
 421      5668CFD9 
 421      361E6CBE 
 421      6B302367 
 421      7FE6C11A 
 422 0c8d 9C80D99D 		.ascii	"\234\200\331\235\011\002\330\333<\330\022\327`F\316"
 422      0902D8DB 
 422      3CD812D7 
 422      6046CE
 423 0c9c 76F260CB 		.ascii	"v\362`\313\234\200\331m\250fW'\337{\252N\272M\250\323"
 423      9C80D96D 
 423      A8665727 
 423      DF7BAA4E 
 423      BA4DA8D3 
 424 0cb0 420A43B5 		.ascii	"B\012C\265\\|\323\377\030Lw\243\333\020\233n\022\351"
 424      5C7CD3FF 
 424      184C77A3 
 424      DB109B6E 
 424      12E9
 425 0cc2 F6DC862D 		.ascii	"\366\334\206-\303+4\354a\027t\257{\322\337\204\025\370"
 425      C32B34EC 
 425      611774AF 
 425      7BD2DF84 
 425      15F8
 426 0cd4 D38D74E6 		.ascii	"\323\215t\346\344{\321\025\254Yl\313\235\202\335A(("
 426      E47BD115 
 426      AC596CCB 
 426      9D82DD41 
 426      2828
 427 0ce6 B19D57E2 		.ascii	"\261\235W\342\032'J\034o\017v\220\007[\357\004\354q"
 427      1A274A1C 
 427      6F0F7690 
 427      075BEF04 
 427      EC71
 428 0cf8 7B5FF998 		.ascii	"{_\371\230\007{\3255\230\221\263#<X\263\023\260'\355"
 428      077BD535 
ARM GAS  /tmp/ccrw7w3s.s 			page 34


 428      9891B323 
 428      3C58B313 
 428      B027ED
 429 0d0b 393BCA83 		.ascii	"9;\312\203\275\345\032\214\347\254:y<\355x\364\177\012"
 429      BDE51A8C 
 429      E7AC3A79 
 429      3CED78F4 
 429      7F0A
 430 0d1d 0C9E37DE 		.ascii	"\014\2367\336\030m\015\3358\3173u\223\310\263^\267\216"
 430      186D0DDD 
 430      38CF3375 
 430      93C8B35E 
 430      B78E
 431 0d2f 37CF6BED 		.ascii	"7\317k\355x\374wN\351^ \366\333f\261\015Lh\315)\026"
 431      78FC774E 
 431      E95E20F6 
 431      DB66B10D 
 431      4C68CD29 
 432 0d44 3AB4BAF8 		.ascii	":\264\272\370D-\221\023\270\225>\211k\244.\254Oa}\006"
 432      442D9113 
 432      B8953E89 
 432      6BA42EAC 
 432      4F617D06 
 433 0d58 EB73589F 		.ascii	"\353sX\237\307\372\"\326\237a\375\005\326\227\261\276"
 433      C7FA22D6 
 433      9F61FD05 
 433      D697B1BE 
 434 0d68 8AF5D758 		.ascii	"\212\365\327X_\303\372;\254o`\335\203u\265\027\317\250"
 434      5FC3FA3B 
 434      AC6F60DD 
 434      8375B517 
 434      CFA8
 435 0d7a B19E83F5 		.ascii	"\261\236\203\365\\/\267\0363\255\224\216eY_=\357\265"
 435      5C2FB71E 
 435      33AD948E 
 435      65595F3D 
 435      EFB5
 436 0d8c 5B5FEDCB 		.ascii	"[_\355\313\262\276z!=J\333\264\367\\j\373\347W\351\267"
 436      B2BE7A21 
 436      3D4ADBB4 
 436      F75C6AFB 
 436      E757E9B7 
 437 0da0 E674BD5E 		.ascii	"\346t\275^=\233\244V\354\375\235\354R_\364\2326\005"
 437      3D9BA456 
 437      ECFD9DEC 
 437      525FF49A 
 437      3605
 438 0db2 F3BD192B 		.ascii	"\363\275\031+i \262\362\352\247\377\276\203#bZ\325o"
 438      6920B2F2 
 438      EAA7FFBE 
 438      8323625A 
 438      D56F
 439 0dc4 23F63E52 		.ascii	"#\366>R\357\315\334A\257\037`\311[\215\272y\275\352"
 439      EFCDDC41 
 439      AF1F60C9 
 439      5B8DBA79 
 439      BDEA
ARM GAS  /tmp/ccrw7w3s.s 			page 35


 440 0dd6 D7B7B0B0 		.ascii	"\327\267\260\260\354\365Z\357s4\274\006KVo^j\373)}\225"
 440      ECF55AEF 
 440      7334BC06 
 440      4B566F5E 
 440      6AFB297D 
 441 0deb A9F6F43C 		.ascii	"\251\366\364<}7#/\012\3578#\270(;\301\305\226\004\337"
 441      7D37232F 
 441      0AEF3823 
 441      B8283BC1 
 441      C59604DF 
 442 0dff BB76ECDE 		.ascii	"\273v\354\336\014\202s\006:\"\330\230\235\340RK\202"
 442      0C827306 
 442      3A22D898 
 442      9DE0524B 
 442      82
 443 0e10 3D972EDC 		.ascii	"=\227.\334e\2648\333\3334\232hj\333\307\216\364n\374"
 443      65B438DB 
 443      DB349A68 
 443      6ADBC78E 
 443      F46EFC
 444 0e23 35ECB1CC 		.ascii	"5\354\261\314\206h\352\354@s\224c\352\223CR\216\262"
 444      8668EAEC 
 444      40739463 
 444      EA934352 
 444      8EB2
 445 0e35 CCEC28CB 		.ascii	"\314\354(\313\275\031;\246\366\366\256\255\333\333\306"
 445      BD193BA6 
 445      F6F6AEAD 
 445      DBDBC6
 446 0e44 35A8358D 		.ascii	"5\2505\215\352l\3340\351I\257\321xL[\246\223\355\217"
 446      EA6CDC30 
 446      E949AFD1 
 446      784C5BA6 
 446      93ED8F
 447 0e57 63F95E8D 		.ascii	"c\371^\215\266\275$\262\332u\200Zc\023\240\012\014\242"
 447      B6BD24B2 
 447      DA75805A 
 447      6313A00A 
 447      0CA2
 448 0e69 AC4907A8 		.ascii	"\254I\007\250\315\250!n\203mb\002\\i \321\206\365#\234"
 448      CDA8216E 
 448      836D6202 
 448      5C6920D1 
 448      86F5239C 
 449 0e7d 49BE1F62 		.ascii	"I\276\037be\2226k\223t\352&\201\355\234\027\377\035"
 449      6592366B 
 449      9374EA26 
 449      81ED9C17 
 449      FF1D
 450 0e8f B12F2659 		.ascii	"\261/&Yg6\311\237lLrah\357&\231\242\223\315\317f\022"
 450      6736C99F 
 450      6C4C7261 
 450      68EF2699 
 450      A293CDCF 
 451 0ea5 532F89BC 		.ascii	"S/\211\274\352\332$\257\331\230\244\237A\024\275\027"
 451      EADA24AF 
 451      D998A49F 
ARM GAS  /tmp/ccrw7w3s.s 			page 36


 451      4114BD17 
 452 0eb5 345FF19A 		.ascii	"4_\361\232NtLL\210B\227\301$\246h\272)K4}#\035M\205"
 452      4E744C4C 
 452      884297C1 
 452      24A668BA 
 452      294B347D 
 453 0ecd 7B468C08 		.ascii	"{F\214\010\024\225\205\247\206\177;)\020K\004\342J "
 453      149585A7 
 453      867F3B29 
 453      104B04E2 
 453      4A20
 454 0edf 1C0D9557 		.ascii	"\034\015\225W\226\310\201PYbfB\231Y!'F\224\011wT\205"
 454      96C88150 
 454      59626642 
 454      99592127 
 454      46940977 
 455 0ef5 E34AA554 		.ascii	"\343J\245T\036T\302\0219\236\010\226\207\023JP\361="
 455      1E54C211 
 455      399E0896 
 455      87134A50 
 455      F13D
 456 0f07 F69BDF15 		.ascii	"\366\233\337\025\026\011w\206\312\202\026\317\177\226"
 456      16097786 
 456      CA8216CF 
 456      7F96
 457 0f15 0D3A5456 		.ascii	"\015:TV\002\260\003\015\303\202\312 3\2227*\317P\274"
 457      02B0030D 
 457      C382CA20 
 457      3392372A 
 457      CF50BC
 458 0f28 1571B9CA 		.ascii	"\025q\271\312O\271\201[A%\021\210N\303r\177\240,\026"
 458      4FB9815B 
 458      41251188 
 458      4EC3727F 
 458      A02C16
 459 0f3b 91037139 		.ascii	"\221\003q9!K\361PY\240L\212\227L\227\342r@\212GF\007"
 459      214BF150 
 459      59A04C8A 
 459      974C97E2 
 459      72408A47 
 460 0f51 4A43A1E1 		.ascii	"JC\241\341\320\030.G\246\312%%rI\352F4\026\225\207\313"
 460      D0182E47 
 460      A6CA2525 
 460      7249EA46 
 460      34169587 
 461 0f66 D2D4F0F0 		.ascii	"\322\324\360\360\261\301q\303G\217\0345\366\217\243"
 461      B1C171C3 
 461      478F1C35 
 461      F68FA3
 462 0f75 03860729 		.ascii	"\003\206\007)F\023JI8\252\000\243y\225\360w\314\350"
 462      46134A49 
 462      38AA00A3 
 462      7995F077 
 462      CCE8
 463 0f87 A0328BFC 		.ascii	"\2402\213\374\343\250G\244PY8*\007\202%\3624\251\262"
 463      E3A847A4 
 463      5059382A 
ARM GAS  /tmp/ccrw7w3s.s 			page 37


 463      078225F2 
 463      34A9B2
 464 0f9a 1C14AE59 		.ascii	"\034\024\256Y\243_"
 464      A35F
 465 0fa0 30A8F393 		.ascii	"0\250\363\223S\"\227+R^\2252\2552\032\012*^\372\307"
 465      5322972B 
 465      525E9532 
 465      AD321A0A 
 465      2A5EFAC7 
 466 0fb4 5321C5F3 		.ascii	"S!\305\363\312\245\204B\365\345\253R\2501\374\240Y\252"
 466      CAA58442 
 466      F5E5AB52 
 466      A831FCA0 
 466      59AA
 467 0fc6 41395210 		.ascii	"A9R\020\227\245\222\231\232\005\373\303\355\364\357"
 467      97A59299 
 467      9A05FBC3 
 467      EDF4EF
 468 0fd5 814A19FD 		.ascii	"\201J\031\375\221\010\376\261R\256\224\2319\014\267"
 468      9108FEB1 
 468      52AE9499 
 468      390CB7
 469 0fe4 F2D8AF20 		.ascii	"\362\330\257 \302\261v\016>\3707\243\255C\261H$\026"
 469      C2B1760E 
 469      3EF837A3 
 469      AD43B148 
 469      2416
 470 0ff6 0D54C4E2 		.ascii	"\015T\304\342`\255G\212'\026"
 470      60AD478A 
 470      2716
 471 1000 4D9C41EF 		.ascii	"M\234A\357U\204\313\3019\002\217\025\025\201\013\350"
 471      5584CBC1 
 471      39028F15 
 471      15810BE8 
 472 1010 C2E42A15 		.ascii	"\302\344*\025\361p,H\255\034\216\025\320!\301P,\252"
 472      F1702C48 
 472      AD1C8E15 
 472      D021C150 
 472      2CAA
 473 1022 80DD7FE9 		.ascii	"\200\335\177\351\000\264,\024\213\313\200\222\217\003"
 473      00B42C14 
 473      8BCB8092 
 473      8F03
 474 1030 41292165 		.ascii	"A)!eF\300\351\270`\325\203\021j\334\270\\\012\026\010"
 474      46C0E9B8 
 474      60D58311 
 474      6ADCB85C 
 474      0A1608
 475 1043 2A627CAC 		.ascii	"*b|\254\030\277_\214? \306\037\024\343\343\304\370C"
 475      18BF5F8C 
 475      3F20C61F 
 475      14E3E3C4 
 475      F843
 476 1055 9EF8A891 		.ascii	"\236\370\250\221PF\211\345q1Q\341\001\360\234\250<]"
 476      504689E5 
 476      713151E1 
 476      01F09CA8 
ARM GAS  /tmp/ccrw7w3s.s 			page 38


 476      3C5D
 477 1067 8EE7C4CA 		.ascii	"\216\347\304\312K\300;C`toT\212\310\375\022\312\037"
 477      4BC03B43 
 477      60746F54 
 477      8AC8FD12 
 477      CA1F
 478 1079 A4F27069 		.ascii	"\244\362pi4\250\240\253<06\250hV\242M\337ti\252\224"
 478      34A8A0AB 
 478      3C3036A8 
 478      6856A24D 
 478      DF7469AA 
 479 108e 00F52514 		.ascii	"\000\365%\024I\001\305\346\322\007\343@\215\254\013"
 479      4901C5E6 
 479      D207E340 
 479      8DAC0B
 480 109d B472F049 		.ascii	"\264r\360I\256\022\211\225\300\363\234i\345Ri\"W\211"
 480      AE128995 
 480      C0F39C69 
 480      E5526922 
 480      5789
 481 10af CBD312A0 		.ascii	"\313\323\022\240\031\372''\222(\205\201\232\331a\240"
 481      19FA2727 
 481      92288581 
 481      9AD961A0 
 482 10bf D6F2C54B 		.ascii	"\326\362\305Kf\302\243<yFX\011\301`\337t%6\365\177*"
 482      66C2A33C 
 482      79465809 
 482      C160DF74 
 482      2536F57F 
 483 10d4 066B9682 		.ascii	"\006k\226\202\241r\\\216\206(\350tE\211W\344&\344\250"
 483      A1725C8E 
 483      8628E874 
 483      458957E4 
 483      26E4A8
 484 10e7 02030AA8 		.ascii	"\002\003\012\250C\310\021\251\242\014\024qw\266\251"
 484      43C811A9 
 484      A20C1471 
 484      77B6A9
 485 10f6 2A531DE5 		.ascii	"*S\035\345\204\242\340.\036\250\201\000\334\252\310"
 485      84A2E02E 
 485      1EA88100 
 485      DCAAC8
 486 1105 83F1914A 		.ascii	"\203\361\221J0S\266\261\021e\006\035\033\233\036\225"
 486      3053B6B1 
 486      1165061D 
 486      1B9B1E95 
 487 1115 E3B9D89B 		.ascii	"\343\271\330\233\352B\201\333\025\371r\025eDJ\374\001"
 487      EA4281DB 
 487      15F97215 
 487      65444AFC 
 487      01
 488 1126 6EC9D369 		.ascii	"n\311\323i\203T\016\320\275\215y\347@\316\377\350\235"
 488      83540ED0 
 488      BD8D79E7 
 488      40CEFFE8 
 488      9D
 489 1137 DCE95258 		.ascii	"\334\351RX\011GK\363\200\177\346\217r\205\034\205)Z"
ARM GAS  /tmp/ccrw7w3s.s 			page 39


 489      09474BF3 
 489      807FE68F 
 489      72851C85 
 489      295A
 490 1149 9A0B90B4 		.ascii	"\232\013\220\264\007\230R*\247\216\224\023\251\210\305"
 490      0798522A 
 490      A78E9413 
 490      A988C5
 491 1158 CA734395 		.ascii	"\312sC\225q\220^\311\211\323\207\003\330\004\200\351"
 491      71905EC9 
 491      89D38703 
 491      D80480E9 
 492 1168 34B5B294 		.ascii	"4\265\262\224\241\363w\374\025R4\034\012\002\266\247"
 492      A1F377FC 
 492      1552341C 
 492      0A02B6A7 
 493 1178 646A69BF 		.ascii	"dji\277\210\004\032F\342\205Y$T\250r\006)\221`\010\314"
 493      88041A46 
 493      E2855924 
 493      54A87206 
 493      29916008 
 494 118d 3F352E29 		.ascii	"?5.)\341\030\370@n\\A}\371b\323\246%dET\"C30\022\361"
 494      E118F840 
 494      6E5C417D 
 494      F962D3A6 
 494      25644554 
 495 11a7 108CAF52 		.ascii	"\020\214\257RF\204\204\333Ce\3775yB\254\030B\211\362"
 495      468484DB 
 495      4365FF35 
 495      7942AC18 
 495      4289F2
 496 11ba C40898BD 		.ascii	"\304\010\230\275\312\210\221\236*\245\"/XE}:\254\364"
 496      CA88919E 
 496      2AA5222F 
 496      58457D3A 
 496      ACF4
 497 11cc 631D26C1 		.ascii	"c\035&\301c:\341\245\231>6\341\013\370\201\377b$Q&\225"
 497      633AE1A5 
 497      993E36E1 
 497      0BF881FF 
 497      62245126 
 498 11e1 A7F88476 		.ascii	"\247\370\204v0A\343X~B\231\244\304*\036)\007\177\007"
 498      3041E358 
 498      7E4299A4 
 498      C42A1E29 
 498      077F07
 499 11f4 9F05406C 		.ascii	"\237\005@l\026\320\333@\026\177\344\247\365\242\210"
 499      16D0DB40 
 499      167FE4A7 
 499      F5A288
 500 1203 A1B2B199 		.ascii	"\241\262\261\231\260l*M\232<q\314\350\300\257\177=!"
 500      B06C2A4D 
 500      9A3C71CC 
 500      E8C0AF7F 
 500      3D21
 501 1215 30F98989 		.ascii	"0\371\211\211U\243 XF\250C\206#\214\216\366\003\234"
 501      55A32058 
ARM GAS  /tmp/ccrw7w3s.s 			page 40


 501      46A84386 
 501      238C8EF6 
 501      039C
 502 1227 A6A87814 		.ascii	"\246\250x\024\224\321\336I\023\213\212\275\023\236x"
 502      94D1DE49 
 502      138B8ABD 
 502      139E78
 503 1236 B4589C54 		.ascii	"\264X\234T\354y\364\261\342\234\242\242\211\305\243"
 503      EC79F4B1 
 503      E29CA2A2 
 503      89C5A3
 504 1245 B01EED2D 		.ascii	"\260\036\355-*z\264\330S\364\233\311\236''\025y\036"
 504      2A7AB4D8 
 504      53F49BC9 
 504      9E272715 
 504      791E
 505 1257 292EF614 		.ascii	").\366\024\027\301o\030\360\037\023&\027{&\320\221\023"
 505      17C16F18 
 505      F01F1326 
 505      177B26D0 
 505      9113
 506 1269 1F29167F 		.ascii	"\037)\026\177\313F\215\201\376S\212G9\236\350\230Lh"
 506      CB468D81 
 506      FE538A47 
 506      399EE898 
 506      4C68
 507 127b 1EC330C1 		.ascii	"\036\3030\301\262M\002\024\021\224\250\304\331\014\\"
 507      B24D0214 
 507      1194A8C4 
 507      D90C5C
 508 128a 45D53698 		.ascii	"E\3256\230\352\3711Y\231\204j\231\014\303\247\334\316"
 508      EAF93159 
 508      99846A99 
 508      0CC3A7DC 
 508      CE
 509 129b 2195CAAC 		.ascii	"!\225\312\254u\277SU1{\004\313\313i\022\034\314Z\210"
 509      75BF5355 
 509      317B04CB 
 509      CB69121C 
 509      CC5A88
 510 12ae 128A5542 		.ascii	"\022\212UB\350\213\377\204g\023n#\227^\372;/\030\304"
 510      E88BFF84 
 510      67136E23 
 510      975EFA3B 
 510      2F18C4
 511 12c1 481FECAF 		.ascii	"H\037\354\2577F<0\346\241Qw\032\344\002K\262!|\247q"
 511      37463C30 
 511      E6A15177 
 511      1AE4024B 
 511      B2217CA7 
 512 12d6 63FE1FD1 		.ascii	"c\376\037\321\036\350\341"
 512      1EE8E1
 513              		.text
 514              		.section	.gnu.lto_.symtab.4eae468d83fbeabb,"",%progbits
 515 0000 5F76745F 		.ascii	"_vt_init\000\000\000\000\000\000\000\000\000\000\000"
 515      696E6974 
 515      00000000 
ARM GAS  /tmp/ccrw7w3s.s 			page 41


 515      00000000 
 515      000000
 516 0013 00B10100 		.ascii	"\000\261\001\000\000chVTDoSetI\000\000\000\000\000\000"
 516      00636856 
 516      54446F53 
 516      65744900 
 516      00000000 
 517 0028 00000000 		.ascii	"\000\000\000\000\000\000\265\001\000\000chVTDoReset"
 517      0000B501 
 517      00006368 
 517      5654446F 
 517      52657365 
 518 003d 49000000 		.ascii	"I\000\000\000\000\000\000\000\000\000\000\000\000\303"
 518      00000000 
 518      00000000 
 518      00C3
 519 004b 01000063 		.ascii	"\001\000\000ch\000\000\002\000\000\000\000\000\000\000"
 519      68000002 
 519      00000000 
 519      000000
 520 005a 0000D101 		.ascii	"\000\000\321\001\000\000stStopAlarm\000\000\002\000"
 520      00007374 
 520      53746F70 
 520      416C6172 
 520      6D000002 
 521 006f 00000000 		.ascii	"\000\000\000\000\000\000\000\000\311\001\000\000stS"
 521      00000000 
 521      C9010000 
 521      737453
 522 007e 6574416C 		.ascii	"etAlarm\000\000\002\000\000\000\000\000\000\000\000"
 522      61726D00 
 522      00020000 
 522      00000000 
 522      0000
 523 0090 00CB0100 		.ascii	"\000\313\001\000\000stStartAlarm\000\000\002\000\000"
 523      00737453 
 523      74617274 
 523      416C6172 
 523      6D000002 
 524 00a6 00000000 		.ascii	"\000\000\000\000\000\000\000\317\001\000\000"
 524      000000CF 
 524      010000
 525              		.text
 526              		.section	.gnu.lto_.opts,"",%progbits
 527 0000 272D6D63 		.ascii	"'-mcpu=cortex-m4' '-mno-thumb-interwork' '-mthumb' "
 527      70753D63 
 527      6F727465 
 527      782D6D34 
 527      2720272D 
 528 0033 272D6767 		.ascii	"'-ggdb' '-O2' '-fomit-frame-pointer' '-falign-funct"
 528      64622720 
 528      272D4F32 
 528      2720272D 
 528      666F6D69 
 529 0066 696F6E73 		.ascii	"ions=16' '-ffunction-sections' '-fdata-sections' '-"
 529      3D313627 
 529      20272D66 
ARM GAS  /tmp/ccrw7w3s.s 			page 42


 529      66756E63 
 529      74696F6E 
 530 0099 666E6F2D 		.ascii	"fno-common' '-flto'\000"
 530      636F6D6D 
 530      6F6E2720 
 530      272D666C 
 530      746F2700 
 531              		.text
 532              		.cfi_sections	.debug_frame
 533              		.section	.text._vt_init,"ax",%progbits
 534              		.align	2
 535              		.p2align 4,,15
 536              		.global	_vt_init
 537              		.thumb
 538              		.thumb_func
 539              		.type	_vt_init, %function
 540              	_vt_init:
 541              	.LFB239:
 542              		.file 1 "../ChibiOS/os/rt/src/chvt.c"
 543              		.loc 1 61 0
 544              		.cfi_startproc
 545              		@ args = 0, pretend = 0, frame = 0
 546              		@ frame_needed = 0, uses_anonymous_args = 0
 547              		@ link register save eliminated.
 548              		.loc 1 63 0
 549 0000 054B     		ldr	r3, .L2
 550              		.loc 1 65 0
 551 0002 4FF0FF30 		mov	r0, #-1
 552              		.loc 1 63 0
 553 0006 03F11C02 		add	r2, r3, #28
 554              		.loc 1 69 0
 555 000a 0021     		movs	r1, #0
 556              		.loc 1 65 0
 557 000c 5862     		str	r0, [r3, #36]
 558              		.loc 1 69 0
 559 000e 9962     		str	r1, [r3, #40]
 560              		.loc 1 63 0
 561 0010 DA61     		str	r2, [r3, #28]
 562              		.loc 1 64 0
 563 0012 1A62     		str	r2, [r3, #32]
 564 0014 7047     		bx	lr
 565              	.L3:
 566 0016 00BF     		.align	2
 567              	.L2:
 568 0018 00000000 		.word	ch
 569              		.cfi_endproc
 570              	.LFE239:
 571              		.size	_vt_init, .-_vt_init
 572 001c AFF30080 		.section	.text.chVTDoSetI,"ax",%progbits
 573              		.align	2
 574              		.p2align 4,,15
 575              		.global	chVTDoSetI
 576              		.thumb
 577              		.thumb_func
 578              		.type	chVTDoSetI, %function
 579              	chVTDoSetI:
 580              	.LFB240:
ARM GAS  /tmp/ccrw7w3s.s 			page 43


 581              		.loc 1 96 0
 582              		.cfi_startproc
 583              		@ args = 0, pretend = 0, frame = 0
 584              		@ frame_needed = 0, uses_anonymous_args = 0
 585              	.LVL0:
 586 0000 F8B5     		push	{r3, r4, r5, r6, r7, lr}
 587              		.cfi_def_cfa_offset 24
 588              		.cfi_offset 3, -24
 589              		.cfi_offset 4, -20
 590              		.cfi_offset 5, -16
 591              		.cfi_offset 6, -12
 592              		.cfi_offset 7, -8
 593              		.cfi_offset 14, -4
 594              	.LBB35:
 595              		.loc 1 117 0
 596 0002 1F4F     		ldr	r7, .L19
 597 0004 BC46     		mov	ip, r7
 598              		.loc 1 113 0
 599 0006 0129     		cmp	r1, #1
 600 0008 98BF     		it	ls
 601 000a 0221     		movls	r1, #2
 602              	.LVL1:
 603              		.loc 1 117 0
 604 000c 5CF81C4F 		ldr	r4, [ip, #28]!
 605              	.LBE35:
 606              		.loc 1 103 0
 607 0010 0361     		str	r3, [r0, #16]
 608              	.LBB50:
 609              	.LBB36:
 610              	.LBB37:
 611              	.LBB38:
 612              	.LBB39:
 613              		.file 2 "../ChibiOS/os/hal/ports/STM32/LLD/TIMv1/hal_st_lld.h"
 614              		.loc 2 141 0
 615 0012 4FF08043 		mov	r3, #1073741824
 616              	.LVL2:
 617              	.LBE39:
 618              	.LBE38:
 619              	.LBE37:
 620              	.LBE36:
 621              		.loc 1 117 0
 622 0016 6445     		cmp	r4, ip
 623              	.LBE50:
 624              		.loc 1 96 0
 625 0018 0646     		mov	r6, r0
 626              		.loc 1 104 0
 627 001a C260     		str	r2, [r0, #12]
 628              	.LBB51:
 629              	.LBB43:
 630              	.LBB42:
 631              	.LBB41:
 632              	.LBB40:
 633              		.loc 2 141 0
 634 001c 5D6A     		ldr	r5, [r3, #36]
 635              	.LVL3:
 636              	.LBE40:
 637              	.LBE41:
ARM GAS  /tmp/ccrw7w3s.s 			page 44


 638              	.LBE42:
 639              	.LBE43:
 640              		.loc 1 117 0
 641 001e 23D0     		beq	.L15
 642              	.LVL4:
 643              		.loc 1 139 0
 644 0020 B86A     		ldr	r0, [r7, #40]
 645              	.LVL5:
 646 0022 2D1A     		subs	r5, r5, r0
 647              	.LVL6:
 648              		.loc 1 141 0
 649 0024 4D19     		adds	r5, r1, r5
 650              	.LVL7:
 651 0026 15D2     		bcs	.L16
 652              		.loc 1 148 0
 653 0028 A368     		ldr	r3, [r4, #8]
 654 002a 9D42     		cmp	r5, r3
 655 002c 03D2     		bcs	.L13
 656 002e 16E0     		b	.L18
 657              	.LVL8:
 658              	.L11:
 659              	.LBE51:
 660              		.loc 1 166 0
 661 0030 2468     		ldr	r4, [r4]
 662              	.LVL9:
 663              		.loc 1 165 0
 664 0032 ED1A     		subs	r5, r5, r3
 665              	.LVL10:
 666              		.loc 1 164 0
 667 0034 A368     		ldr	r3, [r4, #8]
 668              	.L13:
 669 0036 AB42     		cmp	r3, r5
 670 0038 FAD3     		bcc	.L11
 671              		.loc 1 171 0
 672 003a 6368     		ldr	r3, [r4, #4]
 673 003c 7360     		str	r3, [r6, #4]
 674              		.loc 1 170 0
 675 003e 3460     		str	r4, [r6]
 676              		.loc 1 172 0
 677 0040 1E60     		str	r6, [r3]
 678              		.loc 1 173 0
 679 0042 6660     		str	r6, [r4, #4]
 680              		.loc 1 174 0
 681 0044 B560     		str	r5, [r6, #8]
 682              		.loc 1 178 0
 683 0046 A368     		ldr	r3, [r4, #8]
 684              		.loc 1 179 0
 685 0048 4FF0FF32 		mov	r2, #-1
 686              		.loc 1 178 0
 687 004c 5D1B     		subs	r5, r3, r5
 688              	.LVL11:
 689 004e A560     		str	r5, [r4, #8]
 690              	.LVL12:
 691              		.loc 1 179 0
 692 0050 7A62     		str	r2, [r7, #36]
 693 0052 F8BD     		pop	{r3, r4, r5, r6, r7, pc}
 694              	.LVL13:
ARM GAS  /tmp/ccrw7w3s.s 			page 45


 695              	.L16:
 696              	.LBB52:
 697              		.loc 1 145 0
 698 0054 A268     		ldr	r2, [r4, #8]
 699              	.LVL14:
 700              		.loc 1 146 0
 701 0056 2468     		ldr	r4, [r4]
 702              	.LVL15:
 703              		.loc 1 145 0
 704 0058 AD1A     		subs	r5, r5, r2
 705              	.LVL16:
 706 005a A368     		ldr	r3, [r4, #8]
 707 005c EBE7     		b	.L13
 708              	.LVL17:
 709              	.L18:
 710              	.LBB44:
 711              	.LBB45:
 712              		.file 3 "../ChibiOS/os/common/ports/ARMCMx/chcore_timer.h"
 713              		.loc 3 95 0
 714 005e 2844     		add	r0, r0, r5
 715              	.LVL18:
 716 0060 FFF7FEFF 		bl	stSetAlarm
 717              	.LVL19:
 718 0064 A368     		ldr	r3, [r4, #8]
 719 0066 E6E7     		b	.L13
 720              	.LVL20:
 721              	.L15:
 722              	.LBE45:
 723              	.LBE44:
 724              		.loc 1 122 0
 725 0068 F861     		str	r0, [r7, #28]
 726              		.loc 1 123 0
 727 006a 3862     		str	r0, [r7, #32]
 728              		.loc 1 121 0
 729 006c BD62     		str	r5, [r7, #40]
 730              	.LBB46:
 731              	.LBB47:
 732              		.loc 3 73 0
 733 006e 4819     		adds	r0, r1, r5
 734              	.LVL21:
 735              	.LBE47:
 736              	.LBE46:
 737              		.loc 1 124 0
 738 0070 3460     		str	r4, [r6]
 739              		.loc 1 125 0
 740 0072 7460     		str	r4, [r6, #4]
 741              		.loc 1 126 0
 742 0074 B160     		str	r1, [r6, #8]
 743              	.LVL22:
 744              	.LBE52:
 745              		.loc 1 180 0
 746 0076 BDE8F840 		pop	{r3, r4, r5, r6, r7, lr}
 747              	.LVL23:
 748              	.LBB53:
 749              	.LBB49:
 750              	.LBB48:
 751              		.loc 3 73 0
ARM GAS  /tmp/ccrw7w3s.s 			page 46


 752 007a FFF7FEBF 		b	stStartAlarm
 753              	.LVL24:
 754              	.L20:
 755 007e 00BF     		.align	2
 756              	.L19:
 757 0080 00000000 		.word	ch
 758              	.LBE48:
 759              	.LBE49:
 760              	.LBE53:
 761              		.cfi_endproc
 762              	.LFE240:
 763              		.size	chVTDoSetI, .-chVTDoSetI
 764 0084 AFF30080 		.section	.text.chVTDoResetI,"ax",%progbits
 764      AFF30080 
 764      AFF30080 
 765              		.align	2
 766              		.p2align 4,,15
 767              		.global	chVTDoResetI
 768              		.thumb
 769              		.thumb_func
 770              		.type	chVTDoResetI, %function
 771              	chVTDoResetI:
 772              	.LFB241:
 773              		.loc 1 190 0
 774              		.cfi_startproc
 775              		@ args = 0, pretend = 0, frame = 0
 776              		@ frame_needed = 0, uses_anonymous_args = 0
 777              		@ link register save eliminated.
 778              	.LVL25:
 779              		.loc 1 214 0
 780 0000 1B4A     		ldr	r2, .L30
 781 0002 D369     		ldr	r3, [r2, #28]
 782 0004 8342     		cmp	r3, r0
 783              		.loc 1 190 0
 784 0006 10B4     		push	{r4}
 785              		.cfi_def_cfa_offset 4
 786              		.cfi_offset 4, -4
 787              		.loc 1 214 0
 788 0008 10D0     		beq	.L22
 789              		.loc 1 216 0
 790 000a 4168     		ldr	r1, [r0, #4]
 791 000c 0368     		ldr	r3, [r0]
 792 000e 0B60     		str	r3, [r1]
 793              		.loc 1 217 0
 794 0010 0368     		ldr	r3, [r0]
 795              		.loc 1 221 0
 796 0012 1C32     		adds	r2, r2, #28
 797              		.loc 1 218 0
 798 0014 0024     		movs	r4, #0
 799              		.loc 1 221 0
 800 0016 9342     		cmp	r3, r2
 801              		.loc 1 217 0
 802 0018 5960     		str	r1, [r3, #4]
 803              		.loc 1 218 0
 804 001a C460     		str	r4, [r0, #12]
 805              		.loc 1 221 0
 806 001c 03D0     		beq	.L21
ARM GAS  /tmp/ccrw7w3s.s 			page 47


 807              		.loc 1 222 0
 808 001e 8168     		ldr	r1, [r0, #8]
 809 0020 9A68     		ldr	r2, [r3, #8]
 810 0022 0A44     		add	r2, r2, r1
 811 0024 9A60     		str	r2, [r3, #8]
 812              	.LVL26:
 813              	.L21:
 814              		.loc 1 268 0
 815 0026 5DF8044B 		ldr	r4, [sp], #4
 816 002a 7047     		bx	lr
 817              	.LVL27:
 818              	.L22:
 819              	.LBB64:
 820              	.LBB65:
 821              		.loc 1 228 0
 822 002c 1046     		mov	r0, r2
 823              	.LVL28:
 824 002e 1968     		ldr	r1, [r3]
 825 0030 40F81C1F 		str	r1, [r0, #28]!
 826              		.loc 1 230 0
 827 0034 0024     		movs	r4, #0
 828              		.loc 1 233 0
 829 0036 8142     		cmp	r1, r0
 830              		.loc 1 229 0
 831 0038 4860     		str	r0, [r1, #4]
 832              		.loc 1 230 0
 833 003a DC60     		str	r4, [r3, #12]
 834              		.loc 1 233 0
 835 003c 13D0     		beq	.L29
 836              		.loc 1 240 0
 837 003e 8868     		ldr	r0, [r1, #8]
 838 0040 9B68     		ldr	r3, [r3, #8]
 839              	.LVL29:
 840              		.loc 1 249 0
 841 0042 926A     		ldr	r2, [r2, #40]
 842              		.loc 1 240 0
 843 0044 0344     		add	r3, r3, r0
 844              	.LBB66:
 845              	.LBB67:
 846              	.LBB68:
 847              	.LBB69:
 848              		.loc 2 141 0
 849 0046 4FF08040 		mov	r0, #1073741824
 850              	.LBE69:
 851              	.LBE68:
 852              	.LBE67:
 853              	.LBE66:
 854              		.loc 1 240 0
 855 004a 8B60     		str	r3, [r1, #8]
 856              	.LBB73:
 857              	.LBB72:
 858              	.LBB71:
 859              	.LBB70:
 860              		.loc 2 141 0
 861 004c 406A     		ldr	r0, [r0, #36]
 862              	.LBE70:
 863              	.LBE71:
ARM GAS  /tmp/ccrw7w3s.s 			page 48


 864              	.LBE72:
 865              	.LBE73:
 866              		.loc 1 249 0
 867 004e 821A     		subs	r2, r0, r2
 868              	.LVL30:
 869              		.loc 1 253 0
 870 0050 9342     		cmp	r3, r2
 871 0052 E8D9     		bls	.L21
 872              		.loc 1 258 0
 873 0054 9B1A     		subs	r3, r3, r2
 874              	.LVL31:
 875              		.loc 1 262 0
 876 0056 012B     		cmp	r3, #1
 877              		.loc 1 263 0
 878 0058 98BF     		it	ls
 879 005a 0223     		movls	r3, #2
 880              	.LVL32:
 881              	.LBB74:
 882              	.LBB75:
 883              		.loc 3 95 0
 884 005c 1844     		add	r0, r0, r3
 885              	.LVL33:
 886              	.LBE75:
 887              	.LBE74:
 888              	.LBE65:
 889              	.LBE64:
 890              		.loc 1 268 0
 891 005e 5DF8044B 		ldr	r4, [sp], #4
 892              	.LBB82:
 893              	.LBB80:
 894              	.LBB77:
 895              	.LBB76:
 896              		.loc 3 95 0
 897 0062 FFF7FEBF 		b	stSetAlarm
 898              	.LVL34:
 899              	.L29:
 900              	.LBE76:
 901              	.LBE77:
 902              	.LBE80:
 903              	.LBE82:
 904              		.loc 1 268 0
 905 0066 5DF8044B 		ldr	r4, [sp], #4
 906              	.LBB83:
 907              	.LBB81:
 908              	.LBB78:
 909              	.LBB79:
 910              		.loc 3 83 0
 911 006a FFF7FEBF 		b	stStopAlarm
 912              	.LVL35:
 913              	.L31:
 914 006e 00BF     		.align	2
 915              	.L30:
 916 0070 00000000 		.word	ch
 917              	.LBE79:
 918              	.LBE78:
 919              	.LBE81:
 920              	.LBE83:
ARM GAS  /tmp/ccrw7w3s.s 			page 49


 921              		.cfi_endproc
 922              	.LFE241:
 923              		.size	chVTDoResetI, .-chVTDoResetI
 924 0074 AFF30080 		.text
 924      AFF30080 
 924      AFF30080 
 925              	.Letext0:
 926              		.file 4 "/nfs/nfs5/home/research/hardware/arm2/gcc-arm-embedded/gcc-arm-none-eabi-4_8-2014q2/arm-n
 927              		.file 5 "/nfs/nfs5/home/research/hardware/arm2/gcc-arm-embedded/gcc-arm-none-eabi-4_8-2014q2/arm-n
 928              		.file 6 "../ChibiOS/os/common/ports/ARMCMx/compilers/GCC/chtypes.h"
 929              		.file 7 "../ChibiOS/os/rt/include/chsystypes.h"
 930              		.file 8 "../ChibiOS/os/rt/include/chschd.h"
 931              		.file 9 "../ChibiOS/os/common/ports/ARMCMx/chcore.h"
 932              		.file 10 "../ChibiOS/os/common/ports/ARMCMx/chcore_v7m.h"
 933              		.file 11 "../ChibiOS/os/hal/ports/STM32/LLD/TIMv1/stm32_tim.h"
 934              		.file 12 "../ChibiOS/os/rt/include/chtm.h"
 935              		.file 13 "../ChibiOS/os/rt/include/chsem.h"
 936              		.file 14 "../ChibiOS/os/rt/include/chmtx.h"
 937              		.file 15 "../ChibiOS/os/rt/include/chvt.h"
 938              		.file 16 "../ChibiOS/os/hal/include/hal_st.h"
 939              		.file 17 "../ChibiOS/os/common/ext/CMSIS/include/core_cm4.h"
 940              		.section	.debug_info,"",%progbits
 941              	.Ldebug_info0:
 942 0000 1E0A0000 		.4byte	0xa1e
 943 0004 0400     		.2byte	0x4
 944 0006 00000000 		.4byte	.Ldebug_abbrev0
 945 000a 04       		.byte	0x4
 946 000b 01       		.uleb128 0x1
 947 000c E5030000 		.4byte	.LASF113
 948 0010 01       		.byte	0x1
 949 0011 28000000 		.4byte	.LASF114
 950 0015 4C020000 		.4byte	.LASF115
 951 0019 B0000000 		.4byte	.Ldebug_ranges0+0xb0
 952 001d 00000000 		.4byte	0
 953 0021 00000000 		.4byte	.Ldebug_line0
 954 0025 02       		.uleb128 0x2
 955 0026 04       		.byte	0x4
 956 0027 05       		.byte	0x5
 957 0028 696E7400 		.ascii	"int\000"
 958 002c 03       		.uleb128 0x3
 959 002d 04       		.byte	0x4
 960 002e 07       		.byte	0x7
 961 002f 7F000000 		.4byte	.LASF0
 962 0033 03       		.uleb128 0x3
 963 0034 01       		.byte	0x1
 964 0035 06       		.byte	0x6
 965 0036 96050000 		.4byte	.LASF1
 966 003a 04       		.uleb128 0x4
 967 003b D6030000 		.4byte	.LASF5
 968 003f 04       		.byte	0x4
 969 0040 1C       		.byte	0x1c
 970 0041 45000000 		.4byte	0x45
 971 0045 03       		.uleb128 0x3
 972 0046 01       		.byte	0x1
 973 0047 08       		.byte	0x8
 974 0048 32050000 		.4byte	.LASF2
 975 004c 03       		.uleb128 0x3
ARM GAS  /tmp/ccrw7w3s.s 			page 50


 976 004d 02       		.byte	0x2
 977 004e 05       		.byte	0x5
 978 004f 76030000 		.4byte	.LASF3
 979 0053 03       		.uleb128 0x3
 980 0054 02       		.byte	0x2
 981 0055 07       		.byte	0x7
 982 0056 A8050000 		.4byte	.LASF4
 983 005a 04       		.uleb128 0x4
 984 005b B3000000 		.4byte	.LASF6
 985 005f 04       		.byte	0x4
 986 0060 37       		.byte	0x37
 987 0061 65000000 		.4byte	0x65
 988 0065 03       		.uleb128 0x3
 989 0066 04       		.byte	0x4
 990 0067 05       		.byte	0x5
 991 0068 80030000 		.4byte	.LASF7
 992 006c 04       		.uleb128 0x4
 993 006d 40050000 		.4byte	.LASF8
 994 0071 04       		.byte	0x4
 995 0072 38       		.byte	0x38
 996 0073 77000000 		.4byte	0x77
 997 0077 03       		.uleb128 0x3
 998 0078 04       		.byte	0x4
 999 0079 07       		.byte	0x7
 1000 007a EC040000 		.4byte	.LASF9
 1001 007e 03       		.uleb128 0x3
 1002 007f 08       		.byte	0x8
 1003 0080 05       		.byte	0x5
 1004 0081 06030000 		.4byte	.LASF10
 1005 0085 04       		.uleb128 0x4
 1006 0086 3C020000 		.4byte	.LASF11
 1007 008a 04       		.byte	0x4
 1008 008b 4E       		.byte	0x4e
 1009 008c 90000000 		.4byte	0x90
 1010 0090 03       		.uleb128 0x3
 1011 0091 08       		.byte	0x8
 1012 0092 07       		.byte	0x7
 1013 0093 9D010000 		.4byte	.LASF12
 1014 0097 04       		.uleb128 0x4
 1015 0098 C0020000 		.4byte	.LASF13
 1016 009c 05       		.byte	0x5
 1017 009d 2A       		.byte	0x2a
 1018 009e 3A000000 		.4byte	0x3a
 1019 00a2 04       		.uleb128 0x4
 1020 00a3 1C050000 		.4byte	.LASF14
 1021 00a7 05       		.byte	0x5
 1022 00a8 41       		.byte	0x41
 1023 00a9 5A000000 		.4byte	0x5a
 1024 00ad 04       		.uleb128 0x4
 1025 00ae 2B010000 		.4byte	.LASF15
 1026 00b2 05       		.byte	0x5
 1027 00b3 42       		.byte	0x42
 1028 00b4 6C000000 		.4byte	0x6c
 1029 00b8 04       		.uleb128 0x4
 1030 00b9 C7030000 		.4byte	.LASF16
 1031 00bd 05       		.byte	0x5
 1032 00be 4E       		.byte	0x4e
ARM GAS  /tmp/ccrw7w3s.s 			page 51


 1033 00bf 85000000 		.4byte	0x85
 1034 00c3 04       		.uleb128 0x4
 1035 00c4 69030000 		.4byte	.LASF17
 1036 00c8 06       		.byte	0x6
 1037 00c9 39       		.byte	0x39
 1038 00ca AD000000 		.4byte	0xad
 1039 00ce 04       		.uleb128 0x4
 1040 00cf 41030000 		.4byte	.LASF18
 1041 00d3 06       		.byte	0x6
 1042 00d4 3C       		.byte	0x3c
 1043 00d5 97000000 		.4byte	0x97
 1044 00d9 04       		.uleb128 0x4
 1045 00da B7020000 		.4byte	.LASF19
 1046 00de 06       		.byte	0x6
 1047 00df 3D       		.byte	0x3d
 1048 00e0 97000000 		.4byte	0x97
 1049 00e4 04       		.uleb128 0x4
 1050 00e5 CE040000 		.4byte	.LASF20
 1051 00e9 06       		.byte	0x6
 1052 00ea 3E       		.byte	0x3e
 1053 00eb 97000000 		.4byte	0x97
 1054 00ef 04       		.uleb128 0x4
 1055 00f0 72010000 		.4byte	.LASF21
 1056 00f4 06       		.byte	0x6
 1057 00f5 40       		.byte	0x40
 1058 00f6 AD000000 		.4byte	0xad
 1059 00fa 04       		.uleb128 0x4
 1060 00fb 14030000 		.4byte	.LASF22
 1061 00ff 06       		.byte	0x6
 1062 0100 41       		.byte	0x41
 1063 0101 A2000000 		.4byte	0xa2
 1064 0105 04       		.uleb128 0x4
 1065 0106 47010000 		.4byte	.LASF23
 1066 010a 06       		.byte	0x6
 1067 010b 43       		.byte	0x43
 1068 010c AD000000 		.4byte	0xad
 1069 0110 04       		.uleb128 0x4
 1070 0111 C7010000 		.4byte	.LASF24
 1071 0115 06       		.byte	0x6
 1072 0116 45       		.byte	0x45
 1073 0117 A2000000 		.4byte	0xa2
 1074 011b 04       		.uleb128 0x4
 1075 011c 5C000000 		.4byte	.LASF25
 1076 0120 07       		.byte	0x7
 1077 0121 33       		.byte	0x33
 1078 0122 AD000000 		.4byte	0xad
 1079 0126 04       		.uleb128 0x4
 1080 0127 10020000 		.4byte	.LASF26
 1081 012b 07       		.byte	0x7
 1082 012c 3F       		.byte	0x3f
 1083 012d 31010000 		.4byte	0x131
 1084 0131 05       		.uleb128 0x5
 1085 0132 D6020000 		.4byte	.LASF44
 1086 0136 44       		.byte	0x44
 1087 0137 08       		.byte	0x8
 1088 0138 9A       		.byte	0x9a
 1089 0139 0F020000 		.4byte	0x20f
ARM GAS  /tmp/ccrw7w3s.s 			page 52


 1090 013d 06       		.uleb128 0x6
 1091 013e 16050000 		.4byte	.LASF27
 1092 0142 08       		.byte	0x8
 1093 0143 9B       		.byte	0x9b
 1094 0144 44020000 		.4byte	0x244
 1095 0148 00       		.byte	0
 1096 0149 06       		.uleb128 0x6
 1097 014a 8E020000 		.4byte	.LASF28
 1098 014e 08       		.byte	0x8
 1099 014f 9C       		.byte	0x9c
 1100 0150 EF000000 		.4byte	0xef
 1101 0154 08       		.byte	0x8
 1102 0155 07       		.uleb128 0x7
 1103 0156 63747800 		.ascii	"ctx\000"
 1104 015a 08       		.byte	0x8
 1105 015b 9D       		.byte	0x9d
 1106 015c 61040000 		.4byte	0x461
 1107 0160 0C       		.byte	0xc
 1108 0161 06       		.uleb128 0x6
 1109 0162 2C050000 		.4byte	.LASF29
 1110 0166 08       		.byte	0x8
 1111 0167 9F       		.byte	0x9f
 1112 0168 1A020000 		.4byte	0x21a
 1113 016c 10       		.byte	0x10
 1114 016d 06       		.uleb128 0x6
 1115 016e DC050000 		.4byte	.LASF30
 1116 0172 08       		.byte	0x8
 1117 0173 A0       		.byte	0xa0
 1118 0174 1A020000 		.4byte	0x21a
 1119 0178 14       		.byte	0x14
 1120 0179 06       		.uleb128 0x6
 1121 017a E0030000 		.4byte	.LASF31
 1122 017e 08       		.byte	0x8
 1123 017f A7       		.byte	0xa7
 1124 0180 08070000 		.4byte	0x708
 1125 0184 18       		.byte	0x18
 1126 0185 06       		.uleb128 0x6
 1127 0186 B0020000 		.4byte	.LASF32
 1128 018a 08       		.byte	0x8
 1129 018b B0       		.byte	0xb0
 1130 018c 1A070000 		.4byte	0x71a
 1131 0190 1C       		.byte	0x1c
 1132 0191 06       		.uleb128 0x6
 1133 0192 77050000 		.4byte	.LASF33
 1134 0196 08       		.byte	0x8
 1135 0197 B5       		.byte	0xb5
 1136 0198 D9000000 		.4byte	0xd9
 1137 019c 20       		.byte	0x20
 1138 019d 06       		.uleb128 0x6
 1139 019e 56000000 		.4byte	.LASF34
 1140 01a2 08       		.byte	0x8
 1141 01a3 B9       		.byte	0xb9
 1142 01a4 CE000000 		.4byte	0xce
 1143 01a8 21       		.byte	0x21
 1144 01a9 06       		.uleb128 0x6
 1145 01aa BD000000 		.4byte	.LASF35
 1146 01ae 08       		.byte	0x8
ARM GAS  /tmp/ccrw7w3s.s 			page 53


 1147 01af BE       		.byte	0xbe
 1148 01b0 E4000000 		.4byte	0xe4
 1149 01b4 22       		.byte	0x22
 1150 01b5 08       		.uleb128 0x8
 1151 01b6 7500     		.ascii	"u\000"
 1152 01b8 08       		.byte	0x8
 1153 01b9 0F01     		.2byte	0x10f
 1154 01bb 3D060000 		.4byte	0x63d
 1155 01bf 24       		.byte	0x24
 1156 01c0 09       		.uleb128 0x9
 1157 01c1 4B050000 		.4byte	.LASF36
 1158 01c5 08       		.byte	0x8
 1159 01c6 1401     		.2byte	0x114
 1160 01c8 20020000 		.4byte	0x220
 1161 01cc 28       		.byte	0x28
 1162 01cd 09       		.uleb128 0x9
 1163 01ce C8020000 		.4byte	.LASF37
 1164 01d2 08       		.byte	0x8
 1165 01d3 1A01     		.2byte	0x11a
 1166 01d5 44020000 		.4byte	0x244
 1167 01d9 2C       		.byte	0x2c
 1168 01da 09       		.uleb128 0x9
 1169 01db 76000000 		.4byte	.LASF38
 1170 01df 08       		.byte	0x8
 1171 01e0 2001     		.2byte	0x120
 1172 01e2 05010000 		.4byte	0x105
 1173 01e6 34       		.byte	0x34
 1174 01e7 09       		.uleb128 0x9
 1175 01e8 F1010000 		.4byte	.LASF39
 1176 01ec 08       		.byte	0x8
 1177 01ed 2701     		.2byte	0x127
 1178 01ef 02070000 		.4byte	0x702
 1179 01f3 38       		.byte	0x38
 1180 01f4 09       		.uleb128 0x9
 1181 01f5 66000000 		.4byte	.LASF40
 1182 01f9 08       		.byte	0x8
 1183 01fa 2B01     		.2byte	0x12b
 1184 01fc EF000000 		.4byte	0xef
 1185 0200 3C       		.byte	0x3c
 1186 0201 09       		.uleb128 0x9
 1187 0202 EB050000 		.4byte	.LASF41
 1188 0206 08       		.byte	0x8
 1189 0207 3201     		.2byte	0x132
 1190 0209 F7020000 		.4byte	0x2f7
 1191 020d 40       		.byte	0x40
 1192 020e 00       		.byte	0
 1193 020f 04       		.uleb128 0x4
 1194 0210 9D020000 		.4byte	.LASF42
 1195 0214 07       		.byte	0x7
 1196 0215 44       		.byte	0x44
 1197 0216 1A020000 		.4byte	0x21a
 1198 021a 0A       		.uleb128 0xa
 1199 021b 04       		.byte	0x4
 1200 021c 26010000 		.4byte	0x126
 1201 0220 04       		.uleb128 0x4
 1202 0221 A4000000 		.4byte	.LASF43
 1203 0225 07       		.byte	0x7
ARM GAS  /tmp/ccrw7w3s.s 			page 54


 1204 0226 49       		.byte	0x49
 1205 0227 2B020000 		.4byte	0x22b
 1206 022b 05       		.uleb128 0x5
 1207 022c 00000000 		.4byte	.LASF45
 1208 0230 04       		.byte	0x4
 1209 0231 08       		.byte	0x8
 1210 0232 88       		.byte	0x88
 1211 0233 44020000 		.4byte	0x244
 1212 0237 06       		.uleb128 0x6
 1213 0238 8C000000 		.4byte	.LASF46
 1214 023c 08       		.byte	0x8
 1215 023d 89       		.byte	0x89
 1216 023e 1A020000 		.4byte	0x21a
 1217 0242 00       		.byte	0
 1218 0243 00       		.byte	0
 1219 0244 04       		.uleb128 0x4
 1220 0245 E1010000 		.4byte	.LASF47
 1221 0249 07       		.byte	0x7
 1222 024a 50       		.byte	0x50
 1223 024b 4F020000 		.4byte	0x24f
 1224 024f 05       		.uleb128 0x5
 1225 0250 FC000000 		.4byte	.LASF48
 1226 0254 08       		.byte	0x8
 1227 0255 08       		.byte	0x8
 1228 0256 8F       		.byte	0x8f
 1229 0257 74020000 		.4byte	0x274
 1230 025b 06       		.uleb128 0x6
 1231 025c 8C000000 		.4byte	.LASF46
 1232 0260 08       		.byte	0x8
 1233 0261 90       		.byte	0x90
 1234 0262 1A020000 		.4byte	0x21a
 1235 0266 00       		.byte	0
 1236 0267 06       		.uleb128 0x6
 1237 0268 F7000000 		.4byte	.LASF49
 1238 026c 08       		.byte	0x8
 1239 026d 91       		.byte	0x91
 1240 026e 1A020000 		.4byte	0x21a
 1241 0272 04       		.byte	0x4
 1242 0273 00       		.byte	0
 1243 0274 04       		.uleb128 0x4
 1244 0275 09050000 		.4byte	.LASF50
 1245 0279 07       		.byte	0x7
 1246 027a 57       		.byte	0x57
 1247 027b 7F020000 		.4byte	0x27f
 1248 027f 0B       		.uleb128 0xb
 1249 0280 DD000000 		.4byte	.LASF51
 1250 0284 1C       		.byte	0x1c
 1251 0285 08       		.byte	0x8
 1252 0286 6A01     		.2byte	0x16a
 1253 0288 DB020000 		.4byte	0x2db
 1254 028c 09       		.uleb128 0x9
 1255 028d 16050000 		.4byte	.LASF27
 1256 0291 08       		.byte	0x8
 1257 0292 6B01     		.2byte	0x16b
 1258 0294 44020000 		.4byte	0x244
 1259 0298 00       		.byte	0
 1260 0299 09       		.uleb128 0x9
ARM GAS  /tmp/ccrw7w3s.s 			page 55


 1261 029a 8E020000 		.4byte	.LASF28
 1262 029e 08       		.byte	0x8
 1263 029f 6C01     		.2byte	0x16c
 1264 02a1 EF000000 		.4byte	0xef
 1265 02a5 08       		.byte	0x8
 1266 02a6 08       		.uleb128 0x8
 1267 02a7 63747800 		.ascii	"ctx\000"
 1268 02ab 08       		.byte	0x8
 1269 02ac 6E01     		.2byte	0x16e
 1270 02ae 61040000 		.4byte	0x461
 1271 02b2 0C       		.byte	0xc
 1272 02b3 09       		.uleb128 0x9
 1273 02b4 2C050000 		.4byte	.LASF29
 1274 02b8 08       		.byte	0x8
 1275 02b9 7101     		.2byte	0x171
 1276 02bb 1A020000 		.4byte	0x21a
 1277 02bf 10       		.byte	0x10
 1278 02c0 09       		.uleb128 0x9
 1279 02c1 DC050000 		.4byte	.LASF30
 1280 02c5 08       		.byte	0x8
 1281 02c6 7201     		.2byte	0x172
 1282 02c8 1A020000 		.4byte	0x21a
 1283 02cc 14       		.byte	0x14
 1284 02cd 09       		.uleb128 0x9
 1285 02ce D4050000 		.4byte	.LASF52
 1286 02d2 08       		.byte	0x8
 1287 02d3 7501     		.2byte	0x175
 1288 02d5 1A020000 		.4byte	0x21a
 1289 02d9 18       		.byte	0x18
 1290 02da 00       		.byte	0
 1291 02db 04       		.uleb128 0x4
 1292 02dc 12010000 		.4byte	.LASF53
 1293 02e0 07       		.byte	0x7
 1294 02e1 5C       		.byte	0x5c
 1295 02e2 E6020000 		.4byte	0x2e6
 1296 02e6 0A       		.uleb128 0xa
 1297 02e7 04       		.byte	0x4
 1298 02e8 EC020000 		.4byte	0x2ec
 1299 02ec 0C       		.uleb128 0xc
 1300 02ed F7020000 		.4byte	0x2f7
 1301 02f1 0D       		.uleb128 0xd
 1302 02f2 F7020000 		.4byte	0x2f7
 1303 02f6 00       		.byte	0
 1304 02f7 0E       		.uleb128 0xe
 1305 02f8 04       		.byte	0x4
 1306 02f9 04       		.uleb128 0x4
 1307 02fa 27030000 		.4byte	.LASF54
 1308 02fe 07       		.byte	0x7
 1309 02ff 61       		.byte	0x61
 1310 0300 04030000 		.4byte	0x304
 1311 0304 0B       		.uleb128 0xb
 1312 0305 7A010000 		.4byte	.LASF55
 1313 0309 14       		.byte	0x14
 1314 030a 08       		.byte	0x8
 1315 030b 4501     		.2byte	0x145
 1316 030d 53030000 		.4byte	0x353
 1317 0311 09       		.uleb128 0x9
ARM GAS  /tmp/ccrw7w3s.s 			page 56


 1318 0312 8C000000 		.4byte	.LASF46
 1319 0316 08       		.byte	0x8
 1320 0317 4601     		.2byte	0x146
 1321 0319 20070000 		.4byte	0x720
 1322 031d 00       		.byte	0
 1323 031e 09       		.uleb128 0x9
 1324 031f F7000000 		.4byte	.LASF49
 1325 0323 08       		.byte	0x8
 1326 0324 4701     		.2byte	0x147
 1327 0326 20070000 		.4byte	0x720
 1328 032a 04       		.byte	0x4
 1329 032b 09       		.uleb128 0x9
 1330 032c A2050000 		.4byte	.LASF56
 1331 0330 08       		.byte	0x8
 1332 0331 4801     		.2byte	0x148
 1333 0333 1B010000 		.4byte	0x11b
 1334 0337 08       		.byte	0x8
 1335 0338 09       		.uleb128 0x9
 1336 0339 EB000000 		.4byte	.LASF57
 1337 033d 08       		.byte	0x8
 1338 033e 4901     		.2byte	0x149
 1339 0340 DB020000 		.4byte	0x2db
 1340 0344 0C       		.byte	0xc
 1341 0345 08       		.uleb128 0x8
 1342 0346 70617200 		.ascii	"par\000"
 1343 034a 08       		.byte	0x8
 1344 034b 4B01     		.2byte	0x14b
 1345 034d F7020000 		.4byte	0x2f7
 1346 0351 10       		.byte	0x10
 1347 0352 00       		.byte	0
 1348 0353 04       		.uleb128 0x4
 1349 0354 53050000 		.4byte	.LASF58
 1350 0358 07       		.byte	0x7
 1351 0359 66       		.byte	0x66
 1352 035a 5E030000 		.4byte	0x35e
 1353 035e 0B       		.uleb128 0xb
 1354 035f F9010000 		.4byte	.LASF59
 1355 0363 10       		.byte	0x10
 1356 0364 08       		.byte	0x8
 1357 0365 5501     		.2byte	0x155
 1358 0367 A0030000 		.4byte	0x3a0
 1359 036b 09       		.uleb128 0x9
 1360 036c 8C000000 		.4byte	.LASF46
 1361 0370 08       		.byte	0x8
 1362 0371 5601     		.2byte	0x156
 1363 0373 20070000 		.4byte	0x720
 1364 0377 00       		.byte	0
 1365 0378 09       		.uleb128 0x9
 1366 0379 F7000000 		.4byte	.LASF49
 1367 037d 08       		.byte	0x8
 1368 037e 5801     		.2byte	0x158
 1369 0380 20070000 		.4byte	0x720
 1370 0384 04       		.byte	0x4
 1371 0385 09       		.uleb128 0x9
 1372 0386 A2050000 		.4byte	.LASF56
 1373 038a 08       		.byte	0x8
 1374 038b 5A01     		.2byte	0x15a
ARM GAS  /tmp/ccrw7w3s.s 			page 57


 1375 038d 1B010000 		.4byte	0x11b
 1376 0391 08       		.byte	0x8
 1377 0392 09       		.uleb128 0x9
 1378 0393 BE030000 		.4byte	.LASF60
 1379 0397 08       		.byte	0x8
 1380 0398 6201     		.2byte	0x162
 1381 039a 1B010000 		.4byte	0x11b
 1382 039e 0C       		.byte	0xc
 1383 039f 00       		.byte	0
 1384 03a0 04       		.uleb128 0x4
 1385 03a1 F7020000 		.4byte	.LASF61
 1386 03a5 07       		.byte	0x7
 1387 03a6 6B       		.byte	0x6b
 1388 03a7 AB030000 		.4byte	0x3ab
 1389 03ab 0B       		.uleb128 0xb
 1390 03ac 1B010000 		.4byte	.LASF62
 1391 03b0 04       		.byte	0x4
 1392 03b1 08       		.byte	0x8
 1393 03b2 7C01     		.2byte	0x17c
 1394 03b4 C6030000 		.4byte	0x3c6
 1395 03b8 09       		.uleb128 0x9
 1396 03b9 37030000 		.4byte	.LASF63
 1397 03bd 08       		.byte	0x8
 1398 03be 8401     		.2byte	0x184
 1399 03c0 26070000 		.4byte	0x726
 1400 03c4 00       		.byte	0
 1401 03c5 00       		.byte	0
 1402 03c6 04       		.uleb128 0x4
 1403 03c7 7D050000 		.4byte	.LASF64
 1404 03cb 07       		.byte	0x7
 1405 03cc 70       		.byte	0x70
 1406 03cd D1030000 		.4byte	0x3d1
 1407 03d1 0B       		.uleb128 0xb
 1408 03d2 A8030000 		.4byte	.LASF65
 1409 03d6 78       		.byte	0x78
 1410 03d7 08       		.byte	0x8
 1411 03d8 9C01     		.2byte	0x19c
 1412 03da 1F040000 		.4byte	0x41f
 1413 03de 09       		.uleb128 0x9
 1414 03df D0030000 		.4byte	.LASF66
 1415 03e3 08       		.byte	0x8
 1416 03e4 A001     		.2byte	0x1a0
 1417 03e6 74020000 		.4byte	0x274
 1418 03ea 00       		.byte	0
 1419 03eb 09       		.uleb128 0x9
 1420 03ec C9000000 		.4byte	.LASF67
 1421 03f0 08       		.byte	0x8
 1422 03f1 A401     		.2byte	0x1a4
 1423 03f3 53030000 		.4byte	0x353
 1424 03f7 1C       		.byte	0x1c
 1425 03f8 08       		.uleb128 0x8
 1426 03f9 64626700 		.ascii	"dbg\000"
 1427 03fd 08       		.byte	0x8
 1428 03fe A801     		.2byte	0x1a8
 1429 0400 A0030000 		.4byte	0x3a0
 1430 0404 2C       		.byte	0x2c
 1431 0405 09       		.uleb128 0x9
ARM GAS  /tmp/ccrw7w3s.s 			page 58


 1432 0406 49030000 		.4byte	.LASF68
 1433 040a 08       		.byte	0x8
 1434 040b AC01     		.2byte	0x1ac
 1435 040d 26010000 		.4byte	0x126
 1436 0411 30       		.byte	0x30
 1437 0412 08       		.uleb128 0x8
 1438 0413 746D00   		.ascii	"tm\000"
 1439 0416 08       		.byte	0x8
 1440 0417 B101     		.2byte	0x1b1
 1441 0419 32060000 		.4byte	0x632
 1442 041d 74       		.byte	0x74
 1443 041e 00       		.byte	0
 1444 041f 03       		.uleb128 0x3
 1445 0420 04       		.byte	0x4
 1446 0421 07       		.byte	0x7
 1447 0422 C5040000 		.4byte	.LASF69
 1448 0426 0F       		.uleb128 0xf
 1449 0427 AD000000 		.4byte	0xad
 1450 042b 10       		.uleb128 0x10
 1451 042c AD000000 		.4byte	0xad
 1452 0430 3B040000 		.4byte	0x43b
 1453 0434 11       		.uleb128 0x11
 1454 0435 1F040000 		.4byte	0x41f
 1455 0439 01       		.byte	0x1
 1456 043a 00       		.byte	0
 1457 043b 10       		.uleb128 0x10
 1458 043c AD000000 		.4byte	0xad
 1459 0440 4B040000 		.4byte	0x44b
 1460 0444 11       		.uleb128 0x11
 1461 0445 1F040000 		.4byte	0x41f
 1462 0449 03       		.byte	0x3
 1463 044a 00       		.byte	0
 1464 044b 04       		.uleb128 0x4
 1465 044c 44000000 		.4byte	.LASF70
 1466 0450 09       		.byte	0x9
 1467 0451 65       		.byte	0x65
 1468 0452 F7020000 		.4byte	0x2f7
 1469 0456 04       		.uleb128 0x4
 1470 0457 BB050000 		.4byte	.LASF71
 1471 045b 09       		.byte	0x9
 1472 045c 6D       		.byte	0x6d
 1473 045d B8000000 		.4byte	0xb8
 1474 0461 05       		.uleb128 0x5
 1475 0462 D0000000 		.4byte	.LASF72
 1476 0466 04       		.byte	0x4
 1477 0467 09       		.byte	0x9
 1478 0468 89       		.byte	0x89
 1479 0469 79040000 		.4byte	0x479
 1480 046d 07       		.uleb128 0x7
 1481 046e 737000   		.ascii	"sp\000"
 1482 0471 09       		.byte	0x9
 1483 0472 8A       		.byte	0x8a
 1484 0473 F5040000 		.4byte	0x4f5
 1485 0477 00       		.byte	0
 1486 0478 00       		.byte	0
 1487 0479 0B       		.uleb128 0xb
 1488 047a 89030000 		.4byte	.LASF73
ARM GAS  /tmp/ccrw7w3s.s 			page 59


 1489 047e 24       		.byte	0x24
 1490 047f 0A       		.byte	0xa
 1491 0480 5901     		.2byte	0x159
 1492 0482 F5040000 		.4byte	0x4f5
 1493 0486 08       		.uleb128 0x8
 1494 0487 723400   		.ascii	"r4\000"
 1495 048a 0A       		.byte	0xa
 1496 048b 6C01     		.2byte	0x16c
 1497 048d 4B040000 		.4byte	0x44b
 1498 0491 00       		.byte	0
 1499 0492 08       		.uleb128 0x8
 1500 0493 723500   		.ascii	"r5\000"
 1501 0496 0A       		.byte	0xa
 1502 0497 6D01     		.2byte	0x16d
 1503 0499 4B040000 		.4byte	0x44b
 1504 049d 04       		.byte	0x4
 1505 049e 08       		.uleb128 0x8
 1506 049f 723600   		.ascii	"r6\000"
 1507 04a2 0A       		.byte	0xa
 1508 04a3 6E01     		.2byte	0x16e
 1509 04a5 4B040000 		.4byte	0x44b
 1510 04a9 08       		.byte	0x8
 1511 04aa 08       		.uleb128 0x8
 1512 04ab 723700   		.ascii	"r7\000"
 1513 04ae 0A       		.byte	0xa
 1514 04af 6F01     		.2byte	0x16f
 1515 04b1 4B040000 		.4byte	0x44b
 1516 04b5 0C       		.byte	0xc
 1517 04b6 08       		.uleb128 0x8
 1518 04b7 723800   		.ascii	"r8\000"
 1519 04ba 0A       		.byte	0xa
 1520 04bb 7001     		.2byte	0x170
 1521 04bd 4B040000 		.4byte	0x44b
 1522 04c1 10       		.byte	0x10
 1523 04c2 08       		.uleb128 0x8
 1524 04c3 723900   		.ascii	"r9\000"
 1525 04c6 0A       		.byte	0xa
 1526 04c7 7101     		.2byte	0x171
 1527 04c9 4B040000 		.4byte	0x44b
 1528 04cd 14       		.byte	0x14
 1529 04ce 08       		.uleb128 0x8
 1530 04cf 72313000 		.ascii	"r10\000"
 1531 04d3 0A       		.byte	0xa
 1532 04d4 7201     		.2byte	0x172
 1533 04d6 4B040000 		.4byte	0x44b
 1534 04da 18       		.byte	0x18
 1535 04db 08       		.uleb128 0x8
 1536 04dc 72313100 		.ascii	"r11\000"
 1537 04e0 0A       		.byte	0xa
 1538 04e1 7301     		.2byte	0x173
 1539 04e3 4B040000 		.4byte	0x44b
 1540 04e7 1C       		.byte	0x1c
 1541 04e8 08       		.uleb128 0x8
 1542 04e9 6C7200   		.ascii	"lr\000"
 1543 04ec 0A       		.byte	0xa
 1544 04ed 7401     		.2byte	0x174
 1545 04ef 4B040000 		.4byte	0x44b
ARM GAS  /tmp/ccrw7w3s.s 			page 60


 1546 04f3 20       		.byte	0x20
 1547 04f4 00       		.byte	0
 1548 04f5 0A       		.uleb128 0xa
 1549 04f6 04       		.byte	0x4
 1550 04f7 79040000 		.4byte	0x479
 1551 04fb 12       		.uleb128 0x12
 1552 04fc 60       		.byte	0x60
 1553 04fd 0B       		.byte	0xb
 1554 04fe A101     		.2byte	0x1a1
 1555 0500 07060000 		.4byte	0x607
 1556 0504 08       		.uleb128 0x8
 1557 0505 43523100 		.ascii	"CR1\000"
 1558 0509 0B       		.byte	0xb
 1559 050a A201     		.2byte	0x1a2
 1560 050c 26040000 		.4byte	0x426
 1561 0510 00       		.byte	0
 1562 0511 08       		.uleb128 0x8
 1563 0512 43523200 		.ascii	"CR2\000"
 1564 0516 0B       		.byte	0xb
 1565 0517 A301     		.2byte	0x1a3
 1566 0519 26040000 		.4byte	0x426
 1567 051d 04       		.byte	0x4
 1568 051e 09       		.uleb128 0x9
 1569 051f D1020000 		.4byte	.LASF74
 1570 0523 0B       		.byte	0xb
 1571 0524 A401     		.2byte	0x1a4
 1572 0526 26040000 		.4byte	0x426
 1573 052a 08       		.byte	0x8
 1574 052b 09       		.uleb128 0x9
 1575 052c 47020000 		.4byte	.LASF75
 1576 0530 0B       		.byte	0xb
 1577 0531 A501     		.2byte	0x1a5
 1578 0533 26040000 		.4byte	0x426
 1579 0537 0C       		.byte	0xc
 1580 0538 08       		.uleb128 0x8
 1581 0539 535200   		.ascii	"SR\000"
 1582 053c 0B       		.byte	0xb
 1583 053d A601     		.2byte	0x1a6
 1584 053f 26040000 		.4byte	0x426
 1585 0543 10       		.byte	0x10
 1586 0544 08       		.uleb128 0x8
 1587 0545 45475200 		.ascii	"EGR\000"
 1588 0549 0B       		.byte	0xb
 1589 054a A701     		.2byte	0x1a7
 1590 054c 26040000 		.4byte	0x426
 1591 0550 14       		.byte	0x14
 1592 0551 09       		.uleb128 0x9
 1593 0552 8B010000 		.4byte	.LASF76
 1594 0556 0B       		.byte	0xb
 1595 0557 A801     		.2byte	0x1a8
 1596 0559 26040000 		.4byte	0x426
 1597 055d 18       		.byte	0x18
 1598 055e 09       		.uleb128 0x9
 1599 055f 91010000 		.4byte	.LASF77
 1600 0563 0B       		.byte	0xb
 1601 0564 A901     		.2byte	0x1a9
 1602 0566 26040000 		.4byte	0x426
ARM GAS  /tmp/ccrw7w3s.s 			page 61


 1603 056a 1C       		.byte	0x1c
 1604 056b 09       		.uleb128 0x9
 1605 056c 93020000 		.4byte	.LASF78
 1606 0570 0B       		.byte	0xb
 1607 0571 AA01     		.2byte	0x1aa
 1608 0573 26040000 		.4byte	0x426
 1609 0577 20       		.byte	0x20
 1610 0578 08       		.uleb128 0x8
 1611 0579 434E5400 		.ascii	"CNT\000"
 1612 057d 0B       		.byte	0xb
 1613 057e AB01     		.2byte	0x1ab
 1614 0580 26040000 		.4byte	0x426
 1615 0584 24       		.byte	0x24
 1616 0585 08       		.uleb128 0x8
 1617 0586 50534300 		.ascii	"PSC\000"
 1618 058a 0B       		.byte	0xb
 1619 058b AC01     		.2byte	0x1ac
 1620 058d 26040000 		.4byte	0x426
 1621 0591 28       		.byte	0x28
 1622 0592 08       		.uleb128 0x8
 1623 0593 41525200 		.ascii	"ARR\000"
 1624 0597 0B       		.byte	0xb
 1625 0598 AD01     		.2byte	0x1ad
 1626 059a 26040000 		.4byte	0x426
 1627 059e 2C       		.byte	0x2c
 1628 059f 08       		.uleb128 0x8
 1629 05a0 52435200 		.ascii	"RCR\000"
 1630 05a4 0B       		.byte	0xb
 1631 05a5 AE01     		.2byte	0x1ae
 1632 05a7 26040000 		.4byte	0x426
 1633 05ab 30       		.byte	0x30
 1634 05ac 08       		.uleb128 0x8
 1635 05ad 43435200 		.ascii	"CCR\000"
 1636 05b1 0B       		.byte	0xb
 1637 05b2 AF01     		.2byte	0x1af
 1638 05b4 07060000 		.4byte	0x607
 1639 05b8 34       		.byte	0x34
 1640 05b9 09       		.uleb128 0x9
 1641 05ba 53010000 		.4byte	.LASF79
 1642 05be 0B       		.byte	0xb
 1643 05bf B001     		.2byte	0x1b0
 1644 05c1 26040000 		.4byte	0x426
 1645 05c5 44       		.byte	0x44
 1646 05c6 08       		.uleb128 0x8
 1647 05c7 44435200 		.ascii	"DCR\000"
 1648 05cb 0B       		.byte	0xb
 1649 05cc B101     		.2byte	0x1b1
 1650 05ce 26040000 		.4byte	0x426
 1651 05d2 48       		.byte	0x48
 1652 05d3 09       		.uleb128 0x9
 1653 05d4 0D010000 		.4byte	.LASF80
 1654 05d8 0B       		.byte	0xb
 1655 05d9 B201     		.2byte	0x1b2
 1656 05db 26040000 		.4byte	0x426
 1657 05df 4C       		.byte	0x4c
 1658 05e0 08       		.uleb128 0x8
 1659 05e1 4F5200   		.ascii	"OR\000"
ARM GAS  /tmp/ccrw7w3s.s 			page 62


 1660 05e4 0B       		.byte	0xb
 1661 05e5 B301     		.2byte	0x1b3
 1662 05e7 26040000 		.4byte	0x426
 1663 05eb 50       		.byte	0x50
 1664 05ec 09       		.uleb128 0x9
 1665 05ed 97010000 		.4byte	.LASF81
 1666 05f1 0B       		.byte	0xb
 1667 05f2 B401     		.2byte	0x1b4
 1668 05f4 26040000 		.4byte	0x426
 1669 05f8 54       		.byte	0x54
 1670 05f9 09       		.uleb128 0x9
 1671 05fa 71030000 		.4byte	.LASF82
 1672 05fe 0B       		.byte	0xb
 1673 05ff B501     		.2byte	0x1b5
 1674 0601 0C060000 		.4byte	0x60c
 1675 0605 58       		.byte	0x58
 1676 0606 00       		.byte	0
 1677 0607 0F       		.uleb128 0xf
 1678 0608 3B040000 		.4byte	0x43b
 1679 060c 0F       		.uleb128 0xf
 1680 060d 2B040000 		.4byte	0x42b
 1681 0611 13       		.uleb128 0x13
 1682 0612 27020000 		.4byte	.LASF83
 1683 0616 0B       		.byte	0xb
 1684 0617 B601     		.2byte	0x1b6
 1685 0619 FB040000 		.4byte	0x4fb
 1686 061d 14       		.uleb128 0x14
 1687 061e 04       		.byte	0x4
 1688 061f 0C       		.byte	0xc
 1689 0620 38       		.byte	0x38
 1690 0621 32060000 		.4byte	0x632
 1691 0625 06       		.uleb128 0x6
 1692 0626 20020000 		.4byte	.LASF84
 1693 062a 0C       		.byte	0xc
 1694 062b 3C       		.byte	0x3c
 1695 062c C3000000 		.4byte	0xc3
 1696 0630 00       		.byte	0
 1697 0631 00       		.byte	0
 1698 0632 04       		.uleb128 0x4
 1699 0633 17000000 		.4byte	.LASF85
 1700 0637 0C       		.byte	0xc
 1701 0638 3D       		.byte	0x3d
 1702 0639 1D060000 		.4byte	0x61d
 1703 063d 15       		.uleb128 0x15
 1704 063e 04       		.byte	0x4
 1705 063f 08       		.byte	0x8
 1706 0640 D2       		.byte	0xd2
 1707 0641 A0060000 		.4byte	0x6a0
 1708 0645 16       		.uleb128 0x16
 1709 0646 19020000 		.4byte	.LASF86
 1710 064a 08       		.byte	0x8
 1711 064b D9       		.byte	0xd9
 1712 064c FA000000 		.4byte	0xfa
 1713 0650 16       		.uleb128 0x16
 1714 0651 E2050000 		.4byte	.LASF87
 1715 0655 08       		.byte	0x8
 1716 0656 E0       		.byte	0xe0
ARM GAS  /tmp/ccrw7w3s.s 			page 63


 1717 0657 FA000000 		.4byte	0xfa
 1718 065b 16       		.uleb128 0x16
 1719 065c C2000000 		.4byte	.LASF88
 1720 0660 08       		.byte	0x8
 1721 0661 E7       		.byte	0xe7
 1722 0662 F7020000 		.4byte	0x2f7
 1723 0666 16       		.uleb128 0x16
 1724 0667 90050000 		.4byte	.LASF89
 1725 066b 08       		.byte	0x8
 1726 066c EE       		.byte	0xee
 1727 066d A0060000 		.4byte	0x6a0
 1728 0671 16       		.uleb128 0x16
 1729 0672 3F010000 		.4byte	.LASF90
 1730 0676 08       		.byte	0x8
 1731 0677 F3       		.byte	0xf3
 1732 0678 FA000000 		.4byte	0xfa
 1733 067c 16       		.uleb128 0x16
 1734 067d 89050000 		.4byte	.LASF91
 1735 0681 08       		.byte	0x8
 1736 0682 FC       		.byte	0xfc
 1737 0683 CB060000 		.4byte	0x6cb
 1738 0687 17       		.uleb128 0x17
 1739 0688 10000000 		.4byte	.LASF92
 1740 068c 08       		.byte	0x8
 1741 068d 0501     		.2byte	0x105
 1742 068f 02070000 		.4byte	0x702
 1743 0693 17       		.uleb128 0x17
 1744 0694 F0000000 		.4byte	.LASF93
 1745 0698 08       		.byte	0x8
 1746 0699 0D01     		.2byte	0x10d
 1747 069b 05010000 		.4byte	0x105
 1748 069f 00       		.byte	0
 1749 06a0 0A       		.uleb128 0xa
 1750 06a1 04       		.byte	0x4
 1751 06a2 0F020000 		.4byte	0x20f
 1752 06a6 05       		.uleb128 0x5
 1753 06a7 65010000 		.4byte	.LASF94
 1754 06ab 0C       		.byte	0xc
 1755 06ac 0D       		.byte	0xd
 1756 06ad 34       		.byte	0x34
 1757 06ae CB060000 		.4byte	0x6cb
 1758 06b2 06       		.uleb128 0x6
 1759 06b3 16050000 		.4byte	.LASF27
 1760 06b7 0D       		.byte	0xd
 1761 06b8 35       		.byte	0x35
 1762 06b9 44020000 		.4byte	0x244
 1763 06bd 00       		.byte	0
 1764 06be 07       		.uleb128 0x7
 1765 06bf 636E7400 		.ascii	"cnt\000"
 1766 06c3 0D       		.byte	0xd
 1767 06c4 37       		.byte	0x37
 1768 06c5 10010000 		.4byte	0x110
 1769 06c9 08       		.byte	0x8
 1770 06ca 00       		.byte	0
 1771 06cb 0A       		.uleb128 0xa
 1772 06cc 04       		.byte	0x4
 1773 06cd A6060000 		.4byte	0x6a6
ARM GAS  /tmp/ccrw7w3s.s 			page 64


 1774 06d1 05       		.uleb128 0x5
 1775 06d2 33020000 		.4byte	.LASF95
 1776 06d6 10       		.byte	0x10
 1777 06d7 0E       		.byte	0xe
 1778 06d8 39       		.byte	0x39
 1779 06d9 02070000 		.4byte	0x702
 1780 06dd 06       		.uleb128 0x6
 1781 06de 16050000 		.4byte	.LASF27
 1782 06e2 0E       		.byte	0xe
 1783 06e3 3A       		.byte	0x3a
 1784 06e4 44020000 		.4byte	0x244
 1785 06e8 00       		.byte	0
 1786 06e9 06       		.uleb128 0x6
 1787 06ea DB010000 		.4byte	.LASF96
 1788 06ee 0E       		.byte	0xe
 1789 06ef 3C       		.byte	0x3c
 1790 06f0 1A020000 		.4byte	0x21a
 1791 06f4 08       		.byte	0x8
 1792 06f5 06       		.uleb128 0x6
 1793 06f6 8C000000 		.4byte	.LASF46
 1794 06fa 0E       		.byte	0xe
 1795 06fb 3E       		.byte	0x3e
 1796 06fc 36070000 		.4byte	0x736
 1797 0700 0C       		.byte	0xc
 1798 0701 00       		.byte	0
 1799 0702 0A       		.uleb128 0xa
 1800 0703 04       		.byte	0x4
 1801 0704 D1060000 		.4byte	0x6d1
 1802 0708 0A       		.uleb128 0xa
 1803 0709 04       		.byte	0x4
 1804 070a 0E070000 		.4byte	0x70e
 1805 070e 18       		.uleb128 0x18
 1806 070f 13070000 		.4byte	0x713
 1807 0713 03       		.uleb128 0x3
 1808 0714 01       		.byte	0x1
 1809 0715 08       		.byte	0x8
 1810 0716 98020000 		.4byte	.LASF97
 1811 071a 0A       		.uleb128 0xa
 1812 071b 04       		.byte	0x4
 1813 071c 56040000 		.4byte	0x456
 1814 0720 0A       		.uleb128 0xa
 1815 0721 04       		.byte	0x4
 1816 0722 F9020000 		.4byte	0x2f9
 1817 0726 0F       		.uleb128 0xf
 1818 0727 08070000 		.4byte	0x708
 1819 072b 04       		.uleb128 0x4
 1820 072c 24050000 		.4byte	.LASF98
 1821 0730 0E       		.byte	0xe
 1822 0731 34       		.byte	0x34
 1823 0732 D1060000 		.4byte	0x6d1
 1824 0736 0A       		.uleb128 0xa
 1825 0737 04       		.byte	0x4
 1826 0738 2B070000 		.4byte	0x72b
 1827 073c 19       		.uleb128 0x19
 1828 073d B4010000 		.4byte	.LASF99
 1829 0741 02       		.byte	0x2
 1830 0742 8B       		.byte	0x8b
ARM GAS  /tmp/ccrw7w3s.s 			page 65


 1831 0743 1B010000 		.4byte	0x11b
 1832 0747 03       		.byte	0x3
 1833 0748 19       		.uleb128 0x19
 1834 0749 7A020000 		.4byte	.LASF100
 1835 074d 03       		.byte	0x3
 1836 074e 69       		.byte	0x69
 1837 074f 1B010000 		.4byte	0x11b
 1838 0753 03       		.byte	0x3
 1839 0754 19       		.uleb128 0x19
 1840 0755 91000000 		.4byte	.LASF101
 1841 0759 0F       		.byte	0xf
 1842 075a E4       		.byte	0xe4
 1843 075b 1B010000 		.4byte	0x11b
 1844 075f 03       		.byte	0x3
 1845 0760 1A       		.uleb128 0x1a
 1846 0761 E0020000 		.4byte	.LASF102
 1847 0765 03       		.byte	0x3
 1848 0766 47       		.byte	0x47
 1849 0767 03       		.byte	0x3
 1850 0768 78070000 		.4byte	0x778
 1851 076c 1B       		.uleb128 0x1b
 1852 076d D6010000 		.4byte	.LASF104
 1853 0771 03       		.byte	0x3
 1854 0772 47       		.byte	0x47
 1855 0773 1B010000 		.4byte	0x11b
 1856 0777 00       		.byte	0
 1857 0778 1A       		.uleb128 0x1a
 1858 0779 54030000 		.4byte	.LASF103
 1859 077d 03       		.byte	0x3
 1860 077e 5D       		.byte	0x5d
 1861 077f 03       		.byte	0x3
 1862 0780 90070000 		.4byte	0x790
 1863 0784 1B       		.uleb128 0x1b
 1864 0785 D6010000 		.4byte	.LASF104
 1865 0789 03       		.byte	0x3
 1866 078a 5D       		.byte	0x5d
 1867 078b 1B010000 		.4byte	0x11b
 1868 078f 00       		.byte	0
 1869 0790 1C       		.uleb128 0x1c
 1870 0791 D6040000 		.4byte	.LASF116
 1871 0795 03       		.byte	0x3
 1872 0796 51       		.byte	0x51
 1873 0797 03       		.byte	0x3
 1874 0798 1D       		.uleb128 0x1d
 1875 0799 1A030000 		.4byte	.LASF110
 1876 079d 01       		.byte	0x1
 1877 079e BE       		.byte	0xbe
 1878 079f 01       		.byte	0x1
 1879 07a0 D3070000 		.4byte	0x7d3
 1880 07a4 1E       		.uleb128 0x1e
 1881 07a5 76747000 		.ascii	"vtp\000"
 1882 07a9 01       		.byte	0x1
 1883 07aa BE       		.byte	0xbe
 1884 07ab 20070000 		.4byte	0x720
 1885 07af 1F       		.uleb128 0x1f
 1886 07b0 C6050000 		.4byte	.LASF105
 1887 07b4 E3070000 		.4byte	0x7e3
ARM GAS  /tmp/ccrw7w3s.s 			page 66


 1888 07b8 1A030000 		.4byte	.LASF110
 1889 07bc 20       		.uleb128 0x20
 1890 07bd CD010000 		.4byte	.LASF106
 1891 07c1 01       		.byte	0x1
 1892 07c2 D2       		.byte	0xd2
 1893 07c3 1B010000 		.4byte	0x11b
 1894 07c7 20       		.uleb128 0x20
 1895 07c8 A2050000 		.4byte	.LASF56
 1896 07cc 01       		.byte	0x1
 1897 07cd D2       		.byte	0xd2
 1898 07ce 1B010000 		.4byte	0x11b
 1899 07d2 00       		.byte	0
 1900 07d3 10       		.uleb128 0x10
 1901 07d4 13070000 		.4byte	0x713
 1902 07d8 E3070000 		.4byte	0x7e3
 1903 07dc 11       		.uleb128 0x11
 1904 07dd 1F040000 		.4byte	0x41f
 1905 07e1 0C       		.byte	0xc
 1906 07e2 00       		.byte	0
 1907 07e3 18       		.uleb128 0x18
 1908 07e4 D3070000 		.4byte	0x7d3
 1909 07e8 21       		.uleb128 0x21
 1910 07e9 4D000000 		.4byte	.LASF117
 1911 07ed 01       		.byte	0x1
 1912 07ee 3D       		.byte	0x3d
 1913 07ef 00000000 		.4byte	.LFB239
 1914 07f3 1C000000 		.4byte	.LFE239-.LFB239
 1915 07f7 01       		.uleb128 0x1
 1916 07f8 9C       		.byte	0x9c
 1917 07f9 22       		.uleb128 0x22
 1918 07fa FE040000 		.4byte	.LASF118
 1919 07fe 01       		.byte	0x1
 1920 07ff 5F       		.byte	0x5f
 1921 0800 00000000 		.4byte	.LFB240
 1922 0804 84000000 		.4byte	.LFE240-.LFB240
 1923 0808 01       		.uleb128 0x1
 1924 0809 9C       		.byte	0x9c
 1925 080a FC080000 		.4byte	0x8fc
 1926 080e 23       		.uleb128 0x23
 1927 080f 76747000 		.ascii	"vtp\000"
 1928 0813 01       		.byte	0x1
 1929 0814 5F       		.byte	0x5f
 1930 0815 20070000 		.4byte	0x720
 1931 0819 00000000 		.4byte	.LLST0
 1932 081d 24       		.uleb128 0x24
 1933 081e A2030000 		.4byte	.LASF107
 1934 0822 01       		.byte	0x1
 1935 0823 5F       		.byte	0x5f
 1936 0824 1B010000 		.4byte	0x11b
 1937 0828 42000000 		.4byte	.LLST1
 1938 082c 24       		.uleb128 0x24
 1939 082d 6F000000 		.4byte	.LASF108
 1940 0831 01       		.byte	0x1
 1941 0832 60       		.byte	0x60
 1942 0833 DB020000 		.4byte	0x2db
 1943 0837 E7000000 		.4byte	.LLST2
 1944 083b 23       		.uleb128 0x23
ARM GAS  /tmp/ccrw7w3s.s 			page 67


 1945 083c 70617200 		.ascii	"par\000"
 1946 0840 01       		.byte	0x1
 1947 0841 60       		.byte	0x60
 1948 0842 F7020000 		.4byte	0x2f7
 1949 0846 51010000 		.4byte	.LLST3
 1950 084a 25       		.uleb128 0x25
 1951 084b 7000     		.ascii	"p\000"
 1952 084d 01       		.byte	0x1
 1953 084e 61       		.byte	0x61
 1954 084f 20070000 		.4byte	0x720
 1955 0853 CA010000 		.4byte	.LLST4
 1956 0857 26       		.uleb128 0x26
 1957 0858 A2050000 		.4byte	.LASF56
 1958 085c 01       		.byte	0x1
 1959 085d 62       		.byte	0x62
 1960 085e 1B010000 		.4byte	0x11b
 1961 0862 FF010000 		.4byte	.LLST5
 1962 0866 27       		.uleb128 0x27
 1963 0867 69050000 		.4byte	.LASF119
 1964 086b 0C090000 		.4byte	0x90c
 1965 086f 28       		.uleb128 0x28
 1966 0870 00000000 		.4byte	.Ldebug_ranges0+0
 1967 0874 29       		.uleb128 0x29
 1968 0875 6E6F7700 		.ascii	"now\000"
 1969 0879 01       		.byte	0x1
 1970 087a 6C       		.byte	0x6c
 1971 087b 1B010000 		.4byte	0x11b
 1972 087f 2A       		.uleb128 0x2a
 1973 0880 54070000 		.4byte	0x754
 1974 0884 12000000 		.4byte	.LBB36
 1975 0888 30000000 		.4byte	.Ldebug_ranges0+0x30
 1976 088c 01       		.byte	0x1
 1977 088d 6C       		.byte	0x6c
 1978 088e B2080000 		.4byte	0x8b2
 1979 0892 2B       		.uleb128 0x2b
 1980 0893 48070000 		.4byte	0x748
 1981 0897 12000000 		.4byte	.LBB37
 1982 089b 30000000 		.4byte	.Ldebug_ranges0+0x30
 1983 089f 0F       		.byte	0xf
 1984 08a0 E9       		.byte	0xe9
 1985 08a1 2C       		.uleb128 0x2c
 1986 08a2 3C070000 		.4byte	0x73c
 1987 08a6 12000000 		.4byte	.LBB38
 1988 08aa 30000000 		.4byte	.Ldebug_ranges0+0x30
 1989 08ae 03       		.byte	0x3
 1990 08af 6B       		.byte	0x6b
 1991 08b0 00       		.byte	0
 1992 08b1 00       		.byte	0
 1993 08b2 2D       		.uleb128 0x2d
 1994 08b3 78070000 		.4byte	0x778
 1995 08b7 5E000000 		.4byte	.LBB44
 1996 08bb 0A000000 		.4byte	.LBE44-.LBB44
 1997 08bf 01       		.byte	0x1
 1998 08c0 97       		.byte	0x97
 1999 08c1 D8080000 		.4byte	0x8d8
 2000 08c5 2E       		.uleb128 0x2e
 2001 08c6 84070000 		.4byte	0x784
ARM GAS  /tmp/ccrw7w3s.s 			page 68


 2002 08ca 3C020000 		.4byte	.LLST6
 2003 08ce 2F       		.uleb128 0x2f
 2004 08cf 64000000 		.4byte	.LVL19
 2005 08d3 F8090000 		.4byte	0x9f8
 2006 08d7 00       		.byte	0
 2007 08d8 2B       		.uleb128 0x2b
 2008 08d9 60070000 		.4byte	0x760
 2009 08dd 6E000000 		.4byte	.LBB46
 2010 08e1 48000000 		.4byte	.Ldebug_ranges0+0x48
 2011 08e5 01       		.byte	0x1
 2012 08e6 81       		.byte	0x81
 2013 08e7 2E       		.uleb128 0x2e
 2014 08e8 6C070000 		.4byte	0x76c
 2015 08ec 5F020000 		.4byte	.LLST7
 2016 08f0 30       		.uleb128 0x30
 2017 08f1 7E000000 		.4byte	.LVL24
 2018 08f5 090A0000 		.4byte	0xa09
 2019 08f9 00       		.byte	0
 2020 08fa 00       		.byte	0
 2021 08fb 00       		.byte	0
 2022 08fc 10       		.uleb128 0x10
 2023 08fd 13070000 		.4byte	0x713
 2024 0901 0C090000 		.4byte	0x90c
 2025 0905 11       		.uleb128 0x11
 2026 0906 1F040000 		.4byte	0x41f
 2027 090a 0A       		.byte	0xa
 2028 090b 00       		.byte	0
 2029 090c 18       		.uleb128 0x18
 2030 090d FC080000 		.4byte	0x8fc
 2031 0911 31       		.uleb128 0x31
 2032 0912 98070000 		.4byte	0x798
 2033 0916 00000000 		.4byte	.LFB241
 2034 091a 74000000 		.4byte	.LFE241-.LFB241
 2035 091e 01       		.uleb128 0x1
 2036 091f 9C       		.byte	0x9c
 2037 0920 DC090000 		.4byte	0x9dc
 2038 0924 2E       		.uleb128 0x2e
 2039 0925 A4070000 		.4byte	0x7a4
 2040 0929 78020000 		.4byte	.LLST8
 2041 092d 32       		.uleb128 0x32
 2042 092e AF070000 		.4byte	0x7af
 2043 0932 32       		.uleb128 0x32
 2044 0933 BC070000 		.4byte	0x7bc
 2045 0937 32       		.uleb128 0x32
 2046 0938 C7070000 		.4byte	0x7c7
 2047 093c 28       		.uleb128 0x28
 2048 093d 60000000 		.4byte	.Ldebug_ranges0+0x60
 2049 0941 2E       		.uleb128 0x2e
 2050 0942 A4070000 		.4byte	0x7a4
 2051 0946 B2020000 		.4byte	.LLST9
 2052 094a 28       		.uleb128 0x28
 2053 094b 60000000 		.4byte	.Ldebug_ranges0+0x60
 2054 094f 33       		.uleb128 0x33
 2055 0950 BC070000 		.4byte	0x7bc
 2056 0954 D0020000 		.4byte	.LLST10
 2057 0958 33       		.uleb128 0x33
 2058 0959 C7070000 		.4byte	0x7c7
ARM GAS  /tmp/ccrw7w3s.s 			page 69


 2059 095d E3020000 		.4byte	.LLST11
 2060 0961 32       		.uleb128 0x32
 2061 0962 AF070000 		.4byte	0x7af
 2062 0966 2A       		.uleb128 0x2a
 2063 0967 54070000 		.4byte	0x754
 2064 096b 46000000 		.4byte	.LBB66
 2065 096f 80000000 		.4byte	.Ldebug_ranges0+0x80
 2066 0973 01       		.byte	0x1
 2067 0974 F9       		.byte	0xf9
 2068 0975 99090000 		.4byte	0x999
 2069 0979 2B       		.uleb128 0x2b
 2070 097a 48070000 		.4byte	0x748
 2071 097e 46000000 		.4byte	.LBB67
 2072 0982 80000000 		.4byte	.Ldebug_ranges0+0x80
 2073 0986 0F       		.byte	0xf
 2074 0987 E9       		.byte	0xe9
 2075 0988 2C       		.uleb128 0x2c
 2076 0989 3C070000 		.4byte	0x73c
 2077 098d 46000000 		.4byte	.LBB68
 2078 0991 80000000 		.4byte	.Ldebug_ranges0+0x80
 2079 0995 03       		.byte	0x3
 2080 0996 6B       		.byte	0x6b
 2081 0997 00       		.byte	0
 2082 0998 00       		.byte	0
 2083 0999 34       		.uleb128 0x34
 2084 099a 78070000 		.4byte	0x778
 2085 099e 5C000000 		.4byte	.LBB74
 2086 09a2 98000000 		.4byte	.Ldebug_ranges0+0x98
 2087 09a6 01       		.byte	0x1
 2088 09a7 0A01     		.2byte	0x10a
 2089 09a9 C0090000 		.4byte	0x9c0
 2090 09ad 2E       		.uleb128 0x2e
 2091 09ae 84070000 		.4byte	0x784
 2092 09b2 F6020000 		.4byte	.LLST12
 2093 09b6 30       		.uleb128 0x30
 2094 09b7 66000000 		.4byte	.LVL34
 2095 09bb F8090000 		.4byte	0x9f8
 2096 09bf 00       		.byte	0
 2097 09c0 35       		.uleb128 0x35
 2098 09c1 90070000 		.4byte	0x790
 2099 09c5 6A000000 		.4byte	.LBB78
 2100 09c9 0A000000 		.4byte	.LBE78-.LBB78
 2101 09cd 01       		.byte	0x1
 2102 09ce EA       		.byte	0xea
 2103 09cf 30       		.uleb128 0x30
 2104 09d0 6E000000 		.4byte	.LVL35
 2105 09d4 1A0A0000 		.4byte	0xa1a
 2106 09d8 00       		.byte	0
 2107 09d9 00       		.byte	0
 2108 09da 00       		.byte	0
 2109 09db 00       		.byte	0
 2110 09dc 36       		.uleb128 0x36
 2111 09dd 95030000 		.4byte	.LASF109
 2112 09e1 11       		.byte	0x11
 2113 09e2 4407     		.2byte	0x744
 2114 09e4 E8090000 		.4byte	0x9e8
 2115 09e8 0F       		.uleb128 0xf
ARM GAS  /tmp/ccrw7w3s.s 			page 70


 2116 09e9 A2000000 		.4byte	0xa2
 2117 09ed 37       		.uleb128 0x37
 2118 09ee 636800   		.ascii	"ch\000"
 2119 09f1 08       		.byte	0x8
 2120 09f2 D201     		.2byte	0x1d2
 2121 09f4 C6030000 		.4byte	0x3c6
 2122 09f8 38       		.uleb128 0x38
 2123 09f9 34010000 		.4byte	.LASF111
 2124 09fd 10       		.byte	0x10
 2125 09fe 59       		.byte	0x59
 2126 09ff 090A0000 		.4byte	0xa09
 2127 0a03 0D       		.uleb128 0xd
 2128 0a04 1B010000 		.4byte	0x11b
 2129 0a08 00       		.byte	0
 2130 0a09 38       		.uleb128 0x38
 2131 0a0a 58010000 		.4byte	.LASF112
 2132 0a0e 10       		.byte	0x10
 2133 0a0f 57       		.byte	0x57
 2134 0a10 1A0A0000 		.4byte	0xa1a
 2135 0a14 0D       		.uleb128 0xd
 2136 0a15 1B010000 		.4byte	0x11b
 2137 0a19 00       		.byte	0
 2138 0a1a 39       		.uleb128 0x39
 2139 0a1b B2030000 		.4byte	.LASF120
 2140 0a1f 10       		.byte	0x10
 2141 0a20 58       		.byte	0x58
 2142 0a21 00       		.byte	0
 2143              		.section	.debug_abbrev,"",%progbits
 2144              	.Ldebug_abbrev0:
 2145 0000 01       		.uleb128 0x1
 2146 0001 11       		.uleb128 0x11
 2147 0002 01       		.byte	0x1
 2148 0003 25       		.uleb128 0x25
 2149 0004 0E       		.uleb128 0xe
 2150 0005 13       		.uleb128 0x13
 2151 0006 0B       		.uleb128 0xb
 2152 0007 03       		.uleb128 0x3
 2153 0008 0E       		.uleb128 0xe
 2154 0009 1B       		.uleb128 0x1b
 2155 000a 0E       		.uleb128 0xe
 2156 000b 55       		.uleb128 0x55
 2157 000c 17       		.uleb128 0x17
 2158 000d 11       		.uleb128 0x11
 2159 000e 01       		.uleb128 0x1
 2160 000f 10       		.uleb128 0x10
 2161 0010 17       		.uleb128 0x17
 2162 0011 00       		.byte	0
 2163 0012 00       		.byte	0
 2164 0013 02       		.uleb128 0x2
 2165 0014 24       		.uleb128 0x24
 2166 0015 00       		.byte	0
 2167 0016 0B       		.uleb128 0xb
 2168 0017 0B       		.uleb128 0xb
 2169 0018 3E       		.uleb128 0x3e
 2170 0019 0B       		.uleb128 0xb
 2171 001a 03       		.uleb128 0x3
 2172 001b 08       		.uleb128 0x8
ARM GAS  /tmp/ccrw7w3s.s 			page 71


 2173 001c 00       		.byte	0
 2174 001d 00       		.byte	0
 2175 001e 03       		.uleb128 0x3
 2176 001f 24       		.uleb128 0x24
 2177 0020 00       		.byte	0
 2178 0021 0B       		.uleb128 0xb
 2179 0022 0B       		.uleb128 0xb
 2180 0023 3E       		.uleb128 0x3e
 2181 0024 0B       		.uleb128 0xb
 2182 0025 03       		.uleb128 0x3
 2183 0026 0E       		.uleb128 0xe
 2184 0027 00       		.byte	0
 2185 0028 00       		.byte	0
 2186 0029 04       		.uleb128 0x4
 2187 002a 16       		.uleb128 0x16
 2188 002b 00       		.byte	0
 2189 002c 03       		.uleb128 0x3
 2190 002d 0E       		.uleb128 0xe
 2191 002e 3A       		.uleb128 0x3a
 2192 002f 0B       		.uleb128 0xb
 2193 0030 3B       		.uleb128 0x3b
 2194 0031 0B       		.uleb128 0xb
 2195 0032 49       		.uleb128 0x49
 2196 0033 13       		.uleb128 0x13
 2197 0034 00       		.byte	0
 2198 0035 00       		.byte	0
 2199 0036 05       		.uleb128 0x5
 2200 0037 13       		.uleb128 0x13
 2201 0038 01       		.byte	0x1
 2202 0039 03       		.uleb128 0x3
 2203 003a 0E       		.uleb128 0xe
 2204 003b 0B       		.uleb128 0xb
 2205 003c 0B       		.uleb128 0xb
 2206 003d 3A       		.uleb128 0x3a
 2207 003e 0B       		.uleb128 0xb
 2208 003f 3B       		.uleb128 0x3b
 2209 0040 0B       		.uleb128 0xb
 2210 0041 01       		.uleb128 0x1
 2211 0042 13       		.uleb128 0x13
 2212 0043 00       		.byte	0
 2213 0044 00       		.byte	0
 2214 0045 06       		.uleb128 0x6
 2215 0046 0D       		.uleb128 0xd
 2216 0047 00       		.byte	0
 2217 0048 03       		.uleb128 0x3
 2218 0049 0E       		.uleb128 0xe
 2219 004a 3A       		.uleb128 0x3a
 2220 004b 0B       		.uleb128 0xb
 2221 004c 3B       		.uleb128 0x3b
 2222 004d 0B       		.uleb128 0xb
 2223 004e 49       		.uleb128 0x49
 2224 004f 13       		.uleb128 0x13
 2225 0050 38       		.uleb128 0x38
 2226 0051 0B       		.uleb128 0xb
 2227 0052 00       		.byte	0
 2228 0053 00       		.byte	0
 2229 0054 07       		.uleb128 0x7
ARM GAS  /tmp/ccrw7w3s.s 			page 72


 2230 0055 0D       		.uleb128 0xd
 2231 0056 00       		.byte	0
 2232 0057 03       		.uleb128 0x3
 2233 0058 08       		.uleb128 0x8
 2234 0059 3A       		.uleb128 0x3a
 2235 005a 0B       		.uleb128 0xb
 2236 005b 3B       		.uleb128 0x3b
 2237 005c 0B       		.uleb128 0xb
 2238 005d 49       		.uleb128 0x49
 2239 005e 13       		.uleb128 0x13
 2240 005f 38       		.uleb128 0x38
 2241 0060 0B       		.uleb128 0xb
 2242 0061 00       		.byte	0
 2243 0062 00       		.byte	0
 2244 0063 08       		.uleb128 0x8
 2245 0064 0D       		.uleb128 0xd
 2246 0065 00       		.byte	0
 2247 0066 03       		.uleb128 0x3
 2248 0067 08       		.uleb128 0x8
 2249 0068 3A       		.uleb128 0x3a
 2250 0069 0B       		.uleb128 0xb
 2251 006a 3B       		.uleb128 0x3b
 2252 006b 05       		.uleb128 0x5
 2253 006c 49       		.uleb128 0x49
 2254 006d 13       		.uleb128 0x13
 2255 006e 38       		.uleb128 0x38
 2256 006f 0B       		.uleb128 0xb
 2257 0070 00       		.byte	0
 2258 0071 00       		.byte	0
 2259 0072 09       		.uleb128 0x9
 2260 0073 0D       		.uleb128 0xd
 2261 0074 00       		.byte	0
 2262 0075 03       		.uleb128 0x3
 2263 0076 0E       		.uleb128 0xe
 2264 0077 3A       		.uleb128 0x3a
 2265 0078 0B       		.uleb128 0xb
 2266 0079 3B       		.uleb128 0x3b
 2267 007a 05       		.uleb128 0x5
 2268 007b 49       		.uleb128 0x49
 2269 007c 13       		.uleb128 0x13
 2270 007d 38       		.uleb128 0x38
 2271 007e 0B       		.uleb128 0xb
 2272 007f 00       		.byte	0
 2273 0080 00       		.byte	0
 2274 0081 0A       		.uleb128 0xa
 2275 0082 0F       		.uleb128 0xf
 2276 0083 00       		.byte	0
 2277 0084 0B       		.uleb128 0xb
 2278 0085 0B       		.uleb128 0xb
 2279 0086 49       		.uleb128 0x49
 2280 0087 13       		.uleb128 0x13
 2281 0088 00       		.byte	0
 2282 0089 00       		.byte	0
 2283 008a 0B       		.uleb128 0xb
 2284 008b 13       		.uleb128 0x13
 2285 008c 01       		.byte	0x1
 2286 008d 03       		.uleb128 0x3
ARM GAS  /tmp/ccrw7w3s.s 			page 73


 2287 008e 0E       		.uleb128 0xe
 2288 008f 0B       		.uleb128 0xb
 2289 0090 0B       		.uleb128 0xb
 2290 0091 3A       		.uleb128 0x3a
 2291 0092 0B       		.uleb128 0xb
 2292 0093 3B       		.uleb128 0x3b
 2293 0094 05       		.uleb128 0x5
 2294 0095 01       		.uleb128 0x1
 2295 0096 13       		.uleb128 0x13
 2296 0097 00       		.byte	0
 2297 0098 00       		.byte	0
 2298 0099 0C       		.uleb128 0xc
 2299 009a 15       		.uleb128 0x15
 2300 009b 01       		.byte	0x1
 2301 009c 27       		.uleb128 0x27
 2302 009d 19       		.uleb128 0x19
 2303 009e 01       		.uleb128 0x1
 2304 009f 13       		.uleb128 0x13
 2305 00a0 00       		.byte	0
 2306 00a1 00       		.byte	0
 2307 00a2 0D       		.uleb128 0xd
 2308 00a3 05       		.uleb128 0x5
 2309 00a4 00       		.byte	0
 2310 00a5 49       		.uleb128 0x49
 2311 00a6 13       		.uleb128 0x13
 2312 00a7 00       		.byte	0
 2313 00a8 00       		.byte	0
 2314 00a9 0E       		.uleb128 0xe
 2315 00aa 0F       		.uleb128 0xf
 2316 00ab 00       		.byte	0
 2317 00ac 0B       		.uleb128 0xb
 2318 00ad 0B       		.uleb128 0xb
 2319 00ae 00       		.byte	0
 2320 00af 00       		.byte	0
 2321 00b0 0F       		.uleb128 0xf
 2322 00b1 35       		.uleb128 0x35
 2323 00b2 00       		.byte	0
 2324 00b3 49       		.uleb128 0x49
 2325 00b4 13       		.uleb128 0x13
 2326 00b5 00       		.byte	0
 2327 00b6 00       		.byte	0
 2328 00b7 10       		.uleb128 0x10
 2329 00b8 01       		.uleb128 0x1
 2330 00b9 01       		.byte	0x1
 2331 00ba 49       		.uleb128 0x49
 2332 00bb 13       		.uleb128 0x13
 2333 00bc 01       		.uleb128 0x1
 2334 00bd 13       		.uleb128 0x13
 2335 00be 00       		.byte	0
 2336 00bf 00       		.byte	0
 2337 00c0 11       		.uleb128 0x11
 2338 00c1 21       		.uleb128 0x21
 2339 00c2 00       		.byte	0
 2340 00c3 49       		.uleb128 0x49
 2341 00c4 13       		.uleb128 0x13
 2342 00c5 2F       		.uleb128 0x2f
 2343 00c6 0B       		.uleb128 0xb
ARM GAS  /tmp/ccrw7w3s.s 			page 74


 2344 00c7 00       		.byte	0
 2345 00c8 00       		.byte	0
 2346 00c9 12       		.uleb128 0x12
 2347 00ca 13       		.uleb128 0x13
 2348 00cb 01       		.byte	0x1
 2349 00cc 0B       		.uleb128 0xb
 2350 00cd 0B       		.uleb128 0xb
 2351 00ce 3A       		.uleb128 0x3a
 2352 00cf 0B       		.uleb128 0xb
 2353 00d0 3B       		.uleb128 0x3b
 2354 00d1 05       		.uleb128 0x5
 2355 00d2 01       		.uleb128 0x1
 2356 00d3 13       		.uleb128 0x13
 2357 00d4 00       		.byte	0
 2358 00d5 00       		.byte	0
 2359 00d6 13       		.uleb128 0x13
 2360 00d7 16       		.uleb128 0x16
 2361 00d8 00       		.byte	0
 2362 00d9 03       		.uleb128 0x3
 2363 00da 0E       		.uleb128 0xe
 2364 00db 3A       		.uleb128 0x3a
 2365 00dc 0B       		.uleb128 0xb
 2366 00dd 3B       		.uleb128 0x3b
 2367 00de 05       		.uleb128 0x5
 2368 00df 49       		.uleb128 0x49
 2369 00e0 13       		.uleb128 0x13
 2370 00e1 00       		.byte	0
 2371 00e2 00       		.byte	0
 2372 00e3 14       		.uleb128 0x14
 2373 00e4 13       		.uleb128 0x13
 2374 00e5 01       		.byte	0x1
 2375 00e6 0B       		.uleb128 0xb
 2376 00e7 0B       		.uleb128 0xb
 2377 00e8 3A       		.uleb128 0x3a
 2378 00e9 0B       		.uleb128 0xb
 2379 00ea 3B       		.uleb128 0x3b
 2380 00eb 0B       		.uleb128 0xb
 2381 00ec 01       		.uleb128 0x1
 2382 00ed 13       		.uleb128 0x13
 2383 00ee 00       		.byte	0
 2384 00ef 00       		.byte	0
 2385 00f0 15       		.uleb128 0x15
 2386 00f1 17       		.uleb128 0x17
 2387 00f2 01       		.byte	0x1
 2388 00f3 0B       		.uleb128 0xb
 2389 00f4 0B       		.uleb128 0xb
 2390 00f5 3A       		.uleb128 0x3a
 2391 00f6 0B       		.uleb128 0xb
 2392 00f7 3B       		.uleb128 0x3b
 2393 00f8 0B       		.uleb128 0xb
 2394 00f9 01       		.uleb128 0x1
 2395 00fa 13       		.uleb128 0x13
 2396 00fb 00       		.byte	0
 2397 00fc 00       		.byte	0
 2398 00fd 16       		.uleb128 0x16
 2399 00fe 0D       		.uleb128 0xd
 2400 00ff 00       		.byte	0
ARM GAS  /tmp/ccrw7w3s.s 			page 75


 2401 0100 03       		.uleb128 0x3
 2402 0101 0E       		.uleb128 0xe
 2403 0102 3A       		.uleb128 0x3a
 2404 0103 0B       		.uleb128 0xb
 2405 0104 3B       		.uleb128 0x3b
 2406 0105 0B       		.uleb128 0xb
 2407 0106 49       		.uleb128 0x49
 2408 0107 13       		.uleb128 0x13
 2409 0108 00       		.byte	0
 2410 0109 00       		.byte	0
 2411 010a 17       		.uleb128 0x17
 2412 010b 0D       		.uleb128 0xd
 2413 010c 00       		.byte	0
 2414 010d 03       		.uleb128 0x3
 2415 010e 0E       		.uleb128 0xe
 2416 010f 3A       		.uleb128 0x3a
 2417 0110 0B       		.uleb128 0xb
 2418 0111 3B       		.uleb128 0x3b
 2419 0112 05       		.uleb128 0x5
 2420 0113 49       		.uleb128 0x49
 2421 0114 13       		.uleb128 0x13
 2422 0115 00       		.byte	0
 2423 0116 00       		.byte	0
 2424 0117 18       		.uleb128 0x18
 2425 0118 26       		.uleb128 0x26
 2426 0119 00       		.byte	0
 2427 011a 49       		.uleb128 0x49
 2428 011b 13       		.uleb128 0x13
 2429 011c 00       		.byte	0
 2430 011d 00       		.byte	0
 2431 011e 19       		.uleb128 0x19
 2432 011f 2E       		.uleb128 0x2e
 2433 0120 00       		.byte	0
 2434 0121 03       		.uleb128 0x3
 2435 0122 0E       		.uleb128 0xe
 2436 0123 3A       		.uleb128 0x3a
 2437 0124 0B       		.uleb128 0xb
 2438 0125 3B       		.uleb128 0x3b
 2439 0126 0B       		.uleb128 0xb
 2440 0127 27       		.uleb128 0x27
 2441 0128 19       		.uleb128 0x19
 2442 0129 49       		.uleb128 0x49
 2443 012a 13       		.uleb128 0x13
 2444 012b 20       		.uleb128 0x20
 2445 012c 0B       		.uleb128 0xb
 2446 012d 00       		.byte	0
 2447 012e 00       		.byte	0
 2448 012f 1A       		.uleb128 0x1a
 2449 0130 2E       		.uleb128 0x2e
 2450 0131 01       		.byte	0x1
 2451 0132 03       		.uleb128 0x3
 2452 0133 0E       		.uleb128 0xe
 2453 0134 3A       		.uleb128 0x3a
 2454 0135 0B       		.uleb128 0xb
 2455 0136 3B       		.uleb128 0x3b
 2456 0137 0B       		.uleb128 0xb
 2457 0138 27       		.uleb128 0x27
ARM GAS  /tmp/ccrw7w3s.s 			page 76


 2458 0139 19       		.uleb128 0x19
 2459 013a 20       		.uleb128 0x20
 2460 013b 0B       		.uleb128 0xb
 2461 013c 01       		.uleb128 0x1
 2462 013d 13       		.uleb128 0x13
 2463 013e 00       		.byte	0
 2464 013f 00       		.byte	0
 2465 0140 1B       		.uleb128 0x1b
 2466 0141 05       		.uleb128 0x5
 2467 0142 00       		.byte	0
 2468 0143 03       		.uleb128 0x3
 2469 0144 0E       		.uleb128 0xe
 2470 0145 3A       		.uleb128 0x3a
 2471 0146 0B       		.uleb128 0xb
 2472 0147 3B       		.uleb128 0x3b
 2473 0148 0B       		.uleb128 0xb
 2474 0149 49       		.uleb128 0x49
 2475 014a 13       		.uleb128 0x13
 2476 014b 00       		.byte	0
 2477 014c 00       		.byte	0
 2478 014d 1C       		.uleb128 0x1c
 2479 014e 2E       		.uleb128 0x2e
 2480 014f 00       		.byte	0
 2481 0150 03       		.uleb128 0x3
 2482 0151 0E       		.uleb128 0xe
 2483 0152 3A       		.uleb128 0x3a
 2484 0153 0B       		.uleb128 0xb
 2485 0154 3B       		.uleb128 0x3b
 2486 0155 0B       		.uleb128 0xb
 2487 0156 27       		.uleb128 0x27
 2488 0157 19       		.uleb128 0x19
 2489 0158 20       		.uleb128 0x20
 2490 0159 0B       		.uleb128 0xb
 2491 015a 00       		.byte	0
 2492 015b 00       		.byte	0
 2493 015c 1D       		.uleb128 0x1d
 2494 015d 2E       		.uleb128 0x2e
 2495 015e 01       		.byte	0x1
 2496 015f 3F       		.uleb128 0x3f
 2497 0160 19       		.uleb128 0x19
 2498 0161 03       		.uleb128 0x3
 2499 0162 0E       		.uleb128 0xe
 2500 0163 3A       		.uleb128 0x3a
 2501 0164 0B       		.uleb128 0xb
 2502 0165 3B       		.uleb128 0x3b
 2503 0166 0B       		.uleb128 0xb
 2504 0167 27       		.uleb128 0x27
 2505 0168 19       		.uleb128 0x19
 2506 0169 20       		.uleb128 0x20
 2507 016a 0B       		.uleb128 0xb
 2508 016b 01       		.uleb128 0x1
 2509 016c 13       		.uleb128 0x13
 2510 016d 00       		.byte	0
 2511 016e 00       		.byte	0
 2512 016f 1E       		.uleb128 0x1e
 2513 0170 05       		.uleb128 0x5
 2514 0171 00       		.byte	0
ARM GAS  /tmp/ccrw7w3s.s 			page 77


 2515 0172 03       		.uleb128 0x3
 2516 0173 08       		.uleb128 0x8
 2517 0174 3A       		.uleb128 0x3a
 2518 0175 0B       		.uleb128 0xb
 2519 0176 3B       		.uleb128 0x3b
 2520 0177 0B       		.uleb128 0xb
 2521 0178 49       		.uleb128 0x49
 2522 0179 13       		.uleb128 0x13
 2523 017a 00       		.byte	0
 2524 017b 00       		.byte	0
 2525 017c 1F       		.uleb128 0x1f
 2526 017d 34       		.uleb128 0x34
 2527 017e 00       		.byte	0
 2528 017f 03       		.uleb128 0x3
 2529 0180 0E       		.uleb128 0xe
 2530 0181 49       		.uleb128 0x49
 2531 0182 13       		.uleb128 0x13
 2532 0183 34       		.uleb128 0x34
 2533 0184 19       		.uleb128 0x19
 2534 0185 1C       		.uleb128 0x1c
 2535 0186 0E       		.uleb128 0xe
 2536 0187 00       		.byte	0
 2537 0188 00       		.byte	0
 2538 0189 20       		.uleb128 0x20
 2539 018a 34       		.uleb128 0x34
 2540 018b 00       		.byte	0
 2541 018c 03       		.uleb128 0x3
 2542 018d 0E       		.uleb128 0xe
 2543 018e 3A       		.uleb128 0x3a
 2544 018f 0B       		.uleb128 0xb
 2545 0190 3B       		.uleb128 0x3b
 2546 0191 0B       		.uleb128 0xb
 2547 0192 49       		.uleb128 0x49
 2548 0193 13       		.uleb128 0x13
 2549 0194 00       		.byte	0
 2550 0195 00       		.byte	0
 2551 0196 21       		.uleb128 0x21
 2552 0197 2E       		.uleb128 0x2e
 2553 0198 00       		.byte	0
 2554 0199 3F       		.uleb128 0x3f
 2555 019a 19       		.uleb128 0x19
 2556 019b 03       		.uleb128 0x3
 2557 019c 0E       		.uleb128 0xe
 2558 019d 3A       		.uleb128 0x3a
 2559 019e 0B       		.uleb128 0xb
 2560 019f 3B       		.uleb128 0x3b
 2561 01a0 0B       		.uleb128 0xb
 2562 01a1 27       		.uleb128 0x27
 2563 01a2 19       		.uleb128 0x19
 2564 01a3 11       		.uleb128 0x11
 2565 01a4 01       		.uleb128 0x1
 2566 01a5 12       		.uleb128 0x12
 2567 01a6 06       		.uleb128 0x6
 2568 01a7 40       		.uleb128 0x40
 2569 01a8 18       		.uleb128 0x18
 2570 01a9 9742     		.uleb128 0x2117
 2571 01ab 19       		.uleb128 0x19
ARM GAS  /tmp/ccrw7w3s.s 			page 78


 2572 01ac 00       		.byte	0
 2573 01ad 00       		.byte	0
 2574 01ae 22       		.uleb128 0x22
 2575 01af 2E       		.uleb128 0x2e
 2576 01b0 01       		.byte	0x1
 2577 01b1 3F       		.uleb128 0x3f
 2578 01b2 19       		.uleb128 0x19
 2579 01b3 03       		.uleb128 0x3
 2580 01b4 0E       		.uleb128 0xe
 2581 01b5 3A       		.uleb128 0x3a
 2582 01b6 0B       		.uleb128 0xb
 2583 01b7 3B       		.uleb128 0x3b
 2584 01b8 0B       		.uleb128 0xb
 2585 01b9 27       		.uleb128 0x27
 2586 01ba 19       		.uleb128 0x19
 2587 01bb 11       		.uleb128 0x11
 2588 01bc 01       		.uleb128 0x1
 2589 01bd 12       		.uleb128 0x12
 2590 01be 06       		.uleb128 0x6
 2591 01bf 40       		.uleb128 0x40
 2592 01c0 18       		.uleb128 0x18
 2593 01c1 9742     		.uleb128 0x2117
 2594 01c3 19       		.uleb128 0x19
 2595 01c4 01       		.uleb128 0x1
 2596 01c5 13       		.uleb128 0x13
 2597 01c6 00       		.byte	0
 2598 01c7 00       		.byte	0
 2599 01c8 23       		.uleb128 0x23
 2600 01c9 05       		.uleb128 0x5
 2601 01ca 00       		.byte	0
 2602 01cb 03       		.uleb128 0x3
 2603 01cc 08       		.uleb128 0x8
 2604 01cd 3A       		.uleb128 0x3a
 2605 01ce 0B       		.uleb128 0xb
 2606 01cf 3B       		.uleb128 0x3b
 2607 01d0 0B       		.uleb128 0xb
 2608 01d1 49       		.uleb128 0x49
 2609 01d2 13       		.uleb128 0x13
 2610 01d3 02       		.uleb128 0x2
 2611 01d4 17       		.uleb128 0x17
 2612 01d5 00       		.byte	0
 2613 01d6 00       		.byte	0
 2614 01d7 24       		.uleb128 0x24
 2615 01d8 05       		.uleb128 0x5
 2616 01d9 00       		.byte	0
 2617 01da 03       		.uleb128 0x3
 2618 01db 0E       		.uleb128 0xe
 2619 01dc 3A       		.uleb128 0x3a
 2620 01dd 0B       		.uleb128 0xb
 2621 01de 3B       		.uleb128 0x3b
 2622 01df 0B       		.uleb128 0xb
 2623 01e0 49       		.uleb128 0x49
 2624 01e1 13       		.uleb128 0x13
 2625 01e2 02       		.uleb128 0x2
 2626 01e3 17       		.uleb128 0x17
 2627 01e4 00       		.byte	0
 2628 01e5 00       		.byte	0
ARM GAS  /tmp/ccrw7w3s.s 			page 79


 2629 01e6 25       		.uleb128 0x25
 2630 01e7 34       		.uleb128 0x34
 2631 01e8 00       		.byte	0
 2632 01e9 03       		.uleb128 0x3
 2633 01ea 08       		.uleb128 0x8
 2634 01eb 3A       		.uleb128 0x3a
 2635 01ec 0B       		.uleb128 0xb
 2636 01ed 3B       		.uleb128 0x3b
 2637 01ee 0B       		.uleb128 0xb
 2638 01ef 49       		.uleb128 0x49
 2639 01f0 13       		.uleb128 0x13
 2640 01f1 02       		.uleb128 0x2
 2641 01f2 17       		.uleb128 0x17
 2642 01f3 00       		.byte	0
 2643 01f4 00       		.byte	0
 2644 01f5 26       		.uleb128 0x26
 2645 01f6 34       		.uleb128 0x34
 2646 01f7 00       		.byte	0
 2647 01f8 03       		.uleb128 0x3
 2648 01f9 0E       		.uleb128 0xe
 2649 01fa 3A       		.uleb128 0x3a
 2650 01fb 0B       		.uleb128 0xb
 2651 01fc 3B       		.uleb128 0x3b
 2652 01fd 0B       		.uleb128 0xb
 2653 01fe 49       		.uleb128 0x49
 2654 01ff 13       		.uleb128 0x13
 2655 0200 02       		.uleb128 0x2
 2656 0201 17       		.uleb128 0x17
 2657 0202 00       		.byte	0
 2658 0203 00       		.byte	0
 2659 0204 27       		.uleb128 0x27
 2660 0205 34       		.uleb128 0x34
 2661 0206 00       		.byte	0
 2662 0207 03       		.uleb128 0x3
 2663 0208 0E       		.uleb128 0xe
 2664 0209 49       		.uleb128 0x49
 2665 020a 13       		.uleb128 0x13
 2666 020b 34       		.uleb128 0x34
 2667 020c 19       		.uleb128 0x19
 2668 020d 00       		.byte	0
 2669 020e 00       		.byte	0
 2670 020f 28       		.uleb128 0x28
 2671 0210 0B       		.uleb128 0xb
 2672 0211 01       		.byte	0x1
 2673 0212 55       		.uleb128 0x55
 2674 0213 17       		.uleb128 0x17
 2675 0214 00       		.byte	0
 2676 0215 00       		.byte	0
 2677 0216 29       		.uleb128 0x29
 2678 0217 34       		.uleb128 0x34
 2679 0218 00       		.byte	0
 2680 0219 03       		.uleb128 0x3
 2681 021a 08       		.uleb128 0x8
 2682 021b 3A       		.uleb128 0x3a
 2683 021c 0B       		.uleb128 0xb
 2684 021d 3B       		.uleb128 0x3b
 2685 021e 0B       		.uleb128 0xb
ARM GAS  /tmp/ccrw7w3s.s 			page 80


 2686 021f 49       		.uleb128 0x49
 2687 0220 13       		.uleb128 0x13
 2688 0221 00       		.byte	0
 2689 0222 00       		.byte	0
 2690 0223 2A       		.uleb128 0x2a
 2691 0224 1D       		.uleb128 0x1d
 2692 0225 01       		.byte	0x1
 2693 0226 31       		.uleb128 0x31
 2694 0227 13       		.uleb128 0x13
 2695 0228 52       		.uleb128 0x52
 2696 0229 01       		.uleb128 0x1
 2697 022a 55       		.uleb128 0x55
 2698 022b 17       		.uleb128 0x17
 2699 022c 58       		.uleb128 0x58
 2700 022d 0B       		.uleb128 0xb
 2701 022e 59       		.uleb128 0x59
 2702 022f 0B       		.uleb128 0xb
 2703 0230 01       		.uleb128 0x1
 2704 0231 13       		.uleb128 0x13
 2705 0232 00       		.byte	0
 2706 0233 00       		.byte	0
 2707 0234 2B       		.uleb128 0x2b
 2708 0235 1D       		.uleb128 0x1d
 2709 0236 01       		.byte	0x1
 2710 0237 31       		.uleb128 0x31
 2711 0238 13       		.uleb128 0x13
 2712 0239 52       		.uleb128 0x52
 2713 023a 01       		.uleb128 0x1
 2714 023b 55       		.uleb128 0x55
 2715 023c 17       		.uleb128 0x17
 2716 023d 58       		.uleb128 0x58
 2717 023e 0B       		.uleb128 0xb
 2718 023f 59       		.uleb128 0x59
 2719 0240 0B       		.uleb128 0xb
 2720 0241 00       		.byte	0
 2721 0242 00       		.byte	0
 2722 0243 2C       		.uleb128 0x2c
 2723 0244 1D       		.uleb128 0x1d
 2724 0245 00       		.byte	0
 2725 0246 31       		.uleb128 0x31
 2726 0247 13       		.uleb128 0x13
 2727 0248 52       		.uleb128 0x52
 2728 0249 01       		.uleb128 0x1
 2729 024a 55       		.uleb128 0x55
 2730 024b 17       		.uleb128 0x17
 2731 024c 58       		.uleb128 0x58
 2732 024d 0B       		.uleb128 0xb
 2733 024e 59       		.uleb128 0x59
 2734 024f 0B       		.uleb128 0xb
 2735 0250 00       		.byte	0
 2736 0251 00       		.byte	0
 2737 0252 2D       		.uleb128 0x2d
 2738 0253 1D       		.uleb128 0x1d
 2739 0254 01       		.byte	0x1
 2740 0255 31       		.uleb128 0x31
 2741 0256 13       		.uleb128 0x13
 2742 0257 11       		.uleb128 0x11
ARM GAS  /tmp/ccrw7w3s.s 			page 81


 2743 0258 01       		.uleb128 0x1
 2744 0259 12       		.uleb128 0x12
 2745 025a 06       		.uleb128 0x6
 2746 025b 58       		.uleb128 0x58
 2747 025c 0B       		.uleb128 0xb
 2748 025d 59       		.uleb128 0x59
 2749 025e 0B       		.uleb128 0xb
 2750 025f 01       		.uleb128 0x1
 2751 0260 13       		.uleb128 0x13
 2752 0261 00       		.byte	0
 2753 0262 00       		.byte	0
 2754 0263 2E       		.uleb128 0x2e
 2755 0264 05       		.uleb128 0x5
 2756 0265 00       		.byte	0
 2757 0266 31       		.uleb128 0x31
 2758 0267 13       		.uleb128 0x13
 2759 0268 02       		.uleb128 0x2
 2760 0269 17       		.uleb128 0x17
 2761 026a 00       		.byte	0
 2762 026b 00       		.byte	0
 2763 026c 2F       		.uleb128 0x2f
 2764 026d 898201   		.uleb128 0x4109
 2765 0270 00       		.byte	0
 2766 0271 11       		.uleb128 0x11
 2767 0272 01       		.uleb128 0x1
 2768 0273 31       		.uleb128 0x31
 2769 0274 13       		.uleb128 0x13
 2770 0275 00       		.byte	0
 2771 0276 00       		.byte	0
 2772 0277 30       		.uleb128 0x30
 2773 0278 898201   		.uleb128 0x4109
 2774 027b 00       		.byte	0
 2775 027c 11       		.uleb128 0x11
 2776 027d 01       		.uleb128 0x1
 2777 027e 9542     		.uleb128 0x2115
 2778 0280 19       		.uleb128 0x19
 2779 0281 31       		.uleb128 0x31
 2780 0282 13       		.uleb128 0x13
 2781 0283 00       		.byte	0
 2782 0284 00       		.byte	0
 2783 0285 31       		.uleb128 0x31
 2784 0286 2E       		.uleb128 0x2e
 2785 0287 01       		.byte	0x1
 2786 0288 31       		.uleb128 0x31
 2787 0289 13       		.uleb128 0x13
 2788 028a 11       		.uleb128 0x11
 2789 028b 01       		.uleb128 0x1
 2790 028c 12       		.uleb128 0x12
 2791 028d 06       		.uleb128 0x6
 2792 028e 40       		.uleb128 0x40
 2793 028f 18       		.uleb128 0x18
 2794 0290 9742     		.uleb128 0x2117
 2795 0292 19       		.uleb128 0x19
 2796 0293 01       		.uleb128 0x1
 2797 0294 13       		.uleb128 0x13
 2798 0295 00       		.byte	0
 2799 0296 00       		.byte	0
ARM GAS  /tmp/ccrw7w3s.s 			page 82


 2800 0297 32       		.uleb128 0x32
 2801 0298 34       		.uleb128 0x34
 2802 0299 00       		.byte	0
 2803 029a 31       		.uleb128 0x31
 2804 029b 13       		.uleb128 0x13
 2805 029c 00       		.byte	0
 2806 029d 00       		.byte	0
 2807 029e 33       		.uleb128 0x33
 2808 029f 34       		.uleb128 0x34
 2809 02a0 00       		.byte	0
 2810 02a1 31       		.uleb128 0x31
 2811 02a2 13       		.uleb128 0x13
 2812 02a3 02       		.uleb128 0x2
 2813 02a4 17       		.uleb128 0x17
 2814 02a5 00       		.byte	0
 2815 02a6 00       		.byte	0
 2816 02a7 34       		.uleb128 0x34
 2817 02a8 1D       		.uleb128 0x1d
 2818 02a9 01       		.byte	0x1
 2819 02aa 31       		.uleb128 0x31
 2820 02ab 13       		.uleb128 0x13
 2821 02ac 52       		.uleb128 0x52
 2822 02ad 01       		.uleb128 0x1
 2823 02ae 55       		.uleb128 0x55
 2824 02af 17       		.uleb128 0x17
 2825 02b0 58       		.uleb128 0x58
 2826 02b1 0B       		.uleb128 0xb
 2827 02b2 59       		.uleb128 0x59
 2828 02b3 05       		.uleb128 0x5
 2829 02b4 01       		.uleb128 0x1
 2830 02b5 13       		.uleb128 0x13
 2831 02b6 00       		.byte	0
 2832 02b7 00       		.byte	0
 2833 02b8 35       		.uleb128 0x35
 2834 02b9 1D       		.uleb128 0x1d
 2835 02ba 01       		.byte	0x1
 2836 02bb 31       		.uleb128 0x31
 2837 02bc 13       		.uleb128 0x13
 2838 02bd 11       		.uleb128 0x11
 2839 02be 01       		.uleb128 0x1
 2840 02bf 12       		.uleb128 0x12
 2841 02c0 06       		.uleb128 0x6
 2842 02c1 58       		.uleb128 0x58
 2843 02c2 0B       		.uleb128 0xb
 2844 02c3 59       		.uleb128 0x59
 2845 02c4 0B       		.uleb128 0xb
 2846 02c5 00       		.byte	0
 2847 02c6 00       		.byte	0
 2848 02c7 36       		.uleb128 0x36
 2849 02c8 34       		.uleb128 0x34
 2850 02c9 00       		.byte	0
 2851 02ca 03       		.uleb128 0x3
 2852 02cb 0E       		.uleb128 0xe
 2853 02cc 3A       		.uleb128 0x3a
 2854 02cd 0B       		.uleb128 0xb
 2855 02ce 3B       		.uleb128 0x3b
 2856 02cf 05       		.uleb128 0x5
ARM GAS  /tmp/ccrw7w3s.s 			page 83


 2857 02d0 49       		.uleb128 0x49
 2858 02d1 13       		.uleb128 0x13
 2859 02d2 3F       		.uleb128 0x3f
 2860 02d3 19       		.uleb128 0x19
 2861 02d4 3C       		.uleb128 0x3c
 2862 02d5 19       		.uleb128 0x19
 2863 02d6 00       		.byte	0
 2864 02d7 00       		.byte	0
 2865 02d8 37       		.uleb128 0x37
 2866 02d9 34       		.uleb128 0x34
 2867 02da 00       		.byte	0
 2868 02db 03       		.uleb128 0x3
 2869 02dc 08       		.uleb128 0x8
 2870 02dd 3A       		.uleb128 0x3a
 2871 02de 0B       		.uleb128 0xb
 2872 02df 3B       		.uleb128 0x3b
 2873 02e0 05       		.uleb128 0x5
 2874 02e1 49       		.uleb128 0x49
 2875 02e2 13       		.uleb128 0x13
 2876 02e3 3F       		.uleb128 0x3f
 2877 02e4 19       		.uleb128 0x19
 2878 02e5 3C       		.uleb128 0x3c
 2879 02e6 19       		.uleb128 0x19
 2880 02e7 00       		.byte	0
 2881 02e8 00       		.byte	0
 2882 02e9 38       		.uleb128 0x38
 2883 02ea 2E       		.uleb128 0x2e
 2884 02eb 01       		.byte	0x1
 2885 02ec 3F       		.uleb128 0x3f
 2886 02ed 19       		.uleb128 0x19
 2887 02ee 03       		.uleb128 0x3
 2888 02ef 0E       		.uleb128 0xe
 2889 02f0 3A       		.uleb128 0x3a
 2890 02f1 0B       		.uleb128 0xb
 2891 02f2 3B       		.uleb128 0x3b
 2892 02f3 0B       		.uleb128 0xb
 2893 02f4 27       		.uleb128 0x27
 2894 02f5 19       		.uleb128 0x19
 2895 02f6 3C       		.uleb128 0x3c
 2896 02f7 19       		.uleb128 0x19
 2897 02f8 01       		.uleb128 0x1
 2898 02f9 13       		.uleb128 0x13
 2899 02fa 00       		.byte	0
 2900 02fb 00       		.byte	0
 2901 02fc 39       		.uleb128 0x39
 2902 02fd 2E       		.uleb128 0x2e
 2903 02fe 00       		.byte	0
 2904 02ff 3F       		.uleb128 0x3f
 2905 0300 19       		.uleb128 0x19
 2906 0301 03       		.uleb128 0x3
 2907 0302 0E       		.uleb128 0xe
 2908 0303 3A       		.uleb128 0x3a
 2909 0304 0B       		.uleb128 0xb
 2910 0305 3B       		.uleb128 0x3b
 2911 0306 0B       		.uleb128 0xb
 2912 0307 27       		.uleb128 0x27
 2913 0308 19       		.uleb128 0x19
ARM GAS  /tmp/ccrw7w3s.s 			page 84


 2914 0309 3C       		.uleb128 0x3c
 2915 030a 19       		.uleb128 0x19
 2916 030b 00       		.byte	0
 2917 030c 00       		.byte	0
 2918 030d 00       		.byte	0
 2919              		.section	.debug_loc,"",%progbits
 2920              	.Ldebug_loc0:
 2921              	.LLST0:
 2922 0000 00000000 		.4byte	.LVL0
 2923 0004 22000000 		.4byte	.LVL5
 2924 0008 0100     		.2byte	0x1
 2925 000a 50       		.byte	0x50
 2926 000b 22000000 		.4byte	.LVL5
 2927 000f 68000000 		.4byte	.LVL20
 2928 0013 0100     		.2byte	0x1
 2929 0015 56       		.byte	0x56
 2930 0016 68000000 		.4byte	.LVL20
 2931 001a 70000000 		.4byte	.LVL21
 2932 001e 0100     		.2byte	0x1
 2933 0020 50       		.byte	0x50
 2934 0021 70000000 		.4byte	.LVL21
 2935 0025 7A000000 		.4byte	.LVL23
 2936 0029 0100     		.2byte	0x1
 2937 002b 56       		.byte	0x56
 2938 002c 7D000000 		.4byte	.LVL24-1
 2939 0030 84000000 		.4byte	.LFE240
 2940 0034 0400     		.2byte	0x4
 2941 0036 F3       		.byte	0xf3
 2942 0037 01       		.uleb128 0x1
 2943 0038 50       		.byte	0x50
 2944 0039 9F       		.byte	0x9f
 2945 003a 00000000 		.4byte	0
 2946 003e 00000000 		.4byte	0
 2947              	.LLST1:
 2948 0042 00000000 		.4byte	.LVL0
 2949 0046 0C000000 		.4byte	.LVL1
 2950 004a 0100     		.2byte	0x1
 2951 004c 51       		.byte	0x51
 2952 004d 0C000000 		.4byte	.LVL1
 2953 0051 1E000000 		.4byte	.LVL3
 2954 0055 0400     		.2byte	0x4
 2955 0057 F3       		.byte	0xf3
 2956 0058 01       		.uleb128 0x1
 2957 0059 51       		.byte	0x51
 2958 005a 9F       		.byte	0x9f
 2959 005b 1E000000 		.4byte	.LVL3
 2960 005f 30000000 		.4byte	.LVL8
 2961 0063 0100     		.2byte	0x1
 2962 0065 51       		.byte	0x51
 2963 0066 30000000 		.4byte	.LVL8
 2964 006a 54000000 		.4byte	.LVL13
 2965 006e 1700     		.2byte	0x17
 2966 0070 F3       		.byte	0xf3
 2967 0071 01       		.uleb128 0x1
 2968 0072 51       		.byte	0x51
 2969 0073 32       		.byte	0x32
 2970 0074 F3       		.byte	0xf3
ARM GAS  /tmp/ccrw7w3s.s 			page 85


 2971 0075 01       		.uleb128 0x1
 2972 0076 51       		.byte	0x51
 2973 0077 40       		.byte	0x40
 2974 0078 4B       		.byte	0x4b
 2975 0079 24       		.byte	0x24
 2976 007a 22       		.byte	0x22
 2977 007b 0C       		.byte	0xc
 2978 007c 01000080 		.4byte	0x80000001
 2979 0080 2B       		.byte	0x2b
 2980 0081 28       		.byte	0x28
 2981 0082 0100     		.2byte	0x1
 2982 0084 16       		.byte	0x16
 2983 0085 13       		.byte	0x13
 2984 0086 9F       		.byte	0x9f
 2985 0087 54000000 		.4byte	.LVL13
 2986 008b 63000000 		.4byte	.LVL19-1
 2987 008f 0100     		.2byte	0x1
 2988 0091 51       		.byte	0x51
 2989 0092 63000000 		.4byte	.LVL19-1
 2990 0096 68000000 		.4byte	.LVL20
 2991 009a 1700     		.2byte	0x17
 2992 009c F3       		.byte	0xf3
 2993 009d 01       		.uleb128 0x1
 2994 009e 51       		.byte	0x51
 2995 009f 32       		.byte	0x32
 2996 00a0 F3       		.byte	0xf3
 2997 00a1 01       		.uleb128 0x1
 2998 00a2 51       		.byte	0x51
 2999 00a3 40       		.byte	0x40
 3000 00a4 4B       		.byte	0x4b
 3001 00a5 24       		.byte	0x24
 3002 00a6 22       		.byte	0x22
 3003 00a7 0C       		.byte	0xc
 3004 00a8 01000080 		.4byte	0x80000001
 3005 00ac 2B       		.byte	0x2b
 3006 00ad 28       		.byte	0x28
 3007 00ae 0100     		.2byte	0x1
 3008 00b0 16       		.byte	0x16
 3009 00b1 13       		.byte	0x13
 3010 00b2 9F       		.byte	0x9f
 3011 00b3 68000000 		.4byte	.LVL20
 3012 00b7 7D000000 		.4byte	.LVL24-1
 3013 00bb 0100     		.2byte	0x1
 3014 00bd 51       		.byte	0x51
 3015 00be 7D000000 		.4byte	.LVL24-1
 3016 00c2 84000000 		.4byte	.LFE240
 3017 00c6 1700     		.2byte	0x17
 3018 00c8 F3       		.byte	0xf3
 3019 00c9 01       		.uleb128 0x1
 3020 00ca 51       		.byte	0x51
 3021 00cb 32       		.byte	0x32
 3022 00cc F3       		.byte	0xf3
 3023 00cd 01       		.uleb128 0x1
 3024 00ce 51       		.byte	0x51
 3025 00cf 40       		.byte	0x40
 3026 00d0 4B       		.byte	0x4b
 3027 00d1 24       		.byte	0x24
ARM GAS  /tmp/ccrw7w3s.s 			page 86


 3028 00d2 22       		.byte	0x22
 3029 00d3 0C       		.byte	0xc
 3030 00d4 01000080 		.4byte	0x80000001
 3031 00d8 2B       		.byte	0x2b
 3032 00d9 28       		.byte	0x28
 3033 00da 0100     		.2byte	0x1
 3034 00dc 16       		.byte	0x16
 3035 00dd 13       		.byte	0x13
 3036 00de 9F       		.byte	0x9f
 3037 00df 00000000 		.4byte	0
 3038 00e3 00000000 		.4byte	0
 3039              	.LLST2:
 3040 00e7 00000000 		.4byte	.LVL0
 3041 00eb 30000000 		.4byte	.LVL8
 3042 00ef 0100     		.2byte	0x1
 3043 00f1 52       		.byte	0x52
 3044 00f2 30000000 		.4byte	.LVL8
 3045 00f6 54000000 		.4byte	.LVL13
 3046 00fa 0400     		.2byte	0x4
 3047 00fc F3       		.byte	0xf3
 3048 00fd 01       		.uleb128 0x1
 3049 00fe 52       		.byte	0x52
 3050 00ff 9F       		.byte	0x9f
 3051 0100 54000000 		.4byte	.LVL13
 3052 0104 56000000 		.4byte	.LVL14
 3053 0108 0100     		.2byte	0x1
 3054 010a 52       		.byte	0x52
 3055 010b 56000000 		.4byte	.LVL14
 3056 010f 5E000000 		.4byte	.LVL17
 3057 0113 0200     		.2byte	0x2
 3058 0115 76       		.byte	0x76
 3059 0116 0C       		.sleb128 12
 3060 0117 5E000000 		.4byte	.LVL17
 3061 011b 63000000 		.4byte	.LVL19-1
 3062 011f 0100     		.2byte	0x1
 3063 0121 52       		.byte	0x52
 3064 0122 63000000 		.4byte	.LVL19-1
 3065 0126 68000000 		.4byte	.LVL20
 3066 012a 0400     		.2byte	0x4
 3067 012c F3       		.byte	0xf3
 3068 012d 01       		.uleb128 0x1
 3069 012e 52       		.byte	0x52
 3070 012f 9F       		.byte	0x9f
 3071 0130 68000000 		.4byte	.LVL20
 3072 0134 7D000000 		.4byte	.LVL24-1
 3073 0138 0100     		.2byte	0x1
 3074 013a 52       		.byte	0x52
 3075 013b 7D000000 		.4byte	.LVL24-1
 3076 013f 84000000 		.4byte	.LFE240
 3077 0143 0400     		.2byte	0x4
 3078 0145 F3       		.byte	0xf3
 3079 0146 01       		.uleb128 0x1
 3080 0147 52       		.byte	0x52
 3081 0148 9F       		.byte	0x9f
 3082 0149 00000000 		.4byte	0
 3083 014d 00000000 		.4byte	0
 3084              	.LLST3:
ARM GAS  /tmp/ccrw7w3s.s 			page 87


 3085 0151 00000000 		.4byte	.LVL0
 3086 0155 16000000 		.4byte	.LVL2
 3087 0159 0100     		.2byte	0x1
 3088 015b 53       		.byte	0x53
 3089 015c 16000000 		.4byte	.LVL2
 3090 0160 22000000 		.4byte	.LVL5
 3091 0164 0200     		.2byte	0x2
 3092 0166 70       		.byte	0x70
 3093 0167 10       		.sleb128 16
 3094 0168 22000000 		.4byte	.LVL5
 3095 016c 30000000 		.4byte	.LVL8
 3096 0170 0200     		.2byte	0x2
 3097 0172 76       		.byte	0x76
 3098 0173 10       		.sleb128 16
 3099 0174 30000000 		.4byte	.LVL8
 3100 0178 54000000 		.4byte	.LVL13
 3101 017c 0400     		.2byte	0x4
 3102 017e F3       		.byte	0xf3
 3103 017f 01       		.uleb128 0x1
 3104 0180 53       		.byte	0x53
 3105 0181 9F       		.byte	0x9f
 3106 0182 54000000 		.4byte	.LVL13
 3107 0186 63000000 		.4byte	.LVL19-1
 3108 018a 0200     		.2byte	0x2
 3109 018c 76       		.byte	0x76
 3110 018d 10       		.sleb128 16
 3111 018e 63000000 		.4byte	.LVL19-1
 3112 0192 68000000 		.4byte	.LVL20
 3113 0196 0400     		.2byte	0x4
 3114 0198 F3       		.byte	0xf3
 3115 0199 01       		.uleb128 0x1
 3116 019a 53       		.byte	0x53
 3117 019b 9F       		.byte	0x9f
 3118 019c 68000000 		.4byte	.LVL20
 3119 01a0 70000000 		.4byte	.LVL21
 3120 01a4 0200     		.2byte	0x2
 3121 01a6 70       		.byte	0x70
 3122 01a7 10       		.sleb128 16
 3123 01a8 70000000 		.4byte	.LVL21
 3124 01ac 7A000000 		.4byte	.LVL23
 3125 01b0 0200     		.2byte	0x2
 3126 01b2 76       		.byte	0x76
 3127 01b3 10       		.sleb128 16
 3128 01b4 7D000000 		.4byte	.LVL24-1
 3129 01b8 84000000 		.4byte	.LFE240
 3130 01bc 0400     		.2byte	0x4
 3131 01be F3       		.byte	0xf3
 3132 01bf 01       		.uleb128 0x1
 3133 01c0 53       		.byte	0x53
 3134 01c1 9F       		.byte	0x9f
 3135 01c2 00000000 		.4byte	0
 3136 01c6 00000000 		.4byte	0
 3137              	.LLST4:
 3138 01ca 20000000 		.4byte	.LVL4
 3139 01ce 32000000 		.4byte	.LVL9
 3140 01d2 0100     		.2byte	0x1
 3141 01d4 54       		.byte	0x54
ARM GAS  /tmp/ccrw7w3s.s 			page 88


 3142 01d5 34000000 		.4byte	.LVL10
 3143 01d9 58000000 		.4byte	.LVL15
 3144 01dd 0100     		.2byte	0x1
 3145 01df 54       		.byte	0x54
 3146 01e0 58000000 		.4byte	.LVL15
 3147 01e4 5A000000 		.4byte	.LVL16
 3148 01e8 0200     		.2byte	0x2
 3149 01ea 7C       		.byte	0x7c
 3150 01eb 00       		.sleb128 0
 3151 01ec 5A000000 		.4byte	.LVL16
 3152 01f0 68000000 		.4byte	.LVL20
 3153 01f4 0100     		.2byte	0x1
 3154 01f6 54       		.byte	0x54
 3155 01f7 00000000 		.4byte	0
 3156 01fb 00000000 		.4byte	0
 3157              	.LLST5:
 3158 01ff 24000000 		.4byte	.LVL6
 3159 0203 26000000 		.4byte	.LVL7
 3160 0207 0600     		.2byte	0x6
 3161 0209 71       		.byte	0x71
 3162 020a 00       		.sleb128 0
 3163 020b 75       		.byte	0x75
 3164 020c 00       		.sleb128 0
 3165 020d 22       		.byte	0x22
 3166 020e 9F       		.byte	0x9f
 3167 020f 26000000 		.4byte	.LVL7
 3168 0213 4E000000 		.4byte	.LVL11
 3169 0217 0100     		.2byte	0x1
 3170 0219 55       		.byte	0x55
 3171 021a 4E000000 		.4byte	.LVL11
 3172 021e 50000000 		.4byte	.LVL12
 3173 0222 0500     		.2byte	0x5
 3174 0224 74       		.byte	0x74
 3175 0225 04       		.sleb128 4
 3176 0226 06       		.byte	0x6
 3177 0227 23       		.byte	0x23
 3178 0228 08       		.uleb128 0x8
 3179 0229 54000000 		.4byte	.LVL13
 3180 022d 68000000 		.4byte	.LVL20
 3181 0231 0100     		.2byte	0x1
 3182 0233 55       		.byte	0x55
 3183 0234 00000000 		.4byte	0
 3184 0238 00000000 		.4byte	0
 3185              	.LLST6:
 3186 023c 5E000000 		.4byte	.LVL17
 3187 0240 60000000 		.4byte	.LVL18
 3188 0244 0600     		.2byte	0x6
 3189 0246 75       		.byte	0x75
 3190 0247 00       		.sleb128 0
 3191 0248 70       		.byte	0x70
 3192 0249 00       		.sleb128 0
 3193 024a 22       		.byte	0x22
 3194 024b 9F       		.byte	0x9f
 3195 024c 60000000 		.4byte	.LVL18
 3196 0250 63000000 		.4byte	.LVL19-1
 3197 0254 0100     		.2byte	0x1
 3198 0256 50       		.byte	0x50
ARM GAS  /tmp/ccrw7w3s.s 			page 89


 3199 0257 00000000 		.4byte	0
 3200 025b 00000000 		.4byte	0
 3201              	.LLST7:
 3202 025f 76000000 		.4byte	.LVL22
 3203 0263 7A000000 		.4byte	.LVL23
 3204 0267 0700     		.2byte	0x7
 3205 0269 76       		.byte	0x76
 3206 026a 08       		.sleb128 8
 3207 026b 06       		.byte	0x6
 3208 026c 75       		.byte	0x75
 3209 026d 00       		.sleb128 0
 3210 026e 22       		.byte	0x22
 3211 026f 9F       		.byte	0x9f
 3212 0270 00000000 		.4byte	0
 3213 0274 00000000 		.4byte	0
 3214              	.LLST8:
 3215 0278 00000000 		.4byte	.LVL25
 3216 027c 26000000 		.4byte	.LVL26
 3217 0280 0100     		.2byte	0x1
 3218 0282 50       		.byte	0x50
 3219 0283 26000000 		.4byte	.LVL26
 3220 0287 2C000000 		.4byte	.LVL27
 3221 028b 0400     		.2byte	0x4
 3222 028d F3       		.byte	0xf3
 3223 028e 01       		.uleb128 0x1
 3224 028f 50       		.byte	0x50
 3225 0290 9F       		.byte	0x9f
 3226 0291 2C000000 		.4byte	.LVL27
 3227 0295 2E000000 		.4byte	.LVL28
 3228 0299 0100     		.2byte	0x1
 3229 029b 50       		.byte	0x50
 3230 029c 2E000000 		.4byte	.LVL28
 3231 02a0 74000000 		.4byte	.LFE241
 3232 02a4 0400     		.2byte	0x4
 3233 02a6 F3       		.byte	0xf3
 3234 02a7 01       		.uleb128 0x1
 3235 02a8 50       		.byte	0x50
 3236 02a9 9F       		.byte	0x9f
 3237 02aa 00000000 		.4byte	0
 3238 02ae 00000000 		.4byte	0
 3239              	.LLST9:
 3240 02b2 2C000000 		.4byte	.LVL27
 3241 02b6 42000000 		.4byte	.LVL29
 3242 02ba 0100     		.2byte	0x1
 3243 02bc 53       		.byte	0x53
 3244 02bd 66000000 		.4byte	.LVL34
 3245 02c1 6D000000 		.4byte	.LVL35-1
 3246 02c5 0100     		.2byte	0x1
 3247 02c7 53       		.byte	0x53
 3248 02c8 00000000 		.4byte	0
 3249 02cc 00000000 		.4byte	0
 3250              	.LLST10:
 3251 02d0 50000000 		.4byte	.LVL30
 3252 02d4 65000000 		.4byte	.LVL34-1
 3253 02d8 0100     		.2byte	0x1
 3254 02da 52       		.byte	0x52
 3255 02db 00000000 		.4byte	0
ARM GAS  /tmp/ccrw7w3s.s 			page 90


 3256 02df 00000000 		.4byte	0
 3257              	.LLST11:
 3258 02e3 56000000 		.4byte	.LVL31
 3259 02e7 65000000 		.4byte	.LVL34-1
 3260 02eb 0100     		.2byte	0x1
 3261 02ed 53       		.byte	0x53
 3262 02ee 00000000 		.4byte	0
 3263 02f2 00000000 		.4byte	0
 3264              	.LLST12:
 3265 02f6 5C000000 		.4byte	.LVL32
 3266 02fa 5E000000 		.4byte	.LVL33
 3267 02fe 0600     		.2byte	0x6
 3268 0300 73       		.byte	0x73
 3269 0301 00       		.sleb128 0
 3270 0302 70       		.byte	0x70
 3271 0303 00       		.sleb128 0
 3272 0304 22       		.byte	0x22
 3273 0305 9F       		.byte	0x9f
 3274 0306 5E000000 		.4byte	.LVL33
 3275 030a 65000000 		.4byte	.LVL34-1
 3276 030e 0100     		.2byte	0x1
 3277 0310 50       		.byte	0x50
 3278 0311 00000000 		.4byte	0
 3279 0315 00000000 		.4byte	0
 3280              		.section	.debug_aranges,"",%progbits
 3281 0000 2C000000 		.4byte	0x2c
 3282 0004 0200     		.2byte	0x2
 3283 0006 00000000 		.4byte	.Ldebug_info0
 3284 000a 04       		.byte	0x4
 3285 000b 00       		.byte	0
 3286 000c 0000     		.2byte	0
 3287 000e 0000     		.2byte	0
 3288 0010 00000000 		.4byte	.LFB239
 3289 0014 1C000000 		.4byte	.LFE239-.LFB239
 3290 0018 00000000 		.4byte	.LFB240
 3291 001c 84000000 		.4byte	.LFE240-.LFB240
 3292 0020 00000000 		.4byte	.LFB241
 3293 0024 74000000 		.4byte	.LFE241-.LFB241
 3294 0028 00000000 		.4byte	0
 3295 002c 00000000 		.4byte	0
 3296              		.section	.debug_ranges,"",%progbits
 3297              	.Ldebug_ranges0:
 3298 0000 02000000 		.4byte	.LBB35
 3299 0004 10000000 		.4byte	.LBE35
 3300 0008 12000000 		.4byte	.LBB50
 3301 000c 18000000 		.4byte	.LBE50
 3302 0010 1C000000 		.4byte	.LBB51
 3303 0014 30000000 		.4byte	.LBE51
 3304 0018 54000000 		.4byte	.LBB52
 3305 001c 76000000 		.4byte	.LBE52
 3306 0020 7A000000 		.4byte	.LBB53
 3307 0024 84000000 		.4byte	.LBE53
 3308 0028 00000000 		.4byte	0
 3309 002c 00000000 		.4byte	0
 3310 0030 12000000 		.4byte	.LBB36
 3311 0034 16000000 		.4byte	.LBE36
 3312 0038 1C000000 		.4byte	.LBB43
ARM GAS  /tmp/ccrw7w3s.s 			page 91


 3313 003c 1E000000 		.4byte	.LBE43
 3314 0040 00000000 		.4byte	0
 3315 0044 00000000 		.4byte	0
 3316 0048 6E000000 		.4byte	.LBB46
 3317 004c 70000000 		.4byte	.LBE46
 3318 0050 7A000000 		.4byte	.LBB49
 3319 0054 84000000 		.4byte	.LBE49
 3320 0058 00000000 		.4byte	0
 3321 005c 00000000 		.4byte	0
 3322 0060 2C000000 		.4byte	.LBB64
 3323 0064 5E000000 		.4byte	.LBE64
 3324 0068 62000000 		.4byte	.LBB82
 3325 006c 66000000 		.4byte	.LBE82
 3326 0070 6A000000 		.4byte	.LBB83
 3327 0074 74000000 		.4byte	.LBE83
 3328 0078 00000000 		.4byte	0
 3329 007c 00000000 		.4byte	0
 3330 0080 46000000 		.4byte	.LBB66
 3331 0084 4A000000 		.4byte	.LBE66
 3332 0088 4C000000 		.4byte	.LBB73
 3333 008c 4E000000 		.4byte	.LBE73
 3334 0090 00000000 		.4byte	0
 3335 0094 00000000 		.4byte	0
 3336 0098 5C000000 		.4byte	.LBB74
 3337 009c 5E000000 		.4byte	.LBE74
 3338 00a0 62000000 		.4byte	.LBB77
 3339 00a4 66000000 		.4byte	.LBE77
 3340 00a8 00000000 		.4byte	0
 3341 00ac 00000000 		.4byte	0
 3342 00b0 00000000 		.4byte	.LFB239
 3343 00b4 1C000000 		.4byte	.LFE239
 3344 00b8 00000000 		.4byte	.LFB240
 3345 00bc 84000000 		.4byte	.LFE240
 3346 00c0 00000000 		.4byte	.LFB241
 3347 00c4 74000000 		.4byte	.LFE241
 3348 00c8 00000000 		.4byte	0
 3349 00cc 00000000 		.4byte	0
 3350              		.section	.debug_line,"",%progbits
 3351              	.Ldebug_line0:
 3352 0000 B2030000 		.section	.debug_str,"MS",%progbits,1
 3352      0200BC02 
 3352      00000201 
 3352      FB0E0D00 
 3352      01010101 
 3353              	.LASF45:
 3354 0000 63685F74 		.ascii	"ch_threads_list\000"
 3354      68726561 
 3354      64735F6C 
 3354      69737400 
 3355              	.LASF92:
 3356 0010 77746D74 		.ascii	"wtmtxp\000"
 3356      787000
 3357              	.LASF85:
 3358 0017 746D5F63 		.ascii	"tm_calibration_t\000"
 3358      616C6962 
 3358      72617469 
 3358      6F6E5F74 
ARM GAS  /tmp/ccrw7w3s.s 			page 92


 3358      00
 3359              	.LASF114:
 3360 0028 2E2E2F43 		.ascii	"../ChibiOS/os/rt/src/chvt.c\000"
 3360      68696269 
 3360      4F532F6F 
 3360      732F7274 
 3360      2F737263 
 3361              	.LASF70:
 3362 0044 72656761 		.ascii	"regarm_t\000"
 3362      726D5F74 
 3362      00
 3363              	.LASF117:
 3364 004d 5F76745F 		.ascii	"_vt_init\000"
 3364      696E6974 
 3364      00
 3365              	.LASF34:
 3366 0056 666C6167 		.ascii	"flags\000"
 3366      7300
 3367              	.LASF25:
 3368 005c 73797374 		.ascii	"systime_t\000"
 3368      696D655F 
 3368      7400
 3369              	.LASF40:
 3370 0066 7265616C 		.ascii	"realprio\000"
 3370      7072696F 
 3370      00
 3371              	.LASF108:
 3372 006f 76746675 		.ascii	"vtfunc\000"
 3372      6E6300
 3373              	.LASF38:
 3374 0076 6570656E 		.ascii	"epending\000"
 3374      64696E67 
 3374      00
 3375              	.LASF0:
 3376 007f 756E7369 		.ascii	"unsigned int\000"
 3376      676E6564 
 3376      20696E74 
 3376      00
 3377              	.LASF46:
 3378 008c 6E657874 		.ascii	"next\000"
 3378      00
 3379              	.LASF101:
 3380 0091 63685654 		.ascii	"chVTGetSystemTimeX\000"
 3380      47657453 
 3380      79737465 
 3380      6D54696D 
 3380      655800
 3381              	.LASF43:
 3382 00a4 74687265 		.ascii	"threads_list_t\000"
 3382      6164735F 
 3382      6C697374 
 3382      5F7400
 3383              	.LASF6:
 3384 00b3 5F5F696E 		.ascii	"__int32_t\000"
 3384      7433325F 
 3384      7400
 3385              	.LASF35:
ARM GAS  /tmp/ccrw7w3s.s 			page 93


 3386 00bd 72656673 		.ascii	"refs\000"
 3386      00
 3387              	.LASF88:
 3388 00c2 77746F62 		.ascii	"wtobjp\000"
 3388      6A7000
 3389              	.LASF67:
 3390 00c9 76746C69 		.ascii	"vtlist\000"
 3390      737400
 3391              	.LASF72:
 3392 00d0 706F7274 		.ascii	"port_context\000"
 3392      5F636F6E 
 3392      74657874 
 3392      00
 3393              	.LASF51:
 3394 00dd 63685F72 		.ascii	"ch_ready_list\000"
 3394      65616479 
 3394      5F6C6973 
 3394      7400
 3395              	.LASF57:
 3396 00eb 66756E63 		.ascii	"func\000"
 3396      00
 3397              	.LASF93:
 3398 00f0 65776D61 		.ascii	"ewmask\000"
 3398      736B00
 3399              	.LASF49:
 3400 00f7 70726576 		.ascii	"prev\000"
 3400      00
 3401              	.LASF48:
 3402 00fc 63685F74 		.ascii	"ch_threads_queue\000"
 3402      68726561 
 3402      64735F71 
 3402      75657565 
 3402      00
 3403              	.LASF80:
 3404 010d 444D4152 		.ascii	"DMAR\000"
 3404      00
 3405              	.LASF53:
 3406 0112 76746675 		.ascii	"vtfunc_t\000"
 3406      6E635F74 
 3406      00
 3407              	.LASF62:
 3408 011b 63685F73 		.ascii	"ch_system_debug\000"
 3408      79737465 
 3408      6D5F6465 
 3408      62756700 
 3409              	.LASF15:
 3410 012b 75696E74 		.ascii	"uint32_t\000"
 3410      33325F74 
 3410      00
 3411              	.LASF111:
 3412 0134 73745365 		.ascii	"stSetAlarm\000"
 3412      74416C61 
 3412      726D00
 3413              	.LASF90:
 3414 013f 73656E74 		.ascii	"sentmsg\000"
 3414      6D736700 
 3415              	.LASF23:
ARM GAS  /tmp/ccrw7w3s.s 			page 94


 3416 0147 6576656E 		.ascii	"eventmask_t\000"
 3416      746D6173 
 3416      6B5F7400 
 3417              	.LASF79:
 3418 0153 42445452 		.ascii	"BDTR\000"
 3418      00
 3419              	.LASF112:
 3420 0158 73745374 		.ascii	"stStartAlarm\000"
 3420      61727441 
 3420      6C61726D 
 3420      00
 3421              	.LASF94:
 3422 0165 63685F73 		.ascii	"ch_semaphore\000"
 3422      656D6170 
 3422      686F7265 
 3422      00
 3423              	.LASF21:
 3424 0172 74707269 		.ascii	"tprio_t\000"
 3424      6F5F7400 
 3425              	.LASF55:
 3426 017a 63685F76 		.ascii	"ch_virtual_timer\000"
 3426      69727475 
 3426      616C5F74 
 3426      696D6572 
 3426      00
 3427              	.LASF76:
 3428 018b 43434D52 		.ascii	"CCMR1\000"
 3428      3100
 3429              	.LASF77:
 3430 0191 43434D52 		.ascii	"CCMR2\000"
 3430      3200
 3431              	.LASF81:
 3432 0197 43434D52 		.ascii	"CCMR3\000"
 3432      3300
 3433              	.LASF12:
 3434 019d 6C6F6E67 		.ascii	"long long unsigned int\000"
 3434      206C6F6E 
 3434      6720756E 
 3434      7369676E 
 3434      65642069 
 3435              	.LASF99:
 3436 01b4 73745F6C 		.ascii	"st_lld_get_counter\000"
 3436      6C645F67 
 3436      65745F63 
 3436      6F756E74 
 3436      657200
 3437              	.LASF24:
 3438 01c7 636E745F 		.ascii	"cnt_t\000"
 3438      7400
 3439              	.LASF106:
 3440 01cd 6E6F7764 		.ascii	"nowdelta\000"
 3440      656C7461 
 3440      00
 3441              	.LASF104:
 3442 01d6 74696D65 		.ascii	"time\000"
 3442      00
 3443              	.LASF96:
ARM GAS  /tmp/ccrw7w3s.s 			page 95


 3444 01db 6F776E65 		.ascii	"owner\000"
 3444      7200
 3445              	.LASF47:
 3446 01e1 74687265 		.ascii	"threads_queue_t\000"
 3446      6164735F 
 3446      71756575 
 3446      655F7400 
 3447              	.LASF39:
 3448 01f1 6D74786C 		.ascii	"mtxlist\000"
 3448      69737400 
 3449              	.LASF59:
 3450 01f9 63685F76 		.ascii	"ch_virtual_timers_list\000"
 3450      69727475 
 3450      616C5F74 
 3450      696D6572 
 3450      735F6C69 
 3451              	.LASF26:
 3452 0210 74687265 		.ascii	"thread_t\000"
 3452      61645F74 
 3452      00
 3453              	.LASF86:
 3454 0219 7264796D 		.ascii	"rdymsg\000"
 3454      736700
 3455              	.LASF84:
 3456 0220 6F666673 		.ascii	"offset\000"
 3456      657400
 3457              	.LASF83:
 3458 0227 73746D33 		.ascii	"stm32_tim_t\000"
 3458      325F7469 
 3458      6D5F7400 
 3459              	.LASF95:
 3460 0233 63685F6D 		.ascii	"ch_mutex\000"
 3460      75746578 
 3460      00
 3461              	.LASF11:
 3462 023c 5F5F7569 		.ascii	"__uint64_t\000"
 3462      6E743634 
 3462      5F7400
 3463              	.LASF75:
 3464 0247 44494552 		.ascii	"DIER\000"
 3464      00
 3465              	.LASF115:
 3466 024c 2F6E6673 		.ascii	"/nfs/nfs7/home/npalumbo/p442-submissions/lab4\000"
 3466      2F6E6673 
 3466      372F686F 
 3466      6D652F6E 
 3466      70616C75 
 3467              	.LASF100:
 3468 027a 706F7274 		.ascii	"port_timer_get_time\000"
 3468      5F74696D 
 3468      65725F67 
 3468      65745F74 
 3468      696D6500 
 3469              	.LASF28:
 3470 028e 7072696F 		.ascii	"prio\000"
 3470      00
 3471              	.LASF78:
ARM GAS  /tmp/ccrw7w3s.s 			page 96


 3472 0293 43434552 		.ascii	"CCER\000"
 3472      00
 3473              	.LASF97:
 3474 0298 63686172 		.ascii	"char\000"
 3474      00
 3475              	.LASF42:
 3476 029d 74687265 		.ascii	"thread_reference_t\000"
 3476      61645F72 
 3476      65666572 
 3476      656E6365 
 3476      5F7400
 3477              	.LASF32:
 3478 02b0 77616261 		.ascii	"wabase\000"
 3478      736500
 3479              	.LASF19:
 3480 02b7 74737461 		.ascii	"tstate_t\000"
 3480      74655F74 
 3480      00
 3481              	.LASF13:
 3482 02c0 75696E74 		.ascii	"uint8_t\000"
 3482      385F7400 
 3483              	.LASF37:
 3484 02c8 6D736771 		.ascii	"msgqueue\000"
 3484      75657565 
 3484      00
 3485              	.LASF74:
 3486 02d1 534D4352 		.ascii	"SMCR\000"
 3486      00
 3487              	.LASF44:
 3488 02d6 63685F74 		.ascii	"ch_thread\000"
 3488      68726561 
 3488      6400
 3489              	.LASF102:
 3490 02e0 706F7274 		.ascii	"port_timer_start_alarm\000"
 3490      5F74696D 
 3490      65725F73 
 3490      74617274 
 3490      5F616C61 
 3491              	.LASF61:
 3492 02f7 73797374 		.ascii	"system_debug_t\000"
 3492      656D5F64 
 3492      65627567 
 3492      5F7400
 3493              	.LASF10:
 3494 0306 6C6F6E67 		.ascii	"long long int\000"
 3494      206C6F6E 
 3494      6720696E 
 3494      7400
 3495              	.LASF22:
 3496 0314 6D73675F 		.ascii	"msg_t\000"
 3496      7400
 3497              	.LASF110:
 3498 031a 63685654 		.ascii	"chVTDoResetI\000"
 3498      446F5265 
 3498      73657449 
 3498      00
 3499              	.LASF54:
ARM GAS  /tmp/ccrw7w3s.s 			page 97


 3500 0327 76697274 		.ascii	"virtual_timer_t\000"
 3500      75616C5F 
 3500      74696D65 
 3500      725F7400 
 3501              	.LASF63:
 3502 0337 70616E69 		.ascii	"panic_msg\000"
 3502      635F6D73 
 3502      6700
 3503              	.LASF18:
 3504 0341 746D6F64 		.ascii	"tmode_t\000"
 3504      655F7400 
 3505              	.LASF68:
 3506 0349 6D61696E 		.ascii	"mainthread\000"
 3506      74687265 
 3506      616400
 3507              	.LASF103:
 3508 0354 706F7274 		.ascii	"port_timer_set_alarm\000"
 3508      5F74696D 
 3508      65725F73 
 3508      65745F61 
 3508      6C61726D 
 3509              	.LASF17:
 3510 0369 7274636E 		.ascii	"rtcnt_t\000"
 3510      745F7400 
 3511              	.LASF82:
 3512 0371 43435852 		.ascii	"CCXR\000"
 3512      00
 3513              	.LASF3:
 3514 0376 73686F72 		.ascii	"short int\000"
 3514      7420696E 
 3514      7400
 3515              	.LASF7:
 3516 0380 6C6F6E67 		.ascii	"long int\000"
 3516      20696E74 
 3516      00
 3517              	.LASF73:
 3518 0389 706F7274 		.ascii	"port_intctx\000"
 3518      5F696E74 
 3518      63747800 
 3519              	.LASF109:
 3520 0395 49544D5F 		.ascii	"ITM_RxBuffer\000"
 3520      52784275 
 3520      66666572 
 3520      00
 3521              	.LASF107:
 3522 03a2 64656C61 		.ascii	"delay\000"
 3522      7900
 3523              	.LASF65:
 3524 03a8 63685F73 		.ascii	"ch_system\000"
 3524      79737465 
 3524      6D00
 3525              	.LASF120:
 3526 03b2 73745374 		.ascii	"stStopAlarm\000"
 3526      6F70416C 
 3526      61726D00 
 3527              	.LASF60:
 3528 03be 6C617374 		.ascii	"lasttime\000"
ARM GAS  /tmp/ccrw7w3s.s 			page 98


 3528      74696D65 
 3528      00
 3529              	.LASF16:
 3530 03c7 75696E74 		.ascii	"uint64_t\000"
 3530      36345F74 
 3530      00
 3531              	.LASF66:
 3532 03d0 726C6973 		.ascii	"rlist\000"
 3532      7400
 3533              	.LASF5:
 3534 03d6 5F5F7569 		.ascii	"__uint8_t\000"
 3534      6E74385F 
 3534      7400
 3535              	.LASF31:
 3536 03e0 6E616D65 		.ascii	"name\000"
 3536      00
 3537              	.LASF113:
 3538 03e5 474E5520 		.ascii	"GNU C 4.8.4 20140526 (release) [ARM/embedded-4_8-br"
 3538      4320342E 
 3538      382E3420 
 3538      32303134 
 3538      30353236 
 3539 0418 616E6368 		.ascii	"anch revision 211358] -mcpu=cortex-m4 -mno-thumb-in"
 3539      20726576 
 3539      6973696F 
 3539      6E203231 
 3539      31333538 
 3540 044b 74657277 		.ascii	"terwork -mthumb -ggdb -O2 -fomit-frame-pointer -fal"
 3540      6F726B20 
 3540      2D6D7468 
 3540      756D6220 
 3540      2D676764 
 3541 047e 69676E2D 		.ascii	"ign-functions=16 -ffunction-sections -fdata-section"
 3541      66756E63 
 3541      74696F6E 
 3541      733D3136 
 3541      202D6666 
 3542 04b1 73202D66 		.ascii	"s -fno-common -flto\000"
 3542      6E6F2D63 
 3542      6F6D6D6F 
 3542      6E202D66 
 3542      6C746F00 
 3543              	.LASF69:
 3544 04c5 73697A65 		.ascii	"sizetype\000"
 3544      74797065 
 3544      00
 3545              	.LASF20:
 3546 04ce 74726566 		.ascii	"trefs_t\000"
 3546      735F7400 
 3547              	.LASF116:
 3548 04d6 706F7274 		.ascii	"port_timer_stop_alarm\000"
 3548      5F74696D 
 3548      65725F73 
 3548      746F705F 
 3548      616C6172 
 3549              	.LASF9:
 3550 04ec 6C6F6E67 		.ascii	"long unsigned int\000"
ARM GAS  /tmp/ccrw7w3s.s 			page 99


 3550      20756E73 
 3550      69676E65 
 3550      6420696E 
 3550      7400
 3551              	.LASF118:
 3552 04fe 63685654 		.ascii	"chVTDoSetI\000"
 3552      446F5365 
 3552      744900
 3553              	.LASF50:
 3554 0509 72656164 		.ascii	"ready_list_t\000"
 3554      795F6C69 
 3554      73745F74 
 3554      00
 3555              	.LASF27:
 3556 0516 71756575 		.ascii	"queue\000"
 3556      6500
 3557              	.LASF14:
 3558 051c 696E7433 		.ascii	"int32_t\000"
 3558      325F7400 
 3559              	.LASF98:
 3560 0524 6D757465 		.ascii	"mutex_t\000"
 3560      785F7400 
 3561              	.LASF29:
 3562 052c 6E657765 		.ascii	"newer\000"
 3562      7200
 3563              	.LASF2:
 3564 0532 756E7369 		.ascii	"unsigned char\000"
 3564      676E6564 
 3564      20636861 
 3564      7200
 3565              	.LASF8:
 3566 0540 5F5F7569 		.ascii	"__uint32_t\000"
 3566      6E743332 
 3566      5F7400
 3567              	.LASF36:
 3568 054b 77616974 		.ascii	"waiting\000"
 3568      696E6700 
 3569              	.LASF58:
 3570 0553 76697274 		.ascii	"virtual_timers_list_t\000"
 3570      75616C5F 
 3570      74696D65 
 3570      72735F6C 
 3570      6973745F 
 3571              	.LASF119:
 3572 0569 5F5F6675 		.ascii	"__func__.6383\000"
 3572      6E635F5F 
 3572      2E363338 
 3572      3300
 3573              	.LASF33:
 3574 0577 73746174 		.ascii	"state\000"
 3574      6500
 3575              	.LASF64:
 3576 057d 63685F73 		.ascii	"ch_system_t\000"
 3576      79737465 
 3576      6D5F7400 
 3577              	.LASF91:
 3578 0589 77747365 		.ascii	"wtsemp\000"
ARM GAS  /tmp/ccrw7w3s.s 			page 100


 3578      6D7000
 3579              	.LASF89:
 3580 0590 77747472 		.ascii	"wttrp\000"
 3580      7000
 3581              	.LASF1:
 3582 0596 7369676E 		.ascii	"signed char\000"
 3582      65642063 
 3582      68617200 
 3583              	.LASF56:
 3584 05a2 64656C74 		.ascii	"delta\000"
 3584      6100
 3585              	.LASF4:
 3586 05a8 73686F72 		.ascii	"short unsigned int\000"
 3586      7420756E 
 3586      7369676E 
 3586      65642069 
 3586      6E7400
 3587              	.LASF71:
 3588 05bb 73746B61 		.ascii	"stkalign_t\000"
 3588      6C69676E 
 3588      5F7400
 3589              	.LASF105:
 3590 05c6 5F5F6675 		.ascii	"__func__.6391\000"
 3590      6E635F5F 
 3590      2E363339 
 3590      3100
 3591              	.LASF52:
 3592 05d4 63757272 		.ascii	"current\000"
 3592      656E7400 
 3593              	.LASF30:
 3594 05dc 6F6C6465 		.ascii	"older\000"
 3594      7200
 3595              	.LASF87:
 3596 05e2 65786974 		.ascii	"exitcode\000"
 3596      636F6465 
 3596      00
 3597              	.LASF41:
 3598 05eb 6D706F6F 		.ascii	"mpool\000"
 3598      6C00
 3599              		.comm	__gnu_lto_v1,1,1
 3600              		.ident	"GCC: (GNU Tools for ARM Embedded Processors) 4.8.4 20140526 (release) [ARM/embedded-4_8-br
ARM GAS  /tmp/ccrw7w3s.s 			page 101


DEFINED SYMBOLS
                            *ABS*:00000000 chvt.c
     /tmp/ccrw7w3s.s:534    .text._vt_init:00000000 $t
     /tmp/ccrw7w3s.s:540    .text._vt_init:00000000 _vt_init
     /tmp/ccrw7w3s.s:568    .text._vt_init:00000018 $d
     /tmp/ccrw7w3s.s:573    .text.chVTDoSetI:00000000 $t
     /tmp/ccrw7w3s.s:579    .text.chVTDoSetI:00000000 chVTDoSetI
     /tmp/ccrw7w3s.s:757    .text.chVTDoSetI:00000080 $d
     /tmp/ccrw7w3s.s:765    .text.chVTDoResetI:00000000 $t
     /tmp/ccrw7w3s.s:771    .text.chVTDoResetI:00000000 chVTDoResetI
     /tmp/ccrw7w3s.s:916    .text.chVTDoResetI:00000070 $d
                            *COM*:00000001 __gnu_lto_v1
                     .debug_frame:00000010 $d
     /tmp/ccrw7w3s.s:572    .text._vt_init:0000001c $t
     /tmp/ccrw7w3s.s:764    .text.chVTDoSetI:00000084 $t
     /tmp/ccrw7w3s.s:924    .text.chVTDoResetI:00000074 $t

UNDEFINED SYMBOLS
ch
stSetAlarm
stStartAlarm
stStopAlarm
