ARM GAS  /tmp/ccydaJph.s 			page 1


   1              		.syntax unified
   2              		.cpu cortex-m4
   3              		.fpu softvfp
   4              		.eabi_attribute 20, 1
   5              		.eabi_attribute 21, 1
   6              		.eabi_attribute 23, 3
   7              		.eabi_attribute 24, 1
   8              		.eabi_attribute 25, 1
   9              		.eabi_attribute 26, 1
  10              		.eabi_attribute 30, 2
  11              		.eabi_attribute 34, 1
  12              		.eabi_attribute 18, 4
  13              		.thumb
  14              		.file	"hal.c"
  15              		.text
  16              	.Ltext0:
  17              		.section	.gnu.lto_.jmpfuncs.dd2e7a5c4c7d6dcb,"",%progbits
  18 0000 789C6362 		.ascii	"x\234cb`b\300\006d\2404#\224b\252f\370\3250\243A \223"
  18      6062C006 
  18      64A03423 
  18      9462AA66 
  18      F8D530A3 
  19 0017 9121172A 		.ascii	"\221!\027*\306\000\000@\270\004\032"
  19      C6000040 
  19      B8041A
  20              		.text
  21              		.section	.gnu.lto_.inline.dd2e7a5c4c7d6dcb,"",%progbits
  22 0000 789C6362 		.ascii	"x\234cb`b\300\006\214\2414#\003\003\227=#X\021\333\002"
  22      6062C006 
  22      8CA13423 
  22      0303973D 
  22      235811DB 
  23 0015 79B05A46 		.ascii	"y\260ZF.L\202\211\033\244\024\314d\000\000>\231\001"
  23      2E4C8289 
  23      1BA414CC 
  23      6400003E 
  23      9901
  24 0027 91       		.ascii	"\221"
  25              		.text
  26              		.section	.gnu.lto_.pureconst.dd2e7a5c4c7d6dcb,"",%progbits
  27 0000 789C6362 		.ascii	"x\234cb`b`f\200\000F\006\011\000\000\203\000!"
  27      60626066 
  27      80004606 
  27      09000083 
  27      0021
  28              		.text
  29              		.section	.gnu.lto_halInit.dd2e7a5c4c7d6dcb,"",%progbits
  30 0000 789C6362 		.ascii	"x\234cb`b@\007\222@\354\311\310\300 \007\244\031\231"
  30      60624007 
  30      9240ECC9 
  30      C8C02007 
  30      A41999
  31 0013 19189926 		.ascii	"\031\030\231&\234c`h\344`bd\0041\030\030\031\352\231"
  31      9C636068 
  31      E4606264 
  31      04311818 
  31      19EA99
ARM GAS  /tmp/ccydaJph.s 			page 2


  32 0026 18EB2319 		.ascii	"\030\353#\031\301j\3273\035x\360\377\377\272\017\033"
  32      C16AD733 
  32      1D78F0FF 
  32      FFBA0F1B 
  33 0036 1FAE6414 		.ascii	"\037\256d\024\342\000\012\2602\26444LP``H\006+\010\001"
  33      E2000AB0 
  33      32B43434 
  33      4C506060 
  33      48062B08 
  34 004b 92205DA1 		.ascii	"\222 ]\241\214L \232\371<C\363\203\177v\211\214\013"
  34      8C4C209A 
  34      F93C43F3 
  34      837F7689 
  34      8C0B
  35 005d 195981B2 		.ascii	"\031Y\201\262\325\014\277\032:\032\0042\031\201\252"
  35      D50CBF1A 
  35      3A1A0432 
  35      1981AA
  36 006c 21E66582 		.ascii	"!\346e\202\350\363\014-\017:\2231\0241%3B\034\013\022"
  36      E8F30C2D 
  36      0F3A9331 
  36      14312533 
  36      421C0B12 
  37 0080 91C86464 		.ascii	"\221\310dd\316ed\200*\312dd\001ik~pv1\0336\303\231\221"
  37      CE656480 
  37      2ACA6464 
  37      01696B7E 
  37      7076311B 
  38 0098 0D6F7E70 		.ascii	"\015o~p\3730VU,\250\252f\264\262cS\305\212\252j\376"
  38      FB305655 
  38      2CA8AA66 
  38      B4B26353 
  38      C58AAA6A 
  39 00ad 52AC66B1 		.ascii	"R\254f\261!T]dh|\260R\025\246\010\002B\200\022\300\360"
  39      21545D64 
  39      687CB052 
  39      15A60802 
  39      428012C0 
  40 00c2 00F94746 		.ascii	"\000\371GFOO\3379#3)\323?X?\277X?#1G\277\270(\031D\353"
  40      4F4FDF39 
  40      233329D3 
  40      3F583FBF 
  40      583F2331 
  41 00dd 25330000 		.ascii	"%3\000\000\336\007[\010"
  41      DE075B08 
  42              		.text
  43              		.section	.gnu.lto_.symbol_nodes.dd2e7a5c4c7d6dcb,"",%progbits
  44 0000 789C45C8 		.ascii	"x\234E\310;\016\2030\020\204\341\3311\206c\017\022M"
  44      3B0E8330 
  44      1084E1D9 
  44      3186630F 
  44      124D
  45 0012 2ADE7488 		.ascii	"*\336t\210\206\243\320s\206\240\334#\302\030\204\267"
  45      86A3D073 
  45      86A0DC23 
  45      C21884B7 
  46 0022 F9F61F82 		.ascii	"\371\366\037\202\230\361\034k\012hw@Z>\346;\206\017"
ARM GAS  /tmp/ccydaJph.s 			page 3


  46      98F11C6B 
  46      0A687740 
  46      5A3EE63B 
  46      860F
  47 0034 365176AF 		.ascii	"6Qv\257ei6RL5P.UOe\251Z\312\247j\250\374-\207\002\325"
  47      65693652 
  47      4C35502E 
  47      554F65A9 
  47      5ACAA76A 
  48 004e F71FCCB1 		.ascii	"\367\037\314\261F=\266h\206_\324\241:.\2115\210\023"
  48      463DB668 
  48      865FD4A1 
  48      3A2E8935 
  48      8813
  49 0060 7FE52D69 		.ascii	"\177\345-i"
  50              		.text
  51              		.section	.gnu.lto_.refs.dd2e7a5c4c7d6dcb,"",%progbits
  52 0000 789C6362 		.ascii	"x\234cb`b`e\200\000F\006&F\006\000\000\237\000\016"
  52      60626065 
  52      80004606 
  52      26460600 
  52      009F000E 
  53              		.text
  54              		.section	.gnu.lto_.decls.dd2e7a5c4c7d6dcb,"",%progbits
  55 0000 789CBD96 		.ascii	"x\234\275\226\177L\034E\024\307\337\334\301\301\001"
  55      7F4C1C45 
  55      14C7DFDC 
  55      C1C101
  56 000f 56436263 		.ascii	"VCbcMc\257j5i\002\253GU\374\247\006\241?0(\244X\243"
  56      4D63AF6A 
  56      356902AB 
  56      4755FCA7 
  56      06A13F30 
  57 0027 7F6D96DB 		.ascii	"\177m\226\333\205\333\344\356\366\334]\264\376\345\224"
  57      85DBE4EE 
  57      F6DC5DB4 
  57      FEE594
  58 0036 2A364D63 		.ascii	"*6Mc\200D-\221\330C\241\245\261\225\2441\306(!'\206"
  58      80442D91 
  58      D843A1A5 
  58      B195A431 
  58      C6282127 
  59 004b 48635290 		.ascii	"HcR\220\326\226Jl\257\324\330?4\206\030\323TS{\316\314"
  59      D6964A6C 
  59      AFD4D83F 
  59      348618D3 
  59      54537BCE 
  60 0060 EEDEEDC2 		.ascii	"\356\336\355\302n\271\373\307I\336\233\271\3357\237"
  60      6EB9FBC7 
  60      49DE9BB9 
  60      DD379F
  61 006f F9CEBCB7 		.ascii	"\371\316\274\267{\353\003\037\014\001@\226\264T\005"
  61      7BEB031F 
  61      0C014096 
  61      B45405
  62 007e 40A51FC8 		.ascii	"@\245\037\310\025\200\355\304\020\261a0Z\031\261\263"
  62      1580EDC4 
ARM GAS  /tmp/ccydaJph.s 			page 4


  62      10B16130 
  62      5A19B1B3 
  63 008e C4E6899D 		.ascii	"\304\346\211\235'v\201\330\002\261\237\210]6c3\340l"
  63      277681D8 
  63      02B19F88 
  63      5D366333 
  63      E06C
  64 00a0 34BE94D8 		.ascii	"4\276\224\330\022\261Yb\327L\336\342\012\346e\223\263"
  64      12B15962 
  64      D74CDEE2 
  64      0AE66593 
  64      B3
  65 00b1 6072CF9B 		.ascii	"`r\317\233\353\2701+\341\020\306=8\325\213w\317\254"
  65      EBB8312B 
  65      E110C63D 
  65      38D58B77 
  65      CFAC
  66 00c3 AB867E4C 		.ascii	"\253\206~LZ\012c4\263\016\340e$\240uAHW\260QU\020\306"
  66      5A0A6334 
  66      B30EE065 
  66      24A07541 
  66      4857B051 
  67 00da 28610B8C 		.ascii	"(a\013\214`\334\227\231\236\274\037\227\230\023B\336"
  67      60DC9799 
  67      9EBC1F97 
  67      981342DE 
  68 00ea D102FA04 		.ascii	"\321\002\372\004m\201\265\343h\344(\252\206\255p\202"
  68      6D81B5E3 
  68      68E428AA 
  68      86AD7082 
  69 00fa 04F6613C 		.ascii	"\004\366a<\365\200C'[\025\247\277\236\257\302%F$\235"
  69      F5804327 
  69      5B15A7BF 
  69      9EAFC225 
  69      46249D
  70 010d 710C6D05 		.ascii	"q\014m\005\227\266\031R4\370\207\371!\204SS\310e\365"
  70      97B61952 
  70      34F887F9 
  70      21845353 
  70      C865F5
  71 0120 0CB256DF 		.ascii	"\014\262V\337\230\333Rzp\036\205\004t\202\304\373\240"
  71      98DB527A 
  71      701E8504 
  71      7482C4FB 
  71      A0
  72 0131 0139F06B 		.ascii	"\0019\360k\"\250\232\223d\2461\311T\2738\313\324\236"
  72      22A89A93 
  72      64A631C9 
  72      54BB38CB 
  72      D49E
  73 0143 2C406D4F 		.ascii	",@mO\372\312\354\320\006\2526\010\007\363\031\311\255"
  73      FACAECD0 
  73      06AA3608 
  73      07F319C9 
  73      AD
  74 0154 16B2162B 		.ascii	"\026\262\026+\311\247\340R\357\3647\250\207$K@\343d"
  74      C9A7E052 
ARM GAS  /tmp/ccydaJph.s 			page 5


  74      EFF437A8 
  74      87244B40 
  74      E364
  75 0166 9A0F6690 		.ascii	"\232\017f\220Su\341\250s\357N<\215q\271\200N3\320\005"
  75      5375E1A8 
  75      73EF4E3C 
  75      8D71B980 
  75      4E33D005 
  76 017a 9F1324A0 		.ascii	"\237\023$\240\262\240]2\373m\005P\032\273m\016h\351"
  76      B2A05D32 
  76      FB6D0550 
  76      1ABB6D0E 
  76      68E9
  77 018c DF0DC586 		.ascii	"\337\015\305\206\373\340*[\224\036\226\233Psh43\300"
  77      FBE02A5B 
  77      941E969B 
  77      50736834 
  77      33C0
  78 019e 71809991 		.ascii	"q\200\231\221\333g\020\036\250\262\016\343z\321\270"
  78      DB67101E 
  78      A8B20EE3 
  78      7AD1B8
  79 01ad 90231F37 		.ascii	"\220#\0377f\253\372\004\013\366G!\260rOm\351\177\354"
  79      66ABFA04 
  79      0BF64721 
  79      B0724F6D 
  79      E97FEC
  80 01c0 B01B45C3 		.ascii	"\260\033E\303\234\312n\333a\267\012\201\335\343\255"
  80      9CCA6EDB 
  80      61B70A81 
  80      DDE3AD
  81 01cf 6C60DE06 		.ascii	"l`\336\006\303\376baNe\357\333ao\027\002\273\317E\231"
  81      C3FE6261 
  81      4E65EFDB 
  81      616F1702 
  81      BBCF4599 
  82 01e3 5BB33F5D 		.ascii	"[\263?]\002:E\336)\002\372\014m&\376\013\346\277d\376"
  82      023A45DE 
  82      2902FA0C 
  82      6D26FE0B 
  82      E6BF64FE 
  83 01f7 2BE62798 		.ascii	"+\346'\230\237d>M|\256\371\340\020\3234\232\327\344"
  83      9F643E4D 
  83      7CAEF9E0 
  83      10D3349A 
  83      D7E4
  84 0209 7C8AD72A 		.ascii	"|\212\327*2\234^\330C7h\274#\372\013\2029v\030r\300"
  84      329C5ED8 
  84      433768BC 
  84      23FA0B82 
  84      39761872 
  85 021e 966DB023 		.ascii	"\226m\260#\005\301\352\275\225\335\264\301\216\026\004"
  85      05C1EABD 
  85      95DDB4C1 
  85      8E1604
  86 022d 6BF356D6 		.ascii	"k\363V\326\327\236\207\035+\010\226\364Vv\304\006;U"
  86      D79E871D 
ARM GAS  /tmp/ccydaJph.s 			page 6


  86      2B0896F4 
  86      5676C406 
  86      3B55
  87 023f 10EC2072 		.ascii	"\020\354 r\221f\253\005\243\012\216\263*\030cy\376\226"
  87      9166AB05 
  87      A30A8EB3 
  87      2A186379 
  87      FE96
  88 0251 F969E6BF 		.ascii	"\371i\346\277c\376\014\363\337;\363\377\271\177\345"
  88      63FE0CF3 
  88      DF3BF3FF 
  88      B97FE5
  89 0260 8BCDF82B 		.ascii	"\213\315\370+\261\261Gsu\006\305\321\335\252\234\"\206"
  89      B1B14773 
  89      7506C5D1 
  89      DDAA9C22 
  89      86
  90 0271 51A515B2 		.ascii	"Q\245\025\262\011>\302\251L\346\337\017'\002\2038\375"
  90      093EC2A9 
  90      4CE6DF0F 
  90      27028338 
  90      FD
  91 0282 16CE66DF 		.ascii	"\026\316f\337\204\365\360\036\373\323\355%/r]@\333\357"
  91      84F5F01E 
  91      FBD3ED25 
  91      2F725D40 
  91      DBEF
  92 0294 F504CDA2 		.ascii	"\365\004\315\242\365\346h\257\337\332\320\342\212\015"
  92      F5E668AF 
  92      DFDAD0E2 
  92      8A0D
  93 02a2 013C02A3 		.ascii	"\001<\002\243\224\207\307\260\237\321h\374Y\264\311"
  93      9487C7B0 
  93      9FD168FC 
  93      59B4C9
  94 02b1 B9C939E4 		.ascii	"\271\3119\344\263_\240\2722}\231\017\216^\334\217\372"
  94      B35FA0BA 
  94      327D990F 
  94      8E5EDC8F 
  94      FA
  95 02c2 0FA466F0 		.ascii	"\017\244f\3602}'\033+\372\340\235\222\225k\030\220s"
  95      327D271B 
  95      2BFAE09D 
  95      92956B18 
  95      9073
  96 02d4 AE9089A5 		.ascii	"\256\220\211\245\271q4\260\0122\355\001\371\321\025"
  96      B97134B0 
  96      0A32ED01 
  96      F9D115
  97 02e3 32F9EBF2 		.ascii	"2\371\353\362\356A<e\234\220\205\370\313\003q\321\025"
  97      EE413C65 
  97      9C9085F8 
  97      CB0371D1 
  97      15
  98 02f4 71F37AFA 		.ascii	"q\363z\372\271U\210\221Rw\304%W\304/\247\017o\300\303"
  98      B9558891 
  98      5277C425 
ARM GAS  /tmp/ccydaJph.s 			page 7


  98      57C42FA7 
  98      0F6FC0C3 
  99 0308 3DE96CF6 		.ascii	"=\351l\366\231\"\322\264h\246\311\317>\374\314\002\310"
  99      9922D2B4 
  99      68A6C9CF 
  99      3EFCCC02 
  99      C8
 100 0319 E78CA5ED 		.ascii	"\347\214\245\355S\017\035?\273\352\370\363\267\2711"
 100      530F1D3F 
 100      BBEAF8F3 
 100      B7B931
 101 0328 9723FDDD 		.ascii	"\227#\375\335\003r\305\011y\020\206\3612\371`\033?\\"
 101      0372C509 
 101      791086F1 
 101      32F9601B 
 101      3F5C
 102 033a BF9F9E07 		.ascii	"\277\237\236\007\276\225\315\"\"\371c\366@\376\235\203"
 102      BE95CD22 
 102      22F963F6 
 102      40FE9D83 
 103 034a 787F985D 		.ascii	"x\177\230]\315\003\035\337\213\206\020\257sXb\333\316"
 103      CD031DDF 
 103      8B8610AF 
 103      735862DB 
 103      CE
 104 035b C95B3173 		.ascii	"\311[1s\361\0163\257\345\237\030x\252\266\226k\214\312"
 104      F10E33AF 
 104      E59F1878 
 104      AAB6966B 
 104      8CCA
 105 036d 1D726B3B 		.ascii	"\035rk;\247h\\T\210qIE\3255\256\375\305\347\353\302"
 105      A7685C54 
 105      88714945 
 105      D535AEFD 
 105      C5E7EBC2 
 106 0381 5C4B4B13 		.ascii	"\\KK\023\267\253\255\271\365\2650\275\305'\211\305b"
 106      B7ABADB9 
 106      F5B530BD 
 106      C52789C5 
 106      62
 107 0392 626D1402 		.ascii	"bm\024\002\273^\330\033j\204jM\217\327\205\371\256\244"
 107      BB5ED81B 
 107      6A846A4D 
 107      8FD785F9 
 107      AEA4
 108 03a4 ACF09AA4 		.ascii	"\254\360\232\244w'y25\321\311\354\011.\252\304%N\225"
 108      77277932 
 108      35D1C9EC 
 108      092EAAC4 
 108      254E95
 109 03b7 34495023 		.ascii	"4IP#Q\002P\305\327\005U\342\0045\036\346\272\"\221\032"
 109      510250C5 
 109      D70555E2 
 109      04351EE6 
 109      BA22911A 
 110 03cb 32A891E2 		.ascii	"2\250\221\342\035\222(Jb\356BBIH5\222\320!\327l\343"
 110      1D92284A 
ARM GAS  /tmp/ccydaJph.s 			page 8


 110      62EE4242 
 110      49483592 
 110      D021D76C 
 111 03e0 EB6BC28F 		.ascii	"\353k\302\217=\276\355\3250\347\270\301\311\211H\254"
 111      3DBEEDD5 
 111      30E7B8C1 
 111      C98948AC 
 112 03f0 5B94384D 		.ascii	"[\2248M\027\345\204N\324\224w\223\236\350\320\017\240"
 112      17E5844E 
 112      D4947793 
 112      9EE8D00F 
 112      A0
 113 0401 FF6FF5B8 		.ascii	"\377o\365\270\020\211\312\011\211\343E\251S\350\216"
 113      1089CA09 
 113      89E345A9 
 113      53E88E
 114 0410 E9BCFE46 		.ascii	"\351\274\376FR\322\210\232\012\236\267\364\224\306\025"
 114      52D2889A 
 114      0A9EB7F4 
 114      94C615
 115 041f 5152030A 		.ascii	"QR\003\012\275\245\226)ZR\222D\2654\331\235\024U\277"
 115      BDA59629 
 115      5A529244 
 115      B534D99D 
 115      1455BF
 116 0432 22AA2542 		.ascii	"\"\252%B\247\032\243.\032hkh\022t!\320\366\254\3215"
 116      A71AA32E 
 116      1A686B68 
 116      127421D0 
 116      F6ACD135 
 117 0446 1A5D93D1 		.ascii	"\032]\223\321\3550\272\235\264\013\2665\2644*\211N\271"
 117      ED30BA9D 
 117      B40BB635 
 117      B4342A89 
 117      4EB9
 118 0458 6BE3EADC 		.ascii	"k\343\352\334ij\204\366\265\021(#]sB\326\037Z\035dm"
 118      696A84F6 
 118      B5112823 
 118      5D7342D6 
 118      1F5A1D64 
 119 046d 806654A3 		.ascii	"\200fT\243\307\027\320t\032\372\344\352\320\016\205"
 119      C717D074 
 119      1AFAE4EA 
 119      D00E85
 120 047c 1C1B2D06 		.ascii	"\034\033-\006\236\325\303\316:\276\251\271\275\261\365"
 120      9ED5C3CE 
 120      3ABEA9B9 
 120      BDB1F5
 121 048b A51D7B5E 		.ascii	"\245\035{^1\356\221\331A6\240\200\207\327X+)\223\360"
 121      31EE91D9 
 121      4136A080 
 121      87D7582B 
 121      2993F0
 122 049e 32D2D1E0 		.ascii	"2\322\321\340G\327\010\226T\231l\204\212c\354\273\254"
 122      47D70896 
 122      54996C84 
 122      8A63ECBB 
ARM GAS  /tmp/ccydaJph.s 			page 9


 122      AC
 123 04af E2E365F2 		.ascii	"\342\343e\362+|\347\2625\305\356\333\307PF\305VEm\363"
 123      2B7CE7B2 
 123      35C5EEDB 
 123      C75046C5 
 123      56456DF3 
 124 04c3 AB29CCCA 		.ascii	"\253)\314\312[\204\235\346\177 ~\032n"
 124      5B849DE6 
 124      7F207E1A 
 124      6E
 125              		.text
 126              		.section	.gnu.lto_.symtab.dd2e7a5c4c7d6dcb,"",%progbits
 127 0000 68616C49 		.ascii	"halInit\000\000\000\000\000\000\000\000\000\000\000"
 127      6E697400 
 127      00000000 
 127      00000000 
 127      0000
 128 0012 00CE0000 		.ascii	"\000\316\000\000\000pal_default_config\000\000\002\000"
 128      0070616C 
 128      5F646566 
 128      61756C74 
 128      5F636F6E 
 129 002d 00000000 		.ascii	"\000\000\000\000\000\000\000\000\340\000\000\000stI"
 129      00000000 
 129      E0000000 
 129      737449
 130 003c 6E697400 		.ascii	"nit\000\000\002\000\000\000\000\000\000\000\000\000"
 130      00020000 
 130      00000000 
 130      000000
 131 004b D2000000 		.ascii	"\322\000\000\000boardInit\000\000\002\000\000\000\000"
 131      626F6172 
 131      64496E69 
 131      74000002 
 131      00000000 
 132 005f 00000000 		.ascii	"\000\000\000\000\000\324\000\000\000spiInit\000\000"
 132      00D40000 
 132      00737069 
 132      496E6974 
 132      0000
 133 0071 02000000 		.ascii	"\002\000\000\000\000\000\000\000\000\000\326\000\000"
 133      00000000 
 133      0000D600 
 133      00
 134 007e 00736449 		.ascii	"\000sdInit\000\000\002\000\000\000\000\000\000\000\000"
 134      6E697400 
 134      00020000 
 134      00000000 
 134      0000
 135 0090 00D80000 		.ascii	"\000\330\000\000\000_pal_lld_init\000\000\002\000\000"
 135      005F7061 
 135      6C5F6C6C 
 135      645F696E 
 135      69740000 
 136 00a7 00000000 		.ascii	"\000\000\000\000\000\000\000\332\000\000\000hal_lld"
 136      000000DA 
 136      00000068 
ARM GAS  /tmp/ccydaJph.s 			page 10


 136      616C5F6C 
 136      6C64
 137 00b9 5F696E69 		.ascii	"_init\000\000\002\000\000\000\000\000\000\000\000\000"
 137      74000002 
 137      00000000 
 137      00000000 
 137      00
 138 00ca DE000000 		.ascii	"\336\000\000\000"
 139              		.text
 140              		.section	.gnu.lto_.opts,"",%progbits
 141 0000 272D6D63 		.ascii	"'-mcpu=cortex-m4' '-mno-thumb-interwork' '-mthumb' "
 141      70753D63 
 141      6F727465 
 141      782D6D34 
 141      2720272D 
 142 0033 272D6767 		.ascii	"'-ggdb' '-O2' '-fomit-frame-pointer' '-falign-funct"
 142      64622720 
 142      272D4F32 
 142      2720272D 
 142      666F6D69 
 143 0066 696F6E73 		.ascii	"ions=16' '-ffunction-sections' '-fdata-sections' '-"
 143      3D313627 
 143      20272D66 
 143      66756E63 
 143      74696F6E 
 144 0099 666E6F2D 		.ascii	"fno-common' '-flto'\000"
 144      636F6D6D 
 144      6F6E2720 
 144      272D666C 
 144      746F2700 
 145              		.text
 146              		.cfi_sections	.debug_frame
 147              		.section	.text.halInit,"ax",%progbits
 148              		.align	2
 149              		.p2align 4,,15
 150              		.global	halInit
 151              		.thumb
 152              		.thumb_func
 153              		.type	halInit, %function
 154              	halInit:
 155              	.LFB270:
 156              		.file 1 "../ChibiOS/os/hal/src/hal.c"
 157              		.loc 1 56 0
 158              		.cfi_startproc
 159              		@ args = 0, pretend = 0, frame = 0
 160              		@ frame_needed = 0, uses_anonymous_args = 0
 161 0000 08B5     		push	{r3, lr}
 162              		.cfi_def_cfa_offset 8
 163              		.cfi_offset 3, -8
 164              		.cfi_offset 14, -4
 165              		.loc 1 62 0
 166 0002 FFF7FEFF 		bl	hal_lld_init
 167              	.LVL0:
 168              		.loc 1 65 0
 169 0006 0648     		ldr	r0, .L2
 170 0008 FFF7FEFF 		bl	_pal_lld_init
 171              	.LVL1:
ARM GAS  /tmp/ccydaJph.s 			page 11


 172              		.loc 1 101 0
 173 000c FFF7FEFF 		bl	sdInit
 174              	.LVL2:
 175              		.loc 1 107 0
 176 0010 FFF7FEFF 		bl	spiInit
 177              	.LVL3:
 178              		.loc 1 136 0
 179 0014 FFF7FEFF 		bl	boardInit
 180              	.LVL4:
 181              		.loc 1 145 0
 182 0018 BDE80840 		pop	{r3, lr}
 183              		.loc 1 143 0
 184 001c FFF7FEBF 		b	stInit
 185              	.LVL5:
 186              	.L3:
 187              		.align	2
 188              	.L2:
 189 0020 00000000 		.word	pal_default_config
 190              		.cfi_endproc
 191              	.LFE270:
 192              		.size	halInit, .-halInit
 193 0024 AFF30080 		.text
 193      AFF30080 
 193      AFF30080 
 194              	.Letext0:
 195              		.file 2 "/nfs/nfs5/home/research/hardware/arm2/gcc-arm-embedded/gcc-arm-none-eabi-4_8-2014q2/arm-n
 196              		.file 3 "/nfs/nfs5/home/research/hardware/arm2/gcc-arm-embedded/gcc-arm-none-eabi-4_8-2014q2/arm-n
 197              		.file 4 "../ChibiOS/os/common/ports/ARMCMx/compilers/GCC/chtypes.h"
 198              		.file 5 "../ChibiOS/os/rt/include/chsystypes.h"
 199              		.file 6 "../ChibiOS/os/rt/include/chschd.h"
 200              		.file 7 "../ChibiOS/os/common/ports/ARMCMx/chcore.h"
 201              		.file 8 "../ChibiOS/os/common/ports/ARMCMx/chcore_v7m.h"
 202              		.file 9 "../ChibiOS/os/rt/include/chtm.h"
 203              		.file 10 "../ChibiOS/os/rt/include/chsem.h"
 204              		.file 11 "../ChibiOS/os/rt/include/chmtx.h"
 205              		.file 12 "../ChibiOS/os/hal/ports/STM32/LLD/GPIOv2/hal_pal_lld.h"
 206              		.file 13 "../ChibiOS/os/common/ext/CMSIS/include/core_cm4.h"
 207              		.file 14 "../ChibiOS/os/hal/ports/STM32/STM32F3xx/hal_lld.h"
 208              		.file 15 "../ChibiOS/os/hal/include/hal_serial.h"
 209              		.file 16 "../ChibiOS/os/hal/include/hal_spi.h"
 210              		.file 17 "../ChibiOS/os/hal/boards/ST_STM32F3_DISCOVERY/board.h"
 211              		.file 18 "../ChibiOS/os/hal/include/hal_st.h"
 212              		.file 19 "../ChibiOS/os/hal/osal/rt/osal.h"
 213              		.section	.debug_info,"",%progbits
 214              	.Ldebug_info0:
 215 0000 89070000 		.4byte	0x789
 216 0004 0400     		.2byte	0x4
 217 0006 00000000 		.4byte	.Ldebug_abbrev0
 218 000a 04       		.byte	0x4
 219 000b 01       		.uleb128 0x1
 220 000c 65040000 		.4byte	.LASF111
 221 0010 01       		.byte	0x1
 222 0011 6F030000 		.4byte	.LASF112
 223 0015 DB020000 		.4byte	.LASF113
 224 0019 00000000 		.4byte	.Ldebug_ranges0+0
 225 001d 00000000 		.4byte	0
 226 0021 00000000 		.4byte	.Ldebug_line0
ARM GAS  /tmp/ccydaJph.s 			page 12


 227 0025 02       		.uleb128 0x2
 228 0026 04       		.byte	0x4
 229 0027 05       		.byte	0x5
 230 0028 696E7400 		.ascii	"int\000"
 231 002c 03       		.uleb128 0x3
 232 002d 04       		.byte	0x4
 233 002e 07       		.byte	0x7
 234 002f 6A010000 		.4byte	.LASF0
 235 0033 03       		.uleb128 0x3
 236 0034 01       		.byte	0x1
 237 0035 06       		.byte	0x6
 238 0036 ED000000 		.4byte	.LASF1
 239 003a 04       		.uleb128 0x4
 240 003b 43000000 		.4byte	.LASF5
 241 003f 02       		.byte	0x2
 242 0040 1C       		.byte	0x1c
 243 0041 45000000 		.4byte	0x45
 244 0045 03       		.uleb128 0x3
 245 0046 01       		.byte	0x1
 246 0047 08       		.byte	0x8
 247 0048 27030000 		.4byte	.LASF2
 248 004c 03       		.uleb128 0x3
 249 004d 02       		.byte	0x2
 250 004e 05       		.byte	0x5
 251 004f 3A030000 		.4byte	.LASF3
 252 0053 03       		.uleb128 0x3
 253 0054 02       		.byte	0x2
 254 0055 07       		.byte	0x7
 255 0056 B2010000 		.4byte	.LASF4
 256 005a 04       		.uleb128 0x4
 257 005b 0C020000 		.4byte	.LASF6
 258 005f 02       		.byte	0x2
 259 0060 37       		.byte	0x37
 260 0061 65000000 		.4byte	0x65
 261 0065 03       		.uleb128 0x3
 262 0066 04       		.byte	0x4
 263 0067 05       		.byte	0x5
 264 0068 0E010000 		.4byte	.LASF7
 265 006c 04       		.uleb128 0x4
 266 006d 32010000 		.4byte	.LASF8
 267 0071 02       		.byte	0x2
 268 0072 38       		.byte	0x38
 269 0073 77000000 		.4byte	0x77
 270 0077 03       		.uleb128 0x3
 271 0078 04       		.byte	0x4
 272 0079 07       		.byte	0x7
 273 007a 7E010000 		.4byte	.LASF9
 274 007e 03       		.uleb128 0x3
 275 007f 08       		.byte	0x8
 276 0080 05       		.byte	0x5
 277 0081 DF000000 		.4byte	.LASF10
 278 0085 04       		.uleb128 0x4
 279 0086 A2020000 		.4byte	.LASF11
 280 008a 02       		.byte	0x2
 281 008b 4E       		.byte	0x4e
 282 008c 90000000 		.4byte	0x90
 283 0090 03       		.uleb128 0x3
ARM GAS  /tmp/ccydaJph.s 			page 13


 284 0091 08       		.byte	0x8
 285 0092 07       		.byte	0x7
 286 0093 6D000000 		.4byte	.LASF12
 287 0097 04       		.uleb128 0x4
 288 0098 57040000 		.4byte	.LASF13
 289 009c 03       		.byte	0x3
 290 009d 2A       		.byte	0x2a
 291 009e 3A000000 		.4byte	0x3a
 292 00a2 04       		.uleb128 0x4
 293 00a3 1F030000 		.4byte	.LASF14
 294 00a7 03       		.byte	0x3
 295 00a8 41       		.byte	0x41
 296 00a9 5A000000 		.4byte	0x5a
 297 00ad 04       		.uleb128 0x4
 298 00ae A9030000 		.4byte	.LASF15
 299 00b2 03       		.byte	0x3
 300 00b3 42       		.byte	0x42
 301 00b4 6C000000 		.4byte	0x6c
 302 00b8 04       		.uleb128 0x4
 303 00b9 3A000000 		.4byte	.LASF16
 304 00bd 03       		.byte	0x3
 305 00be 4E       		.byte	0x4e
 306 00bf 85000000 		.4byte	0x85
 307 00c3 04       		.uleb128 0x4
 308 00c4 22040000 		.4byte	.LASF17
 309 00c8 04       		.byte	0x4
 310 00c9 39       		.byte	0x39
 311 00ca AD000000 		.4byte	0xad
 312 00ce 04       		.uleb128 0x4
 313 00cf EA010000 		.4byte	.LASF18
 314 00d3 04       		.byte	0x4
 315 00d4 3C       		.byte	0x3c
 316 00d5 97000000 		.4byte	0x97
 317 00d9 04       		.uleb128 0x4
 318 00da 1E010000 		.4byte	.LASF19
 319 00de 04       		.byte	0x4
 320 00df 3D       		.byte	0x3d
 321 00e0 97000000 		.4byte	0x97
 322 00e4 04       		.uleb128 0x4
 323 00e5 AD020000 		.4byte	.LASF20
 324 00e9 04       		.byte	0x4
 325 00ea 3E       		.byte	0x3e
 326 00eb 97000000 		.4byte	0x97
 327 00ef 04       		.uleb128 0x4
 328 00f0 D3020000 		.4byte	.LASF21
 329 00f4 04       		.byte	0x4
 330 00f5 40       		.byte	0x40
 331 00f6 AD000000 		.4byte	0xad
 332 00fa 04       		.uleb128 0x4
 333 00fb CF010000 		.4byte	.LASF22
 334 00ff 04       		.byte	0x4
 335 0100 41       		.byte	0x41
 336 0101 A2000000 		.4byte	0xa2
 337 0105 04       		.uleb128 0x4
 338 0106 00020000 		.4byte	.LASF23
 339 010a 04       		.byte	0x4
 340 010b 43       		.byte	0x43
ARM GAS  /tmp/ccydaJph.s 			page 14


 341 010c AD000000 		.4byte	0xad
 342 0110 04       		.uleb128 0x4
 343 0111 64010000 		.4byte	.LASF24
 344 0115 04       		.byte	0x4
 345 0116 45       		.byte	0x45
 346 0117 A2000000 		.4byte	0xa2
 347 011b 04       		.uleb128 0x4
 348 011c EA030000 		.4byte	.LASF25
 349 0120 05       		.byte	0x5
 350 0121 33       		.byte	0x33
 351 0122 AD000000 		.4byte	0xad
 352 0126 04       		.uleb128 0x4
 353 0127 E1030000 		.4byte	.LASF26
 354 012b 05       		.byte	0x5
 355 012c 3F       		.byte	0x3f
 356 012d 31010000 		.4byte	0x131
 357 0131 05       		.uleb128 0x5
 358 0132 C5010000 		.4byte	.LASF44
 359 0136 44       		.byte	0x44
 360 0137 06       		.byte	0x6
 361 0138 9A       		.byte	0x9a
 362 0139 0F020000 		.4byte	0x20f
 363 013d 06       		.uleb128 0x6
 364 013e 2C010000 		.4byte	.LASF27
 365 0142 06       		.byte	0x6
 366 0143 9B       		.byte	0x9b
 367 0144 44020000 		.4byte	0x244
 368 0148 00       		.byte	0
 369 0149 06       		.uleb128 0x6
 370 014a 95020000 		.4byte	.LASF28
 371 014e 06       		.byte	0x6
 372 014f 9C       		.byte	0x9c
 373 0150 EF000000 		.4byte	0xef
 374 0154 08       		.byte	0x8
 375 0155 07       		.uleb128 0x7
 376 0156 63747800 		.ascii	"ctx\000"
 377 015a 06       		.byte	0x6
 378 015b 9D       		.byte	0x9d
 379 015c 3C040000 		.4byte	0x43c
 380 0160 0C       		.byte	0xc
 381 0161 06       		.uleb128 0x6
 382 0162 21020000 		.4byte	.LASF29
 383 0166 06       		.byte	0x6
 384 0167 9F       		.byte	0x9f
 385 0168 1A020000 		.4byte	0x21a
 386 016c 10       		.byte	0x10
 387 016d 06       		.uleb128 0x6
 388 016e DB030000 		.4byte	.LASF30
 389 0172 06       		.byte	0x6
 390 0173 A0       		.byte	0xa0
 391 0174 1A020000 		.4byte	0x21a
 392 0178 14       		.byte	0x14
 393 0179 06       		.uleb128 0x6
 394 017a A0010000 		.4byte	.LASF31
 395 017e 06       		.byte	0x6
 396 017f A7       		.byte	0xa7
 397 0180 C1050000 		.4byte	0x5c1
ARM GAS  /tmp/ccydaJph.s 			page 15


 398 0184 18       		.byte	0x18
 399 0185 06       		.uleb128 0x6
 400 0186 CF030000 		.4byte	.LASF32
 401 018a 06       		.byte	0x6
 402 018b B0       		.byte	0xb0
 403 018c D3050000 		.4byte	0x5d3
 404 0190 1C       		.byte	0x1c
 405 0191 06       		.uleb128 0x6
 406 0192 08010000 		.4byte	.LASF33
 407 0196 06       		.byte	0x6
 408 0197 B5       		.byte	0xb5
 409 0198 D9000000 		.4byte	0xd9
 410 019c 20       		.byte	0x20
 411 019d 06       		.uleb128 0x6
 412 019e 5F040000 		.4byte	.LASF34
 413 01a2 06       		.byte	0x6
 414 01a3 B9       		.byte	0xb9
 415 01a4 CE000000 		.4byte	0xce
 416 01a8 21       		.byte	0x21
 417 01a9 06       		.uleb128 0x6
 418 01aa B5020000 		.4byte	.LASF35
 419 01ae 06       		.byte	0x6
 420 01af BE       		.byte	0xbe
 421 01b0 E4000000 		.4byte	0xe4
 422 01b4 22       		.byte	0x22
 423 01b5 08       		.uleb128 0x8
 424 01b6 7500     		.ascii	"u\000"
 425 01b8 06       		.byte	0x6
 426 01b9 0F01     		.2byte	0x10f
 427 01bb F6040000 		.4byte	0x4f6
 428 01bf 24       		.byte	0x24
 429 01c0 09       		.uleb128 0x9
 430 01c1 4D010000 		.4byte	.LASF36
 431 01c5 06       		.byte	0x6
 432 01c6 1401     		.2byte	0x114
 433 01c8 20020000 		.4byte	0x220
 434 01cc 28       		.byte	0x28
 435 01cd 09       		.uleb128 0x9
 436 01ce FF000000 		.4byte	.LASF37
 437 01d2 06       		.byte	0x6
 438 01d3 1A01     		.2byte	0x11a
 439 01d5 44020000 		.4byte	0x244
 440 01d9 2C       		.byte	0x2c
 441 01da 09       		.uleb128 0x9
 442 01db D5010000 		.4byte	.LASF38
 443 01df 06       		.byte	0x6
 444 01e0 2001     		.2byte	0x120
 445 01e2 05010000 		.4byte	0x105
 446 01e6 34       		.byte	0x34
 447 01e7 09       		.uleb128 0x9
 448 01e8 69050000 		.4byte	.LASF39
 449 01ec 06       		.byte	0x6
 450 01ed 2701     		.2byte	0x127
 451 01ef BB050000 		.4byte	0x5bb
 452 01f3 38       		.byte	0x38
 453 01f4 09       		.uleb128 0x9
 454 01f5 2F020000 		.4byte	.LASF40
ARM GAS  /tmp/ccydaJph.s 			page 16


 455 01f9 06       		.byte	0x6
 456 01fa 2B01     		.2byte	0x12b
 457 01fc EF000000 		.4byte	0xef
 458 0200 3C       		.byte	0x3c
 459 0201 09       		.uleb128 0x9
 460 0202 AC010000 		.4byte	.LASF41
 461 0206 06       		.byte	0x6
 462 0207 3201     		.2byte	0x132
 463 0209 F7020000 		.4byte	0x2f7
 464 020d 40       		.byte	0x40
 465 020e 00       		.byte	0
 466 020f 04       		.uleb128 0x4
 467 0210 41020000 		.4byte	.LASF42
 468 0214 05       		.byte	0x5
 469 0215 44       		.byte	0x44
 470 0216 1A020000 		.4byte	0x21a
 471 021a 0A       		.uleb128 0xa
 472 021b 04       		.byte	0x4
 473 021c 26010000 		.4byte	0x126
 474 0220 04       		.uleb128 0x4
 475 0221 53050000 		.4byte	.LASF43
 476 0225 05       		.byte	0x5
 477 0226 49       		.byte	0x49
 478 0227 2B020000 		.4byte	0x22b
 479 022b 05       		.uleb128 0x5
 480 022c B9030000 		.4byte	.LASF45
 481 0230 04       		.byte	0x4
 482 0231 06       		.byte	0x6
 483 0232 88       		.byte	0x88
 484 0233 44020000 		.4byte	0x244
 485 0237 06       		.uleb128 0x6
 486 0238 C9000000 		.4byte	.LASF46
 487 023c 06       		.byte	0x6
 488 023d 89       		.byte	0x89
 489 023e 1A020000 		.4byte	0x21a
 490 0242 00       		.byte	0
 491 0243 00       		.byte	0
 492 0244 04       		.uleb128 0x4
 493 0245 2A040000 		.4byte	.LASF47
 494 0249 05       		.byte	0x5
 495 024a 50       		.byte	0x50
 496 024b 4F020000 		.4byte	0x24f
 497 024f 05       		.uleb128 0x5
 498 0250 CE000000 		.4byte	.LASF48
 499 0254 08       		.byte	0x8
 500 0255 06       		.byte	0x6
 501 0256 8F       		.byte	0x8f
 502 0257 74020000 		.4byte	0x274
 503 025b 06       		.uleb128 0x6
 504 025c C9000000 		.4byte	.LASF46
 505 0260 06       		.byte	0x6
 506 0261 90       		.byte	0x90
 507 0262 1A020000 		.4byte	0x21a
 508 0266 00       		.byte	0
 509 0267 06       		.uleb128 0x6
 510 0268 4D000000 		.4byte	.LASF49
 511 026c 06       		.byte	0x6
ARM GAS  /tmp/ccydaJph.s 			page 17


 512 026d 91       		.byte	0x91
 513 026e 1A020000 		.4byte	0x21a
 514 0272 04       		.byte	0x4
 515 0273 00       		.byte	0
 516 0274 04       		.uleb128 0x4
 517 0275 13000000 		.4byte	.LASF50
 518 0279 05       		.byte	0x5
 519 027a 57       		.byte	0x57
 520 027b 7F020000 		.4byte	0x27f
 521 027f 0B       		.uleb128 0xb
 522 0280 F2010000 		.4byte	.LASF51
 523 0284 1C       		.byte	0x1c
 524 0285 06       		.byte	0x6
 525 0286 6A01     		.2byte	0x16a
 526 0288 DB020000 		.4byte	0x2db
 527 028c 09       		.uleb128 0x9
 528 028d 2C010000 		.4byte	.LASF27
 529 0291 06       		.byte	0x6
 530 0292 6B01     		.2byte	0x16b
 531 0294 44020000 		.4byte	0x244
 532 0298 00       		.byte	0
 533 0299 09       		.uleb128 0x9
 534 029a 95020000 		.4byte	.LASF28
 535 029e 06       		.byte	0x6
 536 029f 6C01     		.2byte	0x16c
 537 02a1 EF000000 		.4byte	0xef
 538 02a5 08       		.byte	0x8
 539 02a6 08       		.uleb128 0x8
 540 02a7 63747800 		.ascii	"ctx\000"
 541 02ab 06       		.byte	0x6
 542 02ac 6E01     		.2byte	0x16e
 543 02ae 3C040000 		.4byte	0x43c
 544 02b2 0C       		.byte	0xc
 545 02b3 09       		.uleb128 0x9
 546 02b4 21020000 		.4byte	.LASF29
 547 02b8 06       		.byte	0x6
 548 02b9 7101     		.2byte	0x171
 549 02bb 1A020000 		.4byte	0x21a
 550 02bf 10       		.byte	0x10
 551 02c0 09       		.uleb128 0x9
 552 02c1 DB030000 		.4byte	.LASF30
 553 02c5 06       		.byte	0x6
 554 02c6 7201     		.2byte	0x172
 555 02c8 1A020000 		.4byte	0x21a
 556 02cc 14       		.byte	0x14
 557 02cd 09       		.uleb128 0x9
 558 02ce 9A020000 		.4byte	.LASF52
 559 02d2 06       		.byte	0x6
 560 02d3 7501     		.2byte	0x175
 561 02d5 1A020000 		.4byte	0x21a
 562 02d9 18       		.byte	0x18
 563 02da 00       		.byte	0
 564 02db 04       		.uleb128 0x4
 565 02dc F4030000 		.4byte	.LASF53
 566 02e0 05       		.byte	0x5
 567 02e1 5C       		.byte	0x5c
 568 02e2 E6020000 		.4byte	0x2e6
ARM GAS  /tmp/ccydaJph.s 			page 18


 569 02e6 0A       		.uleb128 0xa
 570 02e7 04       		.byte	0x4
 571 02e8 EC020000 		.4byte	0x2ec
 572 02ec 0C       		.uleb128 0xc
 573 02ed F7020000 		.4byte	0x2f7
 574 02f1 0D       		.uleb128 0xd
 575 02f2 F7020000 		.4byte	0x2f7
 576 02f6 00       		.byte	0
 577 02f7 0E       		.uleb128 0xe
 578 02f8 04       		.byte	0x4
 579 02f9 04       		.uleb128 0x4
 580 02fa BA020000 		.4byte	.LASF54
 581 02fe 05       		.byte	0x5
 582 02ff 61       		.byte	0x61
 583 0300 04030000 		.4byte	0x304
 584 0304 0B       		.uleb128 0xb
 585 0305 8B030000 		.4byte	.LASF55
 586 0309 14       		.byte	0x14
 587 030a 06       		.byte	0x6
 588 030b 4501     		.2byte	0x145
 589 030d 53030000 		.4byte	0x353
 590 0311 09       		.uleb128 0x9
 591 0312 C9000000 		.4byte	.LASF46
 592 0316 06       		.byte	0x6
 593 0317 4601     		.2byte	0x146
 594 0319 D9050000 		.4byte	0x5d9
 595 031d 00       		.byte	0
 596 031e 09       		.uleb128 0x9
 597 031f 4D000000 		.4byte	.LASF49
 598 0323 06       		.byte	0x6
 599 0324 4701     		.2byte	0x147
 600 0326 D9050000 		.4byte	0x5d9
 601 032a 04       		.byte	0x4
 602 032b 09       		.uleb128 0x9
 603 032c 2D000000 		.4byte	.LASF56
 604 0330 06       		.byte	0x6
 605 0331 4801     		.2byte	0x148
 606 0333 1B010000 		.4byte	0x11b
 607 0337 08       		.byte	0x8
 608 0338 09       		.uleb128 0x9
 609 0339 27010000 		.4byte	.LASF57
 610 033d 06       		.byte	0x6
 611 033e 4901     		.2byte	0x149
 612 0340 DB020000 		.4byte	0x2db
 613 0344 0C       		.byte	0xc
 614 0345 08       		.uleb128 0x8
 615 0346 70617200 		.ascii	"par\000"
 616 034a 06       		.byte	0x6
 617 034b 4B01     		.2byte	0x14b
 618 034d F7020000 		.4byte	0x2f7
 619 0351 10       		.byte	0x10
 620 0352 00       		.byte	0
 621 0353 04       		.uleb128 0x4
 622 0354 A6000000 		.4byte	.LASF58
 623 0358 05       		.byte	0x5
 624 0359 66       		.byte	0x66
 625 035a 5E030000 		.4byte	0x35e
ARM GAS  /tmp/ccydaJph.s 			page 19


 626 035e 0B       		.uleb128 0xb
 627 035f 54020000 		.4byte	.LASF59
 628 0363 10       		.byte	0x10
 629 0364 06       		.byte	0x6
 630 0365 5501     		.2byte	0x155
 631 0367 A0030000 		.4byte	0x3a0
 632 036b 09       		.uleb128 0x9
 633 036c C9000000 		.4byte	.LASF46
 634 0370 06       		.byte	0x6
 635 0371 5601     		.2byte	0x156
 636 0373 D9050000 		.4byte	0x5d9
 637 0377 00       		.byte	0
 638 0378 09       		.uleb128 0x9
 639 0379 4D000000 		.4byte	.LASF49
 640 037d 06       		.byte	0x6
 641 037e 5801     		.2byte	0x158
 642 0380 D9050000 		.4byte	0x5d9
 643 0384 04       		.byte	0x4
 644 0385 09       		.uleb128 0x9
 645 0386 2D000000 		.4byte	.LASF56
 646 038a 06       		.byte	0x6
 647 038b 5A01     		.2byte	0x15a
 648 038d 1B010000 		.4byte	0x11b
 649 0391 08       		.byte	0x8
 650 0392 09       		.uleb128 0x9
 651 0393 44030000 		.4byte	.LASF60
 652 0397 06       		.byte	0x6
 653 0398 6201     		.2byte	0x162
 654 039a 1B010000 		.4byte	0x11b
 655 039e 0C       		.byte	0xc
 656 039f 00       		.byte	0
 657 03a0 04       		.uleb128 0x4
 658 03a1 5E000000 		.4byte	.LASF61
 659 03a5 05       		.byte	0x5
 660 03a6 6B       		.byte	0x6b
 661 03a7 AB030000 		.4byte	0x3ab
 662 03ab 0B       		.uleb128 0xb
 663 03ac 09030000 		.4byte	.LASF62
 664 03b0 04       		.byte	0x4
 665 03b1 06       		.byte	0x6
 666 03b2 7C01     		.2byte	0x17c
 667 03b4 C6030000 		.4byte	0x3c6
 668 03b8 09       		.uleb128 0x9
 669 03b9 FD030000 		.4byte	.LASF63
 670 03bd 06       		.byte	0x6
 671 03be 8401     		.2byte	0x184
 672 03c0 DF050000 		.4byte	0x5df
 673 03c4 00       		.byte	0
 674 03c5 00       		.byte	0
 675 03c6 04       		.uleb128 0x4
 676 03c7 DE010000 		.4byte	.LASF64
 677 03cb 05       		.byte	0x5
 678 03cc 70       		.byte	0x70
 679 03cd D1030000 		.4byte	0x3d1
 680 03d1 0B       		.uleb128 0xb
 681 03d2 65030000 		.4byte	.LASF65
 682 03d6 78       		.byte	0x78
ARM GAS  /tmp/ccydaJph.s 			page 20


 683 03d7 06       		.byte	0x6
 684 03d8 9C01     		.2byte	0x19c
 685 03da 1F040000 		.4byte	0x41f
 686 03de 09       		.uleb128 0x9
 687 03df 51040000 		.4byte	.LASF66
 688 03e3 06       		.byte	0x6
 689 03e4 A001     		.2byte	0x1a0
 690 03e6 74020000 		.4byte	0x274
 691 03ea 00       		.byte	0
 692 03eb 09       		.uleb128 0x9
 693 03ec 46010000 		.4byte	.LASF67
 694 03f0 06       		.byte	0x6
 695 03f1 A401     		.2byte	0x1a4
 696 03f3 53030000 		.4byte	0x353
 697 03f7 1C       		.byte	0x1c
 698 03f8 08       		.uleb128 0x8
 699 03f9 64626700 		.ascii	"dbg\000"
 700 03fd 06       		.byte	0x6
 701 03fe A801     		.2byte	0x1a8
 702 0400 A0030000 		.4byte	0x3a0
 703 0404 2C       		.byte	0x2c
 704 0405 09       		.uleb128 0x9
 705 0406 93000000 		.4byte	.LASF68
 706 040a 06       		.byte	0x6
 707 040b AC01     		.2byte	0x1ac
 708 040d 26010000 		.4byte	0x126
 709 0411 30       		.byte	0x30
 710 0412 08       		.uleb128 0x8
 711 0413 746D00   		.ascii	"tm\000"
 712 0416 06       		.byte	0x6
 713 0417 B101     		.2byte	0x1b1
 714 0419 EB040000 		.4byte	0x4eb
 715 041d 74       		.byte	0x74
 716 041e 00       		.byte	0
 717 041f 03       		.uleb128 0x3
 718 0420 04       		.byte	0x4
 719 0421 07       		.byte	0x7
 720 0422 38020000 		.4byte	.LASF69
 721 0426 04       		.uleb128 0x4
 722 0427 3D010000 		.4byte	.LASF70
 723 042b 07       		.byte	0x7
 724 042c 65       		.byte	0x65
 725 042d F7020000 		.4byte	0x2f7
 726 0431 04       		.uleb128 0x4
 727 0432 16020000 		.4byte	.LASF71
 728 0436 07       		.byte	0x7
 729 0437 6D       		.byte	0x6d
 730 0438 B8000000 		.4byte	0xb8
 731 043c 05       		.uleb128 0x5
 732 043d 6B020000 		.4byte	.LASF72
 733 0441 04       		.byte	0x4
 734 0442 07       		.byte	0x7
 735 0443 89       		.byte	0x89
 736 0444 54040000 		.4byte	0x454
 737 0448 07       		.uleb128 0x7
 738 0449 737000   		.ascii	"sp\000"
 739 044c 07       		.byte	0x7
ARM GAS  /tmp/ccydaJph.s 			page 21


 740 044d 8A       		.byte	0x8a
 741 044e D0040000 		.4byte	0x4d0
 742 0452 00       		.byte	0
 743 0453 00       		.byte	0
 744 0454 0B       		.uleb128 0xb
 745 0455 52000000 		.4byte	.LASF73
 746 0459 24       		.byte	0x24
 747 045a 08       		.byte	0x8
 748 045b 5901     		.2byte	0x159
 749 045d D0040000 		.4byte	0x4d0
 750 0461 08       		.uleb128 0x8
 751 0462 723400   		.ascii	"r4\000"
 752 0465 08       		.byte	0x8
 753 0466 6C01     		.2byte	0x16c
 754 0468 26040000 		.4byte	0x426
 755 046c 00       		.byte	0
 756 046d 08       		.uleb128 0x8
 757 046e 723500   		.ascii	"r5\000"
 758 0471 08       		.byte	0x8
 759 0472 6D01     		.2byte	0x16d
 760 0474 26040000 		.4byte	0x426
 761 0478 04       		.byte	0x4
 762 0479 08       		.uleb128 0x8
 763 047a 723600   		.ascii	"r6\000"
 764 047d 08       		.byte	0x8
 765 047e 6E01     		.2byte	0x16e
 766 0480 26040000 		.4byte	0x426
 767 0484 08       		.byte	0x8
 768 0485 08       		.uleb128 0x8
 769 0486 723700   		.ascii	"r7\000"
 770 0489 08       		.byte	0x8
 771 048a 6F01     		.2byte	0x16f
 772 048c 26040000 		.4byte	0x426
 773 0490 0C       		.byte	0xc
 774 0491 08       		.uleb128 0x8
 775 0492 723800   		.ascii	"r8\000"
 776 0495 08       		.byte	0x8
 777 0496 7001     		.2byte	0x170
 778 0498 26040000 		.4byte	0x426
 779 049c 10       		.byte	0x10
 780 049d 08       		.uleb128 0x8
 781 049e 723900   		.ascii	"r9\000"
 782 04a1 08       		.byte	0x8
 783 04a2 7101     		.2byte	0x171
 784 04a4 26040000 		.4byte	0x426
 785 04a8 14       		.byte	0x14
 786 04a9 08       		.uleb128 0x8
 787 04aa 72313000 		.ascii	"r10\000"
 788 04ae 08       		.byte	0x8
 789 04af 7201     		.2byte	0x172
 790 04b1 26040000 		.4byte	0x426
 791 04b5 18       		.byte	0x18
 792 04b6 08       		.uleb128 0x8
 793 04b7 72313100 		.ascii	"r11\000"
 794 04bb 08       		.byte	0x8
 795 04bc 7301     		.2byte	0x173
 796 04be 26040000 		.4byte	0x426
ARM GAS  /tmp/ccydaJph.s 			page 22


 797 04c2 1C       		.byte	0x1c
 798 04c3 08       		.uleb128 0x8
 799 04c4 6C7200   		.ascii	"lr\000"
 800 04c7 08       		.byte	0x8
 801 04c8 7401     		.2byte	0x174
 802 04ca 26040000 		.4byte	0x426
 803 04ce 20       		.byte	0x20
 804 04cf 00       		.byte	0
 805 04d0 0A       		.uleb128 0xa
 806 04d1 04       		.byte	0x4
 807 04d2 54040000 		.4byte	0x454
 808 04d6 0F       		.uleb128 0xf
 809 04d7 04       		.byte	0x4
 810 04d8 09       		.byte	0x9
 811 04d9 38       		.byte	0x38
 812 04da EB040000 		.4byte	0x4eb
 813 04de 06       		.uleb128 0x6
 814 04df 07040000 		.4byte	.LASF74
 815 04e3 09       		.byte	0x9
 816 04e4 3C       		.byte	0x3c
 817 04e5 C3000000 		.4byte	0xc3
 818 04e9 00       		.byte	0
 819 04ea 00       		.byte	0
 820 04eb 04       		.uleb128 0x4
 821 04ec 78020000 		.4byte	.LASF75
 822 04f0 09       		.byte	0x9
 823 04f1 3D       		.byte	0x3d
 824 04f2 D6040000 		.4byte	0x4d6
 825 04f6 10       		.uleb128 0x10
 826 04f7 04       		.byte	0x4
 827 04f8 06       		.byte	0x6
 828 04f9 D2       		.byte	0xd2
 829 04fa 59050000 		.4byte	0x559
 830 04fe 11       		.uleb128 0x11
 831 04ff 33000000 		.4byte	.LASF76
 832 0503 06       		.byte	0x6
 833 0504 D9       		.byte	0xd9
 834 0505 FA000000 		.4byte	0xfa
 835 0509 11       		.uleb128 0x11
 836 050a 8A000000 		.4byte	.LASF77
 837 050e 06       		.byte	0x6
 838 050f E0       		.byte	0xe0
 839 0510 FA000000 		.4byte	0xfa
 840 0514 11       		.uleb128 0x11
 841 0515 45050000 		.4byte	.LASF78
 842 0519 06       		.byte	0x6
 843 051a E7       		.byte	0xe7
 844 051b F7020000 		.4byte	0x2f7
 845 051f 11       		.uleb128 0x11
 846 0520 27000000 		.4byte	.LASF79
 847 0524 06       		.byte	0x6
 848 0525 EE       		.byte	0xee
 849 0526 59050000 		.4byte	0x559
 850 052a 11       		.uleb128 0x11
 851 052b 9E000000 		.4byte	.LASF80
 852 052f 06       		.byte	0x6
 853 0530 F3       		.byte	0xf3
ARM GAS  /tmp/ccydaJph.s 			page 23


 854 0531 FA000000 		.4byte	0xfa
 855 0535 11       		.uleb128 0x11
 856 0536 77010000 		.4byte	.LASF81
 857 053a 06       		.byte	0x6
 858 053b FC       		.byte	0xfc
 859 053c 84050000 		.4byte	0x584
 860 0540 12       		.uleb128 0x12
 861 0541 B2030000 		.4byte	.LASF82
 862 0545 06       		.byte	0x6
 863 0546 0501     		.2byte	0x105
 864 0548 BB050000 		.4byte	0x5bb
 865 054c 12       		.uleb128 0x12
 866 054d 5E030000 		.4byte	.LASF83
 867 0551 06       		.byte	0x6
 868 0552 0D01     		.2byte	0x10d
 869 0554 05010000 		.4byte	0x105
 870 0558 00       		.byte	0
 871 0559 0A       		.uleb128 0xa
 872 055a 04       		.byte	0x4
 873 055b 0F020000 		.4byte	0x20f
 874 055f 05       		.uleb128 0x5
 875 0560 9C030000 		.4byte	.LASF84
 876 0564 0C       		.byte	0xc
 877 0565 0A       		.byte	0xa
 878 0566 34       		.byte	0x34
 879 0567 84050000 		.4byte	0x584
 880 056b 06       		.uleb128 0x6
 881 056c 2C010000 		.4byte	.LASF27
 882 0570 0A       		.byte	0xa
 883 0571 35       		.byte	0x35
 884 0572 44020000 		.4byte	0x244
 885 0576 00       		.byte	0
 886 0577 07       		.uleb128 0x7
 887 0578 636E7400 		.ascii	"cnt\000"
 888 057c 0A       		.byte	0xa
 889 057d 37       		.byte	0x37
 890 057e 10010000 		.4byte	0x110
 891 0582 08       		.byte	0x8
 892 0583 00       		.byte	0
 893 0584 0A       		.uleb128 0xa
 894 0585 04       		.byte	0x4
 895 0586 5F050000 		.4byte	0x55f
 896 058a 05       		.uleb128 0x5
 897 058b 3A040000 		.4byte	.LASF85
 898 058f 10       		.byte	0x10
 899 0590 0B       		.byte	0xb
 900 0591 39       		.byte	0x39
 901 0592 BB050000 		.4byte	0x5bb
 902 0596 06       		.uleb128 0x6
 903 0597 2C010000 		.4byte	.LASF27
 904 059b 0B       		.byte	0xb
 905 059c 3A       		.byte	0x3a
 906 059d 44020000 		.4byte	0x244
 907 05a1 00       		.byte	0
 908 05a2 06       		.uleb128 0x6
 909 05a3 C9030000 		.4byte	.LASF86
 910 05a7 0B       		.byte	0xb
ARM GAS  /tmp/ccydaJph.s 			page 24


 911 05a8 3C       		.byte	0x3c
 912 05a9 1A020000 		.4byte	0x21a
 913 05ad 08       		.byte	0x8
 914 05ae 06       		.uleb128 0x6
 915 05af C9000000 		.4byte	.LASF46
 916 05b3 0B       		.byte	0xb
 917 05b4 3E       		.byte	0x3e
 918 05b5 EF050000 		.4byte	0x5ef
 919 05b9 0C       		.byte	0xc
 920 05ba 00       		.byte	0
 921 05bb 0A       		.uleb128 0xa
 922 05bc 04       		.byte	0x4
 923 05bd 8A050000 		.4byte	0x58a
 924 05c1 0A       		.uleb128 0xa
 925 05c2 04       		.byte	0x4
 926 05c3 C7050000 		.4byte	0x5c7
 927 05c7 13       		.uleb128 0x13
 928 05c8 CC050000 		.4byte	0x5cc
 929 05cc 03       		.uleb128 0x3
 930 05cd 01       		.byte	0x1
 931 05ce 08       		.byte	0x8
 932 05cf D6030000 		.4byte	.LASF87
 933 05d3 0A       		.uleb128 0xa
 934 05d4 04       		.byte	0x4
 935 05d5 31040000 		.4byte	0x431
 936 05d9 0A       		.uleb128 0xa
 937 05da 04       		.byte	0x4
 938 05db F9020000 		.4byte	0x2f9
 939 05df 14       		.uleb128 0x14
 940 05e0 C1050000 		.4byte	0x5c1
 941 05e4 04       		.uleb128 0x4
 942 05e5 55010000 		.4byte	.LASF88
 943 05e9 0B       		.byte	0xb
 944 05ea 34       		.byte	0x34
 945 05eb 8A050000 		.4byte	0x58a
 946 05ef 0A       		.uleb128 0xa
 947 05f0 04       		.byte	0x4
 948 05f1 E4050000 		.4byte	0x5e4
 949 05f5 03       		.uleb128 0x3
 950 05f6 01       		.byte	0x1
 951 05f7 02       		.byte	0x2
 952 05f8 19030000 		.4byte	.LASF89
 953 05fc 0F       		.uleb128 0xf
 954 05fd 1C       		.byte	0x1c
 955 05fe 0C       		.byte	0xc
 956 05ff F5       		.byte	0xf5
 957 0600 5B060000 		.4byte	0x65b
 958 0604 06       		.uleb128 0x6
 959 0605 F9000000 		.4byte	.LASF90
 960 0609 0C       		.byte	0xc
 961 060a F7       		.byte	0xf7
 962 060b AD000000 		.4byte	0xad
 963 060f 00       		.byte	0
 964 0610 06       		.uleb128 0x6
 965 0611 A5010000 		.4byte	.LASF91
 966 0615 0C       		.byte	0xc
 967 0616 F9       		.byte	0xf9
ARM GAS  /tmp/ccydaJph.s 			page 25


 968 0617 AD000000 		.4byte	0xad
 969 061b 04       		.byte	0x4
 970 061c 06       		.uleb128 0x6
 971 061d 98010000 		.4byte	.LASF92
 972 0621 0C       		.byte	0xc
 973 0622 FB       		.byte	0xfb
 974 0623 AD000000 		.4byte	0xad
 975 0627 08       		.byte	0x8
 976 0628 06       		.uleb128 0x6
 977 0629 84000000 		.4byte	.LASF93
 978 062d 0C       		.byte	0xc
 979 062e FD       		.byte	0xfd
 980 062f AD000000 		.4byte	0xad
 981 0633 0C       		.byte	0xc
 982 0634 07       		.uleb128 0x7
 983 0635 6F647200 		.ascii	"odr\000"
 984 0639 0C       		.byte	0xc
 985 063a FF       		.byte	0xff
 986 063b AD000000 		.4byte	0xad
 987 063f 10       		.byte	0x10
 988 0640 09       		.uleb128 0x9
 989 0641 35030000 		.4byte	.LASF94
 990 0645 0C       		.byte	0xc
 991 0646 0101     		.2byte	0x101
 992 0648 AD000000 		.4byte	0xad
 993 064c 14       		.byte	0x14
 994 064d 09       		.uleb128 0x9
 995 064e 89020000 		.4byte	.LASF95
 996 0652 0C       		.byte	0xc
 997 0653 0301     		.2byte	0x103
 998 0655 AD000000 		.4byte	0xad
 999 0659 18       		.byte	0x18
 1000 065a 00       		.byte	0
 1001 065b 15       		.uleb128 0x15
 1002 065c 00000000 		.4byte	.LASF96
 1003 0660 0C       		.byte	0xc
 1004 0661 0401     		.2byte	0x104
 1005 0663 FC050000 		.4byte	0x5fc
 1006 0667 16       		.uleb128 0x16
 1007 0668 A8       		.byte	0xa8
 1008 0669 0C       		.byte	0xc
 1009 066a 0D01     		.2byte	0x10d
 1010 066c BF060000 		.4byte	0x6bf
 1011 0670 09       		.uleb128 0x9
 1012 0671 57030000 		.4byte	.LASF97
 1013 0675 0C       		.byte	0xc
 1014 0676 1001     		.2byte	0x110
 1015 0678 5B060000 		.4byte	0x65b
 1016 067c 00       		.byte	0
 1017 067d 09       		.uleb128 0x9
 1018 067e 5D010000 		.4byte	.LASF98
 1019 0682 0C       		.byte	0xc
 1020 0683 1401     		.2byte	0x114
 1021 0685 5B060000 		.4byte	0x65b
 1022 0689 1C       		.byte	0x1c
 1023 068a 09       		.uleb128 0x9
 1024 068b 4C050000 		.4byte	.LASF99
ARM GAS  /tmp/ccydaJph.s 			page 26


 1025 068f 0C       		.byte	0xc
 1026 0690 1801     		.2byte	0x118
 1027 0692 5B060000 		.4byte	0x65b
 1028 0696 38       		.byte	0x38
 1029 0697 09       		.uleb128 0x9
 1030 0698 8E020000 		.4byte	.LASF100
 1031 069c 0C       		.byte	0xc
 1032 069d 1C01     		.2byte	0x11c
 1033 069f 5B060000 		.4byte	0x65b
 1034 06a3 54       		.byte	0x54
 1035 06a4 09       		.uleb128 0x9
 1036 06a5 17010000 		.4byte	.LASF101
 1037 06a9 0C       		.byte	0xc
 1038 06aa 2001     		.2byte	0x120
 1039 06ac 5B060000 		.4byte	0x65b
 1040 06b0 70       		.byte	0x70
 1041 06b1 09       		.uleb128 0x9
 1042 06b2 0E040000 		.4byte	.LASF102
 1043 06b6 0C       		.byte	0xc
 1044 06b7 2401     		.2byte	0x124
 1045 06b9 5B060000 		.4byte	0x65b
 1046 06bd 8C       		.byte	0x8c
 1047 06be 00       		.byte	0
 1048 06bf 15       		.uleb128 0x15
 1049 06c0 71050000 		.4byte	.LASF103
 1050 06c4 0C       		.byte	0xc
 1051 06c5 3A01     		.2byte	0x13a
 1052 06c7 67060000 		.4byte	0x667
 1053 06cb 17       		.uleb128 0x17
 1054 06cc CA020000 		.4byte	.LASF114
 1055 06d0 13       		.byte	0x13
 1056 06d1 C101     		.2byte	0x1c1
 1057 06d3 03       		.byte	0x3
 1058 06d4 18       		.uleb128 0x18
 1059 06d5 90010000 		.4byte	.LASF115
 1060 06d9 01       		.byte	0x1
 1061 06da 38       		.byte	0x38
 1062 06db 00000000 		.4byte	.LFB270
 1063 06df 24000000 		.4byte	.LFE270-.LFB270
 1064 06e3 01       		.uleb128 0x1
 1065 06e4 9C       		.byte	0x9c
 1066 06e5 20070000 		.4byte	0x720
 1067 06e9 19       		.uleb128 0x19
 1068 06ea 06000000 		.4byte	.LVL0
 1069 06ee 4D070000 		.4byte	0x74d
 1070 06f2 19       		.uleb128 0x19
 1071 06f3 0C000000 		.4byte	.LVL1
 1072 06f7 55070000 		.4byte	0x755
 1073 06fb 19       		.uleb128 0x19
 1074 06fc 10000000 		.4byte	.LVL2
 1075 0700 6D070000 		.4byte	0x76d
 1076 0704 19       		.uleb128 0x19
 1077 0705 14000000 		.4byte	.LVL3
 1078 0709 75070000 		.4byte	0x775
 1079 070d 19       		.uleb128 0x19
 1080 070e 18000000 		.4byte	.LVL4
 1081 0712 7D070000 		.4byte	0x77d
ARM GAS  /tmp/ccydaJph.s 			page 27


 1082 0716 1A       		.uleb128 0x1a
 1083 0717 20000000 		.4byte	.LVL5
 1084 071b 85070000 		.4byte	0x785
 1085 071f 00       		.byte	0
 1086 0720 1B       		.uleb128 0x1b
 1087 0721 BC000000 		.4byte	.LASF104
 1088 0725 0D       		.byte	0xd
 1089 0726 4407     		.2byte	0x744
 1090 0728 2C070000 		.4byte	0x72c
 1091 072c 14       		.uleb128 0x14
 1092 072d A2000000 		.4byte	0xa2
 1093 0731 1C       		.uleb128 0x1c
 1094 0732 636800   		.ascii	"ch\000"
 1095 0735 06       		.byte	0x6
 1096 0736 D201     		.2byte	0x1d2
 1097 0738 C6030000 		.4byte	0x3c6
 1098 073c 1B       		.uleb128 0x1b
 1099 073d 7B050000 		.4byte	.LASF105
 1100 0741 0C       		.byte	0xc
 1101 0742 1E02     		.2byte	0x21e
 1102 0744 48070000 		.4byte	0x748
 1103 0748 13       		.uleb128 0x13
 1104 0749 BF060000 		.4byte	0x6bf
 1105 074d 1D       		.uleb128 0x1d
 1106 074e 15040000 		.4byte	.LASF106
 1107 0752 0E       		.byte	0xe
 1108 0753 8204     		.2byte	0x482
 1109 0755 1E       		.uleb128 0x1e
 1110 0756 43040000 		.4byte	.LASF116
 1111 075a 0C       		.byte	0xc
 1112 075b 2302     		.2byte	0x223
 1113 075d 67070000 		.4byte	0x767
 1114 0761 0D       		.uleb128 0xd
 1115 0762 67070000 		.4byte	0x767
 1116 0766 00       		.byte	0
 1117 0767 0A       		.uleb128 0xa
 1118 0768 04       		.byte	0x4
 1119 0769 48070000 		.4byte	0x748
 1120 076d 1D       		.uleb128 0x1d
 1121 076e 62050000 		.4byte	.LASF107
 1122 0772 0F       		.byte	0xf
 1123 0773 1001     		.2byte	0x110
 1124 0775 1D       		.uleb128 0x1d
 1125 0776 27020000 		.4byte	.LASF108
 1126 077a 10       		.byte	0x10
 1127 077b 0601     		.2byte	0x106
 1128 077d 1D       		.uleb128 0x1d
 1129 077e 4D030000 		.4byte	.LASF109
 1130 0782 11       		.byte	0x11
 1131 0783 BA04     		.2byte	0x4ba
 1132 0785 1F       		.uleb128 0x1f
 1133 0786 20000000 		.4byte	.LASF110
 1134 078a 12       		.byte	0x12
 1135 078b 56       		.byte	0x56
 1136 078c 00       		.byte	0
 1137              		.section	.debug_abbrev,"",%progbits
 1138              	.Ldebug_abbrev0:
ARM GAS  /tmp/ccydaJph.s 			page 28


 1139 0000 01       		.uleb128 0x1
 1140 0001 11       		.uleb128 0x11
 1141 0002 01       		.byte	0x1
 1142 0003 25       		.uleb128 0x25
 1143 0004 0E       		.uleb128 0xe
 1144 0005 13       		.uleb128 0x13
 1145 0006 0B       		.uleb128 0xb
 1146 0007 03       		.uleb128 0x3
 1147 0008 0E       		.uleb128 0xe
 1148 0009 1B       		.uleb128 0x1b
 1149 000a 0E       		.uleb128 0xe
 1150 000b 55       		.uleb128 0x55
 1151 000c 17       		.uleb128 0x17
 1152 000d 11       		.uleb128 0x11
 1153 000e 01       		.uleb128 0x1
 1154 000f 10       		.uleb128 0x10
 1155 0010 17       		.uleb128 0x17
 1156 0011 00       		.byte	0
 1157 0012 00       		.byte	0
 1158 0013 02       		.uleb128 0x2
 1159 0014 24       		.uleb128 0x24
 1160 0015 00       		.byte	0
 1161 0016 0B       		.uleb128 0xb
 1162 0017 0B       		.uleb128 0xb
 1163 0018 3E       		.uleb128 0x3e
 1164 0019 0B       		.uleb128 0xb
 1165 001a 03       		.uleb128 0x3
 1166 001b 08       		.uleb128 0x8
 1167 001c 00       		.byte	0
 1168 001d 00       		.byte	0
 1169 001e 03       		.uleb128 0x3
 1170 001f 24       		.uleb128 0x24
 1171 0020 00       		.byte	0
 1172 0021 0B       		.uleb128 0xb
 1173 0022 0B       		.uleb128 0xb
 1174 0023 3E       		.uleb128 0x3e
 1175 0024 0B       		.uleb128 0xb
 1176 0025 03       		.uleb128 0x3
 1177 0026 0E       		.uleb128 0xe
 1178 0027 00       		.byte	0
 1179 0028 00       		.byte	0
 1180 0029 04       		.uleb128 0x4
 1181 002a 16       		.uleb128 0x16
 1182 002b 00       		.byte	0
 1183 002c 03       		.uleb128 0x3
 1184 002d 0E       		.uleb128 0xe
 1185 002e 3A       		.uleb128 0x3a
 1186 002f 0B       		.uleb128 0xb
 1187 0030 3B       		.uleb128 0x3b
 1188 0031 0B       		.uleb128 0xb
 1189 0032 49       		.uleb128 0x49
 1190 0033 13       		.uleb128 0x13
 1191 0034 00       		.byte	0
 1192 0035 00       		.byte	0
 1193 0036 05       		.uleb128 0x5
 1194 0037 13       		.uleb128 0x13
 1195 0038 01       		.byte	0x1
ARM GAS  /tmp/ccydaJph.s 			page 29


 1196 0039 03       		.uleb128 0x3
 1197 003a 0E       		.uleb128 0xe
 1198 003b 0B       		.uleb128 0xb
 1199 003c 0B       		.uleb128 0xb
 1200 003d 3A       		.uleb128 0x3a
 1201 003e 0B       		.uleb128 0xb
 1202 003f 3B       		.uleb128 0x3b
 1203 0040 0B       		.uleb128 0xb
 1204 0041 01       		.uleb128 0x1
 1205 0042 13       		.uleb128 0x13
 1206 0043 00       		.byte	0
 1207 0044 00       		.byte	0
 1208 0045 06       		.uleb128 0x6
 1209 0046 0D       		.uleb128 0xd
 1210 0047 00       		.byte	0
 1211 0048 03       		.uleb128 0x3
 1212 0049 0E       		.uleb128 0xe
 1213 004a 3A       		.uleb128 0x3a
 1214 004b 0B       		.uleb128 0xb
 1215 004c 3B       		.uleb128 0x3b
 1216 004d 0B       		.uleb128 0xb
 1217 004e 49       		.uleb128 0x49
 1218 004f 13       		.uleb128 0x13
 1219 0050 38       		.uleb128 0x38
 1220 0051 0B       		.uleb128 0xb
 1221 0052 00       		.byte	0
 1222 0053 00       		.byte	0
 1223 0054 07       		.uleb128 0x7
 1224 0055 0D       		.uleb128 0xd
 1225 0056 00       		.byte	0
 1226 0057 03       		.uleb128 0x3
 1227 0058 08       		.uleb128 0x8
 1228 0059 3A       		.uleb128 0x3a
 1229 005a 0B       		.uleb128 0xb
 1230 005b 3B       		.uleb128 0x3b
 1231 005c 0B       		.uleb128 0xb
 1232 005d 49       		.uleb128 0x49
 1233 005e 13       		.uleb128 0x13
 1234 005f 38       		.uleb128 0x38
 1235 0060 0B       		.uleb128 0xb
 1236 0061 00       		.byte	0
 1237 0062 00       		.byte	0
 1238 0063 08       		.uleb128 0x8
 1239 0064 0D       		.uleb128 0xd
 1240 0065 00       		.byte	0
 1241 0066 03       		.uleb128 0x3
 1242 0067 08       		.uleb128 0x8
 1243 0068 3A       		.uleb128 0x3a
 1244 0069 0B       		.uleb128 0xb
 1245 006a 3B       		.uleb128 0x3b
 1246 006b 05       		.uleb128 0x5
 1247 006c 49       		.uleb128 0x49
 1248 006d 13       		.uleb128 0x13
 1249 006e 38       		.uleb128 0x38
 1250 006f 0B       		.uleb128 0xb
 1251 0070 00       		.byte	0
 1252 0071 00       		.byte	0
ARM GAS  /tmp/ccydaJph.s 			page 30


 1253 0072 09       		.uleb128 0x9
 1254 0073 0D       		.uleb128 0xd
 1255 0074 00       		.byte	0
 1256 0075 03       		.uleb128 0x3
 1257 0076 0E       		.uleb128 0xe
 1258 0077 3A       		.uleb128 0x3a
 1259 0078 0B       		.uleb128 0xb
 1260 0079 3B       		.uleb128 0x3b
 1261 007a 05       		.uleb128 0x5
 1262 007b 49       		.uleb128 0x49
 1263 007c 13       		.uleb128 0x13
 1264 007d 38       		.uleb128 0x38
 1265 007e 0B       		.uleb128 0xb
 1266 007f 00       		.byte	0
 1267 0080 00       		.byte	0
 1268 0081 0A       		.uleb128 0xa
 1269 0082 0F       		.uleb128 0xf
 1270 0083 00       		.byte	0
 1271 0084 0B       		.uleb128 0xb
 1272 0085 0B       		.uleb128 0xb
 1273 0086 49       		.uleb128 0x49
 1274 0087 13       		.uleb128 0x13
 1275 0088 00       		.byte	0
 1276 0089 00       		.byte	0
 1277 008a 0B       		.uleb128 0xb
 1278 008b 13       		.uleb128 0x13
 1279 008c 01       		.byte	0x1
 1280 008d 03       		.uleb128 0x3
 1281 008e 0E       		.uleb128 0xe
 1282 008f 0B       		.uleb128 0xb
 1283 0090 0B       		.uleb128 0xb
 1284 0091 3A       		.uleb128 0x3a
 1285 0092 0B       		.uleb128 0xb
 1286 0093 3B       		.uleb128 0x3b
 1287 0094 05       		.uleb128 0x5
 1288 0095 01       		.uleb128 0x1
 1289 0096 13       		.uleb128 0x13
 1290 0097 00       		.byte	0
 1291 0098 00       		.byte	0
 1292 0099 0C       		.uleb128 0xc
 1293 009a 15       		.uleb128 0x15
 1294 009b 01       		.byte	0x1
 1295 009c 27       		.uleb128 0x27
 1296 009d 19       		.uleb128 0x19
 1297 009e 01       		.uleb128 0x1
 1298 009f 13       		.uleb128 0x13
 1299 00a0 00       		.byte	0
 1300 00a1 00       		.byte	0
 1301 00a2 0D       		.uleb128 0xd
 1302 00a3 05       		.uleb128 0x5
 1303 00a4 00       		.byte	0
 1304 00a5 49       		.uleb128 0x49
 1305 00a6 13       		.uleb128 0x13
 1306 00a7 00       		.byte	0
 1307 00a8 00       		.byte	0
 1308 00a9 0E       		.uleb128 0xe
 1309 00aa 0F       		.uleb128 0xf
ARM GAS  /tmp/ccydaJph.s 			page 31


 1310 00ab 00       		.byte	0
 1311 00ac 0B       		.uleb128 0xb
 1312 00ad 0B       		.uleb128 0xb
 1313 00ae 00       		.byte	0
 1314 00af 00       		.byte	0
 1315 00b0 0F       		.uleb128 0xf
 1316 00b1 13       		.uleb128 0x13
 1317 00b2 01       		.byte	0x1
 1318 00b3 0B       		.uleb128 0xb
 1319 00b4 0B       		.uleb128 0xb
 1320 00b5 3A       		.uleb128 0x3a
 1321 00b6 0B       		.uleb128 0xb
 1322 00b7 3B       		.uleb128 0x3b
 1323 00b8 0B       		.uleb128 0xb
 1324 00b9 01       		.uleb128 0x1
 1325 00ba 13       		.uleb128 0x13
 1326 00bb 00       		.byte	0
 1327 00bc 00       		.byte	0
 1328 00bd 10       		.uleb128 0x10
 1329 00be 17       		.uleb128 0x17
 1330 00bf 01       		.byte	0x1
 1331 00c0 0B       		.uleb128 0xb
 1332 00c1 0B       		.uleb128 0xb
 1333 00c2 3A       		.uleb128 0x3a
 1334 00c3 0B       		.uleb128 0xb
 1335 00c4 3B       		.uleb128 0x3b
 1336 00c5 0B       		.uleb128 0xb
 1337 00c6 01       		.uleb128 0x1
 1338 00c7 13       		.uleb128 0x13
 1339 00c8 00       		.byte	0
 1340 00c9 00       		.byte	0
 1341 00ca 11       		.uleb128 0x11
 1342 00cb 0D       		.uleb128 0xd
 1343 00cc 00       		.byte	0
 1344 00cd 03       		.uleb128 0x3
 1345 00ce 0E       		.uleb128 0xe
 1346 00cf 3A       		.uleb128 0x3a
 1347 00d0 0B       		.uleb128 0xb
 1348 00d1 3B       		.uleb128 0x3b
 1349 00d2 0B       		.uleb128 0xb
 1350 00d3 49       		.uleb128 0x49
 1351 00d4 13       		.uleb128 0x13
 1352 00d5 00       		.byte	0
 1353 00d6 00       		.byte	0
 1354 00d7 12       		.uleb128 0x12
 1355 00d8 0D       		.uleb128 0xd
 1356 00d9 00       		.byte	0
 1357 00da 03       		.uleb128 0x3
 1358 00db 0E       		.uleb128 0xe
 1359 00dc 3A       		.uleb128 0x3a
 1360 00dd 0B       		.uleb128 0xb
 1361 00de 3B       		.uleb128 0x3b
 1362 00df 05       		.uleb128 0x5
 1363 00e0 49       		.uleb128 0x49
 1364 00e1 13       		.uleb128 0x13
 1365 00e2 00       		.byte	0
 1366 00e3 00       		.byte	0
ARM GAS  /tmp/ccydaJph.s 			page 32


 1367 00e4 13       		.uleb128 0x13
 1368 00e5 26       		.uleb128 0x26
 1369 00e6 00       		.byte	0
 1370 00e7 49       		.uleb128 0x49
 1371 00e8 13       		.uleb128 0x13
 1372 00e9 00       		.byte	0
 1373 00ea 00       		.byte	0
 1374 00eb 14       		.uleb128 0x14
 1375 00ec 35       		.uleb128 0x35
 1376 00ed 00       		.byte	0
 1377 00ee 49       		.uleb128 0x49
 1378 00ef 13       		.uleb128 0x13
 1379 00f0 00       		.byte	0
 1380 00f1 00       		.byte	0
 1381 00f2 15       		.uleb128 0x15
 1382 00f3 16       		.uleb128 0x16
 1383 00f4 00       		.byte	0
 1384 00f5 03       		.uleb128 0x3
 1385 00f6 0E       		.uleb128 0xe
 1386 00f7 3A       		.uleb128 0x3a
 1387 00f8 0B       		.uleb128 0xb
 1388 00f9 3B       		.uleb128 0x3b
 1389 00fa 05       		.uleb128 0x5
 1390 00fb 49       		.uleb128 0x49
 1391 00fc 13       		.uleb128 0x13
 1392 00fd 00       		.byte	0
 1393 00fe 00       		.byte	0
 1394 00ff 16       		.uleb128 0x16
 1395 0100 13       		.uleb128 0x13
 1396 0101 01       		.byte	0x1
 1397 0102 0B       		.uleb128 0xb
 1398 0103 0B       		.uleb128 0xb
 1399 0104 3A       		.uleb128 0x3a
 1400 0105 0B       		.uleb128 0xb
 1401 0106 3B       		.uleb128 0x3b
 1402 0107 05       		.uleb128 0x5
 1403 0108 01       		.uleb128 0x1
 1404 0109 13       		.uleb128 0x13
 1405 010a 00       		.byte	0
 1406 010b 00       		.byte	0
 1407 010c 17       		.uleb128 0x17
 1408 010d 2E       		.uleb128 0x2e
 1409 010e 00       		.byte	0
 1410 010f 03       		.uleb128 0x3
 1411 0110 0E       		.uleb128 0xe
 1412 0111 3A       		.uleb128 0x3a
 1413 0112 0B       		.uleb128 0xb
 1414 0113 3B       		.uleb128 0x3b
 1415 0114 05       		.uleb128 0x5
 1416 0115 27       		.uleb128 0x27
 1417 0116 19       		.uleb128 0x19
 1418 0117 20       		.uleb128 0x20
 1419 0118 0B       		.uleb128 0xb
 1420 0119 00       		.byte	0
 1421 011a 00       		.byte	0
 1422 011b 18       		.uleb128 0x18
 1423 011c 2E       		.uleb128 0x2e
ARM GAS  /tmp/ccydaJph.s 			page 33


 1424 011d 01       		.byte	0x1
 1425 011e 3F       		.uleb128 0x3f
 1426 011f 19       		.uleb128 0x19
 1427 0120 03       		.uleb128 0x3
 1428 0121 0E       		.uleb128 0xe
 1429 0122 3A       		.uleb128 0x3a
 1430 0123 0B       		.uleb128 0xb
 1431 0124 3B       		.uleb128 0x3b
 1432 0125 0B       		.uleb128 0xb
 1433 0126 27       		.uleb128 0x27
 1434 0127 19       		.uleb128 0x19
 1435 0128 11       		.uleb128 0x11
 1436 0129 01       		.uleb128 0x1
 1437 012a 12       		.uleb128 0x12
 1438 012b 06       		.uleb128 0x6
 1439 012c 40       		.uleb128 0x40
 1440 012d 18       		.uleb128 0x18
 1441 012e 9742     		.uleb128 0x2117
 1442 0130 19       		.uleb128 0x19
 1443 0131 01       		.uleb128 0x1
 1444 0132 13       		.uleb128 0x13
 1445 0133 00       		.byte	0
 1446 0134 00       		.byte	0
 1447 0135 19       		.uleb128 0x19
 1448 0136 898201   		.uleb128 0x4109
 1449 0139 00       		.byte	0
 1450 013a 11       		.uleb128 0x11
 1451 013b 01       		.uleb128 0x1
 1452 013c 31       		.uleb128 0x31
 1453 013d 13       		.uleb128 0x13
 1454 013e 00       		.byte	0
 1455 013f 00       		.byte	0
 1456 0140 1A       		.uleb128 0x1a
 1457 0141 898201   		.uleb128 0x4109
 1458 0144 00       		.byte	0
 1459 0145 11       		.uleb128 0x11
 1460 0146 01       		.uleb128 0x1
 1461 0147 9542     		.uleb128 0x2115
 1462 0149 19       		.uleb128 0x19
 1463 014a 31       		.uleb128 0x31
 1464 014b 13       		.uleb128 0x13
 1465 014c 00       		.byte	0
 1466 014d 00       		.byte	0
 1467 014e 1B       		.uleb128 0x1b
 1468 014f 34       		.uleb128 0x34
 1469 0150 00       		.byte	0
 1470 0151 03       		.uleb128 0x3
 1471 0152 0E       		.uleb128 0xe
 1472 0153 3A       		.uleb128 0x3a
 1473 0154 0B       		.uleb128 0xb
 1474 0155 3B       		.uleb128 0x3b
 1475 0156 05       		.uleb128 0x5
 1476 0157 49       		.uleb128 0x49
 1477 0158 13       		.uleb128 0x13
 1478 0159 3F       		.uleb128 0x3f
 1479 015a 19       		.uleb128 0x19
 1480 015b 3C       		.uleb128 0x3c
ARM GAS  /tmp/ccydaJph.s 			page 34


 1481 015c 19       		.uleb128 0x19
 1482 015d 00       		.byte	0
 1483 015e 00       		.byte	0
 1484 015f 1C       		.uleb128 0x1c
 1485 0160 34       		.uleb128 0x34
 1486 0161 00       		.byte	0
 1487 0162 03       		.uleb128 0x3
 1488 0163 08       		.uleb128 0x8
 1489 0164 3A       		.uleb128 0x3a
 1490 0165 0B       		.uleb128 0xb
 1491 0166 3B       		.uleb128 0x3b
 1492 0167 05       		.uleb128 0x5
 1493 0168 49       		.uleb128 0x49
 1494 0169 13       		.uleb128 0x13
 1495 016a 3F       		.uleb128 0x3f
 1496 016b 19       		.uleb128 0x19
 1497 016c 3C       		.uleb128 0x3c
 1498 016d 19       		.uleb128 0x19
 1499 016e 00       		.byte	0
 1500 016f 00       		.byte	0
 1501 0170 1D       		.uleb128 0x1d
 1502 0171 2E       		.uleb128 0x2e
 1503 0172 00       		.byte	0
 1504 0173 3F       		.uleb128 0x3f
 1505 0174 19       		.uleb128 0x19
 1506 0175 03       		.uleb128 0x3
 1507 0176 0E       		.uleb128 0xe
 1508 0177 3A       		.uleb128 0x3a
 1509 0178 0B       		.uleb128 0xb
 1510 0179 3B       		.uleb128 0x3b
 1511 017a 05       		.uleb128 0x5
 1512 017b 27       		.uleb128 0x27
 1513 017c 19       		.uleb128 0x19
 1514 017d 3C       		.uleb128 0x3c
 1515 017e 19       		.uleb128 0x19
 1516 017f 00       		.byte	0
 1517 0180 00       		.byte	0
 1518 0181 1E       		.uleb128 0x1e
 1519 0182 2E       		.uleb128 0x2e
 1520 0183 01       		.byte	0x1
 1521 0184 3F       		.uleb128 0x3f
 1522 0185 19       		.uleb128 0x19
 1523 0186 03       		.uleb128 0x3
 1524 0187 0E       		.uleb128 0xe
 1525 0188 3A       		.uleb128 0x3a
 1526 0189 0B       		.uleb128 0xb
 1527 018a 3B       		.uleb128 0x3b
 1528 018b 05       		.uleb128 0x5
 1529 018c 27       		.uleb128 0x27
 1530 018d 19       		.uleb128 0x19
 1531 018e 3C       		.uleb128 0x3c
 1532 018f 19       		.uleb128 0x19
 1533 0190 01       		.uleb128 0x1
 1534 0191 13       		.uleb128 0x13
 1535 0192 00       		.byte	0
 1536 0193 00       		.byte	0
 1537 0194 1F       		.uleb128 0x1f
ARM GAS  /tmp/ccydaJph.s 			page 35


 1538 0195 2E       		.uleb128 0x2e
 1539 0196 00       		.byte	0
 1540 0197 3F       		.uleb128 0x3f
 1541 0198 19       		.uleb128 0x19
 1542 0199 03       		.uleb128 0x3
 1543 019a 0E       		.uleb128 0xe
 1544 019b 3A       		.uleb128 0x3a
 1545 019c 0B       		.uleb128 0xb
 1546 019d 3B       		.uleb128 0x3b
 1547 019e 0B       		.uleb128 0xb
 1548 019f 27       		.uleb128 0x27
 1549 01a0 19       		.uleb128 0x19
 1550 01a1 3C       		.uleb128 0x3c
 1551 01a2 19       		.uleb128 0x19
 1552 01a3 00       		.byte	0
 1553 01a4 00       		.byte	0
 1554 01a5 00       		.byte	0
 1555              		.section	.debug_aranges,"",%progbits
 1556 0000 1C000000 		.4byte	0x1c
 1557 0004 0200     		.2byte	0x2
 1558 0006 00000000 		.4byte	.Ldebug_info0
 1559 000a 04       		.byte	0x4
 1560 000b 00       		.byte	0
 1561 000c 0000     		.2byte	0
 1562 000e 0000     		.2byte	0
 1563 0010 00000000 		.4byte	.LFB270
 1564 0014 24000000 		.4byte	.LFE270-.LFB270
 1565 0018 00000000 		.4byte	0
 1566 001c 00000000 		.4byte	0
 1567              		.section	.debug_ranges,"",%progbits
 1568              	.Ldebug_ranges0:
 1569 0000 00000000 		.4byte	.LFB270
 1570 0004 24000000 		.4byte	.LFE270
 1571 0008 00000000 		.4byte	0
 1572 000c 00000000 		.4byte	0
 1573              		.section	.debug_line,"",%progbits
 1574              	.Ldebug_line0:
 1575 0000 64030000 		.section	.debug_str,"MS",%progbits,1
 1575      02004203 
 1575      00000201 
 1575      FB0E0D00 
 1575      01010101 
 1576              	.LASF96:
 1577 0000 73746D33 		.ascii	"stm32_gpio_setup_t\000"
 1577      325F6770 
 1577      696F5F73 
 1577      65747570 
 1577      5F7400
 1578              	.LASF50:
 1579 0013 72656164 		.ascii	"ready_list_t\000"
 1579      795F6C69 
 1579      73745F74 
 1579      00
 1580              	.LASF110:
 1581 0020 7374496E 		.ascii	"stInit\000"
 1581      697400
 1582              	.LASF79:
ARM GAS  /tmp/ccydaJph.s 			page 36


 1583 0027 77747472 		.ascii	"wttrp\000"
 1583      7000
 1584              	.LASF56:
 1585 002d 64656C74 		.ascii	"delta\000"
 1585      6100
 1586              	.LASF76:
 1587 0033 7264796D 		.ascii	"rdymsg\000"
 1587      736700
 1588              	.LASF16:
 1589 003a 75696E74 		.ascii	"uint64_t\000"
 1589      36345F74 
 1589      00
 1590              	.LASF5:
 1591 0043 5F5F7569 		.ascii	"__uint8_t\000"
 1591      6E74385F 
 1591      7400
 1592              	.LASF49:
 1593 004d 70726576 		.ascii	"prev\000"
 1593      00
 1594              	.LASF73:
 1595 0052 706F7274 		.ascii	"port_intctx\000"
 1595      5F696E74 
 1595      63747800 
 1596              	.LASF61:
 1597 005e 73797374 		.ascii	"system_debug_t\000"
 1597      656D5F64 
 1597      65627567 
 1597      5F7400
 1598              	.LASF12:
 1599 006d 6C6F6E67 		.ascii	"long long unsigned int\000"
 1599      206C6F6E 
 1599      6720756E 
 1599      7369676E 
 1599      65642069 
 1600              	.LASF93:
 1601 0084 70757064 		.ascii	"pupdr\000"
 1601      7200
 1602              	.LASF77:
 1603 008a 65786974 		.ascii	"exitcode\000"
 1603      636F6465 
 1603      00
 1604              	.LASF68:
 1605 0093 6D61696E 		.ascii	"mainthread\000"
 1605      74687265 
 1605      616400
 1606              	.LASF80:
 1607 009e 73656E74 		.ascii	"sentmsg\000"
 1607      6D736700 
 1608              	.LASF58:
 1609 00a6 76697274 		.ascii	"virtual_timers_list_t\000"
 1609      75616C5F 
 1609      74696D65 
 1609      72735F6C 
 1609      6973745F 
 1610              	.LASF104:
 1611 00bc 49544D5F 		.ascii	"ITM_RxBuffer\000"
 1611      52784275 
ARM GAS  /tmp/ccydaJph.s 			page 37


 1611      66666572 
 1611      00
 1612              	.LASF46:
 1613 00c9 6E657874 		.ascii	"next\000"
 1613      00
 1614              	.LASF48:
 1615 00ce 63685F74 		.ascii	"ch_threads_queue\000"
 1615      68726561 
 1615      64735F71 
 1615      75657565 
 1615      00
 1616              	.LASF10:
 1617 00df 6C6F6E67 		.ascii	"long long int\000"
 1617      206C6F6E 
 1617      6720696E 
 1617      7400
 1618              	.LASF1:
 1619 00ed 7369676E 		.ascii	"signed char\000"
 1619      65642063 
 1619      68617200 
 1620              	.LASF90:
 1621 00f9 6D6F6465 		.ascii	"moder\000"
 1621      7200
 1622              	.LASF37:
 1623 00ff 6D736771 		.ascii	"msgqueue\000"
 1623      75657565 
 1623      00
 1624              	.LASF33:
 1625 0108 73746174 		.ascii	"state\000"
 1625      6500
 1626              	.LASF7:
 1627 010e 6C6F6E67 		.ascii	"long int\000"
 1627      20696E74 
 1627      00
 1628              	.LASF101:
 1629 0117 50454461 		.ascii	"PEData\000"
 1629      746100
 1630              	.LASF19:
 1631 011e 74737461 		.ascii	"tstate_t\000"
 1631      74655F74 
 1631      00
 1632              	.LASF57:
 1633 0127 66756E63 		.ascii	"func\000"
 1633      00
 1634              	.LASF27:
 1635 012c 71756575 		.ascii	"queue\000"
 1635      6500
 1636              	.LASF8:
 1637 0132 5F5F7569 		.ascii	"__uint32_t\000"
 1637      6E743332 
 1637      5F7400
 1638              	.LASF70:
 1639 013d 72656761 		.ascii	"regarm_t\000"
 1639      726D5F74 
 1639      00
 1640              	.LASF67:
 1641 0146 76746C69 		.ascii	"vtlist\000"
ARM GAS  /tmp/ccydaJph.s 			page 38


 1641      737400
 1642              	.LASF36:
 1643 014d 77616974 		.ascii	"waiting\000"
 1643      696E6700 
 1644              	.LASF88:
 1645 0155 6D757465 		.ascii	"mutex_t\000"
 1645      785F7400 
 1646              	.LASF98:
 1647 015d 50424461 		.ascii	"PBData\000"
 1647      746100
 1648              	.LASF24:
 1649 0164 636E745F 		.ascii	"cnt_t\000"
 1649      7400
 1650              	.LASF0:
 1651 016a 756E7369 		.ascii	"unsigned int\000"
 1651      676E6564 
 1651      20696E74 
 1651      00
 1652              	.LASF81:
 1653 0177 77747365 		.ascii	"wtsemp\000"
 1653      6D7000
 1654              	.LASF9:
 1655 017e 6C6F6E67 		.ascii	"long unsigned int\000"
 1655      20756E73 
 1655      69676E65 
 1655      6420696E 
 1655      7400
 1656              	.LASF115:
 1657 0190 68616C49 		.ascii	"halInit\000"
 1657      6E697400 
 1658              	.LASF92:
 1659 0198 6F737065 		.ascii	"ospeedr\000"
 1659      65647200 
 1660              	.LASF31:
 1661 01a0 6E616D65 		.ascii	"name\000"
 1661      00
 1662              	.LASF91:
 1663 01a5 6F747970 		.ascii	"otyper\000"
 1663      657200
 1664              	.LASF41:
 1665 01ac 6D706F6F 		.ascii	"mpool\000"
 1665      6C00
 1666              	.LASF4:
 1667 01b2 73686F72 		.ascii	"short unsigned int\000"
 1667      7420756E 
 1667      7369676E 
 1667      65642069 
 1667      6E7400
 1668              	.LASF44:
 1669 01c5 63685F74 		.ascii	"ch_thread\000"
 1669      68726561 
 1669      6400
 1670              	.LASF22:
 1671 01cf 6D73675F 		.ascii	"msg_t\000"
 1671      7400
 1672              	.LASF38:
 1673 01d5 6570656E 		.ascii	"epending\000"
ARM GAS  /tmp/ccydaJph.s 			page 39


 1673      64696E67 
 1673      00
 1674              	.LASF64:
 1675 01de 63685F73 		.ascii	"ch_system_t\000"
 1675      79737465 
 1675      6D5F7400 
 1676              	.LASF18:
 1677 01ea 746D6F64 		.ascii	"tmode_t\000"
 1677      655F7400 
 1678              	.LASF51:
 1679 01f2 63685F72 		.ascii	"ch_ready_list\000"
 1679      65616479 
 1679      5F6C6973 
 1679      7400
 1680              	.LASF23:
 1681 0200 6576656E 		.ascii	"eventmask_t\000"
 1681      746D6173 
 1681      6B5F7400 
 1682              	.LASF6:
 1683 020c 5F5F696E 		.ascii	"__int32_t\000"
 1683      7433325F 
 1683      7400
 1684              	.LASF71:
 1685 0216 73746B61 		.ascii	"stkalign_t\000"
 1685      6C69676E 
 1685      5F7400
 1686              	.LASF29:
 1687 0221 6E657765 		.ascii	"newer\000"
 1687      7200
 1688              	.LASF108:
 1689 0227 73706949 		.ascii	"spiInit\000"
 1689      6E697400 
 1690              	.LASF40:
 1691 022f 7265616C 		.ascii	"realprio\000"
 1691      7072696F 
 1691      00
 1692              	.LASF69:
 1693 0238 73697A65 		.ascii	"sizetype\000"
 1693      74797065 
 1693      00
 1694              	.LASF42:
 1695 0241 74687265 		.ascii	"thread_reference_t\000"
 1695      61645F72 
 1695      65666572 
 1695      656E6365 
 1695      5F7400
 1696              	.LASF59:
 1697 0254 63685F76 		.ascii	"ch_virtual_timers_list\000"
 1697      69727475 
 1697      616C5F74 
 1697      696D6572 
 1697      735F6C69 
 1698              	.LASF72:
 1699 026b 706F7274 		.ascii	"port_context\000"
 1699      5F636F6E 
 1699      74657874 
 1699      00
ARM GAS  /tmp/ccydaJph.s 			page 40


 1700              	.LASF75:
 1701 0278 746D5F63 		.ascii	"tm_calibration_t\000"
 1701      616C6962 
 1701      72617469 
 1701      6F6E5F74 
 1701      00
 1702              	.LASF95:
 1703 0289 61667268 		.ascii	"afrh\000"
 1703      00
 1704              	.LASF100:
 1705 028e 50444461 		.ascii	"PDData\000"
 1705      746100
 1706              	.LASF28:
 1707 0295 7072696F 		.ascii	"prio\000"
 1707      00
 1708              	.LASF52:
 1709 029a 63757272 		.ascii	"current\000"
 1709      656E7400 
 1710              	.LASF11:
 1711 02a2 5F5F7569 		.ascii	"__uint64_t\000"
 1711      6E743634 
 1711      5F7400
 1712              	.LASF20:
 1713 02ad 74726566 		.ascii	"trefs_t\000"
 1713      735F7400 
 1714              	.LASF35:
 1715 02b5 72656673 		.ascii	"refs\000"
 1715      00
 1716              	.LASF54:
 1717 02ba 76697274 		.ascii	"virtual_timer_t\000"
 1717      75616C5F 
 1717      74696D65 
 1717      725F7400 
 1718              	.LASF114:
 1719 02ca 6F73616C 		.ascii	"osalInit\000"
 1719      496E6974 
 1719      00
 1720              	.LASF21:
 1721 02d3 74707269 		.ascii	"tprio_t\000"
 1721      6F5F7400 
 1722              	.LASF113:
 1723 02db 2F6E6673 		.ascii	"/nfs/nfs7/home/npalumbo/p442-submissions/lab4\000"
 1723      2F6E6673 
 1723      372F686F 
 1723      6D652F6E 
 1723      70616C75 
 1724              	.LASF62:
 1725 0309 63685F73 		.ascii	"ch_system_debug\000"
 1725      79737465 
 1725      6D5F6465 
 1725      62756700 
 1726              	.LASF89:
 1727 0319 5F426F6F 		.ascii	"_Bool\000"
 1727      6C00
 1728              	.LASF14:
 1729 031f 696E7433 		.ascii	"int32_t\000"
 1729      325F7400 
ARM GAS  /tmp/ccydaJph.s 			page 41


 1730              	.LASF2:
 1731 0327 756E7369 		.ascii	"unsigned char\000"
 1731      676E6564 
 1731      20636861 
 1731      7200
 1732              	.LASF94:
 1733 0335 6166726C 		.ascii	"afrl\000"
 1733      00
 1734              	.LASF3:
 1735 033a 73686F72 		.ascii	"short int\000"
 1735      7420696E 
 1735      7400
 1736              	.LASF60:
 1737 0344 6C617374 		.ascii	"lasttime\000"
 1737      74696D65 
 1737      00
 1738              	.LASF109:
 1739 034d 626F6172 		.ascii	"boardInit\000"
 1739      64496E69 
 1739      7400
 1740              	.LASF97:
 1741 0357 50414461 		.ascii	"PAData\000"
 1741      746100
 1742              	.LASF83:
 1743 035e 65776D61 		.ascii	"ewmask\000"
 1743      736B00
 1744              	.LASF65:
 1745 0365 63685F73 		.ascii	"ch_system\000"
 1745      79737465 
 1745      6D00
 1746              	.LASF112:
 1747 036f 2E2E2F43 		.ascii	"../ChibiOS/os/hal/src/hal.c\000"
 1747      68696269 
 1747      4F532F6F 
 1747      732F6861 
 1747      6C2F7372 
 1748              	.LASF55:
 1749 038b 63685F76 		.ascii	"ch_virtual_timer\000"
 1749      69727475 
 1749      616C5F74 
 1749      696D6572 
 1749      00
 1750              	.LASF84:
 1751 039c 63685F73 		.ascii	"ch_semaphore\000"
 1751      656D6170 
 1751      686F7265 
 1751      00
 1752              	.LASF15:
 1753 03a9 75696E74 		.ascii	"uint32_t\000"
 1753      33325F74 
 1753      00
 1754              	.LASF82:
 1755 03b2 77746D74 		.ascii	"wtmtxp\000"
 1755      787000
 1756              	.LASF45:
 1757 03b9 63685F74 		.ascii	"ch_threads_list\000"
 1757      68726561 
ARM GAS  /tmp/ccydaJph.s 			page 42


 1757      64735F6C 
 1757      69737400 
 1758              	.LASF86:
 1759 03c9 6F776E65 		.ascii	"owner\000"
 1759      7200
 1760              	.LASF32:
 1761 03cf 77616261 		.ascii	"wabase\000"
 1761      736500
 1762              	.LASF87:
 1763 03d6 63686172 		.ascii	"char\000"
 1763      00
 1764              	.LASF30:
 1765 03db 6F6C6465 		.ascii	"older\000"
 1765      7200
 1766              	.LASF26:
 1767 03e1 74687265 		.ascii	"thread_t\000"
 1767      61645F74 
 1767      00
 1768              	.LASF25:
 1769 03ea 73797374 		.ascii	"systime_t\000"
 1769      696D655F 
 1769      7400
 1770              	.LASF53:
 1771 03f4 76746675 		.ascii	"vtfunc_t\000"
 1771      6E635F74 
 1771      00
 1772              	.LASF63:
 1773 03fd 70616E69 		.ascii	"panic_msg\000"
 1773      635F6D73 
 1773      6700
 1774              	.LASF74:
 1775 0407 6F666673 		.ascii	"offset\000"
 1775      657400
 1776              	.LASF102:
 1777 040e 50464461 		.ascii	"PFData\000"
 1777      746100
 1778              	.LASF106:
 1779 0415 68616C5F 		.ascii	"hal_lld_init\000"
 1779      6C6C645F 
 1779      696E6974 
 1779      00
 1780              	.LASF17:
 1781 0422 7274636E 		.ascii	"rtcnt_t\000"
 1781      745F7400 
 1782              	.LASF47:
 1783 042a 74687265 		.ascii	"threads_queue_t\000"
 1783      6164735F 
 1783      71756575 
 1783      655F7400 
 1784              	.LASF85:
 1785 043a 63685F6D 		.ascii	"ch_mutex\000"
 1785      75746578 
 1785      00
 1786              	.LASF116:
 1787 0443 5F70616C 		.ascii	"_pal_lld_init\000"
 1787      5F6C6C64 
 1787      5F696E69 
ARM GAS  /tmp/ccydaJph.s 			page 43


 1787      7400
 1788              	.LASF66:
 1789 0451 726C6973 		.ascii	"rlist\000"
 1789      7400
 1790              	.LASF13:
 1791 0457 75696E74 		.ascii	"uint8_t\000"
 1791      385F7400 
 1792              	.LASF34:
 1793 045f 666C6167 		.ascii	"flags\000"
 1793      7300
 1794              	.LASF111:
 1795 0465 474E5520 		.ascii	"GNU C 4.8.4 20140526 (release) [ARM/embedded-4_8-br"
 1795      4320342E 
 1795      382E3420 
 1795      32303134 
 1795      30353236 
 1796 0498 616E6368 		.ascii	"anch revision 211358] -mcpu=cortex-m4 -mno-thumb-in"
 1796      20726576 
 1796      6973696F 
 1796      6E203231 
 1796      31333538 
 1797 04cb 74657277 		.ascii	"terwork -mthumb -ggdb -O2 -fomit-frame-pointer -fal"
 1797      6F726B20 
 1797      2D6D7468 
 1797      756D6220 
 1797      2D676764 
 1798 04fe 69676E2D 		.ascii	"ign-functions=16 -ffunction-sections -fdata-section"
 1798      66756E63 
 1798      74696F6E 
 1798      733D3136 
 1798      202D6666 
 1799 0531 73202D66 		.ascii	"s -fno-common -flto\000"
 1799      6E6F2D63 
 1799      6F6D6D6F 
 1799      6E202D66 
 1799      6C746F00 
 1800              	.LASF78:
 1801 0545 77746F62 		.ascii	"wtobjp\000"
 1801      6A7000
 1802              	.LASF99:
 1803 054c 50434461 		.ascii	"PCData\000"
 1803      746100
 1804              	.LASF43:
 1805 0553 74687265 		.ascii	"threads_list_t\000"
 1805      6164735F 
 1805      6C697374 
 1805      5F7400
 1806              	.LASF107:
 1807 0562 7364496E 		.ascii	"sdInit\000"
 1807      697400
 1808              	.LASF39:
 1809 0569 6D74786C 		.ascii	"mtxlist\000"
 1809      69737400 
 1810              	.LASF103:
 1811 0571 50414C43 		.ascii	"PALConfig\000"
 1811      6F6E6669 
 1811      6700
ARM GAS  /tmp/ccydaJph.s 			page 44


 1812              	.LASF105:
 1813 057b 70616C5F 		.ascii	"pal_default_config\000"
 1813      64656661 
 1813      756C745F 
 1813      636F6E66 
 1813      696700
 1814              		.comm	__gnu_lto_v1,1,1
 1815              		.ident	"GCC: (GNU Tools for ARM Embedded Processors) 4.8.4 20140526 (release) [ARM/embedded-4_8-br
ARM GAS  /tmp/ccydaJph.s 			page 45


DEFINED SYMBOLS
                            *ABS*:00000000 hal.c
     /tmp/ccydaJph.s:148    .text.halInit:00000000 $t
     /tmp/ccydaJph.s:154    .text.halInit:00000000 halInit
     /tmp/ccydaJph.s:189    .text.halInit:00000020 $d
                            *COM*:00000001 __gnu_lto_v1
                     .debug_frame:00000010 $d
     /tmp/ccydaJph.s:193    .text.halInit:00000024 $t

UNDEFINED SYMBOLS
hal_lld_init
_pal_lld_init
sdInit
spiInit
boardInit
stInit
pal_default_config
