ARM GAS  /tmp/cc42I6kA.s 			page 1


   1              		.syntax unified
   2              		.cpu cortex-m4
   3              		.fpu softvfp
   4              		.eabi_attribute 20, 1
   5              		.eabi_attribute 21, 1
   6              		.eabi_attribute 23, 3
   7              		.eabi_attribute 24, 1
   8              		.eabi_attribute 25, 1
   9              		.eabi_attribute 26, 1
  10              		.eabi_attribute 30, 2
  11              		.eabi_attribute 34, 1
  12              		.eabi_attribute 18, 4
  13              		.thumb
  14              		.file	"hal_pal_lld.c"
  15              		.text
  16              	.Ltext0:
  17              		.section	.gnu.lto_.jmpfuncs.665a7639fb34f980,"",%progbits
  18 0000 789C6362 		.ascii	"x\234cb`b\300\006\330\2404\023\003##;\003\000\001/\000"
  18      6062C006 
  18      D8A03413 
  18      0323233B 
  18      0300012F 
  19 0015 16       		.ascii	"\026"
  20              		.text
  21              		.section	.gnu.lto_.inline.665a7639fb34f980,"",%progbits
  22 0000 789C6362 		.ascii	"x\234cb`b\300\006vBi\240\354-\206\233\014\214\354\014"
  22      6062C006 
  22      764269A0 
  22      EC2D869B 
  22      0C8CEC0C 
  23 0014 8C0C0CCC 		.ascii	"\214\014\014\314\012`\322\001L&\200\311\006F0\265\000"
  23      0A60D201 
  23      4C2680C9 
  23      064630B5 
  23      00
  24 0025 421D8050 		.ascii	"B\035\200P\014\002\265'.\2603h\336\330\300\304\304\300"
  24      0C02B527 
  24      2EB03368 
  24      DED8C0C4 
  24      C4C0
  25 0037 F8829D05 		.ascii	"\370\202\235\005B\202\010\0160\223\003D\010\200\231"
  25      4282080E 
  25      30930344 
  25      088099
  26 0046 02204201 		.ascii	"\002 B\001\314T\000\021\016`\246\003\210h`d\202P`\022"
  26      CC540011 
  26      0E60A603 
  26      88686064 
  26      82506012 
  27 005a 625403D8 		.ascii	"bT\003\330\271\214\014\347\030\3662122\001mc`.\272\360"
  27      B98C0CE7 
  27      18F63231 
  27      3232016D 
  27      63602EBA 
  28 006f 47914162 		.ascii	"G\221Ab\316Ef&\006\241\013=\214,`\207\003\000\274W "
  28      CE456626 
  28      06A10B3D 
ARM GAS  /tmp/cc42I6kA.s 			page 2


  28      8C2C6087 
  28      0300BC57 
  29 0084 39       		.ascii	"9"
  30              		.text
  31              		.section	.gnu.lto_.pureconst.665a7639fb34f980,"",%progbits
  32 0000 789C6362 		.ascii	"x\234cb`b`e\200\000&\006)F)\000\001\006\000A"
  32      60626065 
  32      80002606 
  32      29462900 
  32      01060041 
  33              		.text
  34              		.section	.gnu.lto__pal_lld_init.665a7639fb34f980,"",%progbits
  35 0000 789CB599 		.ascii	"x\234\265\231Kh\033W\024\206\357\235\321\214\336\017"
  35      4B681B57 
  35      1486EF9D 
  35      D18CDE0F 
  36 0010 DBF2FBA5 		.ascii	"\333\362\373\245\310\357\227\344'\015]\025ZZ\002))\304"
  36      C8EF97E4 
  36      270D5D15 
  36      5A5A0229 
  36      29C4
  37 0022 8176D53A 		.ascii	"\201v\325:.U\004v-\232\266\233.2JC\361\"P\021\3720\355"
  37      2E550476 
  37      2D9AB69B 
  37      2E324A43 
  37      F1225011 
  38 0039 A20EDDB8 		.ascii	"\242\016\335\270n\353,\033\247\033\223E!\024\273\366"
  38      6EEB2C1B 
  38      A71B9345 
  38      2114BBF6 
  39 0049 2E380998 		.ascii	".8\011\230f\321\226@H\352,\222\022P\347\314\221=Ga\244"
  39      66D19640 
  39      48EA2C92 
  39      1250E7CC 
  39      913D4761 
  40 005e ABE0EB01 		.ascii	"\253\340\353\001\3753\243\321\034}s\317\321\267\221"
  40      FD33A3D1 
  40      1C7D73CF 
  40      D1B791
  41 006d C214F6EC 		.ascii	"\302\024\366\354\326h\276\242m\214\275j\356\271\312"
  41      D668BEA2 
  41      6D8CBD6A 
  41      EEB9CA
  42 007c B892DB60 		.ascii	"\270\222\333`,\353Q8\207\003\306\3319\205\237{\213["
  42      2CEB5138 
  42      8703C6D9 
  42      39859F7B 
  42      8B5B
  43 008e 9FBDA2AC 		.ascii	"\237\275\242\254\355\344\363+\017~[\271\310\227\225"
  43      EDE4F32B 
  43      0F7E5BB9 
  43      C89795
  44 009d 771496E6 		.ascii	"w\024\226\346L\205\320\370,g\0018\012B\204 \302\020"
  44      4C85D0F8 
  44      2C670138 
  44      0A428420 
  44      C210
ARM GAS  /tmp/cc42I6kA.s 			page 3


  45 00af 11882A88 		.ascii	"\021\210*\210j\210\032\210(D-D\035D=D\003D#D\023D3D"
  45      6A881A88 
  45      28442D44 
  45      1D443D44 
  45      03442344 
  46 00c7 0B442B44 		.ascii	"\013D+D\033D;D\014\342\010D\034\242\003\242\023\242"
  46      1B443B44 
  46      0CE20844 
  46      1CA203A2 
  46      13A2
  47 00d9 0BA21BA2 		.ascii	"\013\242\033\242\007\242\027\242\017\242\037b\000b\020"
  47      07A217A2 
  47      0FA21F62 
  47      006210
  48 00e8 62082201 		.ascii	"b\010\"\001\221\204\030\206\030\201\030\205\030\203"
  48      91841886 
  48      18811885 
  48      1883
  49 00f6 18879880 		.ascii	"\030\207\230\20007\215]0\214\\\214\261i\353t\322LX\227"
  49      30378D5D 
  49      308C5C8C 
  49      B169EB74 
  49      D24C5897 
  50 010a 535C81BD 		.ascii	"S\\\201\275\272\316\256o\337\334m\230\342\227\271\306"
  50      BACEAE6F 
  50      DFDC6D98 
  50      E297B9C6 
  51 011a 525C1960 		.ascii	"R\\\031`\313\306\205l$\315\371\267\354\033\236\346\312"
  51      CBC6856C 
  51      24CDF9B7 
  51      EC1B9EE6 
  51      CA
  52 012b 9B66A8C6 		.ascii	"\233f\250\306\342\274\341b\326\241\265\216\247\371\336"
  52      E2BCE162 
  52      D6A1B58E 
  52      A7F9DE
  53 013a EAAFB34F 		.ascii	"\352\257\263OW\325\275\273\325\024~\236\031\306c\325"
  53      57D5BDBB 
  53      D5147E9E 
  53      19C663D5 
  54 014a BA78FD18 		.ascii	"\272x\375\030^{\276\262)8\277\301\316\357\374}W\307"
  54      5E7BBEB2 
  54      2938BFC1 
  54      CEEFFC7D 
  54      57C7
  55 015c FB6739FF 		.ascii	"\373g9\377\204\375g\230\005\\P*g\030\037\245\271\206"
  55      84FD6798 
  55      055C502A 
  55      67181FA5 
  55      B986
  56 016e B5F414D7 		.ascii	"\265\364\024\327\240\206\273P\003\213\340}\314\252\263"
  56      A086BB50 
  56      038BE07D 
  56      CCAAB3
  57 017d D68C6771 		.ascii	"\326\214gqv\3310.\255=\374\354wn\\2\262\017\362\371"
  57      76D9302E 
  57      AD3DFCEC 
ARM GAS  /tmp/cc42I6kA.s 			page 4


  57      776E5C32 
  57      B20FF2F9 
  58 0191 709A7B14 		.ascii	"p\232{\024\366\"\207\325\201\032\336\230\265\363\271"
  58      F62287D5 
  58      811ADE98 
  58      B5F3B9
  59 01a0 8A670CDE 		.ascii	"\212g\014\336\363\030\206\261\346b\317\2009\226t)\354"
  59      F31886B1 
  59      E662CF80 
  59      39967429 
  59      EC
  60 01b1 2551C959 		.ascii	"%Q\311Y\340\\g\347\267\037\177\327\272\337#<0\276\377"
  60      E05C67E7 
  60      B71F7FD7 
  60      BADF233C 
  60      30BEFF
  61 01c4 DC04FE91 		.ascii	"\334\004\376\221\307\315\207\370\301\314\275\207\231"
  61      C7CD87F8 
  61      C1CCBD87 
  61      99
  62 01d1 C6474BF1 		.ascii	"\306GK\361\000\256\301Z\376\037\263\260\337\\\205\254"
  62      00AEC15A 
  62      FE1FB3B0 
  62      DF5C85AC 
  63 01e1 014B1328 		.ascii	"\001K\023(,\204\253\260\020\012\334\270\202\253`\266"
  63      2C84ABB0 
  63      100ADCB8 
  63      82AB60B6 
  64 01f1 E2C6A66F 		.ascii	"\342\306\246o\212\377\274\337\014c\004\273\221\315\301"
  64      8AFFBCDF 
  64      0C6304BB 
  64      91CDC1
  65 0200 BD41F288 		.ascii	"\275A\362\210\326a\241\206\272_\303\374Z\004^\370sS"
  65      D661A186 
  65      BA5FC3FC 
  65      5A045EF8 
  65      7353
  66 0212 C542291E 		.ascii	"\305B)\036\204Z\221r\020.\011\020\032\201\010\"\304"
  66      845A9172 
  66      102E0910 
  66      1A810822 
  66      C4
  67 0223 55021112 		.ascii	"U\002\021\022B\350\022 \334\004\"\204\0207\011DX\010"
  67      42E81220 
  67      DC042284 
  67      10370944 
  67      5808
  68 0235 E19100E1 		.ascii	"\341\221\000\341%\020\341\302\374\020\210\210\020\302"
  68      2510E1C2 
  68      FC108888 
  68      10C2
  69 0243 2701C24F 		.ascii	"'\001\302O \"\205\231\270kCT\011!\002\022 \202\004\242"
  69      20228599 
  69      B86B4354 
  69      09210212 
  69      208204A2 
  70 0257 AA301304 		.ascii	"\2520\023\004\242Z\010\021\222\000\021&\020\325h\206"
ARM GAS  /tmp/cc42I6kA.s 			page 5


  70      A25A0811 
  70      92001126 
  70      10D56886 
  71 0267 7BB6B294 		.ascii	"{\266\262\224\212\225\025yNeM\361e\363\327]\211\263"
  71      8A951579 
  71      4E654DF1 
  71      65F3D75D 
  71      89B3
  72 0279 E66D67DD 		.ascii	"\346mg\335+\357\254)\376\223\260\346,8\245\204\264\256"
  72      2BEFAC29 
  72      FE93B0E6 
  72      2C38A584 
  72      B4AE
  73 028b 80B4FEB0 		.ascii	"\200\264\376\260\244\265\341$\255\032\201\264Z\210\264"
  73      A4B5E124 
  73      AD1A81B4 
  73      5A88B4
  74 029a B68ADBB2 		.ascii	"\266\212\333\262Y\276-\363\216\322\332\302\266\324P"
  74      59BE2DF3 
  74      8ED2DAC2 
  74      B6D450
  75 02a9 696D5AB3 		.ascii	"imZ\263\021-=\033-DZ\007\204\320\010D\224J\013!j\205"
  75      112D3D1B 
  75      2D445A07 
  75      84D00844 
  75      944A0B21 
  76 02bf 10BA0408 		.ascii	"\020\272\004\0107\201\250\245\322B\210:!\204G\002\204"
  76      3781A8A5 
  76      D242883A 
  76      21844702 
  76      84
  77 02d0 9740D451 		.ascii	"\227@\324Qi!D\275\020\302'\001\302O \352\251\264\020"
  77      692144BD 
  77      10C22701 
  77      C24F20EA 
  77      A9B410
  78 02e3 A2410811 		.ascii	"\242A\010\021\220\000\021$\020\015TZ\010\321(\204\010"
  78      90001124 
  78      100D545A 
  78      08D12884 
  78      08
  79 02f4 49800813 		.ascii	"I\200\010\023\210FT\303}[Zj\305\322\252:4i\345li\335"
  79      884654C3 
  79      7D5B5A6A 
  79      C5D2AA3A 
  79      3469E56C 
  80 030a 97212DB5 		.ascii	"\227!-\265\244\264~\005i\375kI\353\241\223\264\232\004"
  80      A4B47E05 
  80      69FD6B49 
  80      EBA193B4 
  80      9A04
  81 031c D23A4AA4 		.ascii	"\322:J\244\365\250\270-\273\345\333\222s\224\326#lK"
  81      F5A8B82D 
  81      BBE5DB92 
  81      7394D623 
  81      6C4B
  82 032e 1395D6AE 		.ascii	"\023\225\326\2565\033\315\245g\343(\221\326\001!4\002"
ARM GAS  /tmp/cc42I6kA.s 			page 6


  82      351BCDA5 
  82      67E32891 
  82      D6012134 
  82      02
  83 033f D14CA585 		.ascii	"\321L\245\205\020-B\010]\002\204\233@\264Pi!D\253\020"
  83      102D4208 
  83      5D02849B 
  83      40B45069 
  83      2144AB10 
  84 0353 C22301C2 		.ascii	"\302#\001\302K Z\251\264\020\242M\010\341\223\000\341"
  84      4B205AA9 
  84      B410A24D 
  84      08E19300 
  84      E1
  85 0364 27106D54 		.ascii	"'\020mTZ\010\321.\204\010H\200\010\022\210v*-\204\210"
  85      5A08D12E 
  85      84084880 
  85      08128876 
  85      2A2D8488 
  86 0378 09214212 		.ascii	"\011!B\022 \302\004\"\206jxbK\313U\261\264\252\017M"
  86      20C20422 
  86      866A7862 
  86      4BCB55B1 
  86      B4AA0F4D 
  87 038c 5A0BB6B4 		.ascii	"Z\013\266\264\236\310\220\226\253\244\264\376\002i}"
  87      9EC89096 
  87      ABA4B4FE 
  87      02697D
  88 039b A980B4BE 		.ascii	"\251\200\264\276P\034\244uD \255I\"\255\257\225\242"
  88      501CA475 
  88      4420AD49 
  88      22ADAF95 
  88      A2
  89 03ac B67CA594 		.ascii	"\266|\245\224m\313\202\243\264\254\032\346\327RiA\241"
  89      6DCB82A3 
  89      B4AC1AE6 
  89      D7526941 
  89      A1
  90 03bd 148F979E 		.ascii	"\024\217\227\236\215I\"\255\003Bh\004\"N\245\205\020"
  90      8D4922AD 
  90      03426804 
  90      224EA585 
  90      10
  91 03ce 1D42085D 		.ascii	"\035B\010]\002\204\233@tPi!D\247\020\302#\001\302K "
  91      02849B40 
  91      74506921 
  91      44A710C2 
  91      2301C24B 
  92 03e3 3AA9B410 		.ascii	":\251\264\020\242K\010\341\223\000\341'\020]TZ\010\321"
  92      A24B08E1 
  92      9300E127 
  92      105D545A 
  92      08D1
  93 03f5 2D840848 		.ascii	"-\204\010H\200\010\022\210n*-\204\350\021B\204$@\204"
  93      80081288 
  93      6E2A2D84 
  93      E8114284 
ARM GAS  /tmp/cc42I6kA.s 			page 7


  93      244084
  94 0408 09440FAA 		.ascii	"\011D\017\252\341\251--\255bi\325\034\232\264\026mi"
  94      E1A92D2D 
  94      AD6269D5 
  94      1C9AB416 
  94      6D69
  95 041a 3D95212D 		.ascii	"=\225!-\255\244\264vAZW-i\375\342$\255^\201\2642DZ\327"
  95      ADA4B476 
  95      415A572D 
  95      69FDE224 
  95      AD5E81B4 
  96 0432 8ADBB25A 		.ascii	"\212\333\262Z\276-\213\216\322\272\206m\351\245\322"
  96      BE2D8B8E 
  96      D2BA866D 
  96      E9A5D2
  97 0441 5AB566A3 		.ascii	"Z\265f\243\257\364ld\210\264\016\010\241\021\210>*-"
  97      AFF46C64 
  97      88B40E08 
  97      A111883E 
  97      2A2D
  98 0453 84E81742 		.ascii	"\204\350\027B\350\022 \334\004\242\237J\013!\006\204"
  98      E81220DC 
  98      04A29F4A 
  98      0B210684 
  99 0463 101E0910 		.ascii	"\020\036\011\020^\0021@\245\205\020\203B\010\237\004"
  99      5E023140 
  99      A5851083 
  99      42089F04 
 100 0473 083F8118 		.ascii	"\010?\201\030\244\322B\210!!D@\002D\220@\014Qi!DB\010"
 100      A4D24288 
 100      21214440 
 100      02449040 
 100      0C516921 
 101 048a 11920011 		.ascii	"\021\222\000\021&\020\011TC\336\226\226^\261\264\242"
 101      26100954 
 101      43DE9696 
 101      5EB1B4A2 
 102 049a 8726AD25 		.ascii	"\207&\255%[Zy\031\322\322KJ+\017\322\272eIk\333IZI\201"
 102      5B5A7919 
 102      D2D24B4A 
 102      2B0FD2BA 
 102      65496BDB 
 103 04b2 B42E7262 		.ascii	"\264.rb\255;\305}\271]\276/K\216\326\272\203}IRk\335"
 103      AD3BC57D 
 103      B95DBE2F 
 103      4B8ED6BA 
 103      837D4952 
 104 04c8 B68663B8 		.ascii	"\266\206c\270\364p\354Q\270$Ph\204b\230j\013)F\304\024"
 104      F470EC51 
 104      B8245068 
 104      8462986A 
 104      0B2946C4 
 105 04dd BA040A37 		.ascii	"\272\004\0127\241\030\241\336B\212Q1\205G\002\205\227"
 105      A118A1DE 
 105      428A5131 
 105      85470285 
 105      97
ARM GAS  /tmp/cc42I6kA.s 			page 8


 106 04ee 508C5271 		.ascii	"P\214Rq!\305\230\230\302'\201\302O(\306\250\271\220"
 106      21C59898 
 106      C22781C2 
 106      4F28C6A8 
 106      B990
 107 0500 625C4C11 		.ascii	"b\\L\021\220@\021$\024\343T]H1!\246\010I\240\010\023"
 107      90401124 
 107      14E3545D 
 107      483121A6 
 107      0849A008 
 108 0515 8A09C6B6 		.ascii	"\212\011\306\266Xvg\251k_A\3266i\376vs\033\326\377\310"
 108      587667A9 
 108      6B5F41D6 
 108      3669FE76 
 108      731BD6FF 
 109 052a 2F2412C9 		.ascii	"/$\022\311\227\317\244O\247O\234L\316\235M\236\231\232"
 109      97CFA44F 
 109      A74F9C4C 
 109      CE9D4D9E 
 109      999A
 110 053c 4966E63E 		.ascii	"If\346>\370\360l\362\344\344\353c\243\311\343\307_I"
 110      F8F06CF2 
 110      E4E4EB63 
 110      A3C9E3C7 
 110      5F49
 111 054e BEF6C6B1 		.ascii	"\276\366\306\261\023\037\217\302\245\2673\346kf\346"
 111      131F8FC2 
 111      A5B733E6 
 111      6B66E6
 112 055d DDC434D3 		.ascii	"\335\3044\323R\231\364\\F\237\236{\377\275t\352\177"
 112      5299F45C 
 112      469F9E7B 
 112      FFBD74EA 
 112      7F
 113 056e 75A932A6 		.ascii	"u\2512\246"
 114              		.text
 115              		.section	.gnu.lto__pal_lld_setgroupmode.665a7639fb34f980,"",%progbits
 116 0000 789C9D57 		.ascii	"x\234\235WkLTG\024\236\231\273wwa\037\250X\345)\210"
 116      6B4C5447 
 116      149E99BB 
 116      7777611F 
 116      A858E529 
 117 0015 0F8C0F56 		.ascii	"\017\214\017V|+U\252T\245\012\341i\242\351\217\212B"
 117      7C2B55AA 
 117      54A50AE1 
 117      69A2E98F 
 117      8A42
 118 0027 565A366C 		.ascii	"VZ6l\000\233\264\177\\\\~\220b\014\351\003\037%\015"
 118      009BB47F 
 118      5C5C7E90 
 118      620CE903 
 118      1F250D
 119 003a D61A6B8D 		.ascii	"\326\032k\215EJ,V\010B\323\246\232\332\246M\372\303"
 119      454A2C56 
 119      0842D3A6 
 119      9ADAA64D 
 119      FAC3
ARM GAS  /tmp/cc42I6kA.s 			page 9


 120 004c 6D9BD4D2 		.ascii	"m\233\324\322D\323H\254\226\330\232h\273=g\356\314\335"
 120      44D348AC 
 120      96D89A68 
 120      BB3D67EE 
 120      CCDD
 121 005e BDBBA4BB 		.ascii	"\275\273\244\273\262\011g\356\234s\276\357~s\346\354"
 121      B20967EE 
 121      9C73BEEF 
 121      7E73E6EC 
 122 006e ECC00823 		.ascii	"\354\300\010#\221\237\363\360wg\032!\007a\244I\204\262"
 122      919FF3F0 
 122      77671A21 
 122      0761A449 
 122      84B2
 123 0080 CE6F0969 		.ascii	"\316o\011i\2652\252h\017\0123\265\347\022_\242\035\255"
 123      B532AA68 
 123      0F0A33B5 
 123      E7125FA2 
 123      1DAD
 124 0092 DDC4D4FB 		.ascii	"\335\304\324\373\317\300,\241g\035\314Tf\3461\013\217"
 124      CFC02CA1 
 124      671DCC54 
 124      66E6310B 
 124      8F
 125 00a3 99A95583 		.ascii	"\231\251U\203X\344\203\225\332\265\207\004\226\310\023"
 125      58E48395 
 125      DAB58704 
 125      96C813
 126 00b2 6D3C3151 		.ascii	"m<1Q\272m\362\301\316\234m\026\210;\216|E \301\241\275"
 126      BA6DF2C1 
 126      CE9C6D16 
 126      883B8E7C 
 126      4520C1A1 
 127 00c7 7CD4EAA4 		.ascii	"|\324\352\244\024\037\010%\207\230bR\315\026kB\242\315"
 127      141F0825 
 127      87986252 
 127      CD166B42 
 127      A2CD
 128 00d9 EE70D243 		.ascii	"\356p\322C{(\212\267\345\220S>_\347\255/\007\036\320"
 128      7B288AB7 
 128      E590533E 
 128      5FE7AD2F 
 128      071ED0
 129 00ec 136F8FB4 		.ascii	"\023o\217\264\365\370\236\004\203\224\326SX\350\006"
 129      F5F89E04 
 129      8394D653 
 129      58E806
 130 00fb 4AF653B2 		.ascii	"J\366S\262\033&4\233\017\314d\\9\307\2769r\254\343h"
 130      1B26349B 
 130      0FCC645C 
 130      39C7BE39 
 130      72ACE368 
 131 010f AAAFE770 		.ascii	"\252\257\347p\247\357_\200\326S\205\221\347\342D\036"
 131      A7EF5F80 
 131      D6538591 
 131      E7E2441E 
 132 011f FFDADED9 		.ascii	"\377\332\336\331\332\356\013\006\017q\330\2668a'\215"
ARM GAS  /tmp/cc42I6kA.s 			page 10


 132      DAEE0B06 
 132      0F71D8B6 
 132      3861278D 
 133 012f B0D23861 		.ascii	"\260\3228a\335F\330\2568a\357\031a/\306\011\273h\204"
 133      DD46D8AE 
 133      3861EF19 
 133      612FC609 
 133      BB6884
 134 0142 ED8D1336 		.ascii	"\355\215\0236\320\361vD1k\343C\372\036\326^\363\265"
 134      D0F17644 
 134      316BE343 
 134      FA1ED65E 
 134      F3B5
 135 0154 8D048385 		.ascii	"\215\004\203\205\034\345\211\023\365\217\001\345\215"
 135      1CE58913 
 135      F58F01E5 
 135      8D
 136 0161 13F54E5D 		.ascii	"\023\365N]8\2529\026\252\227\215\334\012\006\273\003"
 136      38AA3916 
 136      AA978DDC 
 136      0A06BB03 
 137 0171 E3631FD2 		.ascii	"\343c\037\322d\250\273\007\333\253\206\236\2469D\201"
 137      64A8BB07 
 137      DBAB869E 
 137      A6394481 
 138 0181 F10C8C26 		.ascii	"\361\014\214&\030\317\302\250\302x\016F3\214\027`L\244"
 138      18CFC2A8 
 138      C2780E46 
 138      338C1760 
 138      4CA4
 139 0193 1E4A6D22 		.ascii	"\036Jm\"\331N\352\251\311!\020N\234$\011\3304\234L\027"
 139      D94EEAA9 
 139      C921104E 
 139      9C2409D8 
 139      349C4C17 
 140 01a7 D8193849 		.ascii	"\330\0318I\206\311y\230\314\004\0022\013=\263\321\244"
 140      86C97998 
 140      CC040232 
 140      0B3DB3D1 
 140      A4
 141 01b8 A0490543 		.ascii	"\240I\005C\322 \241\027\022\322a<\005c\006:3a\322\007"
 141      D220A117 
 141      12D2613C 
 141      0563063A 
 141      3361D207 
 142 01cc 93399896 		.ascii	"\2239\230\226\205\236l4s\301\335\017\356\034\234\314"
 142      859E6C34 
 142      73C1DD0F 
 142      EE1C9CCC 
 143 01dc 83C92598 		.ascii	"\203\311%\230\314\007f\266\000\023\027\242\311E\263"
 143      CC0766B6 
 143      001317A2 
 143      C945B3
 144 01eb 08CD6234 		.ascii	"\010\315b4K\320,E\263\014\215\013\315r4\371hV\242Y\205"
 144      4BD02C45 
 144      B30C8D0B 
 144      CD7234F9 
ARM GAS  /tmp/cc42I6kA.s 			page 11


 144      6856A259 
 145 0200 66359A35 		.ascii	"f5\2325h\326\241Y\217f\003\232\0024\033\321lBS\210f"
 145      68D6A159 
 145      8F66039A 
 145      02341BD1 
 145      6C425388 
 146 0215 339A2D68 		.ascii	"3\232-h\212\320lE\263\015\315v4\305hv\240\331\211\246"
 146      8AD06C45 
 146      B30DCD76 
 146      34C56876 
 146      A0D989A6 
 147 0229 044D299A 		.ascii	"\004M)\2322\254x\271\250[\205(Y\245\250V\225(n\265\250"
 147      32AC78B9 
 147      A85B8528 
 147      59A5A856 
 147      95286EB5 
 148 023e 387C54D2 		.ascii	"8|T\322\006\207B\266\346\327P\032FCh\205\225\331\373"
 148      068742B6 
 148      E6D7501A 
 148      46436885 
 148      95D9FB
 149 0251 F941520D 		.ascii	"\371AR\015\026N\240]\224\301\240|C\374\203\376\336\256"
 149      164EA05D 
 149      94C1A07C 
 149      43FC83FE 
 149      DEAE
 150 0263 8C1A3A40 		.ascii	"\214\032:@U\342\24667M\304\3060)\220z\2350\315\257\361"
 150      55E2A636 
 150      374DC4C6 
 150      3029907A 
 150      9D30CDAF 
 151 0278 4394100E 		.ascii	"C\224\020\016\350\357zV\002\354\022\200\235\004\301"
 151      E8EF7A56 
 151      02EC1280 
 151      9D04C1
 152 0287 8FFD4D32 		.ascii	"\217\375M2\344\200\350n\355\2042p\235\341\\\016\301"
 152      E480E86E 
 152      ED843270 
 152      9DE15C0E 
 152      C1
 153 0298 3510E272 		.ascii	"5\020\342rJ\256\224(\256$\210r\256\010]g9W\222\340\032"
 153      4AAE9428 
 153      AE248872 
 153      AE085D67 
 153      395792E0 
 154 02ad 0C714D93 		.ascii	"\014qM\223\\{\243\270\246C\224s\251F\256s\234k\272\340"
 154      5C7BA3B8 
 154      A6439473 
 154      A946AE73 
 154      9C6BBAE0 
 155 02c1 BA1AE29A 		.ascii	"\272\032\342\232!\271|IQd\311\020\346d\026#\331yN\226"
 155      21B97C49 
 155      5164C910 
 155      E6641623 
 155      D9794E96 
 156 02d5 8CBEC33D 		.ascii	"\214\276\303=7U\351\306\235\300tE~\343v\301#\034\374"
 156      3755E9C6 
ARM GAS  /tmp/cc42I6kA.s 			page 12


 156      9DC07445 
 156      7EE376C1 
 156      231CFC
 157 02e8 0AA45989 		.ascii	"\012\244Y\211HpS3\307q\207\246J\0159\264%\233B\016\255"
 157      48705333 
 157      C77187A6 
 157      4A0D39B4 
 157      259B420E 
 158 02fd 9E4AC8A1 		.ascii	"\236J\310\241m\026\223\016h)7\245bYw\273\262\244\364"
 158      6D16930E 
 158      682937A5 
 158      625977BB 
 158      B2A4F4
 159 0310 59E0E5CB 		.ascii	"Y\340\345\313\302\276\270F\332\306[\363\365\020\367"
 159      C2BEB846 
 159      DAC65BF3 
 159      F510F7
 160 031f 87CE8500 		.ascii	"\207\316\205\000\241n:\223\201)s<yp @\0304\003\033\012"
 160      A16E3A93 
 160      8129733C 
 160      79702040 
 160      1834031B 
 161 0334 78DDB4CA 		.ascii	"x\335\264\312\361\363DC\200(\260\243\354\006:\312\035"
 161      F1F34443 
 161      8028B0A3 
 161      EC063ACA 
 161      1D
 162 0345 1F340788 		.ascii	"\0374\007\210\011v\205\375\260\307M+\034C\023-\001\242"
 162      097685FD 
 162      B0C74D2B 
 162      1C43132D 
 162      01A2
 163 0357 4265D938 		.ascii	"Be\3318\306+\0357\020`\026e`G~\002g\265c|b/V\303D\332"
 163      C62B1D37 
 163      10601665 
 163      60477E02 
 163      67B5637C 
 164 0371 73B5AEFC 		.ascii	"s\265\256\374\273\253Xo\357^\336\306}\334\366s{\211"
 164      BBAB586F 
 164      EF5EDEC6 
 164      7DDCF673 
 164      7B89
 165 0383 B7B4A617 		.ascii	"\267\264\246\027>n:\033\252\306U[\264=z\303\377)l\306"
 165      3E6E3A1B 
 165      AAC6555B 
 165      B43D7AC3 
 165      FF296CC6 
 166 0397 65BE9C14 		.ascii	"e\276\234\024\010\2075\351\341{\376a*c\251\020\346\200"
 166      088735E9 
 166      E17BFE61 
 166      2A63A910 
 166      E680
 167 03a9 0BFEF775 		.ascii	"\013\376\367ug\032\337\330T\261\243\227\371\326\365"
 167      671ADFD8 
 167      54B1A397 
 167      F9D6F5
 168 03b8 F2AAA609 		.ascii	"\362\252\246\011\202\307]sdr:\337/dP\244+\203\267\004"
ARM GAS  /tmp/cc42I6kA.s 			page 13


 168      82C75D73 
 168      64723ADF 
 168      2F6450A4 
 168      2B83B704 
 169 03cc D63D5DE4 		.ascii	"\326=]\344\277,C\231\0205\360\366q\336L!:\330\225'3"
 169      BF2C4399 
 169      1035F0F6 
 169      71DE4C21 
 169      3AD89527 
 170 03e1 E7C81531 		.ascii	"\347\310\0251\251\372u\031\312\202h\304+\263\305\327"
 170      A9FA7519 
 170      CA8268C4 
 170      2BB3C5D7 
 171 03f1 038291AF 		.ascii	"\003\202\221\257\234\013Q\303+\373\371+\347\212e\237"
 171      9C0B51C3 
 171      2BFBF92B 
 171      E78A659F 
 172 0401 3E962533 		.ascii	">\226%3s8I\022\341k7\222\314sc\305\303H.q\222y\230\367"
 172      73384912 
 172      E16B3792 
 172      CC7363C5 
 172      C3482E71 
 173 0419 F98F97AF 		.ascii	"\371\217\227\257\374\252+Y\260\204|\344k\003\"\365]"
 173      FCAA2B59 
 173      B0847CE4 
 173      6B0322F5 
 173      5D
 174 042a 721206B3 		.ascii	"r\022\006\263\233\316G^\013o\245}T6\025\360\017\371"
 174      9BCE475E 
 174      0B6FA57D 
 174      543615F0 
 174      0FF9
 175 043c 87F54D5A 		.ascii	"\207\365MZ(\2130\030\266s\271@\007!\356\377\314\377"
 175      288B3018 
 175      B673B940 
 175      0721EEFF 
 175      CCFF
 176 044e A7EE5FC4 		.ascii	"\247\356_\304C\012\177\371\365\2136\315\315\337\333"
 176      430A7FF9 
 176      F58B36CD 
 176      CDDFDB
 177 045d EA5B1BE3 		.ascii	"\352[\033\343\315\200\326D\337\014\023\2758\206h\032"
 177      CD80D644 
 177      DF0C13BD 
 177      3886681A 
 178 046d 2E7A4CD7 		.ascii	".zL\327\261D\226q\320\177Ew.\005:\010\011\321\177\351"
 178      B1449671 
 178      D07F4577 
 178      2E053A08 
 178      09D17FE9 
 179 0481 FE653C64 		.ascii	"\376e<dzJ\321T\210^\246\211~\024&\332\025C4\323E\203"
 179      7A4AD154 
 179      885EA689 
 179      7E1426DA 
 179      154334D3 
 180 0497 BE4F741D 		.ascii	"\276Ot\035\313\271n\227\320wO\367\347\363\220\372\224"
 180      CBB96E97 
ARM GAS  /tmp/cc42I6kA.s 			page 14


 180      D0774FF7 
 180      E7F390FA 
 180      94
 181 04a8 FA98D097 		.ascii	"\372\230\320\227\217\207\310\027wF\003\035\016I\310"
 181      8F87C817 
 181      7746031D 
 181      0E49C8
 182 04b7 F4F60D1D 		.ascii	"\364\366\015\035w*y\224\250\300is{\364\227\016\247L"
 182      772A7994 
 182      A8C06973 
 182      7BF4970E 
 182      A74C
 183 04c9 D40E038B 		.ascii	"\324\016\003\213!\321L\206T\005W||\370w}\305+c\254X"
 183      21D14C86 
 183      5405577C 
 183      7CF8777D 
 183      C52B63AC 
 184 04de D1570CDB 		.ascii	"\321W\014\333\024\332\221U\242Q\015eX\015t\020\212*"
 184      14DA9155 
 184      A2510D65 
 184      580D7410 
 184      8A2A
 185 04f0 C31A1E4A 		.ascii	"\303\032\036J\323\312\360\235\261\014\2051\336\014h"
 185      D3CAF09D 
 185      B10C8531 
 185      DE0C68
 186 04ff A9DF22F5 		.ascii	"\251\337\"\365\337\014\323\277.\206~\323\344\372\327"
 186      DF0CD3BF 
 186      2E867ED3 
 186      E4FAD7
 187 050e 4FA67F03 		.ascii	"O\246\177\003\320A(J\177\001\017=\255~\223\320_ \365"
 187      D041284A 
 187      7F010F3D 
 187      AD7E93D0 
 187      5F20F5
 188 0521 5B71A378 		.ascii	"[q\243x\307\015?\320\365o\214\241_\015\357\270\220\376"
 188      C70D3FD0 
 188      F56F8CA1 
 188      5F0DEFB8 
 188      90FE
 189 0533 4DBCE336 		.ascii	"M\274\3436F}#\012y\210iR\357\033\245\026\304x\011\240"
 189      467D230A 
 189      79886952 
 189      EF1BA516 
 189      C47809A0 
 190 0547 A5D404D2 		.ascii	"\245\324\004\322\231\241\265\312XH\352\346\251I\335"
 190      99A1B5CA 
 190      5848EAE6 
 190      A949DD
 191 0556 C2A56E8E 		.ascii	"\302\245n\216\222Z\304CS\225Z\304\177ao\217\276u\364"
 191      925AC443 
 191      53955AC4 
 191      7F616F8F 
 191      BE75F4
 192 0569 7F7B3E91 		.ascii	"\177{>\221\264;\265\236\031\013\365\314\326\251\365"
 192      B43BB59E 
 192      190BF5CC 
ARM GAS  /tmp/cc42I6kA.s 			page 15


 192      D6A9F5
 193 0578 FCB6C97A 		.ascii	"\374\266\311zf;\320A(\252g\212yh\252=_,\365\333\244"
 193      663BD041 
 193      28AA678A 
 193      7968AA3D 
 193      5F2CF5DB 
 194 058d FEE3BF85 		.ascii	"\376\343\277\205\364\357\230Z\317\357\234L\177\011\320"
 194      F4EF985A 
 194      CFEF9C4C 
 194      7F09D0
 195 059c 41284A7F 		.ascii	"A(J\177)\017M\265\347K\245~;\277\213\361\033\336\325"
 195      290F4DB5 
 195      E74BA57E 
 195      3BBF8BF1 
 195      1BDED5
 196 05af EE34791B 		.ascii	"\3564y\033*\023\027%\202G\261~\307\343\327\2522q\350"
 196      2A131725 
 196      8247B17E 
 196      C7E3D7AA 
 196      3271E8
 197 05c2 F51DB5EB 		.ascii	"\365\035\265\353\331\021w'\344u\020\370w_\341\277\266"
 197      D9117727 
 197      E47510F8 
 197      775FE1BF 
 197      B6
 198 05d3 77BBF5CB 		.ascii	"w\273\365\313v9\374\202E\363\312\013]\271\370y\376\243"
 198      7639FC82 
 198      45F3CA0B 
 198      5DB9F879 
 198      FEA3
 199 05e5 3B53022A 		.ascii	";S\002*\340\327c\262\033\265v%\254\020\200\211\356t"
 199      E0D763B2 
 199      1BB57625 
 199      AC108089 
 199      EE74
 200 05f7 09A884E3 		.ascii	"\011\250\204\343|2\200v\251\254\024\200\207\272\242"
 200      7C328076 
 200      A9AC1480 
 200      87BAA2
 201 0606 2A716647 		.ascii	"*qfG\346k7\312*\236\337\356\177\334\235\"\001\325\262"
 201      E66B37CA 
 201      2A9EDFEE 
 201      7FDC9D22 
 201      01D5B2
 202 0619 8F2396A0 		.ascii	"\217#\226\240]c\253\345\372\235\370\277\306\367\244"
 202      5D63ABE5 
 202      FA9DF8BF 
 202      C6F7A4
 203 0628 F5D6893B 		.ascii	"\365\326\211;T\277\263\361O5\374\276\265Y\360uk\363"
 203      54BFB3F1 
 203      4F35FCBE 
 203      B559F075 
 203      6BF3
 204 063a F25C4507 		.ascii	"\362\\E\007\352\367\325\227U\271\032\233]\007j\032\\"
 204      EAF7D597 
 204      55B91A9B 
 204      5D076A1A 
ARM GAS  /tmp/cc42I6kA.s 			page 16


 204      5C
 205 064b DEC6A696 		.ascii	"\336\306\246\226fWUu\351\312\025\256\222\222\347]\333"
 205      66575575 
 205      E9CA15AE 
 205      9292E75D 
 205      DB
 206 065c CB5F287B 		.ascii	"\313_({u\005\206^\362\302_CCm\336~\242\356\253o\311"
 206      7505865E 
 206      F2C25F43 
 206      436DDE7E 
 206      A2EEAB6F 
 207 0671 5BAE7A1A 		.ascii	"[\256z\032k\353\232\314\215-\257y\353\232,\215\315\336"
 207      6BEB9ACC 
 207      8D2DAF79 
 207      EB9A2C8D 
 207      CDDE
 208 0683 BABADA26 		.ascii	"\272\272\332&\325{\320[\333d\252ihiR \313\212\017\236"
 208      D57BD05B 
 208      DB64AA69 
 208      68695220 
 208      CB8A0F9E 
 209 0697 9AE65798 		.ascii	"\232\346W\230'\237yV0\317\252\377\000>E\357\366"
 209      279F7956 
 209      30CFAAFF 
 209      003E45EF 
 209      F6
 210              		.text
 211              		.section	.gnu.lto_.symbol_nodes.665a7639fb34f980,"",%progbits
 212 0000 789C6362 		.ascii	"x\234cb`bP`\200\002\246~\246z\006\206\011\347\030\030"
 212      60625060 
 212      8002A67E 
 212      A67A0686 
 212      09E71818 
 213 0014 EAEBE775 		.ascii	"\352\353\347u02M`\252gDp\031\000\225\230\011Q"
 213      30324D60 
 213      AA674470 
 213      19009598 
 213      0951
 214              		.text
 215              		.section	.gnu.lto_.refs.665a7639fb34f980,"",%progbits
 216 0000 789C6362 		.ascii	"x\234cb`b`d\200\002\000\000F\000\006"
 216      60626064 
 216      80020000 
 216      460006
 217              		.text
 218              		.section	.gnu.lto_.decls.665a7639fb34f980,"",%progbits
 219 0000 789CCD59 		.ascii	"x\234\315Y}lS\327\025\277\367\331q\022\342\321\210\016"
 219      7D6C53D7 
 219      15BFF7D9 
 219      7112E2D1 
 219      880E
 220 0012 44D54AB8 		.ascii	"D\325J\270\322\272U\250\301\220\260\255c[\273\304\011"
 220      D2BA55A8 
 220      C190B0AD 
 220      635BBBC4 
 220      09
 221 0023 246B682C 		.ascii	"$kh,\007\264\355/\353a\277\020kI\3549\316F\377\273\204"
ARM GAS  /tmp/cc42I6kA.s 			page 17


 221      07B4ED2F 
 221      EB61BF10 
 221      6B49EC39 
 221      CE46FFBB 
 222 0038 0F75D9CA 		.ascii	"\017u\331\312\322\300X(,1-\204\264\245\015\011m\201"
 222      D2C05828 
 222      2C312D84 
 222      B4A50D09 
 222      6D81
 223 004a 0686010D 		.ascii	"\006\206\001\015e\264JJ:6\252R\222\026E\035j\267\265"
 223      65B44A4A 
 223      3A36AA52 
 223      9216451D 
 223      6AB7B5
 224 005d D5A0DD3A 		.ascii	"\325\240\335:\341\235{\336{\366\273\306\216\337\313"
 224      E19D7BDE 
 224      7BF6BBC6 
 224      8EDFCB
 225 006c AA694F3E 		.ascii	"\252iO>\347^\337w\316\357\376\356\307\273\347\370Y\""
 225      E75EDF77 
 225      CEEFFEEE 
 225      C7BBE7F8 
 225      5922
 226 007e 12095242 		.ascii	"\022\011RB\222p\365\335M\310\006\033!\360!\017\221\364"
 226      9270F5DD 
 226      4DC8061B 
 226      21F0210F 
 226      91F4
 227 0090 2581EC07 		.ascii	"%\201\354\007\271Dn\277x\373|\220B\220)\220\273\001"
 227      B9446EBF 
 227      78FB7C90 
 227      42902990 
 227      BB01
 228 00a2 6B15C8B7 		.ascii	"k\025\310\267A\276\013r\020\332\016\200\314\243\252"
 228      41BE0B72 
 228      10DA0E80 
 228      CCA3AA
 229 00b1 9D936343 		.ascii	"\235\223cC\375; oA}!\310R\250?\017\345\011\220wAFA\256"
 229      FD3B206F 
 229      417D21C8 
 229      52A83F0F 
 229      E5099077 
 230 00c9 819C0299 		.ascii	"\201\234\002\231\0019\015r\035\344\014\347\002\266\347"
 230      01390D72 
 230      1DE40CE7 
 230      02B6E7
 231 00d8 A0B44339 		.ascii	"\240\264C9\014\345U\220\363 c \027@^\007\0317p~\230"
 231      0CE55590 
 231      F3206320 
 231      17405E07 
 231      1937707E 
 232 00ed AADC2641 		.ascii	"\252\334&Aj\241^\007\362}\220G@\352A\326Rq<|\214E\034"
 232      6AA15E07 
 232      F27D9047 
 232      40EA41D6 
 232      52713C7C 
 233 0104 9FA4F98E 		.ascii	"\237\244\371\216\030\306\3079_\006qh\\\257i\0349/\316"
ARM GAS  /tmp/cc42I6kA.s 			page 18


 233      18C6C739 
 233      5F067168 
 233      5CAF691C 
 233      392FCE
 234 0117 89F3A11A 		.ascii	"\211\363\241\032\016\237\307E\360e1\310\2273\372YB\372"
 234      0E9FC745 
 234      F06531C8 
 234      9733FA59 
 234      42FA
 235 0129 587C7A7A 		.ascii	"X|zz\333\337\216\334\305\342\235\211d\362a\262\210\374"
 235      DBDF8EDC 
 235      C5E29D89 
 235      64F261B2 
 235      88FC
 236 013b 9AC115DF 		.ascii	"\232\301\025\337\316\030\215\311\364\241\205\344\207"
 236      CE188DC9 
 236      F4A185E4 
 236      87
 237 0148 54A6F38B 		.ascii	"T\246\363\213\211\013+\316b$E\210L\237\246\213\260f"
 237      890B2BCE 
 237      62244588 
 237      4C9FA68B 
 237      B066
 238 015a C3619212 		.ascii	"\303a\222\022\322\305X'w\254\035\233\277\200<\211(\000"
 238      D2C55827 
 238      77AC1D9B 
 238      BF803C89 
 238      2800
 239 016c 320603D0 		.ascii	"2\006\003\320 \022\363t\214AN\344>r\200\261\356\351"
 239      2012F374 
 239      8C414EE4 
 239      3E7280B1 
 239      EEE9
 240 017e 1BD70FD9 		.ascii	"\033\327\017\331\030+\322\\\\\271\355e:@\357#\371\355"
 240      182BD25C 
 240      5CB9ED65 
 240      3A40EF23 
 240      F9ED
 241 0190 B8E5205D 		.ascii	"\270\345 ]@\226\222g\301\260\233\261\263\253\304qc\307"
 241      40969267 
 241      C1B09BB1 
 241      B3ABC471 
 241      63C7
 242 01a2 2C313AE9 		.ascii	",1:\351dv\325\224\273<K\227f\331Z\344^\022\347\306\027"
 242      6476D594 
 242      BB3C4B97 
 242      66D95AE4 
 242      5E12E7C6 
 243 01b7 27F75116 		.ascii	"'\367Q\026?K\263t?M\365\356\357I\215*\261g\222\272d"
 243      3F4BB374 
 243      3F4DF5EE 
 243      EF498D2A 
 243      B16792BA 
 244 01cc 7A18EC25 		.ascii	"z\030\354%\362\030\025\340\363Bp6C\340\251:il\337\236"
 244      F21815E0 
 244      F3427036 
 244      43E0A93A 
ARM GAS  /tmp/cc42I6kA.s 			page 19


 244      696CDF9E 
 245 01e0 40B64326 		.ascii	"@\266C&\330v&\246&\366\335\305\331\026\223\307\323\213"
 245      D87626A6 
 245      26F6DDC5 
 245      D91693C7 
 245      D38B
 246 01f2 42B22EA5 		.ascii	"B\262.\245\266\012'\272~\177\206v\302z\311t\004\334"
 246      B60A27BA 
 246      7E7F8676 
 246      C27AC974 
 246      04DC
 247 0204 24C22491 		.ascii	"$\302$\221\265y\250\243='\277\005\013*\323\227\021h"
 247      B579A8A3 
 247      3D27BF05 
 247      0B2AD397 
 247      1168
 248 0216 874D0492 		.ascii	"\207M\004\222ia\261\2212~\327\0158\032\336\326*\374"
 248      6961B191 
 248      327ED70D 
 248      381ADED6 
 248      2AFC
 249 0228 44B88358 		.ascii	"D\270\203X5\227\310\036\354\224OV6\242ZU\2754\003a\002"
 249      3597C81E 
 249      EC944F56 
 249      36A25A55 
 249      BD340361 
 250 023d A7FF31D3 		.ascii	"\247\3771\323\217\023\250\317F\277e<\227\260 7'\234"
 250      8F13A8CF 
 250      46BF653C 
 250      97B02037 
 250      279C
 251 024f DDB20E36 		.ascii	"\335\262\0166`\006\254('\271\304\277\214`/Z\006\023"
 251      6006AC28 
 251      27B9C4BF 
 251      8C602F5A 
 251      0613
 252 0261 99DD3282 		.ascii	"\231\3352\202\275d\006\25447\263\236I\003\330q\313`"
 252      BD6406AC 
 252      3437B39E 
 252      4903D871 
 252      CB60
 253 0273 22B3DD46 		.ascii	"\"\263\335F\260Sf\300\026ga\226\3552>^2=\002\247\212"
 253      B05366C0 
 253      16676196 
 253      ED323E5E 
 253      323D02A7 
 254 0288 4C87E9BD 		.ascii	"L\207\351\275\240O\240\036E}\012\365i\324gP\237\003"
 254      A04FA01E 
 254      457D0AF5 
 254      69D46750 
 254      9F03
 255 029a 9DBA2472 		.ascii	"\235\272$r\0269\015\2469\211\217q\276]\306\022\227}"
 255      16390DA6 
 255      39898F71 
 255      BE5DC612 
 255      977D
 256 02ac 7C80EA21 		.ascii	"|\200\352!\361\007S`\302\010]\002\330G\006\2607L\201"
ARM GAS  /tmp/cc42I6kA.s 			page 20


 256      F1075360 
 256      C2085D02 
 256      D84706B0 
 256      374C81
 257 02bf 3D989BD9 		.ascii	"=\230\233\331g\006\260?\233\002\363\346f\326\335\230"
 257      6706B03F 
 257      9B02F3E6 
 257      66D6DD98 
 258 02cf 06BB6A0A 		.ascii	"\006\273j\012,\222\233Y\257\001l\306\024\330\3434\013"
 258      2C929B59 
 258      AF016CC6 
 258      14D8E334 
 258      0B
 259 02e0 35C35E50 		.ascii	"5\303^Pw\301s\270\013\236\307u>\217z\014\365\005\324"
 259      77C173B8 
 259      0B9EC775 
 259      3E8F7A0C 
 259      F505D4
 260 02f3 AFA31E17 		.ascii	"\257\243\036\027\327\377\303\333N65\226\030\260\007"
 260      D7FFC3DB 
 260      4E363596 
 260      18B007
 261 0302 53FB8C58 		.ascii	"S\373\214XC\317\025u\017\320\2224\372z\233\201\315\315"
 261      43CF1575 
 261      0FD09234 
 261      FA7A9B81 
 261      CDCD
 262 0314 0C365F21 		.ascii	"\0146_!\3170\326\003\301\375/\366=,aW]%\262\325\316"
 262      CF30D603 
 262      C1FD2FF6 
 262      3D2C6157 
 262      5D25B2D5 
 263 0329 CDF6D325 		.ascii	"\315\366\323%Y\273Hu\360Ur\220\007\251'\330\266R\212"
 263      59BB4875 
 263      F0557290 
 263      07A927D8 
 263      B6528A
 264 033c 6900D1BC 		.ascii	"i\000\321\274\204\341]\244\222\261A\315'\022\267.8\273"
 264      84E15DA4 
 264      92B141CD 
 264      2712B72E 
 264      38BB
 265 034e 374F2793 		.ascii	"7O'\223K\314'\023\177\312\237L\010\361R\322\001\036"
 265      4BCC2713 
 265      7FCA9F4C 
 265      08F152D2 
 265      011E
 266 0360 20E94462 		.ascii	" \351Db\177\277\015\343\316[\2709~a\317\037v\005\030"
 266      7FBF0DE3 
 266      CE5BB839 
 266      7E61CF1F 
 266      760518
 267 0373 CEE34A66 		.ascii	"\316\343Jf\330\375|\034\303\356\225\374aw\353\226Dr"
 267      D8FD7C1C 
 267      C3EE95FC 
 267      6177EB96 
 267      4472
ARM GAS  /tmp/cc42I6kA.s 			page 21


 268 0385 DC1076B7 		.ascii	"\334\020v\267\314\032+ez\0247\234\231`\326\213#\271"
 268      CC1A2B65 
 268      7A14379C 
 268      9960D68B 
 268      23B9
 269 0397 32B76006 		.ascii	"2\267`\006\264\272\325#~\012\017\322>\313`.\001\254"
 269      B4BAD523 
 269      7E0A0FD2 
 269      3ECB602E 
 269      01AC
 270 03a9 C70876D0 		.ascii	"\307\010v\320\014X\256H\006`\273\214`/X\006\023\231"
 270      0C58AE48 
 270      0660BB8C 
 270      602F5806 
 270      1399
 271 03bb ED36821D 		.ascii	"\3556\202\0355\003\226+\222\001X\257\021\354\230e0#"
 271      3503962B 
 271      920158AF 
 271      11EC9865 
 271      3023
 272 03cd B3CD8963 		.ascii	"\263\315\211c\023\027(\353q\336Iz\030\333\314\342\216"
 272      131728EB 
 272      71DE497A 
 272      18DBCCE2 
 272      8E
 273 03de 5C9B8210 		.ascii	"\\\233\202\0204a\263\232\310\364\257\364Nq\223\356\375"
 273      3461B39A 
 273      C8F4AFF4 
 273      4E7193EE 
 273      FD
 274 03ef D57CBE49 		.ascii	"\325|\276Iy{\376\334\360\267Zn\250G\326Q\034\034\367"
 274      797BFEDC 
 274      F0B75A6E 
 274      A847D651 
 274      1C1CF7
 275 0402 9D4BAAC4 		.ascii	"\235K\252\304\022/O\224\260.\247\236\361\177op\026\342"
 275      122F4F94 
 275      B02EA79E 
 275      F17F6F70 
 275      16E2
 276 0414 9F643E5D 		.ascii	"\237d>]\375\023\222Km\316\317{xb\337b\026?\243\347\264"
 276      FD13924B 
 276      6DCECF7B 
 276      7862DF62 
 276      163FA3E7 
 277 0429 6C3BBBDF 		.ascii	"l;\273\337\320W\251\336\027??R9\355\261\007\360@\270"
 277      D057A9DE 
 277      173F3F52 
 277      39EDB107 
 277      F040B8
 278 043c A1A61019 		.ascii	"\241\246\020\031\007\202y\240\243=\207\324\214\3663"
 278      078279A0 
 278      A33D87D4 
 278      8CF633
 279 044b 043A6FCF 		.ascii	"\004:o\317<\367m\031\031\255M|\252m\305\351J2i#\326"
 279      3CF76D19 
 279      19AD4D7C 
ARM GAS  /tmp/cc42I6kA.s 			page 22


 279      AA6DC5E9 
 279      4A326923 
 280 0460 8C257211 		.ascii	"\214%r\021;\374$\275\377\004\222f\262\331>\234:}&.Y"
 280      3BFC24BD 
 280      FF049266 
 280      B2D93E9C 
 280      3A7D262E 
 281 0475 C62BCD58 		.ascii	"\306+\315X\023\211\274=\327mc\030\271\036\027\377\216"
 281      1389BC3D 
 281      D76D6318 
 281      B91E17FF 
 281      8E
 282 0486 F1EF6331 		.ascii	"\361\357c1\272\276c\346\241\313\226\361iO\360q\343\023"
 282      BABE63E6 
 282      A1CB96F1 
 282      694FF071 
 282      E313
 283 0498 FC9E6530 		.ascii	"\374\236e0\227\000\366\252\021\354}3`\256\334\314N\032"
 283      9700F6AA 
 283      11EC7D33 
 283      60AEDCCC 
 283      4E1A
 284 04aa C13EB40C 		.ascii	"\301>\264\014&2\373\235\021\354c3`\367\317\266(\302"
 284      2632FB9D 
 284      11EC6333 
 284      60F7CFB6 
 284      28C2
 285 04bc FA5C3164 		.ascii	"\372\\1d\311\357`\270\272\212+\365.\352k\250gP\277\217"
 285      C9EF60B8 
 285      BA8A2BF5 
 285      2EEA6BA8 
 285      6750BF8F 
 286 04d0 FA3AEA0F 		.ascii	"\372:\352\017P3\211\353N\324[Qo\227\362\3447\332O\347"
 286      503389EB 
 286      4ED45B51 
 286      6F97F2E4 
 286      37DA4FE7 
 287 04e4 3777DFC3 		.ascii	"7w\337\303O\263\313\230\256\334\310x\326\204\314@\015"
 287      4FB3CB98 
 287      AEDCC878 
 287      D684CC40 
 287      0D
 288 04f5 F5B94E9B 		.ascii	"\365\271N\233.\251$\307\241r\333=-\3550\375\0337\221"
 288      2EA924C7 
 288      A172DB3D 
 288      2DED30FD 
 288      1B3791
 289 0508 DCB99073 		.ascii	"\334\271\220s\374\245\204?\225\0132\317\003~\262\012"
 289      FCA5843F 
 289      950B32CF 
 289      037EB20A 
 290 0518 FD99FA89 		.ascii	"\375\231\372\211k\231E\357\"I\246\335\310\341\211/\210"
 290      6B9945EF 
 290      2249A6DD 
 290      C8E1892F 
 290      88
 291 0529 434652B9 		.ascii	"CFR\271;\003VK*g\206\376\251%\225\352*\035F\263K9\223"
ARM GAS  /tmp/cc42I6kA.s 			page 23


 291      3B03564B 
 291      2A6786FE 
 291      A92595EA 
 291      2A1D46B3 
 292 0540 4A6EA5F9 		.ascii	"Jn\245\371&\236|\3550\304\037I\237\274\341<\256\334"
 292      269E7CED 
 292      30C41F49 
 292      9FBCE13C 
 292      AEDC
 293 0552 4A77DDF9 		.ascii	"Jw\335\371\332\200\352\252\216\371\225<\256\334\212"
 293      DA80EAAA 
 293      8EF9953C 
 293      AEDC8A
 294 0561 E8A96C22 		.ascii	"\350\251l\"\331\265%N\231#\225\314^\312LfwJB2\233%_"
 294      D9B5254E 
 294      992395CC 
 294      5ECA4C66 
 294      774A4232 
 295 0578 8CDBF40E 		.ascii	"\214\333\364\016V\246\026a\372\323\017\336\3709\035"
 295      56A61661 
 295      FAD30FDE 
 295      F8391D
 296 0587 66AC54A6 		.ascii	"f\254T\246{%\236x\336\314\230\263\274@\274\363>)#4~"
 296      7B259E78 
 296      DECC98B3 
 296      BC40BCF3 
 296      3E292334 
 297 059c 3A858927 		.ascii	":\205\211'o\317\237x~>\265K\213\351\3529\320\351\240"
 297      6FCF9F78 
 297      7E3EB54B 
 297      8BE9EA39 
 297      D0E9A0
 298 05af 1AE6DC32 		.ascii	"\032\346\3342\306\177O\031\016\225m\226\301\\\002\330"
 298      C67F4F19 
 298      0E956D96 
 298      C15C02D8 
 299 05bf 2D235897 		.ascii	"-#X\227\031\260Y2\306\356\367\306x*\245\303\355\260"
 299      19B05932 
 299      C6EEF7C6 
 299      782AA5C3 
 299      EDB0
 300 05d1 0C2772EB 		.ascii	"\014'r\353\021\341~c\006n\226\254q\227\010\027\267\014"
 300      11E17E63 
 300      066E96AC 
 300      71970817 
 300      B70C
 301 05e3 27B2DB2D 		.ascii	"'\262\333-\302\0352\0037KD\354\025\341\206,\303\211"
 301      C21D3203 
 301      374B44EC 
 301      15E1862C 
 301      C389
 302 05f5 EC9E12E1 		.ascii	"\354\236\022\341\216\231\201s\345f\267O\204;i\031Nd"
 302      8E998173 
 302      E566B74F 
 302      843B6919 
 302      4E64
 303 0607 D727C225 		.ascii	"\327'\302%\314\300e\213\214\032\334\021\021n\3142\234"
ARM GAS  /tmp/cc42I6kA.s 			page 24


 303      CCC0658B 
 303      8C1ADC11 
 303      116ECC32 
 303      9C
 304 0618 C86E4484 		.ascii	"\310nD\204\0337\003\267<\013\273l\227\3610\221i\277"
 304      1B3703B7 
 304      3C0BBB6C 
 304      97F13091 
 304      69BF
 305 062a C4E3761C 		.ascii	"\304\343v\034#\360\323\250\017\240\036@=\210\3729\324"
 305      23F0D3A8 
 305      0FA01E40 
 305      3D88FA39 
 305      D4
 306 063b 8751BF88 		.ascii	"\207Q\277\210\372\010\352\021\324/\241~\005\365qc\014"
 306      FA08EA11 
 306      D42FA17E 
 306      05F57163 
 306      0C
 307 064c CF88C57B 		.ascii	"\317\210\305{s\320\347\214^\225J\262ze\377\243@|\215"
 307      73D0E78C 
 307      5E954AB2 
 307      7A65FFA3 
 307      407C8D
 308 065f 23D31730 		.ascii	"#\323\0270\367\030\022\336\245X~_\227\213\332h\232\232"
 308      F71812DE 
 308      A5587E5F 
 308      978BDA68 
 308      9A9A
 309 0671 1936E4BF 		.ascii	"\0316\344\277g\222\012\360\211/\340\365\000\177\347"
 309      67920AF0 
 309      892FE0F5 
 309      007FE7
 310 0680 92F868FA 		.ascii	"\222\370h\372\340\324\016\355?\234\323\214Z\370\027"
 310      E0D40EED 
 310      3F9CD38C 
 310      5AF817
 311 068f 2721092F 		.ascii	"'!\011/^\324\314(\365E\233\233\214\244\340\217\216l"
 311      5ED4CC28 
 311      F5459B9B 
 311      8CA4E08F 
 311      8E6C
 312 06a1 4901DBA3 		.ascii	"I\001\333\243\324\252\356\220\273\243\305i)Wd\346V\272"
 312      D4AAEE90 
 312      BBA3C569 
 312      295764E6 
 312      56BA
 313 06b3 DBDEF3CE 		.ascii	"\333\336\363\316n\252v%\3237\2514\253\243FH{;5\312\274"
 313      6EAA7625 
 313      D337A934 
 313      ABA34648 
 313      7B3B35CA 
 314 06c8 8B53F19C 		.ascii	"\213S\361\234;\011O\30191\236\177\215\014\340\0379\343"
 314      3B094FC1 
 314      39319E7F 
 314      8D0CE01F 
 314      39E3
ARM GAS  /tmp/cc42I6kA.s 			page 25


 315 06da 639BF95F 		.ascii	"c\233\371_3\206e7\336g#\361\322\377\223\233\344\233"
 315      33866537 
 315      DE6723F1 
 315      D2FF939B 
 315      E49B
 316 06ec CB96B93D 		.ascii	"\313\226\271=\315\241\015\241\206Fw\270\335\335,\267"
 316      CDA10DA1 
 316      864677B8 
 316      DDDD2CB7 
 317 06fc B823E168 		.ascii	"\270#\341h\254\335\335\270nmE\271\273\276\276\332\275"
 317      ACDDDDB8 
 317      6E6D45B9 
 317      BBBEBEDA 
 317      BD
 318 070d C65BD7F0 		.ascii	"\306[\327\360\323r~\313\037\001ii\011.\013\314\321\257"
 318      D3727ECB 
 318      1F016969 
 318      092E0BCC 
 318      D1AF
 319 071f 9938D63C 		.ascii	"\2318\326<\272\336\345!\013\332c\255\025\345\376\215"
 319      BADEE521 
 319      0BDA63AD 
 319      15E5FE8D 
 320 072f 9150D8DF 		.ascii	"\221P\330\337\256\304:\"~pmkB\371\272\2739\334\252\270"
 320      AEC43A22 
 320      7E706D6B 
 320      42F9BABB 
 320      39DCAAB8 
 321 0743 A34ABB22 		.ascii	"\243J\273\"G\003\315\000\020\015\376L\216*n9\332Z\356"
 321      4703CD00 
 321      100DFE4C 
 321      8E2A6E39 
 321      DA5AEE
 322 0756 DE180894 		.ascii	"\336\030\010\224A\245Li\335\240\004\203J0\325\320\026"
 322      41A54C69 
 322      DDA00483 
 322      4A30D5D0 
 322      16
 323 0767 6E53CA14 		.ascii	"nS\312\024yC\250l\245\377\301\262\362\345+V\376\244"
 323      7943A86C 
 323      A5FFC1B2 
 323      F2E52B56 
 323      FEA4
 324 0779 DC2DDC70 		.ascii	"\334-\334p\207\332\002-\035A\305\335\036\013\206\332"
 324      87DA022D 
 324      1D41C5DD 
 324      1E0B86DA 
 325 0789 62C0A6A8 		.ascii	"b\300\246\250\003J\340\021\333B\377w\275\267\312\201"
 325      034AE011 
 325      DB42FF77 
 325      BDB7CA81 
 326 0799 E6509BE2 		.ascii	"\346P\233\342\366\007\225&\271\243%\346\217=\026Q\332"
 326      F6079526 
 326      B9A325E6 
 326      8F3D1651 
 326      DA
 327 07aa 81CD3CBF 		.ascii	"\201\315<\277_\347S\320\032\016*QG\230\337\212\026\206"
ARM GAS  /tmp/cc42I6kA.s 			page 26


 327      5FE753D0 
 327      1A0E2A51 
 327      4798DF8A 
 327      1686
 328 07bc DB238A12 		.ascii	"\333#\212\022\214\026D:\"\301\250-\034\214\332\345\246"
 328      8C16443A 
 328      22C1A82D 
 328      1C8CDAE5 
 328      A6
 329 07cd 680B57   		.ascii	"h\013W"
 330 07d0 CD0E6F65 		.ascii	"\315\016oe\265\034\223\035\336*\265\360\250E\265Z\324"
 330      B51C931D 
 330      DE2AB5F0 
 330      A845B55A 
 330      D4
 331 07e1 A8C56A5E 		.ascii	"\250\305j^\024{+\353=\341\266\246\320\306/\351\353\341"
 331      147B2BEB 
 331      3DE1B6A6 
 331      D0C62FE9 
 331      EBE1
 332 07f3 0FB58562 		.ascii	"\017\265\205b\216\0006:\015+\022+X\333P]\343s4\254\373"
 332      8E00363A 
 332      0D2B122B 
 332      58DB505D 
 332      E37334AC 
 333 0808 91B7C657 		.ascii	"\221\267\306W\330\320\350\255\251\251\366\025x\327{"
 333      D8D0E8AD 
 333      A9A9F615 
 333      78D77B
 334 0817 AB7DB63A 		.ascii	"\253}\266:\220\206j\037\375\001N\336\212o\370c\032o"
 334      90866A1F 
 334      FD014EDE 
 334      8A6FF863 
 334      1A6F
 335 0829 5EB5C162 		.ascii	"^\265\301b\026\004Z`\352h\255\275\252\321\347\263\327"
 335      16045A60 
 335      EA68ADBD 
 335      AAD1E7B3 
 335      D7
 336 083a 7B1EF1D9 		.ascii	"{\036\361\331+W\373\352\271\252\265U\371|\363Ba\276"
 336      2B57FBEA 
 336      B9AAB555 
 336      F97CF342 
 336      61BE
 337 084c 5542417F 		.ascii	"UBA\177\314\251V[\345\366\037\373cE\2410\037\265?\266"
 337      CCA9565B 
 337      E5F61FFB 
 337      6345A130 
 337      1FB53FB6 
 338 0860 30C50FD0 		.ascii	"0\305\017\3206F\303\035\021\336n\347\226vnj\347_W\211"
 338      3646C31D 
 338      11DE6EE7 
 338      96766E6A 
 338      E75F5789 
 339 0874 1B30106E 		.ascii	"\0330\020nm\015\267\271\225M1\267gmc]#\354Cu+\256\256"
 339      6D0DB7B9 
 339      954D31B7 
ARM GAS  /tmp/cc42I6kA.s 			page 27


 339      676D635D 
 339      23EC4375 
 340 088b D8B4C98D 		.ascii	"\330\264\311\215ck\252X^\261)\000\363\\\342\363x\374"
 340      636BAA58 
 340      5EB12900 
 340      F35CE2F3 
 340      78FC
 341 089d EB6066AB 		.ascii	"\353`f\253\225&\311\343\263{V\257\361\331<u\276\242"
 341      9526C9E3 
 341      B37B56AF 
 341      F1D93C75 
 341      BEA2
 342 08af 4A6F55B9 		.ascii	"JoU\271\257q\035VV\360\212\243\262\266\252\346Q_!\277"
 342      AF711D56 
 342      56F08AA3 
 342      B2B6AAE6 
 342      515F21BF 
 343 08c3 A1952BA0 		.ascii	"\241\225+\240\264WU{\300\243\021\032j\253\270]\001\207"
 343      B457557B 
 343      C0A3111A 
 343      6AABB85D 
 343      0187
 344 08d5 28475D51 		.ascii	"(G]Q\304'\225Oc\001W\221\377\000q\003\027\316"
 344      C427954F 
 344      63015791 
 344      FF007103 
 344      17CE
 345              		.text
 346              		.section	.gnu.lto_.symtab.665a7639fb34f980,"",%progbits
 347 0000 5F70616C 		.ascii	"_pal_lld_init\000\000\000\000\000\000\000\000\000\000"
 347      5F6C6C64 
 347      5F696E69 
 347      74000000 
 347      00000000 
 348 0017 0000A100 		.ascii	"\000\000\241\000\000\000_pal_lld_setgroupmode\000\000"
 348      00005F70 
 348      616C5F6C 
 348      6C645F73 
 348      65746772 
 349 0034 00000000 		.ascii	"\000\000\000\000\000\000\000\000\000\000\325\000\000"
 349      00000000 
 349      0000D500 
 349      00
 350 0041 00       		.ascii	"\000"
 351              		.text
 352              		.section	.gnu.lto_.opts,"",%progbits
 353 0000 272D6D63 		.ascii	"'-mcpu=cortex-m4' '-mno-thumb-interwork' '-mthumb' "
 353      70753D63 
 353      6F727465 
 353      782D6D34 
 353      2720272D 
 354 0033 272D6767 		.ascii	"'-ggdb' '-O2' '-fomit-frame-pointer' '-falign-funct"
 354      64622720 
 354      272D4F32 
 354      2720272D 
 354      666F6D69 
 355 0066 696F6E73 		.ascii	"ions=16' '-ffunction-sections' '-fdata-sections' '-"
ARM GAS  /tmp/cc42I6kA.s 			page 28


 355      3D313627 
 355      20272D66 
 355      66756E63 
 355      74696F6E 
 356 0099 666E6F2D 		.ascii	"fno-common' '-flto'\000"
 356      636F6D6D 
 356      6F6E2720 
 356      272D666C 
 356      746F2700 
 357              		.text
 358              		.cfi_sections	.debug_frame
 359              		.section	.text._pal_lld_init,"ax",%progbits
 360              		.align	2
 361              		.p2align 4,,15
 362              		.global	_pal_lld_init
 363              		.thumb
 364              		.thumb_func
 365              		.type	_pal_lld_init, %function
 366              	_pal_lld_init:
 367              	.LFB271:
 368              		.file 1 "../ChibiOS/os/hal/ports/STM32/LLD/GPIOv2/hal_pal_lld.c"
 369              		.loc 1 88 0
 370              		.cfi_startproc
 371              		@ args = 0, pretend = 0, frame = 0
 372              		@ frame_needed = 0, uses_anonymous_args = 0
 373              		@ link register save eliminated.
 374              	.LVL0:
 375 0000 F0B4     		push	{r4, r5, r6, r7}
 376              		.cfi_def_cfa_offset 16
 377              		.cfi_offset 4, -16
 378              		.cfi_offset 5, -12
 379              		.cfi_offset 6, -8
 380              		.cfi_offset 7, -4
 381              		.loc 1 102 0
 382 0002 364E     		ldr	r6, .L2
 383              	.LBB14:
 384              	.LBB15:
 385              		.loc 1 63 0
 386 0004 364D     		ldr	r5, .L2+4
 387              	.LBE15:
 388              	.LBE14:
 389              		.loc 1 102 0
 390 0006 7769     		ldr	r7, [r6, #20]
 391              	.LBB17:
 392              	.LBB18:
 393              		.loc 1 63 0
 394 0008 364C     		ldr	r4, .L2+8
 395              	.LBE18:
 396              	.LBE17:
 397              	.LBB20:
 398              	.LBB21:
 399 000a 3749     		ldr	r1, .L2+12
 400              	.LBE21:
 401              	.LBE20:
 402              	.LBB23:
 403              	.LBB24:
 404 000c 374A     		ldr	r2, .L2+16
ARM GAS  /tmp/cc42I6kA.s 			page 29


 405              	.LBE24:
 406              	.LBE23:
 407              	.LBB26:
 408              	.LBB27:
 409 000e 384B     		ldr	r3, .L2+20
 410              	.LBE27:
 411              	.LBE26:
 412              		.loc 1 102 0
 413 0010 47F4FC07 		orr	r7, r7, #8257536
 414 0014 7761     		str	r7, [r6, #20]
 415              	.LVL1:
 416              	.LBB29:
 417              	.LBB30:
 418              		.loc 1 63 0
 419 0016 4FF09046 		mov	r6, #1207959552
 420 001a 4768     		ldr	r7, [r0, #4]
 421 001c 7760     		str	r7, [r6, #4]
 422              		.loc 1 64 0
 423 001e 8768     		ldr	r7, [r0, #8]
 424 0020 B760     		str	r7, [r6, #8]
 425              		.loc 1 65 0
 426 0022 C768     		ldr	r7, [r0, #12]
 427 0024 F760     		str	r7, [r6, #12]
 428              		.loc 1 66 0
 429 0026 0769     		ldr	r7, [r0, #16]
 430 0028 7761     		str	r7, [r6, #20]
 431              		.loc 1 67 0
 432 002a 4769     		ldr	r7, [r0, #20]
 433 002c 3762     		str	r7, [r6, #32]
 434              		.loc 1 68 0
 435 002e 8769     		ldr	r7, [r0, #24]
 436 0030 7762     		str	r7, [r6, #36]
 437              		.loc 1 69 0
 438 0032 0768     		ldr	r7, [r0]
 439 0034 3760     		str	r7, [r6]
 440              	.LVL2:
 441              	.LBE30:
 442              	.LBE29:
 443              	.LBB31:
 444              	.LBB16:
 445              		.loc 1 63 0
 446 0036 066A     		ldr	r6, [r0, #32]
 447 0038 6E60     		str	r6, [r5, #4]
 448              		.loc 1 64 0
 449 003a 466A     		ldr	r6, [r0, #36]
 450 003c AE60     		str	r6, [r5, #8]
 451              		.loc 1 65 0
 452 003e 866A     		ldr	r6, [r0, #40]
 453 0040 EE60     		str	r6, [r5, #12]
 454              		.loc 1 66 0
 455 0042 C66A     		ldr	r6, [r0, #44]
 456 0044 6E61     		str	r6, [r5, #20]
 457              		.loc 1 67 0
 458 0046 066B     		ldr	r6, [r0, #48]
 459 0048 2E62     		str	r6, [r5, #32]
 460              		.loc 1 68 0
 461 004a 466B     		ldr	r6, [r0, #52]
ARM GAS  /tmp/cc42I6kA.s 			page 30


 462 004c 6E62     		str	r6, [r5, #36]
 463              		.loc 1 69 0
 464 004e C669     		ldr	r6, [r0, #28]
 465 0050 2E60     		str	r6, [r5]
 466              	.LVL3:
 467              	.LBE16:
 468              	.LBE31:
 469              	.LBB32:
 470              	.LBB19:
 471              		.loc 1 63 0
 472 0052 C56B     		ldr	r5, [r0, #60]
 473 0054 6560     		str	r5, [r4, #4]
 474              		.loc 1 64 0
 475 0056 056C     		ldr	r5, [r0, #64]
 476 0058 A560     		str	r5, [r4, #8]
 477              		.loc 1 65 0
 478 005a 456C     		ldr	r5, [r0, #68]
 479 005c E560     		str	r5, [r4, #12]
 480              		.loc 1 66 0
 481 005e 856C     		ldr	r5, [r0, #72]
 482 0060 6561     		str	r5, [r4, #20]
 483              		.loc 1 67 0
 484 0062 C56C     		ldr	r5, [r0, #76]
 485 0064 2562     		str	r5, [r4, #32]
 486              		.loc 1 68 0
 487 0066 056D     		ldr	r5, [r0, #80]
 488 0068 6562     		str	r5, [r4, #36]
 489              		.loc 1 69 0
 490 006a 856B     		ldr	r5, [r0, #56]
 491 006c 2560     		str	r5, [r4]
 492              	.LVL4:
 493              	.LBE19:
 494              	.LBE32:
 495              	.LBB33:
 496              	.LBB22:
 497              		.loc 1 63 0
 498 006e 846D     		ldr	r4, [r0, #88]
 499 0070 4C60     		str	r4, [r1, #4]
 500              		.loc 1 64 0
 501 0072 C46D     		ldr	r4, [r0, #92]
 502 0074 8C60     		str	r4, [r1, #8]
 503              		.loc 1 65 0
 504 0076 046E     		ldr	r4, [r0, #96]
 505 0078 CC60     		str	r4, [r1, #12]
 506              		.loc 1 66 0
 507 007a 446E     		ldr	r4, [r0, #100]
 508 007c 4C61     		str	r4, [r1, #20]
 509              		.loc 1 67 0
 510 007e 846E     		ldr	r4, [r0, #104]
 511 0080 0C62     		str	r4, [r1, #32]
 512              		.loc 1 68 0
 513 0082 C46E     		ldr	r4, [r0, #108]
 514 0084 4C62     		str	r4, [r1, #36]
 515              		.loc 1 69 0
 516 0086 446D     		ldr	r4, [r0, #84]
 517 0088 0C60     		str	r4, [r1]
 518              	.LVL5:
ARM GAS  /tmp/cc42I6kA.s 			page 31


 519              	.LBE22:
 520              	.LBE33:
 521              	.LBB34:
 522              	.LBB25:
 523              		.loc 1 63 0
 524 008a 416F     		ldr	r1, [r0, #116]
 525 008c 5160     		str	r1, [r2, #4]
 526              		.loc 1 64 0
 527 008e 816F     		ldr	r1, [r0, #120]
 528 0090 9160     		str	r1, [r2, #8]
 529              		.loc 1 65 0
 530 0092 C16F     		ldr	r1, [r0, #124]
 531 0094 D160     		str	r1, [r2, #12]
 532              		.loc 1 66 0
 533 0096 D0F88010 		ldr	r1, [r0, #128]
 534 009a 5161     		str	r1, [r2, #20]
 535              		.loc 1 67 0
 536 009c D0F88410 		ldr	r1, [r0, #132]
 537 00a0 1162     		str	r1, [r2, #32]
 538              		.loc 1 68 0
 539 00a2 D0F88810 		ldr	r1, [r0, #136]
 540 00a6 5162     		str	r1, [r2, #36]
 541              		.loc 1 69 0
 542 00a8 016F     		ldr	r1, [r0, #112]
 543 00aa 1160     		str	r1, [r2]
 544              	.LVL6:
 545              	.LBE25:
 546              	.LBE34:
 547              	.LBB35:
 548              	.LBB28:
 549              		.loc 1 63 0
 550 00ac D0F89020 		ldr	r2, [r0, #144]
 551 00b0 5A60     		str	r2, [r3, #4]
 552              		.loc 1 64 0
 553 00b2 D0F89420 		ldr	r2, [r0, #148]
 554 00b6 9A60     		str	r2, [r3, #8]
 555              		.loc 1 65 0
 556 00b8 D0F89820 		ldr	r2, [r0, #152]
 557 00bc DA60     		str	r2, [r3, #12]
 558              		.loc 1 66 0
 559 00be D0F89C20 		ldr	r2, [r0, #156]
 560 00c2 5A61     		str	r2, [r3, #20]
 561              		.loc 1 67 0
 562 00c4 D0F8A020 		ldr	r2, [r0, #160]
 563 00c8 1A62     		str	r2, [r3, #32]
 564              		.loc 1 68 0
 565 00ca D0F8A420 		ldr	r2, [r0, #164]
 566 00ce 5A62     		str	r2, [r3, #36]
 567              		.loc 1 69 0
 568 00d0 D0F88C20 		ldr	r2, [r0, #140]
 569 00d4 1A60     		str	r2, [r3]
 570              	.LBE28:
 571              	.LBE35:
 572              		.loc 1 144 0
 573 00d6 F0BC     		pop	{r4, r5, r6, r7}
 574 00d8 7047     		bx	lr
 575              	.L3:
ARM GAS  /tmp/cc42I6kA.s 			page 32


 576 00da 00BF     		.align	2
 577              	.L2:
 578 00dc 00100240 		.word	1073876992
 579 00e0 00040048 		.word	1207960576
 580 00e4 00080048 		.word	1207961600
 581 00e8 000C0048 		.word	1207962624
 582 00ec 00100048 		.word	1207963648
 583 00f0 00140048 		.word	1207964672
 584              		.cfi_endproc
 585              	.LFE271:
 586              		.size	_pal_lld_init, .-_pal_lld_init
 587 00f4 AFF30080 		.section	.text._pal_lld_setgroupmode,"ax",%progbits
 587      AFF30080 
 587      AFF30080 
 588              		.align	2
 589              		.p2align 4,,15
 590              		.global	_pal_lld_setgroupmode
 591              		.thumb
 592              		.thumb_func
 593              		.type	_pal_lld_setgroupmode, %function
 594              	_pal_lld_setgroupmode:
 595              	.LFB272:
 596              		.loc 1 161 0
 597              		.cfi_startproc
 598              		@ args = 0, pretend = 0, frame = 0
 599              		@ frame_needed = 0, uses_anonymous_args = 0
 600              		@ link register save eliminated.
 601              	.LVL7:
 602 0000 2DE9F00F 		push	{r4, r5, r6, r7, r8, r9, r10, fp}
 603              		.cfi_def_cfa_offset 32
 604              		.cfi_offset 4, -32
 605              		.cfi_offset 5, -28
 606              		.cfi_offset 6, -24
 607              		.cfi_offset 7, -20
 608              		.cfi_offset 8, -16
 609              		.cfi_offset 9, -12
 610              		.cfi_offset 10, -8
 611              		.cfi_offset 11, -4
 612              		.loc 1 168 0
 613 0004 0023     		movs	r3, #0
 614              		.loc 1 163 0
 615 0006 02F00304 		and	r4, r2, #3
 616              	.LVL8:
 617              		.loc 1 164 0
 618 000a C2F38007 		ubfx	r7, r2, #2, #1
 619              	.LVL9:
 620              		.loc 1 165 0
 621 000e C2F3C106 		ubfx	r6, r2, #3, #2
 622              	.LVL10:
 623              		.loc 1 166 0
 624 0012 C2F34115 		ubfx	r5, r2, #5, #2
 625              	.LVL11:
 626              		.loc 1 167 0
 627 0016 C2F3C31B 		ubfx	fp, r2, #7, #4
 628              	.LVL12:
 629              	.LBB36:
 630              		.loc 1 176 0
ARM GAS  /tmp/cc42I6kA.s 			page 33


 631 001a 4FF00F0A 		mov	r10, #15
 632 001e 0CE0     		b	.L11
 633              	.LVL13:
 634              	.L17:
 635              		.loc 1 194 0
 636 0020 026A     		ldr	r2, [r0, #32]
 637 0022 22EA0C0C 		bic	ip, r2, ip
 638              	.LVL14:
 639 0026 4CEA0802 		orr	r2, ip, r8
 640 002a 0262     		str	r2, [r0, #32]
 641              	.LVL15:
 642              	.L5:
 643              	.LBE36:
 644              		.loc 1 200 0
 645 002c 4908     		lsrs	r1, r1, #1
 646              	.LVL16:
 647 002e 40D0     		beq	.L4
 648              	.LVL17:
 649              	.L18:
 650              		.loc 1 202 0
 651 0030 7F00     		lsls	r7, r7, #1
 652              	.LVL18:
 653              		.loc 1 203 0
 654 0032 B600     		lsls	r6, r6, #2
 655              	.LVL19:
 656              		.loc 1 204 0
 657 0034 AD00     		lsls	r5, r5, #2
 658              	.LVL20:
 659              		.loc 1 205 0
 660 0036 A400     		lsls	r4, r4, #2
 661              	.LVL21:
 662              		.loc 1 206 0
 663 0038 0133     		adds	r3, r3, #1
 664              	.LVL22:
 665              	.L11:
 666              		.loc 1 170 0
 667 003a CA07     		lsls	r2, r1, #31
 668 003c F6D5     		bpl	.L5
 669              	.LBB37:
 670              		.loc 1 177 0
 671 003e 4268     		ldr	r2, [r0, #4]
 672              		.loc 1 174 0
 673 0040 4FF00108 		mov	r8, #1
 674 0044 08FA03FC 		lsl	ip, r8, r3
 675              		.loc 1 177 0
 676 0048 22EA0C02 		bic	r2, r2, ip
 677 004c 3A43     		orrs	r2, r2, r7
 678 004e 4260     		str	r2, [r0, #4]
 679 0050 03FA08F2 		lsl	r2, r3, r8
 680              		.loc 1 175 0
 681 0054 4FF00308 		mov	r8, #3
 682              		.loc 1 178 0
 683 0058 D0F808C0 		ldr	ip, [r0, #8]
 684              		.loc 1 175 0
 685 005c 08FA02F2 		lsl	r2, r8, r2
 686              		.loc 1 178 0
 687 0060 D243     		mvns	r2, r2
ARM GAS  /tmp/cc42I6kA.s 			page 34


 688 0062 02EA0C0C 		and	ip, r2, ip
 689 0066 4CEA060C 		orr	ip, ip, r6
 690 006a C0F808C0 		str	ip, [r0, #8]
 691              		.loc 1 179 0
 692 006e D0F80C80 		ldr	r8, [r0, #12]
 693              		.loc 1 173 0
 694 0072 03F0070C 		and	ip, r3, #7
 695              		.loc 1 179 0
 696 0076 02EA0808 		and	r8, r2, r8
 697 007a 48EA0508 		orr	r8, r8, r5
 698              		.loc 1 173 0
 699 007e 4FEA8C0C 		lsl	ip, ip, #2
 700              		.loc 1 180 0
 701 0082 022C     		cmp	r4, #2
 702              		.loc 1 179 0
 703 0084 C0F80C80 		str	r8, [r0, #12]
 704              		.loc 1 173 0
 705 0088 0BFA0CF8 		lsl	r8, fp, ip
 706              	.LVL23:
 707              		.loc 1 176 0
 708 008c 0AFA0CFC 		lsl	ip, r10, ip
 709              	.LVL24:
 710              		.loc 1 180 0
 711 0090 12D0     		beq	.L16
 712              		.loc 1 192 0
 713 0092 D0F80090 		ldr	r9, [r0]
 714 0096 02EA0902 		and	r2, r2, r9
 715              	.LVL25:
 716 009a 2243     		orrs	r2, r2, r4
 717              		.loc 1 193 0
 718 009c 072B     		cmp	r3, #7
 719              		.loc 1 192 0
 720 009e 0260     		str	r2, [r0]
 721              		.loc 1 193 0
 722 00a0 BED9     		bls	.L17
 723              		.loc 1 196 0
 724 00a2 426A     		ldr	r2, [r0, #36]
 725 00a4 22EA0C0C 		bic	ip, r2, ip
 726              	.LVL26:
 727 00a8 4CEA0802 		orr	r2, ip, r8
 728              	.LBE37:
 729              		.loc 1 200 0
 730 00ac 4908     		lsrs	r1, r1, #1
 731              	.LVL27:
 732              	.LBB38:
 733              		.loc 1 196 0
 734 00ae 4262     		str	r2, [r0, #36]
 735              	.LBE38:
 736              		.loc 1 200 0
 737 00b0 BED1     		bne	.L18
 738              	.LVL28:
 739              	.L4:
 740              		.loc 1 208 0
 741 00b2 BDE8F00F 		pop	{r4, r5, r6, r7, r8, r9, r10, fp}
 742              	.LVL29:
 743 00b6 7047     		bx	lr
 744              	.LVL30:
ARM GAS  /tmp/cc42I6kA.s 			page 35


 745              	.L16:
 746              	.LBB39:
 747              		.loc 1 183 0
 748 00b8 072B     		cmp	r3, #7
 749 00ba 0FD8     		bhi	.L7
 750              		.loc 1 184 0
 751 00bc D0F82090 		ldr	r9, [r0, #32]
 752 00c0 29EA0C0C 		bic	ip, r9, ip
 753              	.LVL31:
 754 00c4 4CEA0808 		orr	r8, ip, r8
 755              	.LVL32:
 756 00c8 C0F82080 		str	r8, [r0, #32]
 757              	.L8:
 758              		.loc 1 187 0 discriminator 1
 759 00cc D0F800C0 		ldr	ip, [r0]
 760 00d0 02EA0C02 		and	r2, r2, ip
 761 00d4 42F00202 		orr	r2, r2, #2
 762 00d8 0260     		str	r2, [r0]
 763 00da A7E7     		b	.L5
 764              	.LVL33:
 765              	.L7:
 766              		.loc 1 186 0
 767 00dc D0F82490 		ldr	r9, [r0, #36]
 768 00e0 29EA0C0C 		bic	ip, r9, ip
 769              	.LVL34:
 770 00e4 4CEA0808 		orr	r8, ip, r8
 771              	.LVL35:
 772 00e8 C0F82480 		str	r8, [r0, #36]
 773 00ec EEE7     		b	.L8
 774              	.LBE39:
 775              		.cfi_endproc
 776              	.LFE272:
 777              		.size	_pal_lld_setgroupmode, .-_pal_lld_setgroupmode
 778 00ee 00BF     		.text
 779              	.Letext0:
 780              		.file 2 "/nfs/nfs5/home/research/hardware/arm2/gcc-arm-embedded/gcc-arm-none-eabi-4_8-2014q2/arm-n
 781              		.file 3 "/nfs/nfs5/home/research/hardware/arm2/gcc-arm-embedded/gcc-arm-none-eabi-4_8-2014q2/arm-n
 782              		.file 4 "../ChibiOS/os/common/ports/ARMCMx/compilers/GCC/chtypes.h"
 783              		.file 5 "../ChibiOS/os/rt/include/chsystypes.h"
 784              		.file 6 "../ChibiOS/os/rt/include/chschd.h"
 785              		.file 7 "../ChibiOS/os/common/ext/CMSIS/ST/STM32F3xx/stm32f303xc.h"
 786              		.file 8 "../ChibiOS/os/common/ports/ARMCMx/chcore.h"
 787              		.file 9 "../ChibiOS/os/common/ports/ARMCMx/chcore_v7m.h"
 788              		.file 10 "../ChibiOS/os/rt/include/chtm.h"
 789              		.file 11 "../ChibiOS/os/rt/include/chsem.h"
 790              		.file 12 "../ChibiOS/os/rt/include/chmtx.h"
 791              		.file 13 "../ChibiOS/os/hal/ports/STM32/LLD/GPIOv2/hal_pal_lld.h"
 792              		.file 14 "../ChibiOS/os/common/ext/CMSIS/include/core_cm4.h"