ARM GAS  /tmp/ccCosrax.s 			page 1


   1              		.syntax unified
   2              		.cpu cortex-m4
   3              		.fpu softvfp
   4              		.eabi_attribute 20, 1
   5              		.eabi_attribute 21, 1
   6              		.eabi_attribute 23, 3
   7              		.eabi_attribute 24, 1
   8              		.eabi_attribute 25, 1
   9              		.eabi_attribute 26, 1
  10              		.eabi_attribute 30, 2
  11              		.eabi_attribute 34, 1
  12              		.eabi_attribute 18, 4
  13              		.thumb
  14              		.file	"hal_st_lld.c"
  15              		.text
  16              	.Ltext0:
  17              		.section	.gnu.lto_.jmpfuncs.ef6ea21788b4aaef,"",%progbits
  18 0000 789C6362 		.ascii	"x\234cb`b\300\006\244\2414X\226\221\201\211)\2021\223"
  18      6062C006 
  18      A4A13458 
  18      96918189 
  18      29823193 
  19 0014 91410628 		.ascii	"\221A\006(\000fp\000E\001\031\363\001\323"
  19      00667000 
  19      450119F3 
  19      01D3
  20              		.text
  21              		.section	.gnu.lto_.inline.ef6ea21788b4aaef,"",%progbits
  22 0000 789C6362 		.ascii	"x\234cb`b\300\006\254\2404P\226G\224\221\201\211\357"
  22      6062C006 
  22      ACA03450 
  22      96479491 
  22      8189EF
  23 0013 5E0003DB 		.ascii	"^\000\003\333\002y\260bF.8\301 \"\003\224\224yp\213"
  23      0279B062 
  23      462E38C1 
  23      20220394 
  23      9479708B 
  24 0027 112ECBCC 		.ascii	"\021.\313\314\003\326\305\000\000\260\004\005a"
  24      03D6C500 
  24      00B00405 
  24      61
  25              		.text
  26              		.section	.gnu.lto_.pureconst.ef6ea21788b4aaef,"",%progbits
  27 0000 789C6362 		.ascii	"x\234cb`b`e\200\000&\006+F)\000\001f\000a"
  27      60626065 
  27      80002606 
  27      2B462900 
  27      01660061 
  28              		.text
  29              		.section	.gnu.lto_VectorB0.ef6ea21788b4aaef,"",%progbits
  30 0000 789C8D93 		.ascii	"x\234\215\223]H\024Q\024\200\317\2713\353\256\346\202"
  30      5D481451 
  30      1480CFB9 
  30      33EBAEE6 
  30      82
  31 0011 BEF6B06D 		.ascii	"\276\366\260mB\024\224;\245D\257\205\275\010.\201\273"
ARM GAS  /tmp/ccCosrax.s 			page 2


  31      4214943B 
  31      A544AF85 
  31      BD082E81 
  31      BB
  32 0022 423D2DE3 		.ascii	"B=-\343\270\270\003\273\256\354\254\242\364\340]w\037"
  32      B8B803BB 
  32      AEECACA2 
  32      F4E05D77 
  32      1F
  33 0033 8284C420 		.ascii	"\202\204\304 \"\323\360E\251 \351\207\010\205\322\236"
  33      22D3F045 
  33      A920E987 
  33      0885D29E 
  34 0043 8C509122 		.ascii	"\214P\221\"\242\207X\011\204(*\351\241\360\247\355\334"
  34      A2875809 
  34      84282AE9 
  34      A1F0A7ED 
  34      DC
  35 0054 19779CDD 		.ascii	"\031w\234\335\244:p\356=\367\336s\316=\347\2733\014"
  35      A43A70EE 
  35      3DF7DE73 
  35      CE3DE7BB 
  35      330C
  36 0066 18944B03 		.ascii	"\030\224K\003\351\270\004\200H\352\002d\303K\000\031"
  36      E9B80480 
  36      48EA0264 
  36      C34B0019 
  37 0076 0F63D28C 		.ascii	"\017c\322\214\017x\225\374F\001^-\241lm\313\210\302"
  37      0F7895FC 
  37      46015E2D 
  37      A16C6DCB 
  37      88C2
  38 0088 00840126 		.ascii	"\000\204\001&\3118p\001\315$\323l._(\334{z\345\326\026"
  38      C9387001 
  38      CD24D36C 
  38      2E5F28DC 
  38      7B7AE5D6 
  39 009d 3E635E09 		.ascii	">c^\011t\004Y\014$.\310q>\354\007\320\314e\230F\221"
  39      7404590C 
  39      242EC871 
  39      3EEC07D0 
  39      CC659846 
  40 00b2 A20D9998 		.ascii	"\242\015\231\230\245Ex\376\356\355\346*Sq\202\256\357"
  40      A54578FE 
  40      EEEDE62A 
  40      537182AE 
  40      EF
  41 00c3 44E928DC 		.ascii	"D\351(\334\3419\324\021G\341\006M\354<\015\022'\221"
  41      E139D411 
  41      47E1064D 
  41      EC3C0D12 
  41      2791
  42 00d5 C134CD0B 		.ascii	"\3014\315\013\333\261X\377\"dg\263kX\014\227)\203p3"
  42      DBB158FF 
  42      226467B3 
  42      6B580C97 
  42      29837033 
ARM GAS  /tmp/ccCosrax.s 			page 3


  43 00e9 3B5D80DC 		.ascii	";]\200\334\347\214\327>2\367\235\322F\331f|\242\204"
  43      E78CD73E 
  43      32F79DD2 
  43      46D9667C 
  43      A284
  44 00fb 273F37D7 		.ascii	"'?7\327wJ0\357\317\360\320\177V vL\363\005\014z\000"
  44      774A30EF 
  44      CFF0D07F 
  44      5620764C 
  44      F3050C7A 
  45 0110 EA6082F3 		.ascii	"\352`\202\363\221\374\372\355\305y\034\311\362\005\236"
  45      91FCFAED 
  45      C5791CC9 
  45      F2059E
  46 011f 9B2B14F0 		.ascii	"\233+\024\360\200\2162\203\030\012\006\"\300\3457\247"
  46      808E3283 
  46      180A0622 
  46      C0E537A7 
  47 012f 0AB9F42D 		.ascii	"\012\271\364-\304\236L\244`\011\006\327\337g'\367\333"
  47      C49E4CA4 
  47      600906D7 
  47      DF6727F7 
  47      DB
  48 0140 EC2C63EE 		.ascii	"\354,c\356\303\253Q\351\210\212\223Xg\203\345_\227\347"
  48      C3AB51E9 
  48      888A9358 
  48      6783E55F 
  48      97E7
  49 0152 25DBE1EE 		.ascii	"%\333\341\356\265\005o\275\275zx\363r\355}\227\275|"
  49      B5056FBD 
  49      BD7A78F3 
  49      72ED7D97 
  49      BD7C
  50 0164 B9F59D16 		.ascii	"\271\365\235\026V\227\032\212b\030\251D*\223\272\300"
  50      56971A8A 
  50      6218A944 
  50      2A93BAC0 
  51 0174 7C578435 		.ascii	"|W\2045\332\"z\222\365\261\370\340\007\216\361\353\247"
  51      DA227A92 
  51      F5B1F8E0 
  51      078EF1EB 
  51      A7
  52 0185 75749794 		.ascii	"ut\227\224\270{\276\261s\356\261\232X\206\354\267\241"
  52      B87BBEB1 
  52      73EEB19A 
  52      5886ECB7 
  52      A1
  53 0196 A9B5A1FA 		.ascii	"\251\265\241\372\362\342/og\335\273\327WX\336\027a\203"
  53      F2E22F6F 
  53      67DDBBD7 
  53      5758DE17 
  53      6183
  54 01a8 5FE2353A 		.ascii	"_\3425:Vj\350V\361\221U\206\216U\345@?.\225\003Uq\312"
  54      566AE856 
  54      F1915586 
  54      8E55E540 
  54      3F2E9503 
ARM GAS  /tmp/ccCosrax.s 			page 4


  55 01bf 6CE09F44 		.ascii	"l\340\237D\341oD?\215\011\242\217\235Dg_\257:\211~\361"
  55      E16F443F 
  55      8D09A28F 
  55      9D44675F 
  55      AF3A897E 
  56 01d4 2A0EA2E3 		.ascii	"*\016\242\343\265+\016\242\333W\035-yH+I\253H\367\355"
  56      B52B0EA2 
  56      DB571D2D 
  56      79482B49 
  56      AB48F7ED 
  57 01e8 4154C569 		.ascii	"AT\305i2\354\222\212\004U|\200>\347G)\233?\006q\314"
  57      32EC928A 
  57      04557C80 
  57      3EE74729 
  57      9B3F0671 
  58 01fd FFEAB472 		.ascii	"\377\352\264r\227r\252\006\233\321\012d\362\205\303"
  58      9772AA06 
  58      9BD10A64 
  58      F285C3
  59 020c 45274BC2 		.ascii	"E'K\302\364\264\224@\344>\031\010(M1\275]?\027R\222"
  59      F4B49440 
  59      E43E1908 
  59      284D31BD 
  59      5D3F1752 
  60 0221 861253E3 		.ascii	"\206\022S\343Jw2\2256\224P8\330\330\240\264\264\234"
  60      4A773295 
  60      36945038 
  60      D8D8A0B4 
  60      B49C
  61 0233 55C2CDC1 		.ascii	"U\302\315\301\336\023\342$b\244#\361xG@\003\2454JK&"
  61      DE13E224 
  61      62A423F1 
  61      78474003 
  61      A5344A4B 
  62 0248 12C9AE9D 		.ascii	"\022\311\256\235\3003\255\301\246`\237\242\305\264d"
  62      C033ADC1 
  62      A6609FA2 
  62      C5B464
  63 0257 2A1AE93D 		.ascii	"*\032\351=\225\010\304\300\325\253\306{\242\215{FE\373"
  63      9508C4C0 
  63      D5ABC67B 
  63      A28D7B46 
  63      45FB
  64 0269 D24A5330 		.ascii	"\322JS0\324\034R\364.-\336\323\021U\264\204\241\033"
  64      D41C52F4 
  64      2E2DDED3 
  64      1155B484 
  64      A11B
  65 027b 914E4DA3 		.ascii	"\221NM\243\310\203\2451\251\364\256W\314\3507\376\364"
  65      C883A531 
  65      A9F4AE57 
  65      CCE837FE 
  65      F4
  66 028c 101D240D 		.ascii	"\020\035$\015\032\310U\314\344Q\023\014\265\372\333"
  66      1AC855CC 
  66      E451130C 
  66      B5FADB
ARM GAS  /tmp/ccCosrax.s 			page 5


  67 029b 5523DA9D 		.ascii	"U#\332\235\322\217\371\017\035\007\226\002w\"\232H\246"
  67      D28FF90F 
  67      1D079602 
  67      77229A48 
  67      A6
  68 02ac FAE137E5 		.ascii	"\372\3417\345Q8\267"
  68      5138B7
  69              		.text
  70              		.section	.gnu.lto_st_lld_init.ef6ea21788b4aaef,"",%progbits
  71 0000 789C95D3 		.ascii	"x\234\225\323\275KBQ\024\000\360s\356{\317\257\242\217"
  71      BD4B4251 
  71      1400F073 
  71      EE7BCFAF 
  71      A28F
  72 0012 3169688D 		.ascii	"1ih\215\310GE\324\326P\213\2404h\220\223\250\201>\020"
  72      C84745D4 
  72      D6508BA0 
  72      34689093 
  72      A8813E10 
  73 0026 8C949686 		.ascii	"\214\224\226\206\256d\340\320 MRA\265j\350\026\257M"
  73      AE64E0D0 
  73      204D5241 
  73      B56AE816 
  73      AF4D
  74 0038 DC1A34DA 		.ascii	"\334\0324\332\244\311\261\376\003i\261{\337\227\251"
  74      A4C9B1FE 
  74      0369B17B 
  74      DF97A9
  75 0047 21BD03EF 		.ascii	"!\275\003\357\334\367\274\367\374<\342y\004\010\214"
  75      DCF7BCF7 
  75      FC3CE279 
  75      04088C
  76 0056 C602BBBC 		.ascii	"\306\002\273\274\"\300\026[Q\000$\2456@\336E\020\371"
  76      22C0165B 
  76      510024A5 
  76      3640DE45 
  76      10F9
  77 0068 0D209C13 		.ascii	"\015 \234\023<\217\240v\266N\032\335~\277\366|}w\205"
  77      3C8FA076 
  77      B64E1ADD 
  77      7EBFF67C 
  77      7D7785
  78 007b 6D324F40 		.ascii	"m2O@A\020x\222xr\360\304B\202\002\245\245%\200\204\366"
  78      41107892 
  78      7872F0C4 
  78      428202A5 
  78      A5258084 
  79 0090 18669953 		.ascii	"\030f\231S\007H\370*\264\240\371\241V\2741|D\011\222"
  79      0748F82A 
  79      B4A0F9A1 
  79      56BC317C 
  79      440992
  80 00a3 4856A042 		.ascii	"HV\240B\013\3719\005\361\026nPAr\310\222@\037\212T\004"
  80      0BF93905 
  80      F1166E50 
  80      4172C892 
  80      401F8A54 
ARM GAS  /tmp/ccCosrax.s 			page 6


  81 00b8 ED56FBEA 		.ascii	"\355V\373\3528\232\015\267\340\342E0\253\205\244~\036"
  81      389A0DB7 
  81      E0E24530 
  81      AB85A47E 
  81      1E
  82 00c9 50DB69FA 		.ascii	"P\333i\372\365\015{f\222?\363\266\212Ub\302\322(!\362"
  82      F50D7B66 
  82      923FF3B6 
  82      8A5562C2 
  82      D22821F2 
  83 00dd 3A89364A 		.ascii	":\2116JtF#$\203\300\277\332r0\340\037mM6\031\243\025"
  83      74462324 
  83      83C0BFDA 
  83      7230E01F 
  83      6D4D3619 
  84 00f3 ABBD6A53 		.ascii	"\253\275jS\370\015\320\035Kp\3602'e\241\3770\247!\350"
  84      F80DD01D 
  84      4B70F032 
  84      2765A1FF 
  84      30A721E8 
  85 0107 FF33FF04 		.ascii	"\3773\377\004\357\267\365\036\324r\3156#\014\230>\213"
  85      EFB7F51E 
  85      D472CD36 
  85      230C983E 
  85      8B
  86 0118 594352ED 		.ascii	"YCR\355K\342@\002C\351X\312*<q%\3026\007\240k2(Y\240"
  86      4BE24002 
  86      43E958CA 
  86      2A3C7125 
  86      C23607A0 
  87 0131 DB9AE521 		.ascii	"\333\232\345!\276g\277I\307\270R\256\333V\234\343\212"
  87      BE67BF49 
  87      C7B852AE 
  87      DB569CE3 
  87      8A
  88 0142 6A5F7159 		.ascii	"j_qY\2129Dj\307\276\342\036V\336\340\262\373\372\345"
  88      8A39446A 
  88      C7BEE21E 
  88      56DEE0B2 
  88      FBFAE5
  89 0155 D1118033 		.ascii	"\321\021\2003\370\246E\312\346\321\2230f\216\237\234"
  89      F8A645CA 
  89      E6D19330 
  89      668E9F9C 
  90 0165 5AD41717 		.ascii	"Z\324\027\027{\237\247\001\336!\337\375\\6K\364\010"
  90      7B9FA701 
  90      DE21DFFD 
  90      5C364BF4 
  90      08
  91 0176 B3E3EC5D 		.ascii	"\263\343\354]\346S\266\351\363\311\273)%\256\354\207"
  91      E653B6E9 
  91      F3C9BB29 
  91      25AEEC87 
  92 0186 E44C564E 		.ascii	"\344LVN\305\322\362q\346$\227\225C\341\340\306\272\034"
  92      C5D2F271 
  92      E6249795 
  92      43E1E0C6 
ARM GAS  /tmp/ccCosrax.s 			page 7


  92      BA1C
  93 0198 08ECC961 		.ascii	"\010\354\311a\177\360t\215\357D\263\271h:}\344K\300"
  93      7FF0748D 
  93      EF44B3B9 
  93      683A7DE4 
  93      4BC0
  94 01aa 0FD352F9 		.ascii	"\017\323R\371\322"
  94      D2
  95              		.text
  96              		.section	.gnu.lto_.symbol_nodes.ef6ea21788b4aaef,"",%progbits
  97 0000 789C6362 		.ascii	"x\234cb`bHd\200\002\246>\246z\006\206\011\347\030\030"
  97      60624864 
  97      8002A63E 
  97      A67A0686 
  97      09E71818 
  98 0014 EAEBE775 		.ascii	"\352\353\347u02\3653\3253\"\270\214\023\230\352\231"
  98      3032F533 
  98      D53322B8 
  98      8C1398EA 
  98      99
  99 0025 20DC8606 		.ascii	" \334\206\006F\306\211L\365\314\010\336$\246z\0268\217"
  99      46C6894C 
  99      F5CC08DE 
  99      24A67A16 
  99      388F
 100 0037 998199E1 		.ascii	"\231\201\231\341\360V\023f\240\331\213\333\336\3103"
 100      F0561366 
 100      A0D98BDB 
 100      DEC833
 101 0046 33B2301C 		.ascii	"3\2620\034n\177#\317\000\000g@\033\264"
 101      6E7F23CF 
 101      00006740 
 101      1BB4
 102              		.text
 103              		.section	.gnu.lto_.refs.ef6ea21788b4aaef,"",%progbits
 104 0000 789C6362 		.ascii	"x\234cb`b`d\200\002\000\000F\000\006"
 104      60626064 
 104      80020000 
 104      460006
 105              		.text
 106              		.section	.gnu.lto_.decls.ef6ea21788b4aaef,"",%progbits
 107 0000 789CBD58 		.ascii	"x\234\275X}l\024\307\025\237\331\363gl\034\307\371\220"
 107      7D6C14C7 
 107      159FD9F3 
 107      676C1CC7 
 107      F990
 108 0012 E93FD852 		.ascii	"\351?\330R\023U\211\314\3413Qh\377H\261\3176\266\204"
 108      135589CC 
 108      E1335168 
 108      FF48B1CF 
 108      36B684
 109 0025 C1DA3315 		.ascii	"\301\3323\025J\377\330.\347u|\352}\220\273\263c\376"
 109      4AFFD82E 
 109      E7757CEA 
 109      7D90BBB3 
 109      63FE
 110 0037 625DD3F0 		.ascii	"b]\323\360\221V1&\300\005\214c7\261\012\0114|\270\215"
ARM GAS  /tmp/ccCosrax.s 			page 8


 110      91563126 
 110      C0058C63 
 110      37B10A09 
 110      347CB88D 
 111 004b 133E7AB5 		.ascii	"\023>z\265\210e\321\264PJ]\202\205l\250\032\324\022"
 111      8865D1B4 
 111      504A5D82 
 111      856CA81A 
 111      D412
 112 005d 28360448 		.ascii	"(6\004H\002v\337\314\356\236w\326\273\347\275T\352H"
 112      0276DFCC 
 112      EE9E77D6 
 112      BBE7BD54 
 112      EA48
 113 006f EFEDDCEC 		.ascii	"\357\355\334\354\314\357\375\336\233\267\343y\346\020"
 113      CCEFFDDE 
 113      9BB7E379 
 113      E610
 114 007d 872A3142 		.ascii	"\207*1B3\320n/Dh[\032B\016\204\320\213 0\214\372\220"
 114      33D06E2F 
 114      44685B1A 
 114      420E84D0 
 114      8B20308C 
 115 0093 D2D241F6 		.ascii	"\322\322A\366\203\034\004\371\000\344\010\31014\267"
 115      831C04F9 
 115      00E408C8 
 115      3134B7
 116 00a2 91393920 		.ascii	"\22199 \231 \203 \037\201|\241\342\344\201\344\202\334"
 116      99208320 
 116      1F817CA1 
 116      E2E481E4 
 116      82DC
 117 00b4 009904B9 		.ascii	"\000\231\004\271\015r@\2653\014\262@]\177\007\344\036"
 117      0D7240B5 
 117      330CB240 
 117      5D7F07E4 
 117      1E
 118 00c5 C8D7200F 		.ascii	"\310\327 \017\2212!\033+6s\341\371(H\001\310\223X\341"
 118      9132211B 
 118      2B3673E1 
 118      F9284801 
 118      C89358E1 
 119 00d9 626C0755 		.ascii	"bl\007U,\215C!\314{\001d\031\010\361U\343\364\031\010"
 119      2C8D4321 
 119      CC7B0164 
 119      1908F155 
 119      E3F41908 
 120 00ed B88BAAB0 		.ascii	"\270\213\252\260\302o\000\344\021\220\347\340\367r\220"
 120      C26F00E4 
 120      1190E7E0 
 120      F77290
 121 00fc F3D0BF00 		.ascii	"\363\320\277\000r\006\344\"\310i\2208\310\010\310)\020"
 121      7206E422 
 121      C8699038 
 121      C808C829 
 121      10
 122 010d 4EB56516 		.ascii	"N\265e\026\207l\264E\226\177&\367\276&\327\214\200\337"
ARM GAS  /tmp/ccCosrax.s 			page 9


 122      876CB445 
 122      967F26F7 
 122      BE26D78C 
 122      80DF
 123 011f 6BB188F3 		.ascii	"k\261\210\363\262Q\021\355\344fS\263O\243we\271s\342"
 123      B25111ED 
 123      E46653B3 
 123      4FA37765 
 123      B973E2
 124 0132 93AB139C 		.ascii	"\223\253\023\234,g\211\270\017g\003d+F\317\242\0032"
 124      2C6789B8 
 124      0F670364 
 124      2B46CFA2 
 124      0332
 125 0144 BC91E5AB 		.ascii	"\274\221\345\253?\304\377\023\364\276m'\276O\241\373"
 125      3FC4FF13 
 125      F4BE6D27 
 125      BE4FA1FB 
 126 0154 29F4EB1C 		.ascii	")\364\353\034F\"~\027?\253\002\21183[\017L\177k\023"
 126      46227E17 
 126      3FAB0289 
 126      38335B0F 
 126      4C7F6B13 
 127 0168 081A7DAD 		.ascii	"\010\032}\255vH\202<\212R\235\276\010\365\310\275\023"
 127      7648823C 
 127      8A529DBE 
 127      08F5C8BD 
 127      13
 128 0179 1397CFFF 		.ascii	"\023\227\317\377\347\361\267\344\370&yff#z\012\355\004"
 128      E7F1B7E4 
 128      F8267966 
 128      66237A0A 
 128      ED04
 129 018b F7087F19 		.ascii	"\367\010\177\031GE\374\342\223\246.\020\374\003\370"
 129      4745FCE2 
 129      93A62E10 
 129      FC03F8
 130 019a 29B5B7C6 		.ascii	")\265\267\306\241\330\344\320\247\006'\020z\006\365"
 130      A1D8E4D0 
 130      A7062710 
 130      7A06F5
 131 01a9 133C79BF 		.ascii	"\023<y\277\354\240hd\376~\274\210\245\372\036\346\364"
 131      ECA06864 
 131      FE7EBC88 
 131      A5FA1EE6 
 131      F4
 132 01ba 030AAFF8 		.ascii	"\003\012\257\370\207]\177\304r\227\374`f\306\241\232"
 132      875D7FC4 
 132      7297FC60 
 132      66C6A19A 
 133 01ca E3D0DF6C 		.ascii	"\343\320\337l\0318h4ph\256\201\211\316\211\035\273o"
 133      19386834 
 133      7068AE81 
 133      89CE891D 
 133      BB6F
 134 01dc 6CC6DB3B 		.ascii	"l\306\333;zG\344[$\036\232\215\355\016\243\015\005\344"
 134      7A47E45B 
ARM GAS  /tmp/ccCosrax.s 			page 10


 134      241E9A8D 
 134      ED0EA30D 
 134      05E4
 135 01ee B029486C 		.ascii	"\260)Hl\357\335\264\267\344!%z\032\304\260\005\304Q"
 135      EFDDB4B7 
 135      E421257A 
 135      1AC4B005 
 135      C451
 136 0200 5388A99E 		.ascii	"S\210\251\236\2638\001a\177\003\006\324\015p\320\\G"
 136      B3380161 
 136      7F0306D4 
 136      0D70D05C 
 136      47
 137 0211 4A8E323F 		.ascii	"J\2162?\230\335\241\033\2649\315\234\330\207,1\232\305"
 137      98DDA11B 
 137      B439CD9C 
 137      D8872C31 
 137      9AC5
 138 0223 1D49B358 		.ascii	"\035I\263X\304\277\302O\333J\263\002\264\235xT\244C"
 138      C4BFC24F 
 138      DB4AB302 
 138      B49D7854 
 138      A443
 139 0235 923334A8 		.ascii	"\22234\250\237\240\304\0071y\365V\260\003\274\026\361"
 139      9FA0C407 
 139      3179F556 
 139      B003BC16 
 139      F1
 140 0246 47B800B8 		.ascii	"G\270\000\270\376\311\300u^\034B\352\004,U\026QT9\276"
 140      FEC9C075 
 140      5E1C42EA 
 140      042C5516 
 140      515439BE 
 141 025a 632C574E 		.ascii	"c,WNS\306\221\211\353j+F\275\362\246\216\370\316\261"
 141      53C69189 
 141      EB6A2B46 
 141      BDF2A68E 
 141      F8CEB1
 142 026d EE8572EF 		.ascii	"\356\205r\357\020@\016\322\217\3623J\201\2545\013\201"
 142      10400ED2 
 142      8FF2334A 
 142      81AC350B 
 142      81
 143 027e DA559A3A 		.ascii	"\332U\232:\201\305\3335\226\333)j`\227S\006+b\300bz"
 143      81C5DB35 
 143      96DB296A 
 143      60975306 
 143      2B62C062 
 144 0293 B02B76C0 		.ascii	"\260+v\300\262\254\231\355\321\203}\2362\030\313\254"
 144      B2AC99ED 
 144      D1837D9E 
 144      3218CBAC 
 145 02a3 5B0F76DD 		.ascii	"[\017v\335\016X\2765\263\036=\330\315\224\301Xf\207"
 145      0E58BE35 
 145      B31E3DD8 
 145      CD94C158 
 145      6687
ARM GAS  /tmp/ccCosrax.s 			page 11


 146 02b5 F5605376 		.ascii	"\365`Sv\300\012\255\231\035\325\203\335O\031\214e6\240"
 146      C00AAD99 
 146      1DD583DD 
 146      4F198C65 
 146      36A0
 147 02c7 079BB603 		.ascii	"\007\233\266\003Vd\315\354wz\260\216\364T\301Xf\203"
 147      5664CDEC 
 147      777AB08E 
 147      F454C158 
 147      6683
 148 02d9 7AB0CD76 		.ascii	"z\260\315v\300\276g\315\354c=\330\353)\203\261\314N"
 148      C0BE67CD 
 148      EC633DD8 
 148      EB2983B1 
 148      CC4E
 149 02eb E8C1DEB0 		.ascii	"\350\301\336\260\003\266\304\212Y{\374\324\217;\305"
 149      03B6C48A 
 149      597BFCD4 
 149      8F3BC5
 150 02fa C750A77A 		.ascii	"\307P\247z\244(\250\332\261\202\331\324\322O\353\263"
 150      A428A8DA 
 150      B182D9D4 
 150      D24FEBB3 
 151 030a 9E26E24B 		.ascii	"\236&\342K\3701\332\243\347\247\254\236\237t\206\325"
 151      F831DAA3 
 151      E7A7AC9E 
 151      9F7486D5 
 152 031a 213EA61C 		.ascii	"!>\246\034\323\263\237\277\332\231=\264\365\263\300"
 152      D3B39FBF 
 152      DA993DB4 
 152      F5B3C0
 153 0329 ED1D46B7 		.ascii	"\355\035F\267Y\026f~\263A<\247\017\342n;A\\n\015v^\017"
 153      5916667E 
 153      B3413CA7 
 153      0FE26E3B 
 153      415C6E0D 
 154 0340 D66D07AC 		.ascii	"\326m\007\254\306:W.\350\301zS\006c\231\215\352\301"
 154      C63A572E 
 154      E8C17A53 
 154      0663998D 
 154      EAC1
 155 0352 FAED80D5 		.ascii	"\372\355\200\325[3\273\250\007\333\2372\230\236Y{\374"
 155      5B33BBA8 
 155      07DB9F32 
 155      989E597B 
 155      FC
 156 0363 D26CE2F5 		.ascii	"\322l\342\365.7d\336r\366\264e\246\365YN\023\361\277"
 156      2E3764DE 
 156      72F6B465 
 156      A6F5594E 
 156      13F1BF
 157 0376 524EBC7F 		.ascii	"RN\274\177[$\236\376R;;\013\334\376\215\321m\206\204"
 157      5B249EFE 
 157      523B3B0B 
 157      DCFE8DD1 
 157      6D8684
 158 0389 DA5D6B12 		.ascii	"\332]k\022C\263\246\377C-\342\223\364&q\012\027\203"
ARM GAS  /tmp/ccCosrax.s 			page 12


 158      43B3A6FF 
 158      432DE293 
 158      F426710A 
 158      1783
 159 039b 8E533D44 		.ascii	"\216S=D\365i\252\207\251\036\241\372\014\325\237R\375"
 159      F569AA87 
 159      A91EA1FA 
 159      0CD59F52 
 159      FD
 160 03ac 67AACF51 		.ascii	"g\252\317Q}\236\352\013T\217R}\221\352\313T\217S}\205"
 160      7D9EEA0B 
 160      548F527D 
 160      91EACB54 
 160      8F537D85 
 161 03c0 EA7F50FD 		.ascii	"\352\177P\375O\252\257\201N\264\034\264m\366\346\256"
 161      4FAAAF81 
 161      4EB41CB4 
 161      6DF6E6AE 
 162 03d0 DC41AC62 		.ascii	"\334A\254b\367\005\316\321V%v(\226\247^\375'\372\345"
 162      F705CED1 
 162      56257628 
 162      96A75EFD 
 162      27FAE5
 163 03e3 C2C2440C 		.ascii	"\302\302D\014\262\364qU\256$\260\200\023\361M\232K\307"
 163      B2F47155 
 163      AE24B080 
 163      13F14D9A 
 163      4BC7
 164 03f5 D2CD8A08 		.ascii	"\322\315\212\010j\344\246n\203\224\276\326\233\301\011"
 164      6AE4A66E 
 164      8394BED6 
 164      9BC109
 165 0404 F87C0D9E 		.ascii	"\370|\015\236SW\335P\023A\267u\332\351\025\313S\226"
 165      5357DD50 
 165      1341B775 
 165      DAE915CB 
 165      5396
 166 0416 AB4B9769 		.ascii	"\253K\227iK3\325\005\223)\347\320\224E\016e\230\207"
 166      4B33D505 
 166      9329E7D0 
 166      94450E65 
 166      9887
 167 0428 94DC8DAD 		.ascii	"\224\334\215\255\240nCHu\2673r3\216\337\232\230\274"
 167      A06E4348 
 167      75B73372 
 167      338EDF9A 
 167      98BC
 168 043a 3EB205FF 		.ascii	">\262\005\377\241\3775\271\263}bf\343\333\361|\355\202"
 168      A1FF35B9 
 168      B37D6266 
 168      E3DBF17C 
 168      ED82
 169 044c 7D29DD4E 		.ascii	"})\335N\035p\307X\007|9\367\376\015Vb{\3073\264\002"
 169      1D70C758 
 169      077C39F7 
 169      FE0D5662 
 169      7BC733B4 
ARM GAS  /tmp/ccCosrax.s 			page 13


 170 0461 A858B370 		.ascii	"\250X\263p\303\226\205{F\013\367M-t\375\375\301\302"
 170      C396857B 
 170      460BF74D 
 170      2D74FDFD 
 170      C1C2
 171 0473 3916A66D 		.ascii	"9\026\246mY\370\332h\341\0333\013\361\013\237\217\250"
 171      59F8DA68 
 171      E11B330B 
 171      F10B9F8F 
 171      A8
 172 0484 C552C716 		.ascii	"\305R\307\026n\266\224\311\260c\342\241\321\304\264"
 172      6EB694C9 
 172      B063E2A1 
 172      D1C4B4
 173 0493 A913F7A6 		.ascii	"\251\023\367\246n\325|uT\226\267\312\3233\033\3337\025"
 173      6ED57C75 
 173      5496B7CA 
 173      D3331BDB 
 173      3715
 174 04a5 DBAF54DA 		.ascii	"\333\257T\3329\223J\305P\231\234e\250\322\231pe\316"
 174      39934AC5 
 174      50999C65 
 174      A8D29970 
 174      65CE
 175 04b7 503F8FEF 		.ascii	"P?\217\357\242wdp\357/\303\271\235X+\306\257\323\025"
 175      A2776470 
 175      EF2FC3B9 
 175      9D582BC6 
 175      AFD315
 176 04ca 32B7C8A2 		.ascii	"2\267\310\242>Q+ \325\343\333\355\365\205\011\217\311"
 176      3E512B20 
 176      D5E3DBED 
 176      F585098F 
 176      C9
 177 04db 22C6E30E 		.ascii	"\"\306\343\016\316\314\343\311\353\367c\246\3517i+\256"
 177      CECCE3C9 
 177      EBF763A6 
 177      E937692B 
 177      AE
 178 04ec 5B8D56B6 		.ascii	"[\215V\266\231Y\211\017^5\333\272\237g\3321\361\013"
 178      9959890F 
 178      5E35DBBA 
 178      9F67DA31 
 178      F10B
 179 04fe A3895F9A 		.ascii	"\243\211_\232:\022\333\373\345\334\014\337c\313\302"
 179      3A12DBFB 
 179      E5DC0CDF 
 179      63CBC2
 180 050d 1B460B9D 		.ascii	"\033F\013\235\246\026\272v\017\177g\216\205C\266,t\031"
 180      A616BA76 
 180      0F7F678E 
 180      8543B62C 
 180      7419
 181 051f 2DEC300D 		.ascii	"-\3540\015\323\3005\2630\015\3312\261\323hb\027k\302"
 181      D3C035B3 
 181      300DD932 
 181      B1D36862 
ARM GAS  /tmp/ccCosrax.s 			page 14


 181      176BC2
 182 0532 A4B4EC75 		.ascii	"\244\264\354uh\331\264\024%J\324\223\323\347\266\342"
 182      68D9B414 
 182      254AD493 
 182      D3E7B6E2 
 183 0542 23B20C89 		.ascii	"#\262\014\211\020\343H\215\2725k\336\032\225\005\"\306"
 183      10E3488D 
 183      BA356BDE 
 183      1A950522 
 183      C6
 184 0553 F772861A 		.ascii	"\367r\206\032\365\3368\255Q\311\370\3745\3527\343o2"
 184      F5DE38AD 
 184      51C9F8FC 
 184      35EA37E3 
 184      6F32
 185 0565 35EA4E4A 		.ascii	"5\352NJ\201\254\375v5\352\203q\335\335&\2262X\021\003"
 185      81ACFD76 
 185      35EA8371 
 185      DDDD2696 
 185      32581103 
 186 0579 36AD07DB 		.ascii	"6\255\007\333g\007,I\215\332I?\214\\\015\256/e8\226"
 186      67072C49 
 186      8DDA493F 
 186      8C5C0DAE 
 186      2F653896 
 187 058d 5B170BF7 		.ascii	"[\027\013\367\236\035\270$u\352\233,\334\261\224\341"
 187      9E1DB824 
 187      75EA9B2C 
 187      DCB194E1 
 188 059d 5876BB58 		.ascii	"Xv\273X\270\217\355\300%\251Uc,\334P\312p,\273=,\334"
 188      B88FEDC0 
 188      25A95563 
 188      2CDC50CA 
 188      702CBB3D 
 189 05b3 193B7045 		.ascii	"\031;pE\326\354\272Y\270\263)\303\261\354zX\270\277"
 189      D6ECBA59 
 189      B8B329C3 
 189      B1EC7A58 
 189      B8BF
 190 05c5 DA814B52 		.ascii	"\332\201KR\263\036f\341\306R\206c\331\035e\341\256\330"
 190      B31E66E1 
 190      C6528663 
 190      D91D65E1 
 190      AED8
 191 05d7 8133AB5B 		.ascii	"\2013\253[\315\232\3760\021q7G\356\321\3738r\267}\233"
 191      CD9AFE30 
 191      11713747 
 191      EED1FB38 
 191      72B77D9B 
 192 05eb EA3EAADF 		.ascii	"\352>\252\337\241\272\237\352_S}\200\352\367\251>D\365"
 192      A1BA9FEA 
 192      5F537D80 
 192      EAF7A93E 
 192      44F5
 193 05fd 07541FA1 		.ascii	"\007T\037\241\372\030\325\277\345\254o\3071\013\372"
 193      FA18D5BF 
 193      E5AC6FC7 
ARM GAS  /tmp/ccCosrax.s 			page 15


 193      310BFA
 194 060c F47F895C 		.ascii	"\364\177\211\\\342vl\366/;\246\\U\316\325\370W\273p"
 194      E2766CF6 
 194      2F3BA65C 
 194      55CED5F8 
 194      57BB70
 195 061f 11C4871E 		.ascii	"\021\304\207\036\251\327\346?R\347\026\336\307\215G"
 195      A9D7E63F 
 195      52E716DE 
 195      C78D47
 196 062e EAE5517A 		.ascii	"\352\345Qz\244\036\267u\244N\216\262G\352]J\341\370"
 196      A41EB775 
 196      A44E8EB2 
 196      47EA5D4A 
 196      E1F8
 197 0640 B73E52A7 		.ascii	"\267>R\247F\023\247\240\210{8.E06}\356\214\352\216\324"
 197      4613A7A0 
 197      887B382E 
 197      4530367D 
 197      EE8CEA8E 
 198 0655 87769825 		.ascii	"\207v\230%9R\357\352\3016e\247\012V\224,\023\217\353"
 198      3952EFEA 
 198      C13665A7 
 198      0A56942C 
 198      138FEB
 199 0668 32F104CD 		.ascii	"2\361\004\315\304\2234\217~Ou\234\352\241$95\230$\247"
 199      C493348F 
 199      7E4F759C 
 199      EAA12439 
 199      359824A7 
 200 067c 4ECFE694 		.ascii	"N\317\346\224a\325@\222\242\342\223\331U(\342\0146Q"
 200      61D54092 
 200      A2E293D9 
 200      5528E20C 
 200      3651
 201 068e 79DED91C 		.ascii	"y\336\331\034\012H\316\260\024\221\304\260\267\331\331"
 201      0A48CEB0 
 201      1491C4B0 
 201      B7D9D9
 202 069d 2C861B5F 		.ascii	",\206\033_\025\303\222S\014\007\\\316\227\275\336\022"
 202      15C39253 
 202      0C075CCE 
 202      97BDDE12 
 203 06ad E8944881 		.ascii	"\350\224H\201uRc\243\324\230\030\010\206\202R\211$\256"
 203      755263A3 
 203      D4981808 
 203      86825289 
 203      24AE
 204 06bf F3952C15 		.ascii	"\363\225,\025\226\225\270\226\224.}\305\345d^8}A\257"
 204      9695B896 
 204      942E7DC5 
 204      E5645E38 
 204      7D41AF
 205 06d2 BFA55172 		.ascii	"\277\245QrF\242\215\276`tq3\312j\201g\231K\210f\254"
 205      46A28DBE 
 205      60747133 
 205      CA6A8167 
ARM GAS  /tmp/ccCosrax.s 			page 16


 205      994B8866 
 206 06e7 58B5A6C8 		.ascii	"X\265\246\310\215:\360\377\217D@\3646\373\202\222Sh"
 206      8D3AF0FF 
 206      8F4440F4 
 206      36FB8292 
 206      5368
 207 06f9 949AC416 		.ascii	"\224\232\304\026\177T\210nX/E\200\324#\202\240\321z"
 207      7F54886E 
 207      582F4580 
 207      D42382A0 
 207      D17A
 208 070b 7EF162A7 		.ascii	"~\361b\247\273\331\267\316\267\332\343\014E\200\204"
 208      BBD9B7CE 
 208      B7DAE30C 
 208      458084
 209 071a DFB93E14 		.ascii	"\337\271>\024\216F\234\236\206\2722\227s\345\312JgC"
 209      8E469C9E 
 209      86BA3297 
 209      73E5CA4A 
 209      6743
 210 072c 6D5D6B29 		.ascii	"m]k)y#D\242\202\337\337\270\330\213\262~$y\243\241p"
 210      792344A2 
 210      82DFDFB8 
 210      D88BB27E 
 210      2479A3A1 
 211 0741 C5921C65 		.ascii	"\305\222\034eH\360\005}Q'\013\345\015\005\002\241\240"
 211      48F0057D 
 211      51270BE5 
 211      0D0502A1 
 211      A0
 212 0752 8A56CED7 		.ascii	"\212V\316\327\271\353\332\234\336fo(,\011\255/\004\200"
 212      B9EBDA9C 
 212      DE666F28 
 212      2C09AD2F 
 212      0480
 213 0764 458140DE 		.ascii	"E\201@\336\011\276\360+\202\264\336\347\017\275\334"
 213      09BEF02B 
 213      82B4DEE7 
 213      0FBDDC
 214 0773 2215B310 		.ascii	"\"\025\263\020\341h\302\027osd\003\241^\340m\366l\210"
 214      E168C217 
 214      6F736403 
 214      A15EE06D 
 214      F66C88
 215 0786 34F80252 		.ascii	"4\370\002R\270F\0146\372\245pm\211\225\013*\003\325"
 215      B8460C36 
 215      FAA5706D 
 215      89950B2A 
 215      03D5
 216 0798 76B0D5E7 		.ascii	"v\260\325\347\005\200|\362\254\012\212\353\374\222\342"
 216      05807CF2 
 216      AC0A8AEB 
 216      FC92E2
 217 07a7 C452BB11 		.ascii	"\304R\273\021\210D\003$b>\302='\361C\210:\334|)\210"
 217      88440324 
 217      623EC23D 
 217      27F14388 
ARM GAS  /tmp/ccCosrax.s 			page 17


 217      3ADC7C29 
 218 07bc 2BCD53E7 		.ascii	"+\315S\347\346\323*k\253x\316\303;\252V\360\351nw\035"
 218      E6D32A6B 
 218      AB78CEC3 
 218      3BAA56F0 
 218      E96E771D 
 219 07d0 5F4AB52B 		.ascii	"_J\265+\315\355\256\342\035\356U\015\216z\217\333Q\316"
 219      CDEDAEE2 
 219      1DEE550D 
 219      8E7A8FDB 
 219      51CE
 220 07e2 F30EDE0D 		.ascii	"\363\016\336\015\277aAEe\003\357\250$+\353\312yn\265"
 220      BF614145 
 220      6503EFA8 
 220      242BEBCA 
 220      796EB5
 221 07f5 B2AA0CE6 		.ascii	"\262\252\014\346\257\345\323\274\220\024\305s\371\205"
 221      AFE5D3BC 
 221      9014C573 
 221      F985
 222 0803 22A02038 		.ascii	"\"\240 8\344IbB\236\020\225\225!\357O\253\303\241@\255"
 222      E4496242 
 222      9E109595 
 222      21EF4FAB 
 222      C3A140AD 
 223 0817 87CFA761 		.ascii	"\207\317\247a\322\015\024\320X\373a@h\202\021\301\027"
 223      D20D14D0 
 223      58FB6140 
 223      688211C1 
 223      17
 224 0828 09672786 		.ascii	"\011g'\206\312LwNj\213:\335u\236Z\317\354&\004\"\276"
 224      CA4C774E 
 224      6A8B3ADD 
 224      759E5ACF 
 224      EC260422 
 225 083d 88009908 		.ascii	"\210\000\231\010F\027\010BD\212\012\025\345\236\252"
 225      46170842 
 225      448A0A15 
 225      E59EAA
 226 084c 7ABE7681 		.ascii	"z\276v\201\350\177U\334\020\201<\360C\306\245\267\212"
 226      E87F55DC 
 226      10813CF0 
 226      43C6A5B7 
 226      8A
 227 085d FE16E971 		.ascii	"\376\026\351qBk5\273WO\250T\327\004\375:n\224,3\364"
 227      426B35BB 
 227      574FA854 
 227      D704FD3A 
 227      6E942C33 
 228 0872 04E5D612 		.ascii	"\004\345\326\022d\010\347\350\006\1770\017eO\203\262"
 228      6408E7E8 
 228      067F300F 
 228      654F83B2 
 229 0882 7FD5656D 		.ascii	"\177\325emm\312\3165\225-)k#\314sx\267[h\200O\241Rj"
 229      6DCACE35 
 229      952D296B 
 229      23CC7378 
ARM GAS  /tmp/ccCosrax.s 			page 18


 229      B75B6880 
 230 089a E220EEEE 		.ascii	"\342 \356\356\352\025\260\023\265|Vy}\205\213\3674\320"
 230      EA15B013 
 230      B57C5679 
 230      7D858BF7 
 230      34D0
 231 08ac 4E29E964 		.ascii	"N)\351d\224\327TT\255\3423\311\013\365Y\012O\3302\262"
 231      94D75454 
 231      ADE233C9 
 231      0BF5590A 
 231      4FD832B2 
 232 08c0 771E18A8 		.ascii	"w\036\030\250\251 \363\322\011\204\213\352\262\274\312"
 232      A920F3D2 
 232      09848BEA 
 232      B2BCCA
 233 08cf 8A1575EE 		.ascii	"\212\025u\3565\232\201\214\332J\367\352\312\252\014"
 233      359A818C 
 233      DA4AF7EA 
 233      CAAA0C
 234 08de B2B4FA25 		.ascii	"\262\264\372%\362pU\277\364_\335\324OT"
 234      F27055BF 
 234      F45FDDD4 
 234      4F54
 235              		.text
 236              		.section	.gnu.lto_.symtab.ef6ea21788b4aaef,"",%progbits
 237 0000 56656374 		.ascii	"VectorB0\000\000\000\000\000\000\000\000\000\000\000"
 237      6F724230 
 237      00000000 
 237      00000000 
 237      000000
 238 0013 00A80000 		.ascii	"\000\250\000\000\000st_lld_init\000\000\000\000\000"
 238      0073745F 
 238      6C6C645F 
 238      696E6974 
 238      00000000 
 239 0028 00000000 		.ascii	"\000\000\000\000\000\000\000\254\000\000\000_port_i"
 239      000000AC 
 239      0000005F 
 239      706F7274 
 239      5F69
 240 003a 72715F65 		.ascii	"rq_epilogue\000\000\002\000\000\000\000\000\000\000"
 240      70696C6F 
 240      67756500 
 240      00020000 
 240      00000000 
 241 004f 0000AF00 		.ascii	"\000\000\257\000\000\000chSysTimerHandlerI\000\000\002"
 241      00006368 
 241      53797354 
 241      696D6572 
 241      48616E64 
 242 006a 00000000 		.ascii	"\000\000\000\000\000\000\000\000\000\261\000\000\000"
 242      00000000 
 242      00B10000 
 242      00
 243 0077 6E766963 		.ascii	"nvicEnableVector\000\000\002\000\000\000\000\000\000"
 243      456E6162 
 243      6C655665 
ARM GAS  /tmp/ccCosrax.s 			page 19


 243      63746F72 
 243      00000200 
 244 0090 000000B3 		.ascii	"\000\000\000\263\000\000\000"
 244      000000
 245              		.text
 246              		.section	.gnu.lto_.opts,"",%progbits
 247 0000 272D6D63 		.ascii	"'-mcpu=cortex-m4' '-mno-thumb-interwork' '-mthumb' "
 247      70753D63 
 247      6F727465 
 247      782D6D34 
 247      2720272D 
 248 0033 272D6767 		.ascii	"'-ggdb' '-O2' '-fomit-frame-pointer' '-falign-funct"
 248      64622720 
 248      272D4F32 
 248      2720272D 
 248      666F6D69 
 249 0066 696F6E73 		.ascii	"ions=16' '-ffunction-sections' '-fdata-sections' '-"
 249      3D313627 
 249      20272D66 
 249      66756E63 
 249      74696F6E 
 250 0099 666E6F2D 		.ascii	"fno-common' '-flto'\000"
 250      636F6D6D 
 250      6F6E2720 
 250      272D666C 
 250      746F2700 
 251              		.text
 252              		.cfi_sections	.debug_frame
 253              		.section	.text.VectorB0,"ax",%progbits
 254              		.align	2
 255              		.p2align 4,,15
 256              		.global	VectorB0
 257              		.thumb
 258              		.thumb_func
 259              		.type	VectorB0, %function
 260              	VectorB0:
 261              	.LFB270:
 262              		.file 1 "../ChibiOS/os/hal/ports/STM32/LLD/TIMv1/hal_st_lld.c"
 263              		.loc 1 239 0
 264              		.cfi_startproc
 265              		@ args = 0, pretend = 0, frame = 0
 266              		@ frame_needed = 0, uses_anonymous_args = 0
 267              		.loc 1 246 0
 268 0000 4FF08043 		mov	r3, #1073741824
 269              		.loc 1 239 0
 270 0004 10B5     		push	{r4, lr}
 271              		.cfi_def_cfa_offset 8
 272              		.cfi_offset 4, -8
 273              		.cfi_offset 14, -4
 274              		.loc 1 246 0
 275 0006 1A69     		ldr	r2, [r3, #16]
 276 0008 9207     		lsls	r2, r2, #30
 277 000a 08D5     		bpl	.L2
 278              		.loc 1 247 0
 279 000c 0024     		movs	r4, #0
 280 000e 1C61     		str	r4, [r3, #16]
 281              	.LVL0:
ARM GAS  /tmp/ccCosrax.s 			page 20


 282              	.LBB52:
 283              	.LBB53:
 284              	.LBB54:
 285              	.LBB55:
 286              	.LBB56:
 287              	.LBB57:
 288              		.file 2 "../ChibiOS/os/common/ext/CMSIS/include/cmsis_gcc.h"
 289              		.loc 2 264 0
 290 0010 2023     		movs	r3, #32
 291              	@ 264 "../ChibiOS/os/common/ext/CMSIS/include/cmsis_gcc.h" 1
 292 0012 83F31188 		MSR basepri, r3
 293              	@ 0 "" 2
 294              		.thumb
 295              	.LBE57:
 296              	.LBE56:
 297              	.LBE55:
 298              	.LBE54:
 299              	.LBE53:
 300              	.LBE52:
 301              	.LBB58:
 302              	.LBB59:
 303              		.file 3 "../ChibiOS/os/hal/osal/rt/osal.h"
 304              		.loc 3 585 0
 305 0016 FFF7FEFF 		bl	chSysTimerHandlerI
 306              	.LVL1:
 307              	.LBE59:
 308              	.LBE58:
 309              	.LBB60:
 310              	.LBB61:
 311              	.LBB62:
 312              	.LBB63:
 313              	.LBB64:
 314              	.LBB65:
 315              		.loc 2 264 0
 316              	@ 264 "../ChibiOS/os/common/ext/CMSIS/include/cmsis_gcc.h" 1
 317 001a 84F31188 		MSR basepri, r4
 318              	@ 0 "" 2
 319              	.LVL2:
 320              		.thumb
 321              	.L2:
 322              	.LBE65:
 323              	.LBE64:
 324              	.LBE63:
 325              	.LBE62:
 326              	.LBE61:
 327              	.LBE60:
 328              		.loc 1 255 0
 329 001e BDE81040 		pop	{r4, lr}
 330              		.loc 1 254 0
 331 0022 FFF7FEBF 		b	_port_irq_epilogue
 332              	.LVL3:
 333              		.cfi_endproc
 334              	.LFE270:
 335              		.size	VectorB0, .-VectorB0
 336 0026 00BFAFF3 		.section	.text.st_lld_init,"ax",%progbits
 336      0080AFF3 
 336      0080
ARM GAS  /tmp/ccCosrax.s 			page 21


 337              		.align	2
 338              		.p2align 4,,15
 339              		.global	st_lld_init
 340              		.thumb
 341              		.thumb_func
 342              		.type	st_lld_init, %function
 343              	st_lld_init:
 344              	.LFB271:
 345              		.loc 1 267 0
 346              		.cfi_startproc
 347              		@ args = 0, pretend = 0, frame = 0
 348              		@ frame_needed = 0, uses_anonymous_args = 0
 349              		@ link register save eliminated.
 350              		.loc 1 273 0
 351 0000 0F4B     		ldr	r3, .L8
 352              		.loc 1 276 0
 353 0002 1049     		ldr	r1, .L8+4
 354              		.loc 1 273 0
 355 0004 DA69     		ldr	r2, [r3, #28]
 356              		.loc 1 267 0
 357 0006 70B4     		push	{r4, r5, r6}
 358              		.cfi_def_cfa_offset 12
 359              		.cfi_offset 4, -12
 360              		.cfi_offset 5, -8
 361              		.cfi_offset 6, -4
 362              		.loc 1 273 0
 363 0008 42F00102 		orr	r2, r2, #1
 364 000c DA61     		str	r2, [r3, #28]
 365              		.loc 1 276 0
 366 000e 8868     		ldr	r0, [r1, #8]
 367              		.loc 1 279 0
 368 0010 4FF08043 		mov	r3, #1073741824
 369              		.loc 1 281 0
 370 0014 0022     		movs	r2, #0
 371              		.loc 1 285 0
 372 0016 0124     		movs	r4, #1
 373              		.loc 1 276 0
 374 0018 40F00100 		orr	r0, r0, #1
 375              		.loc 1 279 0
 376 001c 41F61F46 		movw	r6, #7199
 377              		.loc 1 280 0
 378 0020 4FF0FF35 		mov	r5, #-1
 379              		.loc 1 276 0
 380 0024 8860     		str	r0, [r1, #8]
 381              		.loc 1 279 0
 382 0026 9E62     		str	r6, [r3, #40]
 383              		.loc 1 289 0
 384 0028 1C20     		movs	r0, #28
 385              		.loc 1 280 0
 386 002a DD62     		str	r5, [r3, #44]
 387              		.loc 1 289 0
 388 002c 0821     		movs	r1, #8
 389              		.loc 1 281 0
 390 002e 9A61     		str	r2, [r3, #24]
 391              		.loc 1 282 0
 392 0030 5A63     		str	r2, [r3, #52]
 393              		.loc 1 283 0
ARM GAS  /tmp/ccCosrax.s 			page 22


 394 0032 DA60     		str	r2, [r3, #12]
 395              		.loc 1 284 0
 396 0034 5A60     		str	r2, [r3, #4]
 397              		.loc 1 285 0
 398 0036 5C61     		str	r4, [r3, #20]
 399              		.loc 1 286 0
 400 0038 1C60     		str	r4, [r3]
 401              		.loc 1 304 0
 402 003a 70BC     		pop	{r4, r5, r6}
 403              		.loc 1 289 0
 404 003c FFF7FEBF 		b	nvicEnableVector
 405              	.LVL4:
 406              	.L9:
 407              		.align	2
 408              	.L8:
 409 0040 00100240 		.word	1073876992
 410 0044 002004E0 		.word	-536600576
 411              		.cfi_endproc
 412              	.LFE271:
 413              		.size	st_lld_init, .-st_lld_init
 414 0048 AFF30080 		.text
 414      AFF30080 
 415              	.Letext0:
 416              		.file 4 "/nfs/nfs5/home/research/hardware/arm2/gcc-arm-embedded/gcc-arm-none-eabi-4_8-2014q2/arm-n
 417              		.file 5 "/nfs/nfs5/home/research/hardware/arm2/gcc-arm-embedded/gcc-arm-none-eabi-4_8-2014q2/arm-n
 418              		.file 6 "../ChibiOS/os/common/ports/ARMCMx/compilers/GCC/chtypes.h"
 419              		.file 7 "../ChibiOS/os/rt/include/chsystypes.h"
 420              		.file 8 "../ChibiOS/os/rt/include/chschd.h"
 421              		.file 9 "../ChibiOS/os/common/ext/CMSIS/ST/STM32F3xx/stm32f303xc.h"
 422              		.file 10 "../ChibiOS/os/common/ports/ARMCMx/chcore.h"
 423              		.file 11 "../ChibiOS/os/common/ports/ARMCMx/chcore_v7m.h"
 424              		.file 12 "../ChibiOS/os/hal/ports/STM32/LLD/TIMv1/stm32_tim.h"
 425              		.file 13 "../ChibiOS/os/rt/include/chtm.h"
 426              		.file 14 "../ChibiOS/os/rt/include/chsem.h"
 427              		.file 15 "../ChibiOS/os/rt/include/chmtx.h"
 428              		.file 16 "../ChibiOS/os/rt/include/chsys.h"
 429              		.file 17 "../ChibiOS/os/common/ext/CMSIS/include/core_cm4.h"
 430              		.file 18 "../ChibiOS/os/hal/ports/common/ARMCMx/nvic.h"