ARM GAS  /tmp/ccH5o200.s 			page 1


   1              		.syntax unified
   2              		.cpu cortex-m4
   3              		.fpu softvfp
   4              		.eabi_attribute 20, 1
   5              		.eabi_attribute 21, 1
   6              		.eabi_attribute 23, 3
   7              		.eabi_attribute 24, 1
   8              		.eabi_attribute 25, 1
   9              		.eabi_attribute 26, 1
  10              		.eabi_attribute 30, 2
  11              		.eabi_attribute 34, 1
  12              		.eabi_attribute 18, 4
  13              		.thumb
  14              		.file	"hal_pal.c"
  15              		.text
  16              	.Ltext0:
  17              		.section	.gnu.lto_.jmpfuncs.239bd53966db19e0,"",%progbits
  18 0000 789C6362 		.ascii	"x\234cb`b\300\006D\24043\003##3\02333\204\315\300X\006"
  18      6062C006 
  18      44A03433 
  18      03232333 
  18      13333384 
  19 0018 A4010623 		.ascii	"\244\001\006#\000\243"
  19      00A3
  20              		.text
  21              		.section	.gnu.lto_.inline.239bd53966db19e0,"",%progbits
  22 0000 789C6362 		.ascii	"x\234cb`b\300\006\276Cif\006\006N\016Ff\006F0\023D:"
  22      6062C006 
  22      BE436966 
  22      06064E0E 
  22      46660646 
  23 0018 8049050E 		.ascii	"\200I\005\016\266\017z\014l\013\344\231\030\030_\260"
  23      B60F7A0C 
  23      6C0BE499 
  23      18185FB0 
  24 0028 B3404810 		.ascii	"\263@H\020\301\001fr\200\010\0010S\000d\014#\003\037"
  24      C1016672 
  24      80080130 
  24      5300640C 
  24      23031F
  25 003b 2F230BC4 		.ascii	"/#\013\304\024FF\210\010\320\020\210\201\334L\027\370"
  25      14464688 
  25      08D01088 
  25      81DC4C17 
  25      F8
  26 004c 318C028A 		.ascii	"1\214\002\212\241\030\302\262@^\002\304R`b`\336!\256"
  26      A118C2B2 
  26      405E02C4 
  26      52606260 
  26      DE21AE
  27 005f C000B4DE 		.ascii	"\300\000\264\336\002d\016\023\003\2670\212\373\240\206"
  27      02640E13 
  27      03B7308A 
  27      FBA086
  28 006e 7202E588 		.ascii	"r\002\345\210s\036\320&\011\220I,\274@}\023\374@\220"
  28      731ED026 
  28      0990492C 
ARM GAS  /tmp/ccH5o200.s 			page 2


  28      BC407D13 
  28      FC4090
  29 0081 01003C62 		.ascii	"\001\000<b\037\210"
  29      1F88
  30              		.text
  31              		.section	.gnu.lto_.pureconst.239bd53966db19e0,"",%progbits
  32 0000 789C6362 		.ascii	"x\234cb`b`g\200\000f\006)F)&I\000\001\312\000_"
  32      60626067 
  32      80006606 
  32      29462926 
  32      490001CA 
  33              		.text
  34              		.section	.gnu.lto_palReadBus.239bd53966db19e0,"",%progbits
  35 0000 789C6D90 		.ascii	"x\234m\220\261J\003A\020\206\347\237\275\315\355\245"
  35      B14A0341 
  35      1086E79F 
  35      BDCDEDA5 
  36 0010 B0B70B96 		.ascii	"\260\267\013\226\006\356\036\302\007\2600\202\332\310"
  36      06EE1EC2 
  36      07B03082 
  36      DAC8
  37 001e E58AE420 		.ascii	"\345\212\344 A1\017\2203\227\312*X\211V6\026\026\261"
  37      41310F90 
  37      3397CA2A 
  37      58895636 
  37      1616B1
  38 0031 156CC4C2 		.ascii	"\025l\304\302.A[+\301V|\2058\273\361V\224,\354?\273"
  38      2E415B2B 
  38      C1567C85 
  38      38BBF156 
  38      942CEC3F 
  39 0046 B3F3FD33 		.ascii	"\263\363\3753,\023\323\377\265.\373\014D\033\022\241"
  39      2C13D3FF 
  39      B52EFB0C 
  39      441B12A1 
  40 0056 083C9913 		.ascii	"\010<\231\023\235\032\006\354\201@C\306p\037\256\366"
  40      9D1A06EC 
  40      814043C6 
  40      701FAEF6 
  41 0066 8E1FDF17 		.ascii	"\216\037\337\027\213\351\371\363\315'.\270\316\350\203"
  41      8BE9F9F3 
  41      CD272EB8 
  41      CEE883
  42 0075 14E5A040 		.ascii	"\024\345\240@\004Z\204k\"*\264Wc%\022\011\204\3244."
  42      045A846B 
  42      222AB457 
  42      63251209 
  42      84D4342E 
  43 0089 8A49A30F 		.ascii	"\212I\243\0171\312\234YK\324v\330\005\333\250f4z\273"
  43      31CA9C59 
  43      4BD476D8 
  43      05DBA866 
  43      347ABB
  44 009c FF78418A 		.ascii	"\377xA\212kq\352@5i3\207\276\242K\344\250u\300{\022"
  44      6B71EA40 
  44      35693387 
  44      BEA24BE4 
ARM GAS  /tmp/ccH5o200.s 			page 3


  44      A875C07B 
  45 00b1 4337461B 		.ascii	"C7F\033\325\3603z:\250\200\240I\267\305X\212\314\222"
  45      D5F0337A 
  45      3AA880A0 
  45      49B7C558 
  45      8ACC92
  46 00c4 89C4C332 		.ascii	"\211\304\3032\372\207\201gF\236\321\256I}u\023\376\005"
  46      FA878167 
  46      469ED1AE 
  46      497D7513 
  46      FE05
  47 00d6 BE544548 		.ascii	"\276TEH\221\266\251r\352S\241\364\226\207\277\316\306"
  47      91B6A972 
  47      EA53A1F4 
  47      9687BFCE 
  47      C6
  48 00e7 3907AB9D 		.ascii	"9\007\253\235\225w.\037\312\265\012\211\234\225!z%\377"
  48      95772E1F 
  48      CAB50A89 
  48      9C95217A 
  48      25FF
  49 00f9 0BD1B2B0 		.ascii	"\013\321\262\260%\323\313'\331\211\032q\234lu\363v\276"
  49      25D3CB27 
  49      D9891A71 
  49      9C6C75F3 
  49      76BE
  50 010b BD931C0D 		.ascii	"\275\223\034\015\222n\332K\006'\231\215\207\307i/\316"
  50      926EDA4B 
  50      0627998D 
  50      87C7692F 
  50      CE
  51 011c E81B423D 		.ascii	"\350\033B=U_"
  51      555F
  52              		.text
  53              		.section	.gnu.lto_palWriteBus.239bd53966db19e0,"",%progbits
  54 0000 789C6D51 		.ascii	"x\234mQ=O\302P\024\275\367\275RJ\371\322M7\242\233$"
  54      3D4FC250 
  54      14BDF7BD 
  54      524AF9D2 
  54      4D37A29B 
  55 0015 ED0F7074 		.ascii	"\355\017ptrr\020\023u1\320\001\232@4\362\003\000epd"
  55      72721013 
  55      7531D001 
  55      9A4034F2 
  55      03006570 
  56 002a 96C9D544 		.ascii	"\226\311\325D]\\\214&\032\0077M\334\214\023\277@\027"
  56      5D5C8C26 
  56      1A07374D 
  56      DC8C13BF 
  56      4017
  57 003c 47133CF7 		.ascii	"G\023<\367\225\226Hh\322s\357;\357\336s\317m\025)\232"
  57      95964868 
  57      D273EF3B 
  57      EFDE73CF 
  57      6D15299A 
  58 0050 7D96F1AE 		.ascii	"}\226\361\256\203^AdM\254\006oD=G1KBL\035\305\235=6"
  58      835E4164 
ARM GAS  /tmp/ccH5o200.s 			page 4


  58      4DAC066F 
  58      443D4731 
  58      4B424C1D 
  59 0068 B537EA69 		.ascii	"\2657\352i4\036_\377\274\334\376\362P-*n1i\012\231,"
  59      341E5FFF 
  59      BCDCFEF2 
  59      502D2A6E 
  59      31690A99 
  60 007d 649C42C6 		.ascii	"d\234B\306\266@Z\300\001\250\214\200\013\320Y\341r\002"
  60      B6405AC0 
  60      01A88C80 
  60      0BD059E1 
  60      7202
  61 008f 79391624 		.ascii	"y9\026$+\012@7E\375nwPj1|\004fT\005(\363w@!\352W:\371"
  61      2B0A4037 
  61      45FD6E77 
  61      506A317C 
  61      04665405 
  62 00ac FCF85EAA 		.ascii	"\374\370^\252\362\005\306\324Y\227i-dkH\347\034r\252"
  62      F205C6D4 
  62      5997692D 
  62      646B48E7 
  62      1C72AA
  63 00bf CE6A17D1 		.ascii	"\316j\027\3216\036k\034o\206\236\007\035w\240\3102\324"
  63      361E6B1C 
  63      6F869E07 
  63      1D77A0C8 
  63      32D4
  64 00d1 7ECCD846 		.ascii	"~\314\330F#=_\203\023\215\323\373D#md\354\3772\216\221"
  64      233D5F83 
  64      138DD3FB 
  64      44236D64 
  64      ECFF328E 
  65 00e6 71E6CBA8 		.ascii	"q\346\313\250\251\314Y\"\223A\223\024\251\205\310\344"
  65      A9CC5922 
  65      93419314 
  65      A985C8E4 
  66 00f6 5772E3E2 		.ascii	"Wr\343\342\322\024_%T\326\214ug\234\344\260M\354d\332"
  66      D2145F25 
  66      54D68C75 
  66      679CE4B0 
  66      4DEC64DA 
  67 010a 9E87F04C 		.ascii	"\236\207\360L{\301\324\346\015{\227\260E\243[\020\366"
  67      7BC1D4E6 
  67      0D7B97B0 
  67      45A35B10 
  67      F6
  68 011b 793322CB 		.ascii	"y3\"\313t\331\355\303T&N\334h#\324i1kM6\322\223\030"
  68      74D9EDC3 
  68      54264EDC 
  68      6823D469 
  68      316B4D36 
  69 0132 9D2145F4 		.ascii	"\235!E\364N\275\321\343j$\023?\025|A\3747\331\277\344"
  69      4EBDD1E3 
  69      6A24133F 
  69      157C41FC 
  69      37D9BFE4 
ARM GAS  /tmp/ccH5o200.s 			page 5


  70 0146 79FE4623 		.ascii	"y\376F#\254\205[\333\376a\333oT\233~\3738\220xpTmz\001"
  70      AC855BDB 
  70      FE61DB6F 
  70      549B7EFB 
  70      38907870 
  71 015e FD013DC0 		.ascii	"\375\001=\300u\326"
  71      75D6
  72              		.text
  73              		.section	.gnu.lto_palSetBusMode.239bd53966db19e0,"",%progbits
  74 0000 789C6D90 		.ascii	"x\234m\220\277J\003A\020\306\277o\366\376\231\312R\273"
  74      BF4A0341 
  74      10C6BF6F 
  74      F6FE99CA 
  74      52BB
  75 0012 A09DC2DD 		.ascii	"\240\235\302\335C\370\000\026FP\033\271\034xYHPLi\221"
  75      43F80016 
  75      46501BB9 
  75      1C785948 
  75      504C6991 
  76 0026 8B5A58A6 		.ascii	"\213ZX\246V\020|\000Mkig\245\242\245U\036@\362\000Z"
  76      56107C00 
  76      4D6B6967 
  76      A5A2A555 
  76      1E40F200 
  77 003b C4D98BA7 		.ascii	"\304\331\213\247 7\260\363\355\316\316ofv\005\202\377"
  77      2037B0F3 
  77      EDCECE6F 
  77      66760582 
  77      FF
  78 004c B6ACEB80 		.ascii	"\266\254\353\200\300\212*\015(\243g`\030\011\3516 \006"
  78      C08A2A0D 
  78      28A36760 
  78      1809E936 
  78      2006
  79 005e C2C12ECB 		.ascii	"\302\301.\313\334\261<Lf\263\273\267\307\361\007\257"
  79      DCB13C4C 
  79      66B3BBB7 
  79      C7F107AF 
  80 006e A521EC11 		.ascii	"\245!\354\021\006\226\360\324\321W'\201:\023\272c\244"
  80      0696F0D4 
  80      D1572781 
  80      3A13BA63 
  80      A4
  81 007f B70EF371 		.ascii	"\267\016\363q^\024\243f\217\332;+\353\264\324\273\342"
  81      5E14A366 
  81      8FDA3B2B 
  81      EBB4D4BB 
  81      E2
  82 0090 DB1A5235 		.ascii	"\333\032R5O8}\277\377ZJy\2435r\232u\254YzW\270\244\245"
  82      4F387DBF 
  82      FF5A4A79 
  82      A335729A 
  82      75AC597A 
  83 00a8 9F537654 		.ascii	"\237SvT\203r\2006\253\261\225\331\253\000\257\004\302"
  83      83728036 
  83      ABB195D9 
  83      AB00AF04 
ARM GAS  /tmp/ccH5o200.s 			page 6


  83      C2
  84 00b9 7A803580 		.ascii	"z\2005\200_\002Q= \177\300\324TD\240\220\013\235\335"
  84      5F02513D 
  84      207FC0D4 
  84      5444A090 
  84      0B9DDD
  85 00cc FE86426D 		.ascii	"\376\206Bm\234;\352\005\301<\006\234\340\263\270(\026"
  85      9C3BEA05 
  85      C13C069C 
  85      E0B3B828 
  85      16
  86 00dd 2D17B29F 		.ascii	"-\027\262\237\306\372\23425\262l\000\257\030N\246\253"
  86      C6FA9C32 
  86      35B26C00 
  86      AF184EA6 
  86      AB
  87 00ee 55F6DC5A 		.ascii	"U\366\334Z\232\251\277\340\3326\3438\331\350\330\266"
  87      9AA9BFE0 
  87      DA36E338 
  87      D9E8D8B6 
  88 00fe DDDC4A0E 		.ascii	"\335\334J\016\373I'\355&\375\343\314\351\376Q\332\215"
  88      FB4927ED 
  88      26FDE3CC 
  88      E9FE51DA 
  88      8D
  89 010f 337C03C4 		.ascii	"3|\003\304~P\016"
  89      7E500E
  90              		.text
  91              		.section	.gnu.lto_.symbol_nodes.239bd53966db19e0,"",%progbits
  92 0000 789C4DC7 		.ascii	"x\234M\307\261\015\2000\024CA\373\375\331\230\313)\251"
  92      B10D8030 
  92      144341FB 
  92      FDD998CB 
  92      29A9
  93 0012 20123D0D 		.ascii	" \022=\015\373\260C\026A\024 \301u\207\320\244\027\013"
  93      FBB04316 
  93      411420C1 
  93      7587D0A4 
  93      170B
  94 0024 91FA2925 		.ascii	"\221\372)%\373lV\342_;\341\2537RO[sQ:\306e\335\315%"
  94      FB6C56E2 
  94      5F3BE1AB 
  94      37524F5B 
  94      73513AC6 
  95 003c 148D     		.ascii	"\024\215"
  96              		.text
  97              		.section	.gnu.lto_.refs.239bd53966db19e0,"",%progbits
  98 0000 789C6362 		.ascii	"x\234cb`b`d\200\002\000\000F\000\006"
  98      60626064 
  98      80020000 
  98      460006
  99              		.text
 100              		.section	.gnu.lto_.decls.239bd53966db19e0,"",%progbits
 101 0000 789CBD58 		.ascii	"x\234\275Xkl\024U\024\276wv\267t\313R\012\010)\211\221"
 101      6B6C1455 
 101      14BE7776 
 101      B774CB52 
ARM GAS  /tmp/ccH5o200.s 			page 7


 101      0A082989 
 102 0015 C5802184 		.ascii	"\305\200!\204v\241 \217?D\241H\211\3056[\010\030\177"
 102      76A1208F 
 102      3F44A148 
 102      89C5365B 
 102      08187F
 103 0028 8CD3DD29 		.ascii	"\214\323\335)\335\330v\353\356TCb\342-E$$@)\3620 \264"
 103      DDD876EB 
 103      EE544362 
 103      E22D4524 
 103      244029F2 
 104 003f 542C1203 		.ascii	"T,\022\003\362(/\013.\204G)\204%\020A\023\214+\217\020"
 104      F2282F0B 
 104      2E844729 
 104      84251041 
 104      138C2B8F 
 105 0054 02262010 		.ascii	"\002& \020\001-\353\271wfvg\246;\373 \321M\316\335;"
 105      012DEBB9 
 105      77667667 
 105      A63BFB20 
 105      D14DCEDD 
 106 0069 33F77CE7 		.ascii	"3\367|\347;\217\373\230\341\020\207>\301\010E\341\267"
 106      3B8FFB98 
 106      E110873E 
 106      C10845E1 
 106      B7
 107 007a F825844E 		.ascii	"\370%\204Nq\010Y\021B\323Q\374G\257\333@\036\201\364"
 107      71085911 
 107      42D351FC 
 107      47AFDB40 
 107      1E81F4
 108 008d 82D831EA 		.ascii	"\202\3301\352\363\243\317\373\203\334\006\351\007bS"
 108      F3A3CFFB 
 108      83DC06E9 
 108      076253
 109 009c F4DA413A 		.ascii	"\364\332A:Av\203\354\002\351\0029\000rOy\276\037\344"
 109      417683EC 
 109      02E90239 
 109      00724F79 
 109      BE1FE4
 110 00af 24C85D90 		.ascii	"$\310]\220; X\301\002\032\350\001\310@\203-\312\301"
 110      3B2058C1 
 110      021AE801 
 110      C840832D 
 110      CAC1
 111 00c1 91C08ED6 		.ascii	"\221\300\216\326F\273\202Om\235U\354\331\024[w\024["
 111      46BB824F 
 111      6D9D55EC 
 111      D9145B77 
 111      145B
 112 00d3 DD20E715 		.ascii	"\335 \347\025{\024\323\002\362\024\344\031\310p\203"
 112      7B14D302 
 112      F214E419 
 112      C87083
 113 00e2 CD5E13DF 		.ascii	"\315^\023\337\022\331|\005ts\260\214\247\265\307ibG"
 113      12D97C05 
 113      7473B08C 
ARM GAS  /tmp/ccH5o200.s 			page 8


 113      A7B5C769 
 113      6247
 114 00f4 9FD9E03F 		.ascii	"\237\331\340?\013d\204\301\326\010\264\205\264F\"\333"
 114      0B6484C1 
 114      D608B485 
 114      B44622DB 
 115 0104 AFDFC75F 		.ascii	"\257\337\307_\222\320R\022\215~\212\206\241u\004~\255"
 115      92D05212 
 115      8D7E8A86 
 115      A175047E 
 115      AD
 116 0115 CB08C192 		.ascii	"\313\010\301\222\035-'d\011\275(\351\316Eh!\026p\256"
 116      1D2D2764 
 116      09BD28E9 
 116      CE456821 
 116      1670AE
 117 0128 1D3959C7 		.ascii	"\0359Y\307ag\274F\243\257\011i\216l\350\355\030KH\266"
 117      6167BC46 
 117      A3AF0969 
 117      8E6CE8ED 
 117      184B48B6 
 118 013c 80DBB11D 		.ascii	"\200\333\261\035\354\277\207\321X\364-\3404\203\376"
 118      ECBF87D1 
 118      58F42DE0 
 118      3483FE
 119 014b E4042944 		.ascii	"\344\004)D\351C\377\370\371\251\343x\011\320\021p\007"
 119      E943FFF8 
 119      F9A9E378 
 119      09D01170 
 119      07
 120 015c 03BF8131 		.ascii	"\003\277\2011\022\3607xl\306P\207WwMc,w2\240\007\234"
 120      12F03778 
 120      6CC65087 
 120      57774D63 
 120      2C7732A0 
 121 0172 1E48C0FD 		.ascii	"\036H\300\375\354Z\216\354Z\035@\321\330c\245C\213x"
 121      EC5A8EEC 
 121      5A1D40D1 
 121      D863A543 
 121      8B78
 122 0184 20FA8F87 		.ascii	" \372\217\207'\362\205jn\303\303X\317\302r\015\005\263"
 122      27F2856A 
 122      6EC3C358 
 122      CFC2720D 
 122      05B3
 123 0196 221E81C1 		.ascii	"\"\036\201\301h\015\315\240S\023\213\367U}G<\026O\257"
 123      680DCDA0 
 123      53138BF7 
 123      557D473C 
 123      164FAF
 124 01a9 5E2B62B1 		.ascii	"^+b\261\330\215\007\003J\233E\037\213T(\224\305^\320"
 124      D88D0703 
 124      4A9B451F 
 124      8B542894 
 124      C55ED0
 125 01bc 94751826 		.ascii	"\224u\030&\011u\3668\210U\276\217th\272\337H\324\012"
 125      0975F638 
ARM GAS  /tmp/ccH5o200.s 			page 9


 125      8855BE8F 
 125      7468BADF 
 125      48D40A
 126 01cf 6C43477B 		.ascii	"lCG{6\017'\255'p*\362\021N\265;NSom[-\214\375\001\306"
 126      360F27AD 
 126      27702AF2 
 126      114EB53B 
 126      4E536F6D 
 127 01e9 BE23357B 		.ascii	"\276#5{=\014\245w\330H\377\357\013\214\376\341\324\364"
 127      3D0CA577 
 127      D848FFEF 
 127      0B8CFEE1 
 127      D4F4
 128 01fb 973685A2 		.ascii	"\2276\205\242\027d\372\254\372\232\222V\237\200w\340"
 128      1764FAAC 
 128      FA9A9256 
 128      9F8077E0 
 129 020b D169E59B 		.ascii	"\321i\345\233C\373\231'\224B\"$\245+\377\224\001zZ\315"
 129      43FB9927 
 129      94422224 
 129      A52BFF94 
 129      017A5ACD 
 130 021f 6147B320 		.ascii	"aG\263 \340.V\340G2\006s\352\300Z\264`\307\323\001\313"
 130      E02E56E0 
 130      47320673 
 130      EAC05AB4 
 130      60C7D301 
 131 0234 3667F685 		.ascii	"6g\366\205\026\354l\306`zf\353\265`\341t\300\362\314"
 131      16EC6CC6 
 131      607A66EB 
 131      B560E174 
 131      C0F2CC
 132 0247 996DD482 		.ascii	"\231m\324\202]\316\030L\313\2541t0\334\203I\213c\010"
 132      5DCE184C 
 132      CBAC3174 
 132      30DC8349 
 132      8B6308
 133 025a 6A21A491 		.ascii	"j!\244\221\264f\231\025\005Bl\010I:D\300=x\210\276H"
 133      B4669915 
 133      05426C08 
 133      493A44C0 
 133      3D7888BE 
 134 026f 37ADCEA5 		.ascii	"7\255\316\245EJ\357\247\236c_\205\345\"U\227\316\253"
 134      454AEFA7 
 134      9E635F85 
 134      E5225597 
 134      CEAB
 135 0281 CC39AAFB 		.ascii	"\3149\252\373\002\325E'x\270?Y\341PfW\353\033;\222\020"
 135      02D54527 
 135      78B83F59 
 135      E1506657 
 135      EB1B3B92 
 136 0296 0F1B67D7 		.ascii	"\017\033g\327\3260\347\224o\247\346\275'\2749\237\264"
 136      D630E794 
 136      6FA7E6BD 
 136      27BC399F 
 136      B4
ARM GAS  /tmp/ccH5o200.s 			page 10


 137 02a7 1EC7CAD2 		.ascii	"\036\307\312\322N\226\2211\032[y\252-\272\370\305v\211"
 137      4E969131 
 137      1A5B79AA 
 137      2DBAF8C5 
 137      7689
 138 02b9 83E3D882 		.ascii	"\203\343\330\202p\2119\372\213%\341\036\221\006\320"
 138      708939FA 
 138      8B25E11E 
 138      9106D0
 139 02c8 E1D51DF2 		.ascii	"\341\325\035\362\036\361\023\003\272n1\356\021\026\303"
 139      1EF11303 
 139      BA6E31EE 
 139      1116C3
 140 02d7 1E61D1CF 		.ascii	"\036a\321\317j\213=\336\211F-(\263\301\034\372\203\031"
 140      6A8B3DDE 
 140      89462D28 
 140      B3C11CFA 
 140      8319
 141 02e9 0CC7EB4F 		.ascii	"\014\307\353OG2U\212\226D\326\337\332\302B\247F\342"
 141      4732558A 
 141      9644D6DF 
 141      DAC242A7 
 141      46E2
 142 02fb 41C67879 		.ascii	"A\306xy\206\234p\350\257\027-\033\215\347\262\323\002"
 142      869C70E8 
 142      AF172D1B 
 142      8DE7B2D3 
 142      02
 143 030c 3E8F4742 		.ascii	">\217GB{\001Z\215\201\247\351L\272|\023\247a\006\037"
 143      7B015A8D 
 143      81A7E94C 
 143      BA7C13A7 
 143      61061F
 144 031f D2CEE0E7 		.ascii	"\322\316\340\347\031\2039u`G\264`M\3264\300\234\346"
 144      19833975 
 144      6047B460 
 144      4DD634C0 
 144      9CE6
 145 0331 CCBAB460 		.ascii	"\314\272\264`\3133\006\3233;\246\005[\231\016\330\230"
 145      CB3306D3 
 145      333BA605 
 145      5B990ED8 
 145      98
 146 0342 6449D1E5 		.ascii	"dI\321\345'\276\033\012\370\010\333\256~`\231:\306\332"
 146      27BE1B0A 
 146      F808DBAE 
 146      7E60993A 
 146      C6DA
 147 0354 106B4FB0 		.ascii	"\020kO\260\366$kO\263\266\233\265\277\262\3667\326\376"
 147      F6246B4F 
 147      B3B69BB5 
 147      BFB2F637 
 147      D6FE
 148 0366 CEDA1BDA 		.ascii	"\316\332\033\332\374\232\237\310B\227\327\277LW\263"
 148      FC9A9FC8 
 148      4297D7BF 
 148      4C57B3
ARM GAS  /tmp/ccH5o200.s 			page 11


 149 0375 4E380570 		.ascii	"N8\005ph\215U?\327t'\003y\2537[mn\003@\342E\245\317"
 149      688D553F 
 149      D7742703 
 149      79AB375B 
 149      6D6E0340 
 150 038d 330E6D66 		.ascii	"3\016mfv\366\276\330\036\013S\354\351\206+-xm\023\351"
 150      76F6BED8 
 150      1E0B53EC 
 150      E9862B2D 
 150      786D13E9 
 151 03a1 1EAF9E77 		.ascii	"\036\257\236w\3333Ftj\021C\367{ \261\231\034\211o>\300"
 151      DB334674 
 151      6A1143F7 
 151      7B20B199 
 151      1C896F3E 
 152 03b6 4DEC487C 		.ascii	"M\354H|\217\331\337a5\256R6\303*e\323/<6{\274\023;{"
 152      8FD9DF61 
 152      35AE5236 
 152      C32A65D3 
 152      2F3C367B 
 153 03ce 74A6E345 		.ascii	"t\246\343E\242\035>qE\355\325T\324>VQ\373Ym\334a\355"
 153      A21D3E71 
 153      45EDD554 
 153      D43E5651 
 153      FB596DDC 
 154 03e4 DD541542 		.ascii	"\335T\025B!v\341\376q\274\371\361\305\224C]\006\217"
 154      2176E1FE 
 154      71BCF9F1 
 154      C594435D 
 154      068F
 155 03f6 47A17642 		.ascii	"G\241vBZ\340]&d\205w\031\253\254\312\2413lX\033\036"
 155      5AE05D26 
 155      64857719 
 155      ABACCAA1 
 155      336C581B 
 156 040b 61723053 		.ascii	"ar0S\014\274\206\266\323\320\037\275Y^\"\247\024%\321"
 156      0CBC86B6 
 156      D3D01FBD 
 156      595E22A7 
 156      1425D1
 157 041e 52E8DCC7 		.ascii	"R\350\334\307\234\326_\371e*\364x\3319\330\376\311?"
 157      9CD65FF9 
 157      652AF478 
 157      D939D8FE 
 157      C93F
 158 0430 7435D7BD 		.ascii	"t5\327\275K\011x\372PS?\037\353\317\3632\257\330\205"
 158      4B0978FA 
 158      50533F1F 
 158      EBCFF332 
 158      AFD885
 159 0443 4CC81881 		.ascii	"L\310\030\201s\011#@\036zKdu\001\377\011\014\005\374"
 159      73092340 
 159      1E7A4B64 
 159      7501FF09 
 159      0C05FC
 160 0456 28B9F38A 		.ascii	"(\271\363\212\332A\261D-\346\253\014\330\\M\241\303"
 160      DA41B144 
ARM GAS  /tmp/ccH5o200.s 			page 12


 160      2DE6AB0C 
 160      D85C4DA1 
 160      C3
 161 0467 6246C84A 		.ascii	"bF\310J\362Y\036f\316!EKW\004O\022F\351\322\031Gsc$"
 161      F2591E66 
 161      CE21454B 
 161      57044F12 
 161      46E9D219 
 162 047f 1A1D917E 		.ascii	"\032\035\221~\210\236'\011Q\006\357\251{\276\223\337"
 162      889E2709 
 162      5106EFA9 
 162      7BBE93DF 
 163 048f 531B39EA 		.ascii	"S\0339\352\352\265>\363\246\003\277\310+\240!5\267L"
 163      EAB53EF3 
 163      A603BFC8 
 163      2BA02135 
 163      B74C
 164 04a1 8AF3D9CF 		.ascii	"\212\363\331\317\226xq\252\371\351M+?\373h~d\322\017"
 164      967871AA 
 164      F9E94D2B 
 164      3FFB687E 
 164      64D20F
 165 04b4 19BAB91A 		.ascii	"\031\272\271\032\035e\226\237^c~\226r}\362\023\241a"
 165      1D65969F 
 165      5E637E96 
 165      727DF213 
 165      A161
 166 04c6 3ADD88D7 		.ascii	":\335\210\3274\265v\223\373\324\305\364\263\264\202"
 166      34B57693 
 166      FBD4C5F4 
 166      B3B482
 167 04d5 3364A933 		.ascii	"3d\2513A!\307\256\025\246\206\350=1DO\245\272JO\365"
 167      4121C7AE 
 167      15A686E8 
 167      3D31444F 
 167      A5BA4A4F 
 168 04ea 55D4462E 		.ascii	"U\324F.^\214\334\272\276\021/\217\220f\362<\032\305"
 168      5E8CDCBA 
 168      BE112F8F 
 168      9066F23C 
 168      1AC5
 169 04fc 8350337B 		.ascii	"\203P3{\357\333\230\253\224Dd{(\177c\274$\262U\276X"
 169      EFDB98AB 
 169      9444647B 
 169      287F63BC 
 169      24B255BE 
 170 0511 2D09FA85 		.ascii	"-\011\372\205\202\213\015&\371\371\211\307\012\270\205"
 170      828B0D26 
 170      F9F989C7 
 170      0AB885
 171 0520 A32BD85A 		.ascii	"\243+\330Z\2311{$\367\325^\024S\356\253l\211>v0\200"
 171      99317B24 
 171      F7D55E14 
 171      53EEAB6C 
 171      893E7630 
 172 0535 E4AA8AD1 		.ascii	"\344\252\212\321\205\252Qy\335\213\373#\217L<J\300\353"
 172      85AA5179 
ARM GAS  /tmp/ccH5o200.s 			page 13


 172      DD8BFB23 
 172      8F4C3C4A 
 172      C0EB
 173 0547 B841ACC7 		.ascii	"\270A\254\307\034!\261\035\323a7M\324z\015\033\207="
 173      1C21B11D 
 173      D361374D 
 173      D47A0D1B 
 173      873D
 174 0559 DEC9D171 		.ascii	"\336\311\321qVG\201gkm\206\225\324@\002\266U\305w\001"
 174      56478167 
 174      6B6D8695 
 174      D44002B6 
 174      55C57701 
 175 056d D38F5272 		.ascii	"\323\217RrzBON\223\354\357\311r\372mI\353\314\232\270"
 175      7A424F4E 
 175      93ECEFC9 
 175      72FA6D49 
 175      EBCC9AB8 
 176 0581 3386CF0A 		.ascii	"3\206\317\012&.\367\371\370\260)c\2277\233\270\034\333"
 176      262EF7F9 
 176      F8B02963 
 176      97379BB8 
 176      1CDB
 177 0593 6274A3A0 		.ascii	"bt\243\240\273\2013\254\237\006\022\034\332\251s\331"
 177      BB8133AC 
 177      9F06121C 
 177      DAA973D9 
 178 05a3 705EA173 		.ascii	"p^\241s\301\214\313\026.fU\011\324\2253\251\002U\257"
 178      C18CCB16 
 178      2E665509 
 178      D49533A9 
 178      0255AF
 179 05b6 82E4260B 		.ascii	"\202\344&\013\224a\024\244,\343@m3\011\324\000]\240"
 179      946114A4 
 179      2CE3406D 
 179      3309D400 
 179      5DA0
 180 05c8 B61903A5 		.ascii	"\266\031\003\245Y\221\014$8tH\027(\344,,t\315\254\366"
 180      59910C24 
 180      38744817 
 180      28E42C2C 
 180      74CDACF6 
 181 05dc 55FACA2A 		.ascii	"U\372\312*\\\376\240\253Z\250q\005\003\036\372\317\327"
 181      5CFEA0AB 
 181      5AA87105 
 181      031EFACF 
 181      D7
 182 05ed 0B35851E 		.ascii	"\0135\205\0364\245\357\200z\177@\012\272*\346\315\235"
 182      34A5EF80 
 182      7A7F400A 
 182      BA2AE6CD 
 182      9D
 183 05fe 58E42A2D 		.ascii	"X\344*--v\315.\237S\366Q\221\252\303\327\324x\013\253"
 183      2D76CD2E 
 183      9F53F651 
 183      91AAC3D7 
 183      D4780BAB 
ARM GAS  /tmp/ccH5o200.s 			page 14


 184 0612 91C3E7A7 		.ascii	"\221\303\347\247\343j\205\340\007\274\2245\373\235\371"
 184      E36A85E0 
 184      07BC9435 
 184      FB9DF9
 185 0621 CE9928E8 		.ascii	"\316\231(\350\252\253b\362\272\253\332_+\272\002bP\024"
 185      AAAB62F2 
 185      BAABDA5F 
 185      2BBA0262 
 185      5014
 186 0633 029E6A50 		.ascii	"\002\236jP\015x?\026\002\242K\010\324\026\271\026y<"
 186      0D783F16 
 186      02A24B08 
 186      D416B916 
 186      793C
 187 0645 05D02910 		.ascii	"\005\320)\020k+E\257W\364\306n\324\371\353\304\002Q"
 187      6B2B45AF 
 187      57F4C66E 
 187      D4F9EBC4 
 187      0251
 188 0657 A8F4154C 		.ascii	"\250\364\025L\342\247\026\024\215\2370\351\303\"\227"
 188      E2A71614 
 188      8D9F30E9 
 188      C32297
 189 0666 EE81CB57 		.ascii	"\356\201\313W\347\251i\360\212\256\240\344\365\325I"
 189      E7A969F0 
 189      8AAEA0E4 
 189      F5D549
 190 0675 C023BB01 		.ascii	"\300#\273\001\376'\026\361R\023\376\377\254\327\012"
 190      FE2716F1 
 190      5213FEFF 
 190      ACD70A
 191 0684 9E6A5F9D 		.ascii	"\236j_\235\350\342\275b\225\320P#\361\322\342z1\010"
 191      E8E2BD62 
 191      95D05023 
 191      F1D2E27A 
 191      3108
 192 0696 6C72785E 		.ascii	"lrx^\3453\252o`Uu5\372\325\3106\247lFC\320\021\224j"
 192      E533AA6F 
 192      60557535 
 192      FAD5C836 
 192      A76C4643 
 193 06ae 416551BD 		.ascii	"AeQ\275\317\317K\266\271e\305\263\334Ye\363\336-\237"
 193      CFCF4BB6 
 193      B965C5B3 
 193      DC5965F3 
 193      DE2D9F
 194 06c1 E5EE5756 		.ascii	"\345\356WVQ>kV\261\333V>\277\274\330m\231\003RV\354"
 194      513E6B56 
 194      B1DB563E 
 194      BFBCD86D 
 194      99035256 
 195 06d6 C60B98D7 		.ascii	"\306\013\230\327\023&\363\222b\220v-AQ\262yj\300g\\"
 195      1326F392 
 195      6290762D 
 195      4151B279 
 195      6AC0675C 
 196 06ea 629D51E1 		.ascii	"b\235Q\341v[Kg\276\355\266\276\371\226\273\2246%\226"
ARM GAS  /tmp/ccH5o200.s 			page 15


 196      765B4B67 
 196      BEEDB6BE 
 196      F996BB94 
 196      362596
 197 06fd 196E778E 		.ascii	"\031nw\216\2345\237\027r&w\2544\203\016\212\301W\011"
 197      9C359F17 
 197      722677AC 
 197      34830E8A 
 197      C15709
 198 0710 41692A3C 		.ascii	"Ai*<\360WU\001T\0160t\213\202\027\370Y*\033\202\375"
 198      F0575501 
 198      540E3074 
 198      8B8217F8 
 198      592A1B82 
 199 0725 E17241C0 		.ascii	"\341rA\300'\211pm\255\364I\301l\237\277\326\357\025"
 199      2789706D 
 199      ADF449C1 
 199      6C9FBFD6 
 199      EF15
 200 0737 7969003C 		.ascii	"yi\000<\251\020%\270?\027\256\255\364\346P\265Px\000"
 200      A91025B8 
 200      3F17AEAD 
 200      F4E650B5 
 200      507800
 201 074a 5A14F037 		.ascii	"Z\024\3607\324\323\273V\017d\"\233\347\253\032\352<"
 201      D4D3BB56 
 201      0F64229B 
 201      E7AB1AEA 
 201      3C
 202 075b 3C3F40ED 		.ascii	"<?@\355\024N\031?y\232\366j\312$\335\325\264\177\001"
 202      144E193F 
 202      799AF66A 
 202      CA24DDD5 
 202      B47F01
 203 076e 8722B41E 		.ascii	"\207\"\264\036"
 204              		.text
 205              		.section	.gnu.lto_.symtab.239bd53966db19e0,"",%progbits
 206 0000 70616C52 		.ascii	"palReadBus\000\000\000\000\000\000\000\000\000\000\000"
 206      65616442 
 206      75730000 
 206      00000000 
 206      00000000 
 207 0015 00A10000 		.ascii	"\000\241\000\000\000palWriteBus\000\000\000\000\000"
 207      0070616C 
 207      57726974 
 207      65427573 
 207      00000000 
 208 002a 00000000 		.ascii	"\000\000\000\000\000\000\000\364\000\000\000palSetB"
 208      000000F4 
 208      00000070 
 208      616C5365 
 208      7442
 209 003c 75734D6F 		.ascii	"usMode\000\000\000\000\000\000\000\000\000\000\000\000"
 209      64650000 
 209      00000000 
 209      00000000 
 209      0000
ARM GAS  /tmp/ccH5o200.s 			page 16


 210 004e FD000000 		.ascii	"\375\000\000\000_pal_lld_setgroupmode\000\000\002\000"
 210      5F70616C 
 210      5F6C6C64 
 210      5F736574 
 210      67726F75 
 211 006b 00000000 		.ascii	"\000\000\000\000\000\000\000\000\011\001\000\000"
 211      00000000 
 211      09010000 
 212              		.text
 213              		.section	.gnu.lto_.opts,"",%progbits
 214 0000 272D6D63 		.ascii	"'-mcpu=cortex-m4' '-mno-thumb-interwork' '-mthumb' "
 214      70753D63 
 214      6F727465 
 214      782D6D34 
 214      2720272D 
 215 0033 272D6767 		.ascii	"'-ggdb' '-O2' '-fomit-frame-pointer' '-falign-funct"
 215      64622720 
 215      272D4F32 
 215      2720272D 
 215      666F6D69 
 216 0066 696F6E73 		.ascii	"ions=16' '-ffunction-sections' '-fdata-sections' '-"
 216      3D313627 
 216      20272D66 
 216      66756E63 
 216      74696F6E 
 217 0099 666E6F2D 		.ascii	"fno-common' '-flto'\000"
 217      636F6D6D 
 217      6F6E2720 
 217      272D666C 
 217      746F2700 
 218              		.text
 219              		.cfi_sections	.debug_frame
 220              		.section	.text.palReadBus,"ax",%progbits
 221              		.align	2
 222              		.p2align 4,,15
 223              		.global	palReadBus
 224              		.thumb
 225              		.thumb_func
 226              		.type	palReadBus, %function
 227              	palReadBus:
 228              	.LFB270:
 229              		.file 1 "../ChibiOS/os/hal/src/hal_pal.c"
 230              		.loc 1 65 0
 231              		.cfi_startproc
 232              		@ args = 0, pretend = 0, frame = 0
 233              		@ frame_needed = 0, uses_anonymous_args = 0
 234              		@ link register save eliminated.
 235              	.LVL0:
 236              		.loc 1 69 0
 237 0000 0368     		ldr	r3, [r0]
 238 0002 8268     		ldr	r2, [r0, #8]
 239 0004 1969     		ldr	r1, [r3, #16]
 240 0006 4368     		ldr	r3, [r0, #4]
 241 0008 21FA02F0 		lsr	r0, r1, r2
 242              	.LVL1:
 243              		.loc 1 70 0
 244 000c 1840     		ands	r0, r0, r3
ARM GAS  /tmp/ccH5o200.s 			page 17


 245 000e 7047     		bx	lr
 246              		.cfi_endproc
 247              	.LFE270:
 248              		.size	palReadBus, .-palReadBus
 249              		.section	.text.palWriteBus,"ax",%progbits
 250              		.align	2
 251              		.p2align 4,,15
 252              		.global	palWriteBus
 253              		.thumb
 254              		.thumb_func
 255              		.type	palWriteBus, %function
 256              	palWriteBus:
 257              	.LFB271:
 258              		.loc 1 90 0
 259              		.cfi_startproc
 260              		@ args = 0, pretend = 0, frame = 0
 261              		@ frame_needed = 0, uses_anonymous_args = 0
 262              		@ link register save eliminated.
 263              	.LVL2:
 264              		.loc 1 94 0
 265 0000 0DC8     		ldmia	r0, {r0, r2, r3}
 266              	.LVL3:
 267              		.loc 1 90 0
 268 0002 30B4     		push	{r4, r5}
 269              		.cfi_def_cfa_offset 8
 270              		.cfi_offset 4, -8
 271              		.cfi_offset 5, -4
 272              		.loc 1 94 0
 273 0004 22EA0105 		bic	r5, r2, r1
 274 0008 03F11004 		add	r4, r3, #16
 275 000c 0A40     		ands	r2, r2, r1
 276 000e 02FA03F3 		lsl	r3, r2, r3
 277 0012 05FA04F2 		lsl	r2, r5, r4
 278 0016 1343     		orrs	r3, r3, r2
 279 0018 8361     		str	r3, [r0, #24]
 280              		.loc 1 95 0
 281 001a 30BC     		pop	{r4, r5}
 282 001c 7047     		bx	lr
 283              		.cfi_endproc
 284              	.LFE271:
 285              		.size	palWriteBus, .-palWriteBus
 286 001e 00BF     		.section	.text.palSetBusMode,"ax",%progbits
 287              		.align	2
 288              		.p2align 4,,15
 289              		.global	palSetBusMode
 290              		.thumb
 291              		.thumb_func
 292              		.type	palSetBusMode, %function
 293              	palSetBusMode:
 294              	.LFB272:
 295              		.loc 1 113 0
 296              		.cfi_startproc
 297              		@ args = 0, pretend = 0, frame = 0
 298              		@ frame_needed = 0, uses_anonymous_args = 0
 299              		@ link register save eliminated.
 300              	.LVL4:
 301 0000 10B4     		push	{r4}
ARM GAS  /tmp/ccH5o200.s 			page 18


 302              		.cfi_def_cfa_offset 4
 303              		.cfi_offset 4, -4
 304              		.loc 1 113 0
 305 0002 0A46     		mov	r2, r1
 306              		.loc 1 117 0
 307 0004 4468     		ldr	r4, [r0, #4]
 308 0006 8168     		ldr	r1, [r0, #8]
 309              	.LVL5:
 310 0008 0068     		ldr	r0, [r0]
 311              	.LVL6:
 312 000a 04FA01F1 		lsl	r1, r4, r1
 313              		.loc 1 118 0
 314 000e 5DF8044B 		ldr	r4, [sp], #4
 315              		.loc 1 117 0
 316 0012 FFF7FEBF 		b	_pal_lld_setgroupmode
 317              	.LVL7:
 318              		.cfi_endproc
 319              	.LFE272:
 320              		.size	palSetBusMode, .-palSetBusMode
 321 0016 00BFAFF3 		.text
 321      0080AFF3 
 321      0080
 322              	.Letext0:
 323              		.file 2 "/nfs/nfs5/home/research/hardware/arm2/gcc-arm-embedded/gcc-arm-none-eabi-4_8-2014q2/arm-n
 324              		.file 3 "/nfs/nfs5/home/research/hardware/arm2/gcc-arm-embedded/gcc-arm-none-eabi-4_8-2014q2/arm-n
 325              		.file 4 "../ChibiOS/os/common/ports/ARMCMx/compilers/GCC/chtypes.h"
 326              		.file 5 "../ChibiOS/os/rt/include/chsystypes.h"
 327              		.file 6 "../ChibiOS/os/rt/include/chschd.h"
 328              		.file 7 "../ChibiOS/os/common/ports/ARMCMx/chcore.h"
 329              		.file 8 "../ChibiOS/os/common/ports/ARMCMx/chcore_v7m.h"
 330              		.file 9 "../ChibiOS/os/rt/include/chtm.h"
 331              		.file 10 "../ChibiOS/os/rt/include/chsem.h"
 332              		.file 11 "../ChibiOS/os/rt/include/chmtx.h"
 333              		.file 12 "../ChibiOS/os/hal/ports/STM32/LLD/GPIOv2/hal_pal_lld.h"
 334              		.file 13 "../ChibiOS/os/hal/include/hal_pal.h"
 335              		.file 14 "../ChibiOS/os/common/ext/CMSIS/include/core_cm4.h"
 336              		.section	.debug_info,"",%progbits
 337              	.Ldebug_info0:
 338 0000 8E080000 		.4byte	0x88e
 339 0004 0400     		.2byte	0x4
 340 0006 00000000 		.4byte	.Ldebug_abbrev0
 341 000a 04       		.byte	0x4
 342 000b 01       		.uleb128 0x1
 343 000c BA040000 		.4byte	.LASF117
 344 0010 01       		.byte	0x1
 345 0011 2B010000 		.4byte	.LASF118
 346 0015 10030000 		.4byte	.LASF119
 347 0019 00000000 		.4byte	.Ldebug_ranges0+0
 348 001d 00000000 		.4byte	0
 349 0021 00000000 		.4byte	.Ldebug_line0
 350 0025 02       		.uleb128 0x2
 351 0026 04       		.byte	0x4
 352 0027 05       		.byte	0x5
 353 0028 696E7400 		.ascii	"int\000"
 354 002c 03       		.uleb128 0x3
 355 002d 04       		.byte	0x4
 356 002e 07       		.byte	0x7
ARM GAS  /tmp/ccH5o200.s 			page 19


 357 002f A3010000 		.4byte	.LASF0
 358 0033 03       		.uleb128 0x3
 359 0034 01       		.byte	0x1
 360 0035 06       		.byte	0x6
 361 0036 ED000000 		.4byte	.LASF1
 362 003a 04       		.uleb128 0x4
 363 003b 2E000000 		.4byte	.LASF4
 364 003f 02       		.byte	0x2
 365 0040 1C       		.byte	0x1c
 366 0041 45000000 		.4byte	0x45
 367 0045 03       		.uleb128 0x3
 368 0046 01       		.byte	0x1
 369 0047 08       		.byte	0x8
 370 0048 5C030000 		.4byte	.LASF2
 371 004c 03       		.uleb128 0x3
 372 004d 02       		.byte	0x2
 373 004e 05       		.byte	0x5
 374 004f 6A030000 		.4byte	.LASF3
 375 0053 04       		.uleb128 0x4
 376 0054 04040000 		.4byte	.LASF5
 377 0058 02       		.byte	0x2
 378 0059 26       		.byte	0x26
 379 005a 5E000000 		.4byte	0x5e
 380 005e 03       		.uleb128 0x3
 381 005f 02       		.byte	0x2
 382 0060 07       		.byte	0x7
 383 0061 DF010000 		.4byte	.LASF6
 384 0065 04       		.uleb128 0x4
 385 0066 39020000 		.4byte	.LASF7
 386 006a 02       		.byte	0x2
 387 006b 37       		.byte	0x37
 388 006c 70000000 		.4byte	0x70
 389 0070 03       		.uleb128 0x3
 390 0071 04       		.byte	0x4
 391 0072 05       		.byte	0x5
 392 0073 19010000 		.4byte	.LASF8
 393 0077 04       		.uleb128 0x4
 394 0078 61010000 		.4byte	.LASF9
 395 007c 02       		.byte	0x2
 396 007d 38       		.byte	0x38
 397 007e 82000000 		.4byte	0x82
 398 0082 03       		.uleb128 0x3
 399 0083 04       		.byte	0x4
 400 0084 07       		.byte	0x7
 401 0085 B7010000 		.4byte	.LASF10
 402 0089 03       		.uleb128 0x3
 403 008a 08       		.byte	0x8
 404 008b 05       		.byte	0x5
 405 008c DF000000 		.4byte	.LASF11
 406 0090 04       		.uleb128 0x4
 407 0091 54020000 		.4byte	.LASF12
 408 0095 02       		.byte	0x2
 409 0096 4E       		.byte	0x4e
 410 0097 9B000000 		.4byte	0x9b
 411 009b 03       		.uleb128 0x3
 412 009c 08       		.byte	0x8
 413 009d 07       		.byte	0x7
ARM GAS  /tmp/ccH5o200.s 			page 20


 414 009e 6D000000 		.4byte	.LASF13
 415 00a2 04       		.uleb128 0x4
 416 00a3 AC040000 		.4byte	.LASF14
 417 00a7 03       		.byte	0x3
 418 00a8 2A       		.byte	0x2a
 419 00a9 3A000000 		.4byte	0x3a
 420 00ad 04       		.uleb128 0x4
 421 00ae 50010000 		.4byte	.LASF15
 422 00b2 03       		.byte	0x3
 423 00b3 36       		.byte	0x36
 424 00b4 53000000 		.4byte	0x53
 425 00b8 04       		.uleb128 0x4
 426 00b9 54030000 		.4byte	.LASF16
 427 00bd 03       		.byte	0x3
 428 00be 41       		.byte	0x41
 429 00bf 65000000 		.4byte	0x65
 430 00c3 04       		.uleb128 0x4
 431 00c4 C7030000 		.4byte	.LASF17
 432 00c8 03       		.byte	0x3
 433 00c9 42       		.byte	0x42
 434 00ca 77000000 		.4byte	0x77
 435 00ce 04       		.uleb128 0x4
 436 00cf 25000000 		.4byte	.LASF18
 437 00d3 03       		.byte	0x3
 438 00d4 4E       		.byte	0x4e
 439 00d5 90000000 		.4byte	0x90
 440 00d9 04       		.uleb128 0x4
 441 00da 9C030000 		.4byte	.LASF19
 442 00de 03       		.byte	0x3
 443 00df 60       		.byte	0x60
 444 00e0 2C000000 		.4byte	0x2c
 445 00e4 04       		.uleb128 0x4
 446 00e5 79040000 		.4byte	.LASF20
 447 00e9 04       		.byte	0x4
 448 00ea 39       		.byte	0x39
 449 00eb C3000000 		.4byte	0xc3
 450 00ef 04       		.uleb128 0x4
 451 00f0 17020000 		.4byte	.LASF21
 452 00f4 04       		.byte	0x4
 453 00f5 3C       		.byte	0x3c
 454 00f6 A2000000 		.4byte	0xa2
 455 00fa 04       		.uleb128 0x4
 456 00fb 22010000 		.4byte	.LASF22
 457 00ff 04       		.byte	0x4
 458 0100 3D       		.byte	0x3d
 459 0101 A2000000 		.4byte	0xa2
 460 0105 04       		.uleb128 0x4
 461 0106 EB020000 		.4byte	.LASF23
 462 010a 04       		.byte	0x4
 463 010b 3E       		.byte	0x3e
 464 010c A2000000 		.4byte	0xa2
 465 0110 04       		.uleb128 0x4
 466 0111 08030000 		.4byte	.LASF24
 467 0115 04       		.byte	0x4
 468 0116 40       		.byte	0x40
 469 0117 C3000000 		.4byte	0xc3
 470 011b 04       		.uleb128 0x4
ARM GAS  /tmp/ccH5o200.s 			page 21


 471 011c FC010000 		.4byte	.LASF25
 472 0120 04       		.byte	0x4
 473 0121 41       		.byte	0x41
 474 0122 B8000000 		.4byte	0xb8
 475 0126 04       		.uleb128 0x4
 476 0127 2D020000 		.4byte	.LASF26
 477 012b 04       		.byte	0x4
 478 012c 43       		.byte	0x43
 479 012d C3000000 		.4byte	0xc3
 480 0131 04       		.uleb128 0x4
 481 0132 9D010000 		.4byte	.LASF27
 482 0136 04       		.byte	0x4
 483 0137 45       		.byte	0x45
 484 0138 B8000000 		.4byte	0xb8
 485 013c 04       		.uleb128 0x4
 486 013d 18040000 		.4byte	.LASF28
 487 0141 05       		.byte	0x5
 488 0142 33       		.byte	0x33
 489 0143 C3000000 		.4byte	0xc3
 490 0147 04       		.uleb128 0x4
 491 0148 0F040000 		.4byte	.LASF29
 492 014c 05       		.byte	0x5
 493 014d 3F       		.byte	0x3f
 494 014e 52010000 		.4byte	0x152
 495 0152 05       		.uleb128 0x5
 496 0153 F2010000 		.4byte	.LASF47
 497 0157 44       		.byte	0x44
 498 0158 06       		.byte	0x6
 499 0159 9A       		.byte	0x9a
 500 015a 30020000 		.4byte	0x230
 501 015e 06       		.uleb128 0x6
 502 015f D3010000 		.4byte	.LASF30
 503 0163 06       		.byte	0x6
 504 0164 9B       		.byte	0x9b
 505 0165 65020000 		.4byte	0x265
 506 0169 00       		.byte	0
 507 016a 06       		.uleb128 0x6
 508 016b BF020000 		.4byte	.LASF31
 509 016f 06       		.byte	0x6
 510 0170 9C       		.byte	0x9c
 511 0171 10010000 		.4byte	0x110
 512 0175 08       		.byte	0x8
 513 0176 07       		.uleb128 0x7
 514 0177 63747800 		.ascii	"ctx\000"
 515 017b 06       		.byte	0x6
 516 017c 9D       		.byte	0x9d
 517 017d 62040000 		.4byte	0x462
 518 0181 0C       		.byte	0xc
 519 0182 06       		.uleb128 0x6
 520 0183 4E020000 		.4byte	.LASF32
 521 0187 06       		.byte	0x6
 522 0188 9F       		.byte	0x9f
 523 0189 3B020000 		.4byte	0x23b
 524 018d 10       		.byte	0x10
 525 018e 06       		.uleb128 0x6
 526 018f F9030000 		.4byte	.LASF33
 527 0193 06       		.byte	0x6
ARM GAS  /tmp/ccH5o200.s 			page 22


 528 0194 A0       		.byte	0xa0
 529 0195 3B020000 		.4byte	0x23b
 530 0199 14       		.byte	0x14
 531 019a 06       		.uleb128 0x6
 532 019b CE010000 		.4byte	.LASF34
 533 019f 06       		.byte	0x6
 534 01a0 A7       		.byte	0xa7
 535 01a1 E7050000 		.4byte	0x5e7
 536 01a5 18       		.byte	0x18
 537 01a6 06       		.uleb128 0x6
 538 01a7 ED030000 		.4byte	.LASF35
 539 01ab 06       		.byte	0x6
 540 01ac B0       		.byte	0xb0
 541 01ad F9050000 		.4byte	0x5f9
 542 01b1 1C       		.byte	0x1c
 543 01b2 06       		.uleb128 0x6
 544 01b3 0E010000 		.4byte	.LASF36
 545 01b7 06       		.byte	0x6
 546 01b8 B5       		.byte	0xb5
 547 01b9 FA000000 		.4byte	0xfa
 548 01bd 20       		.byte	0x20
 549 01be 06       		.uleb128 0x6
 550 01bf B4040000 		.4byte	.LASF37
 551 01c3 06       		.byte	0x6
 552 01c4 B9       		.byte	0xb9
 553 01c5 EF000000 		.4byte	0xef
 554 01c9 21       		.byte	0x21
 555 01ca 06       		.uleb128 0x6
 556 01cb F3020000 		.4byte	.LASF38
 557 01cf 06       		.byte	0x6
 558 01d0 BE       		.byte	0xbe
 559 01d1 05010000 		.4byte	0x105
 560 01d5 22       		.byte	0x22
 561 01d6 08       		.uleb128 0x8
 562 01d7 7500     		.ascii	"u\000"
 563 01d9 06       		.byte	0x6
 564 01da 0F01     		.2byte	0x10f
 565 01dc 1C050000 		.4byte	0x51c
 566 01e0 24       		.byte	0x24
 567 01e1 09       		.uleb128 0x9
 568 01e2 7A010000 		.4byte	.LASF39
 569 01e6 06       		.byte	0x6
 570 01e7 1401     		.2byte	0x114
 571 01e9 41020000 		.4byte	0x241
 572 01ed 28       		.byte	0x28
 573 01ee 09       		.uleb128 0x9
 574 01ef 05010000 		.4byte	.LASF40
 575 01f3 06       		.byte	0x6
 576 01f4 1A01     		.2byte	0x11a
 577 01f6 65020000 		.4byte	0x265
 578 01fa 2C       		.byte	0x2c
 579 01fb 09       		.uleb128 0x9
 580 01fc 02020000 		.4byte	.LASF41
 581 0200 06       		.byte	0x6
 582 0201 2001     		.2byte	0x120
 583 0203 26010000 		.4byte	0x126
 584 0207 34       		.byte	0x34
ARM GAS  /tmp/ccH5o200.s 			page 23


 585 0208 09       		.uleb128 0x9
 586 0209 B0050000 		.4byte	.LASF42
 587 020d 06       		.byte	0x6
 588 020e 2701     		.2byte	0x127
 589 0210 E1050000 		.4byte	0x5e1
 590 0214 38       		.byte	0x38
 591 0215 09       		.uleb128 0x9
 592 0216 5F020000 		.4byte	.LASF43
 593 021a 06       		.byte	0x6
 594 021b 2B01     		.2byte	0x12b
 595 021d 10010000 		.4byte	0x110
 596 0221 3C       		.byte	0x3c
 597 0222 09       		.uleb128 0x9
 598 0223 D9010000 		.4byte	.LASF44
 599 0227 06       		.byte	0x6
 600 0228 3201     		.2byte	0x132
 601 022a 18030000 		.4byte	0x318
 602 022e 40       		.byte	0x40
 603 022f 00       		.byte	0
 604 0230 04       		.uleb128 0x4
 605 0231 71020000 		.4byte	.LASF45
 606 0235 05       		.byte	0x5
 607 0236 44       		.byte	0x44
 608 0237 3B020000 		.4byte	0x23b
 609 023b 0A       		.uleb128 0xa
 610 023c 04       		.byte	0x4
 611 023d 47010000 		.4byte	0x147
 612 0241 04       		.uleb128 0x4
 613 0242 A1050000 		.4byte	.LASF46
 614 0246 05       		.byte	0x5
 615 0247 49       		.byte	0x49
 616 0248 4C020000 		.4byte	0x24c
 617 024c 05       		.uleb128 0x5
 618 024d D7030000 		.4byte	.LASF48
 619 0251 04       		.byte	0x4
 620 0252 06       		.byte	0x6
 621 0253 88       		.byte	0x88
 622 0254 65020000 		.4byte	0x265
 623 0258 06       		.uleb128 0x6
 624 0259 C9000000 		.4byte	.LASF49
 625 025d 06       		.byte	0x6
 626 025e 89       		.byte	0x89
 627 025f 3B020000 		.4byte	0x23b
 628 0263 00       		.byte	0
 629 0264 00       		.byte	0
 630 0265 04       		.uleb128 0x4
 631 0266 8D040000 		.4byte	.LASF50
 632 026a 05       		.byte	0x5
 633 026b 50       		.byte	0x50
 634 026c 70020000 		.4byte	0x270
 635 0270 05       		.uleb128 0x5
 636 0271 CE000000 		.4byte	.LASF51
 637 0275 08       		.byte	0x8
 638 0276 06       		.byte	0x6
 639 0277 8F       		.byte	0x8f
 640 0278 95020000 		.4byte	0x295
 641 027c 06       		.uleb128 0x6
ARM GAS  /tmp/ccH5o200.s 			page 24


 642 027d C9000000 		.4byte	.LASF49
 643 0281 06       		.byte	0x6
 644 0282 90       		.byte	0x90
 645 0283 3B020000 		.4byte	0x23b
 646 0287 00       		.byte	0
 647 0288 06       		.uleb128 0x6
 648 0289 00000000 		.4byte	.LASF52
 649 028d 06       		.byte	0x6
 650 028e 91       		.byte	0x91
 651 028f 3B020000 		.4byte	0x23b
 652 0293 04       		.byte	0x4
 653 0294 00       		.byte	0
 654 0295 04       		.uleb128 0x4
 655 0296 05000000 		.4byte	.LASF53
 656 029a 05       		.byte	0x5
 657 029b 57       		.byte	0x57
 658 029c A0020000 		.4byte	0x2a0
 659 02a0 0B       		.uleb128 0xb
 660 02a1 1F020000 		.4byte	.LASF54
 661 02a5 1C       		.byte	0x1c
 662 02a6 06       		.byte	0x6
 663 02a7 6A01     		.2byte	0x16a
 664 02a9 FC020000 		.4byte	0x2fc
 665 02ad 09       		.uleb128 0x9
 666 02ae D3010000 		.4byte	.LASF30
 667 02b2 06       		.byte	0x6
 668 02b3 6B01     		.2byte	0x16b
 669 02b5 65020000 		.4byte	0x265
 670 02b9 00       		.byte	0
 671 02ba 09       		.uleb128 0x9
 672 02bb BF020000 		.4byte	.LASF31
 673 02bf 06       		.byte	0x6
 674 02c0 6C01     		.2byte	0x16c
 675 02c2 10010000 		.4byte	0x110
 676 02c6 08       		.byte	0x8
 677 02c7 08       		.uleb128 0x8
 678 02c8 63747800 		.ascii	"ctx\000"
 679 02cc 06       		.byte	0x6
 680 02cd 6E01     		.2byte	0x16e
 681 02cf 62040000 		.4byte	0x462
 682 02d3 0C       		.byte	0xc
 683 02d4 09       		.uleb128 0x9
 684 02d5 4E020000 		.4byte	.LASF32
 685 02d9 06       		.byte	0x6
 686 02da 7101     		.2byte	0x171
 687 02dc 3B020000 		.4byte	0x23b
 688 02e0 10       		.byte	0x10
 689 02e1 09       		.uleb128 0x9
 690 02e2 F9030000 		.4byte	.LASF33
 691 02e6 06       		.byte	0x6
 692 02e7 7201     		.2byte	0x172
 693 02e9 3B020000 		.4byte	0x23b
 694 02ed 14       		.byte	0x14
 695 02ee 09       		.uleb128 0x9
 696 02ef C4020000 		.4byte	.LASF55
 697 02f3 06       		.byte	0x6
 698 02f4 7501     		.2byte	0x175
ARM GAS  /tmp/ccH5o200.s 			page 25


 699 02f6 3B020000 		.4byte	0x23b
 700 02fa 18       		.byte	0x18
 701 02fb 00       		.byte	0
 702 02fc 04       		.uleb128 0x4
 703 02fd 22040000 		.4byte	.LASF56
 704 0301 05       		.byte	0x5
 705 0302 5C       		.byte	0x5c
 706 0303 07030000 		.4byte	0x307
 707 0307 0A       		.uleb128 0xa
 708 0308 04       		.byte	0x4
 709 0309 0D030000 		.4byte	0x30d
 710 030d 0C       		.uleb128 0xc
 711 030e 18030000 		.4byte	0x318
 712 0312 0D       		.uleb128 0xd
 713 0313 18030000 		.4byte	0x318
 714 0317 00       		.byte	0
 715 0318 0E       		.uleb128 0xe
 716 0319 04       		.byte	0x4
 717 031a 04       		.uleb128 0x4
 718 031b F8020000 		.4byte	.LASF57
 719 031f 05       		.byte	0x5
 720 0320 61       		.byte	0x61
 721 0321 25030000 		.4byte	0x325
 722 0325 0B       		.uleb128 0xb
 723 0326 A9030000 		.4byte	.LASF58
 724 032a 14       		.byte	0x14
 725 032b 06       		.byte	0x6
 726 032c 4501     		.2byte	0x145
 727 032e 74030000 		.4byte	0x374
 728 0332 09       		.uleb128 0x9
 729 0333 C9000000 		.4byte	.LASF49
 730 0337 06       		.byte	0x6
 731 0338 4601     		.2byte	0x146
 732 033a FF050000 		.4byte	0x5ff
 733 033e 00       		.byte	0
 734 033f 09       		.uleb128 0x9
 735 0340 00000000 		.4byte	.LASF52
 736 0344 06       		.byte	0x6
 737 0345 4701     		.2byte	0x147
 738 0347 FF050000 		.4byte	0x5ff
 739 034b 04       		.byte	0x4
 740 034c 09       		.uleb128 0x9
 741 034d 18000000 		.4byte	.LASF59
 742 0351 06       		.byte	0x6
 743 0352 4801     		.2byte	0x148
 744 0354 3C010000 		.4byte	0x13c
 745 0358 08       		.byte	0x8
 746 0359 09       		.uleb128 0x9
 747 035a 4B010000 		.4byte	.LASF60
 748 035e 06       		.byte	0x6
 749 035f 4901     		.2byte	0x149
 750 0361 FC020000 		.4byte	0x2fc
 751 0365 0C       		.byte	0xc
 752 0366 08       		.uleb128 0x8
 753 0367 70617200 		.ascii	"par\000"
 754 036b 06       		.byte	0x6
 755 036c 4B01     		.2byte	0x14b
ARM GAS  /tmp/ccH5o200.s 			page 26


 756 036e 18030000 		.4byte	0x318
 757 0372 10       		.byte	0x10
 758 0373 00       		.byte	0
 759 0374 04       		.uleb128 0x4
 760 0375 A6000000 		.4byte	.LASF61
 761 0379 05       		.byte	0x5
 762 037a 66       		.byte	0x66
 763 037b 7F030000 		.4byte	0x37f
 764 037f 0B       		.uleb128 0xb
 765 0380 84020000 		.4byte	.LASF62
 766 0384 10       		.byte	0x10
 767 0385 06       		.byte	0x6
 768 0386 5501     		.2byte	0x155
 769 0388 C1030000 		.4byte	0x3c1
 770 038c 09       		.uleb128 0x9
 771 038d C9000000 		.4byte	.LASF49
 772 0391 06       		.byte	0x6
 773 0392 5601     		.2byte	0x156
 774 0394 FF050000 		.4byte	0x5ff
 775 0398 00       		.byte	0
 776 0399 09       		.uleb128 0x9
 777 039a 00000000 		.4byte	.LASF52
 778 039e 06       		.byte	0x6
 779 039f 5801     		.2byte	0x158
 780 03a1 FF050000 		.4byte	0x5ff
 781 03a5 04       		.byte	0x4
 782 03a6 09       		.uleb128 0x9
 783 03a7 18000000 		.4byte	.LASF59
 784 03ab 06       		.byte	0x6
 785 03ac 5A01     		.2byte	0x15a
 786 03ae 3C010000 		.4byte	0x13c
 787 03b2 08       		.byte	0x8
 788 03b3 09       		.uleb128 0x9
 789 03b4 74030000 		.4byte	.LASF63
 790 03b8 06       		.byte	0x6
 791 03b9 6201     		.2byte	0x162
 792 03bb 3C010000 		.4byte	0x13c
 793 03bf 0C       		.byte	0xc
 794 03c0 00       		.byte	0
 795 03c1 04       		.uleb128 0x4
 796 03c2 4B000000 		.4byte	.LASF64
 797 03c6 05       		.byte	0x5
 798 03c7 6B       		.byte	0x6b
 799 03c8 CC030000 		.4byte	0x3cc
 800 03cc 0B       		.uleb128 0xb
 801 03cd 3E030000 		.4byte	.LASF65
 802 03d1 04       		.byte	0x4
 803 03d2 06       		.byte	0x6
 804 03d3 7C01     		.2byte	0x17c
 805 03d5 E7030000 		.4byte	0x3e7
 806 03d9 09       		.uleb128 0x9
 807 03da 39040000 		.4byte	.LASF66
 808 03de 06       		.byte	0x6
 809 03df 8401     		.2byte	0x184
 810 03e1 05060000 		.4byte	0x605
 811 03e5 00       		.byte	0
 812 03e6 00       		.byte	0
ARM GAS  /tmp/ccH5o200.s 			page 27


 813 03e7 04       		.uleb128 0x4
 814 03e8 0B020000 		.4byte	.LASF67
 815 03ec 05       		.byte	0x5
 816 03ed 70       		.byte	0x70
 817 03ee F2030000 		.4byte	0x3f2
 818 03f2 0B       		.uleb128 0xb
 819 03f3 92030000 		.4byte	.LASF68
 820 03f7 78       		.byte	0x78
 821 03f8 06       		.byte	0x6
 822 03f9 9C01     		.2byte	0x19c
 823 03fb 40040000 		.4byte	0x440
 824 03ff 09       		.uleb128 0x9
 825 0400 A6040000 		.4byte	.LASF69
 826 0404 06       		.byte	0x6
 827 0405 A001     		.2byte	0x1a0
 828 0407 95020000 		.4byte	0x295
 829 040b 00       		.byte	0
 830 040c 09       		.uleb128 0x9
 831 040d FE000000 		.4byte	.LASF70
 832 0411 06       		.byte	0x6
 833 0412 A401     		.2byte	0x1a4
 834 0414 74030000 		.4byte	0x374
 835 0418 1C       		.byte	0x1c
 836 0419 08       		.uleb128 0x8
 837 041a 64626700 		.ascii	"dbg\000"
 838 041e 06       		.byte	0x6
 839 041f A801     		.2byte	0x1a8
 840 0421 C1030000 		.4byte	0x3c1
 841 0425 2C       		.byte	0x2c
 842 0426 09       		.uleb128 0x9
 843 0427 93000000 		.4byte	.LASF71
 844 042b 06       		.byte	0x6
 845 042c AC01     		.2byte	0x1ac
 846 042e 47010000 		.4byte	0x147
 847 0432 30       		.byte	0x30
 848 0433 08       		.uleb128 0x8
 849 0434 746D00   		.ascii	"tm\000"
 850 0437 06       		.byte	0x6
 851 0438 B101     		.2byte	0x1b1
 852 043a 11050000 		.4byte	0x511
 853 043e 74       		.byte	0x74
 854 043f 00       		.byte	0
 855 0440 03       		.uleb128 0x3
 856 0441 04       		.byte	0x4
 857 0442 07       		.byte	0x7
 858 0443 68020000 		.4byte	.LASF72
 859 0447 0F       		.uleb128 0xf
 860 0448 C3000000 		.4byte	0xc3
 861 044c 04       		.uleb128 0x4
 862 044d 71010000 		.4byte	.LASF73
 863 0451 07       		.byte	0x7
 864 0452 65       		.byte	0x65
 865 0453 18030000 		.4byte	0x318
 866 0457 04       		.uleb128 0x4
 867 0458 43020000 		.4byte	.LASF74
 868 045c 07       		.byte	0x7
 869 045d 6D       		.byte	0x6d
ARM GAS  /tmp/ccH5o200.s 			page 28


 870 045e CE000000 		.4byte	0xce
 871 0462 05       		.uleb128 0x5
 872 0463 A1020000 		.4byte	.LASF75
 873 0467 04       		.byte	0x4
 874 0468 07       		.byte	0x7
 875 0469 89       		.byte	0x89
 876 046a 7A040000 		.4byte	0x47a
 877 046e 07       		.uleb128 0x7
 878 046f 737000   		.ascii	"sp\000"
 879 0472 07       		.byte	0x7
 880 0473 8A       		.byte	0x8a
 881 0474 F6040000 		.4byte	0x4f6
 882 0478 00       		.byte	0
 883 0479 00       		.byte	0
 884 047a 0B       		.uleb128 0xb
 885 047b 3F000000 		.4byte	.LASF76
 886 047f 24       		.byte	0x24
 887 0480 08       		.byte	0x8
 888 0481 5901     		.2byte	0x159
 889 0483 F6040000 		.4byte	0x4f6
 890 0487 08       		.uleb128 0x8
 891 0488 723400   		.ascii	"r4\000"
 892 048b 08       		.byte	0x8
 893 048c 6C01     		.2byte	0x16c
 894 048e 4C040000 		.4byte	0x44c
 895 0492 00       		.byte	0
 896 0493 08       		.uleb128 0x8
 897 0494 723500   		.ascii	"r5\000"
 898 0497 08       		.byte	0x8
 899 0498 6D01     		.2byte	0x16d
 900 049a 4C040000 		.4byte	0x44c
 901 049e 04       		.byte	0x4
 902 049f 08       		.uleb128 0x8
 903 04a0 723600   		.ascii	"r6\000"
 904 04a3 08       		.byte	0x8
 905 04a4 6E01     		.2byte	0x16e
 906 04a6 4C040000 		.4byte	0x44c
 907 04aa 08       		.byte	0x8
 908 04ab 08       		.uleb128 0x8
 909 04ac 723700   		.ascii	"r7\000"
 910 04af 08       		.byte	0x8
 911 04b0 6F01     		.2byte	0x16f
 912 04b2 4C040000 		.4byte	0x44c
 913 04b6 0C       		.byte	0xc
 914 04b7 08       		.uleb128 0x8
 915 04b8 723800   		.ascii	"r8\000"
 916 04bb 08       		.byte	0x8
 917 04bc 7001     		.2byte	0x170
 918 04be 4C040000 		.4byte	0x44c
 919 04c2 10       		.byte	0x10
 920 04c3 08       		.uleb128 0x8
 921 04c4 723900   		.ascii	"r9\000"
 922 04c7 08       		.byte	0x8
 923 04c8 7101     		.2byte	0x171
 924 04ca 4C040000 		.4byte	0x44c
 925 04ce 14       		.byte	0x14
 926 04cf 08       		.uleb128 0x8
ARM GAS  /tmp/ccH5o200.s 			page 29


 927 04d0 72313000 		.ascii	"r10\000"
 928 04d4 08       		.byte	0x8
 929 04d5 7201     		.2byte	0x172
 930 04d7 4C040000 		.4byte	0x44c
 931 04db 18       		.byte	0x18
 932 04dc 08       		.uleb128 0x8
 933 04dd 72313100 		.ascii	"r11\000"
 934 04e1 08       		.byte	0x8
 935 04e2 7301     		.2byte	0x173
 936 04e4 4C040000 		.4byte	0x44c
 937 04e8 1C       		.byte	0x1c
 938 04e9 08       		.uleb128 0x8
 939 04ea 6C7200   		.ascii	"lr\000"
 940 04ed 08       		.byte	0x8
 941 04ee 7401     		.2byte	0x174
 942 04f0 4C040000 		.4byte	0x44c
 943 04f4 20       		.byte	0x20
 944 04f5 00       		.byte	0
 945 04f6 0A       		.uleb128 0xa
 946 04f7 04       		.byte	0x4
 947 04f8 7A040000 		.4byte	0x47a
 948 04fc 10       		.uleb128 0x10
 949 04fd 04       		.byte	0x4
 950 04fe 09       		.byte	0x9
 951 04ff 38       		.byte	0x38
 952 0500 11050000 		.4byte	0x511
 953 0504 06       		.uleb128 0x6
 954 0505 51040000 		.4byte	.LASF77
 955 0509 09       		.byte	0x9
 956 050a 3C       		.byte	0x3c
 957 050b E4000000 		.4byte	0xe4
 958 050f 00       		.byte	0
 959 0510 00       		.byte	0
 960 0511 04       		.uleb128 0x4
 961 0512 AE020000 		.4byte	.LASF78
 962 0516 09       		.byte	0x9
 963 0517 3D       		.byte	0x3d
 964 0518 FC040000 		.4byte	0x4fc
 965 051c 11       		.uleb128 0x11
 966 051d 04       		.byte	0x4
 967 051e 06       		.byte	0x6
 968 051f D2       		.byte	0xd2
 969 0520 7F050000 		.4byte	0x57f
 970 0524 12       		.uleb128 0x12
 971 0525 1E000000 		.4byte	.LASF79
 972 0529 06       		.byte	0x6
 973 052a D9       		.byte	0xd9
 974 052b 1B010000 		.4byte	0x11b
 975 052f 12       		.uleb128 0x12
 976 0530 8A000000 		.4byte	.LASF80
 977 0534 06       		.byte	0x6
 978 0535 E0       		.byte	0xe0
 979 0536 1B010000 		.4byte	0x11b
 980 053a 12       		.uleb128 0x12
 981 053b 9A050000 		.4byte	.LASF81
 982 053f 06       		.byte	0x6
 983 0540 E7       		.byte	0xe7
ARM GAS  /tmp/ccH5o200.s 			page 30


 984 0541 18030000 		.4byte	0x318
 985 0545 12       		.uleb128 0x12
 986 0546 12000000 		.4byte	.LASF82
 987 054a 06       		.byte	0x6
 988 054b EE       		.byte	0xee
 989 054c 7F050000 		.4byte	0x57f
 990 0550 12       		.uleb128 0x12
 991 0551 9E000000 		.4byte	.LASF83
 992 0555 06       		.byte	0x6
 993 0556 F3       		.byte	0xf3
 994 0557 1B010000 		.4byte	0x11b
 995 055b 12       		.uleb128 0x12
 996 055c B0010000 		.4byte	.LASF84
 997 0560 06       		.byte	0x6
 998 0561 FC       		.byte	0xfc
 999 0562 AA050000 		.4byte	0x5aa
 1000 0566 13       		.uleb128 0x13
 1001 0567 D0030000 		.4byte	.LASF85
 1002 056b 06       		.byte	0x6
 1003 056c 0501     		.2byte	0x105
 1004 056e E1050000 		.4byte	0x5e1
 1005 0572 13       		.uleb128 0x13
 1006 0573 8B030000 		.4byte	.LASF86
 1007 0577 06       		.byte	0x6
 1008 0578 0D01     		.2byte	0x10d
 1009 057a 26010000 		.4byte	0x126
 1010 057e 00       		.byte	0
 1011 057f 0A       		.uleb128 0xa
 1012 0580 04       		.byte	0x4
 1013 0581 30020000 		.4byte	0x230
 1014 0585 05       		.uleb128 0x5
 1015 0586 BA030000 		.4byte	.LASF87
 1016 058a 0C       		.byte	0xc
 1017 058b 0A       		.byte	0xa
 1018 058c 34       		.byte	0x34
 1019 058d AA050000 		.4byte	0x5aa
 1020 0591 06       		.uleb128 0x6
 1021 0592 D3010000 		.4byte	.LASF30
 1022 0596 0A       		.byte	0xa
 1023 0597 35       		.byte	0x35
 1024 0598 65020000 		.4byte	0x265
 1025 059c 00       		.byte	0
 1026 059d 07       		.uleb128 0x7
 1027 059e 636E7400 		.ascii	"cnt\000"
 1028 05a2 0A       		.byte	0xa
 1029 05a3 37       		.byte	0x37
 1030 05a4 31010000 		.4byte	0x131
 1031 05a8 08       		.byte	0x8
 1032 05a9 00       		.byte	0
 1033 05aa 0A       		.uleb128 0xa
 1034 05ab 04       		.byte	0x4
 1035 05ac 85050000 		.4byte	0x585
 1036 05b0 05       		.uleb128 0x5
 1037 05b1 9D040000 		.4byte	.LASF88
 1038 05b5 10       		.byte	0x10
 1039 05b6 0B       		.byte	0xb
 1040 05b7 39       		.byte	0x39
ARM GAS  /tmp/ccH5o200.s 			page 31


 1041 05b8 E1050000 		.4byte	0x5e1
 1042 05bc 06       		.uleb128 0x6
 1043 05bd D3010000 		.4byte	.LASF30
 1044 05c1 0B       		.byte	0xb
 1045 05c2 3A       		.byte	0x3a
 1046 05c3 65020000 		.4byte	0x265
 1047 05c7 00       		.byte	0
 1048 05c8 06       		.uleb128 0x6
 1049 05c9 E7030000 		.4byte	.LASF89
 1050 05cd 0B       		.byte	0xb
 1051 05ce 3C       		.byte	0x3c
 1052 05cf 3B020000 		.4byte	0x23b
 1053 05d3 08       		.byte	0x8
 1054 05d4 06       		.uleb128 0x6
 1055 05d5 C9000000 		.4byte	.LASF49
 1056 05d9 0B       		.byte	0xb
 1057 05da 3E       		.byte	0x3e
 1058 05db 15060000 		.4byte	0x615
 1059 05df 0C       		.byte	0xc
 1060 05e0 00       		.byte	0
 1061 05e1 0A       		.uleb128 0xa
 1062 05e2 04       		.byte	0x4
 1063 05e3 B0050000 		.4byte	0x5b0
 1064 05e7 0A       		.uleb128 0xa
 1065 05e8 04       		.byte	0x4
 1066 05e9 ED050000 		.4byte	0x5ed
 1067 05ed 14       		.uleb128 0x14
 1068 05ee F2050000 		.4byte	0x5f2
 1069 05f2 03       		.uleb128 0x3
 1070 05f3 01       		.byte	0x1
 1071 05f4 08       		.byte	0x8
 1072 05f5 F4030000 		.4byte	.LASF90
 1073 05f9 0A       		.uleb128 0xa
 1074 05fa 04       		.byte	0x4
 1075 05fb 57040000 		.4byte	0x457
 1076 05ff 0A       		.uleb128 0xa
 1077 0600 04       		.byte	0x4
 1078 0601 1A030000 		.4byte	0x31a
 1079 0605 0F       		.uleb128 0xf
 1080 0606 E7050000 		.4byte	0x5e7
 1081 060a 04       		.uleb128 0x4
 1082 060b 8F010000 		.4byte	.LASF91
 1083 060f 0B       		.byte	0xb
 1084 0610 34       		.byte	0x34
 1085 0611 B0050000 		.4byte	0x5b0
 1086 0615 0A       		.uleb128 0xa
 1087 0616 04       		.byte	0x4
 1088 0617 0A060000 		.4byte	0x60a
 1089 061b 03       		.uleb128 0x3
 1090 061c 01       		.byte	0x1
 1091 061d 02       		.byte	0x2
 1092 061e 4E030000 		.4byte	.LASF92
 1093 0622 10       		.uleb128 0x10
 1094 0623 04       		.byte	0x4
 1095 0624 0C       		.byte	0xc
 1096 0625 E7       		.byte	0xe7
 1097 0626 43060000 		.4byte	0x643
ARM GAS  /tmp/ccH5o200.s 			page 32


 1098 062a 07       		.uleb128 0x7
 1099 062b 73657400 		.ascii	"set\000"
 1100 062f 0C       		.byte	0xc
 1101 0630 E8       		.byte	0xe8
 1102 0631 AD000000 		.4byte	0xad
 1103 0635 00       		.byte	0
 1104 0636 06       		.uleb128 0x6
 1105 0637 9B020000 		.4byte	.LASF93
 1106 063b 0C       		.byte	0xc
 1107 063c E9       		.byte	0xe9
 1108 063d AD000000 		.4byte	0xad
 1109 0641 02       		.byte	0x2
 1110 0642 00       		.byte	0
 1111 0643 11       		.uleb128 0x11
 1112 0644 04       		.byte	0x4
 1113 0645 0C       		.byte	0xc
 1114 0646 E5       		.byte	0xe5
 1115 0647 5E060000 		.4byte	0x65e
 1116 064b 15       		.uleb128 0x15
 1117 064c 5700     		.ascii	"W\000"
 1118 064e 0C       		.byte	0xc
 1119 064f E6       		.byte	0xe6
 1120 0650 C3000000 		.4byte	0xc3
 1121 0654 15       		.uleb128 0x15
 1122 0655 4800     		.ascii	"H\000"
 1123 0657 0C       		.byte	0xc
 1124 0658 EA       		.byte	0xea
 1125 0659 22060000 		.4byte	0x622
 1126 065d 00       		.byte	0
 1127 065e 10       		.uleb128 0x10
 1128 065f 2C       		.byte	0x2c
 1129 0660 0C       		.byte	0xc
 1130 0661 DD       		.byte	0xdd
 1131 0662 EB060000 		.4byte	0x6eb
 1132 0666 06       		.uleb128 0x6
 1133 0667 67000000 		.4byte	.LASF94
 1134 066b 0C       		.byte	0xc
 1135 066c DF       		.byte	0xdf
 1136 066d 47040000 		.4byte	0x447
 1137 0671 00       		.byte	0
 1138 0672 06       		.uleb128 0x6
 1139 0673 38000000 		.4byte	.LASF95
 1140 0677 0C       		.byte	0xc
 1141 0678 E0       		.byte	0xe0
 1142 0679 47040000 		.4byte	0x447
 1143 067d 04       		.byte	0x4
 1144 067e 06       		.uleb128 0x6
 1145 067f 59010000 		.4byte	.LASF96
 1146 0683 0C       		.byte	0xc
 1147 0684 E1       		.byte	0xe1
 1148 0685 47040000 		.4byte	0x447
 1149 0689 08       		.byte	0x8
 1150 068a 06       		.uleb128 0x6
 1151 068b 84000000 		.4byte	.LASF97
 1152 068f 0C       		.byte	0xc
 1153 0690 E2       		.byte	0xe2
 1154 0691 47040000 		.4byte	0x447
ARM GAS  /tmp/ccH5o200.s 			page 33


 1155 0695 0C       		.byte	0xc
 1156 0696 07       		.uleb128 0x7
 1157 0697 49445200 		.ascii	"IDR\000"
 1158 069b 0C       		.byte	0xc
 1159 069c E3       		.byte	0xe3
 1160 069d 47040000 		.4byte	0x447
 1161 06a1 10       		.byte	0x10
 1162 06a2 07       		.uleb128 0x7
 1163 06a3 4F445200 		.ascii	"ODR\000"
 1164 06a7 0C       		.byte	0xc
 1165 06a8 E4       		.byte	0xe4
 1166 06a9 47040000 		.4byte	0x447
 1167 06ad 14       		.byte	0x14
 1168 06ae 06       		.uleb128 0x6
 1169 06af F9000000 		.4byte	.LASF98
 1170 06b3 0C       		.byte	0xc
 1171 06b4 EB       		.byte	0xeb
 1172 06b5 EB060000 		.4byte	0x6eb
 1173 06b9 18       		.byte	0x18
 1174 06ba 06       		.uleb128 0x6
 1175 06bb C9010000 		.4byte	.LASF99
 1176 06bf 0C       		.byte	0xc
 1177 06c0 EC       		.byte	0xec
 1178 06c1 47040000 		.4byte	0x447
 1179 06c5 1C       		.byte	0x1c
 1180 06c6 06       		.uleb128 0x6
 1181 06c7 E6020000 		.4byte	.LASF100
 1182 06cb 0C       		.byte	0xc
 1183 06cc ED       		.byte	0xed
 1184 06cd 47040000 		.4byte	0x447
 1185 06d1 20       		.byte	0x20
 1186 06d2 06       		.uleb128 0x6
 1187 06d3 D3020000 		.4byte	.LASF101
 1188 06d7 0C       		.byte	0xc
 1189 06d8 EE       		.byte	0xee
 1190 06d9 47040000 		.4byte	0x447
 1191 06dd 24       		.byte	0x24
 1192 06de 07       		.uleb128 0x7
 1193 06df 42525200 		.ascii	"BRR\000"
 1194 06e3 0C       		.byte	0xc
 1195 06e4 EF       		.byte	0xef
 1196 06e5 47040000 		.4byte	0x447
 1197 06e9 28       		.byte	0x28
 1198 06ea 00       		.byte	0
 1199 06eb 0F       		.uleb128 0xf
 1200 06ec 43060000 		.4byte	0x643
 1201 06f0 04       		.uleb128 0x4
 1202 06f1 82010000 		.4byte	.LASF102
 1203 06f5 0C       		.byte	0xc
 1204 06f6 F0       		.byte	0xf0
 1205 06f7 5E060000 		.4byte	0x65e
 1206 06fb 16       		.uleb128 0x16
 1207 06fc 5A000000 		.4byte	.LASF103
 1208 0700 0C       		.byte	0xc
 1209 0701 3F01     		.2byte	0x13f
 1210 0703 C3000000 		.4byte	0xc3
 1211 0707 16       		.uleb128 0x16
ARM GAS  /tmp/ccH5o200.s 			page 34


 1212 0708 B8050000 		.4byte	.LASF104
 1213 070c 0C       		.byte	0xc
 1214 070d 4401     		.2byte	0x144
 1215 070f C3000000 		.4byte	0xc3
 1216 0713 16       		.uleb128 0x16
 1217 0714 58040000 		.4byte	.LASF105
 1218 0718 0C       		.byte	0xc
 1219 0719 5101     		.2byte	0x151
 1220 071b 1F070000 		.4byte	0x71f
 1221 071f 0A       		.uleb128 0xa
 1222 0720 04       		.byte	0x4
 1223 0721 F0060000 		.4byte	0x6f0
 1224 0725 10       		.uleb128 0x10
 1225 0726 0C       		.byte	0xc
 1226 0727 0D       		.byte	0xd
 1227 0728 8A       		.byte	0x8a
 1228 0729 52070000 		.4byte	0x752
 1229 072d 06       		.uleb128 0x6
 1230 072e CC020000 		.4byte	.LASF106
 1231 0732 0D       		.byte	0xd
 1232 0733 8E       		.byte	0x8e
 1233 0734 13070000 		.4byte	0x713
 1234 0738 00       		.byte	0
 1235 0739 06       		.uleb128 0x6
 1236 073a 6C010000 		.4byte	.LASF107
 1237 073e 0D       		.byte	0xd
 1238 073f 94       		.byte	0x94
 1239 0740 FB060000 		.4byte	0x6fb
 1240 0744 04       		.byte	0x4
 1241 0745 06       		.uleb128 0x6
 1242 0746 51040000 		.4byte	.LASF77
 1243 074a 0D       		.byte	0xd
 1244 074b 98       		.byte	0x98
 1245 074c D9000000 		.4byte	0xd9
 1246 0750 08       		.byte	0x8
 1247 0751 00       		.byte	0
 1248 0752 04       		.uleb128 0x4
 1249 0753 97010000 		.4byte	.LASF108
 1250 0757 0D       		.byte	0xd
 1251 0758 99       		.byte	0x99
 1252 0759 25070000 		.4byte	0x725
 1253 075d 17       		.uleb128 0x17
 1254 075e C1050000 		.4byte	.LASF120
 1255 0762 01       		.byte	0x1
 1256 0763 41       		.byte	0x41
 1257 0764 FB060000 		.4byte	0x6fb
 1258 0768 00000000 		.4byte	.LFB270
 1259 076c 10000000 		.4byte	.LFE270-.LFB270
 1260 0770 01       		.uleb128 0x1
 1261 0771 9C       		.byte	0x9c
 1262 0772 8F070000 		.4byte	0x78f
 1263 0776 18       		.uleb128 0x18
 1264 0777 62757300 		.ascii	"bus\000"
 1265 077b 01       		.byte	0x1
 1266 077c 41       		.byte	0x41
 1267 077d 8F070000 		.4byte	0x78f
 1268 0781 00000000 		.4byte	.LLST0
ARM GAS  /tmp/ccH5o200.s 			page 35


 1269 0785 19       		.uleb128 0x19
 1270 0786 7D030000 		.4byte	.LASF110
 1271 078a A5070000 		.4byte	0x7a5
 1272 078e 00       		.byte	0
 1273 078f 0A       		.uleb128 0xa
 1274 0790 04       		.byte	0x4
 1275 0791 52070000 		.4byte	0x752
 1276 0795 1A       		.uleb128 0x1a
 1277 0796 F2050000 		.4byte	0x5f2
 1278 079a A5070000 		.4byte	0x7a5
 1279 079e 1B       		.uleb128 0x1b
 1280 079f 40040000 		.4byte	0x440
 1281 07a3 0A       		.byte	0xa
 1282 07a4 00       		.byte	0
 1283 07a5 14       		.uleb128 0x14
 1284 07a6 95070000 		.4byte	0x795
 1285 07aa 1C       		.uleb128 0x1c
 1286 07ab 81040000 		.4byte	.LASF112
 1287 07af 01       		.byte	0x1
 1288 07b0 5A       		.byte	0x5a
 1289 07b1 00000000 		.4byte	.LFB271
 1290 07b5 1E000000 		.4byte	.LFE271-.LFB271
 1291 07b9 01       		.uleb128 0x1
 1292 07ba 9C       		.byte	0x9c
 1293 07bb E5070000 		.4byte	0x7e5
 1294 07bf 18       		.uleb128 0x18
 1295 07c0 62757300 		.ascii	"bus\000"
 1296 07c4 01       		.byte	0x1
 1297 07c5 5A       		.byte	0x5a
 1298 07c6 8F070000 		.4byte	0x78f
 1299 07ca 21000000 		.4byte	.LLST1
 1300 07ce 1D       		.uleb128 0x1d
 1301 07cf 14010000 		.4byte	.LASF109
 1302 07d3 01       		.byte	0x1
 1303 07d4 5A       		.byte	0x5a
 1304 07d5 FB060000 		.4byte	0x6fb
 1305 07d9 01       		.uleb128 0x1
 1306 07da 51       		.byte	0x51
 1307 07db 19       		.uleb128 0x19
 1308 07dc 2B040000 		.4byte	.LASF111
 1309 07e0 F5070000 		.4byte	0x7f5
 1310 07e4 00       		.byte	0
 1311 07e5 1A       		.uleb128 0x1a
 1312 07e6 F2050000 		.4byte	0x5f2
 1313 07ea F5070000 		.4byte	0x7f5
 1314 07ee 1B       		.uleb128 0x1b
 1315 07ef 40040000 		.4byte	0x440
 1316 07f3 0B       		.byte	0xb
 1317 07f4 00       		.byte	0
 1318 07f5 14       		.uleb128 0x14
 1319 07f6 E5070000 		.4byte	0x7e5
 1320 07fa 1C       		.uleb128 0x1c
 1321 07fb D8020000 		.4byte	.LASF113
 1322 07ff 01       		.byte	0x1
 1323 0800 71       		.byte	0x71
 1324 0801 00000000 		.4byte	.LFB272
 1325 0805 16000000 		.4byte	.LFE272-.LFB272
ARM GAS  /tmp/ccH5o200.s 			page 36


 1326 0809 01       		.uleb128 0x1
 1327 080a 9C       		.byte	0x9c
 1328 080b 48080000 		.4byte	0x848
 1329 080f 18       		.uleb128 0x18
 1330 0810 62757300 		.ascii	"bus\000"
 1331 0814 01       		.byte	0x1
 1332 0815 71       		.byte	0x71
 1333 0816 8F070000 		.4byte	0x78f
 1334 081a 42000000 		.4byte	.LLST2
 1335 081e 1E       		.uleb128 0x1e
 1336 081f FF030000 		.4byte	.LASF114
 1337 0823 01       		.byte	0x1
 1338 0824 71       		.byte	0x71
 1339 0825 07070000 		.4byte	0x707
 1340 0829 63000000 		.4byte	.LLST3
 1341 082d 19       		.uleb128 0x19
 1342 082e 43040000 		.4byte	.LASF115
 1343 0832 58080000 		.4byte	0x858
 1344 0836 1F       		.uleb128 0x1f
 1345 0837 16000000 		.4byte	.LVL7
 1346 083b 79080000 		.4byte	0x879
 1347 083f 20       		.uleb128 0x20
 1348 0840 01       		.uleb128 0x1
 1349 0841 52       		.byte	0x52
 1350 0842 03       		.uleb128 0x3
 1351 0843 F3       		.byte	0xf3
 1352 0844 01       		.uleb128 0x1
 1353 0845 51       		.byte	0x51
 1354 0846 00       		.byte	0
 1355 0847 00       		.byte	0
 1356 0848 1A       		.uleb128 0x1a
 1357 0849 F2050000 		.4byte	0x5f2
 1358 084d 58080000 		.4byte	0x858
 1359 0851 1B       		.uleb128 0x1b
 1360 0852 40040000 		.4byte	0x440
 1361 0856 0D       		.byte	0xd
 1362 0857 00       		.byte	0
 1363 0858 14       		.uleb128 0x14
 1364 0859 48080000 		.4byte	0x848
 1365 085d 21       		.uleb128 0x21
 1366 085e BC000000 		.4byte	.LASF116
 1367 0862 0E       		.byte	0xe
 1368 0863 4407     		.2byte	0x744
 1369 0865 69080000 		.4byte	0x869
 1370 0869 0F       		.uleb128 0xf
 1371 086a B8000000 		.4byte	0xb8
 1372 086e 22       		.uleb128 0x22
 1373 086f 636800   		.ascii	"ch\000"
 1374 0872 06       		.byte	0x6
 1375 0873 D201     		.2byte	0x1d2
 1376 0875 E7030000 		.4byte	0x3e7
 1377 0879 23       		.uleb128 0x23
 1378 087a 63040000 		.4byte	.LASF121
 1379 087e 0C       		.byte	0xc
 1380 087f 2402     		.2byte	0x224
 1381 0881 0D       		.uleb128 0xd
 1382 0882 13070000 		.4byte	0x713
ARM GAS  /tmp/ccH5o200.s 			page 37


 1383 0886 0D       		.uleb128 0xd
 1384 0887 FB060000 		.4byte	0x6fb
 1385 088b 0D       		.uleb128 0xd
 1386 088c 07070000 		.4byte	0x707
 1387 0890 00       		.byte	0
 1388 0891 00       		.byte	0
 1389              		.section	.debug_abbrev,"",%progbits
 1390              	.Ldebug_abbrev0:
 1391 0000 01       		.uleb128 0x1
 1392 0001 11       		.uleb128 0x11
 1393 0002 01       		.byte	0x1
 1394 0003 25       		.uleb128 0x25
 1395 0004 0E       		.uleb128 0xe
 1396 0005 13       		.uleb128 0x13
 1397 0006 0B       		.uleb128 0xb
 1398 0007 03       		.uleb128 0x3
 1399 0008 0E       		.uleb128 0xe
 1400 0009 1B       		.uleb128 0x1b
 1401 000a 0E       		.uleb128 0xe
 1402 000b 55       		.uleb128 0x55
 1403 000c 17       		.uleb128 0x17
 1404 000d 11       		.uleb128 0x11
 1405 000e 01       		.uleb128 0x1
 1406 000f 10       		.uleb128 0x10
 1407 0010 17       		.uleb128 0x17
 1408 0011 00       		.byte	0
 1409 0012 00       		.byte	0
 1410 0013 02       		.uleb128 0x2
 1411 0014 24       		.uleb128 0x24
 1412 0015 00       		.byte	0
 1413 0016 0B       		.uleb128 0xb
 1414 0017 0B       		.uleb128 0xb
 1415 0018 3E       		.uleb128 0x3e
 1416 0019 0B       		.uleb128 0xb
 1417 001a 03       		.uleb128 0x3
 1418 001b 08       		.uleb128 0x8
 1419 001c 00       		.byte	0
 1420 001d 00       		.byte	0
 1421 001e 03       		.uleb128 0x3
 1422 001f 24       		.uleb128 0x24
 1423 0020 00       		.byte	0
 1424 0021 0B       		.uleb128 0xb
 1425 0022 0B       		.uleb128 0xb
 1426 0023 3E       		.uleb128 0x3e
 1427 0024 0B       		.uleb128 0xb
 1428 0025 03       		.uleb128 0x3
 1429 0026 0E       		.uleb128 0xe
 1430 0027 00       		.byte	0
 1431 0028 00       		.byte	0
 1432 0029 04       		.uleb128 0x4
 1433 002a 16       		.uleb128 0x16
 1434 002b 00       		.byte	0
 1435 002c 03       		.uleb128 0x3
 1436 002d 0E       		.uleb128 0xe
 1437 002e 3A       		.uleb128 0x3a
 1438 002f 0B       		.uleb128 0xb
 1439 0030 3B       		.uleb128 0x3b
ARM GAS  /tmp/ccH5o200.s 			page 38


 1440 0031 0B       		.uleb128 0xb
 1441 0032 49       		.uleb128 0x49
 1442 0033 13       		.uleb128 0x13
 1443 0034 00       		.byte	0
 1444 0035 00       		.byte	0
 1445 0036 05       		.uleb128 0x5
 1446 0037 13       		.uleb128 0x13
 1447 0038 01       		.byte	0x1
 1448 0039 03       		.uleb128 0x3
 1449 003a 0E       		.uleb128 0xe
 1450 003b 0B       		.uleb128 0xb
 1451 003c 0B       		.uleb128 0xb
 1452 003d 3A       		.uleb128 0x3a
 1453 003e 0B       		.uleb128 0xb
 1454 003f 3B       		.uleb128 0x3b
 1455 0040 0B       		.uleb128 0xb
 1456 0041 01       		.uleb128 0x1
 1457 0042 13       		.uleb128 0x13
 1458 0043 00       		.byte	0
 1459 0044 00       		.byte	0
 1460 0045 06       		.uleb128 0x6
 1461 0046 0D       		.uleb128 0xd
 1462 0047 00       		.byte	0
 1463 0048 03       		.uleb128 0x3
 1464 0049 0E       		.uleb128 0xe
 1465 004a 3A       		.uleb128 0x3a
 1466 004b 0B       		.uleb128 0xb
 1467 004c 3B       		.uleb128 0x3b
 1468 004d 0B       		.uleb128 0xb
 1469 004e 49       		.uleb128 0x49
 1470 004f 13       		.uleb128 0x13
 1471 0050 38       		.uleb128 0x38
 1472 0051 0B       		.uleb128 0xb
 1473 0052 00       		.byte	0
 1474 0053 00       		.byte	0
 1475 0054 07       		.uleb128 0x7
 1476 0055 0D       		.uleb128 0xd
 1477 0056 00       		.byte	0
 1478 0057 03       		.uleb128 0x3
 1479 0058 08       		.uleb128 0x8
 1480 0059 3A       		.uleb128 0x3a
 1481 005a 0B       		.uleb128 0xb
 1482 005b 3B       		.uleb128 0x3b
 1483 005c 0B       		.uleb128 0xb
 1484 005d 49       		.uleb128 0x49
 1485 005e 13       		.uleb128 0x13
 1486 005f 38       		.uleb128 0x38
 1487 0060 0B       		.uleb128 0xb
 1488 0061 00       		.byte	0
 1489 0062 00       		.byte	0
 1490 0063 08       		.uleb128 0x8
 1491 0064 0D       		.uleb128 0xd
 1492 0065 00       		.byte	0
 1493 0066 03       		.uleb128 0x3
 1494 0067 08       		.uleb128 0x8
 1495 0068 3A       		.uleb128 0x3a
 1496 0069 0B       		.uleb128 0xb
ARM GAS  /tmp/ccH5o200.s 			page 39


 1497 006a 3B       		.uleb128 0x3b
 1498 006b 05       		.uleb128 0x5
 1499 006c 49       		.uleb128 0x49
 1500 006d 13       		.uleb128 0x13
 1501 006e 38       		.uleb128 0x38
 1502 006f 0B       		.uleb128 0xb
 1503 0070 00       		.byte	0
 1504 0071 00       		.byte	0
 1505 0072 09       		.uleb128 0x9
 1506 0073 0D       		.uleb128 0xd
 1507 0074 00       		.byte	0
 1508 0075 03       		.uleb128 0x3
 1509 0076 0E       		.uleb128 0xe
 1510 0077 3A       		.uleb128 0x3a
 1511 0078 0B       		.uleb128 0xb
 1512 0079 3B       		.uleb128 0x3b
 1513 007a 05       		.uleb128 0x5
 1514 007b 49       		.uleb128 0x49
 1515 007c 13       		.uleb128 0x13
 1516 007d 38       		.uleb128 0x38
 1517 007e 0B       		.uleb128 0xb
 1518 007f 00       		.byte	0
 1519 0080 00       		.byte	0
 1520 0081 0A       		.uleb128 0xa
 1521 0082 0F       		.uleb128 0xf
 1522 0083 00       		.byte	0
 1523 0084 0B       		.uleb128 0xb
 1524 0085 0B       		.uleb128 0xb
 1525 0086 49       		.uleb128 0x49
 1526 0087 13       		.uleb128 0x13
 1527 0088 00       		.byte	0
 1528 0089 00       		.byte	0
 1529 008a 0B       		.uleb128 0xb
 1530 008b 13       		.uleb128 0x13
 1531 008c 01       		.byte	0x1
 1532 008d 03       		.uleb128 0x3
 1533 008e 0E       		.uleb128 0xe
 1534 008f 0B       		.uleb128 0xb
 1535 0090 0B       		.uleb128 0xb
 1536 0091 3A       		.uleb128 0x3a
 1537 0092 0B       		.uleb128 0xb
 1538 0093 3B       		.uleb128 0x3b
 1539 0094 05       		.uleb128 0x5
 1540 0095 01       		.uleb128 0x1
 1541 0096 13       		.uleb128 0x13
 1542 0097 00       		.byte	0
 1543 0098 00       		.byte	0
 1544 0099 0C       		.uleb128 0xc
 1545 009a 15       		.uleb128 0x15
 1546 009b 01       		.byte	0x1
 1547 009c 27       		.uleb128 0x27
 1548 009d 19       		.uleb128 0x19
 1549 009e 01       		.uleb128 0x1
 1550 009f 13       		.uleb128 0x13
 1551 00a0 00       		.byte	0
 1552 00a1 00       		.byte	0
 1553 00a2 0D       		.uleb128 0xd
ARM GAS  /tmp/ccH5o200.s 			page 40


 1554 00a3 05       		.uleb128 0x5
 1555 00a4 00       		.byte	0
 1556 00a5 49       		.uleb128 0x49
 1557 00a6 13       		.uleb128 0x13
 1558 00a7 00       		.byte	0
 1559 00a8 00       		.byte	0
 1560 00a9 0E       		.uleb128 0xe
 1561 00aa 0F       		.uleb128 0xf
 1562 00ab 00       		.byte	0
 1563 00ac 0B       		.uleb128 0xb
 1564 00ad 0B       		.uleb128 0xb
 1565 00ae 00       		.byte	0
 1566 00af 00       		.byte	0
 1567 00b0 0F       		.uleb128 0xf
 1568 00b1 35       		.uleb128 0x35
 1569 00b2 00       		.byte	0
 1570 00b3 49       		.uleb128 0x49
 1571 00b4 13       		.uleb128 0x13
 1572 00b5 00       		.byte	0
 1573 00b6 00       		.byte	0
 1574 00b7 10       		.uleb128 0x10
 1575 00b8 13       		.uleb128 0x13
 1576 00b9 01       		.byte	0x1
 1577 00ba 0B       		.uleb128 0xb
 1578 00bb 0B       		.uleb128 0xb
 1579 00bc 3A       		.uleb128 0x3a
 1580 00bd 0B       		.uleb128 0xb
 1581 00be 3B       		.uleb128 0x3b
 1582 00bf 0B       		.uleb128 0xb
 1583 00c0 01       		.uleb128 0x1
 1584 00c1 13       		.uleb128 0x13
 1585 00c2 00       		.byte	0
 1586 00c3 00       		.byte	0
 1587 00c4 11       		.uleb128 0x11
 1588 00c5 17       		.uleb128 0x17
 1589 00c6 01       		.byte	0x1
 1590 00c7 0B       		.uleb128 0xb
 1591 00c8 0B       		.uleb128 0xb
 1592 00c9 3A       		.uleb128 0x3a
 1593 00ca 0B       		.uleb128 0xb
 1594 00cb 3B       		.uleb128 0x3b
 1595 00cc 0B       		.uleb128 0xb
 1596 00cd 01       		.uleb128 0x1
 1597 00ce 13       		.uleb128 0x13
 1598 00cf 00       		.byte	0
 1599 00d0 00       		.byte	0
 1600 00d1 12       		.uleb128 0x12
 1601 00d2 0D       		.uleb128 0xd
 1602 00d3 00       		.byte	0
 1603 00d4 03       		.uleb128 0x3
 1604 00d5 0E       		.uleb128 0xe
 1605 00d6 3A       		.uleb128 0x3a
 1606 00d7 0B       		.uleb128 0xb
 1607 00d8 3B       		.uleb128 0x3b
 1608 00d9 0B       		.uleb128 0xb
 1609 00da 49       		.uleb128 0x49
 1610 00db 13       		.uleb128 0x13
ARM GAS  /tmp/ccH5o200.s 			page 41


 1611 00dc 00       		.byte	0
 1612 00dd 00       		.byte	0
 1613 00de 13       		.uleb128 0x13
 1614 00df 0D       		.uleb128 0xd
 1615 00e0 00       		.byte	0
 1616 00e1 03       		.uleb128 0x3
 1617 00e2 0E       		.uleb128 0xe
 1618 00e3 3A       		.uleb128 0x3a
 1619 00e4 0B       		.uleb128 0xb
 1620 00e5 3B       		.uleb128 0x3b
 1621 00e6 05       		.uleb128 0x5
 1622 00e7 49       		.uleb128 0x49
 1623 00e8 13       		.uleb128 0x13
 1624 00e9 00       		.byte	0
 1625 00ea 00       		.byte	0
 1626 00eb 14       		.uleb128 0x14
 1627 00ec 26       		.uleb128 0x26
 1628 00ed 00       		.byte	0
 1629 00ee 49       		.uleb128 0x49
 1630 00ef 13       		.uleb128 0x13
 1631 00f0 00       		.byte	0
 1632 00f1 00       		.byte	0
 1633 00f2 15       		.uleb128 0x15
 1634 00f3 0D       		.uleb128 0xd
 1635 00f4 00       		.byte	0
 1636 00f5 03       		.uleb128 0x3
 1637 00f6 08       		.uleb128 0x8
 1638 00f7 3A       		.uleb128 0x3a
 1639 00f8 0B       		.uleb128 0xb
 1640 00f9 3B       		.uleb128 0x3b
 1641 00fa 0B       		.uleb128 0xb
 1642 00fb 49       		.uleb128 0x49
 1643 00fc 13       		.uleb128 0x13
 1644 00fd 00       		.byte	0
 1645 00fe 00       		.byte	0
 1646 00ff 16       		.uleb128 0x16
 1647 0100 16       		.uleb128 0x16
 1648 0101 00       		.byte	0
 1649 0102 03       		.uleb128 0x3
 1650 0103 0E       		.uleb128 0xe
 1651 0104 3A       		.uleb128 0x3a
 1652 0105 0B       		.uleb128 0xb
 1653 0106 3B       		.uleb128 0x3b
 1654 0107 05       		.uleb128 0x5
 1655 0108 49       		.uleb128 0x49
 1656 0109 13       		.uleb128 0x13
 1657 010a 00       		.byte	0
 1658 010b 00       		.byte	0
 1659 010c 17       		.uleb128 0x17
 1660 010d 2E       		.uleb128 0x2e
 1661 010e 01       		.byte	0x1
 1662 010f 3F       		.uleb128 0x3f
 1663 0110 19       		.uleb128 0x19
 1664 0111 03       		.uleb128 0x3
 1665 0112 0E       		.uleb128 0xe
 1666 0113 3A       		.uleb128 0x3a
 1667 0114 0B       		.uleb128 0xb
ARM GAS  /tmp/ccH5o200.s 			page 42


 1668 0115 3B       		.uleb128 0x3b
 1669 0116 0B       		.uleb128 0xb
 1670 0117 27       		.uleb128 0x27
 1671 0118 19       		.uleb128 0x19
 1672 0119 49       		.uleb128 0x49
 1673 011a 13       		.uleb128 0x13
 1674 011b 11       		.uleb128 0x11
 1675 011c 01       		.uleb128 0x1
 1676 011d 12       		.uleb128 0x12
 1677 011e 06       		.uleb128 0x6
 1678 011f 40       		.uleb128 0x40
 1679 0120 18       		.uleb128 0x18
 1680 0121 9742     		.uleb128 0x2117
 1681 0123 19       		.uleb128 0x19
 1682 0124 01       		.uleb128 0x1
 1683 0125 13       		.uleb128 0x13
 1684 0126 00       		.byte	0
 1685 0127 00       		.byte	0
 1686 0128 18       		.uleb128 0x18
 1687 0129 05       		.uleb128 0x5
 1688 012a 00       		.byte	0
 1689 012b 03       		.uleb128 0x3
 1690 012c 08       		.uleb128 0x8
 1691 012d 3A       		.uleb128 0x3a
 1692 012e 0B       		.uleb128 0xb
 1693 012f 3B       		.uleb128 0x3b
 1694 0130 0B       		.uleb128 0xb
 1695 0131 49       		.uleb128 0x49
 1696 0132 13       		.uleb128 0x13
 1697 0133 02       		.uleb128 0x2
 1698 0134 17       		.uleb128 0x17
 1699 0135 00       		.byte	0
 1700 0136 00       		.byte	0
 1701 0137 19       		.uleb128 0x19
 1702 0138 34       		.uleb128 0x34
 1703 0139 00       		.byte	0
 1704 013a 03       		.uleb128 0x3
 1705 013b 0E       		.uleb128 0xe
 1706 013c 49       		.uleb128 0x49
 1707 013d 13       		.uleb128 0x13
 1708 013e 34       		.uleb128 0x34
 1709 013f 19       		.uleb128 0x19
 1710 0140 00       		.byte	0
 1711 0141 00       		.byte	0
 1712 0142 1A       		.uleb128 0x1a
 1713 0143 01       		.uleb128 0x1
 1714 0144 01       		.byte	0x1
 1715 0145 49       		.uleb128 0x49
 1716 0146 13       		.uleb128 0x13
 1717 0147 01       		.uleb128 0x1
 1718 0148 13       		.uleb128 0x13
 1719 0149 00       		.byte	0
 1720 014a 00       		.byte	0
 1721 014b 1B       		.uleb128 0x1b
 1722 014c 21       		.uleb128 0x21
 1723 014d 00       		.byte	0
 1724 014e 49       		.uleb128 0x49
ARM GAS  /tmp/ccH5o200.s 			page 43


 1725 014f 13       		.uleb128 0x13
 1726 0150 2F       		.uleb128 0x2f
 1727 0151 0B       		.uleb128 0xb
 1728 0152 00       		.byte	0
 1729 0153 00       		.byte	0
 1730 0154 1C       		.uleb128 0x1c
 1731 0155 2E       		.uleb128 0x2e
 1732 0156 01       		.byte	0x1
 1733 0157 3F       		.uleb128 0x3f
 1734 0158 19       		.uleb128 0x19
 1735 0159 03       		.uleb128 0x3
 1736 015a 0E       		.uleb128 0xe
 1737 015b 3A       		.uleb128 0x3a
 1738 015c 0B       		.uleb128 0xb
 1739 015d 3B       		.uleb128 0x3b
 1740 015e 0B       		.uleb128 0xb
 1741 015f 27       		.uleb128 0x27
 1742 0160 19       		.uleb128 0x19
 1743 0161 11       		.uleb128 0x11
 1744 0162 01       		.uleb128 0x1
 1745 0163 12       		.uleb128 0x12
 1746 0164 06       		.uleb128 0x6
 1747 0165 40       		.uleb128 0x40
 1748 0166 18       		.uleb128 0x18
 1749 0167 9742     		.uleb128 0x2117
 1750 0169 19       		.uleb128 0x19
 1751 016a 01       		.uleb128 0x1
 1752 016b 13       		.uleb128 0x13
 1753 016c 00       		.byte	0
 1754 016d 00       		.byte	0
 1755 016e 1D       		.uleb128 0x1d
 1756 016f 05       		.uleb128 0x5
 1757 0170 00       		.byte	0
 1758 0171 03       		.uleb128 0x3
 1759 0172 0E       		.uleb128 0xe
 1760 0173 3A       		.uleb128 0x3a
 1761 0174 0B       		.uleb128 0xb
 1762 0175 3B       		.uleb128 0x3b
 1763 0176 0B       		.uleb128 0xb
 1764 0177 49       		.uleb128 0x49
 1765 0178 13       		.uleb128 0x13
 1766 0179 02       		.uleb128 0x2
 1767 017a 18       		.uleb128 0x18
 1768 017b 00       		.byte	0
 1769 017c 00       		.byte	0
 1770 017d 1E       		.uleb128 0x1e
 1771 017e 05       		.uleb128 0x5
 1772 017f 00       		.byte	0
 1773 0180 03       		.uleb128 0x3
 1774 0181 0E       		.uleb128 0xe
 1775 0182 3A       		.uleb128 0x3a
 1776 0183 0B       		.uleb128 0xb
 1777 0184 3B       		.uleb128 0x3b
 1778 0185 0B       		.uleb128 0xb
 1779 0186 49       		.uleb128 0x49
 1780 0187 13       		.uleb128 0x13
 1781 0188 02       		.uleb128 0x2
ARM GAS  /tmp/ccH5o200.s 			page 44


 1782 0189 17       		.uleb128 0x17
 1783 018a 00       		.byte	0
 1784 018b 00       		.byte	0
 1785 018c 1F       		.uleb128 0x1f
 1786 018d 898201   		.uleb128 0x4109
 1787 0190 01       		.byte	0x1
 1788 0191 11       		.uleb128 0x11
 1789 0192 01       		.uleb128 0x1
 1790 0193 9542     		.uleb128 0x2115
 1791 0195 19       		.uleb128 0x19
 1792 0196 31       		.uleb128 0x31
 1793 0197 13       		.uleb128 0x13
 1794 0198 00       		.byte	0
 1795 0199 00       		.byte	0
 1796 019a 20       		.uleb128 0x20
 1797 019b 8A8201   		.uleb128 0x410a
 1798 019e 00       		.byte	0
 1799 019f 02       		.uleb128 0x2
 1800 01a0 18       		.uleb128 0x18
 1801 01a1 9142     		.uleb128 0x2111
 1802 01a3 18       		.uleb128 0x18
 1803 01a4 00       		.byte	0
 1804 01a5 00       		.byte	0
 1805 01a6 21       		.uleb128 0x21
 1806 01a7 34       		.uleb128 0x34
 1807 01a8 00       		.byte	0
 1808 01a9 03       		.uleb128 0x3
 1809 01aa 0E       		.uleb128 0xe
 1810 01ab 3A       		.uleb128 0x3a
 1811 01ac 0B       		.uleb128 0xb
 1812 01ad 3B       		.uleb128 0x3b
 1813 01ae 05       		.uleb128 0x5
 1814 01af 49       		.uleb128 0x49
 1815 01b0 13       		.uleb128 0x13
 1816 01b1 3F       		.uleb128 0x3f
 1817 01b2 19       		.uleb128 0x19
 1818 01b3 3C       		.uleb128 0x3c
 1819 01b4 19       		.uleb128 0x19
 1820 01b5 00       		.byte	0
 1821 01b6 00       		.byte	0
 1822 01b7 22       		.uleb128 0x22
 1823 01b8 34       		.uleb128 0x34
 1824 01b9 00       		.byte	0
 1825 01ba 03       		.uleb128 0x3
 1826 01bb 08       		.uleb128 0x8
 1827 01bc 3A       		.uleb128 0x3a
 1828 01bd 0B       		.uleb128 0xb
 1829 01be 3B       		.uleb128 0x3b
 1830 01bf 05       		.uleb128 0x5
 1831 01c0 49       		.uleb128 0x49
 1832 01c1 13       		.uleb128 0x13
 1833 01c2 3F       		.uleb128 0x3f
 1834 01c3 19       		.uleb128 0x19
 1835 01c4 3C       		.uleb128 0x3c
 1836 01c5 19       		.uleb128 0x19
 1837 01c6 00       		.byte	0
 1838 01c7 00       		.byte	0
ARM GAS  /tmp/ccH5o200.s 			page 45


 1839 01c8 23       		.uleb128 0x23
 1840 01c9 2E       		.uleb128 0x2e
 1841 01ca 01       		.byte	0x1
 1842 01cb 3F       		.uleb128 0x3f
 1843 01cc 19       		.uleb128 0x19
 1844 01cd 03       		.uleb128 0x3
 1845 01ce 0E       		.uleb128 0xe
 1846 01cf 3A       		.uleb128 0x3a
 1847 01d0 0B       		.uleb128 0xb
 1848 01d1 3B       		.uleb128 0x3b
 1849 01d2 05       		.uleb128 0x5
 1850 01d3 27       		.uleb128 0x27
 1851 01d4 19       		.uleb128 0x19
 1852 01d5 3C       		.uleb128 0x3c
 1853 01d6 19       		.uleb128 0x19
 1854 01d7 00       		.byte	0
 1855 01d8 00       		.byte	0
 1856 01d9 00       		.byte	0
 1857              		.section	.debug_loc,"",%progbits
 1858              	.Ldebug_loc0:
 1859              	.LLST0:
 1860 0000 00000000 		.4byte	.LVL0
 1861 0004 0C000000 		.4byte	.LVL1
 1862 0008 0100     		.2byte	0x1
 1863 000a 50       		.byte	0x50
 1864 000b 0C000000 		.4byte	.LVL1
 1865 000f 10000000 		.4byte	.LFE270
 1866 0013 0400     		.2byte	0x4
 1867 0015 F3       		.byte	0xf3
 1868 0016 01       		.uleb128 0x1
 1869 0017 50       		.byte	0x50
 1870 0018 9F       		.byte	0x9f
 1871 0019 00000000 		.4byte	0
 1872 001d 00000000 		.4byte	0
 1873              	.LLST1:
 1874 0021 00000000 		.4byte	.LVL2
 1875 0025 02000000 		.4byte	.LVL3
 1876 0029 0100     		.2byte	0x1
 1877 002b 50       		.byte	0x50
 1878 002c 02000000 		.4byte	.LVL3
 1879 0030 1E000000 		.4byte	.LFE271
 1880 0034 0400     		.2byte	0x4
 1881 0036 F3       		.byte	0xf3
 1882 0037 01       		.uleb128 0x1
 1883 0038 50       		.byte	0x50
 1884 0039 9F       		.byte	0x9f
 1885 003a 00000000 		.4byte	0
 1886 003e 00000000 		.4byte	0
 1887              	.LLST2:
 1888 0042 00000000 		.4byte	.LVL4
 1889 0046 0A000000 		.4byte	.LVL6
 1890 004a 0100     		.2byte	0x1
 1891 004c 50       		.byte	0x50
 1892 004d 0A000000 		.4byte	.LVL6
 1893 0051 16000000 		.4byte	.LFE272
 1894 0055 0400     		.2byte	0x4
 1895 0057 F3       		.byte	0xf3
ARM GAS  /tmp/ccH5o200.s 			page 46


 1896 0058 01       		.uleb128 0x1
 1897 0059 50       		.byte	0x50
 1898 005a 9F       		.byte	0x9f
 1899 005b 00000000 		.4byte	0
 1900 005f 00000000 		.4byte	0
 1901              	.LLST3:
 1902 0063 00000000 		.4byte	.LVL4
 1903 0067 08000000 		.4byte	.LVL5
 1904 006b 0100     		.2byte	0x1
 1905 006d 51       		.byte	0x51
 1906 006e 08000000 		.4byte	.LVL5
 1907 0072 15000000 		.4byte	.LVL7-1
 1908 0076 0100     		.2byte	0x1
 1909 0078 52       		.byte	0x52
 1910 0079 15000000 		.4byte	.LVL7-1
 1911 007d 16000000 		.4byte	.LFE272
 1912 0081 0400     		.2byte	0x4
 1913 0083 F3       		.byte	0xf3
 1914 0084 01       		.uleb128 0x1
 1915 0085 51       		.byte	0x51
 1916 0086 9F       		.byte	0x9f
 1917 0087 00000000 		.4byte	0
 1918 008b 00000000 		.4byte	0
 1919              		.section	.debug_aranges,"",%progbits
 1920 0000 2C000000 		.4byte	0x2c
 1921 0004 0200     		.2byte	0x2
 1922 0006 00000000 		.4byte	.Ldebug_info0
 1923 000a 04       		.byte	0x4
 1924 000b 00       		.byte	0
 1925 000c 0000     		.2byte	0
 1926 000e 0000     		.2byte	0
 1927 0010 00000000 		.4byte	.LFB270
 1928 0014 10000000 		.4byte	.LFE270-.LFB270
 1929 0018 00000000 		.4byte	.LFB271
 1930 001c 1E000000 		.4byte	.LFE271-.LFB271
 1931 0020 00000000 		.4byte	.LFB272
 1932 0024 16000000 		.4byte	.LFE272-.LFB272
 1933 0028 00000000 		.4byte	0
 1934 002c 00000000 		.4byte	0
 1935              		.section	.debug_ranges,"",%progbits
 1936              	.Ldebug_ranges0:
 1937 0000 00000000 		.4byte	.LFB270
 1938 0004 10000000 		.4byte	.LFE270
 1939 0008 00000000 		.4byte	.LFB271
 1940 000c 1E000000 		.4byte	.LFE271
 1941 0010 00000000 		.4byte	.LFB272
 1942 0014 16000000 		.4byte	.LFE272
 1943 0018 00000000 		.4byte	0
 1944 001c 00000000 		.4byte	0
 1945              		.section	.debug_line,"",%progbits
 1946              	.Ldebug_line0:
 1947 0000 D8020000 		.section	.debug_str,"MS",%progbits,1
 1947      02009802 
 1947      00000201 
 1947      FB0E0D00 
 1947      01010101 
 1948              	.LASF52:
ARM GAS  /tmp/ccH5o200.s 			page 47


 1949 0000 70726576 		.ascii	"prev\000"
 1949      00
 1950              	.LASF53:
 1951 0005 72656164 		.ascii	"ready_list_t\000"
 1951      795F6C69 
 1951      73745F74 
 1951      00
 1952              	.LASF82:
 1953 0012 77747472 		.ascii	"wttrp\000"
 1953      7000
 1954              	.LASF59:
 1955 0018 64656C74 		.ascii	"delta\000"
 1955      6100
 1956              	.LASF79:
 1957 001e 7264796D 		.ascii	"rdymsg\000"
 1957      736700
 1958              	.LASF18:
 1959 0025 75696E74 		.ascii	"uint64_t\000"
 1959      36345F74 
 1959      00
 1960              	.LASF4:
 1961 002e 5F5F7569 		.ascii	"__uint8_t\000"
 1961      6E74385F 
 1961      7400
 1962              	.LASF95:
 1963 0038 4F545950 		.ascii	"OTYPER\000"
 1963      455200
 1964              	.LASF76:
 1965 003f 706F7274 		.ascii	"port_intctx\000"
 1965      5F696E74 
 1965      63747800 
 1966              	.LASF64:
 1967 004b 73797374 		.ascii	"system_debug_t\000"
 1967      656D5F64 
 1967      65627567 
 1967      5F7400
 1968              	.LASF103:
 1969 005a 696F706F 		.ascii	"ioportmask_t\000"
 1969      72746D61 
 1969      736B5F74 
 1969      00
 1970              	.LASF94:
 1971 0067 4D4F4445 		.ascii	"MODER\000"
 1971      5200
 1972              	.LASF13:
 1973 006d 6C6F6E67 		.ascii	"long long unsigned int\000"
 1973      206C6F6E 
 1973      6720756E 
 1973      7369676E 
 1973      65642069 
 1974              	.LASF97:
 1975 0084 50555044 		.ascii	"PUPDR\000"
 1975      5200
 1976              	.LASF80:
 1977 008a 65786974 		.ascii	"exitcode\000"
 1977      636F6465 
 1977      00
ARM GAS  /tmp/ccH5o200.s 			page 48


 1978              	.LASF71:
 1979 0093 6D61696E 		.ascii	"mainthread\000"
 1979      74687265 
 1979      616400
 1980              	.LASF83:
 1981 009e 73656E74 		.ascii	"sentmsg\000"
 1981      6D736700 
 1982              	.LASF61:
 1983 00a6 76697274 		.ascii	"virtual_timers_list_t\000"
 1983      75616C5F 
 1983      74696D65 
 1983      72735F6C 
 1983      6973745F 
 1984              	.LASF116:
 1985 00bc 49544D5F 		.ascii	"ITM_RxBuffer\000"
 1985      52784275 
 1985      66666572 
 1985      00
 1986              	.LASF49:
 1987 00c9 6E657874 		.ascii	"next\000"
 1987      00
 1988              	.LASF51:
 1989 00ce 63685F74 		.ascii	"ch_threads_queue\000"
 1989      68726561 
 1989      64735F71 
 1989      75657565 
 1989      00
 1990              	.LASF11:
 1991 00df 6C6F6E67 		.ascii	"long long int\000"
 1991      206C6F6E 
 1991      6720696E 
 1991      7400
 1992              	.LASF1:
 1993 00ed 7369676E 		.ascii	"signed char\000"
 1993      65642063 
 1993      68617200 
 1994              	.LASF98:
 1995 00f9 42535252 		.ascii	"BSRR\000"
 1995      00
 1996              	.LASF70:
 1997 00fe 76746C69 		.ascii	"vtlist\000"
 1997      737400
 1998              	.LASF40:
 1999 0105 6D736771 		.ascii	"msgqueue\000"
 1999      75657565 
 1999      00
 2000              	.LASF36:
 2001 010e 73746174 		.ascii	"state\000"
 2001      6500
 2002              	.LASF109:
 2003 0114 62697473 		.ascii	"bits\000"
 2003      00
 2004              	.LASF8:
 2005 0119 6C6F6E67 		.ascii	"long int\000"
 2005      20696E74 
 2005      00
 2006              	.LASF22:
ARM GAS  /tmp/ccH5o200.s 			page 49


 2007 0122 74737461 		.ascii	"tstate_t\000"
 2007      74655F74 
 2007      00
 2008              	.LASF118:
 2009 012b 2E2E2F43 		.ascii	"../ChibiOS/os/hal/src/hal_pal.c\000"
 2009      68696269 
 2009      4F532F6F 
 2009      732F6861 
 2009      6C2F7372 
 2010              	.LASF60:
 2011 014b 66756E63 		.ascii	"func\000"
 2011      00
 2012              	.LASF15:
 2013 0150 75696E74 		.ascii	"uint16_t\000"
 2013      31365F74 
 2013      00
 2014              	.LASF96:
 2015 0159 4F535045 		.ascii	"OSPEEDR\000"
 2015      45445200 
 2016              	.LASF9:
 2017 0161 5F5F7569 		.ascii	"__uint32_t\000"
 2017      6E743332 
 2017      5F7400
 2018              	.LASF107:
 2019 016c 6D61736B 		.ascii	"mask\000"
 2019      00
 2020              	.LASF73:
 2021 0171 72656761 		.ascii	"regarm_t\000"
 2021      726D5F74 
 2021      00
 2022              	.LASF39:
 2023 017a 77616974 		.ascii	"waiting\000"
 2023      696E6700 
 2024              	.LASF102:
 2025 0182 73746D33 		.ascii	"stm32_gpio_t\000"
 2025      325F6770 
 2025      696F5F74 
 2025      00
 2026              	.LASF91:
 2027 018f 6D757465 		.ascii	"mutex_t\000"
 2027      785F7400 
 2028              	.LASF108:
 2029 0197 494F4275 		.ascii	"IOBus\000"
 2029      7300
 2030              	.LASF27:
 2031 019d 636E745F 		.ascii	"cnt_t\000"
 2031      7400
 2032              	.LASF0:
 2033 01a3 756E7369 		.ascii	"unsigned int\000"
 2033      676E6564 
 2033      20696E74 
 2033      00
 2034              	.LASF84:
 2035 01b0 77747365 		.ascii	"wtsemp\000"
 2035      6D7000
 2036              	.LASF10:
 2037 01b7 6C6F6E67 		.ascii	"long unsigned int\000"
ARM GAS  /tmp/ccH5o200.s 			page 50


 2037      20756E73 
 2037      69676E65 
 2037      6420696E 
 2037      7400
 2038              	.LASF99:
 2039 01c9 4C434B52 		.ascii	"LCKR\000"
 2039      00
 2040              	.LASF34:
 2041 01ce 6E616D65 		.ascii	"name\000"
 2041      00
 2042              	.LASF30:
 2043 01d3 71756575 		.ascii	"queue\000"
 2043      6500
 2044              	.LASF44:
 2045 01d9 6D706F6F 		.ascii	"mpool\000"
 2045      6C00
 2046              	.LASF6:
 2047 01df 73686F72 		.ascii	"short unsigned int\000"
 2047      7420756E 
 2047      7369676E 
 2047      65642069 
 2047      6E7400
 2048              	.LASF47:
 2049 01f2 63685F74 		.ascii	"ch_thread\000"
 2049      68726561 
 2049      6400
 2050              	.LASF25:
 2051 01fc 6D73675F 		.ascii	"msg_t\000"
 2051      7400
 2052              	.LASF41:
 2053 0202 6570656E 		.ascii	"epending\000"
 2053      64696E67 
 2053      00
 2054              	.LASF67:
 2055 020b 63685F73 		.ascii	"ch_system_t\000"
 2055      79737465 
 2055      6D5F7400 
 2056              	.LASF21:
 2057 0217 746D6F64 		.ascii	"tmode_t\000"
 2057      655F7400 
 2058              	.LASF54:
 2059 021f 63685F72 		.ascii	"ch_ready_list\000"
 2059      65616479 
 2059      5F6C6973 
 2059      7400
 2060              	.LASF26:
 2061 022d 6576656E 		.ascii	"eventmask_t\000"
 2061      746D6173 
 2061      6B5F7400 
 2062              	.LASF7:
 2063 0239 5F5F696E 		.ascii	"__int32_t\000"
 2063      7433325F 
 2063      7400
 2064              	.LASF74:
 2065 0243 73746B61 		.ascii	"stkalign_t\000"
 2065      6C69676E 
 2065      5F7400
ARM GAS  /tmp/ccH5o200.s 			page 51


 2066              	.LASF32:
 2067 024e 6E657765 		.ascii	"newer\000"
 2067      7200
 2068              	.LASF12:
 2069 0254 5F5F7569 		.ascii	"__uint64_t\000"
 2069      6E743634 
 2069      5F7400
 2070              	.LASF43:
 2071 025f 7265616C 		.ascii	"realprio\000"
 2071      7072696F 
 2071      00
 2072              	.LASF72:
 2073 0268 73697A65 		.ascii	"sizetype\000"
 2073      74797065 
 2073      00
 2074              	.LASF45:
 2075 0271 74687265 		.ascii	"thread_reference_t\000"
 2075      61645F72 
 2075      65666572 
 2075      656E6365 
 2075      5F7400
 2076              	.LASF62:
 2077 0284 63685F76 		.ascii	"ch_virtual_timers_list\000"
 2077      69727475 
 2077      616C5F74 
 2077      696D6572 
 2077      735F6C69 
 2078              	.LASF93:
 2079 029b 636C6561 		.ascii	"clear\000"
 2079      7200
 2080              	.LASF75:
 2081 02a1 706F7274 		.ascii	"port_context\000"
 2081      5F636F6E 
 2081      74657874 
 2081      00
 2082              	.LASF78:
 2083 02ae 746D5F63 		.ascii	"tm_calibration_t\000"
 2083      616C6962 
 2083      72617469 
 2083      6F6E5F74 
 2083      00
 2084              	.LASF31:
 2085 02bf 7072696F 		.ascii	"prio\000"
 2085      00
 2086              	.LASF55:
 2087 02c4 63757272 		.ascii	"current\000"
 2087      656E7400 
 2088              	.LASF106:
 2089 02cc 706F7274 		.ascii	"portid\000"
 2089      696400
 2090              	.LASF101:
 2091 02d3 41465248 		.ascii	"AFRH\000"
 2091      00
 2092              	.LASF113:
 2093 02d8 70616C53 		.ascii	"palSetBusMode\000"
 2093      65744275 
 2093      734D6F64 
ARM GAS  /tmp/ccH5o200.s 			page 52


 2093      6500
 2094              	.LASF100:
 2095 02e6 4146524C 		.ascii	"AFRL\000"
 2095      00
 2096              	.LASF23:
 2097 02eb 74726566 		.ascii	"trefs_t\000"
 2097      735F7400 
 2098              	.LASF38:
 2099 02f3 72656673 		.ascii	"refs\000"
 2099      00
 2100              	.LASF57:
 2101 02f8 76697274 		.ascii	"virtual_timer_t\000"
 2101      75616C5F 
 2101      74696D65 
 2101      725F7400 
 2102              	.LASF24:
 2103 0308 74707269 		.ascii	"tprio_t\000"
 2103      6F5F7400 
 2104              	.LASF119:
 2105 0310 2F6E6673 		.ascii	"/nfs/nfs7/home/npalumbo/p442-submissions/lab4\000"
 2105      2F6E6673 
 2105      372F686F 
 2105      6D652F6E 
 2105      70616C75 
 2106              	.LASF65:
 2107 033e 63685F73 		.ascii	"ch_system_debug\000"
 2107      79737465 
 2107      6D5F6465 
 2107      62756700 
 2108              	.LASF92:
 2109 034e 5F426F6F 		.ascii	"_Bool\000"
 2109      6C00
 2110              	.LASF16:
 2111 0354 696E7433 		.ascii	"int32_t\000"
 2111      325F7400 
 2112              	.LASF2:
 2113 035c 756E7369 		.ascii	"unsigned char\000"
 2113      676E6564 
 2113      20636861 
 2113      7200
 2114              	.LASF3:
 2115 036a 73686F72 		.ascii	"short int\000"
 2115      7420696E 
 2115      7400
 2116              	.LASF63:
 2117 0374 6C617374 		.ascii	"lasttime\000"
 2117      74696D65 
 2117      00
 2118              	.LASF110:
 2119 037d 5F5F6675 		.ascii	"__func__.7069\000"
 2119      6E635F5F 
 2119      2E373036 
 2119      3900
 2120              	.LASF86:
 2121 038b 65776D61 		.ascii	"ewmask\000"
 2121      736B00
 2122              	.LASF68:
ARM GAS  /tmp/ccH5o200.s 			page 53


 2123 0392 63685F73 		.ascii	"ch_system\000"
 2123      79737465 
 2123      6D00
 2124              	.LASF19:
 2125 039c 75696E74 		.ascii	"uint_fast8_t\000"
 2125      5F666173 
 2125      74385F74 
 2125      00
 2126              	.LASF58:
 2127 03a9 63685F76 		.ascii	"ch_virtual_timer\000"
 2127      69727475 
 2127      616C5F74 
 2127      696D6572 
 2127      00
 2128              	.LASF87:
 2129 03ba 63685F73 		.ascii	"ch_semaphore\000"
 2129      656D6170 
 2129      686F7265 
 2129      00
 2130              	.LASF17:
 2131 03c7 75696E74 		.ascii	"uint32_t\000"
 2131      33325F74 
 2131      00
 2132              	.LASF85:
 2133 03d0 77746D74 		.ascii	"wtmtxp\000"
 2133      787000
 2134              	.LASF48:
 2135 03d7 63685F74 		.ascii	"ch_threads_list\000"
 2135      68726561 
 2135      64735F6C 
 2135      69737400 
 2136              	.LASF89:
 2137 03e7 6F776E65 		.ascii	"owner\000"
 2137      7200
 2138              	.LASF35:
 2139 03ed 77616261 		.ascii	"wabase\000"
 2139      736500
 2140              	.LASF90:
 2141 03f4 63686172 		.ascii	"char\000"
 2141      00
 2142              	.LASF33:
 2143 03f9 6F6C6465 		.ascii	"older\000"
 2143      7200
 2144              	.LASF114:
 2145 03ff 6D6F6465 		.ascii	"mode\000"
 2145      00
 2146              	.LASF5:
 2147 0404 5F5F7569 		.ascii	"__uint16_t\000"
 2147      6E743136 
 2147      5F7400
 2148              	.LASF29:
 2149 040f 74687265 		.ascii	"thread_t\000"
 2149      61645F74 
 2149      00
 2150              	.LASF28:
 2151 0418 73797374 		.ascii	"systime_t\000"
 2151      696D655F 
ARM GAS  /tmp/ccH5o200.s 			page 54


 2151      7400
 2152              	.LASF56:
 2153 0422 76746675 		.ascii	"vtfunc_t\000"
 2153      6E635F74 
 2153      00
 2154              	.LASF111:
 2155 042b 5F5F6675 		.ascii	"__func__.7074\000"
 2155      6E635F5F 
 2155      2E373037 
 2155      3400
 2156              	.LASF66:
 2157 0439 70616E69 		.ascii	"panic_msg\000"
 2157      635F6D73 
 2157      6700
 2158              	.LASF115:
 2159 0443 5F5F6675 		.ascii	"__func__.7079\000"
 2159      6E635F5F 
 2159      2E373037 
 2159      3900
 2160              	.LASF77:
 2161 0451 6F666673 		.ascii	"offset\000"
 2161      657400
 2162              	.LASF105:
 2163 0458 696F706F 		.ascii	"ioportid_t\000"
 2163      72746964 
 2163      5F7400
 2164              	.LASF121:
 2165 0463 5F70616C 		.ascii	"_pal_lld_setgroupmode\000"
 2165      5F6C6C64 
 2165      5F736574 
 2165      67726F75 
 2165      706D6F64 
 2166              	.LASF20:
 2167 0479 7274636E 		.ascii	"rtcnt_t\000"
 2167      745F7400 
 2168              	.LASF112:
 2169 0481 70616C57 		.ascii	"palWriteBus\000"
 2169      72697465 
 2169      42757300 
 2170              	.LASF50:
 2171 048d 74687265 		.ascii	"threads_queue_t\000"
 2171      6164735F 
 2171      71756575 
 2171      655F7400 
 2172              	.LASF88:
 2173 049d 63685F6D 		.ascii	"ch_mutex\000"
 2173      75746578 
 2173      00
 2174              	.LASF69:
 2175 04a6 726C6973 		.ascii	"rlist\000"
 2175      7400
 2176              	.LASF14:
 2177 04ac 75696E74 		.ascii	"uint8_t\000"
 2177      385F7400 
 2178              	.LASF37:
 2179 04b4 666C6167 		.ascii	"flags\000"
 2179      7300
ARM GAS  /tmp/ccH5o200.s 			page 55


 2180              	.LASF117:
 2181 04ba 474E5520 		.ascii	"GNU C 4.8.4 20140526 (release) [ARM/embedded-4_8-br"
 2181      4320342E 
 2181      382E3420 
 2181      32303134 
 2181      30353236 
 2182 04ed 616E6368 		.ascii	"anch revision 211358] -mcpu=cortex-m4 -mno-thumb-in"
 2182      20726576 
 2182      6973696F 
 2182      6E203231 
 2182      31333538 
 2183 0520 74657277 		.ascii	"terwork -mthumb -ggdb -O2 -fomit-frame-pointer -fal"
 2183      6F726B20 
 2183      2D6D7468 
 2183      756D6220 
 2183      2D676764 
 2184 0553 69676E2D 		.ascii	"ign-functions=16 -ffunction-sections -fdata-section"
 2184      66756E63 
 2184      74696F6E 
 2184      733D3136 
 2184      202D6666 
 2185 0586 73202D66 		.ascii	"s -fno-common -flto\000"
 2185      6E6F2D63 
 2185      6F6D6D6F 
 2185      6E202D66 
 2185      6C746F00 
 2186              	.LASF81:
 2187 059a 77746F62 		.ascii	"wtobjp\000"
 2187      6A7000
 2188              	.LASF46:
 2189 05a1 74687265 		.ascii	"threads_list_t\000"
 2189      6164735F 
 2189      6C697374 
 2189      5F7400
 2190              	.LASF42:
 2191 05b0 6D74786C 		.ascii	"mtxlist\000"
 2191      69737400 
 2192              	.LASF104:
 2193 05b8 696F6D6F 		.ascii	"iomode_t\000"
 2193      64655F74 
 2193      00
 2194              	.LASF120:
 2195 05c1 70616C52 		.ascii	"palReadBus\000"
 2195      65616442 
 2195      757300
 2196              		.comm	__gnu_lto_v1,1,1
 2197              		.ident	"GCC: (GNU Tools for ARM Embedded Processors) 4.8.4 20140526 (release) [ARM/embedded-4_8-br
ARM GAS  /tmp/ccH5o200.s 			page 56


DEFINED SYMBOLS
                            *ABS*:00000000 hal_pal.c
     /tmp/ccH5o200.s:221    .text.palReadBus:00000000 $t
     /tmp/ccH5o200.s:227    .text.palReadBus:00000000 palReadBus
     /tmp/ccH5o200.s:250    .text.palWriteBus:00000000 $t
     /tmp/ccH5o200.s:256    .text.palWriteBus:00000000 palWriteBus
     /tmp/ccH5o200.s:287    .text.palSetBusMode:00000000 $t
     /tmp/ccH5o200.s:293    .text.palSetBusMode:00000000 palSetBusMode
                            *COM*:00000001 __gnu_lto_v1
                     .debug_frame:00000010 $d

UNDEFINED SYMBOLS
_pal_lld_setgroupmode
