ARM GAS  /tmp/ccH5o200.s 			page 1


   1              		.syntax unified
   2              		.cpu cortex-m4
   3              		.fpu softvfp
   4              		.eabi_attribute 20, 1
   5              		.eabi_attribute 21, 1
   6              		.eabi_attribute 23, 3
   7              		.eabi_attribute 24, 1
   8              		.eabi_attribute 25, 1
   9              		.eabi_attribute 26, 1
  10              		.eabi_attribute 30, 2
  11              		.eabi_attribute 34, 1
  12              		.eabi_attribute 18, 4
  13              		.thumb
  14              		.file	"hal_pal.c"
  15              		.text
  16              	.Ltext0:
  17              		.section	.gnu.lto_.jmpfuncs.239bd53966db19e0,"",%progbits
  18 0000 789C6362 		.ascii	"x\234cb`b\300\006D\24043\003##3\02333\204\315\300X\006"
  18      6062C006 
  18      44A03433 
  18      03232333 
  18      13333384 
  19 0018 A4010623 		.ascii	"\244\001\006#\000\243"
  19      00A3
  20              		.text
  21              		.section	.gnu.lto_.inline.239bd53966db19e0,"",%progbits
  22 0000 789C6362 		.ascii	"x\234cb`b\300\006\276Cif\006\006N\016Ff\006F0\023D:"
  22      6062C006 
  22      BE436966 
  22      06064E0E 
  22      46660646 
  23 0018 8049050E 		.ascii	"\200I\005\016\266\017z\014l\013\344\231\030\030_\260"
  23      B60F7A0C 
  23      6C0BE499 
  23      18185FB0 
  24 0028 B3404810 		.ascii	"\263@H\020\301\001fr\200\010\0010S\000d\014#\003\037"
  24      C1016672 
  24      80080130 
  24      5300640C 
  24      23031F
  25 003b 2F230BC4 		.ascii	"/#\013\304\024FF\210\010\320\020\210\201\334L\027\370"
  25      14464688 
  25      08D01088 
  25      81DC4C17 
  25      F8
  26 004c 318C028A 		.ascii	"1\214\002\212\241\030\302\262@^\002\304R`b`\336!\256"
  26      A118C2B2 
  26      405E02C4 
  26      52606260 
  26      DE21AE
  27 005f C000B4DE 		.ascii	"\300\000\264\336\002d\016\023\003\2670\212\373\240\206"
  27      02640E13 
  27      03B7308A 
  27      FBA086
  28 006e 7202E588 		.ascii	"r\002\345\210s\036\320&\011\220I,\274@}\023\374@\220"
  28      731ED026 
  28      0990492C 
ARM GAS  /tmp/ccH5o200.s 			page 2


  28      BC407D13 
  28      FC4090
  29 0081 01003C62 		.ascii	"\001\000<b\037\210"
  29      1F88
  30              		.text
  31              		.section	.gnu.lto_.pureconst.239bd53966db19e0,"",%progbits
  32 0000 789C6362 		.ascii	"x\234cb`b`g\200\000f\006)F)&I\000\001\312\000_"
  32      60626067 
  32      80006606 
  32      29462926 
  32      490001CA 
  33              		.text
  34              		.section	.gnu.lto_palReadBus.239bd53966db19e0,"",%progbits
  35 0000 789C6D90 		.ascii	"x\234m\220\261J\003A\020\206\347\237\275\315\355\245"
  35      B14A0341 
  35      1086E79F 
  35      BDCDEDA5 
  36 0010 B0B70B96 		.ascii	"\260\267\013\226\006\356\036\302\007\2600\202\332\310"
  36      06EE1EC2 
  36      07B03082 
  36      DAC8
  37 001e E58AE420 		.ascii	"\345\212\344 A1\017\2203\227\312*X\211V6\026\026\261"
  37      41310F90 
  37      3397CA2A 
  37      58895636 
  37      1616B1
  38 0031 156CC4C2 		.ascii	"\025l\304\302.A[+\301V|\2058\273\361V\224,\354?\273"
  38      2E415B2B 
  38      C1567C85 
  38      38BBF156 
  38      942CEC3F 
  39 0046 B3F3FD33 		.ascii	"\263\363\3753,\023\323\377\265.\373\014D\033\022\241"
  39      2C13D3FF 
  39      B52EFB0C 
  39      441B12A1 
  40 0056 083C9913 		.ascii	"\010<\231\023\235\032\006\354\201@C\306p\037\256\366"
  40      9D1A06EC 
  40      814043C6 
  40      701FAEF6 
  41 0066 8E1FDF17 		.ascii	"\216\037\337\027\213\351\371\363\315'.\270\316\350\203"
  41      8BE9F9F3 
  41      CD272EB8 
  41      CEE883
  42 0075 14E5A040 		.ascii	"\024\345\240@\004Z\204k\"*\264Wc%\022\011\204\3244."
  42      045A846B 
  42      222AB457 
  42      63251209 
  42      84D4342E 
  43 0089 8A49A30F 		.ascii	"\212I\243\0171\312\234YK\324v\330\005\333\250f4z\273"
  43      31CA9C59 
  43      4BD476D8 
  43      05DBA866 
  43      347ABB
  44 009c FF78418A 		.ascii	"\377xA\212kq\352@5i3\207\276\242K\344\250u\300{\022"
  44      6B71EA40 
  44      35693387 
  44      BEA24BE4 
ARM GAS  /tmp/ccH5o200.s 			page 3


  44      A875C07B 
  45 00b1 4337461B 		.ascii	"C7F\033\325\3603z:\250\200\240I\267\305X\212\314\222"
  45      D5F0337A 
  45      3AA880A0 
  45      49B7C558 
  45      8ACC92
  46 00c4 89C4C332 		.ascii	"\211\304\3032\372\207\201gF\236\321\256I}u\023\376\005"
  46      FA878167 
  46      469ED1AE 
  46      497D7513 
  46      FE05
  47 00d6 BE544548 		.ascii	"\276TEH\221\266\251r\352S\241\364\226\207\277\316\306"
  47      91B6A972 
  47      EA53A1F4 
  47      9687BFCE 
  47      C6
  48 00e7 3907AB9D 		.ascii	"9\007\253\235\225w.\037\312\265\012\211\234\225!z%\377"
  48      95772E1F 
  48      CAB50A89 
  48      9C95217A 
  48      25FF
  49 00f9 0BD1B2B0 		.ascii	"\013\321\262\260%\323\313'\331\211\032q\234lu\363v\276"
  49      25D3CB27 
  49      D9891A71 
  49      9C6C75F3 
  49      76BE
  50 010b BD931C0D 		.ascii	"\275\223\034\015\222n\332K\006'\231\215\207\307i/\316"
  50      926EDA4B 
  50      0627998D 
  50      87C7692F 
  50      CE
  51 011c E81B423D 		.ascii	"\350\033B=U_"
  51      555F
  52              		.text
  53              		.section	.gnu.lto_palWriteBus.239bd53966db19e0,"",%progbits
  54 0000 789C6D51 		.ascii	"x\234mQ=O\302P\024\275\367\275RJ\371\322M7\242\233$"
  54      3D4FC250 
  54      14BDF7BD 
  54      524AF9D2 
  54      4D37A29B 
  55 0015 ED0F7074 		.ascii	"\355\017ptrr\020\023u1\320\001\232@4\362\003\000epd"
  55      72721013 
  55      7531D001 
  55      9A4034F2 
  55      03006570 
  56 002a 96C9D544 		.ascii	"\226\311\325D]\\\214&\032\0077M\334\214\023\277@\027"
  56      5D5C8C26 
  56      1A07374D 
  56      DC8C13BF 
  56      4017
  57 003c 47133CF7 		.ascii	"G\023<\367\225\226Hh\322s\357;\357\336s\317m\025)\232"
  57      95964868 
  57      D273EF3B 
  57      EFDE73CF 
  57      6D15299A 
  58 0050 7D96F1AE 		.ascii	"}\226\361\256\203^AdM\254\006oD=G1KBL\035\305\235=6"
  58      835E4164 
ARM GAS  /tmp/ccH5o200.s 			page 4


  58      4DAC066F 
  58      443D4731 
  58      4B424C1D 
  59 0068 B537EA69 		.ascii	"\2657\352i4\036_\377\274\334\376\362P-*n1i\012\231,"
  59      341E5FFF 
  59      BCDCFEF2 
  59      502D2A6E 
  59      31690A99 
  60 007d 649C42C6 		.ascii	"d\234B\306\266@Z\300\001\250\214\200\013\320Y\341r\002"
  60      B6405AC0 
  60      01A88C80 
  60      0BD059E1 
  60      7202
  61 008f 79391624 		.ascii	"y9\026$+\012@7E\375nwPj1|\004fT\005(\363w@!\352W:\371"
  61      2B0A4037 
  61      45FD6E77 
  61      506A317C 
  61      04665405 
  62 00ac FCF85EAA 		.ascii	"\374\370^\252\362\005\306\324Y\227i-dkH\347\034r\252"
  62      F205C6D4 
  62      5997692D 
  62      646B48E7 
  62      1C72AA
  63 00bf CE6A17D1 		.ascii	"\316j\027\3216\036k\034o\206\236\007\035w\240\3102\324"
  63      361E6B1C 
  63      6F869E07 
  63      1D77A0C8 
  63      32D4
  64 00d1 7ECCD846 		.ascii	"~\314\330F#=_\203\023\215\323\373D#md\354\3772\216\221"
  64      233D5F83 
  64      138DD3FB 
  64      44236D64 
  64      ECFF328E 
  65 00e6 71E6CBA8 		.ascii	"q\346\313\250\251\314Y\"\223A\223\024\251\205\310\344"
  65      A9CC5922 
  65      93419314 
  65      A985C8E4 
  66 00f6 5772E3E2 		.ascii	"Wr\343\342\322\024_%T\326\214ug\234\344\260M\354d\332"
  66      D2145F25 
  66      54D68C75 
  66      679CE4B0 
  66      4DEC64DA 
  67 010a 9E87F04C 		.ascii	"\236\207\360L{\301\324\346\015{\227\260E\243[\020\366"
  67      7BC1D4E6 
  67      0D7B97B0 
  67      45A35B10 
  67      F6
  68 011b 793322CB 		.ascii	"y3\"\313t\331\355\303T&N\334h#\324i1kM6\322\223\030"
  68      74D9EDC3 
  68      54264EDC 
  68      6823D469 
  68      316B4D36 
  69 0132 9D2145F4 		.ascii	"\235!E\364N\275\321\343j$\023?\025|A\3747\331\277\344"
  69      4EBDD1E3 
  69      6A24133F 
  69      157C41FC 
  69      37D9BFE4 
ARM GAS  /tmp/ccH5o200.s 			page 5


  70 0146 79FE4623 		.ascii	"y\376F#\254\205[\333\376a\333oT\233~\3738\220xpTmz\001"
  70      AC855BDB 
  70      FE61DB6F 
  70      549B7EFB 
  70      38907870 
  71 015e FD013DC0 		.ascii	"\375\001=\300u\326"
  71      75D6
  72              		.text
  73              		.section	.gnu.lto_palSetBusMode.239bd53966db19e0,"",%progbits
  74 0000 789C6D90 		.ascii	"x\234m\220\277J\003A\020\306\277o\366\376\231\312R\273"
  74      BF4A0341 
  74      10C6BF6F 
  74      F6FE99CA 
  74      52BB
  75 0012 A09DC2DD 		.ascii	"\240\235\302\335C\370\000\026FP\033\271\034xYHPLi\221"
  75      43F80016 
  75      46501BB9 
  75      1C785948 
  75      504C6991 
  76 0026 8B5A58A6 		.ascii	"\213ZX\246V\020|\000Mkig\245\242\245U\036@\362\000Z"
  76      56107C00 
  76      4D6B6967 
  76      A5A2A555 
  76      1E40F200 
  77 003b C4D98BA7 		.ascii	"\304\331\213\247 7\260\363\355\316\316ofv\005\202\377"
  77      2037B0F3 
  77      EDCECE6F 
  77      66760582 
  77      FF
  78 004c B6ACEB80 		.ascii	"\266\254\353\200\300\212*\015(\243g`\030\011\3516 \006"
  78      C08A2A0D 
  78      28A36760 
  78      1809E936 
  78      2006
  79 005e C2C12ECB 		.ascii	"\302\301.\313\334\261<Lf\263\273\267\307\361\007\257"
  79      DCB13C4C 
  79      66B3BBB7 
  79      C7F107AF 
  80 006e A521EC11 		.ascii	"\245!\354\021\006\226\360\324\321W'\201:\023\272c\244"
  80      0696F0D4 
  80      D1572781 
  80      3A13BA63 
  80      A4
  81 007f B70EF371 		.ascii	"\267\016\363q^\024\243f\217\332;+\353\264\324\273\342"
  81      5E14A366 
  81      8FDA3B2B 
  81      EBB4D4BB 
  81      E2
  82 0090 DB1A5235 		.ascii	"\333\032R5O8}\277\377ZJy\2435r\232u\254YzW\270\244\245"
  82      4F387DBF 
  82      FF5A4A79 
  82      A335729A 
  82      75AC597A 
  83 00a8 9F537654 		.ascii	"\237SvT\203r\2006\253\261\225\331\253\000\257\004\302"
  83      83728036 
  83      ABB195D9 
  83      AB00AF04 
ARM GAS  /tmp/ccH5o200.s 			page 6


  83      C2
  84 00b9 7A803580 		.ascii	"z\2005\200_\002Q= \177\300\324TD\240\220\013\235\335"
  84      5F02513D 
  84      207FC0D4 
  84      5444A090 
  84      0B9DDD
  85 00cc FE86426D 		.ascii	"\376\206Bm\234;\352\005\301<\006\234\340\263\270(\026"
  85      9C3BEA05 
  85      C13C069C 
  85      E0B3B828 
  85      16
  86 00dd 2D17B29F 		.ascii	"-\027\262\237\306\372\23425\262l\000\257\030N\246\253"
  86      C6FA9C32 
  86      35B26C00 
  86      AF184EA6 
  86      AB
  87 00ee 55F6DC5A 		.ascii	"U\366\334Z\232\251\277\340\3326\3438\331\350\330\266"
  87      9AA9BFE0 
  87      DA36E338 
  87      D9E8D8B6 
  88 00fe DDDC4A0E 		.ascii	"\335\334J\016\373I'\355&\375\343\314\351\376Q\332\215"
  88      FB4927ED 
  88      26FDE3CC 
  88      E9FE51DA 
  88      8D
  89 010f 337C03C4 		.ascii	"3|\003\304~P\016"
  89      7E500E
  90              		.text
  91              		.section	.gnu.lto_.symbol_nodes.239bd53966db19e0,"",%progbits
  92 0000 789C4DC7 		.ascii	"x\234M\307\261\015\2000\024CA\373\375\331\230\313)\251"
  92      B10D8030 
  92      144341FB 
  92      FDD998CB 
  92      29A9
  93 0012 20123D0D 		.ascii	" \022=\015\373\260C\026A\024 \301u\207\320\244\027\013"
  93      FBB04316 
  93      411420C1 
  93      7587D0A4 
  93      170B
  94 0024 91FA2925 		.ascii	"\221\372)%\373lV\342_;\341\2537RO[sQ:\306e\335\315%"
  94      FB6C56E2 
  94      5F3BE1AB 
  94      37524F5B 
  94      73513AC6 
  95 003c 148D     		.ascii	"\024\215"
  96              		.text
  97              		.section	.gnu.lto_.refs.239bd53966db19e0,"",%progbits
  98 0000 789C6362 		.ascii	"x\234cb`b`d\200\002\000\000F\000\006"
  98      60626064 
  98      80020000 
  98      460006
  99              		.text
 100              		.section	.gnu.lto_.decls.239bd53966db19e0,"",%progbits
 101 0000 789CBD58 		.ascii	"x\234\275Xkl\024U\024\276wv\267t\313R\012\010)\211\221"
 101      6B6C1455 
 101      14BE7776 
 101      B774CB52 
ARM GAS  /tmp/ccH5o200.s 			page 7


 101      0A082989 
 102 0015 C5802184 		.ascii	"\305\200!\204v\241 \217?D\241H\211\3056[\010\030\177"
 102      76A1208F 
 102      3F44A148 
 102      89C5365B 
 102      08187F
 103 0028 8CD3DD29 		.ascii	"\214\323\335)\335\330v\353\356TCb\342-E$$@)\3620 \264"
 103      DDD876EB 
 103      EE544362 
 103      E22D4524 
 103      244029F2 
 104 003f 542C1203 		.ascii	"T,\022\003\362(/\013.\204G)\204%\020A\023\214+\217\020"
 104      F2282F0B 
 104      2E844729 
 104      84251041 
 104      138C2B8F 
 105 0054 02262010 		.ascii	"\002& \020\001-\353\271wfvg\246;\373 \321M\316\335;"
 105      012DEBB9 
 105      77667667 
 105      A63BFB20 
 105      D14DCEDD 
 106 0069 33F77CE7 		.ascii	"3\367|\347;\217\373\230\341\020\207>\301\010E\341\267"
 106      3B8FFB98 
 106      E110873E 
 106      C10845E1 
 106      B7
 107 007a F825844E 		.ascii	"\370%\204Nq\010Y\021B\323Q\374G\257\333@\036\201\364"
 107      71085911 
 107      42D351FC 
 107      47AFDB40 
 107      1E81F4
 108 008d 82D831EA 		.ascii	"\202\3301\352\363\243\317\373\203\334\006\351\007bS"
 108      F3A3CFFB 
 108      83DC06E9 
 108      076253
 109 009c F4DA413A 		.ascii	"\364\332A:Av\203\354\002\351\0029\000rOy\276\037\344"
 109      417683EC 
 109      02E90239 
 109      00724F79 
 109      BE1FE4
 110 00af 24C85D90 		.ascii	"$\310]\220; X\301\002\032\350\001\310@\203-\312\301"
 110      3B2058C1 
 110      021AE801 
 110      C840832D 
 110      CAC1
 111 00c1 91C08ED6 		.ascii	"\221\300\216\326F\273\202Om\235U\354\331\024[w\024["
 111      46BB824F 
 111      6D9D55EC 
 111      D9145B77 
 111      145B
 112 00d3 DD20E715 		.ascii	"\335 \347\025{\024\323\002\362\024\344\031\310p\203"
 112      7B14D302 
 112      F214E419 
 112      C87083
 113 00e2 CD5E13DF 		.ascii	"\315^\023\337\022\331|\005ts\260\214\247\265\307ibG"
 113      12D97C05 
 113      7473B08C 
ARM GAS  /tmp/ccH5o200.s 			page 8


 113      A7B5C769 
 113      6247
 114 00f4 9FD9E03F 		.ascii	"\237\331\340?\013d\204\301\326\010\264\205\264F\"\333"
 114      0B6484C1 
 114      D608B485 
 114      B44622DB 
 115 0104 AFDFC75F 		.ascii	"\257\337\307_\222\320R\022\215~\212\206\241u\004~\255"
 115      92D05212 
 115      8D7E8A86 
 115      A175047E 
 115      AD
 116 0115 CB08C192 		.ascii	"\313\010\301\222\035-'d\011\275(\351\316Eh!\026p\256"
 116      1D2D2764 
 116      09BD28E9 
 116      CE456821 
 116      1670AE
 117 0128 1D3959C7 		.ascii	"\0359Y\307ag\274F\243\257\011i\216l\350\355\030KH\266"
 117      6167BC46 
 117      A3AF0969 
 117      8E6CE8ED 
 117      184B48B6 
 118 013c 80DBB11D 		.ascii	"\200\333\261\035\354\277\207\321X\364-\3404\203\376"
 118      ECBF87D1 
 118      58F42DE0 
 118      3483FE
 119 014b E4042944 		.ascii	"\344\004)D\351C\377\370\371\251\343x\011\320\021p\007"
 119      E943FFF8 
 119      F9A9E378 
 119      09D01170 
 119      07
 120 015c 03BF8131 		.ascii	"\003\277\2011\022\3607xl\306P\207WwMc,w2\240\007\234"
 120      12F03778 
 120      6CC65087 
 120      57774D63 
 120      2C7732A0 
 121 0172 1E48C0FD 		.ascii	"\036H\300\375\354Z\216\354Z\035@\321\330c\245C\213x"
 121      EC5A8EEC 
 121      5A1D40D1 
 121      D863A543 
 121      8B78
 122 0184 20FA8F87 		.ascii	" \372\217\207'\362\205jn\303\303X\317\302r\015\005\263"
 122      27F2856A 
 122      6EC3C358 
 122      CFC2720D 
 122      05B3
 123 0196 221E81C1 		.ascii	"\"\036\201\301h\015\315\240S\023\213\367U}G<\026O\257"
 123      680DCDA0 
 123      53138BF7 
 123      557D473C 
 123      164FAF
 124 01a9 5E2B62B1 		.ascii	"^+b\261\330\215\007\003J\233E\037\213T(\224\305^\320"
 124      D88D0703 
 124      4A9B451F 
 124      8B542894 
 124      C55ED0
 125 01bc 94751826 		.ascii	"\224u\030&\011u\3668\210U\276\217th\272\337H\324\012"
 125      0975F638 
ARM GAS  /tmp/ccH5o200.s 			page 9


 125      8855BE8F 
 125      7468BADF 
 125      48D40A
 126 01cf 6C43477B 		.ascii	"lCG{6\017'\255'p*\362\021N\265;NSom[-\214\375\001\306"
 126      360F27AD 
 126      27702AF2 
 126      114EB53B 
 126      4E536F6D 
 127 01e9 BE23357B 		.ascii	"\276#5{=\014\245w\330H\377\357\013\214\376\341\324\364"
 127      3D0CA577 
 127      D848FFEF 
 127      0B8CFEE1 
 127      D4F4
 128 01fb 973685A2 		.ascii	"\2276\205\242\027d\372\254\372\232\222V\237\200w\340"
 128      1764FAAC 
 128      FA9A9256 
 128      9F8077E0 
 129 020b D169E59B 		.ascii	"\321i\345\233C\373\231'\224B\"$\245+\377\224\001zZ\315"
 129      43FB9927 
 129      94422224 
 129      A52BFF94 
 129      017A5ACD 
 130 021f 6147B320 		.ascii	"aG\263 \340.V\340G2\006s\352\300Z\264`\307\323\001\313"
 130      E02E56E0 
 130      47320673 
 130      EAC05AB4 
 130      60C7D301 
 131 0234 3667F685 		.ascii	"6g\366\205\026\354l\306`zf\353\265`\341t\300\362\314"
 131      16EC6CC6 
 131      607A66EB 
 131      B560E174 
 131      C0F2CC
 132 0247 996DD482 		.ascii	"\231m\324\202]\316\030L\313\2541t0\334\203I\213c\010"
 132      5DCE184C 
 132      CBAC3174 
 132      30DC8349 
 132      8B6308
 133 025a 6A21A491 		.ascii	"j!\244\221\264f\231\025\005Bl\010I:D\300=x\210\276H"
 133      B4669915 
 133      05426C08 
 133      493A44C0 
 133      3D7888BE 
 134 026f 37ADCEA5 		.ascii	"7\255\316\245EJ\357\247\236c_\205\345\"U\227\316\253"
 134      454AEFA7 
 134      9E635F85 
 134      E5225597 
 134      CEAB
 135 0281 CC39AAFB 		.ascii	"\3149\252\373\002\325E'x\270?Y\341PfW\353\033;\222\020"
 135      02D54527 
 135      78B83F59 
 135      E1506657 
 135      EB1B3B92 
 136 0296 0F1B67D7 		.ascii	"\017\033g\327\3260\347\224o\247\346\275'\2749\237\264"
 136      D630E794 
 136      6FA7E6BD 
 136      27BC399F 
 136      B4
ARM GAS  /tmp/ccH5o200.s 			page 10


 137 02a7 1EC7CAD2 		.ascii	"\036\307\312\322N\226\2211\032[y\252-\272\370\305v\211"
 137      4E969131 
 137      1A5B79AA 
 137      2DBAF8C5 
 137      7689
 138 02b9 83E3D882 		.ascii	"\203\343\330\202p\2119\372\213%\341\036\221\006\320"
 138      708939FA 
 138      8B25E11E 
 138      9106D0
 139 02c8 E1D51DF2 		.ascii	"\341\325\035\362\036\361\023\003\272n1\356\021\026\303"
 139      1EF11303 
 139      BA6E31EE 
 139      1116C3
 140 02d7 1E61D1CF 		.ascii	"\036a\321\317j\213=\336\211F-(\263\301\034\372\203\031"
 140      6A8B3DDE 
 140      89462D28 
 140      B3C11CFA 
 140      8319
 141 02e9 0CC7EB4F 		.ascii	"\014\307\353OG2U\212\226D\326\337\332\302B\247F\342"
 141      4732558A 
 141      9644D6DF 
 141      DAC242A7 
 141      46E2
 142 02fb 41C67879 		.ascii	"A\306xy\206\234p\350\257\027-\033\215\347\262\323\002"
 142      869C70E8 
 142      AF172D1B 
 142      8DE7B2D3 
 142      02
 143 030c 3E8F4742 		.ascii	">\217GB{\001Z\215\201\247\351L\272|\023\247a\006\037"
 143      7B015A8D 
 143      81A7E94C 
 143      BA7C13A7 
 143      61061F
 144 031f D2CEE0E7 		.ascii	"\322\316\340\347\031\2039u`G\264`M\3264\300\234\346"
 144      19833975 
 144      6047B460 
 144      4DD634C0 
 144      9CE6
 145 0331 CCBAB460 		.ascii	"\314\272\264`\3133\006\3233;\246\005[\231\016\330\230"
 145      CB3306D3 
 145      333BA605 
 145      5B990ED8 
 145      98
 146 0342 6449D1E5 		.ascii	"dI\321\345'\276\033\012\370\010\333\256~`\231:\306\332"
 146      27BE1B0A 
 146      F808DBAE 
 146      7E60993A 
 146      C6DA
 147 0354 106B4FB0 		.ascii	"\020kO\260\366$kO\263\266\233\265\277\262\3667\326\376"
 147      F6246B4F 
 147      B3B69BB5 
 147      BFB2F637 
 147      D6FE
 148 0366 CEDA1BDA 		.ascii	"\316\332\033\332\374\232\237\310B\227\327\277LW\263"
 148      FC9A9FC8 
 148      4297D7BF 
 148      4C57B3
ARM GAS  /tmp/ccH5o200.s 			page 11


 149 0375 4E380570 		.ascii	"N8\005ph\215U?\327t'\003y\2537[mn\003@\342E\245\317"
 149      688D553F 
 149      D7742703 
 149      79AB375B 
 149      6D6E0340 
 150 038d 330E6D66 		.ascii	"3\016mfv\366\276\330\036\013S\354\351\206+-xm\023\351"
 150      76F6BED8 
 150      1E0B53EC 
 150      E9862B2D 
 150      786D13E9 
 151 03a1 1EAF9E77 		.ascii	"\036\257\236w\3333Ftj\021C\367{ \261\231\034\211o>\300"
 151      DB334674 
 151      6A1143F7 
 151      7B20B199 
 151      1C896F3E 
 152 03b6 4DEC487C 		.ascii	"M\354H|\217\331\337a5\256R6\303*e\323/<6{\274\023;{"
 152      8FD9DF61 
 152      35AE5236 
 152      C32A65D3 
 152      2F3C367B 
 153 03ce 74A6E345 		.ascii	"t\246\343E\242\035>qE\355\325T\324>VQ\373Ym\334a\355"
 153      A21D3E71 
 153      45EDD554 
 153      D43E5651 
 153      FB596DDC 
 154 03e4 DD541542 		.ascii	"\335T\025B!v\341\376q\274\371\361\305\224C]\006\217"
 154      2176E1FE 
 154      71BCF9F1 
 154      C594435D 
 154      068F
 155 03f6 47A17642 		.ascii	"G\241vBZ\340]&d\205w\031\253\254\312\2413lX\033\036"
 155      5AE05D26 
 155      64857719 
 155      ABACCAA1 
 155      336C581B 
 156 040b 61723053 		.ascii	"ar0S\014\274\206\266\323\320\037\275Y^\"\247\024%\321"
 156      0CBC86B6 
 156      D3D01FBD 
 156      595E22A7 
 156      1425D1
 157 041e 52E8DCC7 		.ascii	"R\350\334\307\234\326_\371e*\364x\3319\330\376\311?"
 157      9CD65FF9 
 157      652AF478 
 157      D939D8FE 
 157      C93F
 158 0430 7435D7BD 		.ascii	"t5\327\275K\011x\372PS?\037\353\317\3632\257\330\205"
 158      4B0978FA 
 158      50533F1F 
 158      EBCFF332 
 158      AFD885
 159 0443 4CC81881 		.ascii	"L\310\030\201s\011#@\036zKdu\001\377\011\014\005\374"
 159      73092340 
 159      1E7A4B64 
 159      7501FF09 
 159      0C05FC
 160 0456 28B9F38A 		.ascii	"(\271\363\212\332A\261D-\346\253\014\330\\M\241\303"
 160      DA41B144 
ARM GAS  /tmp/ccH5o200.s 			page 12


 160      2DE6AB0C 
 160      D85C4DA1 
 160      C3
 161 0467 6246C84A 		.ascii	"bF\310J\362Y\036f\316!EKW\004O\022F\351\322\031Gsc$"
 161      F2591E66 
 161      CE21454B 
 161      57044F12 
 161      46E9D219 
 162 047f 1A1D917E 		.ascii	"\032\035\221~\210\236'\011Q\006\357\251{\276\223\337"
 162      889E2709 
 162      5106EFA9 
 162      7BBE93DF 
 163 048f 531B39EA 		.ascii	"S\0339\352\352\265>\363\246\003\277\310+\240!5\267L"
 163      EAB53EF3 
 163      A603BFC8 
 163      2BA02135 
 163      B74C
 164 04a1 8AF3D9CF 		.ascii	"\212\363\331\317\226xq\252\371\351M+?\373h~d\322\017"
 164      967871AA 
 164      F9E94D2B 
 164      3FFB687E 
 164      64D20F
 165 04b4 19BAB91A 		.ascii	"\031\272\271\032\035e\226\237^c~\226r}\362\023\241a"
 165      1D65969F 
 165      5E637E96 
 165      727DF213 
 165      A161
 166 04c6 3ADD88D7 		.ascii	":\335\210\3274\265v\223\373\324\305\364\263\264\202"
 166      34B57693 
 166      FBD4C5F4 
 166      B3B482
 167 04d5 3364A933 		.ascii	"3d\2513A!\307\256\025\246\206\350=1DO\245\272JO\365"
 167      4121C7AE 
 167      15A686E8 
 167      3D31444F 
 167      A5BA4A4F 
 168 04ea 55D4462E 		.ascii	"U\324F.^\214\334\272\276\021/\217\220f\362<\032\305"
 168      5E8CDCBA 
 168      BE112F8F 
 168      9066F23C 
 168      1AC5
 169 04fc 8350337B 		.ascii	"\203P3{\357\333\230\253\224Dd{(\177c\274$\262U\276X"
 169      EFDB98AB 
 169      9444647B 
 169      287F63BC 
 169      24B255BE 
 170 0511 2D09FA85 		.ascii	"-\011\372\205\202\213\015&\371\371\211\307\012\270\205"
 170      828B0D26 
 170      F9F989C7 
 170      0AB885
 171 0520 A32BD85A 		.ascii	"\243+\330Z\2311{$\367\325^\024S\356\253l\211>v0\200"
 171      99317B24 
 171      F7D55E14 
 171      53EEAB6C 
 171      893E7630 
 172 0535 E4AA8AD1 		.ascii	"\344\252\212\321\205\252Qy\335\213\373#\217L<J\300\353"
 172      85AA5179 
ARM GAS  /tmp/ccH5o200.s 			page 13


 172      DD8BFB23 
 172      8F4C3C4A 
 172      C0EB
 173 0547 B841ACC7 		.ascii	"\270A\254\307\034!\261\035\323a7M\324z\015\033\207="
 173      1C21B11D 
 173      D361374D 
 173      D47A0D1B 
 173      873D
 174 0559 DEC9D171 		.ascii	"\336\311\321qVG\201gkm\206\225\324@\002\266U\305w\001"
 174      56478167 
 174      6B6D8695 
 174      D44002B6 
 174      55C57701 
 175 056d D38F5272 		.ascii	"\323\217RrzBON\223\354\357\311r\372mI\353\314\232\270"
 175      7A424F4E 
 175      93ECEFC9 
 175      72FA6D49 
 175      EBCC9AB8 
 176 0581 3386CF0A 		.ascii	"3\206\317\012&.\367\371\370\260)c\2277\233\270\034\333"
 176      262EF7F9 
 176      F8B02963 
 176      97379BB8 
 176      1CDB
 177 0593 6274A3A0 		.ascii	"bt\243\240\273\2013\254\237\006\022\034\332\251s\331"
 177      BB8133AC 
 177      9F06121C 
 177      DAA973D9 
 178 05a3 705EA173 		.ascii	"p^\241s\301\214\313\026.fU\011\324\2253\251\002U\257"
 178      C18CCB16 
 178      2E665509 
 178      D49533A9 
 178      0255AF
 179 05b6 82E4260B 		.ascii	"\202\344&\013\224a\024\244,\343@m3\011\324\000]\240"
 179      946114A4 
 179      2CE3406D 
 179      3309D400 
 179      5DA0
 180 05c8 B61903A5 		.ascii	"\266\031\003\245Y\221\014$8tH\027(\344,,t\315\254\366"
 180      59910C24 
 180      38744817 
 180      28E42C2C 
 180      74CDACF6 
 181 05dc 55FACA2A 		.ascii	"U\372\312*\\\376\240\253Z\250q\005\003\036\372\317\327"
 181      5CFEA0AB 
 181      5AA87105 
 181      031EFACF 
 181      D7
 182 05ed 0B35851E 		.ascii	"\0135\205\0364\245\357\200z\177@\012\272*\346\315\235"
 182      34A5EF80 
 182      7A7F400A 
 182      BA2AE6CD 
 182      9D
 183 05fe 58E42A2D 		.ascii	"X\344*--v\315.\237S\366Q\221\252\303\327\324x\013\253"
 183      2D76CD2E 
 183      9F53F651 
 183      91AAC3D7 
 183      D4780BAB 
ARM GAS  /tmp/ccH5o200.s 			page 14


 184 0612 91C3E7A7 		.ascii	"\221\303\347\247\343j\205\340\007\274\2245\373\235\371"
 184      E36A85E0 
 184      07BC9435 
 184      FB9DF9
 185 0621 CE9928E8 		.ascii	"\316\231(\350\252\253b\362\272\253\332_+\272\002bP\024"
 185      AAAB62F2 
 185      BAABDA5F 
 185      2BBA0262 
 185      5014
 186 0633 029E6A50 		.ascii	"\002\236jP\015x?\026\002\242K\010\324\026\271\026y<"
 186      0D783F16 
 186      02A24B08 
 186      D416B916 
 186      793C
 187 0645 05D02910 		.ascii	"\005\320)\020k+E\257W\364\306n\324\371\353\304\002Q"
 187      6B2B45AF 
 187      57F4C66E 
 187      D4F9EBC4 
 187      0251
 188 0657 A8F4154C 		.ascii	"\250\364\025L\342\247\026\024\215\2370\351\303\"\227"
 188      E2A71614 
 188      8D9F30E9 
 188      C32297
 189 0666 EE81CB57 		.ascii	"\356\201\313W\347\251i\360\212\256\240\344\365\325I"
 189      E7A969F0 
 189      8AAEA0E4 
 189      F5D549
 190 0675 C023BB01 		.ascii	"\300#\273\001\376'\026\361R\023\376\377\254\327\012"
 190      FE2716F1 
 190      5213FEFF 
 190      ACD70A
 191 0684 9E6A5F9D 		.ascii	"\236j_\235\350\342\275b\225\320P#\361\322\342z1\010"
 191      E8E2BD62 
 191      95D05023 
 191      F1D2E27A 
 191      3108
 192 0696 6C72785E 		.ascii	"lrx^\3453\252o`Uu5\372\325\3106\247lFC\320\021\224j"
 192      E533AA6F 
 192      60557535 
 192      FAD5C836 
 192      A76C4643 
 193 06ae 416551BD 		.ascii	"AeQ\275\317\317K\266\271e\305\263\334Ye\363\336-\237"
 193      CFCF4BB6 
 193      B965C5B3 
 193      DC5965F3 
 193      DE2D9F
 194 06c1 E5EE5756 		.ascii	"\345\356WVQ>kV\261\333V>\277\274\330m\231\003RV\354"
 194      513E6B56 
 194      B1DB563E 
 194      BFBCD86D 
 194      99035256 
 195 06d6 C60B98D7 		.ascii	"\306\013\230\327\023&\363\222b\220v-AQ\262yj\300g\\"
 195      1326F392 
 195      6290762D 
 195      4151B279 
 195      6AC0675C 
 196 06ea 629D51E1 		.ascii	"b\235Q\341v[Kg\276\355\266\276\371\226\273\2246%\226"
ARM GAS  /tmp/ccH5o200.s 			page 15


 196      765B4B67 
 196      BEEDB6BE 
 196      F996BB94 
 196      362596
 197 06fd 196E778E 		.ascii	"\031nw\216\2345\237\027r&w\2544\203\016\212\301W\011"
 197      9C359F17 
 197      722677AC 
 197      34830E8A 
 197      C15709
 198 0710 41692A3C 		.ascii	"Ai*<\360WU\001T\0160t\213\202\027\370Y*\033\202\375"
 198      F0575501 
 198      540E3074 
 198      8B8217F8 
 198      592A1B82 
 199 0725 E17241C0 		.ascii	"\341rA\300'\211pm\255\364I\301l\237\277\326\357\025"
 199      2789706D 
 199      ADF449C1 
 199      6C9FBFD6 
 199      EF15
 200 0737 7969003C 		.ascii	"yi\000<\251\020%\270?\027\256\255\364\346P\265Px\000"
 200      A91025B8 
 200      3F17AEAD 
 200      F4E650B5 
 200      507800
 201 074a 5A14F037 		.ascii	"Z\024\3607\324\323\273V\017d\"\233\347\253\032\352<"
 201      D4D3BB56 
 201      0F64229B 
 201      E7AB1AEA 
 201      3C
 202 075b 3C3F40ED 		.ascii	"<?@\355\024N\031?y\232\366j\312$\335\325\264\177\001"
 202      144E193F 
 202      799AF66A 
 202      CA24DDD5 
 202      B47F01
 203 076e 8722B41E 		.ascii	"\207\"\264\036"
 204              		.text
 205              		.section	.gnu.lto_.symtab.239bd53966db19e0,"",%progbits
 206 0000 70616C52 		.ascii	"palReadBus\000\000\000\000\000\000\000\000\000\000\000"
 206      65616442 
 206      75730000 
 206      00000000 
 206      00000000 
 207 0015 00A10000 		.ascii	"\000\241\000\000\000palWriteBus\000\000\000\000\000"
 207      0070616C 
 207      57726974 
 207      65427573 
 207      00000000 
 208 002a 00000000 		.ascii	"\000\000\000\000\000\000\000\364\000\000\000palSetB"
 208      000000F4 
 208      00000070 
 208      616C5365 
 208      7442
 209 003c 75734D6F 		.ascii	"usMode\000\000\000\000\000\000\000\000\000\000\000\000"
 209      64650000 
 209      00000000 
 209      00000000 
 209      0000
ARM GAS  /tmp/ccH5o200.s 			page 16


 210 004e FD000000 		.ascii	"\375\000\000\000_pal_lld_setgroupmode\000\000\002\000"
 210      5F70616C 
 210      5F6C6C64 
 210      5F736574 
 210      67726F75 
 211 006b 00000000 		.ascii	"\000\000\000\000\000\000\000\000\011\001\000\000"
 211      00000000 
 211      09010000 
 212              		.text
 213              		.section	.gnu.lto_.opts,"",%progbits
 214 0000 272D6D63 		.ascii	"'-mcpu=cortex-m4' '-mno-thumb-interwork' '-mthumb' "
 214      70753D63 
 214      6F727465 
 214      782D6D34 
 214      2720272D 
 215 0033 272D6767 		.ascii	"'-ggdb' '-O2' '-fomit-frame-pointer' '-falign-funct"
 215      64622720 
 215      272D4F32 
 215      2720272D 
 215      666F6D69 
 216 0066 696F6E73 		.ascii	"ions=16' '-ffunction-sections' '-fdata-sections' '-"
 216      3D313627 
 216      20272D66 
 216      66756E63 
 216      74696F6E 
 217 0099 666E6F2D 		.ascii	"fno-common' '-flto'\000"
 217      636F6D6D 
 217      6F6E2720 
 217      272D666C 
 217      746F2700 
 218              		.text
 219              		.cfi_sections	.debug_frame
 220              		.section	.text.palReadBus,"ax",%progbits
 221              		.align	2
 222              		.p2align 4,,15
 223              		.global	palReadBus
 224              		.thumb
 225              		.thumb_func
 226              		.type	palReadBus, %function
 227              	palReadBus:
 228              	.LFB270:
 229              		.file 1 "../ChibiOS/os/hal/src/hal_pal.c"
 230              		.loc 1 65 0
 231              		.cfi_startproc
 232              		@ args = 0, pretend = 0, frame = 0
 233              		@ frame_needed = 0, uses_anonymous_args = 0
 234              		@ link register save eliminated.
 235              	.LVL0:
 236              		.loc 1 69 0
 237 0000 0368     		ldr	r3, [r0]
 238 0002 8268     		ldr	r2, [r0, #8]
 239 0004 1969     		ldr	r1, [r3, #16]
 240 0006 4368     		ldr	r3, [r0, #4]
 241 0008 21FA02F0 		lsr	r0, r1, r2
 242              	.LVL1:
 243              		.loc 1 70 0
 244 000c 1840     		ands	r0, r0, r3
ARM GAS  /tmp/ccH5o200.s 			page 17


 245 000e 7047     		bx	lr
 246              		.cfi_endproc
 247              	.LFE270:
 248              		.size	palReadBus, .-palReadBus
 249              		.section	.text.palWriteBus,"ax",%progbits
 250              		.align	2
 251              		.p2align 4,,15
 252              		.global	palWriteBus
 253              		.thumb
 254              		.thumb_func
 255              		.type	palWriteBus, %function
 256              	palWriteBus:
 257              	.LFB271:
 258              		.loc 1 90 0
 259              		.cfi_startproc
 260              		@ args = 0, pretend = 0, frame = 0
 261              		@ frame_needed = 0, uses_anonymous_args = 0
 262              		@ link register save eliminated.
 263              	.LVL2:
 264              		.loc 1 94 0
 265 0000 0DC8     		ldmia	r0, {r0, r2, r3}
 266              	.LVL3:
 267              		.loc 1 90 0
 268 0002 30B4     		push	{r4, r5}
 269              		.cfi_def_cfa_offset 8
 270              		.cfi_offset 4, -8
 271              		.cfi_offset 5, -4
 272              		.loc 1 94 0
 273 0004 22EA0105 		bic	r5, r2, r1
 274 0008 03F11004 		add	r4, r3, #16
 275 000c 0A40     		ands	r2, r2, r1
 276 000e 02FA03F3 		lsl	r3, r2, r3
 277 0012 05FA04F2 		lsl	r2, r5, r4
 278 0016 1343     		orrs	r3, r3, r2
 279 0018 8361     		str	r3, [r0, #24]
 280              		.loc 1 95 0
 281 001a 30BC     		pop	{r4, r5}
 282 001c 7047     		bx	lr
 283              		.cfi_endproc
 284              	.LFE271:
 285              		.size	palWriteBus, .-palWriteBus
 286 001e 00BF     		.section	.text.palSetBusMode,"ax",%progbits
 287              		.align	2
 288              		.p2align 4,,15
 289              		.global	palSetBusMode
 290              		.thumb
 291              		.thumb_func
 292              		.type	palSetBusMode, %function
 293              	palSetBusMode:
 294              	.LFB272:
 295              		.loc 1 113 0
 296              		.cfi_startproc
 297              		@ args = 0, pretend = 0, frame = 0
 298              		@ frame_needed = 0, uses_anonymous_args = 0
 299              		@ link register save eliminated.
 300              	.LVL4:
 301 0000 10B4     		push	{r4}
ARM GAS  /tmp/ccH5o200.s 			page 18


 302              		.cfi_def_cfa_offset 4
 303              		.cfi_offset 4, -4
 304              		.loc 1 113 0
 305 0002 0A46     		mov	r2, r1
 306              		.loc 1 117 0
 307 0004 4468     		ldr	r4, [r0, #4]
 308 0006 8168     		ldr	r1, [r0, #8]
 309              	.LVL5:
 310 0008 0068     		ldr	r0, [r0]
 311              	.LVL6:
 312 000a 04FA01F1 		lsl	r1, r4, r1
 313              		.loc 1 118 0
 314 000e 5DF8044B 		ldr	r4, [sp], #4
 315              		.loc 1 117 0
 316 0012 FFF7FEBF 		b	_pal_lld_setgroupmode
 317              	.LVL7:
 318              		.cfi_endproc
 319              	.LFE272:
 320              		.size	palSetBusMode, .-palSetBusMode
 321 0016 00BFAFF3 		.text
 321      0080AFF3 
 321      0080
 322              	.Letext0:
 323              		.file 2 "/nfs/nfs5/home/research/hardware/arm2/gcc-arm-embedded/gcc-arm-none-eabi-4_8-2014q2/arm-n
 324              		.file 3 "/nfs/nfs5/home/research/hardware/arm2/gcc-arm-embedded/gcc-arm-none-eabi-4_8-2014q2/arm-n
 325              		.file 4 "../ChibiOS/os/common/ports/ARMCMx/compilers/GCC/chtypes.h"
 326              		.file 5 "../ChibiOS/os/rt/include/chsystypes.h"
 327              		.file 6 "../ChibiOS/os/rt/include/chschd.h"
 328              		.file 7 "../ChibiOS/os/common/ports/ARMCMx/chcore.h"
 329              		.file 8 "../ChibiOS/os/common/ports/ARMCMx/chcore_v7m.h"
 330              		.file 9 "../ChibiOS/os/rt/include/chtm.h"
 331              		.file 10 "../ChibiOS/os/rt/include/chsem.h"
 332              		.file 11 "../ChibiOS/os/rt/include/chmtx.h"
 333              		.file 12 "../ChibiOS/os/hal/ports/STM32/LLD/GPIOv2/hal_pal_lld.h"
 334              		.file 13 "../ChibiOS/os/hal/include/hal_pal.h"
 335              		.file 14 "../ChibiOS/os/common/ext/CMSIS/include/core_cm4.h"