ARM GAS  /tmp/ccCosrax.s 			page 1


   1              		.syntax unified
   2              		.cpu cortex-m4
   3              		.fpu softvfp
   4              		.eabi_attribute 20, 1
   5              		.eabi_attribute 21, 1
   6              		.eabi_attribute 23, 3
   7              		.eabi_attribute 24, 1
   8              		.eabi_attribute 25, 1
   9              		.eabi_attribute 26, 1
  10              		.eabi_attribute 30, 2
  11              		.eabi_attribute 34, 1
  12              		.eabi_attribute 18, 4
  13              		.thumb
  14              		.file	"hal_st_lld.c"
  15              		.text
  16              	.Ltext0:
  17              		.section	.gnu.lto_.jmpfuncs.ef6ea21788b4aaef,"",%progbits
  18 0000 789C6362 		.ascii	"x\234cb`b\300\006\244\2414X\226\221\201\211)\2021\223"
  18      6062C006 
  18      A4A13458 
  18      96918189 
  18      29823193 
  19 0014 91410628 		.ascii	"\221A\006(\000fp\000E\001\031\363\001\323"
  19      00667000 
  19      450119F3 
  19      01D3
  20              		.text
  21              		.section	.gnu.lto_.inline.ef6ea21788b4aaef,"",%progbits
  22 0000 789C6362 		.ascii	"x\234cb`b\300\006\254\2404P\226G\224\221\201\211\357"
  22      6062C006 
  22      ACA03450 
  22      96479491 
  22      8189EF
  23 0013 5E0003DB 		.ascii	"^\000\003\333\002y\260bF.8\301 \"\003\224\224yp\213"
  23      0279B062 
  23      462E38C1 
  23      20220394 
  23      9479708B 
  24 0027 112ECBCC 		.ascii	"\021.\313\314\003\326\305\000\000\260\004\005a"
  24      03D6C500 
  24      00B00405 
  24      61
  25              		.text
  26              		.section	.gnu.lto_.pureconst.ef6ea21788b4aaef,"",%progbits
  27 0000 789C6362 		.ascii	"x\234cb`b`e\200\000&\006+F)\000\001f\000a"
  27      60626065 
  27      80002606 
  27      2B462900 
  27      01660061 
  28              		.text
  29              		.section	.gnu.lto_VectorB0.ef6ea21788b4aaef,"",%progbits
  30 0000 789C8D93 		.ascii	"x\234\215\223]H\024Q\024\200\317\2713\353\256\346\202"
  30      5D481451 
  30      1480CFB9 
  30      33EBAEE6 
  30      82
  31 0011 BEF6B06D 		.ascii	"\276\366\260mB\024\224;\245D\257\205\275\010.\201\273"
ARM GAS  /tmp/ccCosrax.s 			page 2


  31      4214943B 
  31      A544AF85 
  31      BD082E81 
  31      BB
  32 0022 423D2DE3 		.ascii	"B=-\343\270\270\003\273\256\354\254\242\364\340]w\037"
  32      B8B803BB 
  32      AEECACA2 
  32      F4E05D77 
  32      1F
  33 0033 8284C420 		.ascii	"\202\204\304 \"\323\360E\251 \351\207\010\205\322\236"
  33      22D3F045 
  33      A920E987 
  33      0885D29E 
  34 0043 8C509122 		.ascii	"\214P\221\"\242\207X\011\204(*\351\241\360\247\355\334"
  34      A2875809 
  34      84282AE9 
  34      A1F0A7ED 
  34      DC
  35 0054 19779CDD 		.ascii	"\031w\234\335\244:p\356=\367\336s\316=\347\2733\014"
  35      A43A70EE 
  35      3DF7DE73 
  35      CE3DE7BB 
  35      330C
  36 0066 18944B03 		.ascii	"\030\224K\003\351\270\004\200H\352\002d\303K\000\031"
  36      E9B80480 
  36      48EA0264 
  36      C34B0019 
  37 0076 0F63D28C 		.ascii	"\017c\322\214\017x\225\374F\001^-\241lm\313\210\302"
  37      0F7895FC 
  37      46015E2D 
  37      A16C6DCB 
  37      88C2
  38 0088 00840126 		.ascii	"\000\204\001&\3118p\001\315$\323l._(\334{z\345\326\026"
  38      C9387001 
  38      CD24D36C 
  38      2E5F28DC 
  38      7B7AE5D6 
  39 009d 3E635E09 		.ascii	">c^\011t\004Y\014$.\310q>\354\007\320\314e\230F\221"
  39      7404590C 
  39      242EC871 
  39      3EEC07D0 
  39      CC659846 
  40 00b2 A20D9998 		.ascii	"\242\015\231\230\245Ex\376\356\355\346*Sq\202\256\357"
  40      A54578FE 
  40      EEEDE62A 
  40      537182AE 
  40      EF
  41 00c3 44E928DC 		.ascii	"D\351(\334\3419\324\021G\341\006M\354<\015\022'\221"
  41      E139D411 
  41      47E1064D 
  41      EC3C0D12 
  41      2791
  42 00d5 C134CD0B 		.ascii	"\3014\315\013\333\261X\377\"dg\263kX\014\227)\203p3"
  42      DBB158FF 
  42      226467B3 
  42      6B580C97 
  42      29837033 
ARM GAS  /tmp/ccCosrax.s 			page 3


  43 00e9 3B5D80DC 		.ascii	";]\200\334\347\214\327>2\367\235\322F\331f|\242\204"
  43      E78CD73E 
  43      32F79DD2 
  43      46D9667C 
  43      A284
  44 00fb 273F37D7 		.ascii	"'?7\327wJ0\357\317\360\320\177V vL\363\005\014z\000"
  44      774A30EF 
  44      CFF0D07F 
  44      5620764C 
  44      F3050C7A 
  45 0110 EA6082F3 		.ascii	"\352`\202\363\221\374\372\355\305y\034\311\362\005\236"
  45      91FCFAED 
  45      C5791CC9 
  45      F2059E
  46 011f 9B2B14F0 		.ascii	"\233+\024\360\200\2162\203\030\012\006\"\300\3457\247"
  46      808E3283 
  46      180A0622 
  46      C0E537A7 
  47 012f 0AB9F42D 		.ascii	"\012\271\364-\304\236L\244`\011\006\327\337g'\367\333"
  47      C49E4CA4 
  47      600906D7 
  47      DF6727F7 
  47      DB
  48 0140 EC2C63EE 		.ascii	"\354,c\356\303\253Q\351\210\212\223Xg\203\345_\227\347"
  48      C3AB51E9 
  48      888A9358 
  48      6783E55F 
  48      97E7
  49 0152 25DBE1EE 		.ascii	"%\333\341\356\265\005o\275\275zx\363r\355}\227\275|"
  49      B5056FBD 
  49      BD7A78F3 
  49      72ED7D97 
  49      BD7C
  50 0164 B9F59D16 		.ascii	"\271\365\235\026V\227\032\212b\030\251D*\223\272\300"
  50      56971A8A 
  50      6218A944 
  50      2A93BAC0 
  51 0174 7C578435 		.ascii	"|W\2045\332\"z\222\365\261\370\340\007\216\361\353\247"
  51      DA227A92 
  51      F5B1F8E0 
  51      078EF1EB 
  51      A7
  52 0185 75749794 		.ascii	"ut\227\224\270{\276\261s\356\261\232X\206\354\267\241"
  52      B87BBEB1 
  52      73EEB19A 
  52      5886ECB7 
  52      A1
  53 0196 A9B5A1FA 		.ascii	"\251\265\241\372\362\342/og\335\273\327WX\336\027a\203"
  53      F2E22F6F 
  53      67DDBBD7 
  53      5758DE17 
  53      6183
  54 01a8 5FE2353A 		.ascii	"_\3425:Vj\350V\361\221U\206\216U\345@?.\225\003Uq\312"
  54      566AE856 
  54      F1915586 
  54      8E55E540 
  54      3F2E9503 
ARM GAS  /tmp/ccCosrax.s 			page 4


  55 01bf 6CE09F44 		.ascii	"l\340\237D\341oD?\215\011\242\217\235Dg_\257:\211~\361"
  55      E16F443F 
  55      8D09A28F 
  55      9D44675F 
  55      AF3A897E 
  56 01d4 2A0EA2E3 		.ascii	"*\016\242\343\265+\016\242\333W\035-yH+I\253H\367\355"
  56      B52B0EA2 
  56      DB571D2D 
  56      79482B49 
  56      AB48F7ED 
  57 01e8 4154C569 		.ascii	"AT\305i2\354\222\212\004U|\200>\347G)\233?\006q\314"
  57      32EC928A 
  57      04557C80 
  57      3EE74729 
  57      9B3F0671 
  58 01fd FFEAB472 		.ascii	"\377\352\264r\227r\252\006\233\321\012d\362\205\303"
  58      9772AA06 
  58      9BD10A64 
  58      F285C3
  59 020c 45274BC2 		.ascii	"E'K\302\364\264\224@\344>\031\010(M1\275]?\027R\222"
  59      F4B49440 
  59      E43E1908 
  59      284D31BD 
  59      5D3F1752 
  60 0221 861253E3 		.ascii	"\206\022S\343Jw2\2256\224P8\330\330\240\264\264\234"
  60      4A773295 
  60      36945038 
  60      D8D8A0B4 
  60      B49C
  61 0233 55C2CDC1 		.ascii	"U\302\315\301\336\023\342$b\244#\361xG@\003\2454JK&"
  61      DE13E224 
  61      62A423F1 
  61      78474003 
  61      A5344A4B 
  62 0248 12C9AE9D 		.ascii	"\022\311\256\235\3003\255\301\246`\237\242\305\264d"
  62      C033ADC1 
  62      A6609FA2 
  62      C5B464
  63 0257 2A1AE93D 		.ascii	"*\032\351=\225\010\304\300\325\253\306{\242\215{FE\373"
  63      9508C4C0 
  63      D5ABC67B 
  63      A28D7B46 
  63      45FB
  64 0269 D24A5330 		.ascii	"\322JS0\324\034R\364.-\336\323\021U\264\204\241\033"
  64      D41C52F4 
  64      2E2DDED3 
  64      1155B484 
  64      A11B
  65 027b 914E4DA3 		.ascii	"\221NM\243\310\203\2451\251\364\256W\314\3507\376\364"
  65      C883A531 
  65      A9F4AE57 
  65      CCE837FE 
  65      F4
  66 028c 101D240D 		.ascii	"\020\035$\015\032\310U\314\344Q\023\014\265\372\333"
  66      1AC855CC 
  66      E451130C 
  66      B5FADB
ARM GAS  /tmp/ccCosrax.s 			page 5


  67 029b 5523DA9D 		.ascii	"U#\332\235\322\217\371\017\035\007\226\002w\"\232H\246"
  67      D28FF90F 
  67      1D079602 
  67      77229A48 
  67      A6
  68 02ac FAE137E5 		.ascii	"\372\3417\345Q8\267"
  68      5138B7
  69              		.text
  70              		.section	.gnu.lto_st_lld_init.ef6ea21788b4aaef,"",%progbits
  71 0000 789C95D3 		.ascii	"x\234\225\323\275KBQ\024\000\360s\356{\317\257\242\217"
  71      BD4B4251 
  71      1400F073 
  71      EE7BCFAF 
  71      A28F
  72 0012 3169688D 		.ascii	"1ih\215\310GE\324\326P\213\2404h\220\223\250\201>\020"
  72      C84745D4 
  72      D6508BA0 
  72      34689093 
  72      A8813E10 
  73 0026 8C949686 		.ascii	"\214\224\226\206\256d\340\320 MRA\265j\350\026\257M"
  73      AE64E0D0 
  73      204D5241 
  73      B56AE816 
  73      AF4D
  74 0038 DC1A34DA 		.ascii	"\334\0324\332\244\311\261\376\003i\261{\337\227\251"
  74      A4C9B1FE 
  74      0369B17B 
  74      DF97A9
  75 0047 21BD03EF 		.ascii	"!\275\003\357\334\367\274\367\374<\342y\004\010\214"
  75      DCF7BCF7 
  75      FC3CE279 
  75      04088C
  76 0056 C602BBBC 		.ascii	"\306\002\273\274\"\300\026[Q\000$\2456@\336E\020\371"
  76      22C0165B 
  76      510024A5 
  76      3640DE45 
  76      10F9
  77 0068 0D209C13 		.ascii	"\015 \234\023<\217\240v\266N\032\335~\277\366|}w\205"
  77      3C8FA076 
  77      B64E1ADD 
  77      7EBFF67C 
  77      7D7785
  78 007b 6D324F40 		.ascii	"m2O@A\020x\222xr\360\304B\202\002\245\245%\200\204\366"
  78      41107892 
  78      7872F0C4 
  78      428202A5 
  78      A5258084 
  79 0090 18669953 		.ascii	"\030f\231S\007H\370*\264\240\371\241V\2741|D\011\222"
  79      0748F82A 
  79      B4A0F9A1 
  79      56BC317C 
  79      440992
  80 00a3 4856A042 		.ascii	"HV\240B\013\3719\005\361\026nPAr\310\222@\037\212T\004"
  80      0BF93905 
  80      F1166E50 
  80      4172C892 
  80      401F8A54 
ARM GAS  /tmp/ccCosrax.s 			page 6


  81 00b8 ED56FBEA 		.ascii	"\355V\373\3528\232\015\267\340\342E0\253\205\244~\036"
  81      389A0DB7 
  81      E0E24530 
  81      AB85A47E 
  81      1E
  82 00c9 50DB69FA 		.ascii	"P\333i\372\365\015{f\222?\363\266\212Ub\302\322(!\362"
  82      F50D7B66 
  82      923FF3B6 
  82      8A5562C2 
  82      D22821F2 
  83 00dd 3A89364A 		.ascii	":\2116JtF#$\203\300\277\332r0\340\037mM6\031\243\025"
  83      74462324 
  83      83C0BFDA 
  83      7230E01F 
  83      6D4D3619 
  84 00f3 ABBD6A53 		.ascii	"\253\275jS\370\015\320\035Kp\3602'e\241\3770\247!\350"
  84      F80DD01D 
  84      4B70F032 
  84      2765A1FF 
  84      30A721E8 
  85 0107 FF33FF04 		.ascii	"\3773\377\004\357\267\365\036\324r\3156#\014\230>\213"
  85      EFB7F51E 
  85      D472CD36 
  85      230C983E 
  85      8B
  86 0118 594352ED 		.ascii	"YCR\355K\342@\002C\351X\312*<q%\3026\007\240k2(Y\240"
  86      4BE24002 
  86      43E958CA 
  86      2A3C7125 
  86      C23607A0 
  87 0131 DB9AE521 		.ascii	"\333\232\345!\276g\277I\307\270R\256\333V\234\343\212"
  87      BE67BF49 
  87      C7B852AE 
  87      DB569CE3 
  87      8A
  88 0142 6A5F7159 		.ascii	"j_qY\2129Dj\307\276\342\036V\336\340\262\373\372\345"
  88      8A39446A 
  88      C7BEE21E 
  88      56DEE0B2 
  88      FBFAE5
  89 0155 D1118033 		.ascii	"\321\021\2003\370\246E\312\346\321\2230f\216\237\234"
  89      F8A645CA 
  89      E6D19330 
  89      668E9F9C 
  90 0165 5AD41717 		.ascii	"Z\324\027\027{\237\247\001\336!\337\375\\6K\364\010"
  90      7B9FA701 
  90      DE21DFFD 
  90      5C364BF4 
  90      08
  91 0176 B3E3EC5D 		.ascii	"\263\343\354]\346S\266\351\363\311\273)%\256\354\207"
  91      E653B6E9 
  91      F3C9BB29 
  91      25AEEC87 
  92 0186 E44C564E 		.ascii	"\344LVN\305\322\362q\346$\227\225C\341\340\306\272\034"
  92      C5D2F271 
  92      E6249795 
  92      43E1E0C6 
ARM GAS  /tmp/ccCosrax.s 			page 7


  92      BA1C
  93 0198 08ECC961 		.ascii	"\010\354\311a\177\360t\215\357D\263\271h:}\344K\300"
  93      7FF0748D 
  93      EF44B3B9 
  93      683A7DE4 
  93      4BC0
  94 01aa 0FD352F9 		.ascii	"\017\323R\371\322"
  94      D2
  95              		.text
  96              		.section	.gnu.lto_.symbol_nodes.ef6ea21788b4aaef,"",%progbits
  97 0000 789C6362 		.ascii	"x\234cb`bHd\200\002\246>\246z\006\206\011\347\030\030"
  97      60624864 
  97      8002A63E 
  97      A67A0686 
  97      09E71818 
  98 0014 EAEBE775 		.ascii	"\352\353\347u02\3653\3253\"\270\214\023\230\352\231"
  98      3032F533 
  98      D53322B8 
  98      8C1398EA 
  98      99
  99 0025 20DC8606 		.ascii	" \334\206\006F\306\211L\365\314\010\336$\246z\0268\217"
  99      46C6894C 
  99      F5CC08DE 
  99      24A67A16 
  99      388F
 100 0037 998199E1 		.ascii	"\231\201\231\341\360V\023f\240\331\213\333\336\3103"
 100      F0561366 
 100      A0D98BDB 
 100      DEC833
 101 0046 33B2301C 		.ascii	"3\2620\034n\177#\317\000\000g@\033\264"
 101      6E7F23CF 
 101      00006740 
 101      1BB4
 102              		.text
 103              		.section	.gnu.lto_.refs.ef6ea21788b4aaef,"",%progbits
 104 0000 789C6362 		.ascii	"x\234cb`b`d\200\002\000\000F\000\006"
 104      60626064 
 104      80020000 
 104      460006
 105              		.text
 106              		.section	.gnu.lto_.decls.ef6ea21788b4aaef,"",%progbits
 107 0000 789CBD58 		.ascii	"x\234\275X}l\024\307\025\237\331\363gl\034\307\371\220"
 107      7D6C14C7 
 107      159FD9F3 
 107      676C1CC7 
 107      F990
 108 0012 E93FD852 		.ascii	"\351?\330R\023U\211\314\3413Qh\377H\261\3176\266\204"
 108      135589CC 
 108      E1335168 
 108      FF48B1CF 
 108      36B684
 109 0025 C1DA3315 		.ascii	"\301\3323\025J\377\330.\347u|\352}\220\273\263c\376"
 109      4AFFD82E 
 109      E7757CEA 
 109      7D90BBB3 
 109      63FE
 110 0037 625DD3F0 		.ascii	"b]\323\360\221V1&\300\005\214c7\261\012\0114|\270\215"
ARM GAS  /tmp/ccCosrax.s 			page 8


 110      91563126 
 110      C0058C63 
 110      37B10A09 
 110      347CB88D 
 111 004b 133E7AB5 		.ascii	"\023>z\265\210e\321\264PJ]\202\205l\250\032\324\022"
 111      8865D1B4 
 111      504A5D82 
 111      856CA81A 
 111      D412
 112 005d 28360448 		.ascii	"(6\004H\002v\337\314\356\236w\326\273\347\275T\352H"
 112      0276DFCC 
 112      EE9E77D6 
 112      BBE7BD54 
 112      EA48
 113 006f EFEDDCEC 		.ascii	"\357\355\334\354\314\357\375\336\233\267\343y\346\020"
 113      CCEFFDDE 
 113      9BB7E379 
 113      E610
 114 007d 872A3142 		.ascii	"\207*1B3\320n/Dh[\032B\016\204\320\213 0\214\372\220"
 114      33D06E2F 
 114      44685B1A 
 114      420E84D0 
 114      8B20308C 
 115 0093 D2D241F6 		.ascii	"\322\322A\366\203\034\004\371\000\344\010\31014\267"
 115      831C04F9 
 115      00E408C8 
 115      3134B7
 116 00a2 91393920 		.ascii	"\22199 \231 \203 \037\201|\241\342\344\201\344\202\334"
 116      99208320 
 116      1F817CA1 
 116      E2E481E4 
 116      82DC
 117 00b4 009904B9 		.ascii	"\000\231\004\271\015r@\2653\014\262@]\177\007\344\036"
 117      0D7240B5 
 117      330CB240 
 117      5D7F07E4 
 117      1E
 118 00c5 C8D7200F 		.ascii	"\310\327 \017\2212!\033+6s\341\371(H\001\310\223X\341"
 118      9132211B 
 118      2B3673E1 
 118      F9284801 
 118      C89358E1 
 119 00d9 626C0755 		.ascii	"bl\007U,\215C!\314{\001d\031\010\361U\343\364\031\010"
 119      2C8D4321 
 119      CC7B0164 
 119      1908F155 
 119      E3F41908 
 120 00ed B88BAAB0 		.ascii	"\270\213\252\260\302o\000\344\021\220\347\340\367r\220"
 120      C26F00E4 
 120      1190E7E0 
 120      F77290
 121 00fc F3D0BF00 		.ascii	"\363\320\277\000r\006\344\"\310i\2208\310\010\310)\020"
 121      7206E422 
 121      C8699038 
 121      C808C829 
 121      10
 122 010d 4EB56516 		.ascii	"N\265e\026\207l\264E\226\177&\367\276&\327\214\200\337"
ARM GAS  /tmp/ccCosrax.s 			page 9


 122      876CB445 
 122      967F26F7 
 122      BE26D78C 
 122      80DF
 123 011f 6BB188F3 		.ascii	"k\261\210\363\262Q\021\355\344fS\263O\243we\271s\342"
 123      B25111ED 
 123      E46653B3 
 123      4FA37765 
 123      B973E2
 124 0132 93AB139C 		.ascii	"\223\253\023\234,g\211\270\017g\003d+F\317\242\0032"
 124      2C6789B8 
 124      0F670364 
 124      2B46CFA2 
 124      0332
 125 0144 BC91E5AB 		.ascii	"\274\221\345\253?\304\377\023\364\276m'\276O\241\373"
 125      3FC4FF13 
 125      F4BE6D27 
 125      BE4FA1FB 
 126 0154 29F4EB1C 		.ascii	")\364\353\034F\"~\027?\253\002\21183[\017L\177k\023"
 126      46227E17 
 126      3FAB0289 
 126      38335B0F 
 126      4C7F6B13 
 127 0168 081A7DAD 		.ascii	"\010\032}\255vH\202<\212R\235\276\010\365\310\275\023"
 127      7648823C 
 127      8A529DBE 
 127      08F5C8BD 
 127      13
 128 0179 1397CFFF 		.ascii	"\023\227\317\377\347\361\267\344\370&yff#z\012\355\004"
 128      E7F1B7E4 
 128      F8267966 
 128      66237A0A 
 128      ED04
 129 018b F7087F19 		.ascii	"\367\010\177\031GE\374\342\223\246.\020\374\003\370"
 129      4745FCE2 
 129      93A62E10 
 129      FC03F8
 130 019a 29B5B7C6 		.ascii	")\265\267\306\241\330\344\320\247\006'\020z\006\365"
 130      A1D8E4D0 
 130      A7062710 
 130      7A06F5
 131 01a9 133C79BF 		.ascii	"\023<y\277\354\240hd\376~\274\210\245\372\036\346\364"
 131      ECA06864 
 131      FE7EBC88 
 131      A5FA1EE6 
 131      F4
 132 01ba 030AAFF8 		.ascii	"\003\012\257\370\207]\177\304r\227\374`f\306\241\232"
 132      875D7FC4 
 132      7297FC60 
 132      66C6A19A 
 133 01ca E3D0DF6C 		.ascii	"\343\320\337l\0318h4ph\256\201\211\316\211\035\273o"
 133      19386834 
 133      7068AE81 
 133      89CE891D 
 133      BB6F
 134 01dc 6CC6DB3B 		.ascii	"l\306\333;zG\344[$\036\232\215\355\016\243\015\005\344"
 134      7A47E45B 
ARM GAS  /tmp/ccCosrax.s 			page 10


 134      241E9A8D 
 134      ED0EA30D 
 134      05E4
 135 01ee B029486C 		.ascii	"\260)Hl\357\335\264\267\344!%z\032\304\260\005\304Q"
 135      EFDDB4B7 
 135      E421257A 
 135      1AC4B005 
 135      C451
 136 0200 5388A99E 		.ascii	"S\210\251\236\2638\001a\177\003\006\324\015p\320\\G"
 136      B3380161 
 136      7F0306D4 
 136      0D70D05C 
 136      47
 137 0211 4A8E323F 		.ascii	"J\2162?\230\335\241\033\2649\315\234\330\207,1\232\305"
 137      98DDA11B 
 137      B439CD9C 
 137      D8872C31 
 137      9AC5
 138 0223 1D49B358 		.ascii	"\035I\263X\304\277\302O\333J\263\002\264\235xT\244C"
 138      C4BFC24F 
 138      DB4AB302 
 138      B49D7854 
 138      A443
 139 0235 923334A8 		.ascii	"\22234\250\237\240\304\0071y\365V\260\003\274\026\361"
 139      9FA0C407 
 139      3179F556 
 139      B003BC16 
 139      F1
 140 0246 47B800B8 		.ascii	"G\270\000\270\376\311\300u^\034B\352\004,U\026QT9\276"
 140      FEC9C075 
 140      5E1C42EA 
 140      042C5516 
 140      515439BE 
 141 025a 632C574E 		.ascii	"c,WNS\306\221\211\353j+F\275\362\246\216\370\316\261"
 141      53C69189 
 141      EB6A2B46 
 141      BDF2A68E 
 141      F8CEB1
 142 026d EE8572EF 		.ascii	"\356\205r\357\020@\016\322\217\3623J\201\2545\013\201"
 142      10400ED2 
 142      8FF2334A 
 142      81AC350B 
 142      81
 143 027e DA559A3A 		.ascii	"\332U\232:\201\305\3335\226\333)j`\227S\006+b\300bz"
 143      81C5DB35 
 143      96DB296A 
 143      60975306 
 143      2B62C062 
 144 0293 B02B76C0 		.ascii	"\260+v\300\262\254\231\355\321\203}\2362\030\313\254"
 144      B2AC99ED 
 144      D1837D9E 
 144      3218CBAC 
 145 02a3 5B0F76DD 		.ascii	"[\017v\335\016X\2765\263\036=\330\315\224\301Xf\207"
 145      0E58BE35 
 145      B31E3DD8 
 145      CD94C158 
 145      6687
ARM GAS  /tmp/ccCosrax.s 			page 11


 146 02b5 F5605376 		.ascii	"\365`Sv\300\012\255\231\035\325\203\335O\031\214e6\240"
 146      C00AAD99 
 146      1DD583DD 
 146      4F198C65 
 146      36A0
 147 02c7 079BB603 		.ascii	"\007\233\266\003Vd\315\354wz\260\216\364T\301Xf\203"
 147      5664CDEC 
 147      777AB08E 
 147      F454C158 
 147      6683
 148 02d9 7AB0CD76 		.ascii	"z\260\315v\300\276g\315\354c=\330\353)\203\261\314N"
 148      C0BE67CD 
 148      EC633DD8 
 148      EB2983B1 
 148      CC4E
 149 02eb E8C1DEB0 		.ascii	"\350\301\336\260\003\266\304\212Y{\374\324\217;\305"
 149      03B6C48A 
 149      597BFCD4 
 149      8F3BC5
 150 02fa C750A77A 		.ascii	"\307P\247z\244(\250\332\261\202\331\324\322O\353\263"
 150      A428A8DA 
 150      B182D9D4 
 150      D24FEBB3 
 151 030a 9E26E24B 		.ascii	"\236&\342K\3701\332\243\347\247\254\236\237t\206\325"
 151      F831DAA3 
 151      E7A7AC9E 
 151      9F7486D5 
 152 031a 213EA61C 		.ascii	"!>\246\034\323\263\237\277\332\231=\264\365\263\300"
 152      D3B39FBF 
 152      DA993DB4 
 152      F5B3C0
 153 0329 ED1D46B7 		.ascii	"\355\035F\267Y\026f~\263A<\247\017\342n;A\\n\015v^\017"
 153      5916667E 
 153      B3413CA7 
 153      0FE26E3B 
 153      415C6E0D 
 154 0340 D66D07AC 		.ascii	"\326m\007\254\306:W.\350\301zS\006c\231\215\352\301"
 154      C63A572E 
 154      E8C17A53 
 154      0663998D 
 154      EAC1
 155 0352 FAED80D5 		.ascii	"\372\355\200\325[3\273\250\007\333\2372\230\236Y{\374"
 155      5B33BBA8 
 155      07DB9F32 
 155      989E597B 
 155      FC
 156 0363 D26CE2F5 		.ascii	"\322l\342\365.7d\336r\366\264e\246\365YN\023\361\277"
 156      2E3764DE 
 156      72F6B465 
 156      A6F5594E 
 156      13F1BF
 157 0376 524EBC7F 		.ascii	"RN\274\177[$\236\376R;;\013\334\376\215\321m\206\204"
 157      5B249EFE 
 157      523B3B0B 
 157      DCFE8DD1 
 157      6D8684
 158 0389 DA5D6B12 		.ascii	"\332]k\022C\263\246\377C-\342\223\364&q\012\027\203"
ARM GAS  /tmp/ccCosrax.s 			page 12


 158      43B3A6FF 
 158      432DE293 
 158      F426710A 
 158      1783
 159 039b 8E533D44 		.ascii	"\216S=D\365i\252\207\251\036\241\372\014\325\237R\375"
 159      F569AA87 
 159      A91EA1FA 
 159      0CD59F52 
 159      FD
 160 03ac 67AACF51 		.ascii	"g\252\317Q}\236\352\013T\217R}\221\352\313T\217S}\205"
 160      7D9EEA0B 
 160      548F527D 
 160      91EACB54 
 160      8F537D85 
 161 03c0 EA7F50FD 		.ascii	"\352\177P\375O\252\257\201N\264\034\264m\366\346\256"
 161      4FAAAF81 
 161      4EB41CB4 
 161      6DF6E6AE 
 162 03d0 DC41AC62 		.ascii	"\334A\254b\367\005\316\321V%v(\226\247^\375'\372\345"
 162      F705CED1 
 162      56257628 
 162      96A75EFD 
 162      27FAE5
 163 03e3 C2C2440C 		.ascii	"\302\302D\014\262\364qU\256$\260\200\023\361M\232K\307"
 163      B2F47155 
 163      AE24B080 
 163      13F14D9A 
 163      4BC7
 164 03f5 D2CD8A08 		.ascii	"\322\315\212\010j\344\246n\203\224\276\326\233\301\011"
 164      6AE4A66E 
 164      8394BED6 
 164      9BC109
 165 0404 F87C0D9E 		.ascii	"\370|\015\236SW\335P\023A\267u\332\351\025\313S\226"
 165      5357DD50 
 165      1341B775 
 165      DAE915CB 
 165      5396
 166 0416 AB4B9769 		.ascii	"\253K\227iK3\325\005\223)\347\320\224E\016e\230\207"
 166      4B33D505 
 166      9329E7D0 
 166      94450E65 
 166      9887
 167 0428 94DC8DAD 		.ascii	"\224\334\215\255\240nCHu\2673r3\216\337\232\230\274"
 167      A06E4348 
 167      75B73372 
 167      338EDF9A 
 167      98BC
 168 043a 3EB205FF 		.ascii	">\262\005\377\241\3775\271\263}bf\343\333\361|\355\202"
 168      A1FF35B9 
 168      B37D6266 
 168      E3DBF17C 
 168      ED82
 169 044c 7D29DD4E 		.ascii	"})\335N\035p\307X\007|9\367\376\015Vb{\3073\264\002"
 169      1D70C758 
 169      077C39F7 
 169      FE0D5662 
 169      7BC733B4 
ARM GAS  /tmp/ccCosrax.s 			page 13


 170 0461 A858B370 		.ascii	"\250X\263p\303\226\205{F\013\367M-t\375\375\301\302"
 170      C396857B 
 170      460BF74D 
 170      2D74FDFD 
 170      C1C2
 171 0473 3916A66D 		.ascii	"9\026\246mY\370\332h\341\0333\013\361\013\237\217\250"
 171      59F8DA68 
 171      E11B330B 
 171      F10B9F8F 
 171      A8
 172 0484 C552C716 		.ascii	"\305R\307\026n\266\224\311\260c\342\241\321\304\264"
 172      6EB694C9 
 172      B063E2A1 
 172      D1C4B4
 173 0493 A913F7A6 		.ascii	"\251\023\367\246n\325|uT\226\267\312\3233\033\3337\025"
 173      6ED57C75 
 173      5496B7CA 
 173      D3331BDB 
 173      3715
 174 04a5 DBAF54DA 		.ascii	"\333\257T\3329\223J\305P\231\234e\250\322\231pe\316"
 174      39934AC5 
 174      50999C65 
 174      A8D29970 
 174      65CE
 175 04b7 503F8FEF 		.ascii	"P?\217\357\242wdp\357/\303\271\235X+\306\257\323\025"
 175      A2776470 
 175      EF2FC3B9 
 175      9D582BC6 
 175      AFD315
 176 04ca 32B7C8A2 		.ascii	"2\267\310\242>Q+ \325\343\333\355\365\205\011\217\311"
 176      3E512B20 
 176      D5E3DBED 
 176      F585098F 
 176      C9
 177 04db 22C6E30E 		.ascii	"\"\306\343\016\316\314\343\311\353\367c\246\3517i+\256"
 177      CECCE3C9 
 177      EBF763A6 
 177      E937692B 
 177      AE
 178 04ec 5B8D56B6 		.ascii	"[\215V\266\231Y\211\017^5\333\272\237g\3321\361\013"
 178      9959890F 
 178      5E35DBBA 
 178      9F67DA31 
 178      F10B
 179 04fe A3895F9A 		.ascii	"\243\211_\232:\022\333\373\345\334\014\337c\313\302"
 179      3A12DBFB 
 179      E5DC0CDF 
 179      63CBC2
 180 050d 1B460B9D 		.ascii	"\033F\013\235\246\026\272v\017\177g\216\205C\266,t\031"
 180      A616BA76 
 180      0F7F678E 
 180      8543B62C 
 180      7419
 181 051f 2DEC300D 		.ascii	"-\3540\015\323\3005\2630\015\3312\261\323hb\027k\302"
 181      D3C035B3 
 181      300DD932 
 181      B1D36862 
ARM GAS  /tmp/ccCosrax.s 			page 14


 181      176BC2
 182 0532 A4B4EC75 		.ascii	"\244\264\354uh\331\264\024%J\324\223\323\347\266\342"
 182      68D9B414 
 182      254AD493 
 182      D3E7B6E2 
 183 0542 23B20C89 		.ascii	"#\262\014\211\020\343H\215\2725k\336\032\225\005\"\306"
 183      10E3488D 
 183      BA356BDE 
 183      1A950522 
 183      C6
 184 0553 F772861A 		.ascii	"\367r\206\032\365\3368\255Q\311\370\3745\3527\343o2"
 184      F5DE38AD 
 184      51C9F8FC 
 184      35EA37E3 
 184      6F32
 185 0565 35EA4E4A 		.ascii	"5\352NJ\201\254\375v5\352\203q\335\335&\2262X\021\003"
 185      81ACFD76 
 185      35EA8371 
 185      DDDD2696 
 185      32581103 
 186 0579 36AD07DB 		.ascii	"6\255\007\333g\007,I\215\332I?\214\\\015\256/e8\226"
 186      67072C49 
 186      8DDA493F 
 186      8C5C0DAE 
 186      2F653896 
 187 058d 5B170BF7 		.ascii	"[\027\013\367\236\035\270$u\352\233,\334\261\224\341"
 187      9E1DB824 
 187      75EA9B2C 
 187      DCB194E1 
 188 059d 5876BB58 		.ascii	"Xv\273X\270\217\355\300%\251Uc,\334P\312p,\273=,\334"
 188      B88FEDC0 
 188      25A95563 
 188      2CDC50CA 
 188      702CBB3D 
 189 05b3 193B7045 		.ascii	"\031;pE\326\354\272Y\270\263)\303\261\354zX\270\277"
 189      D6ECBA59 
 189      B8B329C3 
 189      B1EC7A58 
 189      B8BF
 190 05c5 DA814B52 		.ascii	"\332\201KR\263\036f\341\306R\206c\331\035e\341\256\330"
 190      B31E66E1 
 190      C6528663 
 190      D91D65E1 
 190      AED8
 191 05d7 8133AB5B 		.ascii	"\2013\253[\315\232\3760\021q7G\356\321\3738r\267}\233"
 191      CD9AFE30 
 191      11713747 
 191      EED1FB38 
 191      72B77D9B 
 192 05eb EA3EAADF 		.ascii	"\352>\252\337\241\272\237\352_S}\200\352\367\251>D\365"
 192      A1BA9FEA 
 192      5F537D80 
 192      EAF7A93E 
 192      44F5
 193 05fd 07541FA1 		.ascii	"\007T\037\241\372\030\325\277\345\254o\3071\013\372"
 193      FA18D5BF 
 193      E5AC6FC7 
ARM GAS  /tmp/ccCosrax.s 			page 15


 193      310BFA
 194 060c F47F895C 		.ascii	"\364\177\211\\\342vl\366/;\246\\U\316\325\370W\273p"
 194      E2766CF6 
 194      2F3BA65C 
 194      55CED5F8 
 194      57BB70
 195 061f 11C4871E 		.ascii	"\021\304\207\036\251\327\346?R\347\026\336\307\215G"
 195      A9D7E63F 
 195      52E716DE 
 195      C78D47
 196 062e EAE5517A 		.ascii	"\352\345Qz\244\036\267u\244N\216\262G\352]J\341\370"
 196      A41EB775 
 196      A44E8EB2 
 196      47EA5D4A 
 196      E1F8
 197 0640 B73E52A7 		.ascii	"\267>R\247F\023\247\240\210{8.E06}\356\214\352\216\324"
 197      4613A7A0 
 197      887B382E 
 197      4530367D 
 197      EE8CEA8E 
 198 0655 87769825 		.ascii	"\207v\230%9R\357\352\3016e\247\012V\224,\023\217\353"
 198      3952EFEA 
 198      C13665A7 
 198      0A56942C 
 198      138FEB
 199 0668 32F104CD 		.ascii	"2\361\004\315\304\2234\217~Ou\234\352\241$95\230$\247"
 199      C493348F 
 199      7E4F759C 
 199      EAA12439 
 199      359824A7 
 200 067c 4ECFE694 		.ascii	"N\317\346\224a\325@\222\242\342\223\331U(\342\0146Q"
 200      61D54092 
 200      A2E293D9 
 200      5528E20C 
 200      3651
 201 068e 79DED91C 		.ascii	"y\336\331\034\012H\316\260\024\221\304\260\267\331\331"
 201      0A48CEB0 
 201      1491C4B0 
 201      B7D9D9
 202 069d 2C861B5F 		.ascii	",\206\033_\025\303\222S\014\007\\\316\227\275\336\022"
 202      15C39253 
 202      0C075CCE 
 202      97BDDE12 
 203 06ad E8944881 		.ascii	"\350\224H\201uRc\243\324\230\030\010\206\202R\211$\256"
 203      755263A3 
 203      D4981808 
 203      86825289 
 203      24AE
 204 06bf F3952C15 		.ascii	"\363\225,\025\226\225\270\226\224.}\305\345d^8}A\257"
 204      9695B896 
 204      942E7DC5 
 204      E5645E38 
 204      7D41AF
 205 06d2 BFA55172 		.ascii	"\277\245QrF\242\215\276`tq3\312j\201g\231K\210f\254"
 205      46A28DBE 
 205      60747133 
 205      CA6A8167 
ARM GAS  /tmp/ccCosrax.s 			page 16


 205      994B8866 
 206 06e7 58B5A6C8 		.ascii	"X\265\246\310\215:\360\377\217D@\3646\373\202\222Sh"
 206      8D3AF0FF 
 206      8F4440F4 
 206      36FB8292 
 206      5368
 207 06f9 949AC416 		.ascii	"\224\232\304\026\177T\210nX/E\200\324#\202\240\321z"
 207      7F54886E 
 207      582F4580 
 207      D42382A0 
 207      D17A
 208 070b 7EF162A7 		.ascii	"~\361b\247\273\331\267\316\267\332\343\014E\200\204"
 208      BBD9B7CE 
 208      B7DAE30C 
 208      458084
 209 071a DFB93E14 		.ascii	"\337\271>\024\216F\234\236\206\2722\227s\345\312JgC"
 209      8E469C9E 
 209      86BA3297 
 209      73E5CA4A 
 209      6743
 210 072c 6D5D6B29 		.ascii	"m]k)y#D\242\202\337\337\270\330\213\262~$y\243\241p"
 210      792344A2 
 210      82DFDFB8 
 210      D88BB27E 
 210      2479A3A1 
 211 0741 C5921C65 		.ascii	"\305\222\034eH\360\005}Q'\013\345\015\005\002\241\240"
 211      48F0057D 
 211      51270BE5 
 211      0D0502A1 
 211      A0
 212 0752 8A56CED7 		.ascii	"\212V\316\327\271\353\332\234\336fo(,\011\255/\004\200"
 212      B9EBDA9C 
 212      DE666F28 
 212      2C09AD2F 
 212      0480
 213 0764 458140DE 		.ascii	"E\201@\336\011\276\360+\202\264\336\347\017\275\334"
 213      09BEF02B 
 213      82B4DEE7 
 213      0FBDDC
 214 0773 2215B310 		.ascii	"\"\025\263\020\341h\302\027osd\003\241^\340m\366l\210"
 214      E168C217 
 214      6F736403 
 214      A15EE06D 
 214      F66C88
 215 0786 34F80252 		.ascii	"4\370\002R\270F\0146\372\245pm\211\225\013*\003\325"
 215      B8460C36 
 215      FAA5706D 
 215      89950B2A 
 215      03D5
 216 0798 76B0D5E7 		.ascii	"v\260\325\347\005\200|\362\254\012\212\353\374\222\342"
 216      05807CF2 
 216      AC0A8AEB 
 216      FC92E2
 217 07a7 C452BB11 		.ascii	"\304R\273\021\210D\003$b>\302='\361C\210:\334|)\210"
 217      88440324 
 217      623EC23D 
 217      27F14388 
ARM GAS  /tmp/ccCosrax.s 			page 17


 217      3ADC7C29 
 218 07bc 2BCD53E7 		.ascii	"+\315S\347\346\323*k\253x\316\303;\252V\360\351nw\035"
 218      E6D32A6B 
 218      AB78CEC3 
 218      3BAA56F0 
 218      E96E771D 
 219 07d0 5F4AB52B 		.ascii	"_J\265+\315\355\256\342\035\356U\015\216z\217\333Q\316"
 219      CDEDAEE2 
 219      1DEE550D 
 219      8E7A8FDB 
 219      51CE
 220 07e2 F30EDE0D 		.ascii	"\363\016\336\015\277aAEe\003\357\250$+\353\312yn\265"
 220      BF614145 
 220      6503EFA8 
 220      242BEBCA 
 220      796EB5
 221 07f5 B2AA0CE6 		.ascii	"\262\252\014\346\257\345\323\274\220\024\305s\371\205"
 221      AFE5D3BC 
 221      9014C573 
 221      F985
 222 0803 22A02038 		.ascii	"\"\240 8\344IbB\236\020\225\225!\357O\253\303\241@\255"
 222      E4496242 
 222      9E109595 
 222      21EF4FAB 
 222      C3A140AD 
 223 0817 87CFA761 		.ascii	"\207\317\247a\322\015\024\320X\373a@h\202\021\301\027"
 223      D20D14D0 
 223      58FB6140 
 223      688211C1 
 223      17
 224 0828 09672786 		.ascii	"\011g'\206\312LwNj\213:\335u\236Z\317\354&\004\"\276"
 224      CA4C774E 
 224      6A8B3ADD 
 224      759E5ACF 
 224      EC260422 
 225 083d 88009908 		.ascii	"\210\000\231\010F\027\010BD\212\012\025\345\236\252"
 225      46170842 
 225      448A0A15 
 225      E59EAA
 226 084c 7ABE7681 		.ascii	"z\276v\201\350\177U\334\020\201<\360C\306\245\267\212"
 226      E87F55DC 
 226      10813CF0 
 226      43C6A5B7 
 226      8A
 227 085d FE16E971 		.ascii	"\376\026\351qBk5\273WO\250T\327\004\375:n\224,3\364"
 227      426B35BB 
 227      574FA854 
 227      D704FD3A 
 227      6E942C33 
 228 0872 04E5D612 		.ascii	"\004\345\326\022d\010\347\350\006\1770\017eO\203\262"
 228      6408E7E8 
 228      067F300F 
 228      654F83B2 
 229 0882 7FD5656D 		.ascii	"\177\325emm\312\3165\225-)k#\314sx\267[h\200O\241Rj"
 229      6DCACE35 
 229      952D296B 
 229      23CC7378 
ARM GAS  /tmp/ccCosrax.s 			page 18


 229      B75B6880 
 230 089a E220EEEE 		.ascii	"\342 \356\356\352\025\260\023\265|Vy}\205\213\3674\320"
 230      EA15B013 
 230      B57C5679 
 230      7D858BF7 
 230      34D0
 231 08ac 4E29E964 		.ascii	"N)\351d\224\327TT\255\3423\311\013\365Y\012O\3302\262"
 231      94D75454 
 231      ADE233C9 
 231      0BF5590A 
 231      4FD832B2 
 232 08c0 771E18A8 		.ascii	"w\036\030\250\251 \363\322\011\204\213\352\262\274\312"
 232      A920F3D2 
 232      09848BEA 
 232      B2BCCA
 233 08cf 8A1575EE 		.ascii	"\212\025u\3565\232\201\214\332J\367\352\312\252\014"
 233      359A818C 
 233      DA4AF7EA 
 233      CAAA0C
 234 08de B2B4FA25 		.ascii	"\262\264\372%\362pU\277\364_\335\324OT"
 234      F27055BF 
 234      F45FDDD4 
 234      4F54
 235              		.text
 236              		.section	.gnu.lto_.symtab.ef6ea21788b4aaef,"",%progbits
 237 0000 56656374 		.ascii	"VectorB0\000\000\000\000\000\000\000\000\000\000\000"
 237      6F724230 
 237      00000000 
 237      00000000 
 237      000000
 238 0013 00A80000 		.ascii	"\000\250\000\000\000st_lld_init\000\000\000\000\000"
 238      0073745F 
 238      6C6C645F 
 238      696E6974 
 238      00000000 
 239 0028 00000000 		.ascii	"\000\000\000\000\000\000\000\254\000\000\000_port_i"
 239      000000AC 
 239      0000005F 
 239      706F7274 
 239      5F69
 240 003a 72715F65 		.ascii	"rq_epilogue\000\000\002\000\000\000\000\000\000\000"
 240      70696C6F 
 240      67756500 
 240      00020000 
 240      00000000 
 241 004f 0000AF00 		.ascii	"\000\000\257\000\000\000chSysTimerHandlerI\000\000\002"
 241      00006368 
 241      53797354 
 241      696D6572 
 241      48616E64 
 242 006a 00000000 		.ascii	"\000\000\000\000\000\000\000\000\000\261\000\000\000"
 242      00000000 
 242      00B10000 
 242      00
 243 0077 6E766963 		.ascii	"nvicEnableVector\000\000\002\000\000\000\000\000\000"
 243      456E6162 
 243      6C655665 
ARM GAS  /tmp/ccCosrax.s 			page 19


 243      63746F72 
 243      00000200 
 244 0090 000000B3 		.ascii	"\000\000\000\263\000\000\000"
 244      000000
 245              		.text
 246              		.section	.gnu.lto_.opts,"",%progbits
 247 0000 272D6D63 		.ascii	"'-mcpu=cortex-m4' '-mno-thumb-interwork' '-mthumb' "
 247      70753D63 
 247      6F727465 
 247      782D6D34 
 247      2720272D 
 248 0033 272D6767 		.ascii	"'-ggdb' '-O2' '-fomit-frame-pointer' '-falign-funct"
 248      64622720 
 248      272D4F32 
 248      2720272D 
 248      666F6D69 
 249 0066 696F6E73 		.ascii	"ions=16' '-ffunction-sections' '-fdata-sections' '-"
 249      3D313627 
 249      20272D66 
 249      66756E63 
 249      74696F6E 
 250 0099 666E6F2D 		.ascii	"fno-common' '-flto'\000"
 250      636F6D6D 
 250      6F6E2720 
 250      272D666C 
 250      746F2700 
 251              		.text
 252              		.cfi_sections	.debug_frame
 253              		.section	.text.VectorB0,"ax",%progbits
 254              		.align	2
 255              		.p2align 4,,15
 256              		.global	VectorB0
 257              		.thumb
 258              		.thumb_func
 259              		.type	VectorB0, %function
 260              	VectorB0:
 261              	.LFB270:
 262              		.file 1 "../ChibiOS/os/hal/ports/STM32/LLD/TIMv1/hal_st_lld.c"
 263              		.loc 1 239 0
 264              		.cfi_startproc
 265              		@ args = 0, pretend = 0, frame = 0
 266              		@ frame_needed = 0, uses_anonymous_args = 0
 267              		.loc 1 246 0
 268 0000 4FF08043 		mov	r3, #1073741824
 269              		.loc 1 239 0
 270 0004 10B5     		push	{r4, lr}
 271              		.cfi_def_cfa_offset 8
 272              		.cfi_offset 4, -8
 273              		.cfi_offset 14, -4
 274              		.loc 1 246 0
 275 0006 1A69     		ldr	r2, [r3, #16]
 276 0008 9207     		lsls	r2, r2, #30
 277 000a 08D5     		bpl	.L2
 278              		.loc 1 247 0
 279 000c 0024     		movs	r4, #0
 280 000e 1C61     		str	r4, [r3, #16]
 281              	.LVL0:
ARM GAS  /tmp/ccCosrax.s 			page 20


 282              	.LBB52:
 283              	.LBB53:
 284              	.LBB54:
 285              	.LBB55:
 286              	.LBB56:
 287              	.LBB57:
 288              		.file 2 "../ChibiOS/os/common/ext/CMSIS/include/cmsis_gcc.h"
 289              		.loc 2 264 0
 290 0010 2023     		movs	r3, #32
 291              	@ 264 "../ChibiOS/os/common/ext/CMSIS/include/cmsis_gcc.h" 1
 292 0012 83F31188 		MSR basepri, r3
 293              	@ 0 "" 2
 294              		.thumb
 295              	.LBE57:
 296              	.LBE56:
 297              	.LBE55:
 298              	.LBE54:
 299              	.LBE53:
 300              	.LBE52:
 301              	.LBB58:
 302              	.LBB59:
 303              		.file 3 "../ChibiOS/os/hal/osal/rt/osal.h"
 304              		.loc 3 585 0
 305 0016 FFF7FEFF 		bl	chSysTimerHandlerI
 306              	.LVL1:
 307              	.LBE59:
 308              	.LBE58:
 309              	.LBB60:
 310              	.LBB61:
 311              	.LBB62:
 312              	.LBB63:
 313              	.LBB64:
 314              	.LBB65:
 315              		.loc 2 264 0
 316              	@ 264 "../ChibiOS/os/common/ext/CMSIS/include/cmsis_gcc.h" 1
 317 001a 84F31188 		MSR basepri, r4
 318              	@ 0 "" 2
 319              	.LVL2:
 320              		.thumb
 321              	.L2:
 322              	.LBE65:
 323              	.LBE64:
 324              	.LBE63:
 325              	.LBE62:
 326              	.LBE61:
 327              	.LBE60:
 328              		.loc 1 255 0
 329 001e BDE81040 		pop	{r4, lr}
 330              		.loc 1 254 0
 331 0022 FFF7FEBF 		b	_port_irq_epilogue
 332              	.LVL3:
 333              		.cfi_endproc
 334              	.LFE270:
 335              		.size	VectorB0, .-VectorB0
 336 0026 00BFAFF3 		.section	.text.st_lld_init,"ax",%progbits
 336      0080AFF3 
 336      0080
ARM GAS  /tmp/ccCosrax.s 			page 21


 337              		.align	2
 338              		.p2align 4,,15
 339              		.global	st_lld_init
 340              		.thumb
 341              		.thumb_func
 342              		.type	st_lld_init, %function
 343              	st_lld_init:
 344              	.LFB271:
 345              		.loc 1 267 0
 346              		.cfi_startproc
 347              		@ args = 0, pretend = 0, frame = 0
 348              		@ frame_needed = 0, uses_anonymous_args = 0
 349              		@ link register save eliminated.
 350              		.loc 1 273 0
 351 0000 0F4B     		ldr	r3, .L8
 352              		.loc 1 276 0
 353 0002 1049     		ldr	r1, .L8+4
 354              		.loc 1 273 0
 355 0004 DA69     		ldr	r2, [r3, #28]
 356              		.loc 1 267 0
 357 0006 70B4     		push	{r4, r5, r6}
 358              		.cfi_def_cfa_offset 12
 359              		.cfi_offset 4, -12
 360              		.cfi_offset 5, -8
 361              		.cfi_offset 6, -4
 362              		.loc 1 273 0
 363 0008 42F00102 		orr	r2, r2, #1
 364 000c DA61     		str	r2, [r3, #28]
 365              		.loc 1 276 0
 366 000e 8868     		ldr	r0, [r1, #8]
 367              		.loc 1 279 0
 368 0010 4FF08043 		mov	r3, #1073741824
 369              		.loc 1 281 0
 370 0014 0022     		movs	r2, #0
 371              		.loc 1 285 0
 372 0016 0124     		movs	r4, #1
 373              		.loc 1 276 0
 374 0018 40F00100 		orr	r0, r0, #1
 375              		.loc 1 279 0
 376 001c 41F61F46 		movw	r6, #7199
 377              		.loc 1 280 0
 378 0020 4FF0FF35 		mov	r5, #-1
 379              		.loc 1 276 0
 380 0024 8860     		str	r0, [r1, #8]
 381              		.loc 1 279 0
 382 0026 9E62     		str	r6, [r3, #40]
 383              		.loc 1 289 0
 384 0028 1C20     		movs	r0, #28
 385              		.loc 1 280 0
 386 002a DD62     		str	r5, [r3, #44]
 387              		.loc 1 289 0
 388 002c 0821     		movs	r1, #8
 389              		.loc 1 281 0
 390 002e 9A61     		str	r2, [r3, #24]
 391              		.loc 1 282 0
 392 0030 5A63     		str	r2, [r3, #52]
 393              		.loc 1 283 0
ARM GAS  /tmp/ccCosrax.s 			page 22


 394 0032 DA60     		str	r2, [r3, #12]
 395              		.loc 1 284 0
 396 0034 5A60     		str	r2, [r3, #4]
 397              		.loc 1 285 0
 398 0036 5C61     		str	r4, [r3, #20]
 399              		.loc 1 286 0
 400 0038 1C60     		str	r4, [r3]
 401              		.loc 1 304 0
 402 003a 70BC     		pop	{r4, r5, r6}
 403              		.loc 1 289 0
 404 003c FFF7FEBF 		b	nvicEnableVector
 405              	.LVL4:
 406              	.L9:
 407              		.align	2
 408              	.L8:
 409 0040 00100240 		.word	1073876992
 410 0044 002004E0 		.word	-536600576
 411              		.cfi_endproc
 412              	.LFE271:
 413              		.size	st_lld_init, .-st_lld_init
 414 0048 AFF30080 		.text
 414      AFF30080 
 415              	.Letext0:
 416              		.file 4 "/nfs/nfs5/home/research/hardware/arm2/gcc-arm-embedded/gcc-arm-none-eabi-4_8-2014q2/arm-n
 417              		.file 5 "/nfs/nfs5/home/research/hardware/arm2/gcc-arm-embedded/gcc-arm-none-eabi-4_8-2014q2/arm-n
 418              		.file 6 "../ChibiOS/os/common/ports/ARMCMx/compilers/GCC/chtypes.h"
 419              		.file 7 "../ChibiOS/os/rt/include/chsystypes.h"
 420              		.file 8 "../ChibiOS/os/rt/include/chschd.h"
 421              		.file 9 "../ChibiOS/os/common/ext/CMSIS/ST/STM32F3xx/stm32f303xc.h"
 422              		.file 10 "../ChibiOS/os/common/ports/ARMCMx/chcore.h"
 423              		.file 11 "../ChibiOS/os/common/ports/ARMCMx/chcore_v7m.h"
 424              		.file 12 "../ChibiOS/os/hal/ports/STM32/LLD/TIMv1/stm32_tim.h"
 425              		.file 13 "../ChibiOS/os/rt/include/chtm.h"
 426              		.file 14 "../ChibiOS/os/rt/include/chsem.h"
 427              		.file 15 "../ChibiOS/os/rt/include/chmtx.h"
 428              		.file 16 "../ChibiOS/os/rt/include/chsys.h"
 429              		.file 17 "../ChibiOS/os/common/ext/CMSIS/include/core_cm4.h"
 430              		.file 18 "../ChibiOS/os/hal/ports/common/ARMCMx/nvic.h"
 431              		.section	.debug_info,"",%progbits
 432              	.Ldebug_info0:
 433 0000 190A0000 		.4byte	0xa19
 434 0004 0400     		.2byte	0x4
 435 0006 00000000 		.4byte	.Ldebug_abbrev0
 436 000a 04       		.byte	0x4
 437 000b 01       		.uleb128 0x1
 438 000c 80050000 		.4byte	.LASF129
 439 0010 01       		.byte	0x1
 440 0011 26020000 		.4byte	.LASF130
 441 0015 A5030000 		.4byte	.LASF131
 442 0019 00000000 		.4byte	.Ldebug_ranges0+0
 443 001d 00000000 		.4byte	0
 444 0021 00000000 		.4byte	.Ldebug_line0
 445 0025 02       		.uleb128 0x2
 446 0026 04       		.byte	0x4
 447 0027 05       		.byte	0x5
 448 0028 696E7400 		.ascii	"int\000"
 449 002c 03       		.uleb128 0x3
ARM GAS  /tmp/ccCosrax.s 			page 23


 450 002d 04       		.byte	0x4
 451 002e 07       		.byte	0x7
 452 002f DA010000 		.4byte	.LASF0
 453 0033 03       		.uleb128 0x3
 454 0034 01       		.byte	0x1
 455 0035 06       		.byte	0x6
 456 0036 11010000 		.4byte	.LASF1
 457 003a 04       		.uleb128 0x4
 458 003b 33000000 		.4byte	.LASF5
 459 003f 04       		.byte	0x4
 460 0040 1C       		.byte	0x1c
 461 0041 45000000 		.4byte	0x45
 462 0045 03       		.uleb128 0x3
 463 0046 01       		.byte	0x1
 464 0047 08       		.byte	0x8
 465 0048 F1030000 		.4byte	.LASF2
 466 004c 03       		.uleb128 0x3
 467 004d 02       		.byte	0x2
 468 004e 05       		.byte	0x5
 469 004f 0C040000 		.4byte	.LASF3
 470 0053 03       		.uleb128 0x3
 471 0054 02       		.byte	0x2
 472 0055 07       		.byte	0x7
 473 0056 08050000 		.4byte	.LASF4
 474 005a 04       		.uleb128 0x4
 475 005b A5020000 		.4byte	.LASF6
 476 005f 04       		.byte	0x4
 477 0060 37       		.byte	0x37
 478 0061 65000000 		.4byte	0x65
 479 0065 03       		.uleb128 0x3
 480 0066 04       		.byte	0x4
 481 0067 05       		.byte	0x5
 482 0068 57010000 		.4byte	.LASF7
 483 006c 04       		.uleb128 0x4
 484 006d 90010000 		.4byte	.LASF8
 485 0071 04       		.byte	0x4
 486 0072 38       		.byte	0x38
 487 0073 77000000 		.4byte	0x77
 488 0077 03       		.uleb128 0x3
 489 0078 04       		.byte	0x4
 490 0079 07       		.byte	0x7
 491 007a EE010000 		.4byte	.LASF9
 492 007e 03       		.uleb128 0x3
 493 007f 08       		.byte	0x8
 494 0080 05       		.byte	0x5
 495 0081 7C010000 		.4byte	.LASF10
 496 0085 04       		.uleb128 0x4
 497 0086 5B030000 		.4byte	.LASF11
 498 008a 04       		.byte	0x4
 499 008b 4E       		.byte	0x4e
 500 008c 90000000 		.4byte	0x90
 501 0090 03       		.uleb128 0x3
 502 0091 08       		.byte	0x8
 503 0092 07       		.byte	0x7
 504 0093 67000000 		.4byte	.LASF12
 505 0097 04       		.uleb128 0x4
 506 0098 72050000 		.4byte	.LASF13
ARM GAS  /tmp/ccCosrax.s 			page 24


 507 009c 05       		.byte	0x5
 508 009d 2A       		.byte	0x2a
 509 009e 3A000000 		.4byte	0x3a
 510 00a2 04       		.uleb128 0x4
 511 00a3 E9030000 		.4byte	.LASF14
 512 00a7 05       		.byte	0x5
 513 00a8 41       		.byte	0x41
 514 00a9 5A000000 		.4byte	0x5a
 515 00ad 04       		.uleb128 0x4
 516 00ae 60040000 		.4byte	.LASF15
 517 00b2 05       		.byte	0x5
 518 00b3 42       		.byte	0x42
 519 00b4 6C000000 		.4byte	0x6c
 520 00b8 04       		.uleb128 0x4
 521 00b9 2A000000 		.4byte	.LASF16
 522 00bd 05       		.byte	0x5
 523 00be 4E       		.byte	0x4e
 524 00bf 85000000 		.4byte	0x85
 525 00c3 04       		.uleb128 0x4
 526 00c4 27050000 		.4byte	.LASF17
 527 00c8 06       		.byte	0x6
 528 00c9 39       		.byte	0x39
 529 00ca AD000000 		.4byte	0xad
 530 00ce 04       		.uleb128 0x4
 531 00cf 76060000 		.4byte	.LASF18
 532 00d3 06       		.byte	0x6
 533 00d4 3C       		.byte	0x3c
 534 00d5 97000000 		.4byte	0x97
 535 00d9 04       		.uleb128 0x4
 536 00da 69010000 		.4byte	.LASF19
 537 00de 06       		.byte	0x6
 538 00df 3D       		.byte	0x3d
 539 00e0 97000000 		.4byte	0x97
 540 00e4 04       		.uleb128 0x4
 541 00e5 6D030000 		.4byte	.LASF20
 542 00e9 06       		.byte	0x6
 543 00ea 3E       		.byte	0x3e
 544 00eb 97000000 		.4byte	0x97
 545 00ef 04       		.uleb128 0x4
 546 00f0 8A030000 		.4byte	.LASF21
 547 00f4 06       		.byte	0x6
 548 00f5 40       		.byte	0x40
 549 00f6 AD000000 		.4byte	0xad
 550 00fa 04       		.uleb128 0x4
 551 00fb 5B020000 		.4byte	.LASF22
 552 00ff 06       		.byte	0x6
 553 0100 41       		.byte	0x41
 554 0101 A2000000 		.4byte	0xa2
 555 0105 04       		.uleb128 0x4
 556 0106 99020000 		.4byte	.LASF23
 557 010a 06       		.byte	0x6
 558 010b 43       		.byte	0x43
 559 010c AD000000 		.4byte	0xad
 560 0110 04       		.uleb128 0x4
 561 0111 D4010000 		.4byte	.LASF24
 562 0115 06       		.byte	0x6
 563 0116 45       		.byte	0x45
ARM GAS  /tmp/ccCosrax.s 			page 25


 564 0117 A2000000 		.4byte	0xa2
 565 011b 04       		.uleb128 0x4
 566 011c BB040000 		.4byte	.LASF25
 567 0120 07       		.byte	0x7
 568 0121 33       		.byte	0x33
 569 0122 AD000000 		.4byte	0xad
 570 0126 04       		.uleb128 0x4
 571 0127 B2040000 		.4byte	.LASF26
 572 012b 07       		.byte	0x7
 573 012c 3F       		.byte	0x3f
 574 012d 31010000 		.4byte	0x131
 575 0131 05       		.uleb128 0x5
 576 0132 1C020000 		.4byte	.LASF44
 577 0136 44       		.byte	0x44
 578 0137 08       		.byte	0x8
 579 0138 9A       		.byte	0x9a
 580 0139 0F020000 		.4byte	0x20f
 581 013d 06       		.uleb128 0x6
 582 013e 8A010000 		.4byte	.LASF27
 583 0142 08       		.byte	0x8
 584 0143 9B       		.byte	0x9b
 585 0144 44020000 		.4byte	0x244
 586 0148 00       		.byte	0
 587 0149 06       		.uleb128 0x6
 588 014a 45030000 		.4byte	.LASF28
 589 014e 08       		.byte	0x8
 590 014f 9C       		.byte	0x9c
 591 0150 EF000000 		.4byte	0xef
 592 0154 08       		.byte	0x8
 593 0155 07       		.uleb128 0x7
 594 0156 63747800 		.ascii	"ctx\000"
 595 015a 08       		.byte	0x8
 596 015b 9D       		.byte	0x9d
 597 015c 68050000 		.4byte	0x568
 598 0160 0C       		.byte	0xc
 599 0161 06       		.uleb128 0x6
 600 0162 CE020000 		.4byte	.LASF29
 601 0166 08       		.byte	0x8
 602 0167 9F       		.byte	0x9f
 603 0168 1A020000 		.4byte	0x21a
 604 016c 10       		.byte	0x10
 605 016d 06       		.uleb128 0x6
 606 016e 92040000 		.4byte	.LASF30
 607 0172 08       		.byte	0x8
 608 0173 A0       		.byte	0xa0
 609 0174 1A020000 		.4byte	0x21a
 610 0178 14       		.byte	0x14
 611 0179 06       		.uleb128 0x6
 612 017a 0C020000 		.4byte	.LASF31
 613 017e 08       		.byte	0x8
 614 017f A7       		.byte	0xa7
 615 0180 0F080000 		.4byte	0x80f
 616 0184 18       		.byte	0x18
 617 0185 06       		.uleb128 0x6
 618 0186 86040000 		.4byte	.LASF32
 619 018a 08       		.byte	0x8
 620 018b B0       		.byte	0xb0
ARM GAS  /tmp/ccCosrax.s 			page 26


 621 018c 21080000 		.4byte	0x821
 622 0190 1C       		.byte	0x1c
 623 0191 06       		.uleb128 0x6
 624 0192 47010000 		.4byte	.LASF33
 625 0196 08       		.byte	0x8
 626 0197 B5       		.byte	0xb5
 627 0198 D9000000 		.4byte	0xd9
 628 019c 20       		.byte	0x20
 629 019d 06       		.uleb128 0x6
 630 019e 7A050000 		.4byte	.LASF34
 631 01a2 08       		.byte	0x8
 632 01a3 B9       		.byte	0xb9
 633 01a4 CE000000 		.4byte	0xce
 634 01a8 21       		.byte	0x21
 635 01a9 06       		.uleb128 0x6
 636 01aa 75030000 		.4byte	.LASF35
 637 01ae 08       		.byte	0x8
 638 01af BE       		.byte	0xbe
 639 01b0 E4000000 		.4byte	0xe4
 640 01b4 22       		.byte	0x22
 641 01b5 08       		.uleb128 0x8
 642 01b6 7500     		.ascii	"u\000"
 643 01b8 08       		.byte	0x8
 644 01b9 0F01     		.2byte	0x10f
 645 01bb 44070000 		.4byte	0x744
 646 01bf 24       		.byte	0x24
 647 01c0 09       		.uleb128 0x9
 648 01c1 BE010000 		.4byte	.LASF36
 649 01c5 08       		.byte	0x8
 650 01c6 1401     		.2byte	0x114
 651 01c8 20020000 		.4byte	0x220
 652 01cc 28       		.byte	0x28
 653 01cd 09       		.uleb128 0x9
 654 01ce 3E010000 		.4byte	.LASF37
 655 01d2 08       		.byte	0x8
 656 01d3 1A01     		.2byte	0x11a
 657 01d5 44020000 		.4byte	0x244
 658 01d9 2C       		.byte	0x2c
 659 01da 09       		.uleb128 0x9
 660 01db 61020000 		.4byte	.LASF38
 661 01df 08       		.byte	0x8
 662 01e0 2001     		.2byte	0x120
 663 01e2 05010000 		.4byte	0x105
 664 01e6 34       		.byte	0x34
 665 01e7 09       		.uleb128 0x9
 666 01e8 7E060000 		.4byte	.LASF39
 667 01ec 08       		.byte	0x8
 668 01ed 2701     		.2byte	0x127
 669 01ef 09080000 		.4byte	0x809
 670 01f3 38       		.byte	0x38
 671 01f4 09       		.uleb128 0x9
 672 01f5 E3020000 		.4byte	.LASF40
 673 01f9 08       		.byte	0x8
 674 01fa 2B01     		.2byte	0x12b
 675 01fc EF000000 		.4byte	0xef
 676 0200 3C       		.byte	0x3c
 677 0201 09       		.uleb128 0x9
ARM GAS  /tmp/ccCosrax.s 			page 27


 678 0202 11020000 		.4byte	.LASF41
 679 0206 08       		.byte	0x8
 680 0207 3201     		.2byte	0x132
 681 0209 F7020000 		.4byte	0x2f7
 682 020d 40       		.byte	0x40
 683 020e 00       		.byte	0
 684 020f 04       		.uleb128 0x4
 685 0210 F5020000 		.4byte	.LASF42
 686 0214 07       		.byte	0x7
 687 0215 44       		.byte	0x44
 688 0216 1A020000 		.4byte	0x21a
 689 021a 0A       		.uleb128 0xa
 690 021b 04       		.byte	0x4
 691 021c 26010000 		.4byte	0x126
 692 0220 04       		.uleb128 0x4
 693 0221 D4020000 		.4byte	.LASF43
 694 0225 07       		.byte	0x7
 695 0226 49       		.byte	0x49
 696 0227 2B020000 		.4byte	0x22b
 697 022b 05       		.uleb128 0x5
 698 022c 70040000 		.4byte	.LASF45
 699 0230 04       		.byte	0x4
 700 0231 08       		.byte	0x8
 701 0232 88       		.byte	0x88
 702 0233 44020000 		.4byte	0x244
 703 0237 06       		.uleb128 0x6
 704 0238 18000000 		.4byte	.LASF46
 705 023c 08       		.byte	0x8
 706 023d 89       		.byte	0x89
 707 023e 1A020000 		.4byte	0x21a
 708 0242 00       		.byte	0
 709 0243 00       		.byte	0
 710 0244 04       		.uleb128 0x4
 711 0245 42050000 		.4byte	.LASF47
 712 0249 07       		.byte	0x7
 713 024a 50       		.byte	0x50
 714 024b 4F020000 		.4byte	0x24f
 715 024f 05       		.uleb128 0x5
 716 0250 DD000000 		.4byte	.LASF48
 717 0254 08       		.byte	0x8
 718 0255 08       		.byte	0x8
 719 0256 8F       		.byte	0x8f
 720 0257 74020000 		.4byte	0x274
 721 025b 06       		.uleb128 0x6
 722 025c 18000000 		.4byte	.LASF46
 723 0260 08       		.byte	0x8
 724 0261 90       		.byte	0x90
 725 0262 1A020000 		.4byte	0x21a
 726 0266 00       		.byte	0
 727 0267 06       		.uleb128 0x6
 728 0268 3D000000 		.4byte	.LASF49
 729 026c 08       		.byte	0x8
 730 026d 91       		.byte	0x91
 731 026e 1A020000 		.4byte	0x21a
 732 0272 04       		.byte	0x4
 733 0273 00       		.byte	0
 734 0274 04       		.uleb128 0x4
ARM GAS  /tmp/ccCosrax.s 			page 28


 735 0275 00000000 		.4byte	.LASF50
 736 0279 07       		.byte	0x7
 737 027a 57       		.byte	0x57
 738 027b 7F020000 		.4byte	0x27f
 739 027f 0B       		.uleb128 0xb
 740 0280 8B020000 		.4byte	.LASF51
 741 0284 1C       		.byte	0x1c
 742 0285 08       		.byte	0x8
 743 0286 6A01     		.2byte	0x16a
 744 0288 DB020000 		.4byte	0x2db
 745 028c 09       		.uleb128 0x9
 746 028d 8A010000 		.4byte	.LASF27
 747 0291 08       		.byte	0x8
 748 0292 6B01     		.2byte	0x16b
 749 0294 44020000 		.4byte	0x244
 750 0298 00       		.byte	0
 751 0299 09       		.uleb128 0x9
 752 029a 45030000 		.4byte	.LASF28
 753 029e 08       		.byte	0x8
 754 029f 6C01     		.2byte	0x16c
 755 02a1 EF000000 		.4byte	0xef
 756 02a5 08       		.byte	0x8
 757 02a6 08       		.uleb128 0x8
 758 02a7 63747800 		.ascii	"ctx\000"
 759 02ab 08       		.byte	0x8
 760 02ac 6E01     		.2byte	0x16e
 761 02ae 68050000 		.4byte	0x568
 762 02b2 0C       		.byte	0xc
 763 02b3 09       		.uleb128 0x9
 764 02b4 CE020000 		.4byte	.LASF29
 765 02b8 08       		.byte	0x8
 766 02b9 7101     		.2byte	0x171
 767 02bb 1A020000 		.4byte	0x21a
 768 02bf 10       		.byte	0x10
 769 02c0 09       		.uleb128 0x9
 770 02c1 92040000 		.4byte	.LASF30
 771 02c5 08       		.byte	0x8
 772 02c6 7201     		.2byte	0x172
 773 02c8 1A020000 		.4byte	0x21a
 774 02cc 14       		.byte	0x14
 775 02cd 09       		.uleb128 0x9
 776 02ce 53030000 		.4byte	.LASF52
 777 02d2 08       		.byte	0x8
 778 02d3 7501     		.2byte	0x175
 779 02d5 1A020000 		.4byte	0x21a
 780 02d9 18       		.byte	0x18
 781 02da 00       		.byte	0
 782 02db 04       		.uleb128 0x4
 783 02dc D8040000 		.4byte	.LASF53
 784 02e0 07       		.byte	0x7
 785 02e1 5C       		.byte	0x5c
 786 02e2 E6020000 		.4byte	0x2e6
 787 02e6 0A       		.uleb128 0xa
 788 02e7 04       		.byte	0x4
 789 02e8 EC020000 		.4byte	0x2ec
 790 02ec 0C       		.uleb128 0xc
 791 02ed F7020000 		.4byte	0x2f7
ARM GAS  /tmp/ccCosrax.s 			page 29


 792 02f1 0D       		.uleb128 0xd
 793 02f2 F7020000 		.4byte	0x2f7
 794 02f6 00       		.byte	0
 795 02f7 0E       		.uleb128 0xe
 796 02f8 04       		.byte	0x4
 797 02f9 04       		.uleb128 0x4
 798 02fa 7A030000 		.4byte	.LASF54
 799 02fe 07       		.byte	0x7
 800 02ff 61       		.byte	0x61
 801 0300 04030000 		.4byte	0x304
 802 0304 0B       		.uleb128 0xb
 803 0305 2E040000 		.4byte	.LASF55
 804 0309 14       		.byte	0x14
 805 030a 08       		.byte	0x8
 806 030b 4501     		.2byte	0x145
 807 030d 53030000 		.4byte	0x353
 808 0311 09       		.uleb128 0x9
 809 0312 18000000 		.4byte	.LASF46
 810 0316 08       		.byte	0x8
 811 0317 4601     		.2byte	0x146
 812 0319 27080000 		.4byte	0x827
 813 031d 00       		.byte	0
 814 031e 09       		.uleb128 0x9
 815 031f 3D000000 		.4byte	.LASF49
 816 0323 08       		.byte	0x8
 817 0324 4701     		.2byte	0x147
 818 0326 27080000 		.4byte	0x827
 819 032a 04       		.byte	0x4
 820 032b 09       		.uleb128 0x9
 821 032c 1D000000 		.4byte	.LASF56
 822 0330 08       		.byte	0x8
 823 0331 4801     		.2byte	0x148
 824 0333 1B010000 		.4byte	0x11b
 825 0337 08       		.byte	0x8
 826 0338 09       		.uleb128 0x9
 827 0339 72010000 		.4byte	.LASF57
 828 033d 08       		.byte	0x8
 829 033e 4901     		.2byte	0x149
 830 0340 DB020000 		.4byte	0x2db
 831 0344 0C       		.byte	0xc
 832 0345 08       		.uleb128 0x8
 833 0346 70617200 		.ascii	"par\000"
 834 034a 08       		.byte	0x8
 835 034b 4B01     		.2byte	0x14b
 836 034d F7020000 		.4byte	0x2f7
 837 0351 10       		.byte	0x10
 838 0352 00       		.byte	0
 839 0353 04       		.uleb128 0x4
 840 0354 A1000000 		.4byte	.LASF58
 841 0358 07       		.byte	0x7
 842 0359 66       		.byte	0x66
 843 035a 5E030000 		.4byte	0x35e
 844 035e 0B       		.uleb128 0xb
 845 035f 08030000 		.4byte	.LASF59
 846 0363 10       		.byte	0x10
 847 0364 08       		.byte	0x8
 848 0365 5501     		.2byte	0x155
ARM GAS  /tmp/ccCosrax.s 			page 30


 849 0367 A0030000 		.4byte	0x3a0
 850 036b 09       		.uleb128 0x9
 851 036c 18000000 		.4byte	.LASF46
 852 0370 08       		.byte	0x8
 853 0371 5601     		.2byte	0x156
 854 0373 27080000 		.4byte	0x827
 855 0377 00       		.byte	0
 856 0378 09       		.uleb128 0x9
 857 0379 3D000000 		.4byte	.LASF49
 858 037d 08       		.byte	0x8
 859 037e 5801     		.2byte	0x158
 860 0380 27080000 		.4byte	0x827
 861 0384 04       		.byte	0x4
 862 0385 09       		.uleb128 0x9
 863 0386 1D000000 		.4byte	.LASF56
 864 038a 08       		.byte	0x8
 865 038b 5A01     		.2byte	0x15a
 866 038d 1B010000 		.4byte	0x11b
 867 0391 08       		.byte	0x8
 868 0392 09       		.uleb128 0x9
 869 0393 16040000 		.4byte	.LASF60
 870 0397 08       		.byte	0x8
 871 0398 6201     		.2byte	0x162
 872 039a 1B010000 		.4byte	0x11b
 873 039e 0C       		.byte	0xc
 874 039f 00       		.byte	0
 875 03a0 04       		.uleb128 0x4
 876 03a1 4E000000 		.4byte	.LASF61
 877 03a5 07       		.byte	0x7
 878 03a6 6B       		.byte	0x6b
 879 03a7 AB030000 		.4byte	0x3ab
 880 03ab 0B       		.uleb128 0xb
 881 03ac D3030000 		.4byte	.LASF62
 882 03b0 04       		.byte	0x4
 883 03b1 08       		.byte	0x8
 884 03b2 7C01     		.2byte	0x17c
 885 03b4 C6030000 		.4byte	0x3c6
 886 03b8 09       		.uleb128 0x9
 887 03b9 EF040000 		.4byte	.LASF63
 888 03bd 08       		.byte	0x8
 889 03be 8401     		.2byte	0x184
 890 03c0 2D080000 		.4byte	0x82d
 891 03c4 00       		.byte	0
 892 03c5 00       		.byte	0
 893 03c6 04       		.uleb128 0x4
 894 03c7 1B050000 		.4byte	.LASF64
 895 03cb 07       		.byte	0x7
 896 03cc 70       		.byte	0x70
 897 03cd D1030000 		.4byte	0x3d1
 898 03d1 0B       		.uleb128 0xb
 899 03d2 4D010000 		.4byte	.LASF65
 900 03d6 78       		.byte	0x78
 901 03d7 08       		.byte	0x8
 902 03d8 9C01     		.2byte	0x19c
 903 03da 1F040000 		.4byte	0x41f
 904 03de 09       		.uleb128 0x9
 905 03df 60050000 		.4byte	.LASF66
ARM GAS  /tmp/ccCosrax.s 			page 31


 906 03e3 08       		.byte	0x8
 907 03e4 A001     		.2byte	0x1a0
 908 03e6 74020000 		.4byte	0x274
 909 03ea 00       		.byte	0
 910 03eb 09       		.uleb128 0x9
 911 03ec A4010000 		.4byte	.LASF67
 912 03f0 08       		.byte	0x8
 913 03f1 A401     		.2byte	0x1a4
 914 03f3 53030000 		.4byte	0x353
 915 03f7 1C       		.byte	0x1c
 916 03f8 08       		.uleb128 0x8
 917 03f9 64626700 		.ascii	"dbg\000"
 918 03fd 08       		.byte	0x8
 919 03fe A801     		.2byte	0x1a8
 920 0400 A0030000 		.4byte	0x3a0
 921 0404 2C       		.byte	0x2c
 922 0405 09       		.uleb128 0x9
 923 0406 8E000000 		.4byte	.LASF68
 924 040a 08       		.byte	0x8
 925 040b AC01     		.2byte	0x1ac
 926 040d 26010000 		.4byte	0x126
 927 0411 30       		.byte	0x30
 928 0412 08       		.uleb128 0x8
 929 0413 746D00   		.ascii	"tm\000"
 930 0416 08       		.byte	0x8
 931 0417 B101     		.2byte	0x1b1
 932 0419 39070000 		.4byte	0x739
 933 041d 74       		.byte	0x74
 934 041e 00       		.byte	0
 935 041f 03       		.uleb128 0x3
 936 0420 04       		.byte	0x4
 937 0421 07       		.byte	0x7
 938 0422 EC020000 		.4byte	.LASF69
 939 0426 0F       		.uleb128 0xf
 940 0427 AD000000 		.4byte	0xad
 941 042b 10       		.uleb128 0x10
 942 042c AD000000 		.4byte	0xad
 943 0430 3B040000 		.4byte	0x43b
 944 0434 11       		.uleb128 0x11
 945 0435 1F040000 		.4byte	0x41f
 946 0439 01       		.byte	0x1
 947 043a 00       		.byte	0
 948 043b 10       		.uleb128 0x10
 949 043c AD000000 		.4byte	0xad
 950 0440 4B040000 		.4byte	0x44b
 951 0444 11       		.uleb128 0x11
 952 0445 1F040000 		.4byte	0x41f
 953 0449 03       		.byte	0x3
 954 044a 00       		.byte	0
 955 044b 12       		.uleb128 0x12
 956 044c 10       		.byte	0x10
 957 044d 09       		.byte	0x9
 958 044e 5601     		.2byte	0x156
 959 0450 88040000 		.4byte	0x488
 960 0454 09       		.uleb128 0x9
 961 0455 7E000000 		.4byte	.LASF70
 962 0459 09       		.byte	0x9
ARM GAS  /tmp/ccCosrax.s 			page 32


 963 045a 5801     		.2byte	0x158
 964 045c 26040000 		.4byte	0x426
 965 0460 00       		.byte	0
 966 0461 08       		.uleb128 0x8
 967 0462 435200   		.ascii	"CR\000"
 968 0465 09       		.byte	0x9
 969 0466 5901     		.2byte	0x159
 970 0468 26040000 		.4byte	0x426
 971 046c 04       		.byte	0x4
 972 046d 09       		.uleb128 0x9
 973 046e 66030000 		.4byte	.LASF71
 974 0472 09       		.byte	0x9
 975 0473 5A01     		.2byte	0x15a
 976 0475 26040000 		.4byte	0x426
 977 0479 08       		.byte	0x8
 978 047a 09       		.uleb128 0x9
 979 047b 6A020000 		.4byte	.LASF72
 980 047f 09       		.byte	0x9
 981 0480 5B01     		.2byte	0x15b
 982 0482 26040000 		.4byte	0x426
 983 0486 0C       		.byte	0xc
 984 0487 00       		.byte	0
 985 0488 13       		.uleb128 0x13
 986 0489 51040000 		.4byte	.LASF73
 987 048d 09       		.byte	0x9
 988 048e 5C01     		.2byte	0x15c
 989 0490 4B040000 		.4byte	0x44b
 990 0494 12       		.uleb128 0x12
 991 0495 34       		.byte	0x34
 992 0496 09       		.byte	0x9
 993 0497 FB01     		.2byte	0x1fb
 994 0499 46050000 		.4byte	0x546
 995 049d 08       		.uleb128 0x8
 996 049e 435200   		.ascii	"CR\000"
 997 04a1 09       		.byte	0x9
 998 04a2 FD01     		.2byte	0x1fd
 999 04a4 26040000 		.4byte	0x426
 1000 04a8 00       		.byte	0
 1001 04a9 09       		.uleb128 0x9
 1002 04aa 71060000 		.4byte	.LASF74
 1003 04ae 09       		.byte	0x9
 1004 04af FE01     		.2byte	0x1fe
 1005 04b1 26040000 		.4byte	0x426
 1006 04b5 04       		.byte	0x4
 1007 04b6 08       		.uleb128 0x8
 1008 04b7 43495200 		.ascii	"CIR\000"
 1009 04bb 09       		.byte	0x9
 1010 04bc FF01     		.2byte	0x1ff
 1011 04be 26040000 		.4byte	0x426
 1012 04c2 08       		.byte	0x8
 1013 04c3 09       		.uleb128 0x9
 1014 04c4 60010000 		.4byte	.LASF75
 1015 04c8 09       		.byte	0x9
 1016 04c9 0002     		.2byte	0x200
 1017 04cb 26040000 		.4byte	0x426
 1018 04cf 0C       		.byte	0xc
 1019 04d0 09       		.uleb128 0x9
ARM GAS  /tmp/ccCosrax.s 			page 33


 1020 04d1 4A030000 		.4byte	.LASF76
 1021 04d5 09       		.byte	0x9
 1022 04d6 0102     		.2byte	0x201
 1023 04d8 26040000 		.4byte	0x426
 1024 04dc 10       		.byte	0x10
 1025 04dd 09       		.uleb128 0x9
 1026 04de 86060000 		.4byte	.LASF77
 1027 04e2 09       		.byte	0x9
 1028 04e3 0202     		.2byte	0x202
 1029 04e5 26040000 		.4byte	0x426
 1030 04e9 14       		.byte	0x14
 1031 04ea 09       		.uleb128 0x9
 1032 04eb 26040000 		.4byte	.LASF78
 1033 04ef 09       		.byte	0x9
 1034 04f0 0302     		.2byte	0x203
 1035 04f2 26040000 		.4byte	0x426
 1036 04f6 18       		.byte	0x18
 1037 04f7 09       		.uleb128 0x9
 1038 04f8 00050000 		.4byte	.LASF79
 1039 04fc 09       		.byte	0x9
 1040 04fd 0402     		.2byte	0x204
 1041 04ff 26040000 		.4byte	0x426
 1042 0503 1C       		.byte	0x1c
 1043 0504 09       		.uleb128 0x9
 1044 0505 5B050000 		.4byte	.LASF80
 1045 0509 09       		.byte	0x9
 1046 050a 0502     		.2byte	0x205
 1047 050c 26040000 		.4byte	0x426
 1048 0510 20       		.byte	0x20
 1049 0511 08       		.uleb128 0x8
 1050 0512 43535200 		.ascii	"CSR\000"
 1051 0516 09       		.byte	0x9
 1052 0517 0602     		.2byte	0x206
 1053 0519 26040000 		.4byte	0x426
 1054 051d 24       		.byte	0x24
 1055 051e 09       		.uleb128 0x9
 1056 051f 3D030000 		.4byte	.LASF81
 1057 0523 09       		.byte	0x9
 1058 0524 0702     		.2byte	0x207
 1059 0526 26040000 		.4byte	0x426
 1060 052a 28       		.byte	0x28
 1061 052b 09       		.uleb128 0x9
 1062 052c 66050000 		.4byte	.LASF82
 1063 0530 09       		.byte	0x9
 1064 0531 0802     		.2byte	0x208
 1065 0533 26040000 		.4byte	0x426
 1066 0537 2C       		.byte	0x2c
 1067 0538 09       		.uleb128 0x9
 1068 0539 6C050000 		.4byte	.LASF83
 1069 053d 09       		.byte	0x9
 1070 053e 0902     		.2byte	0x209
 1071 0540 26040000 		.4byte	0x426
 1072 0544 30       		.byte	0x30
 1073 0545 00       		.byte	0
 1074 0546 13       		.uleb128 0x13
 1075 0547 00020000 		.4byte	.LASF84
 1076 054b 09       		.byte	0x9
ARM GAS  /tmp/ccCosrax.s 			page 34


 1077 054c 0A02     		.2byte	0x20a
 1078 054e 94040000 		.4byte	0x494
 1079 0552 04       		.uleb128 0x4
 1080 0553 9B010000 		.4byte	.LASF85
 1081 0557 0A       		.byte	0xa
 1082 0558 65       		.byte	0x65
 1083 0559 F7020000 		.4byte	0x2f7
 1084 055d 04       		.uleb128 0x4
 1085 055e AF020000 		.4byte	.LASF86
 1086 0562 0A       		.byte	0xa
 1087 0563 6D       		.byte	0x6d
 1088 0564 B8000000 		.4byte	0xb8
 1089 0568 05       		.uleb128 0x5
 1090 0569 1F030000 		.4byte	.LASF87
 1091 056d 04       		.byte	0x4
 1092 056e 0A       		.byte	0xa
 1093 056f 89       		.byte	0x89
 1094 0570 80050000 		.4byte	0x580
 1095 0574 07       		.uleb128 0x7
 1096 0575 737000   		.ascii	"sp\000"
 1097 0578 0A       		.byte	0xa
 1098 0579 8A       		.byte	0x8a
 1099 057a FC050000 		.4byte	0x5fc
 1100 057e 00       		.byte	0
 1101 057f 00       		.byte	0
 1102 0580 0B       		.uleb128 0xb
 1103 0581 42000000 		.4byte	.LASF88
 1104 0585 24       		.byte	0x24
 1105 0586 0B       		.byte	0xb
 1106 0587 5901     		.2byte	0x159
 1107 0589 FC050000 		.4byte	0x5fc
 1108 058d 08       		.uleb128 0x8
 1109 058e 723400   		.ascii	"r4\000"
 1110 0591 0B       		.byte	0xb
 1111 0592 6C01     		.2byte	0x16c
 1112 0594 52050000 		.4byte	0x552
 1113 0598 00       		.byte	0
 1114 0599 08       		.uleb128 0x8
 1115 059a 723500   		.ascii	"r5\000"
 1116 059d 0B       		.byte	0xb
 1117 059e 6D01     		.2byte	0x16d
 1118 05a0 52050000 		.4byte	0x552
 1119 05a4 04       		.byte	0x4
 1120 05a5 08       		.uleb128 0x8
 1121 05a6 723600   		.ascii	"r6\000"
 1122 05a9 0B       		.byte	0xb
 1123 05aa 6E01     		.2byte	0x16e
 1124 05ac 52050000 		.4byte	0x552
 1125 05b0 08       		.byte	0x8
 1126 05b1 08       		.uleb128 0x8
 1127 05b2 723700   		.ascii	"r7\000"
 1128 05b5 0B       		.byte	0xb
 1129 05b6 6F01     		.2byte	0x16f
 1130 05b8 52050000 		.4byte	0x552
 1131 05bc 0C       		.byte	0xc
 1132 05bd 08       		.uleb128 0x8
 1133 05be 723800   		.ascii	"r8\000"
ARM GAS  /tmp/ccCosrax.s 			page 35


 1134 05c1 0B       		.byte	0xb
 1135 05c2 7001     		.2byte	0x170
 1136 05c4 52050000 		.4byte	0x552
 1137 05c8 10       		.byte	0x10
 1138 05c9 08       		.uleb128 0x8
 1139 05ca 723900   		.ascii	"r9\000"
 1140 05cd 0B       		.byte	0xb
 1141 05ce 7101     		.2byte	0x171
 1142 05d0 52050000 		.4byte	0x552
 1143 05d4 14       		.byte	0x14
 1144 05d5 08       		.uleb128 0x8
 1145 05d6 72313000 		.ascii	"r10\000"
 1146 05da 0B       		.byte	0xb
 1147 05db 7201     		.2byte	0x172
 1148 05dd 52050000 		.4byte	0x552
 1149 05e1 18       		.byte	0x18
 1150 05e2 08       		.uleb128 0x8
 1151 05e3 72313100 		.ascii	"r11\000"
 1152 05e7 0B       		.byte	0xb
 1153 05e8 7301     		.2byte	0x173
 1154 05ea 52050000 		.4byte	0x552
 1155 05ee 1C       		.byte	0x1c
 1156 05ef 08       		.uleb128 0x8
 1157 05f0 6C7200   		.ascii	"lr\000"
 1158 05f3 0B       		.byte	0xb
 1159 05f4 7401     		.2byte	0x174
 1160 05f6 52050000 		.4byte	0x552
 1161 05fa 20       		.byte	0x20
 1162 05fb 00       		.byte	0
 1163 05fc 0A       		.uleb128 0xa
 1164 05fd 04       		.byte	0x4
 1165 05fe 80050000 		.4byte	0x580
 1166 0602 12       		.uleb128 0x12
 1167 0603 60       		.byte	0x60
 1168 0604 0C       		.byte	0xc
 1169 0605 A101     		.2byte	0x1a1
 1170 0607 0E070000 		.4byte	0x70e
 1171 060b 08       		.uleb128 0x8
 1172 060c 43523100 		.ascii	"CR1\000"
 1173 0610 0C       		.byte	0xc
 1174 0611 A201     		.2byte	0x1a2
 1175 0613 26040000 		.4byte	0x426
 1176 0617 00       		.byte	0
 1177 0618 08       		.uleb128 0x8
 1178 0619 43523200 		.ascii	"CR2\000"
 1179 061d 0C       		.byte	0xc
 1180 061e A301     		.2byte	0x1a3
 1181 0620 26040000 		.4byte	0x426
 1182 0624 04       		.byte	0x4
 1183 0625 09       		.uleb128 0x9
 1184 0626 17020000 		.4byte	.LASF89
 1185 062a 0C       		.byte	0xc
 1186 062b A401     		.2byte	0x1a4
 1187 062d 26040000 		.4byte	0x426
 1188 0631 08       		.byte	0x8
 1189 0632 09       		.uleb128 0x9
 1190 0633 0D000000 		.4byte	.LASF90
ARM GAS  /tmp/ccCosrax.s 			page 36


 1191 0637 0C       		.byte	0xc
 1192 0638 A501     		.2byte	0x1a5
 1193 063a 26040000 		.4byte	0x426
 1194 063e 0C       		.byte	0xc
 1195 063f 08       		.uleb128 0x8
 1196 0640 535200   		.ascii	"SR\000"
 1197 0643 0C       		.byte	0xc
 1198 0644 A601     		.2byte	0x1a6
 1199 0646 26040000 		.4byte	0x426
 1200 064a 10       		.byte	0x10
 1201 064b 08       		.uleb128 0x8
 1202 064c 45475200 		.ascii	"EGR\000"
 1203 0650 0C       		.byte	0xc
 1204 0651 A701     		.2byte	0x1a7
 1205 0653 26040000 		.4byte	0x426
 1206 0657 14       		.byte	0x14
 1207 0658 09       		.uleb128 0x9
 1208 0659 FF000000 		.4byte	.LASF91
 1209 065d 0C       		.byte	0xc
 1210 065e A801     		.2byte	0x1a8
 1211 0660 26040000 		.4byte	0x426
 1212 0664 18       		.byte	0x18
 1213 0665 09       		.uleb128 0x9
 1214 0666 05010000 		.4byte	.LASF92
 1215 066a 0C       		.byte	0xc
 1216 066b A901     		.2byte	0x1a9
 1217 066d 26040000 		.4byte	0x426
 1218 0671 1C       		.byte	0x1c
 1219 0672 09       		.uleb128 0x9
 1220 0673 77010000 		.4byte	.LASF93
 1221 0677 0C       		.byte	0xc
 1222 0678 AA01     		.2byte	0x1aa
 1223 067a 26040000 		.4byte	0x426
 1224 067e 20       		.byte	0x20
 1225 067f 08       		.uleb128 0x8
 1226 0680 434E5400 		.ascii	"CNT\000"
 1227 0684 0C       		.byte	0xc
 1228 0685 AB01     		.2byte	0x1ab
 1229 0687 26040000 		.4byte	0x426
 1230 068b 24       		.byte	0x24
 1231 068c 08       		.uleb128 0x8
 1232 068d 50534300 		.ascii	"PSC\000"
 1233 0691 0C       		.byte	0xc
 1234 0692 AC01     		.2byte	0x1ac
 1235 0694 26040000 		.4byte	0x426
 1236 0698 28       		.byte	0x28
 1237 0699 08       		.uleb128 0x8
 1238 069a 41525200 		.ascii	"ARR\000"
 1239 069e 0C       		.byte	0xc
 1240 069f AD01     		.2byte	0x1ad
 1241 06a1 26040000 		.4byte	0x426
 1242 06a5 2C       		.byte	0x2c
 1243 06a6 08       		.uleb128 0x8
 1244 06a7 52435200 		.ascii	"RCR\000"
 1245 06ab 0C       		.byte	0xc
 1246 06ac AE01     		.2byte	0x1ae
 1247 06ae 26040000 		.4byte	0x426
ARM GAS  /tmp/ccCosrax.s 			page 37


 1248 06b2 30       		.byte	0x30
 1249 06b3 08       		.uleb128 0x8
 1250 06b4 43435200 		.ascii	"CCR\000"
 1251 06b8 0C       		.byte	0xc
 1252 06b9 AF01     		.2byte	0x1af
 1253 06bb 0E070000 		.4byte	0x70e
 1254 06bf 34       		.byte	0x34
 1255 06c0 09       		.uleb128 0x9
 1256 06c1 D8000000 		.4byte	.LASF94
 1257 06c5 0C       		.byte	0xc
 1258 06c6 B001     		.2byte	0x1b0
 1259 06c8 26040000 		.4byte	0x426
 1260 06cc 44       		.byte	0x44
 1261 06cd 08       		.uleb128 0x8
 1262 06ce 44435200 		.ascii	"DCR\000"
 1263 06d2 0C       		.byte	0xc
 1264 06d3 B101     		.2byte	0x1b1
 1265 06d5 26040000 		.4byte	0x426
 1266 06d9 48       		.byte	0x48
 1267 06da 09       		.uleb128 0x9
 1268 06db 98040000 		.4byte	.LASF95
 1269 06df 0C       		.byte	0xc
 1270 06e0 B201     		.2byte	0x1b2
 1271 06e2 26040000 		.4byte	0x426
 1272 06e6 4C       		.byte	0x4c
 1273 06e7 08       		.uleb128 0x8
 1274 06e8 4F5200   		.ascii	"OR\000"
 1275 06eb 0C       		.byte	0xc
 1276 06ec B301     		.2byte	0x1b3
 1277 06ee 26040000 		.4byte	0x426
 1278 06f2 50       		.byte	0x50
 1279 06f3 09       		.uleb128 0x9
 1280 06f4 0B010000 		.4byte	.LASF96
 1281 06f8 0C       		.byte	0xc
 1282 06f9 B401     		.2byte	0x1b4
 1283 06fb 26040000 		.4byte	0x426
 1284 06ff 54       		.byte	0x54
 1285 0700 09       		.uleb128 0x9
 1286 0701 4C040000 		.4byte	.LASF97
 1287 0705 0C       		.byte	0xc
 1288 0706 B501     		.2byte	0x1b5
 1289 0708 13070000 		.4byte	0x713
 1290 070c 58       		.byte	0x58
 1291 070d 00       		.byte	0
 1292 070e 0F       		.uleb128 0xf
 1293 070f 3B040000 		.4byte	0x43b
 1294 0713 0F       		.uleb128 0xf
 1295 0714 2B040000 		.4byte	0x42b
 1296 0718 13       		.uleb128 0x13
 1297 0719 1D010000 		.4byte	.LASF98
 1298 071d 0C       		.byte	0xc
 1299 071e B601     		.2byte	0x1b6
 1300 0720 02060000 		.4byte	0x602
 1301 0724 14       		.uleb128 0x14
 1302 0725 04       		.byte	0x4
 1303 0726 0D       		.byte	0xd
 1304 0727 38       		.byte	0x38
ARM GAS  /tmp/ccCosrax.s 			page 38


 1305 0728 39070000 		.4byte	0x739
 1306 072c 06       		.uleb128 0x6
 1307 072d F9040000 		.4byte	.LASF99
 1308 0731 0D       		.byte	0xd
 1309 0732 3C       		.byte	0x3c
 1310 0733 C3000000 		.4byte	0xc3
 1311 0737 00       		.byte	0
 1312 0738 00       		.byte	0
 1313 0739 04       		.uleb128 0x4
 1314 073a 2C030000 		.4byte	.LASF100
 1315 073e 0D       		.byte	0xd
 1316 073f 3D       		.byte	0x3d
 1317 0740 24070000 		.4byte	0x724
 1318 0744 15       		.uleb128 0x15
 1319 0745 04       		.byte	0x4
 1320 0746 08       		.byte	0x8
 1321 0747 D2       		.byte	0xd2
 1322 0748 A7070000 		.4byte	0x7a7
 1323 074c 16       		.uleb128 0x16
 1324 074d 23000000 		.4byte	.LASF101
 1325 0751 08       		.byte	0x8
 1326 0752 D9       		.byte	0xd9
 1327 0753 FA000000 		.4byte	0xfa
 1328 0757 16       		.uleb128 0x16
 1329 0758 85000000 		.4byte	.LASF102
 1330 075c 08       		.byte	0x8
 1331 075d E0       		.byte	0xe0
 1332 075e FA000000 		.4byte	0xfa
 1333 0762 16       		.uleb128 0x16
 1334 0763 84020000 		.4byte	.LASF103
 1335 0767 08       		.byte	0x8
 1336 0768 E7       		.byte	0xe7
 1337 0769 F7020000 		.4byte	0x2f7
 1338 076d 16       		.uleb128 0x16
 1339 076e 12000000 		.4byte	.LASF104
 1340 0772 08       		.byte	0x8
 1341 0773 EE       		.byte	0xee
 1342 0774 A7070000 		.4byte	0x7a7
 1343 0778 16       		.uleb128 0x16
 1344 0779 99000000 		.4byte	.LASF105
 1345 077d 08       		.byte	0x8
 1346 077e F3       		.byte	0xf3
 1347 077f FA000000 		.4byte	0xfa
 1348 0783 16       		.uleb128 0x16
 1349 0784 E7010000 		.4byte	.LASF106
 1350 0788 08       		.byte	0x8
 1351 0789 FC       		.byte	0xfc
 1352 078a D2070000 		.4byte	0x7d2
 1353 078e 17       		.uleb128 0x17
 1354 078f 69040000 		.4byte	.LASF107
 1355 0793 08       		.byte	0x8
 1356 0794 0501     		.2byte	0x105
 1357 0796 09080000 		.4byte	0x809
 1358 079a 17       		.uleb128 0x17
 1359 079b 1F040000 		.4byte	.LASF108
 1360 079f 08       		.byte	0x8
 1361 07a0 0D01     		.2byte	0x10d
ARM GAS  /tmp/ccCosrax.s 			page 39


 1362 07a2 05010000 		.4byte	0x105
 1363 07a6 00       		.byte	0
 1364 07a7 0A       		.uleb128 0xa
 1365 07a8 04       		.byte	0x4
 1366 07a9 0F020000 		.4byte	0x20f
 1367 07ad 05       		.uleb128 0x5
 1368 07ae 3F040000 		.4byte	.LASF109
 1369 07b2 0C       		.byte	0xc
 1370 07b3 0E       		.byte	0xe
 1371 07b4 34       		.byte	0x34
 1372 07b5 D2070000 		.4byte	0x7d2
 1373 07b9 06       		.uleb128 0x6
 1374 07ba 8A010000 		.4byte	.LASF27
 1375 07be 0E       		.byte	0xe
 1376 07bf 35       		.byte	0x35
 1377 07c0 44020000 		.4byte	0x244
 1378 07c4 00       		.byte	0
 1379 07c5 07       		.uleb128 0x7
 1380 07c6 636E7400 		.ascii	"cnt\000"
 1381 07ca 0E       		.byte	0xe
 1382 07cb 37       		.byte	0x37
 1383 07cc 10010000 		.4byte	0x110
 1384 07d0 08       		.byte	0x8
 1385 07d1 00       		.byte	0
 1386 07d2 0A       		.uleb128 0xa
 1387 07d3 04       		.byte	0x4
 1388 07d4 AD070000 		.4byte	0x7ad
 1389 07d8 05       		.uleb128 0x5
 1390 07d9 52050000 		.4byte	.LASF110
 1391 07dd 10       		.byte	0x10
 1392 07de 0F       		.byte	0xf
 1393 07df 39       		.byte	0x39
 1394 07e0 09080000 		.4byte	0x809
 1395 07e4 06       		.uleb128 0x6
 1396 07e5 8A010000 		.4byte	.LASF27
 1397 07e9 0F       		.byte	0xf
 1398 07ea 3A       		.byte	0x3a
 1399 07eb 44020000 		.4byte	0x244
 1400 07ef 00       		.byte	0
 1401 07f0 06       		.uleb128 0x6
 1402 07f1 80040000 		.4byte	.LASF111
 1403 07f5 0F       		.byte	0xf
 1404 07f6 3C       		.byte	0x3c
 1405 07f7 1A020000 		.4byte	0x21a
 1406 07fb 08       		.byte	0x8
 1407 07fc 06       		.uleb128 0x6
 1408 07fd 18000000 		.4byte	.LASF46
 1409 0801 0F       		.byte	0xf
 1410 0802 3E       		.byte	0x3e
 1411 0803 3D080000 		.4byte	0x83d
 1412 0807 0C       		.byte	0xc
 1413 0808 00       		.byte	0
 1414 0809 0A       		.uleb128 0xa
 1415 080a 04       		.byte	0x4
 1416 080b D8070000 		.4byte	0x7d8
 1417 080f 0A       		.uleb128 0xa
 1418 0810 04       		.byte	0x4
ARM GAS  /tmp/ccCosrax.s 			page 40


 1419 0811 15080000 		.4byte	0x815
 1420 0815 18       		.uleb128 0x18
 1421 0816 1A080000 		.4byte	0x81a
 1422 081a 03       		.uleb128 0x3
 1423 081b 01       		.byte	0x1
 1424 081c 08       		.byte	0x8
 1425 081d 8D040000 		.4byte	.LASF112
 1426 0821 0A       		.uleb128 0xa
 1427 0822 04       		.byte	0x4
 1428 0823 5D050000 		.4byte	0x55d
 1429 0827 0A       		.uleb128 0xa
 1430 0828 04       		.byte	0x4
 1431 0829 F9020000 		.4byte	0x2f9
 1432 082d 0F       		.uleb128 0xf
 1433 082e 0F080000 		.4byte	0x80f
 1434 0832 04       		.uleb128 0x4
 1435 0833 C6010000 		.4byte	.LASF113
 1436 0837 0F       		.byte	0xf
 1437 0838 34       		.byte	0x34
 1438 0839 D8070000 		.4byte	0x7d8
 1439 083d 0A       		.uleb128 0xa
 1440 083e 04       		.byte	0x4
 1441 083f 32080000 		.4byte	0x832
 1442 0843 03       		.uleb128 0x3
 1443 0844 01       		.byte	0x1
 1444 0845 02       		.byte	0x2
 1445 0846 E3030000 		.4byte	.LASF114
 1446 084a 19       		.uleb128 0x19
 1447 084b E1040000 		.4byte	.LASF132
 1448 084f 02       		.byte	0x2
 1449 0850 0601     		.2byte	0x106
 1450 0852 03       		.byte	0x3
 1451 0853 64080000 		.4byte	0x864
 1452 0857 1A       		.uleb128 0x1a
 1453 0858 CE010000 		.4byte	.LASF133
 1454 085c 02       		.byte	0x2
 1455 085d 0601     		.2byte	0x106
 1456 085f AD000000 		.4byte	0xad
 1457 0863 00       		.byte	0
 1458 0864 1B       		.uleb128 0x1b
 1459 0865 5D000000 		.4byte	.LASF115
 1460 0869 0B       		.byte	0xb
 1461 086a 5202     		.2byte	0x252
 1462 086c 03       		.byte	0x3
 1463 086d 1B       		.uleb128 0x1b
 1464 086e 32010000 		.4byte	.LASF116
 1465 0872 0B       		.byte	0xb
 1466 0873 6A02     		.2byte	0x26a
 1467 0875 03       		.byte	0x3
 1468 0876 1B       		.uleb128 0x1b
 1469 0877 2F050000 		.4byte	.LASF117
 1470 087b 0B       		.byte	0xb
 1471 087c 7902     		.2byte	0x279
 1472 087e 03       		.byte	0x3
 1473 087f 1B       		.uleb128 0x1b
 1474 0880 9D040000 		.4byte	.LASF118
 1475 0884 0B       		.byte	0xb
ARM GAS  /tmp/ccCosrax.s 			page 41


 1476 0885 8402     		.2byte	0x284
 1477 0887 03       		.byte	0x3
 1478 0888 1B       		.uleb128 0x1b
 1479 0889 60060000 		.4byte	.LASF119
 1480 088d 10       		.byte	0x10
 1481 088e 9E01     		.2byte	0x19e
 1482 0890 03       		.byte	0x3
 1483 0891 1B       		.uleb128 0x1b
 1484 0892 92030000 		.4byte	.LASF120
 1485 0896 10       		.byte	0x10
 1486 0897 B201     		.2byte	0x1b2
 1487 0899 03       		.byte	0x3
 1488 089a 1B       		.uleb128 0x1b
 1489 089b AB010000 		.4byte	.LASF121
 1490 089f 03       		.byte	0x3
 1491 08a0 0102     		.2byte	0x201
 1492 08a2 03       		.byte	0x3
 1493 08a3 1B       		.uleb128 0x1b
 1494 08a4 BA020000 		.4byte	.LASF122
 1495 08a8 03       		.byte	0x3
 1496 08a9 4702     		.2byte	0x247
 1497 08ab 03       		.byte	0x3
 1498 08ac 1B       		.uleb128 0x1b
 1499 08ad B7000000 		.4byte	.LASF123
 1500 08b1 03       		.byte	0x3
 1501 08b2 0C02     		.2byte	0x20c
 1502 08b4 03       		.byte	0x3
 1503 08b5 1C       		.uleb128 0x1c
 1504 08b6 29010000 		.4byte	.LASF124
 1505 08ba 01       		.byte	0x1
 1506 08bb EF       		.byte	0xef
 1507 08bc 00000000 		.4byte	.LFB270
 1508 08c0 26000000 		.4byte	.LFE270-.LFB270
 1509 08c4 01       		.uleb128 0x1
 1510 08c5 9C       		.byte	0x9c
 1511 08c6 B3090000 		.4byte	0x9b3
 1512 08ca 1D       		.uleb128 0x1d
 1513 08cb 9A080000 		.4byte	0x89a
 1514 08cf 10000000 		.4byte	.LBB52
 1515 08d3 06000000 		.4byte	.LBE52-.LBB52
 1516 08d7 01       		.byte	0x1
 1517 08d8 F9       		.byte	0xf9
 1518 08d9 2B090000 		.4byte	0x92b
 1519 08dd 1E       		.uleb128 0x1e
 1520 08de 88080000 		.4byte	0x888
 1521 08e2 10000000 		.4byte	.LBB53
 1522 08e6 06000000 		.4byte	.LBE53-.LBB53
 1523 08ea 03       		.byte	0x3
 1524 08eb 0302     		.2byte	0x203
 1525 08ed 1E       		.uleb128 0x1e
 1526 08ee 76080000 		.4byte	0x876
 1527 08f2 10000000 		.4byte	.LBB54
 1528 08f6 06000000 		.4byte	.LBE54-.LBB54
 1529 08fa 10       		.byte	0x10
 1530 08fb A001     		.2byte	0x1a0
 1531 08fd 1E       		.uleb128 0x1e
 1532 08fe 64080000 		.4byte	0x864
ARM GAS  /tmp/ccCosrax.s 			page 42


 1533 0902 10000000 		.4byte	.LBB55
 1534 0906 06000000 		.4byte	.LBE55-.LBB55
 1535 090a 0B       		.byte	0xb
 1536 090b 7B02     		.2byte	0x27b
 1537 090d 1E       		.uleb128 0x1e
 1538 090e 4A080000 		.4byte	0x84a
 1539 0912 10000000 		.4byte	.LBB56
 1540 0916 06000000 		.4byte	.LBE56-.LBB56
 1541 091a 0B       		.byte	0xb
 1542 091b 5A02     		.2byte	0x25a
 1543 091d 1F       		.uleb128 0x1f
 1544 091e 57080000 		.4byte	0x857
 1545 0922 00000000 		.4byte	.LLST0
 1546 0926 00       		.byte	0
 1547 0927 00       		.byte	0
 1548 0928 00       		.byte	0
 1549 0929 00       		.byte	0
 1550 092a 00       		.byte	0
 1551 092b 1D       		.uleb128 0x1d
 1552 092c A3080000 		.4byte	0x8a3
 1553 0930 16000000 		.4byte	.LBB58
 1554 0934 04000000 		.4byte	.LBE58-.LBB58
 1555 0938 01       		.byte	0x1
 1556 0939 FA       		.byte	0xfa
 1557 093a 48090000 		.4byte	0x948
 1558 093e 20       		.uleb128 0x20
 1559 093f 1A000000 		.4byte	.LVL1
 1560 0943 FA090000 		.4byte	0x9fa
 1561 0947 00       		.byte	0
 1562 0948 1D       		.uleb128 0x1d
 1563 0949 AC080000 		.4byte	0x8ac
 1564 094d 1A000000 		.4byte	.LBB60
 1565 0951 04000000 		.4byte	.LBE60-.LBB60
 1566 0955 01       		.byte	0x1
 1567 0956 FB       		.byte	0xfb
 1568 0957 A9090000 		.4byte	0x9a9
 1569 095b 1E       		.uleb128 0x1e
 1570 095c 91080000 		.4byte	0x891
 1571 0960 1A000000 		.4byte	.LBB61
 1572 0964 04000000 		.4byte	.LBE61-.LBB61
 1573 0968 03       		.byte	0x3
 1574 0969 0E02     		.2byte	0x20e
 1575 096b 1E       		.uleb128 0x1e
 1576 096c 7F080000 		.4byte	0x87f
 1577 0970 1A000000 		.4byte	.LBB62
 1578 0974 04000000 		.4byte	.LBE62-.LBB62
 1579 0978 10       		.byte	0x10
 1580 0979 B601     		.2byte	0x1b6
 1581 097b 1E       		.uleb128 0x1e
 1582 097c 6D080000 		.4byte	0x86d
 1583 0980 1A000000 		.4byte	.LBB63
 1584 0984 04000000 		.4byte	.LBE63-.LBB63
 1585 0988 0B       		.byte	0xb
 1586 0989 8602     		.2byte	0x286
 1587 098b 1E       		.uleb128 0x1e
 1588 098c 4A080000 		.4byte	0x84a
 1589 0990 1A000000 		.4byte	.LBB64
ARM GAS  /tmp/ccCosrax.s 			page 43


 1590 0994 04000000 		.4byte	.LBE64-.LBB64
 1591 0998 0B       		.byte	0xb
 1592 0999 6D02     		.2byte	0x26d
 1593 099b 1F       		.uleb128 0x1f
 1594 099c 57080000 		.4byte	0x857
 1595 09a0 15000000 		.4byte	.LLST1
 1596 09a4 00       		.byte	0
 1597 09a5 00       		.byte	0
 1598 09a6 00       		.byte	0
 1599 09a7 00       		.byte	0
 1600 09a8 00       		.byte	0
 1601 09a9 21       		.uleb128 0x21
 1602 09aa 26000000 		.4byte	.LVL3
 1603 09ae 020A0000 		.4byte	0xa02
 1604 09b2 00       		.byte	0
 1605 09b3 22       		.uleb128 0x22
 1606 09b4 CC000000 		.4byte	.LASF125
 1607 09b8 01       		.byte	0x1
 1608 09b9 0B01     		.2byte	0x10b
 1609 09bb 00000000 		.4byte	.LFB271
 1610 09bf 48000000 		.4byte	.LFE271-.LFB271
 1611 09c3 01       		.uleb128 0x1
 1612 09c4 9C       		.byte	0x9c
 1613 09c5 DE090000 		.4byte	0x9de
 1614 09c9 23       		.uleb128 0x23
 1615 09ca 40000000 		.4byte	.LVL4
 1616 09ce 0A0A0000 		.4byte	0xa0a
 1617 09d2 24       		.uleb128 0x24
 1618 09d3 01       		.uleb128 0x1
 1619 09d4 51       		.byte	0x51
 1620 09d5 01       		.uleb128 0x1
 1621 09d6 38       		.byte	0x38
 1622 09d7 24       		.uleb128 0x24
 1623 09d8 01       		.uleb128 0x1
 1624 09d9 50       		.byte	0x50
 1625 09da 01       		.uleb128 0x1
 1626 09db 4C       		.byte	0x4c
 1627 09dc 00       		.byte	0
 1628 09dd 00       		.byte	0
 1629 09de 25       		.uleb128 0x25
 1630 09df FF030000 		.4byte	.LASF126
 1631 09e3 11       		.byte	0x11
 1632 09e4 4407     		.2byte	0x744
 1633 09e6 EA090000 		.4byte	0x9ea
 1634 09ea 0F       		.uleb128 0xf
 1635 09eb A2000000 		.4byte	0xa2
 1636 09ef 26       		.uleb128 0x26
 1637 09f0 636800   		.ascii	"ch\000"
 1638 09f3 08       		.byte	0x8
 1639 09f4 D201     		.2byte	0x1d2
 1640 09f6 C6030000 		.4byte	0x3c6
 1641 09fa 27       		.uleb128 0x27
 1642 09fb C5040000 		.4byte	.LASF127
 1643 09ff 10       		.byte	0x10
 1644 0a00 3401     		.2byte	0x134
 1645 0a02 27       		.uleb128 0x27
 1646 0a03 71020000 		.4byte	.LASF128
ARM GAS  /tmp/ccCosrax.s 			page 44


 1647 0a07 0B       		.byte	0xb
 1648 0a08 EA01     		.2byte	0x1ea
 1649 0a0a 28       		.uleb128 0x28
 1650 0a0b EE000000 		.4byte	.LASF134
 1651 0a0f 12       		.byte	0x12
 1652 0a10 4E       		.byte	0x4e
 1653 0a11 0D       		.uleb128 0xd
 1654 0a12 AD000000 		.4byte	0xad
 1655 0a16 0D       		.uleb128 0xd
 1656 0a17 AD000000 		.4byte	0xad
 1657 0a1b 00       		.byte	0
 1658 0a1c 00       		.byte	0
 1659              		.section	.debug_abbrev,"",%progbits
 1660              	.Ldebug_abbrev0:
 1661 0000 01       		.uleb128 0x1
 1662 0001 11       		.uleb128 0x11
 1663 0002 01       		.byte	0x1
 1664 0003 25       		.uleb128 0x25
 1665 0004 0E       		.uleb128 0xe
 1666 0005 13       		.uleb128 0x13
 1667 0006 0B       		.uleb128 0xb
 1668 0007 03       		.uleb128 0x3
 1669 0008 0E       		.uleb128 0xe
 1670 0009 1B       		.uleb128 0x1b
 1671 000a 0E       		.uleb128 0xe
 1672 000b 55       		.uleb128 0x55
 1673 000c 17       		.uleb128 0x17
 1674 000d 11       		.uleb128 0x11
 1675 000e 01       		.uleb128 0x1
 1676 000f 10       		.uleb128 0x10
 1677 0010 17       		.uleb128 0x17
 1678 0011 00       		.byte	0
 1679 0012 00       		.byte	0
 1680 0013 02       		.uleb128 0x2
 1681 0014 24       		.uleb128 0x24
 1682 0015 00       		.byte	0
 1683 0016 0B       		.uleb128 0xb
 1684 0017 0B       		.uleb128 0xb
 1685 0018 3E       		.uleb128 0x3e
 1686 0019 0B       		.uleb128 0xb
 1687 001a 03       		.uleb128 0x3
 1688 001b 08       		.uleb128 0x8
 1689 001c 00       		.byte	0
 1690 001d 00       		.byte	0
 1691 001e 03       		.uleb128 0x3
 1692 001f 24       		.uleb128 0x24
 1693 0020 00       		.byte	0
 1694 0021 0B       		.uleb128 0xb
 1695 0022 0B       		.uleb128 0xb
 1696 0023 3E       		.uleb128 0x3e
 1697 0024 0B       		.uleb128 0xb
 1698 0025 03       		.uleb128 0x3
 1699 0026 0E       		.uleb128 0xe
 1700 0027 00       		.byte	0
 1701 0028 00       		.byte	0
 1702 0029 04       		.uleb128 0x4
 1703 002a 16       		.uleb128 0x16
ARM GAS  /tmp/ccCosrax.s 			page 45


 1704 002b 00       		.byte	0
 1705 002c 03       		.uleb128 0x3
 1706 002d 0E       		.uleb128 0xe
 1707 002e 3A       		.uleb128 0x3a
 1708 002f 0B       		.uleb128 0xb
 1709 0030 3B       		.uleb128 0x3b
 1710 0031 0B       		.uleb128 0xb
 1711 0032 49       		.uleb128 0x49
 1712 0033 13       		.uleb128 0x13
 1713 0034 00       		.byte	0
 1714 0035 00       		.byte	0
 1715 0036 05       		.uleb128 0x5
 1716 0037 13       		.uleb128 0x13
 1717 0038 01       		.byte	0x1
 1718 0039 03       		.uleb128 0x3
 1719 003a 0E       		.uleb128 0xe
 1720 003b 0B       		.uleb128 0xb
 1721 003c 0B       		.uleb128 0xb
 1722 003d 3A       		.uleb128 0x3a
 1723 003e 0B       		.uleb128 0xb
 1724 003f 3B       		.uleb128 0x3b
 1725 0040 0B       		.uleb128 0xb
 1726 0041 01       		.uleb128 0x1
 1727 0042 13       		.uleb128 0x13
 1728 0043 00       		.byte	0
 1729 0044 00       		.byte	0
 1730 0045 06       		.uleb128 0x6
 1731 0046 0D       		.uleb128 0xd
 1732 0047 00       		.byte	0
 1733 0048 03       		.uleb128 0x3
 1734 0049 0E       		.uleb128 0xe
 1735 004a 3A       		.uleb128 0x3a
 1736 004b 0B       		.uleb128 0xb
 1737 004c 3B       		.uleb128 0x3b
 1738 004d 0B       		.uleb128 0xb
 1739 004e 49       		.uleb128 0x49
 1740 004f 13       		.uleb128 0x13
 1741 0050 38       		.uleb128 0x38
 1742 0051 0B       		.uleb128 0xb
 1743 0052 00       		.byte	0
 1744 0053 00       		.byte	0
 1745 0054 07       		.uleb128 0x7
 1746 0055 0D       		.uleb128 0xd
 1747 0056 00       		.byte	0
 1748 0057 03       		.uleb128 0x3
 1749 0058 08       		.uleb128 0x8
 1750 0059 3A       		.uleb128 0x3a
 1751 005a 0B       		.uleb128 0xb
 1752 005b 3B       		.uleb128 0x3b
 1753 005c 0B       		.uleb128 0xb
 1754 005d 49       		.uleb128 0x49
 1755 005e 13       		.uleb128 0x13
 1756 005f 38       		.uleb128 0x38
 1757 0060 0B       		.uleb128 0xb
 1758 0061 00       		.byte	0
 1759 0062 00       		.byte	0
 1760 0063 08       		.uleb128 0x8
ARM GAS  /tmp/ccCosrax.s 			page 46


 1761 0064 0D       		.uleb128 0xd
 1762 0065 00       		.byte	0
 1763 0066 03       		.uleb128 0x3
 1764 0067 08       		.uleb128 0x8
 1765 0068 3A       		.uleb128 0x3a
 1766 0069 0B       		.uleb128 0xb
 1767 006a 3B       		.uleb128 0x3b
 1768 006b 05       		.uleb128 0x5
 1769 006c 49       		.uleb128 0x49
 1770 006d 13       		.uleb128 0x13
 1771 006e 38       		.uleb128 0x38
 1772 006f 0B       		.uleb128 0xb
 1773 0070 00       		.byte	0
 1774 0071 00       		.byte	0
 1775 0072 09       		.uleb128 0x9
 1776 0073 0D       		.uleb128 0xd
 1777 0074 00       		.byte	0
 1778 0075 03       		.uleb128 0x3
 1779 0076 0E       		.uleb128 0xe
 1780 0077 3A       		.uleb128 0x3a
 1781 0078 0B       		.uleb128 0xb
 1782 0079 3B       		.uleb128 0x3b
 1783 007a 05       		.uleb128 0x5
 1784 007b 49       		.uleb128 0x49
 1785 007c 13       		.uleb128 0x13
 1786 007d 38       		.uleb128 0x38
 1787 007e 0B       		.uleb128 0xb
 1788 007f 00       		.byte	0
 1789 0080 00       		.byte	0
 1790 0081 0A       		.uleb128 0xa
 1791 0082 0F       		.uleb128 0xf
 1792 0083 00       		.byte	0
 1793 0084 0B       		.uleb128 0xb
 1794 0085 0B       		.uleb128 0xb
 1795 0086 49       		.uleb128 0x49
 1796 0087 13       		.uleb128 0x13
 1797 0088 00       		.byte	0
 1798 0089 00       		.byte	0
 1799 008a 0B       		.uleb128 0xb
 1800 008b 13       		.uleb128 0x13
 1801 008c 01       		.byte	0x1
 1802 008d 03       		.uleb128 0x3
 1803 008e 0E       		.uleb128 0xe
 1804 008f 0B       		.uleb128 0xb
 1805 0090 0B       		.uleb128 0xb
 1806 0091 3A       		.uleb128 0x3a
 1807 0092 0B       		.uleb128 0xb
 1808 0093 3B       		.uleb128 0x3b
 1809 0094 05       		.uleb128 0x5
 1810 0095 01       		.uleb128 0x1
 1811 0096 13       		.uleb128 0x13
 1812 0097 00       		.byte	0
 1813 0098 00       		.byte	0
 1814 0099 0C       		.uleb128 0xc
 1815 009a 15       		.uleb128 0x15
 1816 009b 01       		.byte	0x1
 1817 009c 27       		.uleb128 0x27
ARM GAS  /tmp/ccCosrax.s 			page 47


 1818 009d 19       		.uleb128 0x19
 1819 009e 01       		.uleb128 0x1
 1820 009f 13       		.uleb128 0x13
 1821 00a0 00       		.byte	0
 1822 00a1 00       		.byte	0
 1823 00a2 0D       		.uleb128 0xd
 1824 00a3 05       		.uleb128 0x5
 1825 00a4 00       		.byte	0
 1826 00a5 49       		.uleb128 0x49
 1827 00a6 13       		.uleb128 0x13
 1828 00a7 00       		.byte	0
 1829 00a8 00       		.byte	0
 1830 00a9 0E       		.uleb128 0xe
 1831 00aa 0F       		.uleb128 0xf
 1832 00ab 00       		.byte	0
 1833 00ac 0B       		.uleb128 0xb
 1834 00ad 0B       		.uleb128 0xb
 1835 00ae 00       		.byte	0
 1836 00af 00       		.byte	0
 1837 00b0 0F       		.uleb128 0xf
 1838 00b1 35       		.uleb128 0x35
 1839 00b2 00       		.byte	0
 1840 00b3 49       		.uleb128 0x49
 1841 00b4 13       		.uleb128 0x13
 1842 00b5 00       		.byte	0
 1843 00b6 00       		.byte	0
 1844 00b7 10       		.uleb128 0x10
 1845 00b8 01       		.uleb128 0x1
 1846 00b9 01       		.byte	0x1
 1847 00ba 49       		.uleb128 0x49
 1848 00bb 13       		.uleb128 0x13
 1849 00bc 01       		.uleb128 0x1
 1850 00bd 13       		.uleb128 0x13
 1851 00be 00       		.byte	0
 1852 00bf 00       		.byte	0
 1853 00c0 11       		.uleb128 0x11
 1854 00c1 21       		.uleb128 0x21
 1855 00c2 00       		.byte	0
 1856 00c3 49       		.uleb128 0x49
 1857 00c4 13       		.uleb128 0x13
 1858 00c5 2F       		.uleb128 0x2f
 1859 00c6 0B       		.uleb128 0xb
 1860 00c7 00       		.byte	0
 1861 00c8 00       		.byte	0
 1862 00c9 12       		.uleb128 0x12
 1863 00ca 13       		.uleb128 0x13
 1864 00cb 01       		.byte	0x1
 1865 00cc 0B       		.uleb128 0xb
 1866 00cd 0B       		.uleb128 0xb
 1867 00ce 3A       		.uleb128 0x3a
 1868 00cf 0B       		.uleb128 0xb
 1869 00d0 3B       		.uleb128 0x3b
 1870 00d1 05       		.uleb128 0x5
 1871 00d2 01       		.uleb128 0x1
 1872 00d3 13       		.uleb128 0x13
 1873 00d4 00       		.byte	0
 1874 00d5 00       		.byte	0
ARM GAS  /tmp/ccCosrax.s 			page 48


 1875 00d6 13       		.uleb128 0x13
 1876 00d7 16       		.uleb128 0x16
 1877 00d8 00       		.byte	0
 1878 00d9 03       		.uleb128 0x3
 1879 00da 0E       		.uleb128 0xe
 1880 00db 3A       		.uleb128 0x3a
 1881 00dc 0B       		.uleb128 0xb
 1882 00dd 3B       		.uleb128 0x3b
 1883 00de 05       		.uleb128 0x5
 1884 00df 49       		.uleb128 0x49
 1885 00e0 13       		.uleb128 0x13
 1886 00e1 00       		.byte	0
 1887 00e2 00       		.byte	0
 1888 00e3 14       		.uleb128 0x14
 1889 00e4 13       		.uleb128 0x13
 1890 00e5 01       		.byte	0x1
 1891 00e6 0B       		.uleb128 0xb
 1892 00e7 0B       		.uleb128 0xb
 1893 00e8 3A       		.uleb128 0x3a
 1894 00e9 0B       		.uleb128 0xb
 1895 00ea 3B       		.uleb128 0x3b
 1896 00eb 0B       		.uleb128 0xb
 1897 00ec 01       		.uleb128 0x1
 1898 00ed 13       		.uleb128 0x13
 1899 00ee 00       		.byte	0
 1900 00ef 00       		.byte	0
 1901 00f0 15       		.uleb128 0x15
 1902 00f1 17       		.uleb128 0x17
 1903 00f2 01       		.byte	0x1
 1904 00f3 0B       		.uleb128 0xb
 1905 00f4 0B       		.uleb128 0xb
 1906 00f5 3A       		.uleb128 0x3a
 1907 00f6 0B       		.uleb128 0xb
 1908 00f7 3B       		.uleb128 0x3b
 1909 00f8 0B       		.uleb128 0xb
 1910 00f9 01       		.uleb128 0x1
 1911 00fa 13       		.uleb128 0x13
 1912 00fb 00       		.byte	0
 1913 00fc 00       		.byte	0
 1914 00fd 16       		.uleb128 0x16
 1915 00fe 0D       		.uleb128 0xd
 1916 00ff 00       		.byte	0
 1917 0100 03       		.uleb128 0x3
 1918 0101 0E       		.uleb128 0xe
 1919 0102 3A       		.uleb128 0x3a
 1920 0103 0B       		.uleb128 0xb
 1921 0104 3B       		.uleb128 0x3b
 1922 0105 0B       		.uleb128 0xb
 1923 0106 49       		.uleb128 0x49
 1924 0107 13       		.uleb128 0x13
 1925 0108 00       		.byte	0
 1926 0109 00       		.byte	0
 1927 010a 17       		.uleb128 0x17
 1928 010b 0D       		.uleb128 0xd
 1929 010c 00       		.byte	0
 1930 010d 03       		.uleb128 0x3
 1931 010e 0E       		.uleb128 0xe
ARM GAS  /tmp/ccCosrax.s 			page 49


 1932 010f 3A       		.uleb128 0x3a
 1933 0110 0B       		.uleb128 0xb
 1934 0111 3B       		.uleb128 0x3b
 1935 0112 05       		.uleb128 0x5
 1936 0113 49       		.uleb128 0x49
 1937 0114 13       		.uleb128 0x13
 1938 0115 00       		.byte	0
 1939 0116 00       		.byte	0
 1940 0117 18       		.uleb128 0x18
 1941 0118 26       		.uleb128 0x26
 1942 0119 00       		.byte	0
 1943 011a 49       		.uleb128 0x49
 1944 011b 13       		.uleb128 0x13
 1945 011c 00       		.byte	0
 1946 011d 00       		.byte	0
 1947 011e 19       		.uleb128 0x19
 1948 011f 2E       		.uleb128 0x2e
 1949 0120 01       		.byte	0x1
 1950 0121 03       		.uleb128 0x3
 1951 0122 0E       		.uleb128 0xe
 1952 0123 3A       		.uleb128 0x3a
 1953 0124 0B       		.uleb128 0xb
 1954 0125 3B       		.uleb128 0x3b
 1955 0126 05       		.uleb128 0x5
 1956 0127 27       		.uleb128 0x27
 1957 0128 19       		.uleb128 0x19
 1958 0129 20       		.uleb128 0x20
 1959 012a 0B       		.uleb128 0xb
 1960 012b 01       		.uleb128 0x1
 1961 012c 13       		.uleb128 0x13
 1962 012d 00       		.byte	0
 1963 012e 00       		.byte	0
 1964 012f 1A       		.uleb128 0x1a
 1965 0130 05       		.uleb128 0x5
 1966 0131 00       		.byte	0
 1967 0132 03       		.uleb128 0x3
 1968 0133 0E       		.uleb128 0xe
 1969 0134 3A       		.uleb128 0x3a
 1970 0135 0B       		.uleb128 0xb
 1971 0136 3B       		.uleb128 0x3b
 1972 0137 05       		.uleb128 0x5
 1973 0138 49       		.uleb128 0x49
 1974 0139 13       		.uleb128 0x13
 1975 013a 00       		.byte	0
 1976 013b 00       		.byte	0
 1977 013c 1B       		.uleb128 0x1b
 1978 013d 2E       		.uleb128 0x2e
 1979 013e 00       		.byte	0
 1980 013f 03       		.uleb128 0x3
 1981 0140 0E       		.uleb128 0xe
 1982 0141 3A       		.uleb128 0x3a
 1983 0142 0B       		.uleb128 0xb
 1984 0143 3B       		.uleb128 0x3b
 1985 0144 05       		.uleb128 0x5
 1986 0145 27       		.uleb128 0x27
 1987 0146 19       		.uleb128 0x19
 1988 0147 20       		.uleb128 0x20
ARM GAS  /tmp/ccCosrax.s 			page 50


 1989 0148 0B       		.uleb128 0xb
 1990 0149 00       		.byte	0
 1991 014a 00       		.byte	0
 1992 014b 1C       		.uleb128 0x1c
 1993 014c 2E       		.uleb128 0x2e
 1994 014d 01       		.byte	0x1
 1995 014e 3F       		.uleb128 0x3f
 1996 014f 19       		.uleb128 0x19
 1997 0150 03       		.uleb128 0x3
 1998 0151 0E       		.uleb128 0xe
 1999 0152 3A       		.uleb128 0x3a
 2000 0153 0B       		.uleb128 0xb
 2001 0154 3B       		.uleb128 0x3b
 2002 0155 0B       		.uleb128 0xb
 2003 0156 27       		.uleb128 0x27
 2004 0157 19       		.uleb128 0x19
 2005 0158 11       		.uleb128 0x11
 2006 0159 01       		.uleb128 0x1
 2007 015a 12       		.uleb128 0x12
 2008 015b 06       		.uleb128 0x6
 2009 015c 40       		.uleb128 0x40
 2010 015d 18       		.uleb128 0x18
 2011 015e 9742     		.uleb128 0x2117
 2012 0160 19       		.uleb128 0x19
 2013 0161 01       		.uleb128 0x1
 2014 0162 13       		.uleb128 0x13
 2015 0163 00       		.byte	0
 2016 0164 00       		.byte	0
 2017 0165 1D       		.uleb128 0x1d
 2018 0166 1D       		.uleb128 0x1d
 2019 0167 01       		.byte	0x1
 2020 0168 31       		.uleb128 0x31
 2021 0169 13       		.uleb128 0x13
 2022 016a 11       		.uleb128 0x11
 2023 016b 01       		.uleb128 0x1
 2024 016c 12       		.uleb128 0x12
 2025 016d 06       		.uleb128 0x6
 2026 016e 58       		.uleb128 0x58
 2027 016f 0B       		.uleb128 0xb
 2028 0170 59       		.uleb128 0x59
 2029 0171 0B       		.uleb128 0xb
 2030 0172 01       		.uleb128 0x1
 2031 0173 13       		.uleb128 0x13
 2032 0174 00       		.byte	0
 2033 0175 00       		.byte	0
 2034 0176 1E       		.uleb128 0x1e
 2035 0177 1D       		.uleb128 0x1d
 2036 0178 01       		.byte	0x1
 2037 0179 31       		.uleb128 0x31
 2038 017a 13       		.uleb128 0x13
 2039 017b 11       		.uleb128 0x11
 2040 017c 01       		.uleb128 0x1
 2041 017d 12       		.uleb128 0x12
 2042 017e 06       		.uleb128 0x6
 2043 017f 58       		.uleb128 0x58
 2044 0180 0B       		.uleb128 0xb
 2045 0181 59       		.uleb128 0x59
ARM GAS  /tmp/ccCosrax.s 			page 51


 2046 0182 05       		.uleb128 0x5
 2047 0183 00       		.byte	0
 2048 0184 00       		.byte	0
 2049 0185 1F       		.uleb128 0x1f
 2050 0186 05       		.uleb128 0x5
 2051 0187 00       		.byte	0
 2052 0188 31       		.uleb128 0x31
 2053 0189 13       		.uleb128 0x13
 2054 018a 02       		.uleb128 0x2
 2055 018b 17       		.uleb128 0x17
 2056 018c 00       		.byte	0
 2057 018d 00       		.byte	0
 2058 018e 20       		.uleb128 0x20
 2059 018f 898201   		.uleb128 0x4109
 2060 0192 00       		.byte	0
 2061 0193 11       		.uleb128 0x11
 2062 0194 01       		.uleb128 0x1
 2063 0195 31       		.uleb128 0x31
 2064 0196 13       		.uleb128 0x13
 2065 0197 00       		.byte	0
 2066 0198 00       		.byte	0
 2067 0199 21       		.uleb128 0x21
 2068 019a 898201   		.uleb128 0x4109
 2069 019d 00       		.byte	0
 2070 019e 11       		.uleb128 0x11
 2071 019f 01       		.uleb128 0x1
 2072 01a0 9542     		.uleb128 0x2115
 2073 01a2 19       		.uleb128 0x19
 2074 01a3 31       		.uleb128 0x31
 2075 01a4 13       		.uleb128 0x13
 2076 01a5 00       		.byte	0
 2077 01a6 00       		.byte	0
 2078 01a7 22       		.uleb128 0x22
 2079 01a8 2E       		.uleb128 0x2e
 2080 01a9 01       		.byte	0x1
 2081 01aa 3F       		.uleb128 0x3f
 2082 01ab 19       		.uleb128 0x19
 2083 01ac 03       		.uleb128 0x3
 2084 01ad 0E       		.uleb128 0xe
 2085 01ae 3A       		.uleb128 0x3a
 2086 01af 0B       		.uleb128 0xb
 2087 01b0 3B       		.uleb128 0x3b
 2088 01b1 05       		.uleb128 0x5
 2089 01b2 27       		.uleb128 0x27
 2090 01b3 19       		.uleb128 0x19
 2091 01b4 11       		.uleb128 0x11
 2092 01b5 01       		.uleb128 0x1
 2093 01b6 12       		.uleb128 0x12
 2094 01b7 06       		.uleb128 0x6
 2095 01b8 40       		.uleb128 0x40
 2096 01b9 18       		.uleb128 0x18
 2097 01ba 9742     		.uleb128 0x2117
 2098 01bc 19       		.uleb128 0x19
 2099 01bd 01       		.uleb128 0x1
 2100 01be 13       		.uleb128 0x13
 2101 01bf 00       		.byte	0
 2102 01c0 00       		.byte	0
ARM GAS  /tmp/ccCosrax.s 			page 52


 2103 01c1 23       		.uleb128 0x23
 2104 01c2 898201   		.uleb128 0x4109
 2105 01c5 01       		.byte	0x1
 2106 01c6 11       		.uleb128 0x11
 2107 01c7 01       		.uleb128 0x1
 2108 01c8 9542     		.uleb128 0x2115
 2109 01ca 19       		.uleb128 0x19
 2110 01cb 31       		.uleb128 0x31
 2111 01cc 13       		.uleb128 0x13
 2112 01cd 00       		.byte	0
 2113 01ce 00       		.byte	0
 2114 01cf 24       		.uleb128 0x24
 2115 01d0 8A8201   		.uleb128 0x410a
 2116 01d3 00       		.byte	0
 2117 01d4 02       		.uleb128 0x2
 2118 01d5 18       		.uleb128 0x18
 2119 01d6 9142     		.uleb128 0x2111
 2120 01d8 18       		.uleb128 0x18
 2121 01d9 00       		.byte	0
 2122 01da 00       		.byte	0
 2123 01db 25       		.uleb128 0x25
 2124 01dc 34       		.uleb128 0x34
 2125 01dd 00       		.byte	0
 2126 01de 03       		.uleb128 0x3
 2127 01df 0E       		.uleb128 0xe
 2128 01e0 3A       		.uleb128 0x3a
 2129 01e1 0B       		.uleb128 0xb
 2130 01e2 3B       		.uleb128 0x3b
 2131 01e3 05       		.uleb128 0x5
 2132 01e4 49       		.uleb128 0x49
 2133 01e5 13       		.uleb128 0x13
 2134 01e6 3F       		.uleb128 0x3f
 2135 01e7 19       		.uleb128 0x19
 2136 01e8 3C       		.uleb128 0x3c
 2137 01e9 19       		.uleb128 0x19
 2138 01ea 00       		.byte	0
 2139 01eb 00       		.byte	0
 2140 01ec 26       		.uleb128 0x26
 2141 01ed 34       		.uleb128 0x34
 2142 01ee 00       		.byte	0
 2143 01ef 03       		.uleb128 0x3
 2144 01f0 08       		.uleb128 0x8
 2145 01f1 3A       		.uleb128 0x3a
 2146 01f2 0B       		.uleb128 0xb
 2147 01f3 3B       		.uleb128 0x3b
 2148 01f4 05       		.uleb128 0x5
 2149 01f5 49       		.uleb128 0x49
 2150 01f6 13       		.uleb128 0x13
 2151 01f7 3F       		.uleb128 0x3f
 2152 01f8 19       		.uleb128 0x19
 2153 01f9 3C       		.uleb128 0x3c
 2154 01fa 19       		.uleb128 0x19
 2155 01fb 00       		.byte	0
 2156 01fc 00       		.byte	0
 2157 01fd 27       		.uleb128 0x27
 2158 01fe 2E       		.uleb128 0x2e
 2159 01ff 00       		.byte	0
ARM GAS  /tmp/ccCosrax.s 			page 53


 2160 0200 3F       		.uleb128 0x3f
 2161 0201 19       		.uleb128 0x19
 2162 0202 03       		.uleb128 0x3
 2163 0203 0E       		.uleb128 0xe
 2164 0204 3A       		.uleb128 0x3a
 2165 0205 0B       		.uleb128 0xb
 2166 0206 3B       		.uleb128 0x3b
 2167 0207 05       		.uleb128 0x5
 2168 0208 27       		.uleb128 0x27
 2169 0209 19       		.uleb128 0x19
 2170 020a 3C       		.uleb128 0x3c
 2171 020b 19       		.uleb128 0x19
 2172 020c 00       		.byte	0
 2173 020d 00       		.byte	0
 2174 020e 28       		.uleb128 0x28
 2175 020f 2E       		.uleb128 0x2e
 2176 0210 01       		.byte	0x1
 2177 0211 3F       		.uleb128 0x3f
 2178 0212 19       		.uleb128 0x19
 2179 0213 03       		.uleb128 0x3
 2180 0214 0E       		.uleb128 0xe
 2181 0215 3A       		.uleb128 0x3a
 2182 0216 0B       		.uleb128 0xb
 2183 0217 3B       		.uleb128 0x3b
 2184 0218 0B       		.uleb128 0xb
 2185 0219 27       		.uleb128 0x27
 2186 021a 19       		.uleb128 0x19
 2187 021b 3C       		.uleb128 0x3c
 2188 021c 19       		.uleb128 0x19
 2189 021d 00       		.byte	0
 2190 021e 00       		.byte	0
 2191 021f 00       		.byte	0
 2192              		.section	.debug_loc,"",%progbits
 2193              	.Ldebug_loc0:
 2194              	.LLST0:
 2195 0000 10000000 		.4byte	.LVL0
 2196 0004 1E000000 		.4byte	.LVL2
 2197 0008 0300     		.2byte	0x3
 2198 000a 08       		.byte	0x8
 2199 000b 20       		.byte	0x20
 2200 000c 9F       		.byte	0x9f
 2201 000d 00000000 		.4byte	0
 2202 0011 00000000 		.4byte	0
 2203              	.LLST1:
 2204 0015 1A000000 		.4byte	.LVL1
 2205 0019 1E000000 		.4byte	.LVL2
 2206 001d 0200     		.2byte	0x2
 2207 001f 30       		.byte	0x30
 2208 0020 9F       		.byte	0x9f
 2209 0021 00000000 		.4byte	0
 2210 0025 00000000 		.4byte	0
 2211              		.section	.debug_aranges,"",%progbits
 2212 0000 24000000 		.4byte	0x24
 2213 0004 0200     		.2byte	0x2
 2214 0006 00000000 		.4byte	.Ldebug_info0
 2215 000a 04       		.byte	0x4
 2216 000b 00       		.byte	0
ARM GAS  /tmp/ccCosrax.s 			page 54


 2217 000c 0000     		.2byte	0
 2218 000e 0000     		.2byte	0
 2219 0010 00000000 		.4byte	.LFB270
 2220 0014 26000000 		.4byte	.LFE270-.LFB270
 2221 0018 00000000 		.4byte	.LFB271
 2222 001c 48000000 		.4byte	.LFE271-.LFB271
 2223 0020 00000000 		.4byte	0
 2224 0024 00000000 		.4byte	0
 2225              		.section	.debug_ranges,"",%progbits
 2226              	.Ldebug_ranges0:
 2227 0000 00000000 		.4byte	.LFB270
 2228 0004 26000000 		.4byte	.LFE270
 2229 0008 00000000 		.4byte	.LFB271
 2230 000c 48000000 		.4byte	.LFE271
 2231 0010 00000000 		.4byte	0
 2232 0014 00000000 		.4byte	0
 2233              		.section	.debug_line,"",%progbits
 2234              	.Ldebug_line0:
 2235 0000 72030000 		.section	.debug_str,"MS",%progbits,1
 2235      02000603 
 2235      00000201 
 2235      FB0E0D00 
 2235      01010101 
 2236              	.LASF50:
 2237 0000 72656164 		.ascii	"ready_list_t\000"
 2237      795F6C69 
 2237      73745F74 
 2237      00
 2238              	.LASF90:
 2239 000d 44494552 		.ascii	"DIER\000"
 2239      00
 2240              	.LASF104:
 2241 0012 77747472 		.ascii	"wttrp\000"
 2241      7000
 2242              	.LASF46:
 2243 0018 6E657874 		.ascii	"next\000"
 2243      00
 2244              	.LASF56:
 2245 001d 64656C74 		.ascii	"delta\000"
 2245      6100
 2246              	.LASF101:
 2247 0023 7264796D 		.ascii	"rdymsg\000"
 2247      736700
 2248              	.LASF16:
 2249 002a 75696E74 		.ascii	"uint64_t\000"
 2249      36345F74 
 2249      00
 2250              	.LASF5:
 2251 0033 5F5F7569 		.ascii	"__uint8_t\000"
 2251      6E74385F 
 2251      7400
 2252              	.LASF49:
 2253 003d 70726576 		.ascii	"prev\000"
 2253      00
 2254              	.LASF88:
 2255 0042 706F7274 		.ascii	"port_intctx\000"
 2255      5F696E74 
ARM GAS  /tmp/ccCosrax.s 			page 55


 2255      63747800 
 2256              	.LASF61:
 2257 004e 73797374 		.ascii	"system_debug_t\000"
 2257      656D5F64 
 2257      65627567 
 2257      5F7400
 2258              	.LASF115:
 2259 005d 706F7274 		.ascii	"port_lock\000"
 2259      5F6C6F63 
 2259      6B00
 2260              	.LASF12:
 2261 0067 6C6F6E67 		.ascii	"long long unsigned int\000"
 2261      206C6F6E 
 2261      6720756E 
 2261      7369676E 
 2261      65642069 
 2262              	.LASF70:
 2263 007e 4944434F 		.ascii	"IDCODE\000"
 2263      444500
 2264              	.LASF102:
 2265 0085 65786974 		.ascii	"exitcode\000"
 2265      636F6465 
 2265      00
 2266              	.LASF68:
 2267 008e 6D61696E 		.ascii	"mainthread\000"
 2267      74687265 
 2267      616400
 2268              	.LASF105:
 2269 0099 73656E74 		.ascii	"sentmsg\000"
 2269      6D736700 
 2270              	.LASF58:
 2271 00a1 76697274 		.ascii	"virtual_timers_list_t\000"
 2271      75616C5F 
 2271      74696D65 
 2271      72735F6C 
 2271      6973745F 
 2272              	.LASF123:
 2273 00b7 6F73616C 		.ascii	"osalSysUnlockFromISR\000"
 2273      53797355 
 2273      6E6C6F63 
 2273      6B46726F 
 2273      6D495352 
 2274              	.LASF125:
 2275 00cc 73745F6C 		.ascii	"st_lld_init\000"
 2275      6C645F69 
 2275      6E697400 
 2276              	.LASF94:
 2277 00d8 42445452 		.ascii	"BDTR\000"
 2277      00
 2278              	.LASF48:
 2279 00dd 63685F74 		.ascii	"ch_threads_queue\000"
 2279      68726561 
 2279      64735F71 
 2279      75657565 
 2279      00
 2280              	.LASF134:
 2281 00ee 6E766963 		.ascii	"nvicEnableVector\000"
ARM GAS  /tmp/ccCosrax.s 			page 56


 2281      456E6162 
 2281      6C655665 
 2281      63746F72 
 2281      00
 2282              	.LASF91:
 2283 00ff 43434D52 		.ascii	"CCMR1\000"
 2283      3100
 2284              	.LASF92:
 2285 0105 43434D52 		.ascii	"CCMR2\000"
 2285      3200
 2286              	.LASF96:
 2287 010b 43434D52 		.ascii	"CCMR3\000"
 2287      3300
 2288              	.LASF1:
 2289 0111 7369676E 		.ascii	"signed char\000"
 2289      65642063 
 2289      68617200 
 2290              	.LASF98:
 2291 011d 73746D33 		.ascii	"stm32_tim_t\000"
 2291      325F7469 
 2291      6D5F7400 
 2292              	.LASF124:
 2293 0129 56656374 		.ascii	"VectorB0\000"
 2293      6F724230 
 2293      00
 2294              	.LASF116:
 2295 0132 706F7274 		.ascii	"port_unlock\000"
 2295      5F756E6C 
 2295      6F636B00 
 2296              	.LASF37:
 2297 013e 6D736771 		.ascii	"msgqueue\000"
 2297      75657565 
 2297      00
 2298              	.LASF33:
 2299 0147 73746174 		.ascii	"state\000"
 2299      6500
 2300              	.LASF65:
 2301 014d 63685F73 		.ascii	"ch_system\000"
 2301      79737465 
 2301      6D00
 2302              	.LASF7:
 2303 0157 6C6F6E67 		.ascii	"long int\000"
 2303      20696E74 
 2303      00
 2304              	.LASF75:
 2305 0160 41504232 		.ascii	"APB2RSTR\000"
 2305      52535452 
 2305      00
 2306              	.LASF19:
 2307 0169 74737461 		.ascii	"tstate_t\000"
 2307      74655F74 
 2307      00
 2308              	.LASF57:
 2309 0172 66756E63 		.ascii	"func\000"
 2309      00
 2310              	.LASF93:
 2311 0177 43434552 		.ascii	"CCER\000"
ARM GAS  /tmp/ccCosrax.s 			page 57


 2311      00
 2312              	.LASF10:
 2313 017c 6C6F6E67 		.ascii	"long long int\000"
 2313      206C6F6E 
 2313      6720696E 
 2313      7400
 2314              	.LASF27:
 2315 018a 71756575 		.ascii	"queue\000"
 2315      6500
 2316              	.LASF8:
 2317 0190 5F5F7569 		.ascii	"__uint32_t\000"
 2317      6E743332 
 2317      5F7400
 2318              	.LASF85:
 2319 019b 72656761 		.ascii	"regarm_t\000"
 2319      726D5F74 
 2319      00
 2320              	.LASF67:
 2321 01a4 76746C69 		.ascii	"vtlist\000"
 2321      737400
 2322              	.LASF121:
 2323 01ab 6F73616C 		.ascii	"osalSysLockFromISR\000"
 2323      5379734C 
 2323      6F636B46 
 2323      726F6D49 
 2323      535200
 2324              	.LASF36:
 2325 01be 77616974 		.ascii	"waiting\000"
 2325      696E6700 
 2326              	.LASF113:
 2327 01c6 6D757465 		.ascii	"mutex_t\000"
 2327      785F7400 
 2328              	.LASF133:
 2329 01ce 76616C75 		.ascii	"value\000"
 2329      6500
 2330              	.LASF24:
 2331 01d4 636E745F 		.ascii	"cnt_t\000"
 2331      7400
 2332              	.LASF0:
 2333 01da 756E7369 		.ascii	"unsigned int\000"
 2333      676E6564 
 2333      20696E74 
 2333      00
 2334              	.LASF106:
 2335 01e7 77747365 		.ascii	"wtsemp\000"
 2335      6D7000
 2336              	.LASF9:
 2337 01ee 6C6F6E67 		.ascii	"long unsigned int\000"
 2337      20756E73 
 2337      69676E65 
 2337      6420696E 
 2337      7400
 2338              	.LASF84:
 2339 0200 5243435F 		.ascii	"RCC_TypeDef\000"
 2339      54797065 
 2339      44656600 
 2340              	.LASF31:
ARM GAS  /tmp/ccCosrax.s 			page 58


 2341 020c 6E616D65 		.ascii	"name\000"
 2341      00
 2342              	.LASF41:
 2343 0211 6D706F6F 		.ascii	"mpool\000"
 2343      6C00
 2344              	.LASF89:
 2345 0217 534D4352 		.ascii	"SMCR\000"
 2345      00
 2346              	.LASF44:
 2347 021c 63685F74 		.ascii	"ch_thread\000"
 2347      68726561 
 2347      6400
 2348              	.LASF130:
 2349 0226 2E2E2F43 		.ascii	"../ChibiOS/os/hal/ports/STM32/LLD/TIMv1/hal_st_lld."
 2349      68696269 
 2349      4F532F6F 
 2349      732F6861 
 2349      6C2F706F 
 2350 0259 6300     		.ascii	"c\000"
 2351              	.LASF22:
 2352 025b 6D73675F 		.ascii	"msg_t\000"
 2352      7400
 2353              	.LASF38:
 2354 0261 6570656E 		.ascii	"epending\000"
 2354      64696E67 
 2354      00
 2355              	.LASF72:
 2356 026a 41504232 		.ascii	"APB2FZ\000"
 2356      465A00
 2357              	.LASF128:
 2358 0271 5F706F72 		.ascii	"_port_irq_epilogue\000"
 2358      745F6972 
 2358      715F6570 
 2358      696C6F67 
 2358      756500
 2359              	.LASF103:
 2360 0284 77746F62 		.ascii	"wtobjp\000"
 2360      6A7000
 2361              	.LASF51:
 2362 028b 63685F72 		.ascii	"ch_ready_list\000"
 2362      65616479 
 2362      5F6C6973 
 2362      7400
 2363              	.LASF23:
 2364 0299 6576656E 		.ascii	"eventmask_t\000"
 2364      746D6173 
 2364      6B5F7400 
 2365              	.LASF6:
 2366 02a5 5F5F696E 		.ascii	"__int32_t\000"
 2366      7433325F 
 2366      7400
 2367              	.LASF86:
 2368 02af 73746B61 		.ascii	"stkalign_t\000"
 2368      6C69676E 
 2368      5F7400
 2369              	.LASF122:
 2370 02ba 6F73616C 		.ascii	"osalOsTimerHandlerI\000"
ARM GAS  /tmp/ccCosrax.s 			page 59


 2370      4F735469 
 2370      6D657248 
 2370      616E646C 
 2370      65724900 
 2371              	.LASF29:
 2372 02ce 6E657765 		.ascii	"newer\000"
 2372      7200
 2373              	.LASF43:
 2374 02d4 74687265 		.ascii	"threads_list_t\000"
 2374      6164735F 
 2374      6C697374 
 2374      5F7400
 2375              	.LASF40:
 2376 02e3 7265616C 		.ascii	"realprio\000"
 2376      7072696F 
 2376      00
 2377              	.LASF69:
 2378 02ec 73697A65 		.ascii	"sizetype\000"
 2378      74797065 
 2378      00
 2379              	.LASF42:
 2380 02f5 74687265 		.ascii	"thread_reference_t\000"
 2380      61645F72 
 2380      65666572 
 2380      656E6365 
 2380      5F7400
 2381              	.LASF59:
 2382 0308 63685F76 		.ascii	"ch_virtual_timers_list\000"
 2382      69727475 
 2382      616C5F74 
 2382      696D6572 
 2382      735F6C69 
 2383              	.LASF87:
 2384 031f 706F7274 		.ascii	"port_context\000"
 2384      5F636F6E 
 2384      74657874 
 2384      00
 2385              	.LASF100:
 2386 032c 746D5F63 		.ascii	"tm_calibration_t\000"
 2386      616C6962 
 2386      72617469 
 2386      6F6E5F74 
 2386      00
 2387              	.LASF81:
 2388 033d 41484252 		.ascii	"AHBRSTR\000"
 2388      53545200 
 2389              	.LASF28:
 2390 0345 7072696F 		.ascii	"prio\000"
 2390      00
 2391              	.LASF76:
 2392 034a 41504231 		.ascii	"APB1RSTR\000"
 2392      52535452 
 2392      00
 2393              	.LASF52:
 2394 0353 63757272 		.ascii	"current\000"
 2394      656E7400 
 2395              	.LASF11:
ARM GAS  /tmp/ccCosrax.s 			page 60


 2396 035b 5F5F7569 		.ascii	"__uint64_t\000"
 2396      6E743634 
 2396      5F7400
 2397              	.LASF71:
 2398 0366 41504231 		.ascii	"APB1FZ\000"
 2398      465A00
 2399              	.LASF20:
 2400 036d 74726566 		.ascii	"trefs_t\000"
 2400      735F7400 
 2401              	.LASF35:
 2402 0375 72656673 		.ascii	"refs\000"
 2402      00
 2403              	.LASF54:
 2404 037a 76697274 		.ascii	"virtual_timer_t\000"
 2404      75616C5F 
 2404      74696D65 
 2404      725F7400 
 2405              	.LASF21:
 2406 038a 74707269 		.ascii	"tprio_t\000"
 2406      6F5F7400 
 2407              	.LASF120:
 2408 0392 63685379 		.ascii	"chSysUnlockFromISR\000"
 2408      73556E6C 
 2408      6F636B46 
 2408      726F6D49 
 2408      535200
 2409              	.LASF131:
 2410 03a5 2F6E6673 		.ascii	"/nfs/nfs7/home/npalumbo/p442-submissions/lab4\000"
 2410      2F6E6673 
 2410      372F686F 
 2410      6D652F6E 
 2410      70616C75 
 2411              	.LASF62:
 2412 03d3 63685F73 		.ascii	"ch_system_debug\000"
 2412      79737465 
 2412      6D5F6465 
 2412      62756700 
 2413              	.LASF114:
 2414 03e3 5F426F6F 		.ascii	"_Bool\000"
 2414      6C00
 2415              	.LASF14:
 2416 03e9 696E7433 		.ascii	"int32_t\000"
 2416      325F7400 
 2417              	.LASF2:
 2418 03f1 756E7369 		.ascii	"unsigned char\000"
 2418      676E6564 
 2418      20636861 
 2418      7200
 2419              	.LASF126:
 2420 03ff 49544D5F 		.ascii	"ITM_RxBuffer\000"
 2420      52784275 
 2420      66666572 
 2420      00
 2421              	.LASF3:
 2422 040c 73686F72 		.ascii	"short int\000"
 2422      7420696E 
 2422      7400
ARM GAS  /tmp/ccCosrax.s 			page 61


 2423              	.LASF60:
 2424 0416 6C617374 		.ascii	"lasttime\000"
 2424      74696D65 
 2424      00
 2425              	.LASF108:
 2426 041f 65776D61 		.ascii	"ewmask\000"
 2426      736B00
 2427              	.LASF78:
 2428 0426 41504232 		.ascii	"APB2ENR\000"
 2428      454E5200 
 2429              	.LASF55:
 2430 042e 63685F76 		.ascii	"ch_virtual_timer\000"
 2430      69727475 
 2430      616C5F74 
 2430      696D6572 
 2430      00
 2431              	.LASF109:
 2432 043f 63685F73 		.ascii	"ch_semaphore\000"
 2432      656D6170 
 2432      686F7265 
 2432      00
 2433              	.LASF97:
 2434 044c 43435852 		.ascii	"CCXR\000"
 2434      00
 2435              	.LASF73:
 2436 0451 4442474D 		.ascii	"DBGMCU_TypeDef\000"
 2436      43555F54 
 2436      79706544 
 2436      656600
 2437              	.LASF15:
 2438 0460 75696E74 		.ascii	"uint32_t\000"
 2438      33325F74 
 2438      00
 2439              	.LASF107:
 2440 0469 77746D74 		.ascii	"wtmtxp\000"
 2440      787000
 2441              	.LASF45:
 2442 0470 63685F74 		.ascii	"ch_threads_list\000"
 2442      68726561 
 2442      64735F6C 
 2442      69737400 
 2443              	.LASF111:
 2444 0480 6F776E65 		.ascii	"owner\000"
 2444      7200
 2445              	.LASF32:
 2446 0486 77616261 		.ascii	"wabase\000"
 2446      736500
 2447              	.LASF112:
 2448 048d 63686172 		.ascii	"char\000"
 2448      00
 2449              	.LASF30:
 2450 0492 6F6C6465 		.ascii	"older\000"
 2450      7200
 2451              	.LASF95:
 2452 0498 444D4152 		.ascii	"DMAR\000"
 2452      00
 2453              	.LASF118:
ARM GAS  /tmp/ccCosrax.s 			page 62


 2454 049d 706F7274 		.ascii	"port_unlock_from_isr\000"
 2454      5F756E6C 
 2454      6F636B5F 
 2454      66726F6D 
 2454      5F697372 
 2455              	.LASF26:
 2456 04b2 74687265 		.ascii	"thread_t\000"
 2456      61645F74 
 2456      00
 2457              	.LASF25:
 2458 04bb 73797374 		.ascii	"systime_t\000"
 2458      696D655F 
 2458      7400
 2459              	.LASF127:
 2460 04c5 63685379 		.ascii	"chSysTimerHandlerI\000"
 2460      7354696D 
 2460      65724861 
 2460      6E646C65 
 2460      724900
 2461              	.LASF53:
 2462 04d8 76746675 		.ascii	"vtfunc_t\000"
 2462      6E635F74 
 2462      00
 2463              	.LASF132:
 2464 04e1 5F5F7365 		.ascii	"__set_BASEPRI\000"
 2464      745F4241 
 2464      53455052 
 2464      4900
 2465              	.LASF63:
 2466 04ef 70616E69 		.ascii	"panic_msg\000"
 2466      635F6D73 
 2466      6700
 2467              	.LASF99:
 2468 04f9 6F666673 		.ascii	"offset\000"
 2468      657400
 2469              	.LASF79:
 2470 0500 41504231 		.ascii	"APB1ENR\000"
 2470      454E5200 
 2471              	.LASF4:
 2472 0508 73686F72 		.ascii	"short unsigned int\000"
 2472      7420756E 
 2472      7369676E 
 2472      65642069 
 2472      6E7400
 2473              	.LASF64:
 2474 051b 63685F73 		.ascii	"ch_system_t\000"
 2474      79737465 
 2474      6D5F7400 
 2475              	.LASF17:
 2476 0527 7274636E 		.ascii	"rtcnt_t\000"
 2476      745F7400 
 2477              	.LASF117:
 2478 052f 706F7274 		.ascii	"port_lock_from_isr\000"
 2478      5F6C6F63 
 2478      6B5F6672 
 2478      6F6D5F69 
 2478      737200
ARM GAS  /tmp/ccCosrax.s 			page 63


 2479              	.LASF47:
 2480 0542 74687265 		.ascii	"threads_queue_t\000"
 2480      6164735F 
 2480      71756575 
 2480      655F7400 
 2481              	.LASF110:
 2482 0552 63685F6D 		.ascii	"ch_mutex\000"
 2482      75746578 
 2482      00
 2483              	.LASF80:
 2484 055b 42444352 		.ascii	"BDCR\000"
 2484      00
 2485              	.LASF66:
 2486 0560 726C6973 		.ascii	"rlist\000"
 2486      7400
 2487              	.LASF82:
 2488 0566 43464752 		.ascii	"CFGR2\000"
 2488      3200
 2489              	.LASF83:
 2490 056c 43464752 		.ascii	"CFGR3\000"
 2490      3300
 2491              	.LASF13:
 2492 0572 75696E74 		.ascii	"uint8_t\000"
 2492      385F7400 
 2493              	.LASF34:
 2494 057a 666C6167 		.ascii	"flags\000"
 2494      7300
 2495              	.LASF129:
 2496 0580 474E5520 		.ascii	"GNU C 4.8.4 20140526 (release) [ARM/embedded-4_8-br"
 2496      4320342E 
 2496      382E3420 
 2496      32303134 
 2496      30353236 
 2497 05b3 616E6368 		.ascii	"anch revision 211358] -mcpu=cortex-m4 -mno-thumb-in"
 2497      20726576 
 2497      6973696F 
 2497      6E203231 
 2497      31333538 
 2498 05e6 74657277 		.ascii	"terwork -mthumb -ggdb -O2 -fomit-frame-pointer -fal"
 2498      6F726B20 
 2498      2D6D7468 
 2498      756D6220 
 2498      2D676764 
 2499 0619 69676E2D 		.ascii	"ign-functions=16 -ffunction-sections -fdata-section"
 2499      66756E63 
 2499      74696F6E 
 2499      733D3136 
 2499      202D6666 
 2500 064c 73202D66 		.ascii	"s -fno-common -flto\000"
 2500      6E6F2D63 
 2500      6F6D6D6F 
 2500      6E202D66 
 2500      6C746F00 
 2501              	.LASF119:
 2502 0660 63685379 		.ascii	"chSysLockFromISR\000"
 2502      734C6F63 
 2502      6B46726F 
ARM GAS  /tmp/ccCosrax.s 			page 64


 2502      6D495352 
 2502      00
 2503              	.LASF74:
 2504 0671 43464752 		.ascii	"CFGR\000"
 2504      00
 2505              	.LASF18:
 2506 0676 746D6F64 		.ascii	"tmode_t\000"
 2506      655F7400 
 2507              	.LASF39:
 2508 067e 6D74786C 		.ascii	"mtxlist\000"
 2508      69737400 
 2509              	.LASF77:
 2510 0686 41484245 		.ascii	"AHBENR\000"
 2510      4E5200
 2511              		.comm	__gnu_lto_v1,1,1
 2512              		.ident	"GCC: (GNU Tools for ARM Embedded Processors) 4.8.4 20140526 (release) [ARM/embedded-4_8-br
ARM GAS  /tmp/ccCosrax.s 			page 65


DEFINED SYMBOLS
                            *ABS*:00000000 hal_st_lld.c
     /tmp/ccCosrax.s:254    .text.VectorB0:00000000 $t
     /tmp/ccCosrax.s:260    .text.VectorB0:00000000 VectorB0
     /tmp/ccCosrax.s:337    .text.st_lld_init:00000000 $t
     /tmp/ccCosrax.s:343    .text.st_lld_init:00000000 st_lld_init
     /tmp/ccCosrax.s:409    .text.st_lld_init:00000040 $d
                            *COM*:00000001 __gnu_lto_v1
                     .debug_frame:00000010 $d
     /tmp/ccCosrax.s:414    .text.st_lld_init:00000048 $t

UNDEFINED SYMBOLS
chSysTimerHandlerI
_port_irq_epilogue
nvicEnableVector
