ARM GAS  /tmp/ccolIDMf.s 			page 1


   1              		.syntax unified
   2              		.cpu cortex-m4
   3              		.fpu softvfp
   4              		.eabi_attribute 20, 1
   5              		.eabi_attribute 21, 1
   6              		.eabi_attribute 23, 3
   7              		.eabi_attribute 24, 1
   8              		.eabi_attribute 25, 1
   9              		.eabi_attribute 26, 1
  10              		.eabi_attribute 30, 2
  11              		.eabi_attribute 34, 1
  12              		.eabi_attribute 18, 4
  13              		.thumb
  14              		.file	"hal_lld.c"
  15              		.text
  16              	.Ltext0:
  17              		.section	.gnu.lto_.jmpfuncs.ba7c1bb8de14f08f,"",%progbits
  18 0000 789C6362 		.ascii	"x\234cb`b\300\006\270\24043\003\003#\220\002*\002\000"
  18      6062C006 
  18      B8A03433 
  18      03032390 
  18      022A0200 
  19 0014 01AD0015 		.ascii	"\001\255\000\025"
  20              		.text
  21              		.section	.gnu.lto_.inline.ba7c1bb8de14f08f,"",%progbits
  22 0000 789C6362 		.ascii	"x\234cb`b\300\006<\24143\003\203\230\020#\003\223\332"
  22      6062C006 
  22      3CA13433 
  22      03839810 
  22      230393DA 
  23 0014 89DF8C0C 		.ascii	"\211\337\214\014l\013\344\301\252\031\031\3045\200b"
  23      6C0BE4C1 
  23      AA1919C4 
  23      358062
  24 0023 2A0B6632 		.ascii	"*\013f2!\304\270`\004\023\203\345j&\240t\316\206\331"
  24      21C4B860 
  24      041383E5 
  24      6A26A074 
  24      CE86D9
  25 0036 2A706906 		.ascii	"*pi\006\000e\354\0119"
  25      0065EC09 
  25      39
  26              		.text
  27              		.section	.gnu.lto_.pureconst.ba7c1bb8de14f08f,"",%progbits
  28 0000 789C6362 		.ascii	"x\234cb`b`g\200\000f\006)F)&)\000\001\313\000`"
  28      60626067 
  28      80006606 
  28      29462926 
  28      290001CB 
  29              		.text
  30              		.section	.gnu.lto_hal_lld_backup_domain_init.ba7c1bb8de14f08f,"",%progbits
  31 0000 789CA592 		.ascii	"x\234\245\222=H#A\024\307\337\233\235\331\2043\321\004"
  31      3D482341 
  31      14C7DF9B 
  31      9DD98433 
  31      D104
  32 0012 B13D054B 		.ascii	"\261=\005K!\313\251\205\275 \210\210\205\011h%~\300"
ARM GAS  /tmp/ccolIDMf.s 			page 2


  32      21CBA985 
  32      BD208888 
  32      85096825 
  32      7EC0
  33 0024 B95C40D1 		.ascii	"\271\\@\321+\354\234\305\024)-E\233\330Zh\353W!ba\343"
  33      2BEC9CC5 
  33      14292D45 
  33      9BD85A68 
  33      EB572162 
  34 003a 816011E4 		.ascii	"\201`\021\344\320`s\307\335\025\226\012\202\367\336"
  34      D06073C7 
  34      DD15960A 
  34      82F7DE
  35 0049 4C763708 		.ascii	"Lv7\010w\250\031\330\377\356\2767\363\233\377\2747\002"
  35      77A819D8 
  35      FFEEBE37 
  35      F39BFFBC 
  35      3702
  36 005b 04BC1C23 		.ascii	"\004\274\034#\364<9\000\375\364\306\004\240X\377\006"
  36      F43C3900 
  36      FDF4C604 
  36      A058FF06 
  37 006b 10248570 		.ascii	"\020$\205p*\003\240?\310\373\016\320)\007\245\015K\241"
  37      2A03A03F 
  37      C8FB0ED0 
  37      2907A50D 
  37      4BA1
  38 007d AE3C0ABB 		.ascii	"\256<\012\273\307\037)\254\320\265a\027\221?\000aU8"
  38      C71F29AC 
  38      D0B56117 
  38      913F0061 
  38      5538
  39 008f 52B9B83A 		.ascii	"R\271\270:\211\206\276'Nj\317\317\273\337\037\357\016"
  39      8986BE27 
  39      4E6ACFCF 
  39      BBDF1FEF 
  39      0E
  40 00a0 31DB2EC1 		.ascii	"1\333.\301GP,\011\226$K\013K\212%\315\322\312\222a\311"
  40      47502C09 
  40      96244B0B 
  40      4B8A25CD 
  40      D2CA9261 
  41 00b5 B2D05050 		.ascii	"\262\320PP\322z\275\013`\326\374\346Iy\257\002\012~"
  41      D27ABD0B 
  41      60D6FCE6 
  41      4979AF02 
  41      0A7E
  42 00c7 3B17707A 		.ascii	";\027pz\275\177\223\236\306mT\360\031e\017\354\350R"
  42      BD7F939E 
  42      C66D54F0 
  42      19650FEC 
  42      E852
  43 00d9 90F111B7 		.ascii	"\220\361\021\267`\023}\024\023$\216\256\005Z\202\371"
  43      60137D14 
  43      13248EAE 
  43      055A82F9 
  44 00e9 34BE6630 		.ascii	"4\276f0<\377\005\254\0358\341jE\000\236\004Z\230\324"
ARM GAS  /tmp/ccolIDMf.s 			page 3


  44      3CFF05AC 
  44      1D38E16A 
  44      45009E04 
  44      5A98D4
  45 00fc E9B0CDBC 		.ascii	"\351\260\315\274\015J\034\263\370\272\334\031\202\023"
  45      0D4A1CB3 
  45      F8BADC19 
  45      8213
  46 010a 868011C0 		.ascii	"\206\200\021\300\354\242t\245\\\007\250:\000cWGk;\030"
  46      ECA274A5 
  46      5C07A83A 
  46      00635747 
  46      6B3B18
  47 011d 2E4F12C1 		.ascii	".O\022\301\372r)y\016\245?At\342\244M\310\206\236\026"
  47      FA722979 
  47      0EA53F41 
  47      74E2A44D 
  47      C8869E16 
  48 0131 C8506580 		.ascii	"\310Pe\200K\263_\275mk<\202\376\364J\013\026j\250\214"
  48      4BB35FBD 
  48      6D6B3C82 
  48      FEF44A0B 
  48      166AA88C 
  49 0145 79680283 		.ascii	"yh\002\203\261-\031\265\254\372\253\032\235\256\245"
  49      B12D19B5 
  49      ACFAAB1A 
  49      9DAEA5
  50 0154 B9E2A488 		.ascii	"\271\342\244\210P\267+Lu\316~\304\325I\231L\343(P\374"
  50      50B72B4C 
  50      75CE7EC4 
  50      D549994C 
  50      E32850FC 
  51 0168 CA332636 		.ascii	"\3123&6~?D\224\364\313\036\277\302E|qZ\011\020\367\341"
  51      7E3F4494 
  51      F4CB1EBF 
  51      C2457C71 
  51      5A0910F7 
  52 017d DF17E7FF 		.ascii	"\337\027\347\377P\342\330\213\363\363K\010\3164e+K\200"
  52      50E2D88B 
  52      F3F34B08 
  52      CE34652B 
  52      4B80
  53 018f 86D2BCDF 		.ascii	"\206\322\274\337W6\254\235k:x\011A\355\260\333\242\302"
  53      5736AC9D 
  53      6B3A7809 
  53      41EDB0DB 
  53      A2C2
  54 01a1 91A7C994 		.ascii	"\221\247\311\224\343}zs9op\336\237\361\307\306\275\205"
  54      E37D7A73 
  54      396F70DE 
  54      9FF1C7C6 
  54      BD85
  55 01b3 656F7EBA 		.ascii	"eo~\272\350-.,}]\366\306\363\243}\275V\207\372VV83U"
  55      E82D2E2C 
  55      7D5DF6C6 
  55      F3A37DBD 
  55      5687FA56 
ARM GAS  /tmp/ccolIDMf.s 			page 4


  56 01cb 2CCEE566 		.ascii	",\316\345f\341/1\306\3619"
  56      E12F31C6 
  56      F139
  57              		.text
  58              		.section	.gnu.lto_hal_lld_init.ba7c1bb8de14f08f,"",%progbits
  59 0000 789CAD54 		.ascii	"x\234\255T?H\033a\024\177\357\273\373l\254\202\211\212"
  59      3F481B61 
  59      147FEFBB 
  59      FB6CAC82 
  59      898A
  60 0012 982D084E 		.ascii	"\230-\010N\205\234\215\024\004\247R\020\034\304\301"
  60      859C8D14 
  60      04A75210 
  60      1CC4C1
  61 0021 083A9518 		.ascii	"\010:\225\030\241\036\004\"*V\332!_4\205P\012\006\027"
  61      A11E0422 
  61      2A56DA21 
  61      5F348550 
  61      0A0617
  62 0034 451DD420 		.ascii	"E\035\324 \212\213\253\266\016\242\203:h\351\352\224"
  62      8A8BABB6 
  62      0EA2833A 
  62      68E9EA94 
  63 0044 4247C151 		.ascii	"BG\301Qp\360|\337ww\212I\260\227\340\203\373\275\373"
  63      70F07CDF 
  63      77778A49 
  63      B097E083 
  63      FBBDFB
  64 0057 F37EBFFB 		.ascii	"\363~\277\373\375\336\3011`P\\A:\0269@\017u\324\000"
  64      FDDEC131 
  64      60505C41 
  64      3A163940 
  64      0F75D400 
  65 006b 59EE0220 		.ascii	"Y\356\002 \355c\210\362\004\020R\014S\303(G\2656X\027"
  65      ED6388F2 
  65      0410520C 
  65      53C32847 
  65      B5365817 
  66 007f 62A1F0ED 		.ascii	"b\241\360\355f)\370}m6'\356,\013M$\321w\010q\204!\272"
  66      6629F87D 
  66      6D3627EE 
  66      2C0B4D24 
  66      D1770871 
  67 0096 C0906A4C 		.ascii	"\300\220jL\177\372\026\233y\370\363\344\307\353\\:+"
  67      7FFA169B 
  67      79F8F3E4 
  67      C7EB5C3A 
  67      2B
  68 00a7 2C2BA578 		.ascii	",+\245x\335\036y\007E\274\367\377\343\355\262\303\202"
  68      DD1E7907 
  68      45BCF7FF 
  68      E3EDB2C3 
  68      82
  69 00b8 65ADFEFA 		.ascii	"e\255\376\372\367w\036\033[\030\304p\035\333\200S\317"
  69      F7771E1B 
  69      5B18C470 
  69      1DDB8053 
ARM GAS  /tmp/ccolIDMf.s 			page 5


  69      CF
  70 00c9 53F751DF 		.ascii	"S\367Q\337\244^\007\244V/\301/! \241IB\263\004*\016"
  70      A45E07A4 
  70      562FC12F 
  70      2120A149 
  70      42B3042A 
  71 00de 19217221 		.ascii	"\031!r!\220o\243\212\022\312\255\014\"\223];\207\243"
  71      906FA38A 
  71      12CAAD0C 
  71      22935D3B 
  71      87A3
  72 00f0 CBA59BD6 		.ascii	"\313\245\233\326\030n!\207O\310\336\300\216\310\244"
  72      186E2187 
  72      4FC8DEC0 
  72      8EC8A4
  73 00ff FD266A2B 		.ascii	"\375&j+\260L\256ti\215\213\265\254\320\225K\256\274"
  73      B04CAE74 
  73      698D8BB5 
  73      ACD0954B 
  73      AEBC
  74 0111 8DA0EB92 		.ascii	"\215\240\353\222\370]6\2712\246\274\003\026UC\251\010"
  74      F85D36B9 
  74      32A6BC03 
  74      165543A9 
  74      08
  75 0122 56A0A139 		.ascii	"V\240\2419&.\267?\273\031\270W'Xu\006|\201\014X\232"
  75      262EB73F 
  75      BB19B857 
  75      27587506 
  75      7C810C58 
  76 0137 E1F42183 		.ascii	"\341\364!\203\317\253\023Vu\006\366\002\031Xi\206\355"
  76      CFAB1356 
  76      7506F602 
  76      19586986 
  76      ED
  77 0148 2F6E863A 		.ascii	"/n\206:\257N\264\207\014s\373\232\313\256'\001eNP\241"
  77      AF4EB487 
  77      0C73FB9A 
  77      CBAE2701 
  77      654E50A1 
  78 015c 2DDE5B59 		.ascii	"-\336[YB[\227\244\000~\303\\\341*\337`\363\001\276\302"
  78      425B97A4 
  78      007EC35C 
  78      E12ADF60 
  78      F301BEC2 
  79 0170 ADC80A52 		.ascii	"\255\310\012R\250\211;\337\301\304W\366\324\365qM\271"
  79      A8893BDF 
  79      C1C457F6 
  79      D4F5714D 
  79      B9
  80 0181 29F63825 		.ascii	")\3668%S\356m\004]\243~\257v\364r1\003$\240bV\027Qw"
  80      53EE6D04 
  80      5DA37EAF 
  80      76F47231 
  80      0324A062 
  81 0199 22061C5B 		.ascii	"\"\006\034[\3713\346*7\025k\370$\261V\210\214\243Q\353"
  81      F933E62A 
ARM GAS  /tmp/ccolIDMf.s 			page 6


  81      37156BF8 
  81      24B15688 
  81      8CA351EB 
  82 01ad 68F072BE 		.ascii	"h\360r\276\232I@\371\012=\353\353yM\222\001\370\003"
  82      9A4940F9 
  82      0A3DEBEB 
  82      794D9201 
  82      F803
  83 01bf E9C27CBB 		.ascii	"\351\302|\273\273S\273\242\264u\372\373\310\245F\302"
  83      BB53BBA2 
  83      B475FAFB 
  83      C8A546C2 
  84 01cf 61E3C398 		.ascii	"a\343\303\2309b\366\017\030\311Ic,\2260\306\223\023"
  84      3962F60F 
  84      18C94963 
  84      2C9630C6 
  84      9313
  85 01e1 5393C640 		.ascii	"S\223\306@\264\2573bcO\347\314\214|\3621\221\030\015"
  85      B4AF3362 
  85      634FE7CC 
  85      8C7CF231 
  85      91180D
  86 01f4 C7814F27 		.ascii	"\307\201O'\023\341\016\205o\025F\356\001\017\260Jq"
  86      13E10E85 
  86      6F1546EE 
  86      010FB04A 
  86      71
  87              		.text
  88              		.section	.gnu.lto_stm32_clock_init.ba7c1bb8de14f08f,"",%progbits
  89 0000 789CA555 		.ascii	"x\234\245U\317KTQ\030\275\337}\357\315<\337\374tf\374"
  89      CF4B5451 
  89      18BDDF7D 
  89      EFCD3CDF 
  89      FC7466FC 
  90 0014 812E1C14 		.ascii	"\201.\034\024M-\234\322\376\201)\010ZD\013\025j\025"
  90      4D2D9CD2 
  90      FE812908 
  90      5A440B15 
  90      6A15
  91 0026 6AA00382 		.ascii	"j\240\003\202\221.\334\371D\027-\\\270\224\202\250]"
  91      912EDCF9 
  91      44172D5C 
  91      B89482A8 
  91      5D
  92 0037 2424B8B0 		.ascii	"$$\270\260\211\201\022\011\222\300\250\235\2712\204"
  92      89811209 
  92      92C0A89D 
  92      B93284
  93 0046 A46CE34E 		.ascii	"\244l\343N!\230\356w\357}\367N:\302\314\274\007\236"
  93      2198EE77 
  93      EF7DF74E 
  93      3AC2CCBC 
  93      079E
  94 0058 37733FEF 		.ascii	"7s?\357\231s\317w\276\367(\241\344\354u\304\376\376"
  94      9973CF77 
  94      BEF728A1 
  94      E4EC75C4 
ARM GAS  /tmp/ccolIDMf.s 			page 7


  94      FEFE
  95 006a 3A845C67 		.ascii	":\204\\gwh @\227\277\0202oS0\304\007\203\246\226>\021"
  95      77682040 
  95      97BF1032 
  95      6F5330C4 
  95      0783A696 
  96 0080 E23AE662 		.ascii	"\342:\346b\220\270\341\224X\317\232`\211\272E\223\242"
  96      90B8E194 
  96      58CF9A60 
  96      89BA4593 
  96      A2
  97 0091 1EE0F5A4 		.ascii	"\036\340\365\244X\317\006 (\352A\232\020u\233\327\023"
  97      58CF0620 
  97      28EA419A 
  97      10759BD7 
  97      13
  98 00a2 623D6B43 		.ascii	"b=kC\235\250\327\321zQwx\275^\254g\035\010\211z\210"
  98      9DA8D7D1 
  98      7A517778 
  98      BD5EAC67 
  98      1D08897A 
  99 00b7 C6453DCC 		.ascii	"\306E=\314\353q\261\236\015CD\324#4&\352Q^\217\211\365"
  99      EB71B19E 
  99      0D4344D4 
  99      233426EA 
  99      515E8F89 
 100 00cc 6C1400EF 		.ascii	"l\024\000\357\004\310\0345R\246\225\014\004\023v]\275"
 100      04C81C35 
 100      52A6950C 
 100      0413765D 
 100      BD
 101 00dd 138A8723 		.ascii	"\023\212\207#\261(\314\335\007~\3725\272\271_,\276\371"
 101      B128CCDD 
 101      077EFA35 
 101      BAB95F2C 
 101      BEF9
 102 00ef FAF9F912 		.ascii	"\372\371\371\022\024\350\025Jr@\014\004\013!\200\020"
 102      14E8154A 
 102      72400C04 
 102      0B218010 
 103 00ff 44B0111C 		.ascii	"D\260\021\034\2040B\004!\212\020CH $\021\032\020\032"
 103      84304204 
 103      218A1043 
 103      48202411 
 103      1A101A
 104 0112 119A109A 		.ascii	"\021\232\020\232\021Z\020Z\021\332\020\322\010\355\010"
 104      115A105A 
 104      11DA10D2 
 104      08ED08
 105 0121 1D089D08 		.ascii	"\035\010\235\010]\010\335\010=\010\275\010\354\262\310"
 105      5D08DD08 
 105      3D08BD08 
 105      ECB2C8
 106 0130 A2EB2EA7 		.ascii	"\242\353.\247\011\031\343_\207\030\262C\016\003e7c\207"
 106      0919E35F 
 106      8718B243 
 106      0E036537 
ARM GAS  /tmp/ccolIDMf.s 			page 8


 106      6387
 107 0142 6CEDE557 		.ascii	"l\355\345W\277\303\010\274\004\213\214\003\275L^\273"
 107      BFC308BC 
 107      048B8C03 
 107      BD4C5EBB 
 108 0152 8BF3F11C 		.ascii	"\213\363\361\034\3003\362\024r@\35710\334\027O\\\223"
 108      C033F214 
 108      7240EF31 
 108      30DC174F 
 108      5C93
 109 0164 F08FFCC4 		.ascii	"\360\217\374\304\243\340u~\207,\2743\274\335\306\270"
 109      A3E0757E 
 109      872CBC33 
 109      BCDDC6B8 
 110 0174 F87F02BC 		.ascii	"\370\177\002\274\262u[\024\252\343\034\227\337\231D"
 110      B2755B14 
 110      AAE31C97 
 110      DF9944
 111 0183 8330FBB9 		.ascii	"\2030\373\271\306\335\325S\245\321\342|P\215\304\302"
 111      C6DDD553 
 111      A5D1E27C 
 111      508DC4C2 
 112 0193 C2BADA1E 		.ascii	"\302\272\332\036`\014\\$\306x\233|<\234\037P%\276^z"
 112      600C5C24 
 112      C6789B7C 
 112      3C9C1F50 
 112      25BE5E7A 
 113 01a7 0D418AB0 		.ascii	"\015A\212\260d\3000\230\236]+k\277\024W\260\322\243"
 113      64C03098 
 113      9E5D2B6B 
 113      BF1457B0 
 113      D2A3
 114 01b9 41891665 		.ascii	"A\211\026e\227\315\010\370/\376-\026\213\261\232,\003"
 114      97CD08F8 
 114      2FFE2D16 
 114      8BB19A2C 
 114      03
 115 01ca 6999CD37 		.ascii	"i\231\3157\357\275ZS\322\234\352\245\325\372\343\216"
 115      EFBD5A53 
 115      D29CEAA5 
 115      D5FAE38E 
 116 01da D72F4BF7 		.ascii	"\327/K\367k\355X)\011W\330\257R\217\0266\324\366\010"
 116      6BED5829 
 116      0957D8AF 
 116      528F1636 
 116      D4F608
 117 01ed 63E02E85 		.ascii	"c\340.\205y\277\026\377\350~E\312\364+)\373\025\360"
 117      79BF16FF 
 117      E87E45CA 
 117      F42B29FB 
 117      15F0
 118 01ff FAB5BBAE 		.ascii	"\372\265\273\256\343\035\255!\336\272_1F\300\177\361"
 118      E31DAD21 
 118      DEBA5F31 
 118      46C07FF1 
 119 020f D45FBE63 		.ascii	"\324_\276c|s\376d\335\013\222 p#\025Z\204+ [\266\227"
 119      7C73FE64 
ARM GAS  /tmp/ccolIDMf.s 			page 9


 119      DD0B9220 
 119      7023155A 
 119      842B205B 
 120 0225 DFD0C74B 		.ascii	"\337\320\307K\370\232\336$#\340\307s\335\224\257\363"
 120      F89ADE24 
 120      23E0C773 
 120      DD94AFF3 
 121 0235 25BD3C04 		.ascii	"%\275<\004u\036\336\352\371m\3607\277\215\214A\312\264"
 121      751EDEEA 
 121      F96DF037 
 121      BF8D8C41 
 121      CAB4
 122 0247 CF4D7063 		.ascii	"\317Mpc\231D$d\"l5\301\205\037\212\255\251\322\303Q"
 122      99442464 
 122      226C35C1 
 122      851F8AAD 
 122      A9D2C351 
 123 025b AD465BD6 		.ascii	"\255F[\326\314\010|<\360\2504\254\3313\254N\031\226"
 123      CC087C3C 
 123      F0A834AC 
 123      D933AC4E 
 123      1996
 124 026d 2FE8016A 		.ascii	"/\350\001j\251\320\260\022\211\245\206\2652\206\013"
 124      A9D0B012 
 124      89A586B5 
 124      32860B
 125 027c 1E78AD65 		.ascii	"\036x\255e\354\252\227v9\322\256\374\356\373c\0379u"
 125      ECAA9776 
 125      39D2AEFC 
 125      EEFB631F 
 125      3975
 126 028e B7678437 		.ascii	"\267g\2047\371\374\207\252y\214\022\236\033\222f\267"
 126      F9FC87AA 
 126      798C129E 
 126      1B9266B7 
 127 029e 7A1A53D3 		.ascii	"z\032S\323\\\225c\263r\240\237\342m\276\306&\315\010"
 127      5C9563B3 
 127      72A09FE2 
 127      6DBEC626 
 127      CD08
 128 02b0 641E7920 		.ascii	"d\036y k\237\233\264\027\203\220\216\301\201\236\233"
 128      6B9F9BB4 
 128      1783908E 
 128      C1819E9B 
 129 02c0 767F73D3 		.ascii	"v\177s\323\301\030<\235\361sI\350(\223\204\270LBX%\341"
 129      C1183C9D 
 129      F17349E8 
 129      289384B8 
 129      4C425825 
 130 02d5 E719EBAF 		.ascii	"\347\031\353\257)1&\356\267\334MO\214%\305X\332\372"
 130      293126EE 
 130      B7DC4D4F 
 130      8C25C558 
 130      DAFA
 131 02e7 84B4FEE4 		.ascii	"\204\264\376\344P[\337Y\303\013T[\337\305\010T\262k"
 131      505BDF59 
 131      C30B545B 
ARM GAS  /tmp/ccolIDMf.s 			page 10


 131      DFC50854 
 131      B26B
 132 02f9 7F7F7579 		.ascii	"\177\177uy\276G\224\357+\277\365\370u\373{\177\3650"
 132      BE4794EF 
 132      2BBFF5F8 
 132      75FB7B7F 
 132      F530
 133 030b 860BDE5F 		.ascii	"\206\013\336_=|\335\376\317\364\2304=\252\336_GZJo\245"
 133      3D7CDDFE 
 133      CFF49834 
 133      3DAADE5F 
 133      475A4A6F 
 134 0320 47339596 		.ascii	"G3\225\226jM1\245)\275\204|#\363\373\371Kb\273\026\010"
 134      6A4D31A5 
 134      29BD847C 
 134      23F3FBF9 
 134      4B62BB16 
 135 0335 4C18FADD 		.ascii	"L\030\372\335\337\327\227\2719\221\033\315\335\035\314"
 135      DFD797B9 
 135      39911BCD 
 135      DD1DCC
 136 0344 4C4D6726 		.ascii	"LMg&F&3\217\246\036\317Lg\006\207\356\014\364\013\274"
 136      4626338F 
 136      A61ECF4C 
 136      670687EE 
 136      0CF40BBC 
 137 0358 35303B8B 		.ascii	"50;\213\225\007\223\223\017\373\306\310?x\003\204p"
 137      95079393 
 137      0FFBC6C8 
 137      3F780384 
 137      70
 138              		.text
 139              		.section	.gnu.lto_.symbol_nodes.ba7c1bb8de14f08f,"",%progbits
 140 0000 789C4588 		.ascii	"x\234E\210\261\015\2000\000\303\222\224\336\301S<\300"
 140      B10D8030 
 140      00C39294 
 140      DEC1533C 
 140      C0
 141 0011 25A958E8 		.ascii	"%\251X\350D\013;,\374\303%\034\001\022\225\360b\331"
 141      440B3B2C 
 141      FCC3251C 
 141      011295F0 
 141      62D9
 142 0023 8230A0A1 		.ascii	"\2020\240\241\"\003\365\002\354=\217\2522[\036\231Z"
 142      2203F502 
 142      EC3D8FAA 
 142      325B1E99 
 142      5A
 143 0034 65FD1917 		.ascii	"e\375\031\027!\032\334\344\360\335\224\030\010L\363"
 143      211ADCE4 
 143      F0DD9418 
 143      084CF3
 144 0043 DD077638 		.ascii	"\335\007v8_\343\001\035\014\027\340"
 144      5FE3011D 
 144      0C17E0
 145              		.text
 146              		.section	.gnu.lto_.refs.ba7c1bb8de14f08f,"",%progbits
ARM GAS  /tmp/ccolIDMf.s 			page 11


 147 0000 789C6362 		.ascii	"x\234cb`b`d\200\002\000\000F\000\006"
 147      60626064 
 147      80020000 
 147      460006
 148              		.text
 149              		.section	.gnu.lto_.decls.ba7c1bb8de14f08f,"",%progbits
 150 0000 789CBD97 		.ascii	"x\234\275\227}L\024G\024\300g\366\0208\271\372\225h"
 150      7D4C1447 
 150      14C067F6 
 150      1038B9FA 
 150      9568
 151 0012 6CD3D4D3 		.ascii	"l\323\324\323\324\2461\201\225\003\323\2174V8PH\375"
 151      D4A63181 
 151      9503D38F 
 151      34563850 
 151      48FD
 152 0024 207B58F5 		.ascii	" {X\365\237^\206\273\245\\\344\356,\034\026\377[\305"
 152      9F5E86BB 
 152      A55CE4EE 
 152      2C1C16FF 
 152      5BC5
 153 0036 96C6A60D 		.ascii	"\226\306\246\015~\264\351\227z\250\265\205\330j\375"
 153      7EB4E997 
 153      7AA8B585 
 153      D86AFD
 154 0045 A8DAA21C 		.ascii	"\250\332\242\034D*\265F\255Q\202\240p\0305m\323\246"
 154      442AB546 
 154      AD5182A0 
 154      7018356D 
 154      D3A6
 155 0057 90586D5A 		.ascii	"\220XmZ\303\365\355\334\356\261s\356\035{\376\321I\336"
 155      C3F5EDDC 
 155      EEB173EE 
 155      1D7BFED1 
 155      49DE
 156 0069 DBB9D999 		.ascii	"\333\271\331\231\337\274y\357\315c\341\020\207^\302"
 156      DFBC79EF 
 156      CD63E110 
 156      875EC2
 157 0078 0845A0AD 		.ascii	"\010E\240\255\237\212P\230C(\015!\264\020\2155\371w"
 157      9F8A5098 
 157      43280D21 
 157      B4108D35 
 157      F977
 158 008a 33C87E90 		.ascii	"3\310~\220\026\220\003 \260\004}\215\330&\317I\007\311"
 158      16900320 
 158      B0047D8D 
 158      D826CF49 
 158      07C9
 159 009c 00390E72 		.ascii	"\0009\016r\002\244\003\244\023d\020\004\320\350\024"
 159      02A403A4 
 159      13641004 
 159      D0E814
 160 00ab 488FB2BE 		.ascii	"H\217\262\276\031=\334\344=&*\214I \026\205\2452\302"
 160      193DDCE4 
 160      3D262A8C 
 160      49201685 
ARM GAS  /tmp/ccolIDMf.s 			page 12


 160      A532C2
 161 00be 207B4086 		.ascii	" {@\206@\206\225\375\256\201\\\0009\017r\005\3442\310"
 161      408695FD 
 161      AE815C00 
 161      390F7205 
 161      E432C8
 162 00d1 1D1093C2 		.ascii	"\035\020\223\302kVl\216o-q\366\252{\214\310c8\372\356"
 162      6B566C8E 
 162      6F2D71F6 
 162      AA7B8CC8 
 162      6338FAEE 
 163 00e5 2C483748 		.ascii	",H7H/H?\310\015\220{\212\375-:\314Yh\227\024\032\016"
 163      2F483FC8 
 163      0D907B8A 
 163      FD2D3ACC 
 163      59689714 
 164 00fb 77F5BFFF 		.ascii	"w\365\277\377\270\024\334\024\212D^F3\320\007\022\264"
 164      B814DC14 
 164      8A445E46 
 164      33D00712 
 164      B4
 165 010c E0DB9284 		.ascii	"\340\333\222\204\003\004/\234\216Vc\202'\231\221\225"
 165      03042F9C 
 165      8E566382 
 165      27999195 
 166 011c 762C66EA 		.ascii	"v,f\352`\204\010\336\203g(\275\225\246(\216C\0130\232"
 166      608408DE 
 166      836728BD 
 166      95A6288E 
 166      430B309A 
 167 0130 875A607D 		.ascii	"\207Z`}\223$m\232\207u\266D\350\031\364\271\274\203"
 167      93246D9A 
 167      8775B644 
 167      E819F4B9 
 167      BC83
 168 0142 F4A564A2 		.ascii	"\364\245d\242|\231\320\214gi\247\020\274\027s\361\206"
 168      7C99D08C 
 168      6769A710 
 168      BC1773F1 
 168      86
 169 0153 06C3A123 		.ascii	"\006\303\241#\215?ai\233\364 \0221)\006ph\025\206\356"
 169      8D3F6169 
 169      9BF42012 
 169      31290670 
 169      681586EE 
 170 0167 3E3C2F29 		.ascii	"></)\177\177<\377\013]\376\245s\226\246\215\341Hd\226"
 170      7F7F3CFF 
 170      0B5DFEA5 
 170      7396A68D 
 170      E1486496 
 171 017b 0A771B81 		.ascii	"\012w\033\201\267\304\303[\037\206\207\233\302\375\215"
 171      B7C4C35B 
 171      1F86879B 
 171      C2FD8D
 172 018a 3D8D786B 		.ascii	"=\215xkC\260[\032\216D&\307\354o\305\361{D!_\261\220"
 172      43B05B1A 
 172      8E4426C7 
ARM GAS  /tmp/ccolIDMf.s 			page 13


 172      EC6FC5F1 
 172      7B44215F 
 173 01a0 39A8590A 		.ascii	"9\250Y\012v\206oo\177O\016\225$\215F\"\330\214\336\001"
 173      76866F6F 
 173      7F4F0E95 
 173      248D4622 
 173      D88CDE01 
 174 01b4 37CBB12A 		.ascii	"7\313\261*\351\206\364\323\013\324\\\264\017\202\021"
 174      E986F4D3 
 174      0BD45CB4 
 174      0F8211
 175 01c3 BEFA6E57 		.ascii	"\276\372nW\007\206U\360\342 ,\343\320~\216\335\3258"
 175      078655F0 
 175      E2202CE3 
 175      D07E8EDD 
 175      D538
 176 01d5 AA7D7BDB 		.ascii	"\252}{\333\013\222\224I\360a\012:jbA\004g\230\331\203"
 176      0B929449 
 176      F0610A3A 
 176      6A624104 
 176      6798D983 
 177 01e9 C06F7582 		.ascii	"\300ou\202L\243\257\225\216|\217'\243T\247s\250=\266"
 177      4CA3AF95 
 177      8E7C8F27 
 177      A354A773 
 177      A83DB6
 178 01fc 69A2E43C 		.ascii	"i\242\344<\006\336{\012]4\355\2242\351\310j\345\344"
 178      06DE7B0A 
 178      5D34ED94 
 178      32E9C86A 
 178      E5E4
 179 020e D299D639 		.ascii	"\322\231\3269\312i\033\222\236\226\340Cx\256!s\246\241"
 179      CA691B92 
 179      9E96E043 
 179      78AE2173 
 179      A6A1
 180 0220 ADF4C62C 		.ascii	"\255\364\306,\322\240\026\251\250\3141\307}\272\373"
 180      D2A016A9 
 180      A8CC31C7 
 180      7DBAFB
 181 022f FE73D471 		.ascii	"\376s\324q'\36048C0\215u\334\270\030\331\246\357ait"
 181      27F03438 
 181      43308D75 
 181      DCB818D9 
 181      A6EF6169 
 182 0244 11854AA1 		.ascii	"\021\205J\241\253\203\026)-:\216t\322Hi\263QP\332\334"
 182      AB831629 
 182      2D3A8E74 
 182      D24869B3 
 182      5150DADC 
 183 0258 10BA36B8 		.ascii	"\020\2726\270\003\222\247\023\220\307i\354\016P\023"
 183      0392A713 
 183      90C769EC 
 183      0E5013
 184 0267 E4B57A1E 		.ascii	"\344\265z\036P\272(\346\277I\3468^\337\240\245\211\250"
 184      50BA28E6 
 184      BF49E638 
ARM GAS  /tmp/ccolIDMf.s 			page 14


 184      5EDFA0A5 
 184      89A8
 185 0279 B08329C3 		.ascii	"\260\203)\303\254z\246\252i0vR\202\333h$N\341\331\240"
 185      AC7AA6AA 
 185      69307652 
 185      82DB6824 
 185      4EE1D9A0 
 186 028d DB41C75A 		.ascii	"\333A\307Z\026\3322\226\265Q\307&J\210\016\234\245\256"
 186      16DA3296 
 186      B551C726 
 186      4A880E9C 
 186      A5AE
 187 029f 523C6DD5 		.ascii	"R<m\3258:hR\347\347\307\002\026:vs\246\354\333N\032"
 187      383A6852 
 187      E7E7C702 
 187      163A7673 
 187      A6ECDB4E 
 188 02b4 AE23FAE1 		.ascii	"\256#\372\341J\014\2217\355\212\017\327\375h\270\272"
 188      4A0C9137 
 188      ED8A0FD7 
 188      FD68B8BA 
 189 02c4 0C85EB5F 		.ascii	"\014\205\353_&\\\004\237\206\234\216\256}\264p=\320"
 189      265C049F 
 189      869C8EAE 
 189      7DB4703D 
 189      D0
 190 02d5 86AB9D9E 		.ascii	"\206\253\235\236'\025\230\225\201\215jag\214\3002\023"
 190      27159895 
 190      818D6A61 
 190      678CC032 
 190      13
 191 02e6 5BD674B3 		.ascii	"[\326t\263\033\352\272E\305u\247\214cm\333\306\342~"
 191      1BEABA45 
 191      C575A78C 
 191      636DDBC6 
 191      E27E
 192 02f8 36829B92 		.ascii	"6\202\233\222\330\272\035,\256/e\034k\335\207,n\310"
 192      D8BA1D2C 
 192      AE2F651C 
 192      6BDD872C 
 192      6EC8
 193 030a 086E6662 		.ascii	"\010nfb\353>bq\277\246\214c\255\373\204\305\215\030"
 193      EB3E6271 
 193      BFA68C63 
 193      ADFB84C5 
 193      8D18
 194 031c C159135B 		.ascii	"\301Y\023[\367\231\026Gp\310H\012[\023[\267\213\265"
 194      F7991647 
 194      70C8480A 
 194      5B135BB7 
 194      8BB5
 195 032e EE9E11EB 		.ascii	"\356\236\021\353\236Ml\335!\0267\2322\216\265\3560\213"
 195      9E4D6CDD 
 195      2116379A 
 195      328EB5EE 
 195      308B
 196 0340 DB3CC100 		.ascii	"\333<\301\000n\276\216uzM[L\010\376\201V\304\263\264"
ARM GAS  /tmp/ccolIDMf.s 			page 15


 196      6EBE8E75 
 196      7A4D5B4C 
 196      08FE8156 
 196      C4B3B4
 197 0353 2276537D 		.ascii	"\"vS}\216\352\363T_\240\372\022\325\227\251\276Bu\017"
 197      8EEAF354 
 197      5FA0FA12 
 197      D597A9BE 
 197      42750F
 198 0366 D5BD545F 		.ascii	"\325\275T_\243\272\237\352\033Ijjg\222\232:8VS\343V"
 198      A3BA9FEA 
 198      1B496A6A 
 198      67929A3A 
 198      385653E3 
 199 037b C99F3689 		.ascii	"\311\2376\211V\205a\225\246\364\351\024\3220V\327<\211"
 199      56856195 
 199      A6F4E914 
 199      D23056D7 
 199      3C89
 200 038d 62D5F8E4 		.ascii	"b\325\370\344\000\266\022<D\213\361\226\011\343\026"
 200      00B6123C 
 200      448BF196 
 200      09E316
 201 039c 639621EF 		.ascii	"c\226!\357{+\276\030\357\034\240\305\370\226\241b\374"
 201      7B2BBE18 
 201      EF1CA0C5 
 201      F896A162 
 201      FC
 202 03ad CD00FBB7 		.ascii	"\315\000\373\267\363cj\302\255G.\306\207\0074\365sw"
 202      F3636AC2 
 202      AD472EC6 
 202      870734F5 
 202      7377
 203 03bf CA306DE2 		.ascii	"\3120m\342m\014\035}\255\211LEM\212\017\242Te\242\024"
 203      6D0C1D7D 
 203      AD894C45 
 203      4D8A0FA2 
 203      5465A214 
 204 03d3 F343B424 		.ascii	"\363C\264$i\247\035L<\215\340\337\361T\332\243\337J"
 204      69A71D4C 
 204      3C8DE0DF 
 204      F154DAA3 
 204      DF4A
 205 03e5 522CB216 		.ascii	"R,\262\026s\302\300\376\201\3151\023-\346\261\216\211"
 205      73C2C0FE 
 205      81CD3113 
 205      2DE6B18E 
 205      89
 206 03f6 49637516 		.ascii	"Icu\026\034{o\374\261Y+\306\377\273\361\355\230\023"
 206      1C7B6FFC 
 206      B1592BC6 
 206      FFBBF1ED 
 206      9813
 207 0408 09BE4E6B 		.ascii	"\011\276Nk\3138N\324+\244zM\233.\004\337\246\327\355"
 207      CB384ED4 
 207      2BA47A4D 
 207      9B2E04DF 
ARM GAS  /tmp/ccolIDMf.s 			page 16


 207      A6D7ED
 208 041b 0EBD2CBF 		.ascii	"\016\275,\277P\375\033\325\177&\2718CI.\316p\362\217"
 208      50FD1BD5 
 208      7F26B938 
 208      43492ECE 
 208      70F28F
 209 042e 114E9DFF 		.ascii	"\021N\235\3774\212\245\377\215>9\375Gh\372\267\216\237"
 209      348AA5FF 
 209      8D3E39FD 
 209      4768FAB7 
 209      8E9F
 210 0440 FE2C43DE 		.ascii	"\376,C\336\363n|\372\037\353\243\351\177\327P\372\237"
 210      F36E7CFA 
 210      1FEBA3E9 
 210      7FD750FA 
 210      9F
 211 0451 EC63D3FF 		.ascii	"\354c\323\377\0045\341\356#\247\377w}\232\364oK\031"
 211      0435E1EE 
 211      23A7FF77 
 211      7D9AF46F 
 211      4B19
 212 0463 6665606D 		.ascii	"fe`mZX\207\021X\222\234:\255\205\375\2302\214\265\354"
 212      5A588711 
 212      58929C3A 
 212      AD85FD98 
 212      328CB5EC 
 213 0477 529F2641 		.ascii	"R\237&A\243\337o\343\300\222|\207\\\326Zv\336\210e\211"
 213      A3DF6FE3 
 213      C0927C87 
 213      5CD65A76 
 213      DE886589 
 214 048b BE42A44D 		.ascii	"\276B\244M\241+QX\364\277\301\213F`I\276Az\264\226\365"
 214      A12B5158 
 214      F4BFC18B 
 214      466049BE 
 214      417AB496 
 215 04a0 A60C637D 		.ascii	"\246\014c}\326\253\205]7\002\263\352X\246\327\264\227"
 215      D6AB855D 
 215      3702B3EA 
 215      58A6D7B4 
 215      97
 216 04b1 80E0BFE8 		.ascii	"\200\340\277\350\245\276G/\362\337T\377C\365\003\252"
 216      A5BE472F 
 216      F2DF54FF 
 216      43F503AA 
 217 04c1 47A98E50 		.ascii	"G\251\216P\275\221\223u\003\325oq\211\257\374H\222+"
 217      BD919375 
 217      03D56F71 
 217      89AFFC48 
 217      922B
 218 04d3 DFC8C5AE 		.ascii	"\337\310\305\256<\262\345\344\360\366*O\205g\205\203"
 218      3CB2E5E4 
 218      F0F62A4F 
 218      85678583 
 219 04e3 F7D7F255 		.ascii	"\367\327\362U\244\232_\347\257\011\324\362\216\362e"
 219      A49A5FE7 
 219      AF09D4F2 
ARM GAS  /tmp/ccolIDMf.s 			page 17


 219      8EF265
 220 04f2 79B6A85E 		.ascii	"y\266\250^\234W_/\277qVW\273s\\\350\011\245\353\254"
 220      9C575F2F 
 220      BF715657 
 220      BB735CE8 
 220      09A5EBAC 
 221 0506 20AEB575 		.ascii	" \256\265u\353\234n\277\227x|N\217\317\023H_\262|\245"
 221      EB9C6EBF 
 221      97787C4E 
 221      8FCF1348 
 221      5FB27CA5 
 222 051a D58E2CEA 		.ascii	"\325\216,\352\014ylJm\300\233gs\272\252\375\256\265"
 222      0C796C4A 
 222      6DC09B67 
 222      73BAAAFD 
 222      AEB5
 223 052c 74203FF9 		.ascii	"t ?\371\226K\227\026\361E\313\012\326\347\362\321\205"
 223      964B9716 
 223      F145CB0A 
 223      D6E7F2D1 
 223      85
 224 053d 6E2FC9A9 		.ascii	"n/\311\251B\031\360(\205\305\265\274\257\222\312\002"
 224      4219F028 
 224      85C5B5BC 
 224      AF92CA02 
 225 054d BECAEF15 		.ascii	"\276\312\357\025\371\032\261V$5\256*\300\324\270\337"
 225      F91AB156 
 225      2435AE2A 
 225      C0D4B8DF 
 226 055d 2435224F 		.ascii	"$5\"Oj\2746\376u\227+\033:\331\242\267Bt\273Ewl\300"
 226      6ABC36FE 
 226      75972B1B 
 226      3AD9A2B7 
 226      4274BB45 
 227 0574 E7F789D9 		.ascii	"\347\367\211\331\"\251\360d\347;\237\317\266\315\317"
 227      22A9F064 
 227      E73B9FCF 
 227      B6CDCF
 228 0583 CD7FC3C6 		.ascii	"\315\177\303\3063/x\217\317U]\347\026a{\267\307\027"
 228      332F788F 
 228      CF555DE7 
 228      16617BB7 
 228      C717
 229 0595 80BD33EB 		.ascii	"\200\2753\353\340\011\226\004\032\360\377\267\273\227"
 229      E0099604 
 229      1AF0FFB7 
 229      BB97
 230 05a3 B8AA3C3E 		.ascii	"\270\252<>\221w\272\305JRW\035p\0066\254\023k\301\232"
 230      9177BAC5 
 230      4A52571D 
 230      700636AC 
 230      136BC19A 
 231 05b7 894EA76A 		.ascii	"\211N\247j\317d\307\206\332\200\350\265\373kD\273\354"
 231      CF64C786 
 231      DA80E8B5 
 231      FB6B44BB 
 231      EC
ARM GAS  /tmp/ccolIDMf.s 			page 18


 232 05c8 DEE9396E 		.ascii	"\336\3519n\022 9q\243/\262\376v\371\275^\277\217\027"
 232      12203971 
 232      A32FB2FE 
 232      76F9BD5E 
 232      BF8F17
 233 05db EB03BC7D 		.ascii	"\353\003\274}\231\243\324\001n\327\204\231\372\2742"
 233      99A3D401 
 233      6ED78499 
 233      FABC32
 234 05ea 6F7E5EBD 		.ascii	"o~^\275\013\366\312*[%8\313a\343\"\261\222\263\013&"
 234      0BF6CA2A 
 234      5B2538CB 
 234      61E322B1 
 234      92B30B26 
 235 05fe BB43C812 		.ascii	"\273C\310\022\354vu(\315\276x\011\014\226\012\231\005"
 235      EC767528 
 235      CDBE7809 
 235      0C960A99 
 235      05
 236 060f 658536C1 		.ascii	"e\2056\301QN;\271r'\275\240\244\260x\271\220!\277P\236"
 236      514E3BB9 
 236      7227BDA0 
 236      A4B078B9 
 236      9021BF50 
 237 0624 B9F04C2B 		.ascii	"\271\360L+,\262\303\217\222By\316\004y\271\215\352\274"
 237      2CB2C38F 
 237      924279CE 
 237      0479B98D 
 237      EABC
 238 0636 498E350E 		.ascii	"I\2165\016\350\250d:\230k\022\354Bz\361\352\362R\273"
 238      E8A8643A 
 238      986B12EC 
 238      427AF1EA 
 238      F252BB
 239 0649 F0D8E2A5 		.ascii	"\360\330\342\245\005\216\022\365\265\251\300.\244\275"
 239      058E12F5 
 239      B5A9C02E 
 239      A4BD
 240 0657 52BC46C8 		.ascii	"R\274F\310XQV.?9\207\300\025\010\231B\261\243Xx\265"
 240      5851562E 
 240      3F3987C0 
 240      15089942 
 240      B1A35878 
 241 066c B8C8B4A2 		.ascii	"\270\310\264\242PH[%\224\011\377\001\270\303*\345"
 241      50485B25 
 241      9409FF01 
 241      B8C32AE5 
 242              		.text
 243              		.section	.gnu.lto_.symtab.ba7c1bb8de14f08f,"",%progbits
 244 0000 68616C5F 		.ascii	"hal_lld_init\000\000\000\000\000\000\000\000\000\000"
 244      6C6C645F 
 244      696E6974 
 244      00000000 
 244      00000000 
 245 0016 0000A600 		.ascii	"\000\000\246\000\000\000stm32_clock_init\000\000\000"
 245      00007374 
 245      6D33325F 
ARM GAS  /tmp/ccolIDMf.s 			page 19


 245      636C6F63 
 245      6B5F696E 
 246 002f 00000000 		.ascii	"\000\000\000\000\000\000\000\000\000\251\000\000\000"
 246      00000000 
 246      00A90000 
 246      00
 247 003c 53797374 		.ascii	"SystemCoreClock\000\000\000\000\000\000\000\000\000"
 247      656D436F 
 247      7265436C 
 247      6F636B00 
 247      00000000 
 248 0054 000000AE 		.ascii	"\000\000\000\256\000\000\000dmaInit\000\000\002\000"
 248      00000064 
 248      6D61496E 
 248      69740000 
 248      0200
 249 0066 00000000 		.ascii	"\000\000\000\000\000\000\000\000\254\000\000\000"
 249      00000000 
 249      AC000000 
 250              		.text
 251              		.section	.gnu.lto_.opts,"",%progbits
 252 0000 272D6D63 		.ascii	"'-mcpu=cortex-m4' '-mno-thumb-interwork' '-mthumb' "
 252      70753D63 
 252      6F727465 
 252      782D6D34 
 252      2720272D 
 253 0033 272D6767 		.ascii	"'-ggdb' '-O2' '-fomit-frame-pointer' '-falign-funct"
 253      64622720 
 253      272D4F32 
 253      2720272D 
 253      666F6D69 
 254 0066 696F6E73 		.ascii	"ions=16' '-ffunction-sections' '-fdata-sections' '-"
 254      3D313627 
 254      20272D66 
 254      66756E63 
 254      74696F6E 
 255 0099 666E6F2D 		.ascii	"fno-common' '-flto'\000"
 255      636F6D6D 
 255      6F6E2720 
 255      272D666C 
 255      746F2700 
 256              		.text
 257              		.cfi_sections	.debug_frame
 258              		.section	.text.hal_lld_init,"ax",%progbits
 259              		.align	2
 260              		.p2align 4,,15
 261              		.global	hal_lld_init
 262              		.thumb
 263              		.thumb_func
 264              		.type	hal_lld_init, %function
 265              	hal_lld_init:
 266              	.LFB271:
 267              		.file 1 "../ChibiOS/os/hal/ports/STM32/STM32F3xx/hal_lld.c"
 268              		.loc 1 105 0
 269              		.cfi_startproc
 270              		@ args = 0, pretend = 0, frame = 0
 271              		@ frame_needed = 0, uses_anonymous_args = 0
ARM GAS  /tmp/ccolIDMf.s 			page 20


 272              		.loc 1 108 0
 273 0000 1C4B     		ldr	r3, .L8
 274              	.LBB4:
 275              	.LBB5:
 276              		.loc 1 57 0
 277 0002 1D48     		ldr	r0, .L8+4
 278              	.LBE5:
 279              	.LBE4:
 280              		.loc 1 108 0
 281 0004 9A6A     		ldr	r2, [r3, #40]
 282 0006 4FF0FF31 		mov	r1, #-1
 283 000a 0022     		movs	r2, #0
 284              		.loc 1 105 0
 285 000c 10B5     		push	{r4, lr}
 286              		.cfi_def_cfa_offset 8
 287              		.cfi_offset 4, -8
 288              		.cfi_offset 14, -4
 289              		.loc 1 108 0
 290 000e 9962     		str	r1, [r3, #40]
 291 0010 9A62     		str	r2, [r3, #40]
 292              		.loc 1 109 0
 293 0012 1C69     		ldr	r4, [r3, #16]
 294 0014 1961     		str	r1, [r3, #16]
 295 0016 1A61     		str	r2, [r3, #16]
 296              		.loc 1 110 0
 297 0018 DC68     		ldr	r4, [r3, #12]
 298 001a D960     		str	r1, [r3, #12]
 299 001c DA60     		str	r2, [r3, #12]
 300              		.loc 1 113 0
 301 001e D969     		ldr	r1, [r3, #28]
 302 0020 41F08051 		orr	r1, r1, #268435456
 303 0024 D961     		str	r1, [r3, #28]
 304              	.LBB7:
 305              	.LBB6:
 306              		.loc 1 57 0
 307 0026 0168     		ldr	r1, [r0]
 308 0028 41F48071 		orr	r1, r1, #256
 309 002c 0160     		str	r1, [r0]
 310              		.loc 1 60 0
 311 002e 196A     		ldr	r1, [r3, #32]
 312 0030 01F44071 		and	r1, r1, #768
 313 0034 B1F5007F 		cmp	r1, #512
 314 0038 03D0     		beq	.L2
 315              		.loc 1 62 0
 316 003a 4FF48031 		mov	r1, #65536
 317 003e 1962     		str	r1, [r3, #32]
 318              		.loc 1 63 0
 319 0040 1A62     		str	r2, [r3, #32]
 320              	.L2:
 321              		.loc 1 82 0
 322 0042 0C4B     		ldr	r3, .L8
 323 0044 1A6A     		ldr	r2, [r3, #32]
 324 0046 1204     		lsls	r2, r2, #16
 325 0048 07D4     		bmi	.L3
 326              		.loc 1 84 0
 327 004a 1A6A     		ldr	r2, [r3, #32]
 328 004c 42F40072 		orr	r2, r2, #512
ARM GAS  /tmp/ccolIDMf.s 			page 21


 329 0050 1A62     		str	r2, [r3, #32]
 330              		.loc 1 87 0
 331 0052 1A6A     		ldr	r2, [r3, #32]
 332 0054 42F40042 		orr	r2, r2, #32768
 333 0058 1A62     		str	r2, [r3, #32]
 334              	.L3:
 335              	.LBE6:
 336              	.LBE7:
 337              		.loc 1 119 0
 338 005a FFF7FEFF 		bl	dmaInit
 339              	.LVL0:
 340              		.loc 1 129 0
 341 005e 054A     		ldr	r2, .L8
 342              		.loc 1 133 0
 343 0060 064B     		ldr	r3, .L8+8
 344              		.loc 1 129 0
 345 0062 9169     		ldr	r1, [r2, #24]
 346 0064 41F00101 		orr	r1, r1, #1
 347 0068 9161     		str	r1, [r2, #24]
 348              		.loc 1 133 0
 349 006a 1A68     		ldr	r2, [r3]
 350 006c 42F02002 		orr	r2, r2, #32
 351 0070 1A60     		str	r2, [r3]
 352 0072 10BD     		pop	{r4, pc}
 353              	.L9:
 354              		.align	2
 355              	.L8:
 356 0074 00100240 		.word	1073876992
 357 0078 00700040 		.word	1073770496
 358 007c 00000140 		.word	1073807360
 359              		.cfi_endproc
 360              	.LFE271:
 361              		.size	hal_lld_init, .-hal_lld_init
 362              		.section	.text.stm32_clock_init,"ax",%progbits
 363              		.align	2
 364              		.p2align 4,,15
 365              		.global	stm32_clock_init
 366              		.thumb
 367              		.thumb_func
 368              		.type	stm32_clock_init, %function
 369              	stm32_clock_init:
 370              	.LFB272:
 371              		.loc 1 144 0
 372              		.cfi_startproc
 373              		@ args = 0, pretend = 0, frame = 0
 374              		@ frame_needed = 0, uses_anonymous_args = 0
 375              		@ link register save eliminated.
 376              		.loc 1 149 0
 377 0000 2449     		ldr	r1, .L23
 378 0002 0B68     		ldr	r3, [r1]
 379 0004 43F00103 		orr	r3, r3, #1
 380 0008 0B60     		str	r3, [r1]
 381              	.L12:
 382              		.loc 1 150 0 discriminator 1
 383 000a 0B68     		ldr	r3, [r1]
 384 000c 214A     		ldr	r2, .L23
 385 000e 9807     		lsls	r0, r3, #30
ARM GAS  /tmp/ccolIDMf.s 			page 22


 386 0010 FBD5     		bpl	.L12
 387              		.loc 1 156 0
 388 0012 5368     		ldr	r3, [r2, #4]
 389 0014 23F00303 		bic	r3, r3, #3
 390 0018 5360     		str	r3, [r2, #4]
 391              		.loc 1 157 0
 392 001a 5368     		ldr	r3, [r2, #4]
 393 001c 5360     		str	r3, [r2, #4]
 394              		.loc 1 158 0
 395 001e 1146     		mov	r1, r2
 396              	.L14:
 397              		.loc 1 158 0 is_stmt 0 discriminator 1
 398 0020 4B68     		ldr	r3, [r1, #4]
 399 0022 1C4A     		ldr	r2, .L23
 400 0024 13F00C03 		ands	r3, r3, #12
 401 0028 FAD1     		bne	.L14
 402              		.loc 1 162 0 is_stmt 1
 403 002a 1168     		ldr	r1, [r2]
 404 002c 01F0F901 		and	r1, r1, #249
 405 0030 1160     		str	r1, [r2]
 406              		.loc 1 163 0
 407 0032 5360     		str	r3, [r2, #4]
 408              		.loc 1 169 0
 409 0034 1368     		ldr	r3, [r2]
 410 0036 43F4A023 		orr	r3, r3, #327680
 411 003a 1360     		str	r3, [r2]
 412              	.L16:
 413              		.loc 1 174 0 discriminator 1
 414 003c 1368     		ldr	r3, [r2]
 415 003e 1549     		ldr	r1, .L23
 416 0040 9B03     		lsls	r3, r3, #14
 417 0042 FBD5     		bpl	.L16
 418              		.loc 1 180 0
 419 0044 4B6A     		ldr	r3, [r1, #36]
 420 0046 43F00103 		orr	r3, r3, #1
 421 004a 4B62     		str	r3, [r1, #36]
 422              	.L18:
 423              		.loc 1 181 0 discriminator 1
 424 004c 4B6A     		ldr	r3, [r1, #36]
 425 004e 114A     		ldr	r2, .L23
 426 0050 9807     		lsls	r0, r3, #30
 427 0052 FBD5     		bpl	.L18
 428              		.loc 1 186 0
 429 0054 104B     		ldr	r3, .L23+4
 430 0056 5360     		str	r3, [r2, #4]
 431              		.loc 1 189 0
 432 0058 4FF40451 		mov	r1, #8448
 433              		.loc 1 190 0
 434 005c 3023     		movs	r3, #48
 435              		.loc 1 189 0
 436 005e D162     		str	r1, [r2, #44]
 437              		.loc 1 190 0
 438 0060 1363     		str	r3, [r2, #48]
 439              		.loc 1 196 0
 440 0062 1368     		ldr	r3, [r2]
 441 0064 43F08073 		orr	r3, r3, #16777216
 442 0068 1360     		str	r3, [r2]
ARM GAS  /tmp/ccolIDMf.s 			page 23


 443              	.L20:
 444              		.loc 1 197 0 discriminator 1
 445 006a 1368     		ldr	r3, [r2]
 446 006c 0949     		ldr	r1, .L23
 447 006e 9B01     		lsls	r3, r3, #6
 448 0070 FBD5     		bpl	.L20
 449              		.loc 1 202 0
 450 0072 0A4B     		ldr	r3, .L23+8
 451 0074 1222     		movs	r2, #18
 452 0076 1A60     		str	r2, [r3]
 453              		.loc 1 207 0
 454 0078 4B68     		ldr	r3, [r1, #4]
 455 007a 43F00203 		orr	r3, r3, #2
 456 007e 4B60     		str	r3, [r1, #4]
 457              	.L22:
 458              		.loc 1 208 0 discriminator 1
 459 0080 4B68     		ldr	r3, [r1, #4]
 460 0082 044A     		ldr	r2, .L23
 461 0084 03F00C03 		and	r3, r3, #12
 462 0088 082B     		cmp	r3, #8
 463 008a F9D1     		bne	.L22
 464              		.loc 1 214 0
 465 008c 136B     		ldr	r3, [r2, #48]
 466 008e 1363     		str	r3, [r2, #48]
 467 0090 7047     		bx	lr
 468              	.L24:
 469 0092 00BF     		.align	2
 470              	.L23:
 471 0094 00100240 		.word	1073876992
 472 0098 00241D00 		.word	1909760
 473 009c 00200240 		.word	1073881088
 474              		.cfi_endproc
 475              	.LFE272:
 476              		.size	stm32_clock_init, .-stm32_clock_init
 477              		.global	SystemCoreClock
 478              		.section	.data.SystemCoreClock,"aw",%progbits
 479              		.align	2
 480              		.type	SystemCoreClock, %object
 481              		.size	SystemCoreClock, 4
 482              	SystemCoreClock:
 483 0000 00A24A04 		.word	72000000
 484              		.text
 485              	.Letext0:
 486              		.file 2 "/nfs/nfs5/home/research/hardware/arm2/gcc-arm-embedded/gcc-arm-none-eabi-4_8-2014q2/arm-n
 487              		.file 3 "/nfs/nfs5/home/research/hardware/arm2/gcc-arm-embedded/gcc-arm-none-eabi-4_8-2014q2/arm-n
 488              		.file 4 "../ChibiOS/os/common/ports/ARMCMx/compilers/GCC/chtypes.h"
 489              		.file 5 "../ChibiOS/os/rt/include/chsystypes.h"
 490              		.file 6 "../ChibiOS/os/rt/include/chschd.h"
 491              		.file 7 "../ChibiOS/os/common/ext/CMSIS/ST/STM32F3xx/stm32f303xc.h"
 492              		.file 8 "../ChibiOS/os/common/ports/ARMCMx/chcore.h"
 493              		.file 9 "../ChibiOS/os/common/ports/ARMCMx/chcore_v7m.h"
 494              		.file 10 "../ChibiOS/os/rt/include/chtm.h"
 495              		.file 11 "../ChibiOS/os/rt/include/chsem.h"
 496              		.file 12 "../ChibiOS/os/rt/include/chmtx.h"
 497              		.file 13 "../ChibiOS/os/common/ext/CMSIS/include/core_cm4.h"
 498              		.file 14 "../ChibiOS/os/hal/ports/STM32/LLD/DMAv1/stm32_dma.h"
 499              		.section	.debug_info,"",%progbits
ARM GAS  /tmp/ccolIDMf.s 			page 24


 500              	.Ldebug_info0:
 501 0000 4E080000 		.4byte	0x84e
 502 0004 0400     		.2byte	0x4
 503 0006 00000000 		.4byte	.Ldebug_abbrev0
 504 000a 04       		.byte	0x4
 505 000b 01       		.uleb128 0x1
 506 000c D3040000 		.4byte	.LASF112
 507 0010 01       		.byte	0x1
 508 0011 00020000 		.4byte	.LASF113
 509 0015 61030000 		.4byte	.LASF114
 510 0019 18000000 		.4byte	.Ldebug_ranges0+0x18
 511 001d 00000000 		.4byte	0
 512 0021 00000000 		.4byte	.Ldebug_line0
 513 0025 02       		.uleb128 0x2
 514 0026 04       		.byte	0x4
 515 0027 05       		.byte	0x5
 516 0028 696E7400 		.ascii	"int\000"
 517 002c 03       		.uleb128 0x3
 518 002d 04       		.byte	0x4
 519 002e 07       		.byte	0x7
 520 002f 89010000 		.4byte	.LASF0
 521 0033 03       		.uleb128 0x3
 522 0034 01       		.byte	0x1
 523 0035 06       		.byte	0x6
 524 0036 CD000000 		.4byte	.LASF1
 525 003a 04       		.uleb128 0x4
 526 003b 29000000 		.4byte	.LASF5
 527 003f 02       		.byte	0x2
 528 0040 1C       		.byte	0x1c
 529 0041 45000000 		.4byte	0x45
 530 0045 03       		.uleb128 0x3
 531 0046 01       		.byte	0x1
 532 0047 08       		.byte	0x8
 533 0048 AD030000 		.4byte	.LASF2
 534 004c 03       		.uleb128 0x3
 535 004d 02       		.byte	0x2
 536 004e 05       		.byte	0x5
 537 004f BB030000 		.4byte	.LASF3
 538 0053 03       		.uleb128 0x3
 539 0054 02       		.byte	0x2
 540 0055 07       		.byte	0x7
 541 0056 D6010000 		.4byte	.LASF4
 542 005a 04       		.uleb128 0x4
 543 005b 60020000 		.4byte	.LASF6
 544 005f 02       		.byte	0x2
 545 0060 37       		.byte	0x37
 546 0061 65000000 		.4byte	0x65
 547 0065 03       		.uleb128 0x3
 548 0066 04       		.byte	0x4
 549 0067 05       		.byte	0x5
 550 0068 19010000 		.4byte	.LASF7
 551 006c 04       		.uleb128 0x4
 552 006d 4E010000 		.4byte	.LASF8
 553 0071 02       		.byte	0x2
 554 0072 38       		.byte	0x38
 555 0073 77000000 		.4byte	0x77
 556 0077 03       		.uleb128 0x3
ARM GAS  /tmp/ccolIDMf.s 			page 25


 557 0078 04       		.byte	0x4
 558 0079 07       		.byte	0x7
 559 007a AD010000 		.4byte	.LASF9
 560 007e 03       		.uleb128 0x3
 561 007f 08       		.byte	0x8
 562 0080 05       		.byte	0x5
 563 0081 BF000000 		.4byte	.LASF10
 564 0085 04       		.uleb128 0x4
 565 0086 1D030000 		.4byte	.LASF11
 566 008a 02       		.byte	0x2
 567 008b 4E       		.byte	0x4e
 568 008c 90000000 		.4byte	0x90
 569 0090 03       		.uleb128 0x3
 570 0091 08       		.byte	0x8
 571 0092 07       		.byte	0x7
 572 0093 53000000 		.4byte	.LASF12
 573 0097 04       		.uleb128 0x4
 574 0098 C5040000 		.4byte	.LASF13
 575 009c 03       		.byte	0x3
 576 009d 2A       		.byte	0x2a
 577 009e 3A000000 		.4byte	0x3a
 578 00a2 04       		.uleb128 0x4
 579 00a3 A5030000 		.4byte	.LASF14
 580 00a7 03       		.byte	0x3
 581 00a8 41       		.byte	0x41
 582 00a9 5A000000 		.4byte	0x5a
 583 00ad 04       		.uleb128 0x4
 584 00ae 04040000 		.4byte	.LASF15
 585 00b2 03       		.byte	0x3
 586 00b3 42       		.byte	0x42
 587 00b4 6C000000 		.4byte	0x6c
 588 00b8 04       		.uleb128 0x4
 589 00b9 20000000 		.4byte	.LASF16
 590 00bd 03       		.byte	0x3
 591 00be 4E       		.byte	0x4e
 592 00bf 85000000 		.4byte	0x85
 593 00c3 04       		.uleb128 0x4
 594 00c4 8D040000 		.4byte	.LASF17
 595 00c8 04       		.byte	0x4
 596 00c9 39       		.byte	0x39
 597 00ca AD000000 		.4byte	0xad
 598 00ce 04       		.uleb128 0x4
 599 00cf 3E020000 		.4byte	.LASF18
 600 00d3 04       		.byte	0x4
 601 00d4 3C       		.byte	0x3c
 602 00d5 97000000 		.4byte	0x97
 603 00d9 04       		.uleb128 0x4
 604 00da 2B010000 		.4byte	.LASF19
 605 00de 04       		.byte	0x4
 606 00df 3D       		.byte	0x3d
 607 00e0 97000000 		.4byte	0x97
 608 00e4 04       		.uleb128 0x4
 609 00e5 37030000 		.4byte	.LASF20
 610 00e9 04       		.byte	0x4
 611 00ea 3E       		.byte	0x3e
 612 00eb 97000000 		.4byte	0x97
 613 00ef 04       		.uleb128 0x4
ARM GAS  /tmp/ccolIDMf.s 			page 26


 614 00f0 59030000 		.4byte	.LASF21
 615 00f4 04       		.byte	0x4
 616 00f5 40       		.byte	0x40
 617 00f6 AD000000 		.4byte	0xad
 618 00fa 04       		.uleb128 0x4
 619 00fb F3010000 		.4byte	.LASF22
 620 00ff 04       		.byte	0x4
 621 0100 41       		.byte	0x41
 622 0101 A2000000 		.4byte	0xa2
 623 0105 04       		.uleb128 0x4
 624 0106 54020000 		.4byte	.LASF23
 625 010a 04       		.byte	0x4
 626 010b 43       		.byte	0x43
 627 010c AD000000 		.4byte	0xad
 628 0110 04       		.uleb128 0x4
 629 0111 83010000 		.4byte	.LASF24
 630 0115 04       		.byte	0x4
 631 0116 45       		.byte	0x45
 632 0117 A2000000 		.4byte	0xa2
 633 011b 04       		.uleb128 0x4
 634 011c 4B040000 		.4byte	.LASF25
 635 0120 05       		.byte	0x5
 636 0121 33       		.byte	0x33
 637 0122 AD000000 		.4byte	0xad
 638 0126 04       		.uleb128 0x4
 639 0127 42040000 		.4byte	.LASF26
 640 012b 05       		.byte	0x5
 641 012c 3F       		.byte	0x3f
 642 012d 31010000 		.4byte	0x131
 643 0131 05       		.uleb128 0x5
 644 0132 E9010000 		.4byte	.LASF44
 645 0136 44       		.byte	0x44
 646 0137 06       		.byte	0x6
 647 0138 9A       		.byte	0x9a
 648 0139 0F020000 		.4byte	0x20f
 649 013d 06       		.uleb128 0x6
 650 013e 41010000 		.4byte	.LASF27
 651 0142 06       		.byte	0x6
 652 0143 9B       		.byte	0x9b
 653 0144 44020000 		.4byte	0x244
 654 0148 00       		.byte	0
 655 0149 06       		.uleb128 0x6
 656 014a 07030000 		.4byte	.LASF28
 657 014e 06       		.byte	0x6
 658 014f 9C       		.byte	0x9c
 659 0150 EF000000 		.4byte	0xef
 660 0154 08       		.byte	0x8
 661 0155 07       		.uleb128 0x7
 662 0156 63747800 		.ascii	"ctx\000"
 663 015a 06       		.byte	0x6
 664 015b 9D       		.byte	0x9d
 665 015c 15060000 		.4byte	0x615
 666 0160 0C       		.byte	0xc
 667 0161 06       		.uleb128 0x6
 668 0162 75020000 		.4byte	.LASF29
 669 0166 06       		.byte	0x6
 670 0167 9F       		.byte	0x9f
ARM GAS  /tmp/ccolIDMf.s 			page 27


 671 0168 1A020000 		.4byte	0x21a
 672 016c 10       		.byte	0x10
 673 016d 06       		.uleb128 0x6
 674 016e 3C040000 		.4byte	.LASF30
 675 0172 06       		.byte	0x6
 676 0173 A0       		.byte	0xa0
 677 0174 1A020000 		.4byte	0x21a
 678 0178 14       		.byte	0x14
 679 0179 06       		.uleb128 0x6
 680 017a CB010000 		.4byte	.LASF31
 681 017e 06       		.byte	0x6
 682 017f A7       		.byte	0xa7
 683 0180 9A070000 		.4byte	0x79a
 684 0184 18       		.byte	0x18
 685 0185 06       		.uleb128 0x6
 686 0186 47010000 		.4byte	.LASF32
 687 018a 06       		.byte	0x6
 688 018b B0       		.byte	0xb0
 689 018c AC070000 		.4byte	0x7ac
 690 0190 1C       		.byte	0x1c
 691 0191 06       		.uleb128 0x6
 692 0192 09010000 		.4byte	.LASF33
 693 0196 06       		.byte	0x6
 694 0197 B5       		.byte	0xb5
 695 0198 D9000000 		.4byte	0xd9
 696 019c 20       		.byte	0x20
 697 019d 06       		.uleb128 0x6
 698 019e CD040000 		.4byte	.LASF34
 699 01a2 06       		.byte	0x6
 700 01a3 B9       		.byte	0xb9
 701 01a4 CE000000 		.4byte	0xce
 702 01a8 21       		.byte	0x21
 703 01a9 06       		.uleb128 0x6
 704 01aa 44030000 		.4byte	.LASF35
 705 01ae 06       		.byte	0x6
 706 01af BE       		.byte	0xbe
 707 01b0 E4000000 		.4byte	0xe4
 708 01b4 22       		.byte	0x22
 709 01b5 08       		.uleb128 0x8
 710 01b6 7500     		.ascii	"u\000"
 711 01b8 06       		.byte	0x6
 712 01b9 0F01     		.2byte	0x10f
 713 01bb CF060000 		.4byte	0x6cf
 714 01bf 24       		.byte	0x24
 715 01c0 09       		.uleb128 0x9
 716 01c1 62010000 		.4byte	.LASF36
 717 01c5 06       		.byte	0x6
 718 01c6 1401     		.2byte	0x114
 719 01c8 20020000 		.4byte	0x220
 720 01cc 28       		.byte	0x28
 721 01cd 09       		.uleb128 0x9
 722 01ce 00010000 		.4byte	.LASF37
 723 01d2 06       		.byte	0x6
 724 01d3 1A01     		.2byte	0x11a
 725 01d5 44020000 		.4byte	0x244
 726 01d9 2C       		.byte	0x2c
 727 01da 09       		.uleb128 0x9
ARM GAS  /tmp/ccolIDMf.s 			page 28


 728 01db A5040000 		.4byte	.LASF38
 729 01df 06       		.byte	0x6
 730 01e0 2001     		.2byte	0x120
 731 01e2 05010000 		.4byte	0x105
 732 01e6 34       		.byte	0x34
 733 01e7 09       		.uleb128 0x9
 734 01e8 BF050000 		.4byte	.LASF39
 735 01ec 06       		.byte	0x6
 736 01ed 2701     		.2byte	0x127
 737 01ef 94070000 		.4byte	0x794
 738 01f3 38       		.byte	0x38
 739 01f4 09       		.uleb128 0x9
 740 01f5 8A020000 		.4byte	.LASF40
 741 01f9 06       		.byte	0x6
 742 01fa 2B01     		.2byte	0x12b
 743 01fc EF000000 		.4byte	0xef
 744 0200 3C       		.byte	0x3c
 745 0201 09       		.uleb128 0x9
 746 0202 D0010000 		.4byte	.LASF41
 747 0206 06       		.byte	0x6
 748 0207 3201     		.2byte	0x132
 749 0209 F7020000 		.4byte	0x2f7
 750 020d 40       		.byte	0x40
 751 020e 00       		.byte	0
 752 020f 04       		.uleb128 0x4
 753 0210 9C020000 		.4byte	.LASF42
 754 0214 05       		.byte	0x5
 755 0215 44       		.byte	0x44
 756 0216 1A020000 		.4byte	0x21a
 757 021a 0A       		.uleb128 0xa
 758 021b 04       		.byte	0x4
 759 021c 26010000 		.4byte	0x126
 760 0220 04       		.uleb128 0x4
 761 0221 7B020000 		.4byte	.LASF43
 762 0225 05       		.byte	0x5
 763 0226 49       		.byte	0x49
 764 0227 2B020000 		.4byte	0x22b
 765 022b 05       		.uleb128 0x5
 766 022c 14040000 		.4byte	.LASF45
 767 0230 04       		.byte	0x4
 768 0231 06       		.byte	0x6
 769 0232 88       		.byte	0x88
 770 0233 44020000 		.4byte	0x244
 771 0237 06       		.uleb128 0x6
 772 0238 A9000000 		.4byte	.LASF46
 773 023c 06       		.byte	0x6
 774 023d 89       		.byte	0x89
 775 023e 1A020000 		.4byte	0x21a
 776 0242 00       		.byte	0
 777 0243 00       		.byte	0
 778 0244 04       		.uleb128 0x4
 779 0245 95040000 		.4byte	.LASF47
 780 0249 05       		.byte	0x5
 781 024a 50       		.byte	0x50
 782 024b 4F020000 		.4byte	0x24f
 783 024f 05       		.uleb128 0x5
 784 0250 AE000000 		.4byte	.LASF48
ARM GAS  /tmp/ccolIDMf.s 			page 29


 785 0254 08       		.byte	0x8
 786 0255 06       		.byte	0x6
 787 0256 8F       		.byte	0x8f
 788 0257 74020000 		.4byte	0x274
 789 025b 06       		.uleb128 0x6
 790 025c A9000000 		.4byte	.LASF46
 791 0260 06       		.byte	0x6
 792 0261 90       		.byte	0x90
 793 0262 1A020000 		.4byte	0x21a
 794 0266 00       		.byte	0
 795 0267 06       		.uleb128 0x6
 796 0268 33000000 		.4byte	.LASF49
 797 026c 06       		.byte	0x6
 798 026d 91       		.byte	0x91
 799 026e 1A020000 		.4byte	0x21a
 800 0272 04       		.byte	0x4
 801 0273 00       		.byte	0
 802 0274 04       		.uleb128 0x4
 803 0275 00000000 		.4byte	.LASF50
 804 0279 05       		.byte	0x5
 805 027a 57       		.byte	0x57
 806 027b 7F020000 		.4byte	0x27f
 807 027f 0B       		.uleb128 0xb
 808 0280 46020000 		.4byte	.LASF51
 809 0284 1C       		.byte	0x1c
 810 0285 06       		.byte	0x6
 811 0286 6A01     		.2byte	0x16a
 812 0288 DB020000 		.4byte	0x2db
 813 028c 09       		.uleb128 0x9
 814 028d 41010000 		.4byte	.LASF27
 815 0291 06       		.byte	0x6
 816 0292 6B01     		.2byte	0x16b
 817 0294 44020000 		.4byte	0x244
 818 0298 00       		.byte	0
 819 0299 09       		.uleb128 0x9
 820 029a 07030000 		.4byte	.LASF28
 821 029e 06       		.byte	0x6
 822 029f 6C01     		.2byte	0x16c
 823 02a1 EF000000 		.4byte	0xef
 824 02a5 08       		.byte	0x8
 825 02a6 08       		.uleb128 0x8
 826 02a7 63747800 		.ascii	"ctx\000"
 827 02ab 06       		.byte	0x6
 828 02ac 6E01     		.2byte	0x16e
 829 02ae 15060000 		.4byte	0x615
 830 02b2 0C       		.byte	0xc
 831 02b3 09       		.uleb128 0x9
 832 02b4 75020000 		.4byte	.LASF29
 833 02b8 06       		.byte	0x6
 834 02b9 7101     		.2byte	0x171
 835 02bb 1A020000 		.4byte	0x21a
 836 02bf 10       		.byte	0x10
 837 02c0 09       		.uleb128 0x9
 838 02c1 3C040000 		.4byte	.LASF30
 839 02c5 06       		.byte	0x6
 840 02c6 7201     		.2byte	0x172
 841 02c8 1A020000 		.4byte	0x21a
ARM GAS  /tmp/ccolIDMf.s 			page 30


 842 02cc 14       		.byte	0x14
 843 02cd 09       		.uleb128 0x9
 844 02ce 15030000 		.4byte	.LASF52
 845 02d2 06       		.byte	0x6
 846 02d3 7501     		.2byte	0x175
 847 02d5 1A020000 		.4byte	0x21a
 848 02d9 18       		.byte	0x18
 849 02da 00       		.byte	0
 850 02db 04       		.uleb128 0x4
 851 02dc 55040000 		.4byte	.LASF53
 852 02e0 05       		.byte	0x5
 853 02e1 5C       		.byte	0x5c
 854 02e2 E6020000 		.4byte	0x2e6
 855 02e6 0A       		.uleb128 0xa
 856 02e7 04       		.byte	0x4
 857 02e8 EC020000 		.4byte	0x2ec
 858 02ec 0C       		.uleb128 0xc
 859 02ed F7020000 		.4byte	0x2f7
 860 02f1 0D       		.uleb128 0xd
 861 02f2 F7020000 		.4byte	0x2f7
 862 02f6 00       		.byte	0
 863 02f7 0E       		.uleb128 0xe
 864 02f8 04       		.byte	0x4
 865 02f9 04       		.uleb128 0x4
 866 02fa 49030000 		.4byte	.LASF54
 867 02fe 05       		.byte	0x5
 868 02ff 61       		.byte	0x61
 869 0300 04030000 		.4byte	0x304
 870 0304 0B       		.uleb128 0xb
 871 0305 E6030000 		.4byte	.LASF55
 872 0309 14       		.byte	0x14
 873 030a 06       		.byte	0x6
 874 030b 4501     		.2byte	0x145
 875 030d 53030000 		.4byte	0x353
 876 0311 09       		.uleb128 0x9
 877 0312 A9000000 		.4byte	.LASF46
 878 0316 06       		.byte	0x6
 879 0317 4601     		.2byte	0x146
 880 0319 B2070000 		.4byte	0x7b2
 881 031d 00       		.byte	0
 882 031e 09       		.uleb128 0x9
 883 031f 33000000 		.4byte	.LASF49
 884 0323 06       		.byte	0x6
 885 0324 4701     		.2byte	0x147
 886 0326 B2070000 		.4byte	0x7b2
 887 032a 04       		.byte	0x4
 888 032b 09       		.uleb128 0x9
 889 032c 13000000 		.4byte	.LASF56
 890 0330 06       		.byte	0x6
 891 0331 4801     		.2byte	0x148
 892 0333 1B010000 		.4byte	0x11b
 893 0337 08       		.byte	0x8
 894 0338 09       		.uleb128 0x9
 895 0339 34010000 		.4byte	.LASF57
 896 033d 06       		.byte	0x6
 897 033e 4901     		.2byte	0x149
 898 0340 DB020000 		.4byte	0x2db
ARM GAS  /tmp/ccolIDMf.s 			page 31


 899 0344 0C       		.byte	0xc
 900 0345 08       		.uleb128 0x8
 901 0346 70617200 		.ascii	"par\000"
 902 034a 06       		.byte	0x6
 903 034b 4B01     		.2byte	0x14b
 904 034d F7020000 		.4byte	0x2f7
 905 0351 10       		.byte	0x10
 906 0352 00       		.byte	0
 907 0353 04       		.uleb128 0x4
 908 0354 86000000 		.4byte	.LASF58
 909 0358 05       		.byte	0x5
 910 0359 66       		.byte	0x66
 911 035a 5E030000 		.4byte	0x35e
 912 035e 0B       		.uleb128 0xb
 913 035f AF020000 		.4byte	.LASF59
 914 0363 10       		.byte	0x10
 915 0364 06       		.byte	0x6
 916 0365 5501     		.2byte	0x155
 917 0367 A0030000 		.4byte	0x3a0
 918 036b 09       		.uleb128 0x9
 919 036c A9000000 		.4byte	.LASF46
 920 0370 06       		.byte	0x6
 921 0371 5601     		.2byte	0x156
 922 0373 B2070000 		.4byte	0x7b2
 923 0377 00       		.byte	0
 924 0378 09       		.uleb128 0x9
 925 0379 33000000 		.4byte	.LASF49
 926 037d 06       		.byte	0x6
 927 037e 5801     		.2byte	0x158
 928 0380 B2070000 		.4byte	0x7b2
 929 0384 04       		.byte	0x4
 930 0385 09       		.uleb128 0x9
 931 0386 13000000 		.4byte	.LASF56
 932 038a 06       		.byte	0x6
 933 038b 5A01     		.2byte	0x15a
 934 038d 1B010000 		.4byte	0x11b
 935 0391 08       		.byte	0x8
 936 0392 09       		.uleb128 0x9
 937 0393 C5030000 		.4byte	.LASF60
 938 0397 06       		.byte	0x6
 939 0398 6201     		.2byte	0x162
 940 039a 1B010000 		.4byte	0x11b
 941 039e 0C       		.byte	0xc
 942 039f 00       		.byte	0
 943 03a0 04       		.uleb128 0x4
 944 03a1 44000000 		.4byte	.LASF61
 945 03a5 05       		.byte	0x5
 946 03a6 6B       		.byte	0x6b
 947 03a7 AB030000 		.4byte	0x3ab
 948 03ab 0B       		.uleb128 0xb
 949 03ac 8F030000 		.4byte	.LASF62
 950 03b0 04       		.byte	0x4
 951 03b1 06       		.byte	0x6
 952 03b2 7C01     		.2byte	0x17c
 953 03b4 C6030000 		.4byte	0x3c6
 954 03b8 09       		.uleb128 0x9
 955 03b9 5E040000 		.4byte	.LASF63
ARM GAS  /tmp/ccolIDMf.s 			page 32


 956 03bd 06       		.byte	0x6
 957 03be 8401     		.2byte	0x184
 958 03c0 B8070000 		.4byte	0x7b8
 959 03c4 00       		.byte	0
 960 03c5 00       		.byte	0
 961 03c6 04       		.uleb128 0x4
 962 03c7 32020000 		.4byte	.LASF64
 963 03cb 05       		.byte	0x5
 964 03cc 70       		.byte	0x70
 965 03cd D1030000 		.4byte	0x3d1
 966 03d1 0B       		.uleb128 0xb
 967 03d2 0F010000 		.4byte	.LASF65
 968 03d6 78       		.byte	0x78
 969 03d7 06       		.byte	0x6
 970 03d8 9C01     		.2byte	0x19c
 971 03da 1F040000 		.4byte	0x41f
 972 03de 09       		.uleb128 0x9
 973 03df E7000000 		.4byte	.LASF66
 974 03e3 06       		.byte	0x6
 975 03e4 A001     		.2byte	0x1a0
 976 03e6 74020000 		.4byte	0x274
 977 03ea 00       		.byte	0
 978 03eb 09       		.uleb128 0x9
 979 03ec ED000000 		.4byte	.LASF67
 980 03f0 06       		.byte	0x6
 981 03f1 A401     		.2byte	0x1a4
 982 03f3 53030000 		.4byte	0x353
 983 03f7 1C       		.byte	0x1c
 984 03f8 08       		.uleb128 0x8
 985 03f9 64626700 		.ascii	"dbg\000"
 986 03fd 06       		.byte	0x6
 987 03fe A801     		.2byte	0x1a8
 988 0400 A0030000 		.4byte	0x3a0
 989 0404 2C       		.byte	0x2c
 990 0405 09       		.uleb128 0x9
 991 0406 73000000 		.4byte	.LASF68
 992 040a 06       		.byte	0x6
 993 040b AC01     		.2byte	0x1ac
 994 040d 26010000 		.4byte	0x126
 995 0411 30       		.byte	0x30
 996 0412 08       		.uleb128 0x8
 997 0413 746D00   		.ascii	"tm\000"
 998 0416 06       		.byte	0x6
 999 0417 B101     		.2byte	0x1b1
 1000 0419 C4060000 		.4byte	0x6c4
 1001 041d 74       		.byte	0x74
 1002 041e 00       		.byte	0
 1003 041f 03       		.uleb128 0x3
 1004 0420 04       		.byte	0x4
 1005 0421 07       		.byte	0x7
 1006 0422 93020000 		.4byte	.LASF69
 1007 0426 0F       		.uleb128 0xf
 1008 0427 AD000000 		.4byte	0xad
 1009 042b 10       		.uleb128 0x10
 1010 042c AD000000 		.4byte	0xad
 1011 0430 3B040000 		.4byte	0x43b
 1012 0434 11       		.uleb128 0x11
ARM GAS  /tmp/ccolIDMf.s 			page 33


 1013 0435 1F040000 		.4byte	0x41f
 1014 0439 03       		.byte	0x3
 1015 043a 00       		.byte	0
 1016 043b 12       		.uleb128 0x12
 1017 043c 24       		.byte	0x24
 1018 043d 07       		.byte	0x7
 1019 043e 8A01     		.2byte	0x18a
 1020 0440 B7040000 		.4byte	0x4b7
 1021 0444 08       		.uleb128 0x8
 1022 0445 41435200 		.ascii	"ACR\000"
 1023 0449 07       		.byte	0x7
 1024 044a 8C01     		.2byte	0x18c
 1025 044c 26040000 		.4byte	0x426
 1026 0450 00       		.byte	0
 1027 0451 09       		.uleb128 0x9
 1028 0452 3F030000 		.4byte	.LASF70
 1029 0456 07       		.byte	0x7
 1030 0457 8D01     		.2byte	0x18d
 1031 0459 26040000 		.4byte	0x426
 1032 045d 04       		.byte	0x4
 1033 045e 09       		.uleb128 0x9
 1034 045f 39010000 		.4byte	.LASF71
 1035 0463 07       		.byte	0x7
 1036 0464 8E01     		.2byte	0x18e
 1037 0466 26040000 		.4byte	0x426
 1038 046a 08       		.byte	0x8
 1039 046b 08       		.uleb128 0x8
 1040 046c 535200   		.ascii	"SR\000"
 1041 046f 07       		.byte	0x7
 1042 0470 8F01     		.2byte	0x18f
 1043 0472 26040000 		.4byte	0x426
 1044 0476 0C       		.byte	0xc
 1045 0477 08       		.uleb128 0x8
 1046 0478 435200   		.ascii	"CR\000"
 1047 047b 07       		.byte	0x7
 1048 047c 9001     		.2byte	0x190
 1049 047e 26040000 		.4byte	0x426
 1050 0482 10       		.byte	0x10
 1051 0483 08       		.uleb128 0x8
 1052 0484 415200   		.ascii	"AR\000"
 1053 0487 07       		.byte	0x7
 1054 0488 9101     		.2byte	0x191
 1055 048a 26040000 		.4byte	0x426
 1056 048e 14       		.byte	0x14
 1057 048f 09       		.uleb128 0x9
 1058 0490 CE030000 		.4byte	.LASF72
 1059 0494 07       		.byte	0x7
 1060 0495 9201     		.2byte	0x192
 1061 0497 AD000000 		.4byte	0xad
 1062 049b 18       		.byte	0x18
 1063 049c 08       		.uleb128 0x8
 1064 049d 4F425200 		.ascii	"OBR\000"
 1065 04a1 07       		.byte	0x7
 1066 04a2 9301     		.2byte	0x193
 1067 04a4 26040000 		.4byte	0x426
 1068 04a8 1C       		.byte	0x1c
 1069 04a9 09       		.uleb128 0x9
ARM GAS  /tmp/ccolIDMf.s 			page 34


 1070 04aa 32040000 		.4byte	.LASF73
 1071 04ae 07       		.byte	0x7
 1072 04af 9401     		.2byte	0x194
 1073 04b1 26040000 		.4byte	0x426
 1074 04b5 20       		.byte	0x20
 1075 04b6 00       		.byte	0
 1076 04b7 13       		.uleb128 0x13
 1077 04b8 D9000000 		.4byte	.LASF74
 1078 04bc 07       		.byte	0x7
 1079 04bd 9601     		.2byte	0x196
 1080 04bf 3B040000 		.4byte	0x43b
 1081 04c3 12       		.uleb128 0x12
 1082 04c4 1C       		.byte	0x1c
 1083 04c5 07       		.byte	0x7
 1084 04c6 C601     		.2byte	0x1c6
 1085 04c8 01050000 		.4byte	0x501
 1086 04cc 09       		.uleb128 0x9
 1087 04cd B3040000 		.4byte	.LASF75
 1088 04d1 07       		.byte	0x7
 1089 04d2 C801     		.2byte	0x1c8
 1090 04d4 26040000 		.4byte	0x426
 1091 04d8 00       		.byte	0
 1092 04d9 08       		.uleb128 0x8
 1093 04da 52435200 		.ascii	"RCR\000"
 1094 04de 07       		.byte	0x7
 1095 04df C901     		.2byte	0x1c9
 1096 04e1 26040000 		.4byte	0x426
 1097 04e5 04       		.byte	0x4
 1098 04e6 09       		.uleb128 0x9
 1099 04e7 C7050000 		.4byte	.LASF76
 1100 04eb 07       		.byte	0x7
 1101 04ec CA01     		.2byte	0x1ca
 1102 04ee 01050000 		.4byte	0x501
 1103 04f2 08       		.byte	0x8
 1104 04f3 09       		.uleb128 0x9
 1105 04f4 B9040000 		.4byte	.LASF77
 1106 04f8 07       		.byte	0x7
 1107 04f9 CB01     		.2byte	0x1cb
 1108 04fb 26040000 		.4byte	0x426
 1109 04ff 18       		.byte	0x18
 1110 0500 00       		.byte	0
 1111 0501 0F       		.uleb128 0xf
 1112 0502 2B040000 		.4byte	0x42b
 1113 0506 13       		.uleb128 0x13
 1114 0507 28030000 		.4byte	.LASF78
 1115 050b 07       		.byte	0x7
 1116 050c CC01     		.2byte	0x1cc
 1117 050e C3040000 		.4byte	0x4c3
 1118 0512 12       		.uleb128 0x12
 1119 0513 08       		.byte	0x8
 1120 0514 07       		.byte	0x7
 1121 0515 F201     		.2byte	0x1f2
 1122 0517 35050000 		.4byte	0x535
 1123 051b 08       		.uleb128 0x8
 1124 051c 435200   		.ascii	"CR\000"
 1125 051f 07       		.byte	0x7
 1126 0520 F401     		.2byte	0x1f4
ARM GAS  /tmp/ccolIDMf.s 			page 35


 1127 0522 26040000 		.4byte	0x426
 1128 0526 00       		.byte	0
 1129 0527 08       		.uleb128 0x8
 1130 0528 43535200 		.ascii	"CSR\000"
 1131 052c 07       		.byte	0x7
 1132 052d F501     		.2byte	0x1f5
 1133 052f 26040000 		.4byte	0x426
 1134 0533 04       		.byte	0x4
 1135 0534 00       		.byte	0
 1136 0535 13       		.uleb128 0x13
 1137 0536 F4000000 		.4byte	.LASF79
 1138 053a 07       		.byte	0x7
 1139 053b F601     		.2byte	0x1f6
 1140 053d 12050000 		.4byte	0x512
 1141 0541 12       		.uleb128 0x12
 1142 0542 34       		.byte	0x34
 1143 0543 07       		.byte	0x7
 1144 0544 FB01     		.2byte	0x1fb
 1145 0546 F3050000 		.4byte	0x5f3
 1146 054a 08       		.uleb128 0x8
 1147 054b 435200   		.ascii	"CR\000"
 1148 054e 07       		.byte	0x7
 1149 054f FD01     		.2byte	0x1fd
 1150 0551 26040000 		.4byte	0x426
 1151 0555 00       		.byte	0
 1152 0556 09       		.uleb128 0x9
 1153 0557 BA050000 		.4byte	.LASF80
 1154 055b 07       		.byte	0x7
 1155 055c FE01     		.2byte	0x1fe
 1156 055e 26040000 		.4byte	0x426
 1157 0562 04       		.byte	0x4
 1158 0563 08       		.uleb128 0x8
 1159 0564 43495200 		.ascii	"CIR\000"
 1160 0568 07       		.byte	0x7
 1161 0569 FF01     		.2byte	0x1ff
 1162 056b 26040000 		.4byte	0x426
 1163 056f 08       		.byte	0x8
 1164 0570 09       		.uleb128 0x9
 1165 0571 22010000 		.4byte	.LASF81
 1166 0575 07       		.byte	0x7
 1167 0576 0002     		.2byte	0x200
 1168 0578 26040000 		.4byte	0x426
 1169 057c 0C       		.byte	0xc
 1170 057d 09       		.uleb128 0x9
 1171 057e 0C030000 		.4byte	.LASF82
 1172 0582 07       		.byte	0x7
 1173 0583 0102     		.2byte	0x201
 1174 0585 26040000 		.4byte	0x426
 1175 0589 10       		.byte	0x10
 1176 058a 09       		.uleb128 0x9
 1177 058b F9010000 		.4byte	.LASF83
 1178 058f 07       		.byte	0x7
 1179 0590 0202     		.2byte	0x202
 1180 0592 26040000 		.4byte	0x426
 1181 0596 14       		.byte	0x14
 1182 0597 09       		.uleb128 0x9
 1183 0598 DE030000 		.4byte	.LASF84
ARM GAS  /tmp/ccolIDMf.s 			page 36


 1184 059c 07       		.byte	0x7
 1185 059d 0302     		.2byte	0x203
 1186 059f 26040000 		.4byte	0x426
 1187 05a3 18       		.byte	0x18
 1188 05a4 09       		.uleb128 0x9
 1189 05a5 6F040000 		.4byte	.LASF85
 1190 05a9 07       		.byte	0x7
 1191 05aa 0402     		.2byte	0x204
 1192 05ac 26040000 		.4byte	0x426
 1193 05b0 1C       		.byte	0x1c
 1194 05b1 09       		.uleb128 0x9
 1195 05b2 AE040000 		.4byte	.LASF86
 1196 05b6 07       		.byte	0x7
 1197 05b7 0502     		.2byte	0x205
 1198 05b9 26040000 		.4byte	0x426
 1199 05bd 20       		.byte	0x20
 1200 05be 08       		.uleb128 0x8
 1201 05bf 43535200 		.ascii	"CSR\000"
 1202 05c3 07       		.byte	0x7
 1203 05c4 0602     		.2byte	0x206
 1204 05c6 26040000 		.4byte	0x426
 1205 05ca 24       		.byte	0x24
 1206 05cb 09       		.uleb128 0x9
 1207 05cc FF020000 		.4byte	.LASF87
 1208 05d0 07       		.byte	0x7
 1209 05d1 0702     		.2byte	0x207
 1210 05d3 26040000 		.4byte	0x426
 1211 05d7 28       		.byte	0x28
 1212 05d8 09       		.uleb128 0x9
 1213 05d9 B9040000 		.4byte	.LASF77
 1214 05dd 07       		.byte	0x7
 1215 05de 0802     		.2byte	0x208
 1216 05e0 26040000 		.4byte	0x426
 1217 05e4 2C       		.byte	0x2c
 1218 05e5 09       		.uleb128 0x9
 1219 05e6 BF040000 		.4byte	.LASF88
 1220 05ea 07       		.byte	0x7
 1221 05eb 0902     		.2byte	0x209
 1222 05ed 26040000 		.4byte	0x426
 1223 05f1 30       		.byte	0x30
 1224 05f2 00       		.byte	0
 1225 05f3 13       		.uleb128 0x13
 1226 05f4 BF010000 		.4byte	.LASF89
 1227 05f8 07       		.byte	0x7
 1228 05f9 0A02     		.2byte	0x20a
 1229 05fb 41050000 		.4byte	0x541
 1230 05ff 04       		.uleb128 0x4
 1231 0600 59010000 		.4byte	.LASF90
 1232 0604 08       		.byte	0x8
 1233 0605 65       		.byte	0x65
 1234 0606 F7020000 		.4byte	0x2f7
 1235 060a 04       		.uleb128 0x4
 1236 060b 6A020000 		.4byte	.LASF91
 1237 060f 08       		.byte	0x8
 1238 0610 6D       		.byte	0x6d
 1239 0611 B8000000 		.4byte	0xb8
 1240 0615 05       		.uleb128 0x5
ARM GAS  /tmp/ccolIDMf.s 			page 37


 1241 0616 E1020000 		.4byte	.LASF92
 1242 061a 04       		.byte	0x4
 1243 061b 08       		.byte	0x8
 1244 061c 89       		.byte	0x89
 1245 061d 2D060000 		.4byte	0x62d
 1246 0621 07       		.uleb128 0x7
 1247 0622 737000   		.ascii	"sp\000"
 1248 0625 08       		.byte	0x8
 1249 0626 8A       		.byte	0x8a
 1250 0627 A9060000 		.4byte	0x6a9
 1251 062b 00       		.byte	0
 1252 062c 00       		.byte	0
 1253 062d 0B       		.uleb128 0xb
 1254 062e 38000000 		.4byte	.LASF93
 1255 0632 24       		.byte	0x24
 1256 0633 09       		.byte	0x9
 1257 0634 5901     		.2byte	0x159
 1258 0636 A9060000 		.4byte	0x6a9
 1259 063a 08       		.uleb128 0x8
 1260 063b 723400   		.ascii	"r4\000"
 1261 063e 09       		.byte	0x9
 1262 063f 6C01     		.2byte	0x16c
 1263 0641 FF050000 		.4byte	0x5ff
 1264 0645 00       		.byte	0
 1265 0646 08       		.uleb128 0x8
 1266 0647 723500   		.ascii	"r5\000"
 1267 064a 09       		.byte	0x9
 1268 064b 6D01     		.2byte	0x16d
 1269 064d FF050000 		.4byte	0x5ff
 1270 0651 04       		.byte	0x4
 1271 0652 08       		.uleb128 0x8
 1272 0653 723600   		.ascii	"r6\000"
 1273 0656 09       		.byte	0x9
 1274 0657 6E01     		.2byte	0x16e
 1275 0659 FF050000 		.4byte	0x5ff
 1276 065d 08       		.byte	0x8
 1277 065e 08       		.uleb128 0x8
 1278 065f 723700   		.ascii	"r7\000"
 1279 0662 09       		.byte	0x9
 1280 0663 6F01     		.2byte	0x16f
 1281 0665 FF050000 		.4byte	0x5ff
 1282 0669 0C       		.byte	0xc
 1283 066a 08       		.uleb128 0x8
 1284 066b 723800   		.ascii	"r8\000"
 1285 066e 09       		.byte	0x9
 1286 066f 7001     		.2byte	0x170
 1287 0671 FF050000 		.4byte	0x5ff
 1288 0675 10       		.byte	0x10
 1289 0676 08       		.uleb128 0x8
 1290 0677 723900   		.ascii	"r9\000"
 1291 067a 09       		.byte	0x9
 1292 067b 7101     		.2byte	0x171
 1293 067d FF050000 		.4byte	0x5ff
 1294 0681 14       		.byte	0x14
 1295 0682 08       		.uleb128 0x8
 1296 0683 72313000 		.ascii	"r10\000"
 1297 0687 09       		.byte	0x9
ARM GAS  /tmp/ccolIDMf.s 			page 38


 1298 0688 7201     		.2byte	0x172
 1299 068a FF050000 		.4byte	0x5ff
 1300 068e 18       		.byte	0x18
 1301 068f 08       		.uleb128 0x8
 1302 0690 72313100 		.ascii	"r11\000"
 1303 0694 09       		.byte	0x9
 1304 0695 7301     		.2byte	0x173
 1305 0697 FF050000 		.4byte	0x5ff
 1306 069b 1C       		.byte	0x1c
 1307 069c 08       		.uleb128 0x8
 1308 069d 6C7200   		.ascii	"lr\000"
 1309 06a0 09       		.byte	0x9
 1310 06a1 7401     		.2byte	0x174
 1311 06a3 FF050000 		.4byte	0x5ff
 1312 06a7 20       		.byte	0x20
 1313 06a8 00       		.byte	0
 1314 06a9 0A       		.uleb128 0xa
 1315 06aa 04       		.byte	0x4
 1316 06ab 2D060000 		.4byte	0x62d
 1317 06af 14       		.uleb128 0x14
 1318 06b0 04       		.byte	0x4
 1319 06b1 0A       		.byte	0xa
 1320 06b2 38       		.byte	0x38
 1321 06b3 C4060000 		.4byte	0x6c4
 1322 06b7 06       		.uleb128 0x6
 1323 06b8 68040000 		.4byte	.LASF94
 1324 06bc 0A       		.byte	0xa
 1325 06bd 3C       		.byte	0x3c
 1326 06be C3000000 		.4byte	0xc3
 1327 06c2 00       		.byte	0
 1328 06c3 00       		.byte	0
 1329 06c4 04       		.uleb128 0x4
 1330 06c5 EE020000 		.4byte	.LASF95
 1331 06c9 0A       		.byte	0xa
 1332 06ca 3D       		.byte	0x3d
 1333 06cb AF060000 		.4byte	0x6af
 1334 06cf 15       		.uleb128 0x15
 1335 06d0 04       		.byte	0x4
 1336 06d1 06       		.byte	0x6
 1337 06d2 D2       		.byte	0xd2
 1338 06d3 32070000 		.4byte	0x732
 1339 06d7 16       		.uleb128 0x16
 1340 06d8 19000000 		.4byte	.LASF96
 1341 06dc 06       		.byte	0x6
 1342 06dd D9       		.byte	0xd9
 1343 06de FA000000 		.4byte	0xfa
 1344 06e2 16       		.uleb128 0x16
 1345 06e3 6A000000 		.4byte	.LASF97
 1346 06e7 06       		.byte	0x6
 1347 06e8 E0       		.byte	0xe0
 1348 06e9 FA000000 		.4byte	0xfa
 1349 06ed 16       		.uleb128 0x16
 1350 06ee B3050000 		.4byte	.LASF98
 1351 06f2 06       		.byte	0x6
 1352 06f3 E7       		.byte	0xe7
 1353 06f4 F7020000 		.4byte	0x2f7
 1354 06f8 16       		.uleb128 0x16
ARM GAS  /tmp/ccolIDMf.s 			page 39


 1355 06f9 0D000000 		.4byte	.LASF99
 1356 06fd 06       		.byte	0x6
 1357 06fe EE       		.byte	0xee
 1358 06ff 32070000 		.4byte	0x732
 1359 0703 16       		.uleb128 0x16
 1360 0704 7E000000 		.4byte	.LASF100
 1361 0708 06       		.byte	0x6
 1362 0709 F3       		.byte	0xf3
 1363 070a FA000000 		.4byte	0xfa
 1364 070e 16       		.uleb128 0x16
 1365 070f A6010000 		.4byte	.LASF101
 1366 0713 06       		.byte	0x6
 1367 0714 FC       		.byte	0xfc
 1368 0715 5D070000 		.4byte	0x75d
 1369 0719 17       		.uleb128 0x17
 1370 071a 0D040000 		.4byte	.LASF102
 1371 071e 06       		.byte	0x6
 1372 071f 0501     		.2byte	0x105
 1373 0721 94070000 		.4byte	0x794
 1374 0725 17       		.uleb128 0x17
 1375 0726 D7030000 		.4byte	.LASF103
 1376 072a 06       		.byte	0x6
 1377 072b 0D01     		.2byte	0x10d
 1378 072d 05010000 		.4byte	0x105
 1379 0731 00       		.byte	0
 1380 0732 0A       		.uleb128 0xa
 1381 0733 04       		.byte	0x4
 1382 0734 0F020000 		.4byte	0x20f
 1383 0738 05       		.uleb128 0x5
 1384 0739 F7030000 		.4byte	.LASF104
 1385 073d 0C       		.byte	0xc
 1386 073e 0B       		.byte	0xb
 1387 073f 34       		.byte	0x34
 1388 0740 5D070000 		.4byte	0x75d
 1389 0744 06       		.uleb128 0x6
 1390 0745 41010000 		.4byte	.LASF27
 1391 0749 0B       		.byte	0xb
 1392 074a 35       		.byte	0x35
 1393 074b 44020000 		.4byte	0x244
 1394 074f 00       		.byte	0
 1395 0750 07       		.uleb128 0x7
 1396 0751 636E7400 		.ascii	"cnt\000"
 1397 0755 0B       		.byte	0xb
 1398 0756 37       		.byte	0x37
 1399 0757 10010000 		.4byte	0x110
 1400 075b 08       		.byte	0x8
 1401 075c 00       		.byte	0
 1402 075d 0A       		.uleb128 0xa
 1403 075e 04       		.byte	0x4
 1404 075f 38070000 		.4byte	0x738
 1405 0763 05       		.uleb128 0x5
 1406 0764 77040000 		.4byte	.LASF105
 1407 0768 10       		.byte	0x10
 1408 0769 0C       		.byte	0xc
 1409 076a 39       		.byte	0x39
 1410 076b 94070000 		.4byte	0x794
 1411 076f 06       		.uleb128 0x6
ARM GAS  /tmp/ccolIDMf.s 			page 40


 1412 0770 41010000 		.4byte	.LASF27
 1413 0774 0C       		.byte	0xc
 1414 0775 3A       		.byte	0x3a
 1415 0776 44020000 		.4byte	0x244
 1416 077a 00       		.byte	0
 1417 077b 06       		.uleb128 0x6
 1418 077c 24040000 		.4byte	.LASF106
 1419 0780 0C       		.byte	0xc
 1420 0781 3C       		.byte	0x3c
 1421 0782 1A020000 		.4byte	0x21a
 1422 0786 08       		.byte	0x8
 1423 0787 06       		.uleb128 0x6
 1424 0788 A9000000 		.4byte	.LASF46
 1425 078c 0C       		.byte	0xc
 1426 078d 3E       		.byte	0x3e
 1427 078e C8070000 		.4byte	0x7c8
 1428 0792 0C       		.byte	0xc
 1429 0793 00       		.byte	0
 1430 0794 0A       		.uleb128 0xa
 1431 0795 04       		.byte	0x4
 1432 0796 63070000 		.4byte	0x763
 1433 079a 0A       		.uleb128 0xa
 1434 079b 04       		.byte	0x4
 1435 079c A0070000 		.4byte	0x7a0
 1436 07a0 18       		.uleb128 0x18
 1437 07a1 A5070000 		.4byte	0x7a5
 1438 07a5 03       		.uleb128 0x3
 1439 07a6 01       		.byte	0x1
 1440 07a7 08       		.byte	0x8
 1441 07a8 37040000 		.4byte	.LASF107
 1442 07ac 0A       		.uleb128 0xa
 1443 07ad 04       		.byte	0x4
 1444 07ae 0A060000 		.4byte	0x60a
 1445 07b2 0A       		.uleb128 0xa
 1446 07b3 04       		.byte	0x4
 1447 07b4 F9020000 		.4byte	0x2f9
 1448 07b8 0F       		.uleb128 0xf
 1449 07b9 9A070000 		.4byte	0x79a
 1450 07bd 04       		.uleb128 0x4
 1451 07be 7B010000 		.4byte	.LASF108
 1452 07c2 0C       		.byte	0xc
 1453 07c3 34       		.byte	0x34
 1454 07c4 63070000 		.4byte	0x763
 1455 07c8 0A       		.uleb128 0xa
 1456 07c9 04       		.byte	0x4
 1457 07ca BD070000 		.4byte	0x7bd
 1458 07ce 03       		.uleb128 0x3
 1459 07cf 01       		.byte	0x1
 1460 07d0 02       		.byte	0x2
 1461 07d1 9F030000 		.4byte	.LASF109
 1462 07d5 19       		.uleb128 0x19
 1463 07d6 C6020000 		.4byte	.LASF115
 1464 07da 01       		.byte	0x1
 1465 07db 36       		.byte	0x36
 1466 07dc 01       		.byte	0x1
 1467 07dd 1A       		.uleb128 0x1a
 1468 07de 80040000 		.4byte	.LASF116
ARM GAS  /tmp/ccolIDMf.s 			page 41


 1469 07e2 01       		.byte	0x1
 1470 07e3 69       		.byte	0x69
 1471 07e4 00000000 		.4byte	.LFB271
 1472 07e8 80000000 		.4byte	.LFE271-.LFB271
 1473 07ec 01       		.uleb128 0x1
 1474 07ed 9C       		.byte	0x9c
 1475 07ee 0B080000 		.4byte	0x80b
 1476 07f2 1B       		.uleb128 0x1b
 1477 07f3 D5070000 		.4byte	0x7d5
 1478 07f7 02000000 		.4byte	.LBB4
 1479 07fb 00000000 		.4byte	.Ldebug_ranges0+0
 1480 07ff 01       		.byte	0x1
 1481 0800 74       		.byte	0x74
 1482 0801 1C       		.uleb128 0x1c
 1483 0802 5E000000 		.4byte	.LVL0
 1484 0806 49080000 		.4byte	0x849
 1485 080a 00       		.byte	0
 1486 080b 1D       		.uleb128 0x1d
 1487 080c 6A010000 		.4byte	.LASF117
 1488 0810 01       		.byte	0x1
 1489 0811 90       		.byte	0x90
 1490 0812 00000000 		.4byte	.LFB272
 1491 0816 A0000000 		.4byte	.LFE272-.LFB272
 1492 081a 01       		.uleb128 0x1
 1493 081b 9C       		.byte	0x9c
 1494 081c 1E       		.uleb128 0x1e
 1495 081d 9C000000 		.4byte	.LASF110
 1496 0821 0D       		.byte	0xd
 1497 0822 4407     		.2byte	0x744
 1498 0824 28080000 		.4byte	0x828
 1499 0828 0F       		.uleb128 0xf
 1500 0829 A2000000 		.4byte	0xa2
 1501 082d 1F       		.uleb128 0x1f
 1502 082e 96010000 		.4byte	.LASF111
 1503 0832 01       		.byte	0x1
 1504 0833 27       		.byte	0x27
 1505 0834 AD000000 		.4byte	0xad
 1506 0838 05       		.uleb128 0x5
 1507 0839 03       		.byte	0x3
 1508 083a 00000000 		.4byte	SystemCoreClock
 1509 083e 20       		.uleb128 0x20
 1510 083f 636800   		.ascii	"ch\000"
 1511 0842 06       		.byte	0x6
 1512 0843 D201     		.2byte	0x1d2
 1513 0845 C6030000 		.4byte	0x3c6
 1514 0849 21       		.uleb128 0x21
 1515 084a 2A040000 		.4byte	.LASF118
 1516 084e 0E       		.byte	0xe
 1517 084f D401     		.2byte	0x1d4
 1518 0851 00       		.byte	0
 1519              		.section	.debug_abbrev,"",%progbits
 1520              	.Ldebug_abbrev0:
 1521 0000 01       		.uleb128 0x1
 1522 0001 11       		.uleb128 0x11
 1523 0002 01       		.byte	0x1
 1524 0003 25       		.uleb128 0x25
 1525 0004 0E       		.uleb128 0xe
ARM GAS  /tmp/ccolIDMf.s 			page 42


 1526 0005 13       		.uleb128 0x13
 1527 0006 0B       		.uleb128 0xb
 1528 0007 03       		.uleb128 0x3
 1529 0008 0E       		.uleb128 0xe
 1530 0009 1B       		.uleb128 0x1b
 1531 000a 0E       		.uleb128 0xe
 1532 000b 55       		.uleb128 0x55
 1533 000c 17       		.uleb128 0x17
 1534 000d 11       		.uleb128 0x11
 1535 000e 01       		.uleb128 0x1
 1536 000f 10       		.uleb128 0x10
 1537 0010 17       		.uleb128 0x17
 1538 0011 00       		.byte	0
 1539 0012 00       		.byte	0
 1540 0013 02       		.uleb128 0x2
 1541 0014 24       		.uleb128 0x24
 1542 0015 00       		.byte	0
 1543 0016 0B       		.uleb128 0xb
 1544 0017 0B       		.uleb128 0xb
 1545 0018 3E       		.uleb128 0x3e
 1546 0019 0B       		.uleb128 0xb
 1547 001a 03       		.uleb128 0x3
 1548 001b 08       		.uleb128 0x8
 1549 001c 00       		.byte	0
 1550 001d 00       		.byte	0
 1551 001e 03       		.uleb128 0x3
 1552 001f 24       		.uleb128 0x24
 1553 0020 00       		.byte	0
 1554 0021 0B       		.uleb128 0xb
 1555 0022 0B       		.uleb128 0xb
 1556 0023 3E       		.uleb128 0x3e
 1557 0024 0B       		.uleb128 0xb
 1558 0025 03       		.uleb128 0x3
 1559 0026 0E       		.uleb128 0xe
 1560 0027 00       		.byte	0
 1561 0028 00       		.byte	0
 1562 0029 04       		.uleb128 0x4
 1563 002a 16       		.uleb128 0x16
 1564 002b 00       		.byte	0
 1565 002c 03       		.uleb128 0x3
 1566 002d 0E       		.uleb128 0xe
 1567 002e 3A       		.uleb128 0x3a
 1568 002f 0B       		.uleb128 0xb
 1569 0030 3B       		.uleb128 0x3b
 1570 0031 0B       		.uleb128 0xb
 1571 0032 49       		.uleb128 0x49
 1572 0033 13       		.uleb128 0x13
 1573 0034 00       		.byte	0
 1574 0035 00       		.byte	0
 1575 0036 05       		.uleb128 0x5
 1576 0037 13       		.uleb128 0x13
 1577 0038 01       		.byte	0x1
 1578 0039 03       		.uleb128 0x3
 1579 003a 0E       		.uleb128 0xe
 1580 003b 0B       		.uleb128 0xb
 1581 003c 0B       		.uleb128 0xb
 1582 003d 3A       		.uleb128 0x3a
ARM GAS  /tmp/ccolIDMf.s 			page 43


 1583 003e 0B       		.uleb128 0xb
 1584 003f 3B       		.uleb128 0x3b
 1585 0040 0B       		.uleb128 0xb
 1586 0041 01       		.uleb128 0x1
 1587 0042 13       		.uleb128 0x13
 1588 0043 00       		.byte	0
 1589 0044 00       		.byte	0
 1590 0045 06       		.uleb128 0x6
 1591 0046 0D       		.uleb128 0xd
 1592 0047 00       		.byte	0
 1593 0048 03       		.uleb128 0x3
 1594 0049 0E       		.uleb128 0xe
 1595 004a 3A       		.uleb128 0x3a
 1596 004b 0B       		.uleb128 0xb
 1597 004c 3B       		.uleb128 0x3b
 1598 004d 0B       		.uleb128 0xb
 1599 004e 49       		.uleb128 0x49
 1600 004f 13       		.uleb128 0x13
 1601 0050 38       		.uleb128 0x38
 1602 0051 0B       		.uleb128 0xb
 1603 0052 00       		.byte	0
 1604 0053 00       		.byte	0
 1605 0054 07       		.uleb128 0x7
 1606 0055 0D       		.uleb128 0xd
 1607 0056 00       		.byte	0
 1608 0057 03       		.uleb128 0x3
 1609 0058 08       		.uleb128 0x8
 1610 0059 3A       		.uleb128 0x3a
 1611 005a 0B       		.uleb128 0xb
 1612 005b 3B       		.uleb128 0x3b
 1613 005c 0B       		.uleb128 0xb
 1614 005d 49       		.uleb128 0x49
 1615 005e 13       		.uleb128 0x13
 1616 005f 38       		.uleb128 0x38
 1617 0060 0B       		.uleb128 0xb
 1618 0061 00       		.byte	0
 1619 0062 00       		.byte	0
 1620 0063 08       		.uleb128 0x8
 1621 0064 0D       		.uleb128 0xd
 1622 0065 00       		.byte	0
 1623 0066 03       		.uleb128 0x3
 1624 0067 08       		.uleb128 0x8
 1625 0068 3A       		.uleb128 0x3a
 1626 0069 0B       		.uleb128 0xb
 1627 006a 3B       		.uleb128 0x3b
 1628 006b 05       		.uleb128 0x5
 1629 006c 49       		.uleb128 0x49
 1630 006d 13       		.uleb128 0x13
 1631 006e 38       		.uleb128 0x38
 1632 006f 0B       		.uleb128 0xb
 1633 0070 00       		.byte	0
 1634 0071 00       		.byte	0
 1635 0072 09       		.uleb128 0x9
 1636 0073 0D       		.uleb128 0xd
 1637 0074 00       		.byte	0
 1638 0075 03       		.uleb128 0x3
 1639 0076 0E       		.uleb128 0xe
ARM GAS  /tmp/ccolIDMf.s 			page 44


 1640 0077 3A       		.uleb128 0x3a
 1641 0078 0B       		.uleb128 0xb
 1642 0079 3B       		.uleb128 0x3b
 1643 007a 05       		.uleb128 0x5
 1644 007b 49       		.uleb128 0x49
 1645 007c 13       		.uleb128 0x13
 1646 007d 38       		.uleb128 0x38
 1647 007e 0B       		.uleb128 0xb
 1648 007f 00       		.byte	0
 1649 0080 00       		.byte	0
 1650 0081 0A       		.uleb128 0xa
 1651 0082 0F       		.uleb128 0xf
 1652 0083 00       		.byte	0
 1653 0084 0B       		.uleb128 0xb
 1654 0085 0B       		.uleb128 0xb
 1655 0086 49       		.uleb128 0x49
 1656 0087 13       		.uleb128 0x13
 1657 0088 00       		.byte	0
 1658 0089 00       		.byte	0
 1659 008a 0B       		.uleb128 0xb
 1660 008b 13       		.uleb128 0x13
 1661 008c 01       		.byte	0x1
 1662 008d 03       		.uleb128 0x3
 1663 008e 0E       		.uleb128 0xe
 1664 008f 0B       		.uleb128 0xb
 1665 0090 0B       		.uleb128 0xb
 1666 0091 3A       		.uleb128 0x3a
 1667 0092 0B       		.uleb128 0xb
 1668 0093 3B       		.uleb128 0x3b
 1669 0094 05       		.uleb128 0x5
 1670 0095 01       		.uleb128 0x1
 1671 0096 13       		.uleb128 0x13
 1672 0097 00       		.byte	0
 1673 0098 00       		.byte	0
 1674 0099 0C       		.uleb128 0xc
 1675 009a 15       		.uleb128 0x15
 1676 009b 01       		.byte	0x1
 1677 009c 27       		.uleb128 0x27
 1678 009d 19       		.uleb128 0x19
 1679 009e 01       		.uleb128 0x1
 1680 009f 13       		.uleb128 0x13
 1681 00a0 00       		.byte	0
 1682 00a1 00       		.byte	0
 1683 00a2 0D       		.uleb128 0xd
 1684 00a3 05       		.uleb128 0x5
 1685 00a4 00       		.byte	0
 1686 00a5 49       		.uleb128 0x49
 1687 00a6 13       		.uleb128 0x13
 1688 00a7 00       		.byte	0
 1689 00a8 00       		.byte	0
 1690 00a9 0E       		.uleb128 0xe
 1691 00aa 0F       		.uleb128 0xf
 1692 00ab 00       		.byte	0
 1693 00ac 0B       		.uleb128 0xb
 1694 00ad 0B       		.uleb128 0xb
 1695 00ae 00       		.byte	0
 1696 00af 00       		.byte	0
ARM GAS  /tmp/ccolIDMf.s 			page 45


 1697 00b0 0F       		.uleb128 0xf
 1698 00b1 35       		.uleb128 0x35
 1699 00b2 00       		.byte	0
 1700 00b3 49       		.uleb128 0x49
 1701 00b4 13       		.uleb128 0x13
 1702 00b5 00       		.byte	0
 1703 00b6 00       		.byte	0
 1704 00b7 10       		.uleb128 0x10
 1705 00b8 01       		.uleb128 0x1
 1706 00b9 01       		.byte	0x1
 1707 00ba 49       		.uleb128 0x49
 1708 00bb 13       		.uleb128 0x13
 1709 00bc 01       		.uleb128 0x1
 1710 00bd 13       		.uleb128 0x13
 1711 00be 00       		.byte	0
 1712 00bf 00       		.byte	0
 1713 00c0 11       		.uleb128 0x11
 1714 00c1 21       		.uleb128 0x21
 1715 00c2 00       		.byte	0
 1716 00c3 49       		.uleb128 0x49
 1717 00c4 13       		.uleb128 0x13
 1718 00c5 2F       		.uleb128 0x2f
 1719 00c6 0B       		.uleb128 0xb
 1720 00c7 00       		.byte	0
 1721 00c8 00       		.byte	0
 1722 00c9 12       		.uleb128 0x12
 1723 00ca 13       		.uleb128 0x13
 1724 00cb 01       		.byte	0x1
 1725 00cc 0B       		.uleb128 0xb
 1726 00cd 0B       		.uleb128 0xb
 1727 00ce 3A       		.uleb128 0x3a
 1728 00cf 0B       		.uleb128 0xb
 1729 00d0 3B       		.uleb128 0x3b
 1730 00d1 05       		.uleb128 0x5
 1731 00d2 01       		.uleb128 0x1
 1732 00d3 13       		.uleb128 0x13
 1733 00d4 00       		.byte	0
 1734 00d5 00       		.byte	0
 1735 00d6 13       		.uleb128 0x13
 1736 00d7 16       		.uleb128 0x16
 1737 00d8 00       		.byte	0
 1738 00d9 03       		.uleb128 0x3
 1739 00da 0E       		.uleb128 0xe
 1740 00db 3A       		.uleb128 0x3a
 1741 00dc 0B       		.uleb128 0xb
 1742 00dd 3B       		.uleb128 0x3b
 1743 00de 05       		.uleb128 0x5
 1744 00df 49       		.uleb128 0x49
 1745 00e0 13       		.uleb128 0x13
 1746 00e1 00       		.byte	0
 1747 00e2 00       		.byte	0
 1748 00e3 14       		.uleb128 0x14
 1749 00e4 13       		.uleb128 0x13
 1750 00e5 01       		.byte	0x1
 1751 00e6 0B       		.uleb128 0xb
 1752 00e7 0B       		.uleb128 0xb
 1753 00e8 3A       		.uleb128 0x3a
ARM GAS  /tmp/ccolIDMf.s 			page 46


 1754 00e9 0B       		.uleb128 0xb
 1755 00ea 3B       		.uleb128 0x3b
 1756 00eb 0B       		.uleb128 0xb
 1757 00ec 01       		.uleb128 0x1
 1758 00ed 13       		.uleb128 0x13
 1759 00ee 00       		.byte	0
 1760 00ef 00       		.byte	0
 1761 00f0 15       		.uleb128 0x15
 1762 00f1 17       		.uleb128 0x17
 1763 00f2 01       		.byte	0x1
 1764 00f3 0B       		.uleb128 0xb
 1765 00f4 0B       		.uleb128 0xb
 1766 00f5 3A       		.uleb128 0x3a
 1767 00f6 0B       		.uleb128 0xb
 1768 00f7 3B       		.uleb128 0x3b
 1769 00f8 0B       		.uleb128 0xb
 1770 00f9 01       		.uleb128 0x1
 1771 00fa 13       		.uleb128 0x13
 1772 00fb 00       		.byte	0
 1773 00fc 00       		.byte	0
 1774 00fd 16       		.uleb128 0x16
 1775 00fe 0D       		.uleb128 0xd
 1776 00ff 00       		.byte	0
 1777 0100 03       		.uleb128 0x3
 1778 0101 0E       		.uleb128 0xe
 1779 0102 3A       		.uleb128 0x3a
 1780 0103 0B       		.uleb128 0xb
 1781 0104 3B       		.uleb128 0x3b
 1782 0105 0B       		.uleb128 0xb
 1783 0106 49       		.uleb128 0x49
 1784 0107 13       		.uleb128 0x13
 1785 0108 00       		.byte	0
 1786 0109 00       		.byte	0
 1787 010a 17       		.uleb128 0x17
 1788 010b 0D       		.uleb128 0xd
 1789 010c 00       		.byte	0
 1790 010d 03       		.uleb128 0x3
 1791 010e 0E       		.uleb128 0xe
 1792 010f 3A       		.uleb128 0x3a
 1793 0110 0B       		.uleb128 0xb
 1794 0111 3B       		.uleb128 0x3b
 1795 0112 05       		.uleb128 0x5
 1796 0113 49       		.uleb128 0x49
 1797 0114 13       		.uleb128 0x13
 1798 0115 00       		.byte	0
 1799 0116 00       		.byte	0
 1800 0117 18       		.uleb128 0x18
 1801 0118 26       		.uleb128 0x26
 1802 0119 00       		.byte	0
 1803 011a 49       		.uleb128 0x49
 1804 011b 13       		.uleb128 0x13
 1805 011c 00       		.byte	0
 1806 011d 00       		.byte	0
 1807 011e 19       		.uleb128 0x19
 1808 011f 2E       		.uleb128 0x2e
 1809 0120 00       		.byte	0
 1810 0121 03       		.uleb128 0x3
ARM GAS  /tmp/ccolIDMf.s 			page 47


 1811 0122 0E       		.uleb128 0xe
 1812 0123 3A       		.uleb128 0x3a
 1813 0124 0B       		.uleb128 0xb
 1814 0125 3B       		.uleb128 0x3b
 1815 0126 0B       		.uleb128 0xb
 1816 0127 27       		.uleb128 0x27
 1817 0128 19       		.uleb128 0x19
 1818 0129 20       		.uleb128 0x20
 1819 012a 0B       		.uleb128 0xb
 1820 012b 00       		.byte	0
 1821 012c 00       		.byte	0
 1822 012d 1A       		.uleb128 0x1a
 1823 012e 2E       		.uleb128 0x2e
 1824 012f 01       		.byte	0x1
 1825 0130 3F       		.uleb128 0x3f
 1826 0131 19       		.uleb128 0x19
 1827 0132 03       		.uleb128 0x3
 1828 0133 0E       		.uleb128 0xe
 1829 0134 3A       		.uleb128 0x3a
 1830 0135 0B       		.uleb128 0xb
 1831 0136 3B       		.uleb128 0x3b
 1832 0137 0B       		.uleb128 0xb
 1833 0138 27       		.uleb128 0x27
 1834 0139 19       		.uleb128 0x19
 1835 013a 11       		.uleb128 0x11
 1836 013b 01       		.uleb128 0x1
 1837 013c 12       		.uleb128 0x12
 1838 013d 06       		.uleb128 0x6
 1839 013e 40       		.uleb128 0x40
 1840 013f 18       		.uleb128 0x18
 1841 0140 9742     		.uleb128 0x2117
 1842 0142 19       		.uleb128 0x19
 1843 0143 01       		.uleb128 0x1
 1844 0144 13       		.uleb128 0x13
 1845 0145 00       		.byte	0
 1846 0146 00       		.byte	0
 1847 0147 1B       		.uleb128 0x1b
 1848 0148 1D       		.uleb128 0x1d
 1849 0149 00       		.byte	0
 1850 014a 31       		.uleb128 0x31
 1851 014b 13       		.uleb128 0x13
 1852 014c 52       		.uleb128 0x52
 1853 014d 01       		.uleb128 0x1
 1854 014e 55       		.uleb128 0x55
 1855 014f 17       		.uleb128 0x17
 1856 0150 58       		.uleb128 0x58
 1857 0151 0B       		.uleb128 0xb
 1858 0152 59       		.uleb128 0x59
 1859 0153 0B       		.uleb128 0xb
 1860 0154 00       		.byte	0
 1861 0155 00       		.byte	0
 1862 0156 1C       		.uleb128 0x1c
 1863 0157 898201   		.uleb128 0x4109
 1864 015a 00       		.byte	0
 1865 015b 11       		.uleb128 0x11
 1866 015c 01       		.uleb128 0x1
 1867 015d 31       		.uleb128 0x31
ARM GAS  /tmp/ccolIDMf.s 			page 48


 1868 015e 13       		.uleb128 0x13
 1869 015f 00       		.byte	0
 1870 0160 00       		.byte	0
 1871 0161 1D       		.uleb128 0x1d
 1872 0162 2E       		.uleb128 0x2e
 1873 0163 00       		.byte	0
 1874 0164 3F       		.uleb128 0x3f
 1875 0165 19       		.uleb128 0x19
 1876 0166 03       		.uleb128 0x3
 1877 0167 0E       		.uleb128 0xe
 1878 0168 3A       		.uleb128 0x3a
 1879 0169 0B       		.uleb128 0xb
 1880 016a 3B       		.uleb128 0x3b
 1881 016b 0B       		.uleb128 0xb
 1882 016c 27       		.uleb128 0x27
 1883 016d 19       		.uleb128 0x19
 1884 016e 11       		.uleb128 0x11
 1885 016f 01       		.uleb128 0x1
 1886 0170 12       		.uleb128 0x12
 1887 0171 06       		.uleb128 0x6
 1888 0172 40       		.uleb128 0x40
 1889 0173 18       		.uleb128 0x18
 1890 0174 9742     		.uleb128 0x2117
 1891 0176 19       		.uleb128 0x19
 1892 0177 00       		.byte	0
 1893 0178 00       		.byte	0
 1894 0179 1E       		.uleb128 0x1e
 1895 017a 34       		.uleb128 0x34
 1896 017b 00       		.byte	0
 1897 017c 03       		.uleb128 0x3
 1898 017d 0E       		.uleb128 0xe
 1899 017e 3A       		.uleb128 0x3a
 1900 017f 0B       		.uleb128 0xb
 1901 0180 3B       		.uleb128 0x3b
 1902 0181 05       		.uleb128 0x5
 1903 0182 49       		.uleb128 0x49
 1904 0183 13       		.uleb128 0x13
 1905 0184 3F       		.uleb128 0x3f
 1906 0185 19       		.uleb128 0x19
 1907 0186 3C       		.uleb128 0x3c
 1908 0187 19       		.uleb128 0x19
 1909 0188 00       		.byte	0
 1910 0189 00       		.byte	0
 1911 018a 1F       		.uleb128 0x1f
 1912 018b 34       		.uleb128 0x34
 1913 018c 00       		.byte	0
 1914 018d 03       		.uleb128 0x3
 1915 018e 0E       		.uleb128 0xe
 1916 018f 3A       		.uleb128 0x3a
 1917 0190 0B       		.uleb128 0xb
 1918 0191 3B       		.uleb128 0x3b
 1919 0192 0B       		.uleb128 0xb
 1920 0193 49       		.uleb128 0x49
 1921 0194 13       		.uleb128 0x13
 1922 0195 3F       		.uleb128 0x3f
 1923 0196 19       		.uleb128 0x19
 1924 0197 02       		.uleb128 0x2
ARM GAS  /tmp/ccolIDMf.s 			page 49


 1925 0198 18       		.uleb128 0x18
 1926 0199 00       		.byte	0
 1927 019a 00       		.byte	0
 1928 019b 20       		.uleb128 0x20
 1929 019c 34       		.uleb128 0x34
 1930 019d 00       		.byte	0
 1931 019e 03       		.uleb128 0x3
 1932 019f 08       		.uleb128 0x8
 1933 01a0 3A       		.uleb128 0x3a
 1934 01a1 0B       		.uleb128 0xb
 1935 01a2 3B       		.uleb128 0x3b
 1936 01a3 05       		.uleb128 0x5
 1937 01a4 49       		.uleb128 0x49
 1938 01a5 13       		.uleb128 0x13
 1939 01a6 3F       		.uleb128 0x3f
 1940 01a7 19       		.uleb128 0x19
 1941 01a8 3C       		.uleb128 0x3c
 1942 01a9 19       		.uleb128 0x19
 1943 01aa 00       		.byte	0
 1944 01ab 00       		.byte	0
 1945 01ac 21       		.uleb128 0x21
 1946 01ad 2E       		.uleb128 0x2e
 1947 01ae 00       		.byte	0
 1948 01af 3F       		.uleb128 0x3f
 1949 01b0 19       		.uleb128 0x19
 1950 01b1 03       		.uleb128 0x3
 1951 01b2 0E       		.uleb128 0xe
 1952 01b3 3A       		.uleb128 0x3a
 1953 01b4 0B       		.uleb128 0xb
 1954 01b5 3B       		.uleb128 0x3b
 1955 01b6 05       		.uleb128 0x5
 1956 01b7 27       		.uleb128 0x27
 1957 01b8 19       		.uleb128 0x19
 1958 01b9 3C       		.uleb128 0x3c
 1959 01ba 19       		.uleb128 0x19
 1960 01bb 00       		.byte	0
 1961 01bc 00       		.byte	0
 1962 01bd 00       		.byte	0
 1963              		.section	.debug_aranges,"",%progbits
 1964 0000 24000000 		.4byte	0x24
 1965 0004 0200     		.2byte	0x2
 1966 0006 00000000 		.4byte	.Ldebug_info0
 1967 000a 04       		.byte	0x4
 1968 000b 00       		.byte	0
 1969 000c 0000     		.2byte	0
 1970 000e 0000     		.2byte	0
 1971 0010 00000000 		.4byte	.LFB271
 1972 0014 80000000 		.4byte	.LFE271-.LFB271
 1973 0018 00000000 		.4byte	.LFB272
 1974 001c A0000000 		.4byte	.LFE272-.LFB272
 1975 0020 00000000 		.4byte	0
 1976 0024 00000000 		.4byte	0
 1977              		.section	.debug_ranges,"",%progbits
 1978              	.Ldebug_ranges0:
 1979 0000 02000000 		.4byte	.LBB4
 1980 0004 04000000 		.4byte	.LBE4
 1981 0008 26000000 		.4byte	.LBB7
ARM GAS  /tmp/ccolIDMf.s 			page 50


 1982 000c 5A000000 		.4byte	.LBE7
 1983 0010 00000000 		.4byte	0
 1984 0014 00000000 		.4byte	0
 1985 0018 00000000 		.4byte	.LFB271
 1986 001c 80000000 		.4byte	.LFE271
 1987 0020 00000000 		.4byte	.LFB272
 1988 0024 A0000000 		.4byte	.LFE272
 1989 0028 00000000 		.4byte	0
 1990 002c 00000000 		.4byte	0
 1991              		.section	.debug_line,"",%progbits
 1992              	.Ldebug_line0:
 1993 0000 34030000 		.section	.debug_str,"MS",%progbits,1
 1993      0200BD02 
 1993      00000201 
 1993      FB0E0D00 
 1993      01010101 
 1994              	.LASF50:
 1995 0000 72656164 		.ascii	"ready_list_t\000"
 1995      795F6C69 
 1995      73745F74 
 1995      00
 1996              	.LASF99:
 1997 000d 77747472 		.ascii	"wttrp\000"
 1997      7000
 1998              	.LASF56:
 1999 0013 64656C74 		.ascii	"delta\000"
 1999      6100
 2000              	.LASF96:
 2001 0019 7264796D 		.ascii	"rdymsg\000"
 2001      736700
 2002              	.LASF16:
 2003 0020 75696E74 		.ascii	"uint64_t\000"
 2003      36345F74 
 2003      00
 2004              	.LASF5:
 2005 0029 5F5F7569 		.ascii	"__uint8_t\000"
 2005      6E74385F 
 2005      7400
 2006              	.LASF49:
 2007 0033 70726576 		.ascii	"prev\000"
 2007      00
 2008              	.LASF93:
 2009 0038 706F7274 		.ascii	"port_intctx\000"
 2009      5F696E74 
 2009      63747800 
 2010              	.LASF61:
 2011 0044 73797374 		.ascii	"system_debug_t\000"
 2011      656D5F64 
 2011      65627567 
 2011      5F7400
 2012              	.LASF12:
 2013 0053 6C6F6E67 		.ascii	"long long unsigned int\000"
 2013      206C6F6E 
 2013      6720756E 
 2013      7369676E 
 2013      65642069 
 2014              	.LASF97:
ARM GAS  /tmp/ccolIDMf.s 			page 51


 2015 006a 65786974 		.ascii	"exitcode\000"
 2015      636F6465 
 2015      00
 2016              	.LASF68:
 2017 0073 6D61696E 		.ascii	"mainthread\000"
 2017      74687265 
 2017      616400
 2018              	.LASF100:
 2019 007e 73656E74 		.ascii	"sentmsg\000"
 2019      6D736700 
 2020              	.LASF58:
 2021 0086 76697274 		.ascii	"virtual_timers_list_t\000"
 2021      75616C5F 
 2021      74696D65 
 2021      72735F6C 
 2021      6973745F 
 2022              	.LASF110:
 2023 009c 49544D5F 		.ascii	"ITM_RxBuffer\000"
 2023      52784275 
 2023      66666572 
 2023      00
 2024              	.LASF46:
 2025 00a9 6E657874 		.ascii	"next\000"
 2025      00
 2026              	.LASF48:
 2027 00ae 63685F74 		.ascii	"ch_threads_queue\000"
 2027      68726561 
 2027      64735F71 
 2027      75657565 
 2027      00
 2028              	.LASF10:
 2029 00bf 6C6F6E67 		.ascii	"long long int\000"
 2029      206C6F6E 
 2029      6720696E 
 2029      7400
 2030              	.LASF1:
 2031 00cd 7369676E 		.ascii	"signed char\000"
 2031      65642063 
 2031      68617200 
 2032              	.LASF74:
 2033 00d9 464C4153 		.ascii	"FLASH_TypeDef\000"
 2033      485F5479 
 2033      70654465 
 2033      6600
 2034              	.LASF66:
 2035 00e7 726C6973 		.ascii	"rlist\000"
 2035      7400
 2036              	.LASF67:
 2037 00ed 76746C69 		.ascii	"vtlist\000"
 2037      737400
 2038              	.LASF79:
 2039 00f4 5057525F 		.ascii	"PWR_TypeDef\000"
 2039      54797065 
 2039      44656600 
 2040              	.LASF37:
 2041 0100 6D736771 		.ascii	"msgqueue\000"
 2041      75657565 
ARM GAS  /tmp/ccolIDMf.s 			page 52


 2041      00
 2042              	.LASF33:
 2043 0109 73746174 		.ascii	"state\000"
 2043      6500
 2044              	.LASF65:
 2045 010f 63685F73 		.ascii	"ch_system\000"
 2045      79737465 
 2045      6D00
 2046              	.LASF7:
 2047 0119 6C6F6E67 		.ascii	"long int\000"
 2047      20696E74 
 2047      00
 2048              	.LASF81:
 2049 0122 41504232 		.ascii	"APB2RSTR\000"
 2049      52535452 
 2049      00
 2050              	.LASF19:
 2051 012b 74737461 		.ascii	"tstate_t\000"
 2051      74655F74 
 2051      00
 2052              	.LASF57:
 2053 0134 66756E63 		.ascii	"func\000"
 2053      00
 2054              	.LASF71:
 2055 0139 4F50544B 		.ascii	"OPTKEYR\000"
 2055      45595200 
 2056              	.LASF27:
 2057 0141 71756575 		.ascii	"queue\000"
 2057      6500
 2058              	.LASF32:
 2059 0147 77616261 		.ascii	"wabase\000"
 2059      736500
 2060              	.LASF8:
 2061 014e 5F5F7569 		.ascii	"__uint32_t\000"
 2061      6E743332 
 2061      5F7400
 2062              	.LASF90:
 2063 0159 72656761 		.ascii	"regarm_t\000"
 2063      726D5F74 
 2063      00
 2064              	.LASF36:
 2065 0162 77616974 		.ascii	"waiting\000"
 2065      696E6700 
 2066              	.LASF117:
 2067 016a 73746D33 		.ascii	"stm32_clock_init\000"
 2067      325F636C 
 2067      6F636B5F 
 2067      696E6974 
 2067      00
 2068              	.LASF108:
 2069 017b 6D757465 		.ascii	"mutex_t\000"
 2069      785F7400 
 2070              	.LASF24:
 2071 0183 636E745F 		.ascii	"cnt_t\000"
 2071      7400
 2072              	.LASF0:
 2073 0189 756E7369 		.ascii	"unsigned int\000"
ARM GAS  /tmp/ccolIDMf.s 			page 53


 2073      676E6564 
 2073      20696E74 
 2073      00
 2074              	.LASF111:
 2075 0196 53797374 		.ascii	"SystemCoreClock\000"
 2075      656D436F 
 2075      7265436C 
 2075      6F636B00 
 2076              	.LASF101:
 2077 01a6 77747365 		.ascii	"wtsemp\000"
 2077      6D7000
 2078              	.LASF9:
 2079 01ad 6C6F6E67 		.ascii	"long unsigned int\000"
 2079      20756E73 
 2079      69676E65 
 2079      6420696E 
 2079      7400
 2080              	.LASF89:
 2081 01bf 5243435F 		.ascii	"RCC_TypeDef\000"
 2081      54797065 
 2081      44656600 
 2082              	.LASF31:
 2083 01cb 6E616D65 		.ascii	"name\000"
 2083      00
 2084              	.LASF41:
 2085 01d0 6D706F6F 		.ascii	"mpool\000"
 2085      6C00
 2086              	.LASF4:
 2087 01d6 73686F72 		.ascii	"short unsigned int\000"
 2087      7420756E 
 2087      7369676E 
 2087      65642069 
 2087      6E7400
 2088              	.LASF44:
 2089 01e9 63685F74 		.ascii	"ch_thread\000"
 2089      68726561 
 2089      6400
 2090              	.LASF22:
 2091 01f3 6D73675F 		.ascii	"msg_t\000"
 2091      7400
 2092              	.LASF83:
 2093 01f9 41484245 		.ascii	"AHBENR\000"
 2093      4E5200
 2094              	.LASF113:
 2095 0200 2E2E2F43 		.ascii	"../ChibiOS/os/hal/ports/STM32/STM32F3xx/hal_lld.c\000"
 2095      68696269 
 2095      4F532F6F 
 2095      732F6861 
 2095      6C2F706F 
 2096              	.LASF64:
 2097 0232 63685F73 		.ascii	"ch_system_t\000"
 2097      79737465 
 2097      6D5F7400 
 2098              	.LASF18:
 2099 023e 746D6F64 		.ascii	"tmode_t\000"
 2099      655F7400 
 2100              	.LASF51:
ARM GAS  /tmp/ccolIDMf.s 			page 54


 2101 0246 63685F72 		.ascii	"ch_ready_list\000"
 2101      65616479 
 2101      5F6C6973 
 2101      7400
 2102              	.LASF23:
 2103 0254 6576656E 		.ascii	"eventmask_t\000"
 2103      746D6173 
 2103      6B5F7400 
 2104              	.LASF6:
 2105 0260 5F5F696E 		.ascii	"__int32_t\000"
 2105      7433325F 
 2105      7400
 2106              	.LASF91:
 2107 026a 73746B61 		.ascii	"stkalign_t\000"
 2107      6C69676E 
 2107      5F7400
 2108              	.LASF29:
 2109 0275 6E657765 		.ascii	"newer\000"
 2109      7200
 2110              	.LASF43:
 2111 027b 74687265 		.ascii	"threads_list_t\000"
 2111      6164735F 
 2111      6C697374 
 2111      5F7400
 2112              	.LASF40:
 2113 028a 7265616C 		.ascii	"realprio\000"
 2113      7072696F 
 2113      00
 2114              	.LASF69:
 2115 0293 73697A65 		.ascii	"sizetype\000"
 2115      74797065 
 2115      00
 2116              	.LASF42:
 2117 029c 74687265 		.ascii	"thread_reference_t\000"
 2117      61645F72 
 2117      65666572 
 2117      656E6365 
 2117      5F7400
 2118              	.LASF59:
 2119 02af 63685F76 		.ascii	"ch_virtual_timers_list\000"
 2119      69727475 
 2119      616C5F74 
 2119      696D6572 
 2119      735F6C69 
 2120              	.LASF115:
 2121 02c6 68616C5F 		.ascii	"hal_lld_backup_domain_init\000"
 2121      6C6C645F 
 2121      6261636B 
 2121      75705F64 
 2121      6F6D6169 
 2122              	.LASF92:
 2123 02e1 706F7274 		.ascii	"port_context\000"
 2123      5F636F6E 
 2123      74657874 
 2123      00
 2124              	.LASF95:
 2125 02ee 746D5F63 		.ascii	"tm_calibration_t\000"
ARM GAS  /tmp/ccolIDMf.s 			page 55


 2125      616C6962 
 2125      72617469 
 2125      6F6E5F74 
 2125      00
 2126              	.LASF87:
 2127 02ff 41484252 		.ascii	"AHBRSTR\000"
 2127      53545200 
 2128              	.LASF28:
 2129 0307 7072696F 		.ascii	"prio\000"
 2129      00
 2130              	.LASF82:
 2131 030c 41504231 		.ascii	"APB1RSTR\000"
 2131      52535452 
 2131      00
 2132              	.LASF52:
 2133 0315 63757272 		.ascii	"current\000"
 2133      656E7400 
 2134              	.LASF11:
 2135 031d 5F5F7569 		.ascii	"__uint64_t\000"
 2135      6E743634 
 2135      5F7400
 2136              	.LASF78:
 2137 0328 53595343 		.ascii	"SYSCFG_TypeDef\000"
 2137      46475F54 
 2137      79706544 
 2137      656600
 2138              	.LASF20:
 2139 0337 74726566 		.ascii	"trefs_t\000"
 2139      735F7400 
 2140              	.LASF70:
 2141 033f 4B455952 		.ascii	"KEYR\000"
 2141      00
 2142              	.LASF35:
 2143 0344 72656673 		.ascii	"refs\000"
 2143      00
 2144              	.LASF54:
 2145 0349 76697274 		.ascii	"virtual_timer_t\000"
 2145      75616C5F 
 2145      74696D65 
 2145      725F7400 
 2146              	.LASF21:
 2147 0359 74707269 		.ascii	"tprio_t\000"
 2147      6F5F7400 
 2148              	.LASF114:
 2149 0361 2F6E6673 		.ascii	"/nfs/nfs7/home/npalumbo/p442-submissions/lab4\000"
 2149      2F6E6673 
 2149      372F686F 
 2149      6D652F6E 
 2149      70616C75 
 2150              	.LASF62:
 2151 038f 63685F73 		.ascii	"ch_system_debug\000"
 2151      79737465 
 2151      6D5F6465 
 2151      62756700 
 2152              	.LASF109:
 2153 039f 5F426F6F 		.ascii	"_Bool\000"
 2153      6C00
ARM GAS  /tmp/ccolIDMf.s 			page 56


 2154              	.LASF14:
 2155 03a5 696E7433 		.ascii	"int32_t\000"
 2155      325F7400 
 2156              	.LASF2:
 2157 03ad 756E7369 		.ascii	"unsigned char\000"
 2157      676E6564 
 2157      20636861 
 2157      7200
 2158              	.LASF3:
 2159 03bb 73686F72 		.ascii	"short int\000"
 2159      7420696E 
 2159      7400
 2160              	.LASF60:
 2161 03c5 6C617374 		.ascii	"lasttime\000"
 2161      74696D65 
 2161      00
 2162              	.LASF72:
 2163 03ce 52455345 		.ascii	"RESERVED\000"
 2163      52564544 
 2163      00
 2164              	.LASF103:
 2165 03d7 65776D61 		.ascii	"ewmask\000"
 2165      736B00
 2166              	.LASF84:
 2167 03de 41504232 		.ascii	"APB2ENR\000"
 2167      454E5200 
 2168              	.LASF55:
 2169 03e6 63685F76 		.ascii	"ch_virtual_timer\000"
 2169      69727475 
 2169      616C5F74 
 2169      696D6572 
 2169      00
 2170              	.LASF104:
 2171 03f7 63685F73 		.ascii	"ch_semaphore\000"
 2171      656D6170 
 2171      686F7265 
 2171      00
 2172              	.LASF15:
 2173 0404 75696E74 		.ascii	"uint32_t\000"
 2173      33325F74 
 2173      00
 2174              	.LASF102:
 2175 040d 77746D74 		.ascii	"wtmtxp\000"
 2175      787000
 2176              	.LASF45:
 2177 0414 63685F74 		.ascii	"ch_threads_list\000"
 2177      68726561 
 2177      64735F6C 
 2177      69737400 
 2178              	.LASF106:
 2179 0424 6F776E65 		.ascii	"owner\000"
 2179      7200
 2180              	.LASF118:
 2181 042a 646D6149 		.ascii	"dmaInit\000"
 2181      6E697400 
 2182              	.LASF73:
 2183 0432 57525052 		.ascii	"WRPR\000"
ARM GAS  /tmp/ccolIDMf.s 			page 57


 2183      00
 2184              	.LASF107:
 2185 0437 63686172 		.ascii	"char\000"
 2185      00
 2186              	.LASF30:
 2187 043c 6F6C6465 		.ascii	"older\000"
 2187      7200
 2188              	.LASF26:
 2189 0442 74687265 		.ascii	"thread_t\000"
 2189      61645F74 
 2189      00
 2190              	.LASF25:
 2191 044b 73797374 		.ascii	"systime_t\000"
 2191      696D655F 
 2191      7400
 2192              	.LASF53:
 2193 0455 76746675 		.ascii	"vtfunc_t\000"
 2193      6E635F74 
 2193      00
 2194              	.LASF63:
 2195 045e 70616E69 		.ascii	"panic_msg\000"
 2195      635F6D73 
 2195      6700
 2196              	.LASF94:
 2197 0468 6F666673 		.ascii	"offset\000"
 2197      657400
 2198              	.LASF85:
 2199 046f 41504231 		.ascii	"APB1ENR\000"
 2199      454E5200 
 2200              	.LASF105:
 2201 0477 63685F6D 		.ascii	"ch_mutex\000"
 2201      75746578 
 2201      00
 2202              	.LASF116:
 2203 0480 68616C5F 		.ascii	"hal_lld_init\000"
 2203      6C6C645F 
 2203      696E6974 
 2203      00
 2204              	.LASF17:
 2205 048d 7274636E 		.ascii	"rtcnt_t\000"
 2205      745F7400 
 2206              	.LASF47:
 2207 0495 74687265 		.ascii	"threads_queue_t\000"
 2207      6164735F 
 2207      71756575 
 2207      655F7400 
 2208              	.LASF38:
 2209 04a5 6570656E 		.ascii	"epending\000"
 2209      64696E67 
 2209      00
 2210              	.LASF86:
 2211 04ae 42444352 		.ascii	"BDCR\000"
 2211      00
 2212              	.LASF75:
 2213 04b3 43464752 		.ascii	"CFGR1\000"
 2213      3100
 2214              	.LASF77:
ARM GAS  /tmp/ccolIDMf.s 			page 58


 2215 04b9 43464752 		.ascii	"CFGR2\000"
 2215      3200
 2216              	.LASF88:
 2217 04bf 43464752 		.ascii	"CFGR3\000"
 2217      3300
 2218              	.LASF13:
 2219 04c5 75696E74 		.ascii	"uint8_t\000"
 2219      385F7400 
 2220              	.LASF34:
 2221 04cd 666C6167 		.ascii	"flags\000"
 2221      7300
 2222              	.LASF112:
 2223 04d3 474E5520 		.ascii	"GNU C 4.8.4 20140526 (release) [ARM/embedded-4_8-br"
 2223      4320342E 
 2223      382E3420 
 2223      32303134 
 2223      30353236 
 2224 0506 616E6368 		.ascii	"anch revision 211358] -mcpu=cortex-m4 -mno-thumb-in"
 2224      20726576 
 2224      6973696F 
 2224      6E203231 
 2224      31333538 
 2225 0539 74657277 		.ascii	"terwork -mthumb -ggdb -O2 -fomit-frame-pointer -fal"
 2225      6F726B20 
 2225      2D6D7468 
 2225      756D6220 
 2225      2D676764 
 2226 056c 69676E2D 		.ascii	"ign-functions=16 -ffunction-sections -fdata-section"
 2226      66756E63 
 2226      74696F6E 
 2226      733D3136 
 2226      202D6666 
 2227 059f 73202D66 		.ascii	"s -fno-common -flto\000"
 2227      6E6F2D63 
 2227      6F6D6D6F 
 2227      6E202D66 
 2227      6C746F00 
 2228              	.LASF98:
 2229 05b3 77746F62 		.ascii	"wtobjp\000"
 2229      6A7000
 2230              	.LASF80:
 2231 05ba 43464752 		.ascii	"CFGR\000"
 2231      00
 2232              	.LASF39:
 2233 05bf 6D74786C 		.ascii	"mtxlist\000"
 2233      69737400 
 2234              	.LASF76:
 2235 05c7 45585449 		.ascii	"EXTICR\000"
 2235      435200
 2236              		.comm	__gnu_lto_v1,1,1
 2237              		.ident	"GCC: (GNU Tools for ARM Embedded Processors) 4.8.4 20140526 (release) [ARM/embedded-4_8-br
ARM GAS  /tmp/ccolIDMf.s 			page 59


DEFINED SYMBOLS
                            *ABS*:00000000 hal_lld.c
     /tmp/ccolIDMf.s:259    .text.hal_lld_init:00000000 $t
     /tmp/ccolIDMf.s:265    .text.hal_lld_init:00000000 hal_lld_init
     /tmp/ccolIDMf.s:356    .text.hal_lld_init:00000074 $d
     /tmp/ccolIDMf.s:363    .text.stm32_clock_init:00000000 $t
     /tmp/ccolIDMf.s:369    .text.stm32_clock_init:00000000 stm32_clock_init
     /tmp/ccolIDMf.s:471    .text.stm32_clock_init:00000094 $d
     /tmp/ccolIDMf.s:482    .data.SystemCoreClock:00000000 SystemCoreClock
     /tmp/ccolIDMf.s:479    .data.SystemCoreClock:00000000 $d
                            *COM*:00000001 __gnu_lto_v1
                     .debug_frame:00000010 $d

UNDEFINED SYMBOLS
dmaInit
