ARM GAS  /tmp/cc42I6kA.s 			page 1


   1              		.syntax unified
   2              		.cpu cortex-m4
   3              		.fpu softvfp
   4              		.eabi_attribute 20, 1
   5              		.eabi_attribute 21, 1
   6              		.eabi_attribute 23, 3
   7              		.eabi_attribute 24, 1
   8              		.eabi_attribute 25, 1
   9              		.eabi_attribute 26, 1
  10              		.eabi_attribute 30, 2
  11              		.eabi_attribute 34, 1
  12              		.eabi_attribute 18, 4
  13              		.thumb
  14              		.file	"hal_pal_lld.c"
  15              		.text
  16              	.Ltext0:
  17              		.section	.gnu.lto_.jmpfuncs.665a7639fb34f980,"",%progbits
  18 0000 789C6362 		.ascii	"x\234cb`b\300\006\330\2404\023\003##;\003\000\001/\000"
  18      6062C006 
  18      D8A03413 
  18      0323233B 
  18      0300012F 
  19 0015 16       		.ascii	"\026"
  20              		.text
  21              		.section	.gnu.lto_.inline.665a7639fb34f980,"",%progbits
  22 0000 789C6362 		.ascii	"x\234cb`b\300\006vBi\240\354-\206\233\014\214\354\014"
  22      6062C006 
  22      764269A0 
  22      EC2D869B 
  22      0C8CEC0C 
  23 0014 8C0C0CCC 		.ascii	"\214\014\014\314\012`\322\001L&\200\311\006F0\265\000"
  23      0A60D201 
  23      4C2680C9 
  23      064630B5 
  23      00
  24 0025 421D8050 		.ascii	"B\035\200P\014\002\265'.\2603h\336\330\300\304\304\300"
  24      0C02B527 
  24      2EB03368 
  24      DED8C0C4 
  24      C4C0
  25 0037 F8829D05 		.ascii	"\370\202\235\005B\202\010\0160\223\003D\010\200\231"
  25      4282080E 
  25      30930344 
  25      088099
  26 0046 02204201 		.ascii	"\002 B\001\314T\000\021\016`\246\003\210h`d\202P`\022"
  26      CC540011 
  26      0E60A603 
  26      88686064 
  26      82506012 
  27 005a 625403D8 		.ascii	"bT\003\330\271\214\014\347\030\3662122\001mc`.\272\360"
  27      B98C0CE7 
  27      18F63231 
  27      3232016D 
  27      63602EBA 
  28 006f 47914162 		.ascii	"G\221Ab\316Ef&\006\241\013=\214,`\207\003\000\274W "
  28      CE456626 
  28      06A10B3D 
ARM GAS  /tmp/cc42I6kA.s 			page 2


  28      8C2C6087 
  28      0300BC57 
  29 0084 39       		.ascii	"9"
  30              		.text
  31              		.section	.gnu.lto_.pureconst.665a7639fb34f980,"",%progbits
  32 0000 789C6362 		.ascii	"x\234cb`b`e\200\000&\006)F)\000\001\006\000A"
  32      60626065 
  32      80002606 
  32      29462900 
  32      01060041 
  33              		.text
  34              		.section	.gnu.lto__pal_lld_init.665a7639fb34f980,"",%progbits
  35 0000 789CB599 		.ascii	"x\234\265\231Kh\033W\024\206\357\235\321\214\336\017"
  35      4B681B57 
  35      1486EF9D 
  35      D18CDE0F 
  36 0010 DBF2FBA5 		.ascii	"\333\362\373\245\310\357\227\344'\015]\025ZZ\002))\304"
  36      C8EF97E4 
  36      270D5D15 
  36      5A5A0229 
  36      29C4
  37 0022 8176D53A 		.ascii	"\201v\325:.U\004v-\232\266\233.2JC\361\"P\021\3720\355"
  37      2E550476 
  37      2D9AB69B 
  37      2E324A43 
  37      F1225011 
  38 0039 A20EDDB8 		.ascii	"\242\016\335\270n\353,\033\247\033\223E!\024\273\366"
  38      6EEB2C1B 
  38      A71B9345 
  38      2114BBF6 
  39 0049 2E380998 		.ascii	".8\011\230f\321\226@H\352,\222\022P\347\314\221=Ga\244"
  39      66D19640 
  39      48EA2C92 
  39      1250E7CC 
  39      913D4761 
  40 005e ABE0EB01 		.ascii	"\253\340\353\001\3753\243\321\034}s\317\321\267\221"
  40      FD33A3D1 
  40      1C7D73CF 
  40      D1B791
  41 006d C214F6EC 		.ascii	"\302\024\366\354\326h\276\242m\214\275j\356\271\312"
  41      D668BEA2 
  41      6D8CBD6A 
  41      EEB9CA
  42 007c B892DB60 		.ascii	"\270\222\333`,\353Q8\207\003\306\3319\205\237{\213["
  42      2CEB5138 
  42      8703C6D9 
  42      39859F7B 
  42      8B5B
  43 008e 9FBDA2AC 		.ascii	"\237\275\242\254\355\344\363+\017~[\271\310\227\225"
  43      EDE4F32B 
  43      0F7E5BB9 
  43      C89795
  44 009d 771496E6 		.ascii	"w\024\226\346L\205\320\370,g\0018\012B\204 \302\020"
  44      4C85D0F8 
  44      2C670138 
  44      0A428420 
  44      C210
ARM GAS  /tmp/cc42I6kA.s 			page 3


  45 00af 11882A88 		.ascii	"\021\210*\210j\210\032\210(D-D\035D=D\003D#D\023D3D"
  45      6A881A88 
  45      28442D44 
  45      1D443D44 
  45      03442344 
  46 00c7 0B442B44 		.ascii	"\013D+D\033D;D\014\342\010D\034\242\003\242\023\242"
  46      1B443B44 
  46      0CE20844 
  46      1CA203A2 
  46      13A2
  47 00d9 0BA21BA2 		.ascii	"\013\242\033\242\007\242\027\242\017\242\037b\000b\020"
  47      07A217A2 
  47      0FA21F62 
  47      006210
  48 00e8 62082201 		.ascii	"b\010\"\001\221\204\030\206\030\201\030\205\030\203"
  48      91841886 
  48      18811885 
  48      1883
  49 00f6 18879880 		.ascii	"\030\207\230\20007\215]0\214\\\214\261i\353t\322LX\227"
  49      30378D5D 
  49      308C5C8C 
  49      B169EB74 
  49      D24C5897 
  50 010a 535C81BD 		.ascii	"S\\\201\275\272\316\256o\337\334m\230\342\227\271\306"
  50      BACEAE6F 
  50      DFDC6D98 
  50      E297B9C6 
  51 011a 525C1960 		.ascii	"R\\\031`\313\306\205l$\315\371\267\354\033\236\346\312"
  51      CBC6856C 
  51      24CDF9B7 
  51      EC1B9EE6 
  51      CA
  52 012b 9B66A8C6 		.ascii	"\233f\250\306\342\274\341b\326\241\265\216\247\371\336"
  52      E2BCE162 
  52      D6A1B58E 
  52      A7F9DE
  53 013a EAAFB34F 		.ascii	"\352\257\263OW\325\275\273\325\024~\236\031\306c\325"
  53      57D5BDBB 
  53      D5147E9E 
  53      19C663D5 
  54 014a BA78FD18 		.ascii	"\272x\375\030^{\276\262)8\277\301\316\357\374}W\307"
  54      5E7BBEB2 
  54      2938BFC1 
  54      CEEFFC7D 
  54      57C7
  55 015c FB6739FF 		.ascii	"\373g9\377\204\375g\230\005\\P*g\030\037\245\271\206"
  55      84FD6798 
  55      055C502A 
  55      67181FA5 
  55      B986
  56 016e B5F414D7 		.ascii	"\265\364\024\327\240\206\273P\003\213\340}\314\252\263"
  56      A086BB50 
  56      038BE07D 
  56      CCAAB3
  57 017d D68C6771 		.ascii	"\326\214gqv\3310.\255=\374\354wn\\2\262\017\362\371"
  57      76D9302E 
  57      AD3DFCEC 
ARM GAS  /tmp/cc42I6kA.s 			page 4


  57      776E5C32 
  57      B20FF2F9 
  58 0191 709A7B14 		.ascii	"p\232{\024\366\"\207\325\201\032\336\230\265\363\271"
  58      F62287D5 
  58      811ADE98 
  58      B5F3B9
  59 01a0 8A670CDE 		.ascii	"\212g\014\336\363\030\206\261\346b\317\2009\226t)\354"
  59      F31886B1 
  59      E662CF80 
  59      39967429 
  59      EC
  60 01b1 2551C959 		.ascii	"%Q\311Y\340\\g\347\267\037\177\327\272\337#<0\276\377"
  60      E05C67E7 
  60      B71F7FD7 
  60      BADF233C 
  60      30BEFF
  61 01c4 DC04FE91 		.ascii	"\334\004\376\221\307\315\207\370\301\314\275\207\231"
  61      C7CD87F8 
  61      C1CCBD87 
  61      99
  62 01d1 C6474BF1 		.ascii	"\306GK\361\000\256\301Z\376\037\263\260\337\\\205\254"
  62      00AEC15A 
  62      FE1FB3B0 
  62      DF5C85AC 
  63 01e1 014B1328 		.ascii	"\001K\023(,\204\253\260\020\012\334\270\202\253`\266"
  63      2C84ABB0 
  63      100ADCB8 
  63      82AB60B6 
  64 01f1 E2C6A66F 		.ascii	"\342\306\246o\212\377\274\337\014c\004\273\221\315\301"
  64      8AFFBCDF 
  64      0C6304BB 
  64      91CDC1
  65 0200 BD41F288 		.ascii	"\275A\362\210\326a\241\206\272_\303\374Z\004^\370sS"
  65      D661A186 
  65      BA5FC3FC 
  65      5A045EF8 
  65      7353
  66 0212 C542291E 		.ascii	"\305B)\036\204Z\221r\020.\011\020\032\201\010\"\304"
  66      845A9172 
  66      102E0910 
  66      1A810822 
  66      C4
  67 0223 55021112 		.ascii	"U\002\021\022B\350\022 \334\004\"\204\0207\011DX\010"
  67      42E81220 
  67      DC042284 
  67      10370944 
  67      5808
  68 0235 E19100E1 		.ascii	"\341\221\000\341%\020\341\302\374\020\210\210\020\302"
  68      2510E1C2 
  68      FC108888 
  68      10C2
  69 0243 2701C24F 		.ascii	"'\001\302O \"\205\231\270kCT\011!\002\022 \202\004\242"
  69      20228599 
  69      B86B4354 
  69      09210212 
  69      208204A2 
  70 0257 AA301304 		.ascii	"\2520\023\004\242Z\010\021\222\000\021&\020\325h\206"
ARM GAS  /tmp/cc42I6kA.s 			page 5


  70      A25A0811 
  70      92001126 
  70      10D56886 
  71 0267 7BB6B294 		.ascii	"{\266\262\224\212\225\025yNeM\361e\363\327]\211\263"
  71      8A951579 
  71      4E654DF1 
  71      65F3D75D 
  71      89B3
  72 0279 E66D67DD 		.ascii	"\346mg\335+\357\254)\376\223\260\346,8\245\204\264\256"
  72      2BEFAC29 
  72      FE93B0E6 
  72      2C38A584 
  72      B4AE
  73 028b 80B4FEB0 		.ascii	"\200\264\376\260\244\265\341$\255\032\201\264Z\210\264"
  73      A4B5E124 
  73      AD1A81B4 
  73      5A88B4
  74 029a B68ADBB2 		.ascii	"\266\212\333\262Y\276-\363\216\322\332\302\266\324P"
  74      59BE2DF3 
  74      8ED2DAC2 
  74      B6D450
  75 02a9 696D5AB3 		.ascii	"imZ\263\021-=\033-DZ\007\204\320\010D\224J\013!j\205"
  75      112D3D1B 
  75      2D445A07 
  75      84D00844 
  75      944A0B21 
  76 02bf 10BA0408 		.ascii	"\020\272\004\0107\201\250\245\322B\210:!\204G\002\204"
  76      3781A8A5 
  76      D242883A 
  76      21844702 
  76      84
  77 02d0 9740D451 		.ascii	"\227@\324Qi!D\275\020\302'\001\302O \352\251\264\020"
  77      692144BD 
  77      10C22701 
  77      C24F20EA 
  77      A9B410
  78 02e3 A2410811 		.ascii	"\242A\010\021\220\000\021$\020\015TZ\010\321(\204\010"
  78      90001124 
  78      100D545A 
  78      08D12884 
  78      08
  79 02f4 49800813 		.ascii	"I\200\010\023\210FT\303}[Zj\305\322\252:4i\345li\335"
  79      884654C3 
  79      7D5B5A6A 
  79      C5D2AA3A 
  79      3469E56C 
  80 030a 97212DB5 		.ascii	"\227!-\265\244\264~\005i\375kI\353\241\223\264\232\004"
  80      A4B47E05 
  80      69FD6B49 
  80      EBA193B4 
  80      9A04
  81 031c D23A4AA4 		.ascii	"\322:J\244\365\250\270-\273\345\333\222s\224\326#lK"
  81      F5A8B82D 
  81      BBE5DB92 
  81      7394D623 
  81      6C4B
  82 032e 1395D6AE 		.ascii	"\023\225\326\2565\033\315\245g\343(\221\326\001!4\002"
ARM GAS  /tmp/cc42I6kA.s 			page 6


  82      351BCDA5 
  82      67E32891 
  82      D6012134 
  82      02
  83 033f D14CA585 		.ascii	"\321L\245\205\020-B\010]\002\204\233@\264Pi!D\253\020"
  83      102D4208 
  83      5D02849B 
  83      40B45069 
  83      2144AB10 
  84 0353 C22301C2 		.ascii	"\302#\001\302K Z\251\264\020\242M\010\341\223\000\341"
  84      4B205AA9 
  84      B410A24D 
  84      08E19300 
  84      E1
  85 0364 27106D54 		.ascii	"'\020mTZ\010\321.\204\010H\200\010\022\210v*-\204\210"
  85      5A08D12E 
  85      84084880 
  85      08128876 
  85      2A2D8488 
  86 0378 09214212 		.ascii	"\011!B\022 \302\004\"\206jxbK\313U\261\264\252\017M"
  86      20C20422 
  86      866A7862 
  86      4BCB55B1 
  86      B4AA0F4D 
  87 038c 5A0BB6B4 		.ascii	"Z\013\266\264\236\310\220\226\253\244\264\376\002i}"
  87      9EC89096 
  87      ABA4B4FE 
  87      02697D
  88 039b A980B4BE 		.ascii	"\251\200\264\276P\034\244uD \255I\"\255\257\225\242"
  88      501CA475 
  88      4420AD49 
  88      22ADAF95 
  88      A2
  89 03ac B67CA594 		.ascii	"\266|\245\224m\313\202\243\264\254\032\346\327RiA\241"
  89      6DCB82A3 
  89      B4AC1AE6 
  89      D7526941 
  89      A1
  90 03bd 148F979E 		.ascii	"\024\217\227\236\215I\"\255\003Bh\004\"N\245\205\020"
  90      8D4922AD 
  90      03426804 
  90      224EA585 
  90      10
  91 03ce 1D42085D 		.ascii	"\035B\010]\002\204\233@tPi!D\247\020\302#\001\302K "
  91      02849B40 
  91      74506921 
  91      44A710C2 
  91      2301C24B 
  92 03e3 3AA9B410 		.ascii	":\251\264\020\242K\010\341\223\000\341'\020]TZ\010\321"
  92      A24B08E1 
  92      9300E127 
  92      105D545A 
  92      08D1
  93 03f5 2D840848 		.ascii	"-\204\010H\200\010\022\210n*-\204\350\021B\204$@\204"
  93      80081288 
  93      6E2A2D84 
  93      E8114284 
ARM GAS  /tmp/cc42I6kA.s 			page 7


  93      244084
  94 0408 09440FAA 		.ascii	"\011D\017\252\341\251--\255bi\325\034\232\264\026mi"
  94      E1A92D2D 
  94      AD6269D5 
  94      1C9AB416 
  94      6D69
  95 041a 3D95212D 		.ascii	"=\225!-\255\244\264vAZW-i\375\342$\255^\201\2642DZ\327"
  95      ADA4B476 
  95      415A572D 
  95      69FDE224 
  95      AD5E81B4 
  96 0432 8ADBB25A 		.ascii	"\212\333\262Z\276-\213\216\322\272\206m\351\245\322"
  96      BE2D8B8E 
  96      D2BA866D 
  96      E9A5D2
  97 0441 5AB566A3 		.ascii	"Z\265f\243\257\364ld\210\264\016\010\241\021\210>*-"
  97      AFF46C64 
  97      88B40E08 
  97      A111883E 
  97      2A2D
  98 0453 84E81742 		.ascii	"\204\350\027B\350\022 \334\004\242\237J\013!\006\204"
  98      E81220DC 
  98      04A29F4A 
  98      0B210684 
  99 0463 101E0910 		.ascii	"\020\036\011\020^\0021@\245\205\020\203B\010\237\004"
  99      5E023140 
  99      A5851083 
  99      42089F04 
 100 0473 083F8118 		.ascii	"\010?\201\030\244\322B\210!!D@\002D\220@\014Qi!DB\010"
 100      A4D24288 
 100      21214440 
 100      02449040 
 100      0C516921 
 101 048a 11920011 		.ascii	"\021\222\000\021&\020\011TC\336\226\226^\261\264\242"
 101      26100954 
 101      43DE9696 
 101      5EB1B4A2 
 102 049a 8726AD25 		.ascii	"\207&\255%[Zy\031\322\322KJ+\017\322\272eIk\333IZI\201"
 102      5B5A7919 
 102      D2D24B4A 
 102      2B0FD2BA 
 102      65496BDB 
 103 04b2 B42E7262 		.ascii	"\264.rb\255;\305}\271]\276/K\216\326\272\203}IRk\335"
 103      AD3BC57D 
 103      B95DBE2F 
 103      4B8ED6BA 
 103      837D4952 
 104 04c8 B68663B8 		.ascii	"\266\206c\270\364p\354Q\270$Ph\204b\230j\013)F\304\024"
 104      F470EC51 
 104      B8245068 
 104      8462986A 
 104      0B2946C4 
 105 04dd BA040A37 		.ascii	"\272\004\0127\241\030\241\336B\212Q1\205G\002\205\227"
 105      A118A1DE 
 105      428A5131 
 105      85470285 
 105      97
ARM GAS  /tmp/cc42I6kA.s 			page 8


 106 04ee 508C5271 		.ascii	"P\214Rq!\305\230\230\302'\201\302O(\306\250\271\220"
 106      21C59898 
 106      C22781C2 
 106      4F28C6A8 
 106      B990
 107 0500 625C4C11 		.ascii	"b\\L\021\220@\021$\024\343T]H1!\246\010I\240\010\023"
 107      90401124 
 107      14E3545D 
 107      483121A6 
 107      0849A008 
 108 0515 8A09C6B6 		.ascii	"\212\011\306\266Xvg\251k_A\3266i\376vs\033\326\377\310"
 108      587667A9 
 108      6B5F41D6 
 108      3669FE76 
 108      731BD6FF 
 109 052a 2F2412C9 		.ascii	"/$\022\311\227\317\244O\247O\234L\316\235M\236\231\232"
 109      97CFA44F 
 109      A74F9C4C 
 109      CE9D4D9E 
 109      999A
 110 053c 4966E63E 		.ascii	"If\346>\370\360l\362\344\344\353c\243\311\343\307_I"
 110      F8F06CF2 
 110      E4E4EB63 
 110      A3C9E3C7 
 110      5F49
 111 054e BEF6C6B1 		.ascii	"\276\366\306\261\023\037\217\302\245\2673\346kf\346"
 111      131F8FC2 
 111      A5B733E6 
 111      6B66E6
 112 055d DDC434D3 		.ascii	"\335\3044\323R\231\364\\F\237\236{\377\275t\352\177"
 112      5299F45C 
 112      469F9E7B 
 112      FFBD74EA 
 112      7F
 113 056e 75A932A6 		.ascii	"u\2512\246"
 114              		.text
 115              		.section	.gnu.lto__pal_lld_setgroupmode.665a7639fb34f980,"",%progbits
 116 0000 789C9D57 		.ascii	"x\234\235WkLTG\024\236\231\273wwa\037\250X\345)\210"
 116      6B4C5447 
 116      149E99BB 
 116      7777611F 
 116      A858E529 
 117 0015 0F8C0F56 		.ascii	"\017\214\017V|+U\252T\245\012\341i\242\351\217\212B"
 117      7C2B55AA 
 117      54A50AE1 
 117      69A2E98F 
 117      8A42
 118 0027 565A366C 		.ascii	"VZ6l\000\233\264\177\\\\~\220b\014\351\003\037%\015"
 118      009BB47F 
 118      5C5C7E90 
 118      620CE903 
 118      1F250D
 119 003a D61A6B8D 		.ascii	"\326\032k\215EJ,V\010B\323\246\232\332\246M\372\303"
 119      454A2C56 
 119      0842D3A6 
 119      9ADAA64D 
 119      FAC3
ARM GAS  /tmp/cc42I6kA.s 			page 9


 120 004c 6D9BD4D2 		.ascii	"m\233\324\322D\323H\254\226\330\232h\273=g\356\314\335"
 120      44D348AC 
 120      96D89A68 
 120      BB3D67EE 
 120      CCDD
 121 005e BDBBA4BB 		.ascii	"\275\273\244\273\262\011g\356\234s\276\357~s\346\354"
 121      B20967EE 
 121      9C73BEEF 
 121      7E73E6EC 
 122 006e ECC00823 		.ascii	"\354\300\010#\221\237\363\360wg\032!\007a\244I\204\262"
 122      919FF3F0 
 122      77671A21 
 122      0761A449 
 122      84B2
 123 0080 CE6F0969 		.ascii	"\316o\011i\2652\252h\017\0123\265\347\022_\242\035\255"
 123      B532AA68 
 123      0F0A33B5 
 123      E7125FA2 
 123      1DAD
 124 0092 DDC4D4FB 		.ascii	"\335\304\324\373\317\300,\241g\035\314Tf\3461\013\217"
 124      CFC02CA1 
 124      671DCC54 
 124      66E6310B 
 124      8F
 125 00a3 99A95583 		.ascii	"\231\251U\203X\344\203\225\332\265\207\004\226\310\023"
 125      58E48395 
 125      DAB58704 
 125      96C813
 126 00b2 6D3C3151 		.ascii	"m<1Q\272m\362\301\316\234m\026\210;\216|E \301\241\275"
 126      BA6DF2C1 
 126      CE9C6D16 
 126      883B8E7C 
 126      4520C1A1 
 127 00c7 7CD4EAA4 		.ascii	"|\324\352\244\024\037\010%\207\230bR\315\026kB\242\315"
 127      141F0825 
 127      87986252 
 127      CD166B42 
 127      A2CD
 128 00d9 EE70D243 		.ascii	"\356p\322C{(\212\267\345\220S>_\347\255/\007\036\320"
 128      7B288AB7 
 128      E590533E 
 128      5FE7AD2F 
 128      071ED0
 129 00ec 136F8FB4 		.ascii	"\023o\217\264\365\370\236\004\203\224\326SX\350\006"
 129      F5F89E04 
 129      8394D653 
 129      58E806
 130 00fb 4AF653B2 		.ascii	"J\366S\262\033&4\233\017\314d\\9\307\2769r\254\343h"
 130      1B26349B 
 130      0FCC645C 
 130      39C7BE39 
 130      72ACE368 
 131 010f AAAFE770 		.ascii	"\252\257\347p\247\357_\200\326S\205\221\347\342D\036"
 131      A7EF5F80 
 131      D6538591 
 131      E7E2441E 
 132 011f FFDADED9 		.ascii	"\377\332\336\331\332\356\013\006\017q\330\2668a'\215"
ARM GAS  /tmp/cc42I6kA.s 			page 10


 132      DAEE0B06 
 132      0F71D8B6 
 132      3861278D 
 133 012f B0D23861 		.ascii	"\260\3228a\335F\330\2568a\357\031a/\306\011\273h\204"
 133      DD46D8AE 
 133      3861EF19 
 133      612FC609 
 133      BB6884
 134 0142 ED8D1336 		.ascii	"\355\215\0236\320\361vD1k\343C\372\036\326^\363\265"
 134      D0F17644 
 134      316BE343 
 134      FA1ED65E 
 134      F3B5
 135 0154 8D048385 		.ascii	"\215\004\203\205\034\345\211\023\365\217\001\345\215"
 135      1CE58913 
 135      F58F01E5 
 135      8D
 136 0161 13F54E5D 		.ascii	"\023\365N]8\2529\026\252\227\215\334\012\006\273\003"
 136      38AA3916 
 136      AA978DDC 
 136      0A06BB03 
 137 0171 E3631FD2 		.ascii	"\343c\037\322d\250\273\007\333\253\206\236\2469D\201"
 137      64A8BB07 
 137      DBAB869E 
 137      A6394481 
 138 0181 F10C8C26 		.ascii	"\361\014\214&\030\317\302\250\302x\016F3\214\027`L\244"
 138      18CFC2A8 
 138      C2780E46 
 138      338C1760 
 138      4CA4
 139 0193 1E4A6D22 		.ascii	"\036Jm\"\331N\352\251\311!\020N\234$\011\3304\234L\027"
 139      D94EEAA9 
 139      C921104E 
 139      9C2409D8 
 139      349C4C17 
 140 01a7 D8193849 		.ascii	"\330\0318I\206\311y\230\314\004\0022\013=\263\321\244"
 140      86C97998 
 140      CC040232 
 140      0B3DB3D1 
 140      A4
 141 01b8 A0490543 		.ascii	"\240I\005C\322 \241\027\022\322a<\005c\006:3a\322\007"
 141      D220A117 
 141      12D2613C 
 141      0563063A 
 141      3361D207 
 142 01cc 93399896 		.ascii	"\2239\230\226\205\236l4s\301\335\017\356\034\234\314"
 142      859E6C34 
 142      73C1DD0F 
 142      EE1C9CCC 
 143 01dc 83C92598 		.ascii	"\203\311%\230\314\007f\266\000\023\027\242\311E\263"
 143      CC0766B6 
 143      001317A2 
 143      C945B3
 144 01eb 08CD6234 		.ascii	"\010\315b4K\320,E\263\014\215\013\315r4\371hV\242Y\205"
 144      4BD02C45 
 144      B30C8D0B 
 144      CD7234F9 
ARM GAS  /tmp/cc42I6kA.s 			page 11


 144      6856A259 
 145 0200 66359A35 		.ascii	"f5\2325h\326\241Y\217f\003\232\0024\033\321lBS\210f"
 145      68D6A159 
 145      8F66039A 
 145      02341BD1 
 145      6C425388 
 146 0215 339A2D68 		.ascii	"3\232-h\212\320lE\263\015\315v4\305hv\240\331\211\246"
 146      8AD06C45 
 146      B30DCD76 
 146      34C56876 
 146      A0D989A6 
 147 0229 044D299A 		.ascii	"\004M)\2322\254x\271\250[\205(Y\245\250V\225(n\265\250"
 147      32AC78B9 
 147      A85B8528 
 147      59A5A856 
 147      95286EB5 
 148 023e 387C54D2 		.ascii	"8|T\322\006\207B\266\346\327P\032FCh\205\225\331\373"
 148      068742B6 
 148      E6D7501A 
 148      46436885 
 148      95D9FB
 149 0251 F941520D 		.ascii	"\371AR\015\026N\240]\224\301\240|C\374\203\376\336\256"
 149      164EA05D 
 149      94C1A07C 
 149      43FC83FE 
 149      DEAE
 150 0263 8C1A3A40 		.ascii	"\214\032:@U\342\24667M\304\3060)\220z\2350\315\257\361"
 150      55E2A636 
 150      374DC4C6 
 150      3029907A 
 150      9D30CDAF 
 151 0278 4394100E 		.ascii	"C\224\020\016\350\357zV\002\354\022\200\235\004\301"
 151      E8EF7A56 
 151      02EC1280 
 151      9D04C1
 152 0287 8FFD4D32 		.ascii	"\217\375M2\344\200\350n\355\2042p\235\341\\\016\301"
 152      E480E86E 
 152      ED843270 
 152      9DE15C0E 
 152      C1
 153 0298 3510E272 		.ascii	"5\020\342rJ\256\224(\256$\210r\256\010]g9W\222\340\032"
 153      4AAE9428 
 153      AE248872 
 153      AE085D67 
 153      395792E0 
 154 02ad 0C714D93 		.ascii	"\014qM\223\\{\243\270\246C\224s\251F\256s\234k\272\340"
 154      5C7BA3B8 
 154      A6439473 
 154      A946AE73 
 154      9C6BBAE0 
 155 02c1 BA1AE29A 		.ascii	"\272\032\342\232!\271|IQd\311\020\346d\026#\331yN\226"
 155      21B97C49 
 155      5164C910 
 155      E6641623 
 155      D9794E96 
 156 02d5 8CBEC33D 		.ascii	"\214\276\303=7U\351\306\235\300tE~\343v\301#\034\374"
 156      3755E9C6 
ARM GAS  /tmp/cc42I6kA.s 			page 12


 156      9DC07445 
 156      7EE376C1 
 156      231CFC
 157 02e8 0AA45989 		.ascii	"\012\244Y\211HpS3\307q\207\246J\0159\264%\233B\016\255"
 157      48705333 
 157      C77187A6 
 157      4A0D39B4 
 157      259B420E 
 158 02fd 9E4AC8A1 		.ascii	"\236J\310\241m\026\223\016h)7\245bYw\273\262\244\364"
 158      6D16930E 
 158      682937A5 
 158      625977BB 
 158      B2A4F4
 159 0310 59E0E5CB 		.ascii	"Y\340\345\313\302\276\270F\332\306[\363\365\020\367"
 159      C2BEB846 
 159      DAC65BF3 
 159      F510F7
 160 031f 87CE8500 		.ascii	"\207\316\205\000\241n:\223\201)s<yp @\0304\003\033\012"
 160      A16E3A93 
 160      8129733C 
 160      79702040 
 160      1834031B 
 161 0334 78DDB4CA 		.ascii	"x\335\264\312\361\363DC\200(\260\243\354\006:\312\035"
 161      F1F34443 
 161      8028B0A3 
 161      EC063ACA 
 161      1D
 162 0345 1F340788 		.ascii	"\0374\007\210\011v\205\375\260\307M+\034C\023-\001\242"
 162      097685FD 
 162      B0C74D2B 
 162      1C43132D 
 162      01A2
 163 0357 4265D938 		.ascii	"Be\3318\306+\0357\020`\026e`G~\002g\265c|b/V\303D\332"
 163      C62B1D37 
 163      10601665 
 163      60477E02 
 163      67B5637C 
 164 0371 73B5AEFC 		.ascii	"s\265\256\374\273\253Xo\357^\336\306}\334\366s{\211"
 164      BBAB586F 
 164      EF5EDEC6 
 164      7DDCF673 
 164      7B89
 165 0383 B7B4A617 		.ascii	"\267\264\246\027>n:\033\252\306U[\264=z\303\377)l\306"
 165      3E6E3A1B 
 165      AAC6555B 
 165      B43D7AC3 
 165      FF296CC6 
 166 0397 65BE9C14 		.ascii	"e\276\234\024\010\2075\351\341{\376a*c\251\020\346\200"
 166      088735E9 
 166      E17BFE61 
 166      2A63A910 
 166      E680
 167 03a9 0BFEF775 		.ascii	"\013\376\367ug\032\337\330T\261\243\227\371\326\365"
 167      671ADFD8 
 167      54B1A397 
 167      F9D6F5
 168 03b8 F2AAA609 		.ascii	"\362\252\246\011\202\307]sdr:\337/dP\244+\203\267\004"
ARM GAS  /tmp/cc42I6kA.s 			page 13


 168      82C75D73 
 168      64723ADF 
 168      2F6450A4 
 168      2B83B704 
 169 03cc D63D5DE4 		.ascii	"\326=]\344\277,C\231\0205\360\366q\336L!:\330\225'3"
 169      BF2C4399 
 169      1035F0F6 
 169      71DE4C21 
 169      3AD89527 
 170 03e1 E7C81531 		.ascii	"\347\310\0251\251\372u\031\312\202h\304+\263\305\327"
 170      A9FA7519 
 170      CA8268C4 
 170      2BB3C5D7 
 171 03f1 038291AF 		.ascii	"\003\202\221\257\234\013Q\303+\373\371+\347\212e\237"
 171      9C0B51C3 
 171      2BFBF92B 
 171      E78A659F 
 172 0401 3E962533 		.ascii	">\226%3s8I\022\341k7\222\314sc\305\303H.q\222y\230\367"
 172      73384912 
 172      E16B3792 
 172      CC7363C5 
 172      C3482E71 
 173 0419 F98F97AF 		.ascii	"\371\217\227\257\374\252+Y\260\204|\344k\003\"\365]"
 173      FCAA2B59 
 173      B0847CE4 
 173      6B0322F5 
 173      5D
 174 042a 721206B3 		.ascii	"r\022\006\263\233\316G^\013o\245}T6\025\360\017\371"
 174      9BCE475E 
 174      0B6FA57D 
 174      543615F0 
 174      0FF9
 175 043c 87F54D5A 		.ascii	"\207\365MZ(\2130\030\266s\271@\007!\356\377\314\377"
 175      288B3018 
 175      B673B940 
 175      0721EEFF 
 175      CCFF
 176 044e A7EE5FC4 		.ascii	"\247\356_\304C\012\177\371\365\2136\315\315\337\333"
 176      430A7FF9 
 176      F58B36CD 
 176      CDDFDB
 177 045d EA5B1BE3 		.ascii	"\352[\033\343\315\200\326D\337\014\023\2758\206h\032"
 177      CD80D644 
 177      DF0C13BD 
 177      3886681A 
 178 046d 2E7A4CD7 		.ascii	".zL\327\261D\226q\320\177Ew.\005:\010\011\321\177\351"
 178      B1449671 
 178      D07F4577 
 178      2E053A08 
 178      09D17FE9 
 179 0481 FE653C64 		.ascii	"\376e<dzJ\321T\210^\246\211~\024&\332\025C4\323E\203"
 179      7A4AD154 
 179      885EA689 
 179      7E1426DA 
 179      154334D3 
 180 0497 BE4F741D 		.ascii	"\276Ot\035\313\271n\227\320wO\367\347\363\220\372\224"
 180      CBB96E97 
ARM GAS  /tmp/cc42I6kA.s 			page 14


 180      D0774FF7 
 180      E7F390FA 
 180      94
 181 04a8 FA98D097 		.ascii	"\372\230\320\227\217\207\310\027wF\003\035\016I\310"
 181      8F87C817 
 181      7746031D 
 181      0E49C8
 182 04b7 F4F60D1D 		.ascii	"\364\366\015\035w*y\224\250\300is{\364\227\016\247L"
 182      772A7994 
 182      A8C06973 
 182      7BF4970E 
 182      A74C
 183 04c9 D40E038B 		.ascii	"\324\016\003\213!\321L\206T\005W||\370w}\305+c\254X"
 183      21D14C86 
 183      5405577C 
 183      7CF8777D 
 183      C52B63AC 
 184 04de D1570CDB 		.ascii	"\321W\014\333\024\332\221U\242Q\015eX\015t\020\212*"
 184      14DA9155 
 184      A2510D65 
 184      580D7410 
 184      8A2A
 185 04f0 C31A1E4A 		.ascii	"\303\032\036J\323\312\360\235\261\014\2051\336\014h"
 185      D3CAF09D 
 185      B10C8531 
 185      DE0C68
 186 04ff A9DF22F5 		.ascii	"\251\337\"\365\337\014\323\277.\206~\323\344\372\327"
 186      DF0CD3BF 
 186      2E867ED3 
 186      E4FAD7
 187 050e 4FA67F03 		.ascii	"O\246\177\003\320A(J\177\001\017=\255~\223\320_ \365"
 187      D041284A 
 187      7F010F3D 
 187      AD7E93D0 
 187      5F20F5
 188 0521 5B71A378 		.ascii	"[q\243x\307\015?\320\365o\214\241_\015\357\270\220\376"
 188      C70D3FD0 
 188      F56F8CA1 
 188      5F0DEFB8 
 188      90FE
 189 0533 4DBCE336 		.ascii	"M\274\3436F}#\012y\210iR\357\033\245\026\304x\011\240"
 189      467D230A 
 189      79886952 
 189      EF1BA516 
 189      C47809A0 
 190 0547 A5D404D2 		.ascii	"\245\324\004\322\231\241\265\312XH\352\346\251I\335"
 190      99A1B5CA 
 190      5848EAE6 
 190      A949DD
 191 0556 C2A56E8E 		.ascii	"\302\245n\216\222Z\304CS\225Z\304\177ao\217\276u\364"
 191      925AC443 
 191      53955AC4 
 191      7F616F8F 
 191      BE75F4
 192 0569 7F7B3E91 		.ascii	"\177{>\221\264;\265\236\031\013\365\314\326\251\365"
 192      B43BB59E 
 192      190BF5CC 
ARM GAS  /tmp/cc42I6kA.s 			page 15


 192      D6A9F5
 193 0578 FCB6C97A 		.ascii	"\374\266\311zf;\320A(\252g\212yh\252=_,\365\333\244"
 193      663BD041 
 193      28AA678A 
 193      7968AA3D 
 193      5F2CF5DB 
 194 058d FEE3BF85 		.ascii	"\376\343\277\205\364\357\230Z\317\357\234L\177\011\320"
 194      F4EF985A 
 194      CFEF9C4C 
 194      7F09D0
 195 059c 41284A7F 		.ascii	"A(J\177)\017M\265\347K\245~;\277\213\361\033\336\325"
 195      290F4DB5 
 195      E74BA57E 
 195      3BBF8BF1 
 195      1BDED5
 196 05af EE34791B 		.ascii	"\3564y\033*\023\027%\202G\261~\307\343\327\2522q\350"
 196      2A131725 
 196      8247B17E 
 196      C7E3D7AA 
 196      3271E8
 197 05c2 F51DB5EB 		.ascii	"\365\035\265\353\331\021w'\344u\020\370w_\341\277\266"
 197      D9117727 
 197      E47510F8 
 197      775FE1BF 
 197      B6
 198 05d3 77BBF5CB 		.ascii	"w\273\365\313v9\374\202E\363\312\013]\271\370y\376\243"
 198      7639FC82 
 198      45F3CA0B 
 198      5DB9F879 
 198      FEA3
 199 05e5 3B53022A 		.ascii	";S\002*\340\327c\262\033\265v%\254\020\200\211\356t"
 199      E0D763B2 
 199      1BB57625 
 199      AC108089 
 199      EE74
 200 05f7 09A884E3 		.ascii	"\011\250\204\343|2\200v\251\254\024\200\207\272\242"
 200      7C328076 
 200      A9AC1480 
 200      87BAA2
 201 0606 2A716647 		.ascii	"*qfG\346k7\312*\236\337\356\177\334\235\"\001\325\262"
 201      E66B37CA 
 201      2A9EDFEE 
 201      7FDC9D22 
 201      01D5B2
 202 0619 8F2396A0 		.ascii	"\217#\226\240]c\253\345\372\235\370\277\306\367\244"
 202      5D63ABE5 
 202      FA9DF8BF 
 202      C6F7A4
 203 0628 F5D6893B 		.ascii	"\365\326\211;T\277\263\361O5\374\276\265Y\360uk\363"
 203      54BFB3F1 
 203      4F35FCBE 
 203      B559F075 
 203      6BF3
 204 063a F25C4507 		.ascii	"\362\\E\007\352\367\325\227U\271\032\233]\007j\032\\"
 204      EAF7D597 
 204      55B91A9B 
 204      5D076A1A 
ARM GAS  /tmp/cc42I6kA.s 			page 16


 204      5C
 205 064b DEC6A696 		.ascii	"\336\306\246\226fWUu\351\312\025\256\222\222\347]\333"
 205      66575575 
 205      E9CA15AE 
 205      9292E75D 
 205      DB
 206 065c CB5F287B 		.ascii	"\313_({u\005\206^\362\302_CCm\336~\242\356\253o\311"
 206      7505865E 
 206      F2C25F43 
 206      436DDE7E 
 206      A2EEAB6F 
 207 0671 5BAE7A1A 		.ascii	"[\256z\032k\353\232\314\215-\257y\353\232,\215\315\336"
 207      6BEB9ACC 
 207      8D2DAF79 
 207      EB9A2C8D 
 207      CDDE
 208 0683 BABADA26 		.ascii	"\272\272\332&\325{\320[\333d\252ihiR \313\212\017\236"
 208      D57BD05B 
 208      DB64AA69 
 208      68695220 
 208      CB8A0F9E 
 209 0697 9AE65798 		.ascii	"\232\346W\230'\237yV0\317\252\377\000>E\357\366"
 209      279F7956 
 209      30CFAAFF 
 209      003E45EF 
 209      F6
 210              		.text
 211              		.section	.gnu.lto_.symbol_nodes.665a7639fb34f980,"",%progbits
 212 0000 789C6362 		.ascii	"x\234cb`bP`\200\002\246~\246z\006\206\011\347\030\030"
 212      60625060 
 212      8002A67E 
 212      A67A0686 
 212      09E71818 
 213 0014 EAEBE775 		.ascii	"\352\353\347u02M`\252gDp\031\000\225\230\011Q"
 213      30324D60 
 213      AA674470 
 213      19009598 
 213      0951
 214              		.text
 215              		.section	.gnu.lto_.refs.665a7639fb34f980,"",%progbits
 216 0000 789C6362 		.ascii	"x\234cb`b`d\200\002\000\000F\000\006"
 216      60626064 
 216      80020000 
 216      460006
 217              		.text
 218              		.section	.gnu.lto_.decls.665a7639fb34f980,"",%progbits
 219 0000 789CCD59 		.ascii	"x\234\315Y}lS\327\025\277\367\331q\022\342\321\210\016"
 219      7D6C53D7 
 219      15BFF7D9 
 219      7112E2D1 
 219      880E
 220 0012 44D54AB8 		.ascii	"D\325J\270\322\272U\250\301\220\260\255c[\273\304\011"
 220      D2BA55A8 
 220      C190B0AD 
 220      635BBBC4 
 220      09
 221 0023 246B682C 		.ascii	"$kh,\007\264\355/\353a\277\020kI\3549\316F\377\273\204"
ARM GAS  /tmp/cc42I6kA.s 			page 17


 221      07B4ED2F 
 221      EB61BF10 
 221      6B49EC39 
 221      CE46FFBB 
 222 0038 0F75D9CA 		.ascii	"\017u\331\312\322\300X(,1-\204\264\245\015\011m\201"
 222      D2C05828 
 222      2C312D84 
 222      B4A50D09 
 222      6D81
 223 004a 0686010D 		.ascii	"\006\206\001\015e\264JJ:6\252R\222\026E\035j\267\265"
 223      65B44A4A 
 223      3A36AA52 
 223      9216451D 
 223      6AB7B5
 224 005d D5A0DD3A 		.ascii	"\325\240\335:\341\235{\336{\366\273\306\216\337\313"
 224      E19D7BDE 
 224      7BF6BBC6 
 224      8EDFCB
 225 006c AA694F3E 		.ascii	"\252iO>\347^\337w\316\357\376\356\307\273\347\370Y\""
 225      E75EDF77 
 225      CEEFFEEE 
 225      C7BBE7F8 
 225      5922
 226 007e 12095242 		.ascii	"\022\011RB\222p\365\335M\310\006\033!\360!\017\221\364"
 226      9270F5DD 
 226      4DC8061B 
 226      21F0210F 
 226      91F4
 227 0090 2581EC07 		.ascii	"%\201\354\007\271Dn\277x\373|\220B\220)\220\273\001"
 227      B9446EBF 
 227      78FB7C90 
 227      42902990 
 227      BB01
 228 00a2 6B15C8B7 		.ascii	"k\025\310\267A\276\013r\020\332\016\200\314\243\252"
 228      41BE0B72 
 228      10DA0E80 
 228      CCA3AA
 229 00b1 9D936343 		.ascii	"\235\223cC\375; oA}!\310R\250?\017\345\011\220wAFA\256"
 229      FD3B206F 
 229      417D21C8 
 229      52A83F0F 
 229      E5099077 
 230 00c9 819C0299 		.ascii	"\201\234\002\231\0019\015r\035\344\014\347\002\266\347"
 230      01390D72 
 230      1DE40CE7 
 230      02B6E7
 231 00d8 A0B44339 		.ascii	"\240\264C9\014\345U\220\363 c \027@^\007\0317p~\230"
 231      0CE55590 
 231      F3206320 
 231      17405E07 
 231      1937707E 
 232 00ed AADC2641 		.ascii	"\252\334&Aj\241^\007\362}\220G@\352A\326Rq<|\214E\034"
 232      6AA15E07 
 232      F27D9047 
 232      40EA41D6 
 232      52713C7C 
 233 0104 9FA4F98E 		.ascii	"\237\244\371\216\030\306\3079_\006qh\\\257i\0349/\316"
ARM GAS  /tmp/cc42I6kA.s 			page 18


 233      18C6C739 
 233      5F067168 
 233      5CAF691C 
 233      392FCE
 234 0117 89F3A11A 		.ascii	"\211\363\241\032\016\237\307E\360e1\310\2273\372YB\372"
 234      0E9FC745 
 234      F06531C8 
 234      9733FA59 
 234      42FA
 235 0129 587C7A7A 		.ascii	"X|zz\333\337\216\334\305\342\235\211d\362a\262\210\374"
 235      DBDF8EDC 
 235      C5E29D89 
 235      64F261B2 
 235      88FC
 236 013b 9AC115DF 		.ascii	"\232\301\025\337\316\030\215\311\364\241\205\344\207"
 236      CE188DC9 
 236      F4A185E4 
 236      87
 237 0148 54A6F38B 		.ascii	"T\246\363\213\211\013+\316b$E\210L\237\246\213\260f"
 237      890B2BCE 
 237      62244588 
 237      4C9FA68B 
 237      B066
 238 015a C3619212 		.ascii	"\303a\222\022\322\305X'w\254\035\233\277\200<\211(\000"
 238      D2C55827 
 238      77AC1D9B 
 238      BF803C89 
 238      2800
 239 016c 320603D0 		.ascii	"2\006\003\320 \022\363t\214AN\344>r\200\261\356\351"
 239      2012F374 
 239      8C414EE4 
 239      3E7280B1 
 239      EEE9
 240 017e 1BD70FD9 		.ascii	"\033\327\017\331\030+\322\\\\\271\355e:@\357#\371\355"
 240      182BD25C 
 240      5CB9ED65 
 240      3A40EF23 
 240      F9ED
 241 0190 B8E5205D 		.ascii	"\270\345 ]@\226\222g\301\260\233\261\263\253\304qc\307"
 241      40969267 
 241      C1B09BB1 
 241      B3ABC471 
 241      63C7
 242 01a2 2C313AE9 		.ascii	",1:\351dv\325\224\273<K\227f\331Z\344^\022\347\306\027"
 242      6476D594 
 242      BB3C4B97 
 242      66D95AE4 
 242      5E12E7C6 
 243 01b7 27F75116 		.ascii	"'\367Q\026?K\263t?M\365\356\357I\215*\261g\222\272d"
 243      3F4BB374 
 243      3F4DF5EE 
 243      EF498D2A 
 243      B16792BA 
 244 01cc 7A18EC25 		.ascii	"z\030\354%\362\030\025\340\363Bp6C\340\251:il\337\236"
 244      F21815E0 
 244      F3427036 
 244      43E0A93A 
ARM GAS  /tmp/cc42I6kA.s 			page 19


 244      696CDF9E 
 245 01e0 40B64326 		.ascii	"@\266C&\330v&\246&\366\335\305\331\026\223\307\323\213"
 245      D87626A6 
 245      26F6DDC5 
 245      D91693C7 
 245      D38B
 246 01f2 42B22EA5 		.ascii	"B\262.\245\266\012'\272~\177\206v\302z\311t\004\334"
 246      B60A27BA 
 246      7E7F8676 
 246      C27AC974 
 246      04DC
 247 0204 24C22491 		.ascii	"$\302$\221\265y\250\243='\277\005\013*\323\227\021h"
 247      B579A8A3 
 247      3D27BF05 
 247      0B2AD397 
 247      1168
 248 0216 874D0492 		.ascii	"\207M\004\222ia\261\2212~\327\0158\032\336\326*\374"
 248      6961B191 
 248      327ED70D 
 248      381ADED6 
 248      2AFC
 249 0228 44B88358 		.ascii	"D\270\203X5\227\310\036\354\224OV6\242ZU\2754\003a\002"
 249      3597C81E 
 249      EC944F56 
 249      36A25A55 
 249      BD340361 
 250 023d A7FF31D3 		.ascii	"\247\3771\323\217\023\250\317F\277e<\227\260 7'\234"
 250      8F13A8CF 
 250      46BF653C 
 250      97B02037 
 250      279C
 251 024f DDB20E36 		.ascii	"\335\262\0166`\006\254('\271\304\277\214`/Z\006\023"
 251      6006AC28 
 251      27B9C4BF 
 251      8C602F5A 
 251      0613
 252 0261 99DD3282 		.ascii	"\231\3352\202\275d\006\25447\263\236I\003\330q\313`"
 252      BD6406AC 
 252      3437B39E 
 252      4903D871 
 252      CB60
 253 0273 22B3DD46 		.ascii	"\"\263\335F\260Sf\300\026ga\226\3552>^2=\002\247\212"
 253      B05366C0 
 253      16676196 
 253      ED323E5E 
 253      323D02A7 
 254 0288 4C87E9BD 		.ascii	"L\207\351\275\240O\240\036E}\012\365i\324gP\237\003"
 254      A04FA01E 
 254      457D0AF5 
 254      69D46750 
 254      9F03
 255 029a 9DBA2472 		.ascii	"\235\272$r\0269\015\2469\211\217q\276]\306\022\227}"
 255      16390DA6 
 255      39898F71 
 255      BE5DC612 
 255      977D
 256 02ac 7C80EA21 		.ascii	"|\200\352!\361\007S`\302\010]\002\330G\006\2607L\201"
ARM GAS  /tmp/cc42I6kA.s 			page 20


 256      F1075360 
 256      C2085D02 
 256      D84706B0 
 256      374C81
 257 02bf 3D989BD9 		.ascii	"=\230\233\331g\006\260?\233\002\363\346f\326\335\230"
 257      6706B03F 
 257      9B02F3E6 
 257      66D6DD98 
 258 02cf 06BB6A0A 		.ascii	"\006\273j\012,\222\233Y\257\001l\306\024\330\3434\013"
 258      2C929B59 
 258      AF016CC6 
 258      14D8E334 
 258      0B
 259 02e0 35C35E50 		.ascii	"5\303^Pw\301s\270\013\236\307u>\217z\014\365\005\324"
 259      77C173B8 
 259      0B9EC775 
 259      3E8F7A0C 
 259      F505D4
 260 02f3 AFA31E17 		.ascii	"\257\243\036\027\327\377\303\333N65\226\030\260\007"
 260      D7FFC3DB 
 260      4E363596 
 260      18B007
 261 0302 53FB8C58 		.ascii	"S\373\214XC\317\025u\017\320\2224\372z\233\201\315\315"
 261      43CF1575 
 261      0FD09234 
 261      FA7A9B81 
 261      CDCD
 262 0314 0C365F21 		.ascii	"\0146_!\3170\326\003\301\375/\366=,aW]%\262\325\316"
 262      CF30D603 
 262      C1FD2FF6 
 262      3D2C6157 
 262      5D25B2D5 
 263 0329 CDF6D325 		.ascii	"\315\366\323%Y\273Hu\360Ur\220\007\251'\330\266R\212"
 263      59BB4875 
 263      F0557290 
 263      07A927D8 
 263      B6528A
 264 033c 6900D1BC 		.ascii	"i\000\321\274\204\341]\244\222\261A\315'\022\267.8\273"
 264      84E15DA4 
 264      92B141CD 
 264      2712B72E 
 264      38BB
 265 034e 374F2793 		.ascii	"7O'\223K\314'\023\177\312\237L\010\361R\322\001\036"
 265      4BCC2713 
 265      7FCA9F4C 
 265      08F152D2 
 265      011E
 266 0360 20E94462 		.ascii	" \351Db\177\277\015\343\316[\2709~a\317\037v\005\030"
 266      7FBF0DE3 
 266      CE5BB839 
 266      7E61CF1F 
 266      760518
 267 0373 CEE34A66 		.ascii	"\316\343Jf\330\375|\034\303\356\225\374aw\353\226Dr"
 267      D8FD7C1C 
 267      C3EE95FC 
 267      6177EB96 
 267      4472
ARM GAS  /tmp/cc42I6kA.s 			page 21


 268 0385 DC1076B7 		.ascii	"\334\020v\267\314\032+ez\0247\234\231`\326\213#\271"
 268      CC1A2B65 
 268      7A14379C 
 268      9960D68B 
 268      23B9
 269 0397 32B76006 		.ascii	"2\267`\006\264\272\325#~\012\017\322>\313`.\001\254"
 269      B4BAD523 
 269      7E0A0FD2 
 269      3ECB602E 
 269      01AC
 270 03a9 C70876D0 		.ascii	"\307\010v\320\014X\256H\006`\273\214`/X\006\023\231"
 270      0C58AE48 
 270      0660BB8C 
 270      602F5806 
 270      1399
 271 03bb ED36821D 		.ascii	"\3556\202\0355\003\226+\222\001X\257\021\354\230e0#"
 271      3503962B 
 271      920158AF 
 271      11EC9865 
 271      3023
 272 03cd B3CD8963 		.ascii	"\263\315\211c\023\027(\353q\336Iz\030\333\314\342\216"
 272      131728EB 
 272      71DE497A 
 272      18DBCCE2 
 272      8E
 273 03de 5C9B8210 		.ascii	"\\\233\202\0204a\263\232\310\364\257\364Nq\223\356\375"
 273      3461B39A 
 273      C8F4AFF4 
 273      4E7193EE 
 273      FD
 274 03ef D57CBE49 		.ascii	"\325|\276Iy{\376\334\360\267Zn\250G\326Q\034\034\367"
 274      797BFEDC 
 274      F0B75A6E 
 274      A847D651 
 274      1C1CF7
 275 0402 9D4BAAC4 		.ascii	"\235K\252\304\022/O\224\260.\247\236\361\177op\026\342"
 275      122F4F94 
 275      B02EA79E 
 275      F17F6F70 
 275      16E2
 276 0414 9F643E5D 		.ascii	"\237d>]\375\023\222Km\316\317{xb\337b\026?\243\347\264"
 276      FD13924B 
 276      6DCECF7B 
 276      7862DF62 
 276      163FA3E7 
 277 0429 6C3BBBDF 		.ascii	"l;\273\337\320W\251\336\027??R9\355\261\007\360@\270"
 277      D057A9DE 
 277      173F3F52 
 277      39EDB107 
 277      F040B8
 278 043c A1A61019 		.ascii	"\241\246\020\031\007\202y\240\243=\207\324\214\3663"
 278      078279A0 
 278      A33D87D4 
 278      8CF633
 279 044b 043A6FCF 		.ascii	"\004:o\317<\367m\031\031\255M|\252m\305\351J2i#\326"
 279      3CF76D19 
 279      19AD4D7C 
ARM GAS  /tmp/cc42I6kA.s 			page 22


 279      AA6DC5E9 
 279      4A326923 
 280 0460 8C257211 		.ascii	"\214%r\021;\374$\275\377\004\222f\262\331>\234:}&.Y"
 280      3BFC24BD 
 280      FF049266 
 280      B2D93E9C 
 280      3A7D262E 
 281 0475 C62BCD58 		.ascii	"\306+\315X\023\211\274=\327mc\030\271\036\027\377\216"
 281      1389BC3D 
 281      D76D6318 
 281      B91E17FF 
 281      8E
 282 0486 F1EF6331 		.ascii	"\361\357c1\272\276c\346\241\313\226\361iO\360q\343\023"
 282      BABE63E6 
 282      A1CB96F1 
 282      694FF071 
 282      E313
 283 0498 FC9E6530 		.ascii	"\374\236e0\227\000\366\252\021\354}3`\256\334\314N\032"
 283      9700F6AA 
 283      11EC7D33 
 283      60AEDCCC 
 283      4E1A
 284 04aa C13EB40C 		.ascii	"\301>\264\014&2\373\235\021\354c3`\367\317\266(\302"
 284      2632FB9D 
 284      11EC6333 
 284      60F7CFB6 
 284      28C2
 285 04bc FA5C3164 		.ascii	"\372\\1d\311\357`\270\272\212+\365.\352k\250gP\277\217"
 285      C9EF60B8 
 285      BA8A2BF5 
 285      2EEA6BA8 
 285      6750BF8F 
 286 04d0 FA3AEA0F 		.ascii	"\372:\352\017P3\211\353N\324[Qo\227\362\3447\332O\347"
 286      503389EB 
 286      4ED45B51 
 286      6F97F2E4 
 286      37DA4FE7 
 287 04e4 3777DFC3 		.ascii	"7w\337\303O\263\313\230\256\334\310x\326\204\314@\015"
 287      4FB3CB98 
 287      AEDCC878 
 287      D684CC40 
 287      0D
 288 04f5 F5B94E9B 		.ascii	"\365\271N\233.\251$\307\241r\333=-\3550\375\0337\221"
 288      2EA924C7 
 288      A172DB3D 
 288      2DED30FD 
 288      1B3791
 289 0508 DCB99073 		.ascii	"\334\271\220s\374\245\204?\225\0132\317\003~\262\012"
 289      FCA5843F 
 289      950B32CF 
 289      037EB20A 
 290 0518 FD99FA89 		.ascii	"\375\231\372\211k\231E\357\"I\246\335\310\341\211/\210"
 290      6B9945EF 
 290      2249A6DD 
 290      C8E1892F 
 290      88
 291 0529 434652B9 		.ascii	"CFR\271;\003VK*g\206\376\251%\225\352*\035F\263K9\223"
ARM GAS  /tmp/cc42I6kA.s 			page 23


 291      3B03564B 
 291      2A6786FE 
 291      A92595EA 
 291      2A1D46B3 
 292 0540 4A6EA5F9 		.ascii	"Jn\245\371&\236|\3550\304\037I\237\274\341<\256\334"
 292      269E7CED 
 292      30C41F49 
 292      9FBCE13C 
 292      AEDC
 293 0552 4A77DDF9 		.ascii	"Jw\335\371\332\200\352\252\216\371\225<\256\334\212"
 293      DA80EAAA 
 293      8EF9953C 
 293      AEDC8A
 294 0561 E8A96C22 		.ascii	"\350\251l\"\331\265%N\231#\225\314^\312LfwJB2\233%_"
 294      D9B5254E 
 294      992395CC 
 294      5ECA4C66 
 294      774A4232 
 295 0578 8CDBF40E 		.ascii	"\214\333\364\016V\246\026a\372\323\017\336\3709\035"
 295      56A61661 
 295      FAD30FDE 
 295      F8391D
 296 0587 66AC54A6 		.ascii	"f\254T\246{%\236x\336\314\230\263\274@\274\363>)#4~"
 296      7B259E78 
 296      DECC98B3 
 296      BC40BCF3 
 296      3E292334 
 297 059c 3A858927 		.ascii	":\205\211'o\317\237x~>\265K\213\351\3529\320\351\240"
 297      6FCF9F78 
 297      7E3EB54B 
 297      8BE9EA39 
 297      D0E9A0
 298 05af 1AE6DC32 		.ascii	"\032\346\3342\306\177O\031\016\225m\226\301\\\002\330"
 298      C67F4F19 
 298      0E956D96 
 298      C15C02D8 
 299 05bf 2D235897 		.ascii	"-#X\227\031\260Y2\306\356\367\306x*\245\303\355\260"
 299      19B05932 
 299      C6EEF7C6 
 299      782AA5C3 
 299      EDB0
 300 05d1 0C2772EB 		.ascii	"\014'r\353\021\341~c\006n\226\254q\227\010\027\267\014"
 300      11E17E63 
 300      066E96AC 
 300      71970817 
 300      B70C
 301 05e3 27B2DB2D 		.ascii	"'\262\333-\302\0352\0037KD\354\025\341\206,\303\211"
 301      C21D3203 
 301      374B44EC 
 301      15E1862C 
 301      C389
 302 05f5 EC9E12E1 		.ascii	"\354\236\022\341\216\231\201s\345f\267O\204;i\031Nd"
 302      8E998173 
 302      E566B74F 
 302      843B6919 
 302      4E64
 303 0607 D727C225 		.ascii	"\327'\302%\314\300e\213\214\032\334\021\021n\3142\234"
ARM GAS  /tmp/cc42I6kA.s 			page 24


 303      CCC0658B 
 303      8C1ADC11 
 303      116ECC32 
 303      9C
 304 0618 C86E4484 		.ascii	"\310nD\204\0337\003\267<\013\273l\227\3610\221i\277"
 304      1B3703B7 
 304      3C0BBB6C 
 304      97F13091 
 304      69BF
 305 062a C4E3761C 		.ascii	"\304\343v\034#\360\323\250\017\240\036@=\210\3729\324"
 305      23F0D3A8 
 305      0FA01E40 
 305      3D88FA39 
 305      D4
 306 063b 8751BF88 		.ascii	"\207Q\277\210\372\010\352\021\324/\241~\005\365qc\014"
 306      FA08EA11 
 306      D42FA17E 
 306      05F57163 
 306      0C
 307 064c CF88C57B 		.ascii	"\317\210\305{s\320\347\214^\225J\262ze\377\243@|\215"
 307      73D0E78C 
 307      5E954AB2 
 307      7A65FFA3 
 307      407C8D
 308 065f 23D31730 		.ascii	"#\323\0270\367\030\022\336\245X~_\227\213\332h\232\232"
 308      F71812DE 
 308      A5587E5F 
 308      978BDA68 
 308      9A9A
 309 0671 1936E4BF 		.ascii	"\0316\344\277g\222\012\360\211/\340\365\000\177\347"
 309      67920AF0 
 309      892FE0F5 
 309      007FE7
 310 0680 92F868FA 		.ascii	"\222\370h\372\340\324\016\355?\234\323\214Z\370\027"
 310      E0D40EED 
 310      3F9CD38C 
 310      5AF817
 311 068f 2721092F 		.ascii	"'!\011/^\324\314(\365E\233\233\214\244\340\217\216l"
 311      5ED4CC28 
 311      F5459B9B 
 311      8CA4E08F 
 311      8E6C
 312 06a1 4901DBA3 		.ascii	"I\001\333\243\324\252\356\220\273\243\305i)Wd\346V\272"
 312      D4AAEE90 
 312      BBA3C569 
 312      295764E6 
 312      56BA
 313 06b3 DBDEF3CE 		.ascii	"\333\336\363\316n\252v%\3237\2514\253\243FH{;5\312\274"
 313      6EAA7625 
 313      D337A934 
 313      ABA34648 
 313      7B3B35CA 
 314 06c8 8B53F19C 		.ascii	"\213S\361\234;\011O\30191\236\177\215\014\340\0379\343"
 314      3B094FC1 
 314      39319E7F 
 314      8D0CE01F 
 314      39E3
ARM GAS  /tmp/cc42I6kA.s 			page 25


 315 06da 639BF95F 		.ascii	"c\233\371_3\206e7\336g#\361\322\377\223\233\344\233"
 315      33866537 
 315      DE6723F1 
 315      D2FF939B 
 315      E49B
 316 06ec CB96B93D 		.ascii	"\313\226\271=\315\241\015\241\206Fw\270\335\335,\267"
 316      CDA10DA1 
 316      864677B8 
 316      DDDD2CB7 
 317 06fc B823E168 		.ascii	"\270#\341h\254\335\335\270nmE\271\273\276\276\332\275"
 317      ACDDDDB8 
 317      6E6D45B9 
 317      BBBEBEDA 
 317      BD
 318 070d C65BD7F0 		.ascii	"\306[\327\360\323r~\313\037\001ii\011.\013\314\321\257"
 318      D3727ECB 
 318      1F016969 
 318      092E0BCC 
 318      D1AF
 319 071f 9938D63C 		.ascii	"\2318\326<\272\336\345!\013\332c\255\025\345\376\215"
 319      BADEE521 
 319      0BDA63AD 
 319      15E5FE8D 
 320 072f 9150D8DF 		.ascii	"\221P\330\337\256\304:\"~pmkB\371\272\2739\334\252\270"
 320      AEC43A22 
 320      7E706D6B 
 320      42F9BABB 
 320      39DCAAB8 
 321 0743 A34ABB22 		.ascii	"\243J\273\"G\003\315\000\020\015\376L\216*n9\332Z\356"
 321      4703CD00 
 321      100DFE4C 
 321      8E2A6E39 
 321      DA5AEE
 322 0756 DE180894 		.ascii	"\336\030\010\224A\245Li\335\240\004\203J0\325\320\026"
 322      41A54C69 
 322      DDA00483 
 322      4A30D5D0 
 322      16
 323 0767 6E53CA14 		.ascii	"nS\312\024yC\250l\245\377\301\262\362\345+V\376\244"
 323      7943A86C 
 323      A5FFC1B2 
 323      F2E52B56 
 323      FEA4
 324 0779 DC2DDC70 		.ascii	"\334-\334p\207\332\002-\035A\305\335\036\013\206\332"
 324      87DA022D 
 324      1D41C5DD 
 324      1E0B86DA 
 325 0789 62C0A6A8 		.ascii	"b\300\246\250\003J\340\021\333B\377w\275\267\312\201"
 325      034AE011 
 325      DB42FF77 
 325      BDB7CA81 
 326 0799 E6509BE2 		.ascii	"\346P\233\342\366\007\225&\271\243%\346\217=\026Q\332"
 326      F6079526 
 326      B9A325E6 
 326      8F3D1651 
 326      DA
 327 07aa 81CD3CBF 		.ascii	"\201\315<\277_\347S\320\032\016*QG\230\337\212\026\206"
ARM GAS  /tmp/cc42I6kA.s 			page 26


 327      5FE753D0 
 327      1A0E2A51 
 327      4798DF8A 
 327      1686
 328 07bc DB238A12 		.ascii	"\333#\212\022\214\026D:\"\301\250-\034\214\332\345\246"
 328      8C16443A 
 328      22C1A82D 
 328      1C8CDAE5 
 328      A6
 329 07cd 680B57   		.ascii	"h\013W"
 330 07d0 CD0E6F65 		.ascii	"\315\016oe\265\034\223\035\336*\265\360\250E\265Z\324"
 330      B51C931D 
 330      DE2AB5F0 
 330      A845B55A 
 330      D4
 331 07e1 A8C56A5E 		.ascii	"\250\305j^\024{+\353=\341\266\246\320\306/\351\353\341"
 331      147B2BEB 
 331      3DE1B6A6 
 331      D0C62FE9 
 331      EBE1
 332 07f3 0FB58562 		.ascii	"\017\265\205b\216\0006:\015+\022+X\333P]\343s4\254\373"
 332      8E00363A 
 332      0D2B122B 
 332      58DB505D 
 332      E37334AC 
 333 0808 91B7C657 		.ascii	"\221\267\306W\330\320\350\255\251\251\366\025x\327{"
 333      D8D0E8AD 
 333      A9A9F615 
 333      78D77B
 334 0817 AB7DB63A 		.ascii	"\253}\266:\220\206j\037\375\001N\336\212o\370c\032o"
 334      90866A1F 
 334      FD014EDE 
 334      8A6FF863 
 334      1A6F
 335 0829 5EB5C162 		.ascii	"^\265\301b\026\004Z`\352h\255\275\252\321\347\263\327"
 335      16045A60 
 335      EA68ADBD 
 335      AAD1E7B3 
 335      D7
 336 083a 7B1EF1D9 		.ascii	"{\036\361\331+W\373\352\271\252\265U\371|\363Ba\276"
 336      2B57FBEA 
 336      B9AAB555 
 336      F97CF342 
 336      61BE
 337 084c 5542417F 		.ascii	"UBA\177\314\251V[\345\366\037\373cE\2410\037\265?\266"
 337      CCA9565B 
 337      E5F61FFB 
 337      6345A130 
 337      1FB53FB6 
 338 0860 30C50FD0 		.ascii	"0\305\017\3206F\303\035\021\336n\347\226vnj\347_W\211"
 338      3646C31D 
 338      11DE6EE7 
 338      96766E6A 
 338      E75F5789 
 339 0874 1B30106E 		.ascii	"\0330\020nm\015\267\271\225M1\267gmc]#\354Cu+\256\256"
 339      6D0DB7B9 
 339      954D31B7 
ARM GAS  /tmp/cc42I6kA.s 			page 27


 339      676D635D 
 339      23EC4375 
 340 088b D8B4C98D 		.ascii	"\330\264\311\215ck\252X^\261)\000\363\\\342\363x\374"
 340      636BAA58 
 340      5EB12900 
 340      F35CE2F3 
 340      78FC
 341 089d EB6066AB 		.ascii	"\353`f\253\225&\311\343\263{V\257\361\331<u\276\242"
 341      9526C9E3 
 341      B37B56AF 
 341      F1D93C75 
 341      BEA2
 342 08af 4A6F55B9 		.ascii	"JoU\271\257q\035VV\360\212\243\262\266\252\346Q_!\277"
 342      AF711D56 
 342      56F08AA3 
 342      B2B6AAE6 
 342      515F21BF 
 343 08c3 A1952BA0 		.ascii	"\241\225+\240\264WU{\300\243\021\032j\253\270]\001\207"
 343      B457557B 
 343      C0A3111A 
 343      6AABB85D 
 343      0187
 344 08d5 28475D51 		.ascii	"(G]Q\304'\225Oc\001W\221\377\000q\003\027\316"
 344      C427954F 
 344      63015791 
 344      FF007103 
 344      17CE
 345              		.text
 346              		.section	.gnu.lto_.symtab.665a7639fb34f980,"",%progbits
 347 0000 5F70616C 		.ascii	"_pal_lld_init\000\000\000\000\000\000\000\000\000\000"
 347      5F6C6C64 
 347      5F696E69 
 347      74000000 
 347      00000000 
 348 0017 0000A100 		.ascii	"\000\000\241\000\000\000_pal_lld_setgroupmode\000\000"
 348      00005F70 
 348      616C5F6C 
 348      6C645F73 
 348      65746772 
 349 0034 00000000 		.ascii	"\000\000\000\000\000\000\000\000\000\000\325\000\000"
 349      00000000 
 349      0000D500 
 349      00
 350 0041 00       		.ascii	"\000"
 351              		.text
 352              		.section	.gnu.lto_.opts,"",%progbits
 353 0000 272D6D63 		.ascii	"'-mcpu=cortex-m4' '-mno-thumb-interwork' '-mthumb' "
 353      70753D63 
 353      6F727465 
 353      782D6D34 
 353      2720272D 
 354 0033 272D6767 		.ascii	"'-ggdb' '-O2' '-fomit-frame-pointer' '-falign-funct"
 354      64622720 
 354      272D4F32 
 354      2720272D 
 354      666F6D69 
 355 0066 696F6E73 		.ascii	"ions=16' '-ffunction-sections' '-fdata-sections' '-"
ARM GAS  /tmp/cc42I6kA.s 			page 28


 355      3D313627 
 355      20272D66 
 355      66756E63 
 355      74696F6E 
 356 0099 666E6F2D 		.ascii	"fno-common' '-flto'\000"
 356      636F6D6D 
 356      6F6E2720 
 356      272D666C 
 356      746F2700 
 357              		.text
 358              		.cfi_sections	.debug_frame
 359              		.section	.text._pal_lld_init,"ax",%progbits
 360              		.align	2
 361              		.p2align 4,,15
 362              		.global	_pal_lld_init
 363              		.thumb
 364              		.thumb_func
 365              		.type	_pal_lld_init, %function
 366              	_pal_lld_init:
 367              	.LFB271:
 368              		.file 1 "../ChibiOS/os/hal/ports/STM32/LLD/GPIOv2/hal_pal_lld.c"
 369              		.loc 1 88 0
 370              		.cfi_startproc
 371              		@ args = 0, pretend = 0, frame = 0
 372              		@ frame_needed = 0, uses_anonymous_args = 0
 373              		@ link register save eliminated.
 374              	.LVL0:
 375 0000 F0B4     		push	{r4, r5, r6, r7}
 376              		.cfi_def_cfa_offset 16
 377              		.cfi_offset 4, -16
 378              		.cfi_offset 5, -12
 379              		.cfi_offset 6, -8
 380              		.cfi_offset 7, -4
 381              		.loc 1 102 0
 382 0002 364E     		ldr	r6, .L2
 383              	.LBB14:
 384              	.LBB15:
 385              		.loc 1 63 0
 386 0004 364D     		ldr	r5, .L2+4
 387              	.LBE15:
 388              	.LBE14:
 389              		.loc 1 102 0
 390 0006 7769     		ldr	r7, [r6, #20]
 391              	.LBB17:
 392              	.LBB18:
 393              		.loc 1 63 0
 394 0008 364C     		ldr	r4, .L2+8
 395              	.LBE18:
 396              	.LBE17:
 397              	.LBB20:
 398              	.LBB21:
 399 000a 3749     		ldr	r1, .L2+12
 400              	.LBE21:
 401              	.LBE20:
 402              	.LBB23:
 403              	.LBB24:
 404 000c 374A     		ldr	r2, .L2+16
ARM GAS  /tmp/cc42I6kA.s 			page 29


 405              	.LBE24:
 406              	.LBE23:
 407              	.LBB26:
 408              	.LBB27:
 409 000e 384B     		ldr	r3, .L2+20
 410              	.LBE27:
 411              	.LBE26:
 412              		.loc 1 102 0
 413 0010 47F4FC07 		orr	r7, r7, #8257536
 414 0014 7761     		str	r7, [r6, #20]
 415              	.LVL1:
 416              	.LBB29:
 417              	.LBB30:
 418              		.loc 1 63 0
 419 0016 4FF09046 		mov	r6, #1207959552
 420 001a 4768     		ldr	r7, [r0, #4]
 421 001c 7760     		str	r7, [r6, #4]
 422              		.loc 1 64 0
 423 001e 8768     		ldr	r7, [r0, #8]
 424 0020 B760     		str	r7, [r6, #8]
 425              		.loc 1 65 0
 426 0022 C768     		ldr	r7, [r0, #12]
 427 0024 F760     		str	r7, [r6, #12]
 428              		.loc 1 66 0
 429 0026 0769     		ldr	r7, [r0, #16]
 430 0028 7761     		str	r7, [r6, #20]
 431              		.loc 1 67 0
 432 002a 4769     		ldr	r7, [r0, #20]
 433 002c 3762     		str	r7, [r6, #32]
 434              		.loc 1 68 0
 435 002e 8769     		ldr	r7, [r0, #24]
 436 0030 7762     		str	r7, [r6, #36]
 437              		.loc 1 69 0
 438 0032 0768     		ldr	r7, [r0]
 439 0034 3760     		str	r7, [r6]
 440              	.LVL2:
 441              	.LBE30:
 442              	.LBE29:
 443              	.LBB31:
 444              	.LBB16:
 445              		.loc 1 63 0
 446 0036 066A     		ldr	r6, [r0, #32]
 447 0038 6E60     		str	r6, [r5, #4]
 448              		.loc 1 64 0
 449 003a 466A     		ldr	r6, [r0, #36]
 450 003c AE60     		str	r6, [r5, #8]
 451              		.loc 1 65 0
 452 003e 866A     		ldr	r6, [r0, #40]
 453 0040 EE60     		str	r6, [r5, #12]
 454              		.loc 1 66 0
 455 0042 C66A     		ldr	r6, [r0, #44]
 456 0044 6E61     		str	r6, [r5, #20]
 457              		.loc 1 67 0
 458 0046 066B     		ldr	r6, [r0, #48]
 459 0048 2E62     		str	r6, [r5, #32]
 460              		.loc 1 68 0
 461 004a 466B     		ldr	r6, [r0, #52]
ARM GAS  /tmp/cc42I6kA.s 			page 30


 462 004c 6E62     		str	r6, [r5, #36]
 463              		.loc 1 69 0
 464 004e C669     		ldr	r6, [r0, #28]
 465 0050 2E60     		str	r6, [r5]
 466              	.LVL3:
 467              	.LBE16:
 468              	.LBE31:
 469              	.LBB32:
 470              	.LBB19:
 471              		.loc 1 63 0
 472 0052 C56B     		ldr	r5, [r0, #60]
 473 0054 6560     		str	r5, [r4, #4]
 474              		.loc 1 64 0
 475 0056 056C     		ldr	r5, [r0, #64]
 476 0058 A560     		str	r5, [r4, #8]
 477              		.loc 1 65 0
 478 005a 456C     		ldr	r5, [r0, #68]
 479 005c E560     		str	r5, [r4, #12]
 480              		.loc 1 66 0
 481 005e 856C     		ldr	r5, [r0, #72]
 482 0060 6561     		str	r5, [r4, #20]
 483              		.loc 1 67 0
 484 0062 C56C     		ldr	r5, [r0, #76]
 485 0064 2562     		str	r5, [r4, #32]
 486              		.loc 1 68 0
 487 0066 056D     		ldr	r5, [r0, #80]
 488 0068 6562     		str	r5, [r4, #36]
 489              		.loc 1 69 0
 490 006a 856B     		ldr	r5, [r0, #56]
 491 006c 2560     		str	r5, [r4]
 492              	.LVL4:
 493              	.LBE19:
 494              	.LBE32:
 495              	.LBB33:
 496              	.LBB22:
 497              		.loc 1 63 0
 498 006e 846D     		ldr	r4, [r0, #88]
 499 0070 4C60     		str	r4, [r1, #4]
 500              		.loc 1 64 0
 501 0072 C46D     		ldr	r4, [r0, #92]
 502 0074 8C60     		str	r4, [r1, #8]
 503              		.loc 1 65 0
 504 0076 046E     		ldr	r4, [r0, #96]
 505 0078 CC60     		str	r4, [r1, #12]
 506              		.loc 1 66 0
 507 007a 446E     		ldr	r4, [r0, #100]
 508 007c 4C61     		str	r4, [r1, #20]
 509              		.loc 1 67 0
 510 007e 846E     		ldr	r4, [r0, #104]
 511 0080 0C62     		str	r4, [r1, #32]
 512              		.loc 1 68 0
 513 0082 C46E     		ldr	r4, [r0, #108]
 514 0084 4C62     		str	r4, [r1, #36]
 515              		.loc 1 69 0
 516 0086 446D     		ldr	r4, [r0, #84]
 517 0088 0C60     		str	r4, [r1]
 518              	.LVL5:
ARM GAS  /tmp/cc42I6kA.s 			page 31


 519              	.LBE22:
 520              	.LBE33:
 521              	.LBB34:
 522              	.LBB25:
 523              		.loc 1 63 0
 524 008a 416F     		ldr	r1, [r0, #116]
 525 008c 5160     		str	r1, [r2, #4]
 526              		.loc 1 64 0
 527 008e 816F     		ldr	r1, [r0, #120]
 528 0090 9160     		str	r1, [r2, #8]
 529              		.loc 1 65 0
 530 0092 C16F     		ldr	r1, [r0, #124]
 531 0094 D160     		str	r1, [r2, #12]
 532              		.loc 1 66 0
 533 0096 D0F88010 		ldr	r1, [r0, #128]
 534 009a 5161     		str	r1, [r2, #20]
 535              		.loc 1 67 0
 536 009c D0F88410 		ldr	r1, [r0, #132]
 537 00a0 1162     		str	r1, [r2, #32]
 538              		.loc 1 68 0
 539 00a2 D0F88810 		ldr	r1, [r0, #136]
 540 00a6 5162     		str	r1, [r2, #36]
 541              		.loc 1 69 0
 542 00a8 016F     		ldr	r1, [r0, #112]
 543 00aa 1160     		str	r1, [r2]
 544              	.LVL6:
 545              	.LBE25:
 546              	.LBE34:
 547              	.LBB35:
 548              	.LBB28:
 549              		.loc 1 63 0
 550 00ac D0F89020 		ldr	r2, [r0, #144]
 551 00b0 5A60     		str	r2, [r3, #4]
 552              		.loc 1 64 0
 553 00b2 D0F89420 		ldr	r2, [r0, #148]
 554 00b6 9A60     		str	r2, [r3, #8]
 555              		.loc 1 65 0
 556 00b8 D0F89820 		ldr	r2, [r0, #152]
 557 00bc DA60     		str	r2, [r3, #12]
 558              		.loc 1 66 0
 559 00be D0F89C20 		ldr	r2, [r0, #156]
 560 00c2 5A61     		str	r2, [r3, #20]
 561              		.loc 1 67 0
 562 00c4 D0F8A020 		ldr	r2, [r0, #160]
 563 00c8 1A62     		str	r2, [r3, #32]
 564              		.loc 1 68 0
 565 00ca D0F8A420 		ldr	r2, [r0, #164]
 566 00ce 5A62     		str	r2, [r3, #36]
 567              		.loc 1 69 0
 568 00d0 D0F88C20 		ldr	r2, [r0, #140]
 569 00d4 1A60     		str	r2, [r3]
 570              	.LBE28:
 571              	.LBE35:
 572              		.loc 1 144 0
 573 00d6 F0BC     		pop	{r4, r5, r6, r7}
 574 00d8 7047     		bx	lr
 575              	.L3:
ARM GAS  /tmp/cc42I6kA.s 			page 32


 576 00da 00BF     		.align	2
 577              	.L2:
 578 00dc 00100240 		.word	1073876992
 579 00e0 00040048 		.word	1207960576
 580 00e4 00080048 		.word	1207961600
 581 00e8 000C0048 		.word	1207962624
 582 00ec 00100048 		.word	1207963648
 583 00f0 00140048 		.word	1207964672
 584              		.cfi_endproc
 585              	.LFE271:
 586              		.size	_pal_lld_init, .-_pal_lld_init
 587 00f4 AFF30080 		.section	.text._pal_lld_setgroupmode,"ax",%progbits
 587      AFF30080 
 587      AFF30080 
 588              		.align	2
 589              		.p2align 4,,15
 590              		.global	_pal_lld_setgroupmode
 591              		.thumb
 592              		.thumb_func
 593              		.type	_pal_lld_setgroupmode, %function
 594              	_pal_lld_setgroupmode:
 595              	.LFB272:
 596              		.loc 1 161 0
 597              		.cfi_startproc
 598              		@ args = 0, pretend = 0, frame = 0
 599              		@ frame_needed = 0, uses_anonymous_args = 0
 600              		@ link register save eliminated.
 601              	.LVL7:
 602 0000 2DE9F00F 		push	{r4, r5, r6, r7, r8, r9, r10, fp}
 603              		.cfi_def_cfa_offset 32
 604              		.cfi_offset 4, -32
 605              		.cfi_offset 5, -28
 606              		.cfi_offset 6, -24
 607              		.cfi_offset 7, -20
 608              		.cfi_offset 8, -16
 609              		.cfi_offset 9, -12
 610              		.cfi_offset 10, -8
 611              		.cfi_offset 11, -4
 612              		.loc 1 168 0
 613 0004 0023     		movs	r3, #0
 614              		.loc 1 163 0
 615 0006 02F00304 		and	r4, r2, #3
 616              	.LVL8:
 617              		.loc 1 164 0
 618 000a C2F38007 		ubfx	r7, r2, #2, #1
 619              	.LVL9:
 620              		.loc 1 165 0
 621 000e C2F3C106 		ubfx	r6, r2, #3, #2
 622              	.LVL10:
 623              		.loc 1 166 0
 624 0012 C2F34115 		ubfx	r5, r2, #5, #2
 625              	.LVL11:
 626              		.loc 1 167 0
 627 0016 C2F3C31B 		ubfx	fp, r2, #7, #4
 628              	.LVL12:
 629              	.LBB36:
 630              		.loc 1 176 0
ARM GAS  /tmp/cc42I6kA.s 			page 33


 631 001a 4FF00F0A 		mov	r10, #15
 632 001e 0CE0     		b	.L11
 633              	.LVL13:
 634              	.L17:
 635              		.loc 1 194 0
 636 0020 026A     		ldr	r2, [r0, #32]
 637 0022 22EA0C0C 		bic	ip, r2, ip
 638              	.LVL14:
 639 0026 4CEA0802 		orr	r2, ip, r8
 640 002a 0262     		str	r2, [r0, #32]
 641              	.LVL15:
 642              	.L5:
 643              	.LBE36:
 644              		.loc 1 200 0
 645 002c 4908     		lsrs	r1, r1, #1
 646              	.LVL16:
 647 002e 40D0     		beq	.L4
 648              	.LVL17:
 649              	.L18:
 650              		.loc 1 202 0
 651 0030 7F00     		lsls	r7, r7, #1
 652              	.LVL18:
 653              		.loc 1 203 0
 654 0032 B600     		lsls	r6, r6, #2
 655              	.LVL19:
 656              		.loc 1 204 0
 657 0034 AD00     		lsls	r5, r5, #2
 658              	.LVL20:
 659              		.loc 1 205 0
 660 0036 A400     		lsls	r4, r4, #2
 661              	.LVL21:
 662              		.loc 1 206 0
 663 0038 0133     		adds	r3, r3, #1
 664              	.LVL22:
 665              	.L11:
 666              		.loc 1 170 0
 667 003a CA07     		lsls	r2, r1, #31
 668 003c F6D5     		bpl	.L5
 669              	.LBB37:
 670              		.loc 1 177 0
 671 003e 4268     		ldr	r2, [r0, #4]
 672              		.loc 1 174 0
 673 0040 4FF00108 		mov	r8, #1
 674 0044 08FA03FC 		lsl	ip, r8, r3
 675              		.loc 1 177 0
 676 0048 22EA0C02 		bic	r2, r2, ip
 677 004c 3A43     		orrs	r2, r2, r7
 678 004e 4260     		str	r2, [r0, #4]
 679 0050 03FA08F2 		lsl	r2, r3, r8
 680              		.loc 1 175 0
 681 0054 4FF00308 		mov	r8, #3
 682              		.loc 1 178 0
 683 0058 D0F808C0 		ldr	ip, [r0, #8]
 684              		.loc 1 175 0
 685 005c 08FA02F2 		lsl	r2, r8, r2
 686              		.loc 1 178 0
 687 0060 D243     		mvns	r2, r2
ARM GAS  /tmp/cc42I6kA.s 			page 34


 688 0062 02EA0C0C 		and	ip, r2, ip
 689 0066 4CEA060C 		orr	ip, ip, r6
 690 006a C0F808C0 		str	ip, [r0, #8]
 691              		.loc 1 179 0
 692 006e D0F80C80 		ldr	r8, [r0, #12]
 693              		.loc 1 173 0
 694 0072 03F0070C 		and	ip, r3, #7
 695              		.loc 1 179 0
 696 0076 02EA0808 		and	r8, r2, r8
 697 007a 48EA0508 		orr	r8, r8, r5
 698              		.loc 1 173 0
 699 007e 4FEA8C0C 		lsl	ip, ip, #2
 700              		.loc 1 180 0
 701 0082 022C     		cmp	r4, #2
 702              		.loc 1 179 0
 703 0084 C0F80C80 		str	r8, [r0, #12]
 704              		.loc 1 173 0
 705 0088 0BFA0CF8 		lsl	r8, fp, ip
 706              	.LVL23:
 707              		.loc 1 176 0
 708 008c 0AFA0CFC 		lsl	ip, r10, ip
 709              	.LVL24:
 710              		.loc 1 180 0
 711 0090 12D0     		beq	.L16
 712              		.loc 1 192 0
 713 0092 D0F80090 		ldr	r9, [r0]
 714 0096 02EA0902 		and	r2, r2, r9
 715              	.LVL25:
 716 009a 2243     		orrs	r2, r2, r4
 717              		.loc 1 193 0
 718 009c 072B     		cmp	r3, #7
 719              		.loc 1 192 0
 720 009e 0260     		str	r2, [r0]
 721              		.loc 1 193 0
 722 00a0 BED9     		bls	.L17
 723              		.loc 1 196 0
 724 00a2 426A     		ldr	r2, [r0, #36]
 725 00a4 22EA0C0C 		bic	ip, r2, ip
 726              	.LVL26:
 727 00a8 4CEA0802 		orr	r2, ip, r8
 728              	.LBE37:
 729              		.loc 1 200 0
 730 00ac 4908     		lsrs	r1, r1, #1
 731              	.LVL27:
 732              	.LBB38:
 733              		.loc 1 196 0
 734 00ae 4262     		str	r2, [r0, #36]
 735              	.LBE38:
 736              		.loc 1 200 0
 737 00b0 BED1     		bne	.L18
 738              	.LVL28:
 739              	.L4:
 740              		.loc 1 208 0
 741 00b2 BDE8F00F 		pop	{r4, r5, r6, r7, r8, r9, r10, fp}
 742              	.LVL29:
 743 00b6 7047     		bx	lr
 744              	.LVL30:
ARM GAS  /tmp/cc42I6kA.s 			page 35


 745              	.L16:
 746              	.LBB39:
 747              		.loc 1 183 0
 748 00b8 072B     		cmp	r3, #7
 749 00ba 0FD8     		bhi	.L7
 750              		.loc 1 184 0
 751 00bc D0F82090 		ldr	r9, [r0, #32]
 752 00c0 29EA0C0C 		bic	ip, r9, ip
 753              	.LVL31:
 754 00c4 4CEA0808 		orr	r8, ip, r8
 755              	.LVL32:
 756 00c8 C0F82080 		str	r8, [r0, #32]
 757              	.L8:
 758              		.loc 1 187 0 discriminator 1
 759 00cc D0F800C0 		ldr	ip, [r0]
 760 00d0 02EA0C02 		and	r2, r2, ip
 761 00d4 42F00202 		orr	r2, r2, #2
 762 00d8 0260     		str	r2, [r0]
 763 00da A7E7     		b	.L5
 764              	.LVL33:
 765              	.L7:
 766              		.loc 1 186 0
 767 00dc D0F82490 		ldr	r9, [r0, #36]
 768 00e0 29EA0C0C 		bic	ip, r9, ip
 769              	.LVL34:
 770 00e4 4CEA0808 		orr	r8, ip, r8
 771              	.LVL35:
 772 00e8 C0F82480 		str	r8, [r0, #36]
 773 00ec EEE7     		b	.L8
 774              	.LBE39:
 775              		.cfi_endproc
 776              	.LFE272:
 777              		.size	_pal_lld_setgroupmode, .-_pal_lld_setgroupmode
 778 00ee 00BF     		.text
 779              	.Letext0:
 780              		.file 2 "/nfs/nfs5/home/research/hardware/arm2/gcc-arm-embedded/gcc-arm-none-eabi-4_8-2014q2/arm-n
 781              		.file 3 "/nfs/nfs5/home/research/hardware/arm2/gcc-arm-embedded/gcc-arm-none-eabi-4_8-2014q2/arm-n
 782              		.file 4 "../ChibiOS/os/common/ports/ARMCMx/compilers/GCC/chtypes.h"
 783              		.file 5 "../ChibiOS/os/rt/include/chsystypes.h"
 784              		.file 6 "../ChibiOS/os/rt/include/chschd.h"
 785              		.file 7 "../ChibiOS/os/common/ext/CMSIS/ST/STM32F3xx/stm32f303xc.h"
 786              		.file 8 "../ChibiOS/os/common/ports/ARMCMx/chcore.h"
 787              		.file 9 "../ChibiOS/os/common/ports/ARMCMx/chcore_v7m.h"
 788              		.file 10 "../ChibiOS/os/rt/include/chtm.h"
 789              		.file 11 "../ChibiOS/os/rt/include/chsem.h"
 790              		.file 12 "../ChibiOS/os/rt/include/chmtx.h"
 791              		.file 13 "../ChibiOS/os/hal/ports/STM32/LLD/GPIOv2/hal_pal_lld.h"
 792              		.file 14 "../ChibiOS/os/common/ext/CMSIS/include/core_cm4.h"
 793              		.section	.debug_info,"",%progbits
 794              	.Ldebug_info0:
 795 0000 D70A0000 		.4byte	0xad7
 796 0004 0400     		.2byte	0x4
 797 0006 00000000 		.4byte	.Ldebug_abbrev0
 798 000a 04       		.byte	0x4
 799 000b 01       		.uleb128 0x1
 800 000c 51050000 		.4byte	.LASF140
 801 0010 01       		.byte	0x1
ARM GAS  /tmp/cc42I6kA.s 			page 36


 802 0011 14050000 		.4byte	.LASF141
 803 0015 60030000 		.4byte	.LASF142
 804 0019 A0000000 		.4byte	.Ldebug_ranges0+0xa0
 805 001d 00000000 		.4byte	0
 806 0021 00000000 		.4byte	.Ldebug_line0
 807 0025 02       		.uleb128 0x2
 808 0026 04       		.byte	0x4
 809 0027 05       		.byte	0x5
 810 0028 696E7400 		.ascii	"int\000"
 811 002c 03       		.uleb128 0x3
 812 002d 04       		.byte	0x4
 813 002e 07       		.byte	0x7
 814 002f CD010000 		.4byte	.LASF0
 815 0033 03       		.uleb128 0x3
 816 0034 01       		.byte	0x1
 817 0035 06       		.byte	0x6
 818 0036 FB000000 		.4byte	.LASF1
 819 003a 04       		.uleb128 0x4
 820 003b 3C000000 		.4byte	.LASF4
 821 003f 02       		.byte	0x2
 822 0040 1C       		.byte	0x1c
 823 0041 45000000 		.4byte	0x45
 824 0045 03       		.uleb128 0x3
 825 0046 01       		.byte	0x1
 826 0047 08       		.byte	0x8
 827 0048 AC030000 		.4byte	.LASF2
 828 004c 03       		.uleb128 0x3
 829 004d 02       		.byte	0x2
 830 004e 05       		.byte	0x5
 831 004f BF030000 		.4byte	.LASF3
 832 0053 04       		.uleb128 0x4
 833 0054 55040000 		.4byte	.LASF5
 834 0058 02       		.byte	0x2
 835 0059 26       		.byte	0x26
 836 005a 5E000000 		.4byte	0x5e
 837 005e 03       		.uleb128 0x3
 838 005f 02       		.byte	0x2
 839 0060 07       		.byte	0x7
 840 0061 18020000 		.4byte	.LASF6
 841 0065 04       		.uleb128 0x4
 842 0066 72020000 		.4byte	.LASF7
 843 006a 02       		.byte	0x2
 844 006b 37       		.byte	0x37
 845 006c 70000000 		.4byte	0x70
 846 0070 03       		.uleb128 0x3
 847 0071 04       		.byte	0x4
 848 0072 05       		.byte	0x5
 849 0073 3D010000 		.4byte	.LASF8
 850 0077 04       		.uleb128 0x4
 851 0078 7E010000 		.4byte	.LASF9
 852 007c 02       		.byte	0x2
 853 007d 38       		.byte	0x38
 854 007e 82000000 		.4byte	0x82
 855 0082 03       		.uleb128 0x3
 856 0083 04       		.byte	0x4
 857 0084 07       		.byte	0x7
 858 0085 E1010000 		.4byte	.LASF10
ARM GAS  /tmp/cc42I6kA.s 			page 37


 859 0089 03       		.uleb128 0x3
 860 008a 08       		.byte	0x8
 861 008b 05       		.byte	0x5
 862 008c ED000000 		.4byte	.LASF11
 863 0090 04       		.uleb128 0x4
 864 0091 26030000 		.4byte	.LASF12
 865 0095 02       		.byte	0x2
 866 0096 4E       		.byte	0x4e
 867 0097 9B000000 		.4byte	0x9b
 868 009b 03       		.uleb128 0x3
 869 009c 08       		.byte	0x8
 870 009d 07       		.byte	0x7
 871 009e 7B000000 		.4byte	.LASF13
 872 00a2 04       		.uleb128 0x4
 873 00a3 0C050000 		.4byte	.LASF14
 874 00a7 03       		.byte	0x3
 875 00a8 2A       		.byte	0x2a
 876 00a9 3A000000 		.4byte	0x3a
 877 00ad 04       		.uleb128 0x4
 878 00ae 64010000 		.4byte	.LASF15
 879 00b2 03       		.byte	0x3
 880 00b3 36       		.byte	0x36
 881 00b4 53000000 		.4byte	0x53
 882 00b8 04       		.uleb128 0x4
 883 00b9 A4030000 		.4byte	.LASF16
 884 00bd 03       		.byte	0x3
 885 00be 41       		.byte	0x41
 886 00bf 65000000 		.4byte	0x65
 887 00c3 04       		.uleb128 0x4
 888 00c4 0C040000 		.4byte	.LASF17
 889 00c8 03       		.byte	0x3
 890 00c9 42       		.byte	0x42
 891 00ca 77000000 		.4byte	0x77
 892 00ce 04       		.uleb128 0x4
 893 00cf 33000000 		.4byte	.LASF18
 894 00d3 03       		.byte	0x3
 895 00d4 4E       		.byte	0x4e
 896 00d5 90000000 		.4byte	0x90
 897 00d9 04       		.uleb128 0x4
 898 00da C6040000 		.4byte	.LASF19
 899 00de 04       		.byte	0x4
 900 00df 39       		.byte	0x39
 901 00e0 C3000000 		.4byte	0xc3
 902 00e4 04       		.uleb128 0x4
 903 00e5 50020000 		.4byte	.LASF20
 904 00e9 04       		.byte	0x4
 905 00ea 3C       		.byte	0x3c
 906 00eb A2000000 		.4byte	0xa2
 907 00ef 04       		.uleb128 0x4
 908 00f0 56010000 		.4byte	.LASF21
 909 00f4 04       		.byte	0x4
 910 00f5 3D       		.byte	0x3d
 911 00f6 A2000000 		.4byte	0xa2
 912 00fa 04       		.uleb128 0x4
 913 00fb 3B030000 		.4byte	.LASF22
 914 00ff 04       		.byte	0x4
 915 0100 3E       		.byte	0x3e
ARM GAS  /tmp/cc42I6kA.s 			page 38


 916 0101 A2000000 		.4byte	0xa2
 917 0105 04       		.uleb128 0x4
 918 0106 58030000 		.4byte	.LASF23
 919 010a 04       		.byte	0x4
 920 010b 40       		.byte	0x40
 921 010c C3000000 		.4byte	0xc3
 922 0110 04       		.uleb128 0x4
 923 0111 35020000 		.4byte	.LASF24
 924 0115 04       		.byte	0x4
 925 0116 41       		.byte	0x41
 926 0117 B8000000 		.4byte	0xb8
 927 011b 04       		.uleb128 0x4
 928 011c 66020000 		.4byte	.LASF25
 929 0120 04       		.byte	0x4
 930 0121 43       		.byte	0x43
 931 0122 C3000000 		.4byte	0xc3
 932 0126 04       		.uleb128 0x4
 933 0127 C7010000 		.4byte	.LASF26
 934 012b 04       		.byte	0x4
 935 012c 45       		.byte	0x45
 936 012d B8000000 		.4byte	0xb8
 937 0131 04       		.uleb128 0x4
 938 0132 69040000 		.4byte	.LASF27
 939 0136 05       		.byte	0x5
 940 0137 33       		.byte	0x33
 941 0138 C3000000 		.4byte	0xc3
 942 013c 04       		.uleb128 0x4
 943 013d 60040000 		.4byte	.LASF28
 944 0141 05       		.byte	0x5
 945 0142 3F       		.byte	0x3f
 946 0143 47010000 		.4byte	0x147
 947 0147 05       		.uleb128 0x5
 948 0148 2B020000 		.4byte	.LASF46
 949 014c 44       		.byte	0x44
 950 014d 06       		.byte	0x6
 951 014e 9A       		.byte	0x9a
 952 014f 25020000 		.4byte	0x225
 953 0153 06       		.uleb128 0x6
 954 0154 05020000 		.4byte	.LASF29
 955 0158 06       		.byte	0x6
 956 0159 9B       		.byte	0x9b
 957 015a 5A020000 		.4byte	0x25a
 958 015e 00       		.byte	0
 959 015f 06       		.uleb128 0x6
 960 0160 10030000 		.4byte	.LASF30
 961 0164 06       		.byte	0x6
 962 0165 9C       		.byte	0x9c
 963 0166 05010000 		.4byte	0x105
 964 016a 08       		.byte	0x8
 965 016b 07       		.uleb128 0x7
 966 016c 63747800 		.ascii	"ctx\000"
 967 0170 06       		.byte	0x6
 968 0171 9D       		.byte	0x9d
 969 0172 15050000 		.4byte	0x515
 970 0176 0C       		.byte	0xc
 971 0177 06       		.uleb128 0x6
 972 0178 87020000 		.4byte	.LASF31
ARM GAS  /tmp/cc42I6kA.s 			page 39


 973 017c 06       		.byte	0x6
 974 017d 9F       		.byte	0x9f
 975 017e 30020000 		.4byte	0x230
 976 0182 10       		.byte	0x10
 977 0183 06       		.uleb128 0x6
 978 0184 43040000 		.4byte	.LASF32
 979 0188 06       		.byte	0x6
 980 0189 A0       		.byte	0xa0
 981 018a 30020000 		.4byte	0x230
 982 018e 14       		.byte	0x14
 983 018f 06       		.uleb128 0x6
 984 0190 00020000 		.4byte	.LASF33
 985 0194 06       		.byte	0x6
 986 0195 A7       		.byte	0xa7
 987 0196 9A060000 		.4byte	0x69a
 988 019a 18       		.byte	0x18
 989 019b 06       		.uleb128 0x6
 990 019c 32040000 		.4byte	.LASF34
 991 01a0 06       		.byte	0x6
 992 01a1 B0       		.byte	0xb0
 993 01a2 AC060000 		.4byte	0x6ac
 994 01a6 1C       		.byte	0x1c
 995 01a7 06       		.uleb128 0x6
 996 01a8 2D010000 		.4byte	.LASF35
 997 01ac 06       		.byte	0x6
 998 01ad B5       		.byte	0xb5
 999 01ae EF000000 		.4byte	0xef
 1000 01b2 20       		.byte	0x20
 1001 01b3 06       		.uleb128 0x6
 1002 01b4 4B050000 		.4byte	.LASF36
 1003 01b8 06       		.byte	0x6
 1004 01b9 B9       		.byte	0xb9
 1005 01ba E4000000 		.4byte	0xe4
 1006 01be 21       		.byte	0x21
 1007 01bf 06       		.uleb128 0x6
 1008 01c0 43030000 		.4byte	.LASF37
 1009 01c4 06       		.byte	0x6
 1010 01c5 BE       		.byte	0xbe
 1011 01c6 FA000000 		.4byte	0xfa
 1012 01ca 22       		.byte	0x22
 1013 01cb 08       		.uleb128 0x8
 1014 01cc 7500     		.ascii	"u\000"
 1015 01ce 06       		.byte	0x6
 1016 01cf 0F01     		.2byte	0x10f
 1017 01d1 CF050000 		.4byte	0x5cf
 1018 01d5 24       		.byte	0x24
 1019 01d6 09       		.uleb128 0x9
 1020 01d7 9E010000 		.4byte	.LASF38
 1021 01db 06       		.byte	0x6
 1022 01dc 1401     		.2byte	0x114
 1023 01de 36020000 		.4byte	0x236
 1024 01e2 28       		.byte	0x28
 1025 01e3 09       		.uleb128 0x9
 1026 01e4 12010000 		.4byte	.LASF39
 1027 01e8 06       		.byte	0x6
 1028 01e9 1A01     		.2byte	0x11a
 1029 01eb 5A020000 		.4byte	0x25a
ARM GAS  /tmp/cc42I6kA.s 			page 40


 1030 01ef 2C       		.byte	0x2c
 1031 01f0 09       		.uleb128 0x9
 1032 01f1 3B020000 		.4byte	.LASF40
 1033 01f5 06       		.byte	0x6
 1034 01f6 2001     		.2byte	0x120
 1035 01f8 1B010000 		.4byte	0x11b
 1036 01fc 34       		.byte	0x34
 1037 01fd 09       		.uleb128 0x9
 1038 01fe 49060000 		.4byte	.LASF41
 1039 0202 06       		.byte	0x6
 1040 0203 2701     		.2byte	0x127
 1041 0205 94060000 		.4byte	0x694
 1042 0209 38       		.byte	0x38
 1043 020a 09       		.uleb128 0x9
 1044 020b 9C020000 		.4byte	.LASF42
 1045 020f 06       		.byte	0x6
 1046 0210 2B01     		.2byte	0x12b
 1047 0212 05010000 		.4byte	0x105
 1048 0216 3C       		.byte	0x3c
 1049 0217 09       		.uleb128 0x9
 1050 0218 12020000 		.4byte	.LASF43
 1051 021c 06       		.byte	0x6
 1052 021d 3201     		.2byte	0x132
 1053 021f 0D030000 		.4byte	0x30d
 1054 0223 40       		.byte	0x40
 1055 0224 00       		.byte	0
 1056 0225 04       		.uleb128 0x4
 1057 0226 AE020000 		.4byte	.LASF44
 1058 022a 05       		.byte	0x5
 1059 022b 44       		.byte	0x44
 1060 022c 30020000 		.4byte	0x230
 1061 0230 0A       		.uleb128 0xa
 1062 0231 04       		.byte	0x4
 1063 0232 3C010000 		.4byte	0x13c
 1064 0236 04       		.uleb128 0x4
 1065 0237 8D020000 		.4byte	.LASF45
 1066 023b 05       		.byte	0x5
 1067 023c 49       		.byte	0x49
 1068 023d 41020000 		.4byte	0x241
 1069 0241 05       		.uleb128 0x5
 1070 0242 1C040000 		.4byte	.LASF47
 1071 0246 04       		.byte	0x4
 1072 0247 06       		.byte	0x6
 1073 0248 88       		.byte	0x88
 1074 0249 5A020000 		.4byte	0x25a
 1075 024d 06       		.uleb128 0x6
 1076 024e D7000000 		.4byte	.LASF48
 1077 0252 06       		.byte	0x6
 1078 0253 89       		.byte	0x89
 1079 0254 30020000 		.4byte	0x230
 1080 0258 00       		.byte	0
 1081 0259 00       		.byte	0
 1082 025a 04       		.uleb128 0x4
 1083 025b CE040000 		.4byte	.LASF49
 1084 025f 05       		.byte	0x5
 1085 0260 50       		.byte	0x50
 1086 0261 65020000 		.4byte	0x265
ARM GAS  /tmp/cc42I6kA.s 			page 41


 1087 0265 05       		.uleb128 0x5
 1088 0266 DC000000 		.4byte	.LASF50
 1089 026a 08       		.byte	0x8
 1090 026b 06       		.byte	0x6
 1091 026c 8F       		.byte	0x8f
 1092 026d 8A020000 		.4byte	0x28a
 1093 0271 06       		.uleb128 0x6
 1094 0272 D7000000 		.4byte	.LASF48
 1095 0276 06       		.byte	0x6
 1096 0277 90       		.byte	0x90
 1097 0278 30020000 		.4byte	0x230
 1098 027c 00       		.byte	0
 1099 027d 06       		.uleb128 0x6
 1100 027e 44060000 		.4byte	.LASF51
 1101 0282 06       		.byte	0x6
 1102 0283 91       		.byte	0x91
 1103 0284 30020000 		.4byte	0x230
 1104 0288 04       		.byte	0x4
 1105 0289 00       		.byte	0
 1106 028a 04       		.uleb128 0x4
 1107 028b 13000000 		.4byte	.LASF52
 1108 028f 05       		.byte	0x5
 1109 0290 57       		.byte	0x57
 1110 0291 95020000 		.4byte	0x295
 1111 0295 0B       		.uleb128 0xb
 1112 0296 58020000 		.4byte	.LASF53
 1113 029a 1C       		.byte	0x1c
 1114 029b 06       		.byte	0x6
 1115 029c 6A01     		.2byte	0x16a
 1116 029e F1020000 		.4byte	0x2f1
 1117 02a2 09       		.uleb128 0x9
 1118 02a3 05020000 		.4byte	.LASF29
 1119 02a7 06       		.byte	0x6
 1120 02a8 6B01     		.2byte	0x16b
 1121 02aa 5A020000 		.4byte	0x25a
 1122 02ae 00       		.byte	0
 1123 02af 09       		.uleb128 0x9
 1124 02b0 10030000 		.4byte	.LASF30
 1125 02b4 06       		.byte	0x6
 1126 02b5 6C01     		.2byte	0x16c
 1127 02b7 05010000 		.4byte	0x105
 1128 02bb 08       		.byte	0x8
 1129 02bc 08       		.uleb128 0x8
 1130 02bd 63747800 		.ascii	"ctx\000"
 1131 02c1 06       		.byte	0x6
 1132 02c2 6E01     		.2byte	0x16e
 1133 02c4 15050000 		.4byte	0x515
 1134 02c8 0C       		.byte	0xc
 1135 02c9 09       		.uleb128 0x9
 1136 02ca 87020000 		.4byte	.LASF31
 1137 02ce 06       		.byte	0x6
 1138 02cf 7101     		.2byte	0x171
 1139 02d1 30020000 		.4byte	0x230
 1140 02d5 10       		.byte	0x10
 1141 02d6 09       		.uleb128 0x9
 1142 02d7 43040000 		.4byte	.LASF32
 1143 02db 06       		.byte	0x6
ARM GAS  /tmp/cc42I6kA.s 			page 42


 1144 02dc 7201     		.2byte	0x172
 1145 02de 30020000 		.4byte	0x230
 1146 02e2 14       		.byte	0x14
 1147 02e3 09       		.uleb128 0x9
 1148 02e4 1E030000 		.4byte	.LASF54
 1149 02e8 06       		.byte	0x6
 1150 02e9 7501     		.2byte	0x175
 1151 02eb 30020000 		.4byte	0x230
 1152 02ef 18       		.byte	0x18
 1153 02f0 00       		.byte	0
 1154 02f1 04       		.uleb128 0x4
 1155 02f2 73040000 		.4byte	.LASF55
 1156 02f6 05       		.byte	0x5
 1157 02f7 5C       		.byte	0x5c
 1158 02f8 FC020000 		.4byte	0x2fc
 1159 02fc 0A       		.uleb128 0xa
 1160 02fd 04       		.byte	0x4
 1161 02fe 02030000 		.4byte	0x302
 1162 0302 0C       		.uleb128 0xc
 1163 0303 0D030000 		.4byte	0x30d
 1164 0307 0D       		.uleb128 0xd
 1165 0308 0D030000 		.4byte	0x30d
 1166 030c 00       		.byte	0
 1167 030d 0E       		.uleb128 0xe
 1168 030e 04       		.byte	0x4
 1169 030f 04       		.uleb128 0x4
 1170 0310 48030000 		.4byte	.LASF56
 1171 0314 05       		.byte	0x5
 1172 0315 61       		.byte	0x61
 1173 0316 1A030000 		.4byte	0x31a
 1174 031a 0B       		.uleb128 0xb
 1175 031b EE030000 		.4byte	.LASF57
 1176 031f 14       		.byte	0x14
 1177 0320 06       		.byte	0x6
 1178 0321 4501     		.2byte	0x145
 1179 0323 69030000 		.4byte	0x369
 1180 0327 09       		.uleb128 0x9
 1181 0328 D7000000 		.4byte	.LASF48
 1182 032c 06       		.byte	0x6
 1183 032d 4601     		.2byte	0x146
 1184 032f B2060000 		.4byte	0x6b2
 1185 0333 00       		.byte	0
 1186 0334 09       		.uleb128 0x9
 1187 0335 44060000 		.4byte	.LASF51
 1188 0339 06       		.byte	0x6
 1189 033a 4701     		.2byte	0x147
 1190 033c B2060000 		.4byte	0x6b2
 1191 0340 04       		.byte	0x4
 1192 0341 09       		.uleb128 0x9
 1193 0342 26000000 		.4byte	.LASF58
 1194 0346 06       		.byte	0x6
 1195 0347 4801     		.2byte	0x148
 1196 0349 31010000 		.4byte	0x131
 1197 034d 08       		.byte	0x8
 1198 034e 09       		.uleb128 0x9
 1199 034f 5F010000 		.4byte	.LASF59
 1200 0353 06       		.byte	0x6
ARM GAS  /tmp/cc42I6kA.s 			page 43


 1201 0354 4901     		.2byte	0x149
 1202 0356 F1020000 		.4byte	0x2f1
 1203 035a 0C       		.byte	0xc
 1204 035b 08       		.uleb128 0x8
 1205 035c 70617200 		.ascii	"par\000"
 1206 0360 06       		.byte	0x6
 1207 0361 4B01     		.2byte	0x14b
 1208 0363 0D030000 		.4byte	0x30d
 1209 0367 10       		.byte	0x10
 1210 0368 00       		.byte	0
 1211 0369 04       		.uleb128 0x4
 1212 036a B4000000 		.4byte	.LASF60
 1213 036e 05       		.byte	0x5
 1214 036f 66       		.byte	0x66
 1215 0370 74030000 		.4byte	0x374
 1216 0374 0B       		.uleb128 0xb
 1217 0375 C1020000 		.4byte	.LASF61
 1218 0379 10       		.byte	0x10
 1219 037a 06       		.byte	0x6
 1220 037b 5501     		.2byte	0x155
 1221 037d B6030000 		.4byte	0x3b6
 1222 0381 09       		.uleb128 0x9
 1223 0382 D7000000 		.4byte	.LASF48
 1224 0386 06       		.byte	0x6
 1225 0387 5601     		.2byte	0x156
 1226 0389 B2060000 		.4byte	0x6b2
 1227 038d 00       		.byte	0
 1228 038e 09       		.uleb128 0x9
 1229 038f 44060000 		.4byte	.LASF51
 1230 0393 06       		.byte	0x6
 1231 0394 5801     		.2byte	0x158
 1232 0396 B2060000 		.4byte	0x6b2
 1233 039a 04       		.byte	0x4
 1234 039b 09       		.uleb128 0x9
 1235 039c 26000000 		.4byte	.LASF58
 1236 03a0 06       		.byte	0x6
 1237 03a1 5A01     		.2byte	0x15a
 1238 03a3 31010000 		.4byte	0x131
 1239 03a7 08       		.byte	0x8
 1240 03a8 09       		.uleb128 0x9
 1241 03a9 C9030000 		.4byte	.LASF62
 1242 03ad 06       		.byte	0x6
 1243 03ae 6201     		.2byte	0x162
 1244 03b0 31010000 		.4byte	0x131
 1245 03b4 0C       		.byte	0xc
 1246 03b5 00       		.byte	0
 1247 03b6 04       		.uleb128 0x4
 1248 03b7 59000000 		.4byte	.LASF63
 1249 03bb 05       		.byte	0x5
 1250 03bc 6B       		.byte	0x6b
 1251 03bd C1030000 		.4byte	0x3c1
 1252 03c1 0B       		.uleb128 0xb
 1253 03c2 8E030000 		.4byte	.LASF64
 1254 03c6 04       		.byte	0x4
 1255 03c7 06       		.byte	0x6
 1256 03c8 7C01     		.2byte	0x17c
 1257 03ca DC030000 		.4byte	0x3dc
ARM GAS  /tmp/cc42I6kA.s 			page 44


 1258 03ce 09       		.uleb128 0x9
 1259 03cf 85040000 		.4byte	.LASF65
 1260 03d3 06       		.byte	0x6
 1261 03d4 8401     		.2byte	0x184
 1262 03d6 B8060000 		.4byte	0x6b8
 1263 03da 00       		.byte	0
 1264 03db 00       		.byte	0
 1265 03dc 04       		.uleb128 0x4
 1266 03dd 44020000 		.4byte	.LASF66
 1267 03e1 05       		.byte	0x5
 1268 03e2 70       		.byte	0x70
 1269 03e3 E7030000 		.4byte	0x3e7
 1270 03e7 0B       		.uleb128 0xb
 1271 03e8 33010000 		.4byte	.LASF67
 1272 03ec 78       		.byte	0x78
 1273 03ed 06       		.byte	0x6
 1274 03ee 9C01     		.2byte	0x19c
 1275 03f0 35040000 		.4byte	0x435
 1276 03f4 09       		.uleb128 0x9
 1277 03f5 FA040000 		.4byte	.LASF68
 1278 03f9 06       		.byte	0x6
 1279 03fa A001     		.2byte	0x1a0
 1280 03fc 8A020000 		.4byte	0x28a
 1281 0400 00       		.byte	0
 1282 0401 09       		.uleb128 0x9
 1283 0402 97010000 		.4byte	.LASF69
 1284 0406 06       		.byte	0x6
 1285 0407 A401     		.2byte	0x1a4
 1286 0409 69030000 		.4byte	0x369
 1287 040d 1C       		.byte	0x1c
 1288 040e 08       		.uleb128 0x8
 1289 040f 64626700 		.ascii	"dbg\000"
 1290 0413 06       		.byte	0x6
 1291 0414 A801     		.2byte	0x1a8
 1292 0416 B6030000 		.4byte	0x3b6
 1293 041a 2C       		.byte	0x2c
 1294 041b 09       		.uleb128 0x9
 1295 041c A1000000 		.4byte	.LASF70
 1296 0420 06       		.byte	0x6
 1297 0421 AC01     		.2byte	0x1ac
 1298 0423 3C010000 		.4byte	0x13c
 1299 0427 30       		.byte	0x30
 1300 0428 08       		.uleb128 0x8
 1301 0429 746D00   		.ascii	"tm\000"
 1302 042c 06       		.byte	0x6
 1303 042d B101     		.2byte	0x1b1
 1304 042f C4050000 		.4byte	0x5c4
 1305 0433 74       		.byte	0x74
 1306 0434 00       		.byte	0
 1307 0435 03       		.uleb128 0x3
 1308 0436 04       		.byte	0x4
 1309 0437 07       		.byte	0x7
 1310 0438 A5020000 		.4byte	.LASF71
 1311 043c 0F       		.uleb128 0xf
 1312 043d C3000000 		.4byte	0xc3
 1313 0441 10       		.uleb128 0x10
 1314 0442 34       		.byte	0x34
ARM GAS  /tmp/cc42I6kA.s 			page 45


 1315 0443 07       		.byte	0x7
 1316 0444 FB01     		.2byte	0x1fb
 1317 0446 F3040000 		.4byte	0x4f3
 1318 044a 08       		.uleb128 0x8
 1319 044b 435200   		.ascii	"CR\000"
 1320 044e 07       		.byte	0x7
 1321 044f FD01     		.2byte	0x1fd
 1322 0451 3C040000 		.4byte	0x43c
 1323 0455 00       		.byte	0
 1324 0456 09       		.uleb128 0x9
 1325 0457 3F060000 		.4byte	.LASF72
 1326 045b 07       		.byte	0x7
 1327 045c FE01     		.2byte	0x1fe
 1328 045e 3C040000 		.4byte	0x43c
 1329 0462 04       		.byte	0x4
 1330 0463 08       		.uleb128 0x8
 1331 0464 43495200 		.ascii	"CIR\000"
 1332 0468 07       		.byte	0x7
 1333 0469 FF01     		.2byte	0x1ff
 1334 046b 3C040000 		.4byte	0x43c
 1335 046f 08       		.byte	0x8
 1336 0470 09       		.uleb128 0x9
 1337 0471 4D010000 		.4byte	.LASF73
 1338 0475 07       		.byte	0x7
 1339 0476 0002     		.2byte	0x200
 1340 0478 3C040000 		.4byte	0x43c
 1341 047c 0C       		.byte	0xc
 1342 047d 09       		.uleb128 0x9
 1343 047e 15030000 		.4byte	.LASF74
 1344 0482 07       		.byte	0x7
 1345 0483 0102     		.2byte	0x201
 1346 0485 3C040000 		.4byte	0x43c
 1347 0489 10       		.byte	0x10
 1348 048a 09       		.uleb128 0x9
 1349 048b 64060000 		.4byte	.LASF75
 1350 048f 07       		.byte	0x7
 1351 0490 0202     		.2byte	0x202
 1352 0492 3C040000 		.4byte	0x43c
 1353 0496 14       		.byte	0x14
 1354 0497 09       		.uleb128 0x9
 1355 0498 E6030000 		.4byte	.LASF76
 1356 049c 07       		.byte	0x7
 1357 049d 0302     		.2byte	0x203
 1358 049f 3C040000 		.4byte	0x43c
 1359 04a3 18       		.byte	0x18
 1360 04a4 09       		.uleb128 0x9
 1361 04a5 96040000 		.4byte	.LASF77
 1362 04a9 07       		.byte	0x7
 1363 04aa 0402     		.2byte	0x204
 1364 04ac 3C040000 		.4byte	0x43c
 1365 04b0 1C       		.byte	0x1c
 1366 04b1 09       		.uleb128 0x9
 1367 04b2 F5040000 		.4byte	.LASF78
 1368 04b6 07       		.byte	0x7
 1369 04b7 0502     		.2byte	0x205
 1370 04b9 3C040000 		.4byte	0x43c
 1371 04bd 20       		.byte	0x20
ARM GAS  /tmp/cc42I6kA.s 			page 46


 1372 04be 08       		.uleb128 0x8
 1373 04bf 43535200 		.ascii	"CSR\000"
 1374 04c3 07       		.byte	0x7
 1375 04c4 0602     		.2byte	0x206
 1376 04c6 3C040000 		.4byte	0x43c
 1377 04ca 24       		.byte	0x24
 1378 04cb 09       		.uleb128 0x9
 1379 04cc 01030000 		.4byte	.LASF79
 1380 04d0 07       		.byte	0x7
 1381 04d1 0702     		.2byte	0x207
 1382 04d3 3C040000 		.4byte	0x43c
 1383 04d7 28       		.byte	0x28
 1384 04d8 09       		.uleb128 0x9
 1385 04d9 00050000 		.4byte	.LASF80
 1386 04dd 07       		.byte	0x7
 1387 04de 0802     		.2byte	0x208
 1388 04e0 3C040000 		.4byte	0x43c
 1389 04e4 2C       		.byte	0x2c
 1390 04e5 09       		.uleb128 0x9
 1391 04e6 06050000 		.4byte	.LASF81
 1392 04ea 07       		.byte	0x7
 1393 04eb 0902     		.2byte	0x209
 1394 04ed 3C040000 		.4byte	0x43c
 1395 04f1 30       		.byte	0x30
 1396 04f2 00       		.byte	0
 1397 04f3 11       		.uleb128 0x11
 1398 04f4 1B010000 		.4byte	.LASF82
 1399 04f8 07       		.byte	0x7
 1400 04f9 0A02     		.2byte	0x20a
 1401 04fb 41040000 		.4byte	0x441
 1402 04ff 04       		.uleb128 0x4
 1403 0500 8E010000 		.4byte	.LASF83
 1404 0504 08       		.byte	0x8
 1405 0505 65       		.byte	0x65
 1406 0506 0D030000 		.4byte	0x30d
 1407 050a 04       		.uleb128 0x4
 1408 050b 7C020000 		.4byte	.LASF84
 1409 050f 08       		.byte	0x8
 1410 0510 6D       		.byte	0x6d
 1411 0511 CE000000 		.4byte	0xce
 1412 0515 05       		.uleb128 0x5
 1413 0516 DE020000 		.4byte	.LASF85
 1414 051a 04       		.byte	0x4
 1415 051b 08       		.byte	0x8
 1416 051c 89       		.byte	0x89
 1417 051d 2D050000 		.4byte	0x52d
 1418 0521 07       		.uleb128 0x7
 1419 0522 737000   		.ascii	"sp\000"
 1420 0525 08       		.byte	0x8
 1421 0526 8A       		.byte	0x8a
 1422 0527 A9050000 		.4byte	0x5a9
 1423 052b 00       		.byte	0
 1424 052c 00       		.byte	0
 1425 052d 0B       		.uleb128 0xb
 1426 052e 4D000000 		.4byte	.LASF86
 1427 0532 24       		.byte	0x24
 1428 0533 09       		.byte	0x9
ARM GAS  /tmp/cc42I6kA.s 			page 47


 1429 0534 5901     		.2byte	0x159
 1430 0536 A9050000 		.4byte	0x5a9
 1431 053a 08       		.uleb128 0x8
 1432 053b 723400   		.ascii	"r4\000"
 1433 053e 09       		.byte	0x9
 1434 053f 6C01     		.2byte	0x16c
 1435 0541 FF040000 		.4byte	0x4ff
 1436 0545 00       		.byte	0
 1437 0546 08       		.uleb128 0x8
 1438 0547 723500   		.ascii	"r5\000"
 1439 054a 09       		.byte	0x9
 1440 054b 6D01     		.2byte	0x16d
 1441 054d FF040000 		.4byte	0x4ff
 1442 0551 04       		.byte	0x4
 1443 0552 08       		.uleb128 0x8
 1444 0553 723600   		.ascii	"r6\000"
 1445 0556 09       		.byte	0x9
 1446 0557 6E01     		.2byte	0x16e
 1447 0559 FF040000 		.4byte	0x4ff
 1448 055d 08       		.byte	0x8
 1449 055e 08       		.uleb128 0x8
 1450 055f 723700   		.ascii	"r7\000"
 1451 0562 09       		.byte	0x9
 1452 0563 6F01     		.2byte	0x16f
 1453 0565 FF040000 		.4byte	0x4ff
 1454 0569 0C       		.byte	0xc
 1455 056a 08       		.uleb128 0x8
 1456 056b 723800   		.ascii	"r8\000"
 1457 056e 09       		.byte	0x9
 1458 056f 7001     		.2byte	0x170
 1459 0571 FF040000 		.4byte	0x4ff
 1460 0575 10       		.byte	0x10
 1461 0576 08       		.uleb128 0x8
 1462 0577 723900   		.ascii	"r9\000"
 1463 057a 09       		.byte	0x9
 1464 057b 7101     		.2byte	0x171
 1465 057d FF040000 		.4byte	0x4ff
 1466 0581 14       		.byte	0x14
 1467 0582 08       		.uleb128 0x8
 1468 0583 72313000 		.ascii	"r10\000"
 1469 0587 09       		.byte	0x9
 1470 0588 7201     		.2byte	0x172
 1471 058a FF040000 		.4byte	0x4ff
 1472 058e 18       		.byte	0x18
 1473 058f 08       		.uleb128 0x8
 1474 0590 72313100 		.ascii	"r11\000"
 1475 0594 09       		.byte	0x9
 1476 0595 7301     		.2byte	0x173
 1477 0597 FF040000 		.4byte	0x4ff
 1478 059b 1C       		.byte	0x1c
 1479 059c 08       		.uleb128 0x8
 1480 059d 6C7200   		.ascii	"lr\000"
 1481 05a0 09       		.byte	0x9
 1482 05a1 7401     		.2byte	0x174
 1483 05a3 FF040000 		.4byte	0x4ff
 1484 05a7 20       		.byte	0x20
 1485 05a8 00       		.byte	0
ARM GAS  /tmp/cc42I6kA.s 			page 48


 1486 05a9 0A       		.uleb128 0xa
 1487 05aa 04       		.byte	0x4
 1488 05ab 2D050000 		.4byte	0x52d
 1489 05af 12       		.uleb128 0x12
 1490 05b0 04       		.byte	0x4
 1491 05b1 0A       		.byte	0xa
 1492 05b2 38       		.byte	0x38
 1493 05b3 C4050000 		.4byte	0x5c4
 1494 05b7 06       		.uleb128 0x6
 1495 05b8 8F040000 		.4byte	.LASF87
 1496 05bc 0A       		.byte	0xa
 1497 05bd 3C       		.byte	0x3c
 1498 05be D9000000 		.4byte	0xd9
 1499 05c2 00       		.byte	0
 1500 05c3 00       		.byte	0
 1501 05c4 04       		.uleb128 0x4
 1502 05c5 EB020000 		.4byte	.LASF88
 1503 05c9 0A       		.byte	0xa
 1504 05ca 3D       		.byte	0x3d
 1505 05cb AF050000 		.4byte	0x5af
 1506 05cf 13       		.uleb128 0x13
 1507 05d0 04       		.byte	0x4
 1508 05d1 06       		.byte	0x6
 1509 05d2 D2       		.byte	0xd2
 1510 05d3 32060000 		.4byte	0x632
 1511 05d7 14       		.uleb128 0x14
 1512 05d8 2C000000 		.4byte	.LASF89
 1513 05dc 06       		.byte	0x6
 1514 05dd D9       		.byte	0xd9
 1515 05de 10010000 		.4byte	0x110
 1516 05e2 14       		.uleb128 0x14
 1517 05e3 98000000 		.4byte	.LASF90
 1518 05e7 06       		.byte	0x6
 1519 05e8 E0       		.byte	0xe0
 1520 05e9 10010000 		.4byte	0x110
 1521 05ed 14       		.uleb128 0x14
 1522 05ee 31060000 		.4byte	.LASF91
 1523 05f2 06       		.byte	0x6
 1524 05f3 E7       		.byte	0xe7
 1525 05f4 0D030000 		.4byte	0x30d
 1526 05f8 14       		.uleb128 0x14
 1527 05f9 20000000 		.4byte	.LASF92
 1528 05fd 06       		.byte	0x6
 1529 05fe EE       		.byte	0xee
 1530 05ff 32060000 		.4byte	0x632
 1531 0603 14       		.uleb128 0x14
 1532 0604 AC000000 		.4byte	.LASF93
 1533 0608 06       		.byte	0x6
 1534 0609 F3       		.byte	0xf3
 1535 060a 10010000 		.4byte	0x110
 1536 060e 14       		.uleb128 0x14
 1537 060f DA010000 		.4byte	.LASF94
 1538 0613 06       		.byte	0x6
 1539 0614 FC       		.byte	0xfc
 1540 0615 5D060000 		.4byte	0x65d
 1541 0619 15       		.uleb128 0x15
 1542 061a 15040000 		.4byte	.LASF95
ARM GAS  /tmp/cc42I6kA.s 			page 49


 1543 061e 06       		.byte	0x6
 1544 061f 0501     		.2byte	0x105
 1545 0621 94060000 		.4byte	0x694
 1546 0625 15       		.uleb128 0x15
 1547 0626 D9030000 		.4byte	.LASF96
 1548 062a 06       		.byte	0x6
 1549 062b 0D01     		.2byte	0x10d
 1550 062d 1B010000 		.4byte	0x11b
 1551 0631 00       		.byte	0
 1552 0632 0A       		.uleb128 0xa
 1553 0633 04       		.byte	0x4
 1554 0634 25020000 		.4byte	0x225
 1555 0638 05       		.uleb128 0x5
 1556 0639 FF030000 		.4byte	.LASF97
 1557 063d 0C       		.byte	0xc
 1558 063e 0B       		.byte	0xb
 1559 063f 34       		.byte	0x34
 1560 0640 5D060000 		.4byte	0x65d
 1561 0644 06       		.uleb128 0x6
 1562 0645 05020000 		.4byte	.LASF29
 1563 0649 0B       		.byte	0xb
 1564 064a 35       		.byte	0x35
 1565 064b 5A020000 		.4byte	0x25a
 1566 064f 00       		.byte	0
 1567 0650 07       		.uleb128 0x7
 1568 0651 636E7400 		.ascii	"cnt\000"
 1569 0655 0B       		.byte	0xb
 1570 0656 37       		.byte	0x37
 1571 0657 26010000 		.4byte	0x126
 1572 065b 08       		.byte	0x8
 1573 065c 00       		.byte	0
 1574 065d 0A       		.uleb128 0xa
 1575 065e 04       		.byte	0x4
 1576 065f 38060000 		.4byte	0x638
 1577 0663 05       		.uleb128 0x5
 1578 0664 DE040000 		.4byte	.LASF98
 1579 0668 10       		.byte	0x10
 1580 0669 0C       		.byte	0xc
 1581 066a 39       		.byte	0x39
 1582 066b 94060000 		.4byte	0x694
 1583 066f 06       		.uleb128 0x6
 1584 0670 05020000 		.4byte	.LASF29
 1585 0674 0C       		.byte	0xc
 1586 0675 3A       		.byte	0x3a
 1587 0676 5A020000 		.4byte	0x25a
 1588 067a 00       		.byte	0
 1589 067b 06       		.uleb128 0x6
 1590 067c 2C040000 		.4byte	.LASF99
 1591 0680 0C       		.byte	0xc
 1592 0681 3C       		.byte	0x3c
 1593 0682 30020000 		.4byte	0x230
 1594 0686 08       		.byte	0x8
 1595 0687 06       		.uleb128 0x6
 1596 0688 D7000000 		.4byte	.LASF48
 1597 068c 0C       		.byte	0xc
 1598 068d 3E       		.byte	0x3e
 1599 068e C8060000 		.4byte	0x6c8
ARM GAS  /tmp/cc42I6kA.s 			page 50


 1600 0692 0C       		.byte	0xc
 1601 0693 00       		.byte	0
 1602 0694 0A       		.uleb128 0xa
 1603 0695 04       		.byte	0x4
 1604 0696 63060000 		.4byte	0x663
 1605 069a 0A       		.uleb128 0xa
 1606 069b 04       		.byte	0x4
 1607 069c A0060000 		.4byte	0x6a0
 1608 06a0 16       		.uleb128 0x16
 1609 06a1 A5060000 		.4byte	0x6a5
 1610 06a5 03       		.uleb128 0x3
 1611 06a6 01       		.byte	0x1
 1612 06a7 08       		.byte	0x8
 1613 06a8 3E040000 		.4byte	.LASF100
 1614 06ac 0A       		.uleb128 0xa
 1615 06ad 04       		.byte	0x4
 1616 06ae 0A050000 		.4byte	0x50a
 1617 06b2 0A       		.uleb128 0xa
 1618 06b3 04       		.byte	0x4
 1619 06b4 0F030000 		.4byte	0x30f
 1620 06b8 0F       		.uleb128 0xf
 1621 06b9 9A060000 		.4byte	0x69a
 1622 06bd 04       		.uleb128 0x4
 1623 06be B8010000 		.4byte	.LASF101
 1624 06c2 0C       		.byte	0xc
 1625 06c3 34       		.byte	0x34
 1626 06c4 63060000 		.4byte	0x663
 1627 06c8 0A       		.uleb128 0xa
 1628 06c9 04       		.byte	0x4
 1629 06ca BD060000 		.4byte	0x6bd
 1630 06ce 03       		.uleb128 0x3
 1631 06cf 01       		.byte	0x1
 1632 06d0 02       		.byte	0x2
 1633 06d1 9E030000 		.4byte	.LASF102
 1634 06d5 12       		.uleb128 0x12
 1635 06d6 04       		.byte	0x4
 1636 06d7 0D       		.byte	0xd
 1637 06d8 E7       		.byte	0xe7
 1638 06d9 F6060000 		.4byte	0x6f6
 1639 06dd 07       		.uleb128 0x7
 1640 06de 73657400 		.ascii	"set\000"
 1641 06e2 0D       		.byte	0xd
 1642 06e3 E8       		.byte	0xe8
 1643 06e4 AD000000 		.4byte	0xad
 1644 06e8 00       		.byte	0
 1645 06e9 06       		.uleb128 0x6
 1646 06ea D8020000 		.4byte	.LASF103
 1647 06ee 0D       		.byte	0xd
 1648 06ef E9       		.byte	0xe9
 1649 06f0 AD000000 		.4byte	0xad
 1650 06f4 02       		.byte	0x2
 1651 06f5 00       		.byte	0
 1652 06f6 13       		.uleb128 0x13
 1653 06f7 04       		.byte	0x4
 1654 06f8 0D       		.byte	0xd
 1655 06f9 E5       		.byte	0xe5
 1656 06fa 11070000 		.4byte	0x711
ARM GAS  /tmp/cc42I6kA.s 			page 51


 1657 06fe 17       		.uleb128 0x17
 1658 06ff 5700     		.ascii	"W\000"
 1659 0701 0D       		.byte	0xd
 1660 0702 E6       		.byte	0xe6
 1661 0703 C3000000 		.4byte	0xc3
 1662 0707 17       		.uleb128 0x17
 1663 0708 4800     		.ascii	"H\000"
 1664 070a 0D       		.byte	0xd
 1665 070b EA       		.byte	0xea
 1666 070c D5060000 		.4byte	0x6d5
 1667 0710 00       		.byte	0
 1668 0711 12       		.uleb128 0x12
 1669 0712 2C       		.byte	0x2c
 1670 0713 0D       		.byte	0xd
 1671 0714 DD       		.byte	0xdd
 1672 0715 9E070000 		.4byte	0x79e
 1673 0719 06       		.uleb128 0x6
 1674 071a 75000000 		.4byte	.LASF104
 1675 071e 0D       		.byte	0xd
 1676 071f DF       		.byte	0xdf
 1677 0720 3C040000 		.4byte	0x43c
 1678 0724 00       		.byte	0
 1679 0725 06       		.uleb128 0x6
 1680 0726 46000000 		.4byte	.LASF105
 1681 072a 0D       		.byte	0xd
 1682 072b E0       		.byte	0xe0
 1683 072c 3C040000 		.4byte	0x43c
 1684 0730 04       		.byte	0x4
 1685 0731 06       		.uleb128 0x6
 1686 0732 76010000 		.4byte	.LASF106
 1687 0736 0D       		.byte	0xd
 1688 0737 E1       		.byte	0xe1
 1689 0738 3C040000 		.4byte	0x43c
 1690 073c 08       		.byte	0x8
 1691 073d 06       		.uleb128 0x6
 1692 073e 27010000 		.4byte	.LASF107
 1693 0742 0D       		.byte	0xd
 1694 0743 E2       		.byte	0xe2
 1695 0744 3C040000 		.4byte	0x43c
 1696 0748 0C       		.byte	0xc
 1697 0749 07       		.uleb128 0x7
 1698 074a 49445200 		.ascii	"IDR\000"
 1699 074e 0D       		.byte	0xd
 1700 074f E3       		.byte	0xe3
 1701 0750 3C040000 		.4byte	0x43c
 1702 0754 10       		.byte	0x10
 1703 0755 07       		.uleb128 0x7
 1704 0756 4F445200 		.ascii	"ODR\000"
 1705 075a 0D       		.byte	0xd
 1706 075b E4       		.byte	0xe4
 1707 075c 3C040000 		.4byte	0x43c
 1708 0760 14       		.byte	0x14
 1709 0761 06       		.uleb128 0x6
 1710 0762 07010000 		.4byte	.LASF108
 1711 0766 0D       		.byte	0xd
 1712 0767 EB       		.byte	0xeb
 1713 0768 9E070000 		.4byte	0x79e
ARM GAS  /tmp/cc42I6kA.s 			page 52


 1714 076c 18       		.byte	0x18
 1715 076d 06       		.uleb128 0x6
 1716 076e FB010000 		.4byte	.LASF109
 1717 0772 0D       		.byte	0xd
 1718 0773 EC       		.byte	0xec
 1719 0774 3C040000 		.4byte	0x43c
 1720 0778 1C       		.byte	0x1c
 1721 0779 06       		.uleb128 0x6
 1722 077a 36030000 		.4byte	.LASF110
 1723 077e 0D       		.byte	0xd
 1724 077f ED       		.byte	0xed
 1725 0780 3C040000 		.4byte	0x43c
 1726 0784 20       		.byte	0x20
 1727 0785 06       		.uleb128 0x6
 1728 0786 31030000 		.4byte	.LASF111
 1729 078a 0D       		.byte	0xd
 1730 078b EE       		.byte	0xee
 1731 078c 3C040000 		.4byte	0x43c
 1732 0790 24       		.byte	0x24
 1733 0791 07       		.uleb128 0x7
 1734 0792 42525200 		.ascii	"BRR\000"
 1735 0796 0D       		.byte	0xd
 1736 0797 EF       		.byte	0xef
 1737 0798 3C040000 		.4byte	0x43c
 1738 079c 28       		.byte	0x28
 1739 079d 00       		.byte	0
 1740 079e 0F       		.uleb128 0xf
 1741 079f F6060000 		.4byte	0x6f6
 1742 07a3 04       		.uleb128 0x4
 1743 07a4 A6010000 		.4byte	.LASF112
 1744 07a8 0D       		.byte	0xd
 1745 07a9 F0       		.byte	0xf0
 1746 07aa 11070000 		.4byte	0x711
 1747 07ae 12       		.uleb128 0x12
 1748 07af 1C       		.byte	0x1c
 1749 07b0 0D       		.byte	0xd
 1750 07b1 F5       		.byte	0xf5
 1751 07b2 0D080000 		.4byte	0x80d
 1752 07b6 06       		.uleb128 0x6
 1753 07b7 0C010000 		.4byte	.LASF113
 1754 07bb 0D       		.byte	0xd
 1755 07bc F7       		.byte	0xf7
 1756 07bd C3000000 		.4byte	0xc3
 1757 07c1 00       		.byte	0
 1758 07c2 06       		.uleb128 0x6
 1759 07c3 0B020000 		.4byte	.LASF114
 1760 07c7 0D       		.byte	0xd
 1761 07c8 F9       		.byte	0xf9
 1762 07c9 C3000000 		.4byte	0xc3
 1763 07cd 04       		.byte	0x4
 1764 07ce 06       		.uleb128 0x6
 1765 07cf F3010000 		.4byte	.LASF115
 1766 07d3 0D       		.byte	0xd
 1767 07d4 FB       		.byte	0xfb
 1768 07d5 C3000000 		.4byte	0xc3
 1769 07d9 08       		.byte	0x8
 1770 07da 06       		.uleb128 0x6
ARM GAS  /tmp/cc42I6kA.s 			page 53


 1771 07db 92000000 		.4byte	.LASF116
 1772 07df 0D       		.byte	0xd
 1773 07e0 FD       		.byte	0xfd
 1774 07e1 C3000000 		.4byte	0xc3
 1775 07e5 0C       		.byte	0xc
 1776 07e6 07       		.uleb128 0x7
 1777 07e7 6F647200 		.ascii	"odr\000"
 1778 07eb 0D       		.byte	0xd
 1779 07ec FF       		.byte	0xff
 1780 07ed C3000000 		.4byte	0xc3
 1781 07f1 10       		.byte	0x10
 1782 07f2 09       		.uleb128 0x9
 1783 07f3 BA030000 		.4byte	.LASF117
 1784 07f7 0D       		.byte	0xd
 1785 07f8 0101     		.2byte	0x101
 1786 07fa C3000000 		.4byte	0xc3
 1787 07fe 14       		.byte	0x14
 1788 07ff 09       		.uleb128 0x9
 1789 0800 FC020000 		.4byte	.LASF118
 1790 0804 0D       		.byte	0xd
 1791 0805 0301     		.2byte	0x103
 1792 0807 C3000000 		.4byte	0xc3
 1793 080b 18       		.byte	0x18
 1794 080c 00       		.byte	0
 1795 080d 11       		.uleb128 0x11
 1796 080e 00000000 		.4byte	.LASF119
 1797 0812 0D       		.byte	0xd
 1798 0813 0401     		.2byte	0x104
 1799 0815 AE070000 		.4byte	0x7ae
 1800 0819 10       		.uleb128 0x10
 1801 081a A8       		.byte	0xa8
 1802 081b 0D       		.byte	0xd
 1803 081c 0D01     		.2byte	0x10d
 1804 081e 71080000 		.4byte	0x871
 1805 0822 09       		.uleb128 0x9
 1806 0823 D2030000 		.4byte	.LASF120
 1807 0827 0D       		.byte	0xd
 1808 0828 1001     		.2byte	0x110
 1809 082a 0D080000 		.4byte	0x80d
 1810 082e 00       		.byte	0
 1811 082f 09       		.uleb128 0x9
 1812 0830 C0010000 		.4byte	.LASF121
 1813 0834 0D       		.byte	0xd
 1814 0835 1401     		.2byte	0x114
 1815 0837 0D080000 		.4byte	0x80d
 1816 083b 1C       		.byte	0x1c
 1817 083c 09       		.uleb128 0x9
 1818 083d 38060000 		.4byte	.LASF122
 1819 0841 0D       		.byte	0xd
 1820 0842 1801     		.2byte	0x118
 1821 0844 0D080000 		.4byte	0x80d
 1822 0848 38       		.byte	0x38
 1823 0849 09       		.uleb128 0x9
 1824 084a 09030000 		.4byte	.LASF123
 1825 084e 0D       		.byte	0xd
 1826 084f 1C01     		.2byte	0x11c
 1827 0851 0D080000 		.4byte	0x80d
ARM GAS  /tmp/cc42I6kA.s 			page 54


 1828 0855 54       		.byte	0x54
 1829 0856 09       		.uleb128 0x9
 1830 0857 46010000 		.4byte	.LASF124
 1831 085b 0D       		.byte	0xd
 1832 085c 2001     		.2byte	0x120
 1833 085e 0D080000 		.4byte	0x80d
 1834 0862 70       		.byte	0x70
 1835 0863 09       		.uleb128 0x9
 1836 0864 A9040000 		.4byte	.LASF125
 1837 0868 0D       		.byte	0xd
 1838 0869 2401     		.2byte	0x124
 1839 086b 0D080000 		.4byte	0x80d
 1840 086f 8C       		.byte	0x8c
 1841 0870 00       		.byte	0
 1842 0871 11       		.uleb128 0x11
 1843 0872 5A060000 		.4byte	.LASF126
 1844 0876 0D       		.byte	0xd
 1845 0877 3A01     		.2byte	0x13a
 1846 0879 19080000 		.4byte	0x819
 1847 087d 11       		.uleb128 0x11
 1848 087e 68000000 		.4byte	.LASF127
 1849 0882 0D       		.byte	0xd
 1850 0883 3F01     		.2byte	0x13f
 1851 0885 C3000000 		.4byte	0xc3
 1852 0889 11       		.uleb128 0x11
 1853 088a 51060000 		.4byte	.LASF128
 1854 088e 0D       		.byte	0xd
 1855 088f 4401     		.2byte	0x144
 1856 0891 C3000000 		.4byte	0xc3
 1857 0895 11       		.uleb128 0x11
 1858 0896 9E040000 		.4byte	.LASF129
 1859 089a 0D       		.byte	0xd
 1860 089b 5101     		.2byte	0x151
 1861 089d A1080000 		.4byte	0x8a1
 1862 08a1 0A       		.uleb128 0xa
 1863 08a2 04       		.byte	0x4
 1864 08a3 A3070000 		.4byte	0x7a3
 1865 08a7 18       		.uleb128 0x18
 1866 08a8 7C040000 		.4byte	.LASF143
 1867 08ac 01       		.byte	0x1
 1868 08ad 3D       		.byte	0x3d
 1869 08ae 01       		.byte	0x1
 1870 08af CA080000 		.4byte	0x8ca
 1871 08b3 19       		.uleb128 0x19
 1872 08b4 E0030000 		.4byte	.LASF130
 1873 08b8 01       		.byte	0x1
 1874 08b9 3D       		.byte	0x3d
 1875 08ba A1080000 		.4byte	0x8a1
 1876 08be 19       		.uleb128 0x19
 1877 08bf 4E040000 		.4byte	.LASF131
 1878 08c3 01       		.byte	0x1
 1879 08c4 3D       		.byte	0x3d
 1880 08c5 CA080000 		.4byte	0x8ca
 1881 08c9 00       		.byte	0
 1882 08ca 0A       		.uleb128 0xa
 1883 08cb 04       		.byte	0x4
 1884 08cc D0080000 		.4byte	0x8d0
ARM GAS  /tmp/cc42I6kA.s 			page 55


 1885 08d0 16       		.uleb128 0x16
 1886 08d1 0D080000 		.4byte	0x80d
 1887 08d5 1A       		.uleb128 0x1a
 1888 08d6 E7040000 		.4byte	.LASF132
 1889 08da 01       		.byte	0x1
 1890 08db 58       		.byte	0x58
 1891 08dc 00000000 		.4byte	.LFB271
 1892 08e0 F4000000 		.4byte	.LFE271-.LFB271
 1893 08e4 01       		.uleb128 0x1
 1894 08e5 9C       		.byte	0x9c
 1895 08e6 D9090000 		.4byte	0x9d9
 1896 08ea 1B       		.uleb128 0x1b
 1897 08eb 4E040000 		.4byte	.LASF131
 1898 08ef 01       		.byte	0x1
 1899 08f0 58       		.byte	0x58
 1900 08f1 D9090000 		.4byte	0x9d9
 1901 08f5 01       		.uleb128 0x1
 1902 08f6 50       		.byte	0x50
 1903 08f7 1C       		.uleb128 0x1c
 1904 08f8 A7080000 		.4byte	0x8a7
 1905 08fc 04000000 		.4byte	.LBB14
 1906 0900 00000000 		.4byte	.Ldebug_ranges0+0
 1907 0904 01       		.byte	0x1
 1908 0905 73       		.byte	0x73
 1909 0906 1D090000 		.4byte	0x91d
 1910 090a 1D       		.uleb128 0x1d
 1911 090b BE080000 		.4byte	0x8be
 1912 090f 03       		.uleb128 0x3
 1913 0910 70       		.byte	0x70
 1914 0911 1C       		.sleb128 28
 1915 0912 9F       		.byte	0x9f
 1916 0913 1E       		.uleb128 0x1e
 1917 0914 B3080000 		.4byte	0x8b3
 1918 0918 00040048 		.4byte	0x48000400
 1919 091c 00       		.byte	0
 1920 091d 1C       		.uleb128 0x1c
 1921 091e A7080000 		.4byte	0x8a7
 1922 0922 08000000 		.4byte	.LBB17
 1923 0926 18000000 		.4byte	.Ldebug_ranges0+0x18
 1924 092a 01       		.byte	0x1
 1925 092b 76       		.byte	0x76
 1926 092c 43090000 		.4byte	0x943
 1927 0930 1D       		.uleb128 0x1d
 1928 0931 BE080000 		.4byte	0x8be
 1929 0935 03       		.uleb128 0x3
 1930 0936 70       		.byte	0x70
 1931 0937 38       		.sleb128 56
 1932 0938 9F       		.byte	0x9f
 1933 0939 1E       		.uleb128 0x1e
 1934 093a B3080000 		.4byte	0x8b3
 1935 093e 00080048 		.4byte	0x48000800
 1936 0942 00       		.byte	0
 1937 0943 1C       		.uleb128 0x1c
 1938 0944 A7080000 		.4byte	0x8a7
 1939 0948 0A000000 		.4byte	.LBB20
 1940 094c 30000000 		.4byte	.Ldebug_ranges0+0x30
 1941 0950 01       		.byte	0x1
ARM GAS  /tmp/cc42I6kA.s 			page 56


 1942 0951 79       		.byte	0x79
 1943 0952 6A090000 		.4byte	0x96a
 1944 0956 1D       		.uleb128 0x1d
 1945 0957 BE080000 		.4byte	0x8be
 1946 095b 04       		.uleb128 0x4
 1947 095c 70       		.byte	0x70
 1948 095d D400     		.sleb128 84
 1949 095f 9F       		.byte	0x9f
 1950 0960 1E       		.uleb128 0x1e
 1951 0961 B3080000 		.4byte	0x8b3
 1952 0965 000C0048 		.4byte	0x48000c00
 1953 0969 00       		.byte	0
 1954 096a 1C       		.uleb128 0x1c
 1955 096b A7080000 		.4byte	0x8a7
 1956 096f 0C000000 		.4byte	.LBB23
 1957 0973 48000000 		.4byte	.Ldebug_ranges0+0x48
 1958 0977 01       		.byte	0x1
 1959 0978 7C       		.byte	0x7c
 1960 0979 91090000 		.4byte	0x991
 1961 097d 1D       		.uleb128 0x1d
 1962 097e BE080000 		.4byte	0x8be
 1963 0982 04       		.uleb128 0x4
 1964 0983 70       		.byte	0x70
 1965 0984 F000     		.sleb128 112
 1966 0986 9F       		.byte	0x9f
 1967 0987 1E       		.uleb128 0x1e
 1968 0988 B3080000 		.4byte	0x8b3
 1969 098c 00100048 		.4byte	0x48001000
 1970 0990 00       		.byte	0
 1971 0991 1C       		.uleb128 0x1c
 1972 0992 A7080000 		.4byte	0x8a7
 1973 0996 0E000000 		.4byte	.LBB26
 1974 099a 60000000 		.4byte	.Ldebug_ranges0+0x60
 1975 099e 01       		.byte	0x1
 1976 099f 7F       		.byte	0x7f
 1977 09a0 B8090000 		.4byte	0x9b8
 1978 09a4 1D       		.uleb128 0x1d
 1979 09a5 BE080000 		.4byte	0x8be
 1980 09a9 04       		.uleb128 0x4
 1981 09aa 70       		.byte	0x70
 1982 09ab 8C01     		.sleb128 140
 1983 09ad 9F       		.byte	0x9f
 1984 09ae 1E       		.uleb128 0x1e
 1985 09af B3080000 		.4byte	0x8b3
 1986 09b3 00140048 		.4byte	0x48001400
 1987 09b7 00       		.byte	0
 1988 09b8 1F       		.uleb128 0x1f
 1989 09b9 A7080000 		.4byte	0x8a7
 1990 09bd 16000000 		.4byte	.LBB29
 1991 09c1 20000000 		.4byte	.LBE29-.LBB29
 1992 09c5 01       		.byte	0x1
 1993 09c6 70       		.byte	0x70
 1994 09c7 1D       		.uleb128 0x1d
 1995 09c8 BE080000 		.4byte	0x8be
 1996 09cc 01       		.uleb128 0x1
 1997 09cd 50       		.byte	0x50
 1998 09ce 1E       		.uleb128 0x1e
ARM GAS  /tmp/cc42I6kA.s 			page 57


 1999 09cf B3080000 		.4byte	0x8b3
 2000 09d3 00000048 		.4byte	0x48000000
 2001 09d7 00       		.byte	0
 2002 09d8 00       		.byte	0
 2003 09d9 0A       		.uleb128 0xa
 2004 09da 04       		.byte	0x4
 2005 09db DF090000 		.4byte	0x9df
 2006 09df 16       		.uleb128 0x16
 2007 09e0 71080000 		.4byte	0x871
 2008 09e4 1A       		.uleb128 0x1a
 2009 09e5 B0040000 		.4byte	.LASF133
 2010 09e9 01       		.byte	0x1
 2011 09ea 9F       		.byte	0x9f
 2012 09eb 00000000 		.4byte	.LFB272
 2013 09ef EE000000 		.4byte	.LFE272-.LFB272
 2014 09f3 01       		.uleb128 0x1
 2015 09f4 9C       		.byte	0x9c
 2016 09f5 BE0A0000 		.4byte	0xabe
 2017 09f9 1B       		.uleb128 0x1b
 2018 09fa B3010000 		.4byte	.LASF134
 2019 09fe 01       		.byte	0x1
 2020 09ff 9F       		.byte	0x9f
 2021 0a00 95080000 		.4byte	0x895
 2022 0a04 01       		.uleb128 0x1
 2023 0a05 50       		.byte	0x50
 2024 0a06 20       		.uleb128 0x20
 2025 0a07 89010000 		.4byte	.LASF135
 2026 0a0b 01       		.byte	0x1
 2027 0a0c A0       		.byte	0xa0
 2028 0a0d 7D080000 		.4byte	0x87d
 2029 0a11 00000000 		.4byte	.LLST0
 2030 0a15 20       		.uleb128 0x20
 2031 0a16 49040000 		.4byte	.LASF136
 2032 0a1a 01       		.byte	0x1
 2033 0a1b A1       		.byte	0xa1
 2034 0a1c 89080000 		.4byte	0x889
 2035 0a20 43000000 		.4byte	.LLST1
 2036 0a24 21       		.uleb128 0x21
 2037 0a25 0C010000 		.4byte	.LASF113
 2038 0a29 01       		.byte	0x1
 2039 0a2a A3       		.byte	0xa3
 2040 0a2b C3000000 		.4byte	0xc3
 2041 0a2f 64000000 		.4byte	.LLST2
 2042 0a33 21       		.uleb128 0x21
 2043 0a34 0B020000 		.4byte	.LASF114
 2044 0a38 01       		.byte	0x1
 2045 0a39 A4       		.byte	0xa4
 2046 0a3a C3000000 		.4byte	0xc3
 2047 0a3e 82000000 		.4byte	.LLST3
 2048 0a42 21       		.uleb128 0x21
 2049 0a43 F3010000 		.4byte	.LASF115
 2050 0a47 01       		.byte	0x1
 2051 0a48 A5       		.byte	0xa5
 2052 0a49 C3000000 		.4byte	0xc3
 2053 0a4d A0000000 		.4byte	.LLST4
 2054 0a51 21       		.uleb128 0x21
 2055 0a52 92000000 		.4byte	.LASF116
ARM GAS  /tmp/cc42I6kA.s 			page 58


 2056 0a56 01       		.byte	0x1
 2057 0a57 A6       		.byte	0xa6
 2058 0a58 C3000000 		.4byte	0xc3
 2059 0a5c BE000000 		.4byte	.LLST5
 2060 0a60 21       		.uleb128 0x21
 2061 0a61 39040000 		.4byte	.LASF137
 2062 0a65 01       		.byte	0x1
 2063 0a66 A7       		.byte	0xa7
 2064 0a67 C3000000 		.4byte	0xc3
 2065 0a6b DC000000 		.4byte	.LLST6
 2066 0a6f 22       		.uleb128 0x22
 2067 0a70 62697400 		.ascii	"bit\000"
 2068 0a74 01       		.byte	0x1
 2069 0a75 A8       		.byte	0xa8
 2070 0a76 C3000000 		.4byte	0xc3
 2071 0a7a 0B010000 		.4byte	.LLST7
 2072 0a7e 23       		.uleb128 0x23
 2073 0a7f 78000000 		.4byte	.Ldebug_ranges0+0x78
 2074 0a83 21       		.uleb128 0x21
 2075 0a84 6D010000 		.4byte	.LASF138
 2076 0a88 01       		.byte	0x1
 2077 0a89 AB       		.byte	0xab
 2078 0a8a C3000000 		.4byte	0xc3
 2079 0a8e 2A010000 		.4byte	.LLST8
 2080 0a92 22       		.uleb128 0x22
 2081 0a93 6D3100   		.ascii	"m1\000"
 2082 0a96 01       		.byte	0x1
 2083 0a97 AB       		.byte	0xab
 2084 0a98 C3000000 		.4byte	0xc3
 2085 0a9c 86010000 		.4byte	.LLST9
 2086 0aa0 22       		.uleb128 0x22
 2087 0aa1 6D3200   		.ascii	"m2\000"
 2088 0aa4 01       		.byte	0x1
 2089 0aa5 AB       		.byte	0xab
 2090 0aa6 C3000000 		.4byte	0xc3
 2091 0aaa BB010000 		.4byte	.LLST10
 2092 0aae 22       		.uleb128 0x22
 2093 0aaf 6D3400   		.ascii	"m4\000"
 2094 0ab2 01       		.byte	0x1
 2095 0ab3 AB       		.byte	0xab
 2096 0ab4 C3000000 		.4byte	0xc3
 2097 0ab8 04020000 		.4byte	.LLST11
 2098 0abc 00       		.byte	0
 2099 0abd 00       		.byte	0
 2100 0abe 24       		.uleb128 0x24
 2101 0abf CA000000 		.4byte	.LASF139
 2102 0ac3 0E       		.byte	0xe
 2103 0ac4 4407     		.2byte	0x744
 2104 0ac6 CA0A0000 		.4byte	0xaca
 2105 0aca 0F       		.uleb128 0xf
 2106 0acb B8000000 		.4byte	0xb8
 2107 0acf 25       		.uleb128 0x25
 2108 0ad0 636800   		.ascii	"ch\000"
 2109 0ad3 06       		.byte	0x6
 2110 0ad4 D201     		.2byte	0x1d2
 2111 0ad6 DC030000 		.4byte	0x3dc
 2112 0ada 00       		.byte	0
ARM GAS  /tmp/cc42I6kA.s 			page 59


 2113              		.section	.debug_abbrev,"",%progbits
 2114              	.Ldebug_abbrev0:
 2115 0000 01       		.uleb128 0x1
 2116 0001 11       		.uleb128 0x11
 2117 0002 01       		.byte	0x1
 2118 0003 25       		.uleb128 0x25
 2119 0004 0E       		.uleb128 0xe
 2120 0005 13       		.uleb128 0x13
 2121 0006 0B       		.uleb128 0xb
 2122 0007 03       		.uleb128 0x3
 2123 0008 0E       		.uleb128 0xe
 2124 0009 1B       		.uleb128 0x1b
 2125 000a 0E       		.uleb128 0xe
 2126 000b 55       		.uleb128 0x55
 2127 000c 17       		.uleb128 0x17
 2128 000d 11       		.uleb128 0x11
 2129 000e 01       		.uleb128 0x1
 2130 000f 10       		.uleb128 0x10
 2131 0010 17       		.uleb128 0x17
 2132 0011 00       		.byte	0
 2133 0012 00       		.byte	0
 2134 0013 02       		.uleb128 0x2
 2135 0014 24       		.uleb128 0x24
 2136 0015 00       		.byte	0
 2137 0016 0B       		.uleb128 0xb
 2138 0017 0B       		.uleb128 0xb
 2139 0018 3E       		.uleb128 0x3e
 2140 0019 0B       		.uleb128 0xb
 2141 001a 03       		.uleb128 0x3
 2142 001b 08       		.uleb128 0x8
 2143 001c 00       		.byte	0
 2144 001d 00       		.byte	0
 2145 001e 03       		.uleb128 0x3
 2146 001f 24       		.uleb128 0x24
 2147 0020 00       		.byte	0
 2148 0021 0B       		.uleb128 0xb
 2149 0022 0B       		.uleb128 0xb
 2150 0023 3E       		.uleb128 0x3e
 2151 0024 0B       		.uleb128 0xb
 2152 0025 03       		.uleb128 0x3
 2153 0026 0E       		.uleb128 0xe
 2154 0027 00       		.byte	0
 2155 0028 00       		.byte	0
 2156 0029 04       		.uleb128 0x4
 2157 002a 16       		.uleb128 0x16
 2158 002b 00       		.byte	0
 2159 002c 03       		.uleb128 0x3
 2160 002d 0E       		.uleb128 0xe
 2161 002e 3A       		.uleb128 0x3a
 2162 002f 0B       		.uleb128 0xb
 2163 0030 3B       		.uleb128 0x3b
 2164 0031 0B       		.uleb128 0xb
 2165 0032 49       		.uleb128 0x49
 2166 0033 13       		.uleb128 0x13
 2167 0034 00       		.byte	0
 2168 0035 00       		.byte	0
 2169 0036 05       		.uleb128 0x5
ARM GAS  /tmp/cc42I6kA.s 			page 60


 2170 0037 13       		.uleb128 0x13
 2171 0038 01       		.byte	0x1
 2172 0039 03       		.uleb128 0x3
 2173 003a 0E       		.uleb128 0xe
 2174 003b 0B       		.uleb128 0xb
 2175 003c 0B       		.uleb128 0xb
 2176 003d 3A       		.uleb128 0x3a
 2177 003e 0B       		.uleb128 0xb
 2178 003f 3B       		.uleb128 0x3b
 2179 0040 0B       		.uleb128 0xb
 2180 0041 01       		.uleb128 0x1
 2181 0042 13       		.uleb128 0x13
 2182 0043 00       		.byte	0
 2183 0044 00       		.byte	0
 2184 0045 06       		.uleb128 0x6
 2185 0046 0D       		.uleb128 0xd
 2186 0047 00       		.byte	0
 2187 0048 03       		.uleb128 0x3
 2188 0049 0E       		.uleb128 0xe
 2189 004a 3A       		.uleb128 0x3a
 2190 004b 0B       		.uleb128 0xb
 2191 004c 3B       		.uleb128 0x3b
 2192 004d 0B       		.uleb128 0xb
 2193 004e 49       		.uleb128 0x49
 2194 004f 13       		.uleb128 0x13
 2195 0050 38       		.uleb128 0x38
 2196 0051 0B       		.uleb128 0xb
 2197 0052 00       		.byte	0
 2198 0053 00       		.byte	0
 2199 0054 07       		.uleb128 0x7
 2200 0055 0D       		.uleb128 0xd
 2201 0056 00       		.byte	0
 2202 0057 03       		.uleb128 0x3
 2203 0058 08       		.uleb128 0x8
 2204 0059 3A       		.uleb128 0x3a
 2205 005a 0B       		.uleb128 0xb
 2206 005b 3B       		.uleb128 0x3b
 2207 005c 0B       		.uleb128 0xb
 2208 005d 49       		.uleb128 0x49
 2209 005e 13       		.uleb128 0x13
 2210 005f 38       		.uleb128 0x38
 2211 0060 0B       		.uleb128 0xb
 2212 0061 00       		.byte	0
 2213 0062 00       		.byte	0
 2214 0063 08       		.uleb128 0x8
 2215 0064 0D       		.uleb128 0xd
 2216 0065 00       		.byte	0
 2217 0066 03       		.uleb128 0x3
 2218 0067 08       		.uleb128 0x8
 2219 0068 3A       		.uleb128 0x3a
 2220 0069 0B       		.uleb128 0xb
 2221 006a 3B       		.uleb128 0x3b
 2222 006b 05       		.uleb128 0x5
 2223 006c 49       		.uleb128 0x49
 2224 006d 13       		.uleb128 0x13
 2225 006e 38       		.uleb128 0x38
 2226 006f 0B       		.uleb128 0xb
ARM GAS  /tmp/cc42I6kA.s 			page 61


 2227 0070 00       		.byte	0
 2228 0071 00       		.byte	0
 2229 0072 09       		.uleb128 0x9
 2230 0073 0D       		.uleb128 0xd
 2231 0074 00       		.byte	0
 2232 0075 03       		.uleb128 0x3
 2233 0076 0E       		.uleb128 0xe
 2234 0077 3A       		.uleb128 0x3a
 2235 0078 0B       		.uleb128 0xb
 2236 0079 3B       		.uleb128 0x3b
 2237 007a 05       		.uleb128 0x5
 2238 007b 49       		.uleb128 0x49
 2239 007c 13       		.uleb128 0x13
 2240 007d 38       		.uleb128 0x38
 2241 007e 0B       		.uleb128 0xb
 2242 007f 00       		.byte	0
 2243 0080 00       		.byte	0
 2244 0081 0A       		.uleb128 0xa
 2245 0082 0F       		.uleb128 0xf
 2246 0083 00       		.byte	0
 2247 0084 0B       		.uleb128 0xb
 2248 0085 0B       		.uleb128 0xb
 2249 0086 49       		.uleb128 0x49
 2250 0087 13       		.uleb128 0x13
 2251 0088 00       		.byte	0
 2252 0089 00       		.byte	0
 2253 008a 0B       		.uleb128 0xb
 2254 008b 13       		.uleb128 0x13
 2255 008c 01       		.byte	0x1
 2256 008d 03       		.uleb128 0x3
 2257 008e 0E       		.uleb128 0xe
 2258 008f 0B       		.uleb128 0xb
 2259 0090 0B       		.uleb128 0xb
 2260 0091 3A       		.uleb128 0x3a
 2261 0092 0B       		.uleb128 0xb
 2262 0093 3B       		.uleb128 0x3b
 2263 0094 05       		.uleb128 0x5
 2264 0095 01       		.uleb128 0x1
 2265 0096 13       		.uleb128 0x13
 2266 0097 00       		.byte	0
 2267 0098 00       		.byte	0
 2268 0099 0C       		.uleb128 0xc
 2269 009a 15       		.uleb128 0x15
 2270 009b 01       		.byte	0x1
 2271 009c 27       		.uleb128 0x27
 2272 009d 19       		.uleb128 0x19
 2273 009e 01       		.uleb128 0x1
 2274 009f 13       		.uleb128 0x13
 2275 00a0 00       		.byte	0
 2276 00a1 00       		.byte	0
 2277 00a2 0D       		.uleb128 0xd
 2278 00a3 05       		.uleb128 0x5
 2279 00a4 00       		.byte	0
 2280 00a5 49       		.uleb128 0x49
 2281 00a6 13       		.uleb128 0x13
 2282 00a7 00       		.byte	0
 2283 00a8 00       		.byte	0
ARM GAS  /tmp/cc42I6kA.s 			page 62


 2284 00a9 0E       		.uleb128 0xe
 2285 00aa 0F       		.uleb128 0xf
 2286 00ab 00       		.byte	0
 2287 00ac 0B       		.uleb128 0xb
 2288 00ad 0B       		.uleb128 0xb
 2289 00ae 00       		.byte	0
 2290 00af 00       		.byte	0
 2291 00b0 0F       		.uleb128 0xf
 2292 00b1 35       		.uleb128 0x35
 2293 00b2 00       		.byte	0
 2294 00b3 49       		.uleb128 0x49
 2295 00b4 13       		.uleb128 0x13
 2296 00b5 00       		.byte	0
 2297 00b6 00       		.byte	0
 2298 00b7 10       		.uleb128 0x10
 2299 00b8 13       		.uleb128 0x13
 2300 00b9 01       		.byte	0x1
 2301 00ba 0B       		.uleb128 0xb
 2302 00bb 0B       		.uleb128 0xb
 2303 00bc 3A       		.uleb128 0x3a
 2304 00bd 0B       		.uleb128 0xb
 2305 00be 3B       		.uleb128 0x3b
 2306 00bf 05       		.uleb128 0x5
 2307 00c0 01       		.uleb128 0x1
 2308 00c1 13       		.uleb128 0x13
 2309 00c2 00       		.byte	0
 2310 00c3 00       		.byte	0
 2311 00c4 11       		.uleb128 0x11
 2312 00c5 16       		.uleb128 0x16
 2313 00c6 00       		.byte	0
 2314 00c7 03       		.uleb128 0x3
 2315 00c8 0E       		.uleb128 0xe
 2316 00c9 3A       		.uleb128 0x3a
 2317 00ca 0B       		.uleb128 0xb
 2318 00cb 3B       		.uleb128 0x3b
 2319 00cc 05       		.uleb128 0x5
 2320 00cd 49       		.uleb128 0x49
 2321 00ce 13       		.uleb128 0x13
 2322 00cf 00       		.byte	0
 2323 00d0 00       		.byte	0
 2324 00d1 12       		.uleb128 0x12
 2325 00d2 13       		.uleb128 0x13
 2326 00d3 01       		.byte	0x1
 2327 00d4 0B       		.uleb128 0xb
 2328 00d5 0B       		.uleb128 0xb
 2329 00d6 3A       		.uleb128 0x3a
 2330 00d7 0B       		.uleb128 0xb
 2331 00d8 3B       		.uleb128 0x3b
 2332 00d9 0B       		.uleb128 0xb
 2333 00da 01       		.uleb128 0x1
 2334 00db 13       		.uleb128 0x13
 2335 00dc 00       		.byte	0
 2336 00dd 00       		.byte	0
 2337 00de 13       		.uleb128 0x13
 2338 00df 17       		.uleb128 0x17
 2339 00e0 01       		.byte	0x1
 2340 00e1 0B       		.uleb128 0xb
ARM GAS  /tmp/cc42I6kA.s 			page 63


 2341 00e2 0B       		.uleb128 0xb
 2342 00e3 3A       		.uleb128 0x3a
 2343 00e4 0B       		.uleb128 0xb
 2344 00e5 3B       		.uleb128 0x3b
 2345 00e6 0B       		.uleb128 0xb
 2346 00e7 01       		.uleb128 0x1
 2347 00e8 13       		.uleb128 0x13
 2348 00e9 00       		.byte	0
 2349 00ea 00       		.byte	0
 2350 00eb 14       		.uleb128 0x14
 2351 00ec 0D       		.uleb128 0xd
 2352 00ed 00       		.byte	0
 2353 00ee 03       		.uleb128 0x3
 2354 00ef 0E       		.uleb128 0xe
 2355 00f0 3A       		.uleb128 0x3a
 2356 00f1 0B       		.uleb128 0xb
 2357 00f2 3B       		.uleb128 0x3b
 2358 00f3 0B       		.uleb128 0xb
 2359 00f4 49       		.uleb128 0x49
 2360 00f5 13       		.uleb128 0x13
 2361 00f6 00       		.byte	0
 2362 00f7 00       		.byte	0
 2363 00f8 15       		.uleb128 0x15
 2364 00f9 0D       		.uleb128 0xd
 2365 00fa 00       		.byte	0
 2366 00fb 03       		.uleb128 0x3
 2367 00fc 0E       		.uleb128 0xe
 2368 00fd 3A       		.uleb128 0x3a
 2369 00fe 0B       		.uleb128 0xb
 2370 00ff 3B       		.uleb128 0x3b
 2371 0100 05       		.uleb128 0x5
 2372 0101 49       		.uleb128 0x49
 2373 0102 13       		.uleb128 0x13
 2374 0103 00       		.byte	0
 2375 0104 00       		.byte	0
 2376 0105 16       		.uleb128 0x16
 2377 0106 26       		.uleb128 0x26
 2378 0107 00       		.byte	0
 2379 0108 49       		.uleb128 0x49
 2380 0109 13       		.uleb128 0x13
 2381 010a 00       		.byte	0
 2382 010b 00       		.byte	0
 2383 010c 17       		.uleb128 0x17
 2384 010d 0D       		.uleb128 0xd
 2385 010e 00       		.byte	0
 2386 010f 03       		.uleb128 0x3
 2387 0110 08       		.uleb128 0x8
 2388 0111 3A       		.uleb128 0x3a
 2389 0112 0B       		.uleb128 0xb
 2390 0113 3B       		.uleb128 0x3b
 2391 0114 0B       		.uleb128 0xb
 2392 0115 49       		.uleb128 0x49
 2393 0116 13       		.uleb128 0x13
 2394 0117 00       		.byte	0
 2395 0118 00       		.byte	0
 2396 0119 18       		.uleb128 0x18
 2397 011a 2E       		.uleb128 0x2e
ARM GAS  /tmp/cc42I6kA.s 			page 64


 2398 011b 01       		.byte	0x1
 2399 011c 03       		.uleb128 0x3
 2400 011d 0E       		.uleb128 0xe
 2401 011e 3A       		.uleb128 0x3a
 2402 011f 0B       		.uleb128 0xb
 2403 0120 3B       		.uleb128 0x3b
 2404 0121 0B       		.uleb128 0xb
 2405 0122 27       		.uleb128 0x27
 2406 0123 19       		.uleb128 0x19
 2407 0124 20       		.uleb128 0x20
 2408 0125 0B       		.uleb128 0xb
 2409 0126 01       		.uleb128 0x1
 2410 0127 13       		.uleb128 0x13
 2411 0128 00       		.byte	0
 2412 0129 00       		.byte	0
 2413 012a 19       		.uleb128 0x19
 2414 012b 05       		.uleb128 0x5
 2415 012c 00       		.byte	0
 2416 012d 03       		.uleb128 0x3
 2417 012e 0E       		.uleb128 0xe
 2418 012f 3A       		.uleb128 0x3a
 2419 0130 0B       		.uleb128 0xb
 2420 0131 3B       		.uleb128 0x3b
 2421 0132 0B       		.uleb128 0xb
 2422 0133 49       		.uleb128 0x49
 2423 0134 13       		.uleb128 0x13
 2424 0135 00       		.byte	0
 2425 0136 00       		.byte	0
 2426 0137 1A       		.uleb128 0x1a
 2427 0138 2E       		.uleb128 0x2e
 2428 0139 01       		.byte	0x1
 2429 013a 3F       		.uleb128 0x3f
 2430 013b 19       		.uleb128 0x19
 2431 013c 03       		.uleb128 0x3
 2432 013d 0E       		.uleb128 0xe
 2433 013e 3A       		.uleb128 0x3a
 2434 013f 0B       		.uleb128 0xb
 2435 0140 3B       		.uleb128 0x3b
 2436 0141 0B       		.uleb128 0xb
 2437 0142 27       		.uleb128 0x27
 2438 0143 19       		.uleb128 0x19
 2439 0144 11       		.uleb128 0x11
 2440 0145 01       		.uleb128 0x1
 2441 0146 12       		.uleb128 0x12
 2442 0147 06       		.uleb128 0x6
 2443 0148 40       		.uleb128 0x40
 2444 0149 18       		.uleb128 0x18
 2445 014a 9742     		.uleb128 0x2117
 2446 014c 19       		.uleb128 0x19
 2447 014d 01       		.uleb128 0x1
 2448 014e 13       		.uleb128 0x13
 2449 014f 00       		.byte	0
 2450 0150 00       		.byte	0
 2451 0151 1B       		.uleb128 0x1b
 2452 0152 05       		.uleb128 0x5
 2453 0153 00       		.byte	0
 2454 0154 03       		.uleb128 0x3
ARM GAS  /tmp/cc42I6kA.s 			page 65


 2455 0155 0E       		.uleb128 0xe
 2456 0156 3A       		.uleb128 0x3a
 2457 0157 0B       		.uleb128 0xb
 2458 0158 3B       		.uleb128 0x3b
 2459 0159 0B       		.uleb128 0xb
 2460 015a 49       		.uleb128 0x49
 2461 015b 13       		.uleb128 0x13
 2462 015c 02       		.uleb128 0x2
 2463 015d 18       		.uleb128 0x18
 2464 015e 00       		.byte	0
 2465 015f 00       		.byte	0
 2466 0160 1C       		.uleb128 0x1c
 2467 0161 1D       		.uleb128 0x1d
 2468 0162 01       		.byte	0x1
 2469 0163 31       		.uleb128 0x31
 2470 0164 13       		.uleb128 0x13
 2471 0165 52       		.uleb128 0x52
 2472 0166 01       		.uleb128 0x1
 2473 0167 55       		.uleb128 0x55
 2474 0168 17       		.uleb128 0x17
 2475 0169 58       		.uleb128 0x58
 2476 016a 0B       		.uleb128 0xb
 2477 016b 59       		.uleb128 0x59
 2478 016c 0B       		.uleb128 0xb
 2479 016d 01       		.uleb128 0x1
 2480 016e 13       		.uleb128 0x13
 2481 016f 00       		.byte	0
 2482 0170 00       		.byte	0
 2483 0171 1D       		.uleb128 0x1d
 2484 0172 05       		.uleb128 0x5
 2485 0173 00       		.byte	0
 2486 0174 31       		.uleb128 0x31
 2487 0175 13       		.uleb128 0x13
 2488 0176 02       		.uleb128 0x2
 2489 0177 18       		.uleb128 0x18
 2490 0178 00       		.byte	0
 2491 0179 00       		.byte	0
 2492 017a 1E       		.uleb128 0x1e
 2493 017b 05       		.uleb128 0x5
 2494 017c 00       		.byte	0
 2495 017d 31       		.uleb128 0x31
 2496 017e 13       		.uleb128 0x13
 2497 017f 1C       		.uleb128 0x1c
 2498 0180 06       		.uleb128 0x6
 2499 0181 00       		.byte	0
 2500 0182 00       		.byte	0
 2501 0183 1F       		.uleb128 0x1f
 2502 0184 1D       		.uleb128 0x1d
 2503 0185 01       		.byte	0x1
 2504 0186 31       		.uleb128 0x31
 2505 0187 13       		.uleb128 0x13
 2506 0188 11       		.uleb128 0x11
 2507 0189 01       		.uleb128 0x1
 2508 018a 12       		.uleb128 0x12
 2509 018b 06       		.uleb128 0x6
 2510 018c 58       		.uleb128 0x58
 2511 018d 0B       		.uleb128 0xb
ARM GAS  /tmp/cc42I6kA.s 			page 66


 2512 018e 59       		.uleb128 0x59
 2513 018f 0B       		.uleb128 0xb
 2514 0190 00       		.byte	0
 2515 0191 00       		.byte	0
 2516 0192 20       		.uleb128 0x20
 2517 0193 05       		.uleb128 0x5
 2518 0194 00       		.byte	0
 2519 0195 03       		.uleb128 0x3
 2520 0196 0E       		.uleb128 0xe
 2521 0197 3A       		.uleb128 0x3a
 2522 0198 0B       		.uleb128 0xb
 2523 0199 3B       		.uleb128 0x3b
 2524 019a 0B       		.uleb128 0xb
 2525 019b 49       		.uleb128 0x49
 2526 019c 13       		.uleb128 0x13
 2527 019d 02       		.uleb128 0x2
 2528 019e 17       		.uleb128 0x17
 2529 019f 00       		.byte	0
 2530 01a0 00       		.byte	0
 2531 01a1 21       		.uleb128 0x21
 2532 01a2 34       		.uleb128 0x34
 2533 01a3 00       		.byte	0
 2534 01a4 03       		.uleb128 0x3
 2535 01a5 0E       		.uleb128 0xe
 2536 01a6 3A       		.uleb128 0x3a
 2537 01a7 0B       		.uleb128 0xb
 2538 01a8 3B       		.uleb128 0x3b
 2539 01a9 0B       		.uleb128 0xb
 2540 01aa 49       		.uleb128 0x49
 2541 01ab 13       		.uleb128 0x13
 2542 01ac 02       		.uleb128 0x2
 2543 01ad 17       		.uleb128 0x17
 2544 01ae 00       		.byte	0
 2545 01af 00       		.byte	0
 2546 01b0 22       		.uleb128 0x22
 2547 01b1 34       		.uleb128 0x34
 2548 01b2 00       		.byte	0
 2549 01b3 03       		.uleb128 0x3
 2550 01b4 08       		.uleb128 0x8
 2551 01b5 3A       		.uleb128 0x3a
 2552 01b6 0B       		.uleb128 0xb
 2553 01b7 3B       		.uleb128 0x3b
 2554 01b8 0B       		.uleb128 0xb
 2555 01b9 49       		.uleb128 0x49
 2556 01ba 13       		.uleb128 0x13
 2557 01bb 02       		.uleb128 0x2
 2558 01bc 17       		.uleb128 0x17
 2559 01bd 00       		.byte	0
 2560 01be 00       		.byte	0
 2561 01bf 23       		.uleb128 0x23
 2562 01c0 0B       		.uleb128 0xb
 2563 01c1 01       		.byte	0x1
 2564 01c2 55       		.uleb128 0x55
 2565 01c3 17       		.uleb128 0x17
 2566 01c4 00       		.byte	0
 2567 01c5 00       		.byte	0
 2568 01c6 24       		.uleb128 0x24
ARM GAS  /tmp/cc42I6kA.s 			page 67


 2569 01c7 34       		.uleb128 0x34
 2570 01c8 00       		.byte	0
 2571 01c9 03       		.uleb128 0x3
 2572 01ca 0E       		.uleb128 0xe
 2573 01cb 3A       		.uleb128 0x3a
 2574 01cc 0B       		.uleb128 0xb
 2575 01cd 3B       		.uleb128 0x3b
 2576 01ce 05       		.uleb128 0x5
 2577 01cf 49       		.uleb128 0x49
 2578 01d0 13       		.uleb128 0x13
 2579 01d1 3F       		.uleb128 0x3f
 2580 01d2 19       		.uleb128 0x19
 2581 01d3 3C       		.uleb128 0x3c
 2582 01d4 19       		.uleb128 0x19
 2583 01d5 00       		.byte	0
 2584 01d6 00       		.byte	0
 2585 01d7 25       		.uleb128 0x25
 2586 01d8 34       		.uleb128 0x34
 2587 01d9 00       		.byte	0
 2588 01da 03       		.uleb128 0x3
 2589 01db 08       		.uleb128 0x8
 2590 01dc 3A       		.uleb128 0x3a
 2591 01dd 0B       		.uleb128 0xb
 2592 01de 3B       		.uleb128 0x3b
 2593 01df 05       		.uleb128 0x5
 2594 01e0 49       		.uleb128 0x49
 2595 01e1 13       		.uleb128 0x13
 2596 01e2 3F       		.uleb128 0x3f
 2597 01e3 19       		.uleb128 0x19
 2598 01e4 3C       		.uleb128 0x3c
 2599 01e5 19       		.uleb128 0x19
 2600 01e6 00       		.byte	0
 2601 01e7 00       		.byte	0
 2602 01e8 00       		.byte	0
 2603              		.section	.debug_loc,"",%progbits
 2604              	.Ldebug_loc0:
 2605              	.LLST0:
 2606 0000 00000000 		.4byte	.LVL7
 2607 0004 2C000000 		.4byte	.LVL15
 2608 0008 0100     		.2byte	0x1
 2609 000a 51       		.byte	0x51
 2610 000b 2C000000 		.4byte	.LVL15
 2611 000f 2E000000 		.4byte	.LVL16
 2612 0013 0500     		.2byte	0x5
 2613 0015 71       		.byte	0x71
 2614 0016 00       		.sleb128 0
 2615 0017 31       		.byte	0x31
 2616 0018 25       		.byte	0x25
 2617 0019 9F       		.byte	0x9f
 2618 001a 2E000000 		.4byte	.LVL16
 2619 001e 30000000 		.4byte	.LVL17
 2620 0022 0100     		.2byte	0x1
 2621 0024 51       		.byte	0x51
 2622 0025 3A000000 		.4byte	.LVL22
 2623 0029 AE000000 		.4byte	.LVL27
 2624 002d 0100     		.2byte	0x1
 2625 002f 51       		.byte	0x51
ARM GAS  /tmp/cc42I6kA.s 			page 68


 2626 0030 B8000000 		.4byte	.LVL30
 2627 0034 EE000000 		.4byte	.LFE272
 2628 0038 0100     		.2byte	0x1
 2629 003a 51       		.byte	0x51
 2630 003b 00000000 		.4byte	0
 2631 003f 00000000 		.4byte	0
 2632              	.LLST1:
 2633 0043 00000000 		.4byte	.LVL7
 2634 0047 20000000 		.4byte	.LVL13
 2635 004b 0100     		.2byte	0x1
 2636 004d 52       		.byte	0x52
 2637 004e 20000000 		.4byte	.LVL13
 2638 0052 EE000000 		.4byte	.LFE272
 2639 0056 0400     		.2byte	0x4
 2640 0058 F3       		.byte	0xf3
 2641 0059 01       		.uleb128 0x1
 2642 005a 52       		.byte	0x52
 2643 005b 9F       		.byte	0x9f
 2644 005c 00000000 		.4byte	0
 2645 0060 00000000 		.4byte	0
 2646              	.LLST2:
 2647 0064 0A000000 		.4byte	.LVL8
 2648 0068 B6000000 		.4byte	.LVL29
 2649 006c 0100     		.2byte	0x1
 2650 006e 54       		.byte	0x54
 2651 006f B8000000 		.4byte	.LVL30
 2652 0073 EE000000 		.4byte	.LFE272
 2653 0077 0100     		.2byte	0x1
 2654 0079 54       		.byte	0x54
 2655 007a 00000000 		.4byte	0
 2656 007e 00000000 		.4byte	0
 2657              	.LLST3:
 2658 0082 0E000000 		.4byte	.LVL9
 2659 0086 B6000000 		.4byte	.LVL29
 2660 008a 0100     		.2byte	0x1
 2661 008c 57       		.byte	0x57
 2662 008d B8000000 		.4byte	.LVL30
 2663 0091 EE000000 		.4byte	.LFE272
 2664 0095 0100     		.2byte	0x1
 2665 0097 57       		.byte	0x57
 2666 0098 00000000 		.4byte	0
 2667 009c 00000000 		.4byte	0
 2668              	.LLST4:
 2669 00a0 12000000 		.4byte	.LVL10
 2670 00a4 B6000000 		.4byte	.LVL29
 2671 00a8 0100     		.2byte	0x1
 2672 00aa 56       		.byte	0x56
 2673 00ab B8000000 		.4byte	.LVL30
 2674 00af EE000000 		.4byte	.LFE272
 2675 00b3 0100     		.2byte	0x1
 2676 00b5 56       		.byte	0x56
 2677 00b6 00000000 		.4byte	0
 2678 00ba 00000000 		.4byte	0
 2679              	.LLST5:
 2680 00be 16000000 		.4byte	.LVL11
 2681 00c2 B6000000 		.4byte	.LVL29
 2682 00c6 0100     		.2byte	0x1
ARM GAS  /tmp/cc42I6kA.s 			page 69


 2683 00c8 55       		.byte	0x55
 2684 00c9 B8000000 		.4byte	.LVL30
 2685 00cd EE000000 		.4byte	.LFE272
 2686 00d1 0100     		.2byte	0x1
 2687 00d3 55       		.byte	0x55
 2688 00d4 00000000 		.4byte	0
 2689 00d8 00000000 		.4byte	0
 2690              	.LLST6:
 2691 00dc 1A000000 		.4byte	.LVL12
 2692 00e0 B6000000 		.4byte	.LVL29
 2693 00e4 0100     		.2byte	0x1
 2694 00e6 5B       		.byte	0x5b
 2695 00e7 B6000000 		.4byte	.LVL29
 2696 00eb B8000000 		.4byte	.LVL30
 2697 00ef 0700     		.2byte	0x7
 2698 00f1 F3       		.byte	0xf3
 2699 00f2 01       		.uleb128 0x1
 2700 00f3 52       		.byte	0x52
 2701 00f4 09       		.byte	0x9
 2702 00f5 F9       		.byte	0xf9
 2703 00f6 24       		.byte	0x24
 2704 00f7 9F       		.byte	0x9f
 2705 00f8 B8000000 		.4byte	.LVL30
 2706 00fc EE000000 		.4byte	.LFE272
 2707 0100 0100     		.2byte	0x1
 2708 0102 5B       		.byte	0x5b
 2709 0103 00000000 		.4byte	0
 2710 0107 00000000 		.4byte	0
 2711              	.LLST7:
 2712 010b 1A000000 		.4byte	.LVL12
 2713 010f 20000000 		.4byte	.LVL13
 2714 0113 0200     		.2byte	0x2
 2715 0115 30       		.byte	0x30
 2716 0116 9F       		.byte	0x9f
 2717 0117 20000000 		.4byte	.LVL13
 2718 011b EE000000 		.4byte	.LFE272
 2719 011f 0100     		.2byte	0x1
 2720 0121 53       		.byte	0x53
 2721 0122 00000000 		.4byte	0
 2722 0126 00000000 		.4byte	0
 2723              	.LLST8:
 2724 012a 20000000 		.4byte	.LVL13
 2725 012e 2C000000 		.4byte	.LVL15
 2726 0132 0100     		.2byte	0x1
 2727 0134 58       		.byte	0x58
 2728 0135 8C000000 		.4byte	.LVL23
 2729 0139 B2000000 		.4byte	.LVL28
 2730 013d 0100     		.2byte	0x1
 2731 013f 58       		.byte	0x58
 2732 0140 B8000000 		.4byte	.LVL30
 2733 0144 C8000000 		.4byte	.LVL32
 2734 0148 0100     		.2byte	0x1
 2735 014a 58       		.byte	0x58
 2736 014b C8000000 		.4byte	.LVL32
 2737 014f DC000000 		.4byte	.LVL33
 2738 0153 0A00     		.2byte	0xa
 2739 0155 7B       		.byte	0x7b
ARM GAS  /tmp/cc42I6kA.s 			page 70


 2740 0156 00       		.sleb128 0
 2741 0157 73       		.byte	0x73
 2742 0158 00       		.sleb128 0
 2743 0159 37       		.byte	0x37
 2744 015a 1A       		.byte	0x1a
 2745 015b 32       		.byte	0x32
 2746 015c 24       		.byte	0x24
 2747 015d 24       		.byte	0x24
 2748 015e 9F       		.byte	0x9f
 2749 015f DC000000 		.4byte	.LVL33
 2750 0163 E8000000 		.4byte	.LVL35
 2751 0167 0100     		.2byte	0x1
 2752 0169 58       		.byte	0x58
 2753 016a E8000000 		.4byte	.LVL35
 2754 016e EE000000 		.4byte	.LFE272
 2755 0172 0A00     		.2byte	0xa
 2756 0174 7B       		.byte	0x7b
 2757 0175 00       		.sleb128 0
 2758 0176 73       		.byte	0x73
 2759 0177 00       		.sleb128 0
 2760 0178 37       		.byte	0x37
 2761 0179 1A       		.byte	0x1a
 2762 017a 32       		.byte	0x32
 2763 017b 24       		.byte	0x24
 2764 017c 24       		.byte	0x24
 2765 017d 9F       		.byte	0x9f
 2766 017e 00000000 		.4byte	0
 2767 0182 00000000 		.4byte	0
 2768              	.LLST9:
 2769 0186 20000000 		.4byte	.LVL13
 2770 018a 2C000000 		.4byte	.LVL15
 2771 018e 0500     		.2byte	0x5
 2772 0190 31       		.byte	0x31
 2773 0191 73       		.byte	0x73
 2774 0192 00       		.sleb128 0
 2775 0193 24       		.byte	0x24
 2776 0194 9F       		.byte	0x9f
 2777 0195 8C000000 		.4byte	.LVL23
 2778 0199 B2000000 		.4byte	.LVL28
 2779 019d 0500     		.2byte	0x5
 2780 019f 31       		.byte	0x31
 2781 01a0 73       		.byte	0x73
 2782 01a1 00       		.sleb128 0
 2783 01a2 24       		.byte	0x24
 2784 01a3 9F       		.byte	0x9f
 2785 01a4 B8000000 		.4byte	.LVL30
 2786 01a8 EE000000 		.4byte	.LFE272
 2787 01ac 0500     		.2byte	0x5
 2788 01ae 31       		.byte	0x31
 2789 01af 73       		.byte	0x73
 2790 01b0 00       		.sleb128 0
 2791 01b1 24       		.byte	0x24
 2792 01b2 9F       		.byte	0x9f
 2793 01b3 00000000 		.4byte	0
 2794 01b7 00000000 		.4byte	0
 2795              	.LLST10:
 2796 01bb 20000000 		.4byte	.LVL13
ARM GAS  /tmp/cc42I6kA.s 			page 71


 2797 01bf 2C000000 		.4byte	.LVL15
 2798 01c3 0700     		.2byte	0x7
 2799 01c5 33       		.byte	0x33
 2800 01c6 73       		.byte	0x73
 2801 01c7 00       		.sleb128 0
 2802 01c8 31       		.byte	0x31
 2803 01c9 24       		.byte	0x24
 2804 01ca 24       		.byte	0x24
 2805 01cb 9F       		.byte	0x9f
 2806 01cc 8C000000 		.4byte	.LVL23
 2807 01d0 9A000000 		.4byte	.LVL25
 2808 01d4 0400     		.2byte	0x4
 2809 01d6 72       		.byte	0x72
 2810 01d7 00       		.sleb128 0
 2811 01d8 20       		.byte	0x20
 2812 01d9 9F       		.byte	0x9f
 2813 01da 9A000000 		.4byte	.LVL25
 2814 01de B2000000 		.4byte	.LVL28
 2815 01e2 0700     		.2byte	0x7
 2816 01e4 33       		.byte	0x33
 2817 01e5 73       		.byte	0x73
 2818 01e6 00       		.sleb128 0
 2819 01e7 31       		.byte	0x31
 2820 01e8 24       		.byte	0x24
 2821 01e9 24       		.byte	0x24
 2822 01ea 9F       		.byte	0x9f
 2823 01eb B8000000 		.4byte	.LVL30
 2824 01ef EE000000 		.4byte	.LFE272
 2825 01f3 0700     		.2byte	0x7
 2826 01f5 33       		.byte	0x33
 2827 01f6 73       		.byte	0x73
 2828 01f7 00       		.sleb128 0
 2829 01f8 31       		.byte	0x31
 2830 01f9 24       		.byte	0x24
 2831 01fa 24       		.byte	0x24
 2832 01fb 9F       		.byte	0x9f
 2833 01fc 00000000 		.4byte	0
 2834 0200 00000000 		.4byte	0
 2835              	.LLST11:
 2836 0204 20000000 		.4byte	.LVL13
 2837 0208 26000000 		.4byte	.LVL14
 2838 020c 0100     		.2byte	0x1
 2839 020e 5C       		.byte	0x5c
 2840 020f 26000000 		.4byte	.LVL14
 2841 0213 2C000000 		.4byte	.LVL15
 2842 0217 0A00     		.2byte	0xa
 2843 0219 7A       		.byte	0x7a
 2844 021a 00       		.sleb128 0
 2845 021b 73       		.byte	0x73
 2846 021c 00       		.sleb128 0
 2847 021d 37       		.byte	0x37
 2848 021e 1A       		.byte	0x1a
 2849 021f 32       		.byte	0x32
 2850 0220 24       		.byte	0x24
 2851 0221 24       		.byte	0x24
 2852 0222 9F       		.byte	0x9f
 2853 0223 90000000 		.4byte	.LVL24
ARM GAS  /tmp/cc42I6kA.s 			page 72


 2854 0227 A8000000 		.4byte	.LVL26
 2855 022b 0100     		.2byte	0x1
 2856 022d 5C       		.byte	0x5c
 2857 022e A8000000 		.4byte	.LVL26
 2858 0232 B2000000 		.4byte	.LVL28
 2859 0236 0A00     		.2byte	0xa
 2860 0238 7A       		.byte	0x7a
 2861 0239 00       		.sleb128 0
 2862 023a 73       		.byte	0x73
 2863 023b 00       		.sleb128 0
 2864 023c 37       		.byte	0x37
 2865 023d 1A       		.byte	0x1a
 2866 023e 32       		.byte	0x32
 2867 023f 24       		.byte	0x24
 2868 0240 24       		.byte	0x24
 2869 0241 9F       		.byte	0x9f
 2870 0242 B8000000 		.4byte	.LVL30
 2871 0246 C4000000 		.4byte	.LVL31
 2872 024a 0100     		.2byte	0x1
 2873 024c 5C       		.byte	0x5c
 2874 024d C4000000 		.4byte	.LVL31
 2875 0251 DC000000 		.4byte	.LVL33
 2876 0255 0A00     		.2byte	0xa
 2877 0257 7A       		.byte	0x7a
 2878 0258 00       		.sleb128 0
 2879 0259 73       		.byte	0x73
 2880 025a 00       		.sleb128 0
 2881 025b 37       		.byte	0x37
 2882 025c 1A       		.byte	0x1a
 2883 025d 32       		.byte	0x32
 2884 025e 24       		.byte	0x24
 2885 025f 24       		.byte	0x24
 2886 0260 9F       		.byte	0x9f
 2887 0261 DC000000 		.4byte	.LVL33
 2888 0265 E4000000 		.4byte	.LVL34
 2889 0269 0100     		.2byte	0x1
 2890 026b 5C       		.byte	0x5c
 2891 026c E4000000 		.4byte	.LVL34
 2892 0270 EE000000 		.4byte	.LFE272
 2893 0274 0A00     		.2byte	0xa
 2894 0276 7A       		.byte	0x7a
 2895 0277 00       		.sleb128 0
 2896 0278 73       		.byte	0x73
 2897 0279 00       		.sleb128 0
 2898 027a 37       		.byte	0x37
 2899 027b 1A       		.byte	0x1a
 2900 027c 32       		.byte	0x32
 2901 027d 24       		.byte	0x24
 2902 027e 24       		.byte	0x24
 2903 027f 9F       		.byte	0x9f
 2904 0280 00000000 		.4byte	0
 2905 0284 00000000 		.4byte	0
 2906              		.section	.debug_aranges,"",%progbits
 2907 0000 24000000 		.4byte	0x24
 2908 0004 0200     		.2byte	0x2
 2909 0006 00000000 		.4byte	.Ldebug_info0
 2910 000a 04       		.byte	0x4
ARM GAS  /tmp/cc42I6kA.s 			page 73


 2911 000b 00       		.byte	0
 2912 000c 0000     		.2byte	0
 2913 000e 0000     		.2byte	0
 2914 0010 00000000 		.4byte	.LFB271
 2915 0014 F4000000 		.4byte	.LFE271-.LFB271
 2916 0018 00000000 		.4byte	.LFB272
 2917 001c EE000000 		.4byte	.LFE272-.LFB272
 2918 0020 00000000 		.4byte	0
 2919 0024 00000000 		.4byte	0
 2920              		.section	.debug_ranges,"",%progbits
 2921              	.Ldebug_ranges0:
 2922 0000 04000000 		.4byte	.LBB14
 2923 0004 06000000 		.4byte	.LBE14
 2924 0008 36000000 		.4byte	.LBB31
 2925 000c 52000000 		.4byte	.LBE31
 2926 0010 00000000 		.4byte	0
 2927 0014 00000000 		.4byte	0
 2928 0018 08000000 		.4byte	.LBB17
 2929 001c 0A000000 		.4byte	.LBE17
 2930 0020 52000000 		.4byte	.LBB32
 2931 0024 6E000000 		.4byte	.LBE32
 2932 0028 00000000 		.4byte	0
 2933 002c 00000000 		.4byte	0
 2934 0030 0A000000 		.4byte	.LBB20
 2935 0034 0C000000 		.4byte	.LBE20
 2936 0038 6E000000 		.4byte	.LBB33
 2937 003c 8A000000 		.4byte	.LBE33
 2938 0040 00000000 		.4byte	0
 2939 0044 00000000 		.4byte	0
 2940 0048 0C000000 		.4byte	.LBB23
 2941 004c 0E000000 		.4byte	.LBE23
 2942 0050 8A000000 		.4byte	.LBB34
 2943 0054 AC000000 		.4byte	.LBE34
 2944 0058 00000000 		.4byte	0
 2945 005c 00000000 		.4byte	0
 2946 0060 0E000000 		.4byte	.LBB26
 2947 0064 10000000 		.4byte	.LBE26
 2948 0068 AC000000 		.4byte	.LBB35
 2949 006c D6000000 		.4byte	.LBE35
 2950 0070 00000000 		.4byte	0
 2951 0074 00000000 		.4byte	0
 2952 0078 1A000000 		.4byte	.LBB36
 2953 007c 2C000000 		.4byte	.LBE36
 2954 0080 3E000000 		.4byte	.LBB37
 2955 0084 AC000000 		.4byte	.LBE37
 2956 0088 AE000000 		.4byte	.LBB38
 2957 008c B0000000 		.4byte	.LBE38
 2958 0090 B8000000 		.4byte	.LBB39
 2959 0094 EE000000 		.4byte	.LBE39
 2960 0098 00000000 		.4byte	0
 2961 009c 00000000 		.4byte	0
 2962 00a0 00000000 		.4byte	.LFB271
 2963 00a4 F4000000 		.4byte	.LFE271
 2964 00a8 00000000 		.4byte	.LFB272
 2965 00ac EE000000 		.4byte	.LFE272
 2966 00b0 00000000 		.4byte	0
 2967 00b4 00000000 		.4byte	0
ARM GAS  /tmp/cc42I6kA.s 			page 74


 2968              		.section	.debug_line,"",%progbits
 2969              	.Ldebug_line0:
 2970 0000 4B030000 		.section	.debug_str,"MS",%progbits,1
 2970      02009C02 
 2970      00000201 
 2970      FB0E0D00 
 2970      01010101 
 2971              	.LASF119:
 2972 0000 73746D33 		.ascii	"stm32_gpio_setup_t\000"
 2972      325F6770 
 2972      696F5F73 
 2972      65747570 
 2972      5F7400
 2973              	.LASF52:
 2974 0013 72656164 		.ascii	"ready_list_t\000"
 2974      795F6C69 
 2974      73745F74 
 2974      00
 2975              	.LASF92:
 2976 0020 77747472 		.ascii	"wttrp\000"
 2976      7000
 2977              	.LASF58:
 2978 0026 64656C74 		.ascii	"delta\000"
 2978      6100
 2979              	.LASF89:
 2980 002c 7264796D 		.ascii	"rdymsg\000"
 2980      736700
 2981              	.LASF18:
 2982 0033 75696E74 		.ascii	"uint64_t\000"
 2982      36345F74 
 2982      00
 2983              	.LASF4:
 2984 003c 5F5F7569 		.ascii	"__uint8_t\000"
 2984      6E74385F 
 2984      7400
 2985              	.LASF105:
 2986 0046 4F545950 		.ascii	"OTYPER\000"
 2986      455200
 2987              	.LASF86:
 2988 004d 706F7274 		.ascii	"port_intctx\000"
 2988      5F696E74 
 2988      63747800 
 2989              	.LASF63:
 2990 0059 73797374 		.ascii	"system_debug_t\000"
 2990      656D5F64 
 2990      65627567 
 2990      5F7400
 2991              	.LASF127:
 2992 0068 696F706F 		.ascii	"ioportmask_t\000"
 2992      72746D61 
 2992      736B5F74 
 2992      00
 2993              	.LASF104:
 2994 0075 4D4F4445 		.ascii	"MODER\000"
 2994      5200
 2995              	.LASF13:
 2996 007b 6C6F6E67 		.ascii	"long long unsigned int\000"
ARM GAS  /tmp/cc42I6kA.s 			page 75


 2996      206C6F6E 
 2996      6720756E 
 2996      7369676E 
 2996      65642069 
 2997              	.LASF116:
 2998 0092 70757064 		.ascii	"pupdr\000"
 2998      7200
 2999              	.LASF90:
 3000 0098 65786974 		.ascii	"exitcode\000"
 3000      636F6465 
 3000      00
 3001              	.LASF70:
 3002 00a1 6D61696E 		.ascii	"mainthread\000"
 3002      74687265 
 3002      616400
 3003              	.LASF93:
 3004 00ac 73656E74 		.ascii	"sentmsg\000"
 3004      6D736700 
 3005              	.LASF60:
 3006 00b4 76697274 		.ascii	"virtual_timers_list_t\000"
 3006      75616C5F 
 3006      74696D65 
 3006      72735F6C 
 3006      6973745F 
 3007              	.LASF139:
 3008 00ca 49544D5F 		.ascii	"ITM_RxBuffer\000"
 3008      52784275 
 3008      66666572 
 3008      00
 3009              	.LASF48:
 3010 00d7 6E657874 		.ascii	"next\000"
 3010      00
 3011              	.LASF50:
 3012 00dc 63685F74 		.ascii	"ch_threads_queue\000"
 3012      68726561 
 3012      64735F71 
 3012      75657565 
 3012      00
 3013              	.LASF11:
 3014 00ed 6C6F6E67 		.ascii	"long long int\000"
 3014      206C6F6E 
 3014      6720696E 
 3014      7400
 3015              	.LASF1:
 3016 00fb 7369676E 		.ascii	"signed char\000"
 3016      65642063 
 3016      68617200 
 3017              	.LASF108:
 3018 0107 42535252 		.ascii	"BSRR\000"
 3018      00
 3019              	.LASF113:
 3020 010c 6D6F6465 		.ascii	"moder\000"
 3020      7200
 3021              	.LASF39:
 3022 0112 6D736771 		.ascii	"msgqueue\000"
 3022      75657565 
 3022      00
ARM GAS  /tmp/cc42I6kA.s 			page 76


 3023              	.LASF82:
 3024 011b 5243435F 		.ascii	"RCC_TypeDef\000"
 3024      54797065 
 3024      44656600 
 3025              	.LASF107:
 3026 0127 50555044 		.ascii	"PUPDR\000"
 3026      5200
 3027              	.LASF35:
 3028 012d 73746174 		.ascii	"state\000"
 3028      6500
 3029              	.LASF67:
 3030 0133 63685F73 		.ascii	"ch_system\000"
 3030      79737465 
 3030      6D00
 3031              	.LASF8:
 3032 013d 6C6F6E67 		.ascii	"long int\000"
 3032      20696E74 
 3032      00
 3033              	.LASF124:
 3034 0146 50454461 		.ascii	"PEData\000"
 3034      746100
 3035              	.LASF73:
 3036 014d 41504232 		.ascii	"APB2RSTR\000"
 3036      52535452 
 3036      00
 3037              	.LASF21:
 3038 0156 74737461 		.ascii	"tstate_t\000"
 3038      74655F74 
 3038      00
 3039              	.LASF59:
 3040 015f 66756E63 		.ascii	"func\000"
 3040      00
 3041              	.LASF15:
 3042 0164 75696E74 		.ascii	"uint16_t\000"
 3042      31365F74 
 3042      00
 3043              	.LASF138:
 3044 016d 616C7472 		.ascii	"altrmask\000"
 3044      6D61736B 
 3044      00
 3045              	.LASF106:
 3046 0176 4F535045 		.ascii	"OSPEEDR\000"
 3046      45445200 
 3047              	.LASF9:
 3048 017e 5F5F7569 		.ascii	"__uint32_t\000"
 3048      6E743332 
 3048      5F7400
 3049              	.LASF135:
 3050 0189 6D61736B 		.ascii	"mask\000"
 3050      00
 3051              	.LASF83:
 3052 018e 72656761 		.ascii	"regarm_t\000"
 3052      726D5F74 
 3052      00
 3053              	.LASF69:
 3054 0197 76746C69 		.ascii	"vtlist\000"
 3054      737400
ARM GAS  /tmp/cc42I6kA.s 			page 77


 3055              	.LASF38:
 3056 019e 77616974 		.ascii	"waiting\000"
 3056      696E6700 
 3057              	.LASF112:
 3058 01a6 73746D33 		.ascii	"stm32_gpio_t\000"
 3058      325F6770 
 3058      696F5F74 
 3058      00
 3059              	.LASF134:
 3060 01b3 706F7274 		.ascii	"port\000"
 3060      00
 3061              	.LASF101:
 3062 01b8 6D757465 		.ascii	"mutex_t\000"
 3062      785F7400 
 3063              	.LASF121:
 3064 01c0 50424461 		.ascii	"PBData\000"
 3064      746100
 3065              	.LASF26:
 3066 01c7 636E745F 		.ascii	"cnt_t\000"
 3066      7400
 3067              	.LASF0:
 3068 01cd 756E7369 		.ascii	"unsigned int\000"
 3068      676E6564 
 3068      20696E74 
 3068      00
 3069              	.LASF94:
 3070 01da 77747365 		.ascii	"wtsemp\000"
 3070      6D7000
 3071              	.LASF10:
 3072 01e1 6C6F6E67 		.ascii	"long unsigned int\000"
 3072      20756E73 
 3072      69676E65 
 3072      6420696E 
 3072      7400
 3073              	.LASF115:
 3074 01f3 6F737065 		.ascii	"ospeedr\000"
 3074      65647200 
 3075              	.LASF109:
 3076 01fb 4C434B52 		.ascii	"LCKR\000"
 3076      00
 3077              	.LASF33:
 3078 0200 6E616D65 		.ascii	"name\000"
 3078      00
 3079              	.LASF29:
 3080 0205 71756575 		.ascii	"queue\000"
 3080      6500
 3081              	.LASF114:
 3082 020b 6F747970 		.ascii	"otyper\000"
 3082      657200
 3083              	.LASF43:
 3084 0212 6D706F6F 		.ascii	"mpool\000"
 3084      6C00
 3085              	.LASF6:
 3086 0218 73686F72 		.ascii	"short unsigned int\000"
 3086      7420756E 
 3086      7369676E 
 3086      65642069 
ARM GAS  /tmp/cc42I6kA.s 			page 78


 3086      6E7400
 3087              	.LASF46:
 3088 022b 63685F74 		.ascii	"ch_thread\000"
 3088      68726561 
 3088      6400
 3089              	.LASF24:
 3090 0235 6D73675F 		.ascii	"msg_t\000"
 3090      7400
 3091              	.LASF40:
 3092 023b 6570656E 		.ascii	"epending\000"
 3092      64696E67 
 3092      00
 3093              	.LASF66:
 3094 0244 63685F73 		.ascii	"ch_system_t\000"
 3094      79737465 
 3094      6D5F7400 
 3095              	.LASF20:
 3096 0250 746D6F64 		.ascii	"tmode_t\000"
 3096      655F7400 
 3097              	.LASF53:
 3098 0258 63685F72 		.ascii	"ch_ready_list\000"
 3098      65616479 
 3098      5F6C6973 
 3098      7400
 3099              	.LASF25:
 3100 0266 6576656E 		.ascii	"eventmask_t\000"
 3100      746D6173 
 3100      6B5F7400 
 3101              	.LASF7:
 3102 0272 5F5F696E 		.ascii	"__int32_t\000"
 3102      7433325F 
 3102      7400
 3103              	.LASF84:
 3104 027c 73746B61 		.ascii	"stkalign_t\000"
 3104      6C69676E 
 3104      5F7400
 3105              	.LASF31:
 3106 0287 6E657765 		.ascii	"newer\000"
 3106      7200
 3107              	.LASF45:
 3108 028d 74687265 		.ascii	"threads_list_t\000"
 3108      6164735F 
 3108      6C697374 
 3108      5F7400
 3109              	.LASF42:
 3110 029c 7265616C 		.ascii	"realprio\000"
 3110      7072696F 
 3110      00
 3111              	.LASF71:
 3112 02a5 73697A65 		.ascii	"sizetype\000"
 3112      74797065 
 3112      00
 3113              	.LASF44:
 3114 02ae 74687265 		.ascii	"thread_reference_t\000"
 3114      61645F72 
 3114      65666572 
 3114      656E6365 
ARM GAS  /tmp/cc42I6kA.s 			page 79


 3114      5F7400
 3115              	.LASF61:
 3116 02c1 63685F76 		.ascii	"ch_virtual_timers_list\000"
 3116      69727475 
 3116      616C5F74 
 3116      696D6572 
 3116      735F6C69 
 3117              	.LASF103:
 3118 02d8 636C6561 		.ascii	"clear\000"
 3118      7200
 3119              	.LASF85:
 3120 02de 706F7274 		.ascii	"port_context\000"
 3120      5F636F6E 
 3120      74657874 
 3120      00
 3121              	.LASF88:
 3122 02eb 746D5F63 		.ascii	"tm_calibration_t\000"
 3122      616C6962 
 3122      72617469 
 3122      6F6E5F74 
 3122      00
 3123              	.LASF118:
 3124 02fc 61667268 		.ascii	"afrh\000"
 3124      00
 3125              	.LASF79:
 3126 0301 41484252 		.ascii	"AHBRSTR\000"
 3126      53545200 
 3127              	.LASF123:
 3128 0309 50444461 		.ascii	"PDData\000"
 3128      746100
 3129              	.LASF30:
 3130 0310 7072696F 		.ascii	"prio\000"
 3130      00
 3131              	.LASF74:
 3132 0315 41504231 		.ascii	"APB1RSTR\000"
 3132      52535452 
 3132      00
 3133              	.LASF54:
 3134 031e 63757272 		.ascii	"current\000"
 3134      656E7400 
 3135              	.LASF12:
 3136 0326 5F5F7569 		.ascii	"__uint64_t\000"
 3136      6E743634 
 3136      5F7400
 3137              	.LASF111:
 3138 0331 41465248 		.ascii	"AFRH\000"
 3138      00
 3139              	.LASF110:
 3140 0336 4146524C 		.ascii	"AFRL\000"
 3140      00
 3141              	.LASF22:
 3142 033b 74726566 		.ascii	"trefs_t\000"
 3142      735F7400 
 3143              	.LASF37:
 3144 0343 72656673 		.ascii	"refs\000"
 3144      00
 3145              	.LASF56:
ARM GAS  /tmp/cc42I6kA.s 			page 80


 3146 0348 76697274 		.ascii	"virtual_timer_t\000"
 3146      75616C5F 
 3146      74696D65 
 3146      725F7400 
 3147              	.LASF23:
 3148 0358 74707269 		.ascii	"tprio_t\000"
 3148      6F5F7400 
 3149              	.LASF142:
 3150 0360 2F6E6673 		.ascii	"/nfs/nfs7/home/npalumbo/p442-submissions/lab4\000"
 3150      2F6E6673 
 3150      372F686F 
 3150      6D652F6E 
 3150      70616C75 
 3151              	.LASF64:
 3152 038e 63685F73 		.ascii	"ch_system_debug\000"
 3152      79737465 
 3152      6D5F6465 
 3152      62756700 
 3153              	.LASF102:
 3154 039e 5F426F6F 		.ascii	"_Bool\000"
 3154      6C00
 3155              	.LASF16:
 3156 03a4 696E7433 		.ascii	"int32_t\000"
 3156      325F7400 
 3157              	.LASF2:
 3158 03ac 756E7369 		.ascii	"unsigned char\000"
 3158      676E6564 
 3158      20636861 
 3158      7200
 3159              	.LASF117:
 3160 03ba 6166726C 		.ascii	"afrl\000"
 3160      00
 3161              	.LASF3:
 3162 03bf 73686F72 		.ascii	"short int\000"
 3162      7420696E 
 3162      7400
 3163              	.LASF62:
 3164 03c9 6C617374 		.ascii	"lasttime\000"
 3164      74696D65 
 3164      00
 3165              	.LASF120:
 3166 03d2 50414461 		.ascii	"PAData\000"
 3166      746100
 3167              	.LASF96:
 3168 03d9 65776D61 		.ascii	"ewmask\000"
 3168      736B00
 3169              	.LASF130:
 3170 03e0 6770696F 		.ascii	"gpiop\000"
 3170      7000
 3171              	.LASF76:
 3172 03e6 41504232 		.ascii	"APB2ENR\000"
 3172      454E5200 
 3173              	.LASF57:
 3174 03ee 63685F76 		.ascii	"ch_virtual_timer\000"
 3174      69727475 
 3174      616C5F74 
 3174      696D6572 
ARM GAS  /tmp/cc42I6kA.s 			page 81


 3174      00
 3175              	.LASF97:
 3176 03ff 63685F73 		.ascii	"ch_semaphore\000"
 3176      656D6170 
 3176      686F7265 
 3176      00
 3177              	.LASF17:
 3178 040c 75696E74 		.ascii	"uint32_t\000"
 3178      33325F74 
 3178      00
 3179              	.LASF95:
 3180 0415 77746D74 		.ascii	"wtmtxp\000"
 3180      787000
 3181              	.LASF47:
 3182 041c 63685F74 		.ascii	"ch_threads_list\000"
 3182      68726561 
 3182      64735F6C 
 3182      69737400 
 3183              	.LASF99:
 3184 042c 6F776E65 		.ascii	"owner\000"
 3184      7200
 3185              	.LASF34:
 3186 0432 77616261 		.ascii	"wabase\000"
 3186      736500
 3187              	.LASF137:
 3188 0439 616C7472 		.ascii	"altr\000"
 3188      00
 3189              	.LASF100:
 3190 043e 63686172 		.ascii	"char\000"
 3190      00
 3191              	.LASF32:
 3192 0443 6F6C6465 		.ascii	"older\000"
 3192      7200
 3193              	.LASF136:
 3194 0449 6D6F6465 		.ascii	"mode\000"
 3194      00
 3195              	.LASF131:
 3196 044e 636F6E66 		.ascii	"config\000"
 3196      696700
 3197              	.LASF5:
 3198 0455 5F5F7569 		.ascii	"__uint16_t\000"
 3198      6E743136 
 3198      5F7400
 3199              	.LASF28:
 3200 0460 74687265 		.ascii	"thread_t\000"
 3200      61645F74 
 3200      00
 3201              	.LASF27:
 3202 0469 73797374 		.ascii	"systime_t\000"
 3202      696D655F 
 3202      7400
 3203              	.LASF55:
 3204 0473 76746675 		.ascii	"vtfunc_t\000"
 3204      6E635F74 
 3204      00
 3205              	.LASF143:
 3206 047c 696E6974 		.ascii	"initgpio\000"
ARM GAS  /tmp/cc42I6kA.s 			page 82


 3206      6770696F 
 3206      00
 3207              	.LASF65:
 3208 0485 70616E69 		.ascii	"panic_msg\000"
 3208      635F6D73 
 3208      6700
 3209              	.LASF87:
 3210 048f 6F666673 		.ascii	"offset\000"
 3210      657400
 3211              	.LASF77:
 3212 0496 41504231 		.ascii	"APB1ENR\000"
 3212      454E5200 
 3213              	.LASF129:
 3214 049e 696F706F 		.ascii	"ioportid_t\000"
 3214      72746964 
 3214      5F7400
 3215              	.LASF125:
 3216 04a9 50464461 		.ascii	"PFData\000"
 3216      746100
 3217              	.LASF133:
 3218 04b0 5F70616C 		.ascii	"_pal_lld_setgroupmode\000"
 3218      5F6C6C64 
 3218      5F736574 
 3218      67726F75 
 3218      706D6F64 
 3219              	.LASF19:
 3220 04c6 7274636E 		.ascii	"rtcnt_t\000"
 3220      745F7400 
 3221              	.LASF49:
 3222 04ce 74687265 		.ascii	"threads_queue_t\000"
 3222      6164735F 
 3222      71756575 
 3222      655F7400 
 3223              	.LASF98:
 3224 04de 63685F6D 		.ascii	"ch_mutex\000"
 3224      75746578 
 3224      00
 3225              	.LASF132:
 3226 04e7 5F70616C 		.ascii	"_pal_lld_init\000"
 3226      5F6C6C64 
 3226      5F696E69 
 3226      7400
 3227              	.LASF78:
 3228 04f5 42444352 		.ascii	"BDCR\000"
 3228      00
 3229              	.LASF68:
 3230 04fa 726C6973 		.ascii	"rlist\000"
 3230      7400
 3231              	.LASF80:
 3232 0500 43464752 		.ascii	"CFGR2\000"
 3232      3200
 3233              	.LASF81:
 3234 0506 43464752 		.ascii	"CFGR3\000"
 3234      3300
 3235              	.LASF14:
 3236 050c 75696E74 		.ascii	"uint8_t\000"
 3236      385F7400 
ARM GAS  /tmp/cc42I6kA.s 			page 83


 3237              	.LASF141:
 3238 0514 2E2E2F43 		.ascii	"../ChibiOS/os/hal/ports/STM32/LLD/GPIOv2/hal_pal_ll"
 3238      68696269 
 3238      4F532F6F 
 3238      732F6861 
 3238      6C2F706F 
 3239 0547 642E6300 		.ascii	"d.c\000"
 3240              	.LASF36:
 3241 054b 666C6167 		.ascii	"flags\000"
 3241      7300
 3242              	.LASF140:
 3243 0551 474E5520 		.ascii	"GNU C 4.8.4 20140526 (release) [ARM/embedded-4_8-br"
 3243      4320342E 
 3243      382E3420 
 3243      32303134 
 3243      30353236 
 3244 0584 616E6368 		.ascii	"anch revision 211358] -mcpu=cortex-m4 -mno-thumb-in"
 3244      20726576 
 3244      6973696F 
 3244      6E203231 
 3244      31333538 
 3245 05b7 74657277 		.ascii	"terwork -mthumb -ggdb -O2 -fomit-frame-pointer -fal"
 3245      6F726B20 
 3245      2D6D7468 
 3245      756D6220 
 3245      2D676764 
 3246 05ea 69676E2D 		.ascii	"ign-functions=16 -ffunction-sections -fdata-section"
 3246      66756E63 
 3246      74696F6E 
 3246      733D3136 
 3246      202D6666 
 3247 061d 73202D66 		.ascii	"s -fno-common -flto\000"
 3247      6E6F2D63 
 3247      6F6D6D6F 
 3247      6E202D66 
 3247      6C746F00 
 3248              	.LASF91:
 3249 0631 77746F62 		.ascii	"wtobjp\000"
 3249      6A7000
 3250              	.LASF122:
 3251 0638 50434461 		.ascii	"PCData\000"
 3251      746100
 3252              	.LASF72:
 3253 063f 43464752 		.ascii	"CFGR\000"
 3253      00
 3254              	.LASF51:
 3255 0644 70726576 		.ascii	"prev\000"
 3255      00
 3256              	.LASF41:
 3257 0649 6D74786C 		.ascii	"mtxlist\000"
 3257      69737400 
 3258              	.LASF128:
 3259 0651 696F6D6F 		.ascii	"iomode_t\000"
 3259      64655F74 
 3259      00
 3260              	.LASF126:
 3261 065a 50414C43 		.ascii	"PALConfig\000"
ARM GAS  /tmp/cc42I6kA.s 			page 84


 3261      6F6E6669 
 3261      6700
 3262              	.LASF75:
 3263 0664 41484245 		.ascii	"AHBENR\000"
 3263      4E5200
 3264              		.comm	__gnu_lto_v1,1,1
 3265              		.ident	"GCC: (GNU Tools for ARM Embedded Processors) 4.8.4 20140526 (release) [ARM/embedded-4_8-br
ARM GAS  /tmp/cc42I6kA.s 			page 85


DEFINED SYMBOLS
                            *ABS*:00000000 hal_pal_lld.c
     /tmp/cc42I6kA.s:360    .text._pal_lld_init:00000000 $t
     /tmp/cc42I6kA.s:366    .text._pal_lld_init:00000000 _pal_lld_init
     /tmp/cc42I6kA.s:578    .text._pal_lld_init:000000dc $d
     /tmp/cc42I6kA.s:588    .text._pal_lld_setgroupmode:00000000 $t
     /tmp/cc42I6kA.s:594    .text._pal_lld_setgroupmode:00000000 _pal_lld_setgroupmode
                            *COM*:00000001 __gnu_lto_v1
                     .debug_frame:00000010 $d
     /tmp/cc42I6kA.s:587    .text._pal_lld_init:000000f4 $t

NO UNDEFINED SYMBOLS
