ARM GAS  /tmp/ccvHxCle.s 			page 1


   1              		.syntax unified
   2              		.cpu cortex-m4
   3              		.fpu softvfp
   4              		.eabi_attribute 20, 1
   5              		.eabi_attribute 21, 1
   6              		.eabi_attribute 23, 3
   7              		.eabi_attribute 24, 1
   8              		.eabi_attribute 25, 1
   9              		.eabi_attribute 26, 1
  10              		.eabi_attribute 30, 2
  11              		.eabi_attribute 34, 1
  12              		.eabi_attribute 18, 4
  13              		.thumb
  14              		.file	"syscalls.c"
  15              		.text
  16              	.Ltext0:
  17              		.section	.gnu.lto_.jmpfuncs.168219edd451d26,"",%progbits
  18 0000 789C6362 		.ascii	"x\234cb`b\300\006\314\2404;\003##\003\023\0073\003\013"
  18      6062C006 
  18      CCA0343B 
  18      03232303 
  18      13073303 
  19 0015 33502153 		.ascii	"3P!S\004c&#\003\013\003\003+\01333\220[\306\010\021"
  19      04632623 
  19      030B0303 
  19      2B0B3333 
  19      905BC608 
  20 002a 626480C9 		.ascii	"bd\200\311\33100\26010\000\000W'\003x"
  20      D93030B0 
  20      31300000 
  20      57270378 
  21              		.text
  22              		.section	.gnu.lto_.inline.168219edd451d26,"",%progbits
  23 0000 789C6362 		.ascii	"x\234cb`b\300\006fBiv\006\006\026fF\006&\306\027\354"
  23      6062C006 
  23      66426976 
  23      06061666 
  23      460626C6 
  24 0016 0CEC1DEA 		.ascii	"\014\354\035\352`\305\214\014\314L\214`}l\013\344\301"
  24      60C58C0C 
  24      CC4C8C60 
  24      7D6C0BE4 
  24      C1
  25 0027 224C1822 		.ascii	"\"L\030\"\314\030\",\014\\\202\214@\000R\316\372C\201"
  25      CC18222C 
  25      0C5C828C 
  25      400052CE 
  25      FA4381
  26 003a 81FD8702 		.ascii	"\201\375\207\002D\234\027(0\301\217\201\225\201C\000"
  26      449C1728 
  26      30C18F81 
  26      95814300 
  27 004a CD229014 		.ascii	"\315\"\220\0243P\212\201\015\3034\006\000\201\316\013"
  27      33508A81 
  27      0DC33406 
  27      0081CE0B 
  28 005a AD       		.ascii	"\255"
ARM GAS  /tmp/ccvHxCle.s 			page 2


  29              		.text
  30              		.section	.gnu.lto_.pureconst.168219edd451d26,"",%progbits
  31 0000 789C6362 		.ascii	"x\234cb`b\340g\200\000v\006)F \227\231\201E\212U\212"
  31      6062E067 
  31      80007606 
  31      29462097 
  31      9981458A 
  32 0016 8D010004 		.ascii	"\215\001\000\004\327\000~"
  32      D7007E
  33              		.text
  34              		.section	.gnu.lto__read_r.168219edd451d26,"",%progbits
  35 0000 789C5D4E 		.ascii	"x\234]N=\016\001Q\030\234\371\226p\002\211\216(%\273"
  35      3D0E0151 
  35      189CF996 
  35      7002898E 
  35      2825BB
  36 0013 87700005 		.ascii	"\207p\000\005\022\312\265\005/!\022/$\252]\342\000j"
  36      12CAB505 
  36      2F21122F 
  36      24AA5DE2 
  36      006A
  37 0025 1A1A8502 		.ascii	"\032\032\205\002\345\226*\035\211\033\350\035b\275\267"
  37      E5962A1D 
  37      891BE81D 
  37      62BDB7
  38 0034 1B8D49E6 		.ascii	"\033\215I\346\373\231\314\344\373\004\202\177\224\015"
  38      FB99CCE4 
  38      FB04827F 
  38      940D
  39 0042 8F863543 		.ascii	"\217\2065C:\240l\236\300\262(\244\035@\204\302\260\307"
  39      3AA06C9E 
  39      C0B228A4 
  39      1D4084C2 
  39      B0C7
  40 0054 D47B91DB 		.ascii	"\324{\221\333;I\316\327\373>&s\302q*\347\261\216\242"
  40      3B49CED7 
  40      FB3E2673 
  40      C2712AE7 
  40      B18EA2
  41 0067 4D0508D2 		.ascii	"M\005\010\322\265m\252\215v(\266;\017\254\342\370s\023"
  41      B56DAA8D 
  41      7628B63B 
  41      0FACE2F8 
  41      7313
  42 0079 9F07E651 		.ascii	"\237\007\346Q\307)2((b\207-\0259\240tM\317>\353g\207"
  42      C7293228 
  42      2862872D 
  42      1539A074 
  42      4DCF3EEB 
  43 008f 601594CC 		.ascii	"`\025\224\314\360\302r\177v\262l*&?0\314\254m\322\336"
  43      F0C2727F 
  43      76B26C2A 
  43      263F30CC 
  43      AC6DD2DE 
  44 00a3 B1F9AAEB 		.ascii	"\261\371\252\353z\215\241\352\253f\313\233ho\356O\325"
  44      7A8DA1EA 
  44      AB66CB9B 
ARM GAS  /tmp/ccvHxCle.s 			page 3


  44      686FEE4F 
  44      D5
  45 00b4 64A63DBD 		.ascii	"d\246=\275\320\201?\032i7\300\027\015\226;\345"
  45      D0813F1A 
  45      6937C017 
  45      0D963BE5 
  46              		.text
  47              		.section	.gnu.lto__lseek_r.168219edd451d26,"",%progbits
  48 0000 789C6362 		.ascii	"x\234cb`b@\007\222@\034\005\304\312@\314\310\314\300"
  48      60624007 
  48      92401C05 
  48      C4CA40CC 
  48      C8CCC0
  49 0013 C834E11C 		.ascii	"\3104\341\034\003C#\007\023##\210\301\300\310P\317\304"
  49      03432307 
  49      13232388 
  49      C1C0C850 
  49      CFC4
  50 0025 581FC908 		.ascii	"X\037\311\010V\273\236\351\300\203\377\377\327\3759"
  50      56BB9EE9 
  50      C083FFFF 
  50      D7FD39
  51 0034 B6E02C23 		.ascii	"\266\340,##\310(V\206\226\206\206\011\012\014\014\311"
  51      23C82856 
  51      86968686 
  51      090A0C0C 
  51      C9
  52 0045 60052140 		.ascii	"`\005!@\022\244+\024(\011\244\231/24>8\223\234\310\270"
  52      12A42B14 
  52      2809A499 
  52      2F32343E 
  52      38939CC8 
  53 005a 90919521 		.ascii	"\220\221\225!\2021\223\021ni\010##H\001\310\010E==}"
  53      82319311 
  53      6E690823 
  53      234801C8 
  53      08453D3D 
  54 006f E78CCCA4 		.ascii	"\347\214\314\244L\377`\375\374b\375\262\304\242\314"
  54      4CFF60FD 
  54      FC62FDB2 
  54      C4A2CC
  55 007e FCD262FD 		.ascii	"\374\322b\375\342\312\342\344\304\234\234b\275d\006"
  55      E2CAE2E4 
  55      C49C9C62 
  55      BD6406
  56 008d 00D83026 		.ascii	"\000\3300&\007"
  56      07
  57              		.text
  58              		.section	.gnu.lto__write_r.168219edd451d26,"",%progbits
  59 0000 789C6362 		.ascii	"x\234cb`b@\007\222@\034\015\304\312@\314\310\314\300"
  59      60624007 
  59      92401C0D 
  59      C4CA40CC 
  59      C8CCC0
  60 0013 C834E11C 		.ascii	"\3104\341\034\003C#\007\023##\210\301\300\310P\317\304"
  60      03432307 
  60      13232388 
ARM GAS  /tmp/ccvHxCle.s 			page 4


  60      C1C0C850 
  60      CFC4
  61 0025 581FC908 		.ascii	"X\037\311\010V\273\236\351\300\203\377\377\327m;\276"
  61      56BB9EE9 
  61      C083FFFF 
  61      D76D3BBE 
  62 0035 E03D2323 		.ascii	"\340=##3#c.X\230\225\241\245\241a\202\002\003C2\230"
  62      3323632E 
  62      589895A1 
  62      A5A16182 
  62      02034332 
  63 004a 1B022441 		.ascii	"\033\002$AZC\031\231@4\363E\206\306\007\357\222\023"
  63      5A431999 
  63      4034F345 
  63      86C607EF 
  63      9213
  64 005c 191732B2 		.ascii	"\031\0272\2622\2443B\014\002*b\004I\202\234\243\250"
  64      32A43342 
  64      0C022A62 
  64      0449829C 
  64      A3A8
  65 006e A7A7EF9C 		.ascii	"\247\247\357\234\221\231\224\351\037\254\237_\254_\226"
  65      919994E9 
  65      1FAC9F5F 
  65      AC5F96
  66 007d 5894995F 		.ascii	"X\224\231_Z\254_\\Y\234\234\230\223S\254\227\314\000"
  66      5AAC5F5C 
  66      599C9C98 
  66      9353AC97 
  66      CC00
  67 008f 00CD4626 		.ascii	"\000\315F&\036"
  67      1E
  68              		.text
  69              		.section	.gnu.lto__close_r.168219edd451d26,"",%progbits
  70 0000 789C6362 		.ascii	"x\234cb`b@\007\222@\034\005\304\312@\314\310\314\300"
  70      60624007 
  70      92401C05 
  70      C4CA40CC 
  70      C8CCC0
  71 0013 C834E11C 		.ascii	"\3104\341\034\003C#\007\023##\210\301\300\310P\317\304"
  71      03432307 
  71      13232388 
  71      C1C0C850 
  71      CFC4
  72 0025 581FC908 		.ascii	"X\037\311\010V\273\236\351\300\203\377\377\327\375:"
  72      56BB9EE9 
  72      C083FFFF 
  72      D7FD3A
  73 0034 BEA08B91 		.ascii	"\276\240\213\221\011d\024+CKC\303\004\005\006\206d\260"
  73      0964142B 
  73      434B43C3 
  73      04050686 
  73      64B0
  74 0046 82102009 		.ascii	"\202\020 \011\322\025\312\310\004\242\231/24>\350LM"
  74      D215CAC8 
  74      04A2992F 
  74      32343EE8 
ARM GAS  /tmp/ccvHxCle.s 			page 5


  74      4C4D
  75 0058 645CC8C8 		.ascii	"d\\\310\310\312\020\301\230\311\010\2674\204\221\021"
  75      CA10C198 
  75      C908B734 
  75      849111
  76 0067 A4006484 		.ascii	"\244\000d\204\242\236\236\276sFfR\246\177\260~~\261"
  76      A29E9EBE 
  76      73466652 
  76      A67FB07E 
  76      7EB1
  77 0079 7E596251 		.ascii	"~YbQf~i\261~qeqrbNN\261^2\003\000\253\"%\203"
  77      667E69B1 
  77      7E716571 
  77      72624E4E 
  77      B15E3203 
  78              		.text
  79              		.section	.gnu.lto__sbrk_r.168219edd451d26,"",%progbits
  80 0000 789C8552 		.ascii	"x\234\205R\317k\023A\024~\337\314\244I\332\200\271z"
  80      CF6B1341 
  80      147EDFCC 
  80      A449DA80 
  80      B97A
  81 0012 ABE2C9D0 		.ascii	"\253\342\311\320]\361\342\311\223\177\200P\015\350q"
  81      5DF1E2C9 
  81      937F8050 
  81      0DE871
  82 0021 33866420 		.ascii	"3\206d \333\225,\025\324C\307\232B\321\036\202\344\340"
  82      DB952C15 
  82      D443C79A 
  82      42D11E82 
  82      E4E0
  83 0033 0FC41645 		.ascii	"\017\304\026E\261\027O\202\007\241)\264T\013Z\202x\360"
  83      B1174F82 
  83      07A129B4 
  83      540B5A82 
  83      78F0
  84 0045 D69BE041 		.ascii	"\326\233\340A\204\336\252\270\276\331M\305x\351\300"
  84      84DEAAB8 
  84      BED94DC5 
  84      78E9C0
  85 0054 EE9B79FB 		.ascii	"\356\233y\373\275\367}\337\333\021$\350\377u\232\237"
  85      BDF77DDF 
  85      DB1124E8 
  85      FF759A9F 
  86 0064 339C0E38 		.ascii	"3\234\0168\"G\020\335\217D\267\012B\310\2752\331q\365"
  86      224710DD 
  86      8F44B70A 
  86      42C8BD32 
  86      D971F5
  87 0077 F82CD992 		.ascii	"\370,\331\222\204\312\322\012p\033\002\315\011\2510"
  87      84CAD20A 
  87      701B02CD 
  87      09A930
  88 0086 7719AE07 		.ascii	"w\031\256\007\216\323\212\265\367v7_\014\304\203^\277"
  88      8ED38AB5 
  88      F776375F 
  88      0CC4835E 
ARM GAS  /tmp/ccvHxCle.s 			page 6


  88      BF
  89 0097 B36C7F25 		.ascii	"\263l\177%\011`\300|'@\032t\211\017\230L\203P\243\002"
  89      0960C07C 
  89      27401A74 
  89      890F984C 
  89      8350A302 
  90 00ab 5E89FE6E 		.ascii	"^\211\376n\222,}\352lW&@\006R\"\004)\012\260\302}\363"
  90      922C7DEA 
  90      6C572640 
  90      06522204 
  90      290AB0C2 
  91 00c1 7C4091D3 		.ascii	"|@\221\323\256*G\035k\273\223\031[\377\365\366\322Q"
  91      AE2A471D 
  91      6BBB9319 
  91      5BFFF5F6 
  91      D251
  92 00d3 BB3CDFB5 		.ascii	"\273<\337\265\277\231\214\001\202*\207q\205`\247:\325"
  92      BF998C01 
  92      822A8771 
  92      8560A73A 
  92      D5
  93 00e4 7C91DFCE 		.ascii	"|\221\337\316J\225S\034\345\007\232\377~\373g\357d\200"
  93      4A95531C 
  93      E5079AFF 
  93      7EFB67EF 
  93      6480
  94 00f6 A73C8606 		.ascii	"\247<\206\006T\003\222\350=\211,1\344|2\312\231\023"
  94      540392E8 
  94      3D892C31 
  94      E47C32CA 
  94      9913
  95 0108 34751867 		.ascii	"4u\030g\303I\337\241\205\037\337\366\2670tp`\245\177"
  95      C349DFA1 
  95      851FDFF6 
  95      B7307470 
  95      60A57F
  96 011b 77673AC0 		.ascii	"wg:\300s\366\311? \345\321@VT\274I\373v\321\226\015"
  96      73F6C93F 
  96      20E5D140 
  96      5654BC49 
  96      FB76D196 
  97 0130 C63458C4 		.ascii	"\3064X\304K\376\230us$<\037\203\374?\372\002<K\273\020"
  97      4BFE9875 
  97      73243C1F 
  97      83FC3FFA 
  97      023C4BBB 
  98 0145 BDA38DAF 		.ascii	"\275\243\215\257\353kw\344\201\221\242\303\217h\252"
  98      EB6B77E4 
  98      8191A2C3 
  98      8F68AA
  99 0154 B2B3BDB2 		.ascii	"\262\263\275\262s\374\346\376\352`\330\240B\253\226"
  99      73FCE6FE 
  99      EA60D8A0 
  99      42AB96
 100 0163 D78441E1 		.ascii	"\327\204A\341\021=\344\222b\003yW:\236\326\324\220\325"
 100      113DE492 
 100      62037957 
ARM GAS  /tmp/ccvHxCle.s 			page 7


 100      3A9ED6D4 
 100      90D5
 101 0175 BA4CA1F4 		.ascii	"\272L\241\364\267\221Jg7\340\233\341\244\245\230/\004"
 101      B7914A67 
 101      37E09BE1 
 101      A4A5982F 
 101      04
 102 0186 079209AF 		.ascii	"\007\222\011\257#${U\226 \336~.\271\221\303\301\335"
 102      23247B55 
 102      9620DE7E 
 102      2EB991C3 
 102      C1DD
 103 0198 1D3CE679 		.ascii	"\035<\346y\376\271\246\251\231\363\027\374(\366\257"
 103      FEB9A6A9 
 103      99F317FC 
 103      28F6AF
 104 01a7 056D13CD 		.ascii	"\005m\023\315\306~|=\326A\253\025{\232\306\314\214n"
 104      C67E7C3D 
 104      D641AB15 
 104      7B9AC6CC 
 104      8C6E
 105 01b9 7BA77055 		.ascii	"{\247pU\305\346F\335\037\305\353(\014\243\031\336\265"
 105      C5E646DD 
 105      1FC5EB28 
 105      0CA319DE 
 105      B5
 106 01ca 4CCD6760 		.ascii	"L\315g`k\366J\335\327\315\260\036\352\250]\367\232\364"
 106      6BF64ADD 
 106      D7CDB01E 
 106      EAA85DF7 
 106      9AF4
 107 01dc 072572A9 		.ascii	"\007%r\251\021"
 107      11
 108              		.text
 109              		.section	.gnu.lto__fstat_r.168219edd451d26,"",%progbits
 110 0000 789C6362 		.ascii	"x\234cb`b@\007\222@|\025\210\225\201\230\221\231\201"
 110      60624007 
 110      92407C15 
 110      88958198 
 110      919981
 111 0013 9169C239 		.ascii	"\221i\3029\006\206F\016&FF\020\203\201\221\241\236\211"
 111      0686460E 
 111      26464610 
 111      838191A1 
 111      9E89
 112 0025 B13E9211 		.ascii	"\261>\222\021\254v=\323\201\007\377\377\257\373wj\301"
 112      AC763DD3 
 112      8107FFFF 
 112      AFFB776A 
 112      C1
 113 0036 39462656 		.ascii	"9F&V&\306\\\2600+CKC\303\004\005\006\206d07\004H\202"
 113      26C65CB0 
 113      302B434B 
 113      43C30405 
 113      06866430 
 114 004e B4863232 		.ascii	"\264\20622\201h\346\363\014m\017N/eKd\\\310\310\012"
 114      8168E6F3 
ARM GAS  /tmp/ccvHxCle.s 			page 8


 114      0C6D0F4E 
 114      2F654B64 
 114      5CC8C80A 
 115 0062 94AE66F8 		.ascii	"\224\256f\370\325\320\321 \220\311\010T\01615\235\221"
 115      D5D0D120 
 115      90C90854 
 115      0E31359D 
 115      91
 116 0073 29823113 		.ascii	")\2021\023\304\001QL6\014\231@w0\234eh\3321c\363OF\210"
 116      C401514C 
 116      360C9940 
 116      77309C65 
 116      68DA3163 
 117 008b 3E6D8655 		.ascii	">m\206U\015@\300\235\311\3102\233a\026P\031+T\027\033"
 117      0D40C09D 
 117      C9C8329B 
 117      61165019 
 117      2B54171B 
 118 009f D8882488 		.ascii	"\330\210$\210I`\003X\032\034\200\254\213\014\215\017"
 118      49600358 
 118      1A1C80AC 
 118      8B0C8D0F 
 119 00af CEA64234 		.ascii	"\316\246B4CM\207\200\020 \023\350,P@(\352\351\351;g"
 119      434D8780 
 119      102013E8 
 119      2C504028 
 119      EAE9E93B 
 120 00c4 642665FA 		.ascii	"d&e\372\007\353\347\027\353\227%\026e\346\227\026\353"
 120      07EBE717 
 120      EB972516 
 120      65E69716 
 120      EB
 121 00d5 17571627 		.ascii	"\027W\026''\346\344\024\353%3\000\000^c?\223"
 121      27E6E414 
 121      EB253300 
 121      005E633F 
 121      93
 122              		.text
 123              		.section	.gnu.lto__isatty_r.168219edd451d26,"",%progbits
 124 0000 789C6362 		.ascii	"x\234cb`b@\007\222@\034\005\304\312@\314\310\314\300"
 124      60624007 
 124      92401C05 
 124      C4CA40CC 
 124      C8CCC0
 125 0013 C834E11C 		.ascii	"\3104\341\034\003C#\007\023##\210\301\300\310P\317\304"
 125      03432307 
 125      13232388 
 125      C1C0C850 
 125      CFC4
 126 0025 581FC908 		.ascii	"X\037\311\010V\273\236\351\300\203\377\377\327\3558"
 126      56BB9EE9 
 126      C083FFFF 
 126      D7ED38
 127 0034 BDE02523 		.ascii	"\275\340%#\023\310(V\206\226\206\206\011\012\014\014"
 127      13C82856 
 127      86968686 
 127      090A0C0C 
ARM GAS  /tmp/ccvHxCle.s 			page 9


 128 0044 C9600521 		.ascii	"\311`\005!@\022\244+\224\221\011D3_dh|\360\"5\221q!"
 128      4012A42B 
 128      94910944 
 128      335F6468 
 128      7CF02235 
 129 005b 232B4304 		.ascii	"#+C\004c&#\003#\324\322\020FF\220\002\220\021\212zz"
 129      63262303 
 129      23D4D210 
 129      46469002 
 129      90118A7A 
 130 0070 FACE1999 		.ascii	"\372\316\031\231I\231\376\301\372\371\305\372e\211E"
 130      4999FEC1 
 130      FAF9C5FA 
 130      658945
 131 007f 99F9A5C5 		.ascii	"\231\371\245\305\372\305\225\305\311\21199\305z\311"
 131      FAC595C5 
 131      C9893939 
 131      C57AC9
 132 008e 0C00D103 		.ascii	"\014\000\321\003&\004"
 132      2604
 133              		.text
 134              		.section	.gnu.lto_.symbol_nodes.168219edd451d26,"",%progbits
 135 0000 789C4DC7 		.ascii	"x\234M\307;\016@`\024D\341\231\373{\355z$\032\245\316"
 135      3B0E4060 
 135      1444E199 
 135      FB7BED7A 
 135      241AA5CE 
 136 0014 82F49620 		.ascii	"\202\364\226 v\340\035*!!\334\323\234|\006C\2157\033"
 136      76E01D2A 
 136      2121DCD3 
 136      9C7C0643 
 136      8D371B
 137 0027 28A06A01 		.ascii	"(\240j\001\251+i#E\307\2112\307\231\012\216\013\025"
 137      A92B6923 
 137      45C78932 
 137      C7990A8E 
 137      0B15
 138 0039 39AE54EC 		.ascii	"9\256T\354\270Q\311O\356T\3720\317\311\203\312>\205"
 138      B851C94F 
 138      EE54FA30 
 138      CFC983CA 
 138      3E85
 139 004b 2845D39F 		.ascii	"(E\323\237\014q\206\342>.\212\1773\020"
 139      0C7186E2 
 139      3E2E8A7F 
 139      3310
 140              		.text
 141              		.section	.gnu.lto_.refs.168219edd451d26,"",%progbits
 142 0000 789C6362 		.ascii	"x\234cb`b`d\200\002\000\000F\000\006"
 142      60626064 
 142      80020000 
 142      460006
 143              		.text
 144              		.section	.gnu.lto_.decls.168219edd451d26,"",%progbits
 145 0000 789CBD5C 		.ascii	"x\234\275\\{\220\024E\232\257\252~M3\303\3600\364\206"
 145      7B901445 
 145      9AAFAA7E 
ARM GAS  /tmp/ccvHxCle.s 			page 10


 145      4D33C3F0 
 145      30F486
 146 0013 8D58692F 		.ascii	"\215Xi/\334;CCf\344\330[\342\366nA\015\357\3308c\335"
 146      DC3B4343 
 146      66E4D85B 
 146      E2F66E41 
 146      0DEFD838 
 147 0029 58CF8BFD 		.ascii	"X\317\213\375\343\"\312\232\356\232\231\016z\272\347"
 147      E322CA9A 
 147      EE9A990E 
 147      7ABAE7
 148 0038 BA7B1CB8 		.ascii	"\272{\034\270\210\213\255\031\036\"\"\016o\020q\206"
 148      888BAD19 
 148      1E22220E 
 148      6F107186 
 149 0048 1D586011 		.ascii	"\035X`\021\035\004\025\326E\012.\204\001<`@\016Xy\264"
 149      1D0415D6 
 149      450A2E84 
 149      013C6040 
 149      0E5879B4 
 150 005c 0ECEF80E 		.ascii	"\016\316\370\016P\021\020q\356\313\254\254\352\312\352"
 150      50111071 
 150      EECBACAC 
 150      EACAEA
 151 006b CAEEAC76 		.ascii	"\312\356\254v\227\216\250\252\254G\376\362\373~\337"
 151      978EA8AA 
 151      AC47FEF2 
 151      FB7EDF
 152 007a 975F3E2A 		.ascii	"\227_>*\253%A\022\316\210\2020\014\277\177zD\020&\207"
 152      AB254112 
 152      CE888230 
 152      0CBF7F7A 
 152      44102687 
 153 008e 05A14210 		.ascii	"\005\241B\020\204\237\301&\301\026\200\315/\030?\270"
 153      849FC126 
 153      C11680CD 
 153      2F183FB8 
 154 009e 25AC856D 		.ascii	"%\254\205m\030\236\037\0117o\205\355v\330\356\201M\203"
 154      189E1F09 
 154      376F85ED 
 154      76D8EE81 
 154      4D83
 155 00b0 ED49D89E 		.ascii	"\355I\330\236\225\204\202\037\312\343#8\353a[\007\033"
 155      9584821F 
 155      CAE32338 
 155      EB615B07 
 155      1B
 156 00c1 40089BC8 		.ascii	"@\010\233\310q-9~-\322\371P9\242\255|\221\\s\376F\332"
 156      712D397E 
 156      2DD2F950 
 156      39A2AD7C 
 156      915C73FE 
 157 00d7 CA14C939 		.ascii	"\312\024\3119:\336\342\220\345V\251\020\357V\027y\221"
 157      3ADEE290 
 157      E556A910 
 157      EF561779 
 157      91
ARM GAS  /tmp/ccvHxCle.s 			page 11


 158 00e8 4E9544F7 		.ascii	"N\225D\367j\330\252`\213\300\265)p\234\017\307.\330"
 158      6AD8AA60 
 158      8BC0B529 
 158      709C0FC7 
 158      2ED8
 159 00fa E649EEFA 		.ascii	"\346I\356\372\370H\376n\302\007:\277\013\216\177\013"
 159      F848FE6E 
 159      C2073ABF 
 159      0B8E7F0B 
 160 010a DB064759 		.ascii	"\333\006GY\210\267\020\0347\023,T^'\244\037\200\355"
 160      88B7101C 
 160      37132C54 
 160      5E27A41F 
 160      80ED
 161 011c 3ED8EA88 		.ascii	">\330\352\210\274\367K\206-\356!\374\242k\377\355\300"
 161      BCF74B86 
 161      2DEE21FC 
 161      A26BFFED 
 161      C0
 162 012d D25C74D3 		.ascii	"\322\\t\323\\t\033/\274\240u_\314}0\260q\\ww\207><<"
 162      5C741B2F 
 162      BCA0755F 
 162      CC7D30B0 
 162      715C7777 
 163 0145 45B84D58 		.ascii	"E\270MX\246\301\257{\256\246\211YE\364\207\205_\213"
 163      A6C1AF7B 
 163      AEA68959 
 163      45F48785 
 163      5F8B
 164 0157 8A581D16 		.ascii	"\212X\035\026\"8Q\025&\240\212\370[\3616\234\362aq\200"
 164      22385115 
 164      26A08AF8 
 164      5BF1369C 
 164      F2617180 
 165 016b A3F99AD6 		.ascii	"\243\371\232\326\2012N\353\253\036+,B(\221y\003P4\001"
 165      81324EEB 
 165      AB1E2B2C 
 165      42289179 
 165      03503401 
 166 017f D01F3011 		.ascii	"\320\0370\0216\"\237\222\204;E@Y/\216\025\356\0266\301"
 166      36229F92 
 166      843B4540 
 166      592F8E15 
 166      EE1636C1 
 167 0193 C39D9AF6 		.ascii	"\303\235\232\366\376m\224x?\022\326\301\365\334\211"
 167      FE6D9478 
 167      3F12D6C1 
 167      F5DC89
 168 01a2 0FF6B78B 		.ascii	"\017\366\267\213\355 \217\3614*{\203xw\2416\202p\207"
 168      ED208FF1 
 168      342A7B83 
 168      7877A136 
 168      827087
 169 01b5 D00D19F4 		.ascii	"\320\015\031\364+\003;\306i\335{E,\276$l\022\315\202"
 169      2B033BC6 
 169      69DD7B45 
 169      2CBE246C 
ARM GAS  /tmp/ccvHxCle.s 			page 12


 169      12CD82
 170 01c8 DC542149 		.ascii	"\334T!I\343G\036\260\303u\350\213\006O\211\2534}\266"
 170      E3471EB0 
 170      C375E88B 
 170      064F89AB 
 170      347DB6
 171 01db CF55C5BE 		.ascii	"\317U\305\276\352\274\206A\023\255\311\224\276S\277"
 171      EABC8641 
 171      13ADC994 
 171      BE53BF
 172 01ea BEF8879A 		.ascii	"\276\370\207\232_\021\267@\361\222\320\213E\311K_\022"
 172      5F11B740 
 172      F192D08B 
 172      45C94B5F 
 172      12
 173 01fb 44125EC7 		.ascii	"D\022^\307Yz!\273\221\321 E?\371t\025\202\355\345 \244"
 173      597A21BB 
 173      91D12045 
 173      3FF97415 
 173      82EDE520 
 174 0210 433FFDF4 		.ascii	"C?\375\3642L\010\245\200\"\212l\343n\027+M\014I\330"
 174      324C08A5 
 174      80228A6C 
 174      E36E172B 
 174      4D0C49D8 
 175 0224 6D89500E 		.ascii	"m\211P\016\201\232\376\356\241C\242\266\270\212\230"
 175      819AFEEE 
 175      A143A2B6 
 175      B88A98
 176 0233 63AF67B4 		.ascii	"c\257g\264\010\205v\346PU\247B\260\336\342\301\252`"
 176      088576E6 
 176      5055A742 
 176      B0DEE2C1 
 176      AA60
 177 0245 4B76FED0 		.ascii	"Kv\376\320\202\032\255{\017\334\222\020\\\237\023n\264"
 177      821AAD7B 
 177      0FDC9210 
 177      5C9F136E 
 177      B4
 178 0256 892131E0 		.ascii	"\211!1\340h\321.>]u\364q\202u\3043V\035\205\365\345"
 178      68D12E3E 
 178      5D75F471 
 178      8275C433 
 178      561D85F5 
 179 026b A1A522B2 		.ascii	"\241\245\"\262\031q\221\356\2516\037\231j\317/\011'"
 179      197191EE 
 179      A9361F99 
 179      6ACF2F09 
 179      27
 180 027c 7051BB0B 		.ascii	"pQ\273\013\\\344I\354\"\273\371\\d\377RRg\220\351Q3"
 180      5CE449EC 
 180      22BBF95C 
 180      64FF5252 
 180      6790E951 
 181 0291 60629669 		.ascii	"`b\226i\363'\3556\177\3373Z\304!\246$|\350$\224b\201"
 181      F327ED36 
 181      7FDF335A 
ARM GAS  /tmp/ccvHxCle.s 			page 13


 181      C421A624 
 181      7CE82494 
 182 02a7 2447B325 		.ascii	"$G\263%\272Ly\341\247<\236S\303B\353\320\227,\\@\370"
 182      BA4C79E1 
 182      A73C9E53 
 182      C342EBD0 
 182      972C5C40 
 183 02bc 9A82E8BA 		.ascii	"\232\202\350\272\354\031.B\301\2558\274\246\260\206"
 183      EC192E42 
 183      C1AD38BC 
 183      A6B086
 184 02cb F2C7E2FF 		.ascii	"\362\307\342\377\245c\261\"\256\003$\353dJ\245\355\036"
 184      A563B122 
 184      AE0324EB 
 184      644AA5ED 
 184      1E
 185 02dc 55425898 		.ascii	"UBX\230\207Nr\353\265\232\032K\262\012\023\0355\033"
 185      874E72EB 
 185      B59A1A4B 
 185      B20A131D 
 185      351B
 186 02ee 862F416C 		.ascii	"\206/Al\226\024\361\230\210\230\273!\272\264\272FA\350"
 186      9614F198 
 186      8898BB21 
 186      BAB4BA46 
 186      41E8
 187 0300 01534523 		.ascii	"\001SE#m\246\206E\201)|?\310J\273\247%\271?l\034\037"
 187      6DA68645 
 187      81297C3F 
 187      C84ABBA7 
 187      25B93F6C 
 188 0316 F359F758 		.ascii	"\363Y\367X(o\333#V\207\304a\216\010\333\272\317\035"
 188      286FDB23 
 188      5687C461 
 188      8E08DBBA 
 188      CF1D
 189 0328 861853A6 		.ascii	"\206\030S\246-N\177_[\3505+\253\335\215\241\210\307"
 189      2D4E7F5F 
 189      5BE8352B 
 189      ABDD8DA1 
 189      88C7
 190 033a C51F95CD 		.ascii	"\305\037\225\315\363\331<Cer|\312\316\361<\317\034G"
 190      F3D93C43 
 190      65727CCA 
 190      CEF13CCF 
 190      1C47
 191 034c 288EB71E 		.ascii	"(\216\267\036~\246\204\313cF4r\307]*\243\221\315\355"
 191      7EA684CB 
 191      63463472 
 191      C75D2AA3 
 191      91CDED
 192 035f 3EB6E176 		.ascii	">\266\341vM\253P\304\013\330E\237\364\321\315\254\""
 192      4DAB50C4 
 192      0BD8459F 
 192      F4D1CDAC 
 192      22
 193 0370 062D0B5B 		.ascii	"\006-\013[\347\346\003\010\015NQIWQ\307W\374\015\271"
ARM GAS  /tmp/ccvHxCle.s 			page 14


 193      E7E60308 
 193      0D4E5149 
 193      5751C757 
 193      FC0DB9
 194 0383 824E426C 		.ascii	"\202NBl2\006\370\355l\310U&\351\357\333I\177\326\307"
 194      3206F8ED 
 194      6CC85526 
 194      E9EFDB49 
 194      7FD6C7
 195 0396 41FA5D4C 		.ascii	"A\372]L\307\206\276\324\363\241\302\276\014\277s\177"
 195      C786BED4 
 195      F3A1C2BE 
 195      0CBF737F 
 196 03a6 CEA13497 		.ascii	"\316\2414\227V\237\331\265Z\346Y+\273+i\372\316\303"
 196      569FD9B5 
 196      5AE6592B 
 196      BB2B69FA 
 196      CEC3
 197 03b8 465B6934 		.ascii	"F[i41\222\360\274\023\317\255\251\250c\262\244\277\261"
 197      3192F0BC 
 197      13CFADA9 
 197      A863B2A4 
 197      BFB1
 198 03ca 7019D518 		.ascii	"p\031\325\030v\363\3107\231\205\247\351\273\016\333"
 198      76F3C837 
 198      9985A7E9 
 198      BB0EDB
 199 03d9 9B9E759E 		.ascii	"\233\236u\236\321hm\217#ms\2728F\350\304\235\307\032"
 199      D1686D8F 
 199      236D73BA 
 199      3846E8C4 
 199      9DC71A
 200 03ec 7B4FAEC6 		.ascii	"{O\256\306\004\360\021\242\257\301s\350GU&\374\004\313"
 200      04F011A2 
 200      AFC173E8 
 200      475526FC 
 200      04CB
 201 03fe 34DFD8A2 		.ascii	"4\337\330\242KU8\2370\007\020\222\260\321\251\001U*"
 201      4B55389F 
 201      30071092 
 201      B0D1A901 
 201      552A
 202 0410 494E65F3 		.ascii	"INe\363\361\316\341\312\336\307\211\370\271\000%?\025"
 202      F1CEE1CA 
 202      DEC789F8 
 202      B900253F 
 202      15
 203 0421 EF903437 		.ascii	"\357\22047<\313\377\035C\376\274\277\275\344\224\237"
 203      3CCBFF1D 
 203      43FEBCBF 
 203      BDE4949F 
 204 0431 2AD54DFE 		.ascii	"*\325M\376\032J\376?\375\002\365@\015_\333\316\343k"
 204      1A4AFE3F 
 204      FD02F540 
 204      0D5FDBCE 
 204      E36B
 205 0443 14166DCD 		.ascii	"\024\026m\315K\224o\354\340\361\215il\264/\027\032A"
ARM GAS  /tmp/ccvHxCle.s 			page 15


 205      4B946FEC 
 205      E0F18D69 
 205      6CB42F17 
 205      1A41
 206 0455 D543E85C 		.ascii	"\325C\350\\\274\324\010\235sp\267u\317\2373tB\217\232"
 206      BCD4089D 
 206      7370B775 
 206      CF9F3374 
 206      428F9A
 207 0468 479F5F32 		.ascii	"G\237_2kb\356\304\2455w\343xeD\032I8\352\031\220&h\321"
 207      6B62EEC4 
 207      A53577E3 
 207      7865441A 
 207      4938EA19 
 208 0480 B30BBD12 		.ascii	"\263\013\275\022t\354\304Vq\026\036~.\300\024\375\237"
 208      74ECC456 
 208      71161E7E 
 208      2EC014FD 
 208      9F
 209 0491 83227EA8 		.ascii	"\203\"~\250\341s\237\210\230\353g1\320\011\277\223k"
 209      E1739F88 
 209      98EB6731 
 209      D009BF93 
 209      6B
 210 04a2 BF836B3F 		.ascii	"\277\203k?\315\265\277\200k\277\305u\271\371$a\310\317"
 210      CDB5BF80 
 210      6BBFC575 
 210      B9F92461 
 210      C8CF
 211 04b4 41E9AF59 		.ascii	"A\351\257Y6\202\361\371\246\027noG6*9T\261\030=r\037"
 211      3682F1F9 
 211      A6176E6F 
 211      47362A39 
 211      54B1183D 
 212 04ca A661A984 		.ascii	"\246a\251\204j\320g~\327A1\033\006i\270Br\214v\272\366"
 212      6AD0677E 
 212      D741311B 
 212      0669B842 
 212      728C76BA 
 213 04df E1D10EBA 		.ascii	"\341\321\016\272^z\206`\333>{\245\273\212\005@9\213"
 213      5E7A8660 
 213      DB3E7BA5 
 213      BB8A0540 
 213      398B
 214 04f1 10203009 		.ascii	"\020 0\011\320w\355;\210\320n\021\026c\271\203,/@r="
 214      D077ED3B 
 214      88D06E11 
 214      1663B983 
 214      2C2F4072 
 215 0506 2FDD42CB 		.ascii	"/\335B\313\375\352>1b\\.=H\3339\327\346\274\035<\036"
 215      FDEA3E31 
 215      625C2E3D 
 215      48DB39D7 
 215      E6BC1D3C 
 216 051b B7E8E3BE 		.ascii	"\267\350\343\276\377xY\323F+b\027v\271YA\247\313\005"
 216      FF7859D3 
 216      462B6217 
ARM GAS  /tmp/ccvHxCle.s 			page 16


 216      76B95941 
 216      A7CB05
 217 052e 1C2E17A0 		.ascii	"\034.\027\240]'\020\316'\220\307\214B\0363\037\243 "
 217      5D2710CE 
 217      2790C78C 
 217      421E331F 
 217      A320
 218 0540 99CB220C 		.ascii	"\231\313\"\014\034\340\360V\021\310ZYG\032\201\356\251"
 218      1CE0F056 
 218      11C85A59 
 218      471A81EE 
 218      A9
 219 0551 3545A723 		.ascii	"5E\247#\326I^\033\201\365\222{#`\366L$\241\263\\%\254"
 219      D6495E1B 
 219      81F5927B 
 219      2360F64C 
 219      24A1B35C 
 220 0567 9F24AC08 		.ascii	"\237$\254\010z\365\234\210\233yM\356\363N\255\210+%"
 220      7AF59C88 
 220      9B794DEE 
 220      F34EAD88 
 220      2B25
 221 0579 D4D35F25 		.ascii	"\324\323_%\335\001\373\325\260\267\225\332\025\344h"
 221      DD01FBD5 
 221      B0B795DA 
 221      15E468
 222 0588 72A80A1B 		.ascii	"r\250\012\033\241\350?\261\345\205q$\250b\377\337\350"
 222      A1E83FB1 
 222      E5857124 
 222      A862FFDF 
 222      E8
 223 0599 C473D3E2 		.ascii	"\304s\323\342qn-\362sU\212\370\012\036\257l\023\221"
 223      716E2DF2 
 223      73558AF8 
 223      0A1EAF6C 
 223      1391
 224 05ab 16AFE1FD 		.ascii	"\026\257\341\375\016\274\377\003\336\377\021\357\337"
 224      0EBCFF03 
 224      DEFF11EF 
 224      DF
 225 05b8 C4FBFD78 		.ascii	"\304\373\375x\177\000\357\017\341\375I\274\177\017\357"
 225      7F00EF0F 
 225      E1FD49BC 
 225      7F0FEF
 226 05c7 3FC5FB2F 		.ascii	"?\305\373/\360\376+\274\377\032\357\257\342\375\267"
 226      F0FE2BBC 
 226      FF1AEFAF 
 226      E2FDB7
 227 05d6 78AF61AE 		.ascii	"x\257a\256:\360~6\336?\205\367O\343\375\022\274\337"
 227      3AF07E36 
 227      DE3F85F7 
 227      4FE3FD12 
 227      BCDF
 228 05e8 646792E5 		.ascii	"dg\222\345;/\332\373\246\275A\257\263\207v\262\321\354"
 228      3B2FDAFB 
 228      A6BD41AF 
 228      B38776B2 
ARM GAS  /tmp/ccvHxCle.s 			page 17


 228      D1EC
 229 05fa 614E2264 		.ascii	"aN\"d\277\210[\260\327y\000\231sV\035\332\215X_\235"
 229      BF885BB0 
 229      D7790099 
 229      73561DDA 
 229      8D585F9D 
 230 060e 89B5DB33 		.ascii	"\211\265\3333\026\345\011\372\262A]\264{\302~\036\274"
 230      16E509FA 
 230      B2415DB4 
 230      7BC27E1E 
 230      BC
 231 061f 22732CCB 		.ascii	"\"s,\313\007+\264\271U\266\216\351\261|\245\356\023"
 231      072BB4B9 
 231      55B68EE9 
 231      B17CA5EE 
 231      13
 232 0630 4D807184 		.ascii	"M\200q\204\347m\236k\365vF\255\256\261\314\365\266S"
 232      E76D9E6B 
 232      F57646AD 
 232      AEB1CCF5 
 232      B653
 233 0642 03BA5837 		.ascii	"\003\272X7\025hJV\017R\223\307'y\030)2\224X3\250\233"
 233      15684A56 
 233      0F5293C7 
 233      27791829 
 233      32945833 
 234 0658 E63F8B4D 		.ascii	"\346?\213M\366\221g@Z\276\255\264|\327x\340\230C\223"
 234      F6916740 
 234      5ABEADB4 
 234      7CD778E0 
 234      984393
 235 066b 0EFD55D3 		.ascii	"\016\375U\323\003\212\015\010\177v+\323\"oJ.\003B\256"
 235      038A0D08 
 235      7F762BD3 
 235      226F4A2E 
 235      0342AE
 236 067e 11E02EC9 		.ascii	"\021\340.\311V\313f\207\274\252A\327\2627\006OI|s\364"
 236      56CB6687 
 236      BCAA41D7 
 236      B237064F 
 236      497C73F4 
 237 0692 A2DD6724 		.ascii	"\242\335g$a!.\370\177\234\275\2117\224\210q\265t\243"
 237      61212EF8 
 237      7F9CBD89 
 237      37948871 
 237      B574A3
 238 06a5 BC7BCB01 		.ascii	"\274{\313\001\243/\261WB\366]n\001\226\327\231\350?"
 238      A32FB157 
 238      42F65D6E 
 238      0196D799 
 238      E83F
 239 06b7 9B9FDE7E 		.ascii	"\233\237\336~\3363\026\345+\332\3538T`\250.\036(\366"
 239      DE3316E5 
 239      2BDAEB38 
 239      5460A82E 
 239      1E28F6
 240 06ca 4CB9763A 		.ascii	"L\271v:\017\265\3013\024-\325\225<\324\026\036\250\""
ARM GAS  /tmp/ccvHxCle.s 			page 18


 240      0FB5C133 
 240      142DD595 
 240      3CD4161E 
 240      A822
 241 06dc F1E6F867 		.ascii	"\361\346\370g}\210{\263\027\021\264f\321Jw\215\364\263"
 241      7D887BB3 
 241      1711B466 
 241      D14A778D 
 241      F4B3
 242 06ee 1750C7EB 		.ascii	"\027P\307\353\030\356\026\275\022rv\213B\216nQ\210\356"
 242      18EE16BD 
 242      1272768B 
 242      428E6E51 
 242      88EE
 243 0700 1685C2F9 		.ascii	"\026\205\302\371\004\351\026\261\374\274\237D\271\374"
 243      04E916B1 
 243      FCBC9F44 
 243      B9FC
 244 070e C0140AFC 		.ascii	"\300\024\012\374\203g\305#\016\357c\025\267\327^\255"
 244      8367C523 
 244      0EEF6315 
 244      B7D75EAD 
 245 071e 76F154AB 		.ascii	"v\361T\253\251l~w\321\301\346-\317pv\313CU1k\251YY\216"
 245      A96C7E77 
 245      D1C1E62D 
 245      CF7076CB 
 245      4355316B 
 246 0736 F0004E63 		.ascii	"\360\000Nc\311\327\241\367\233\215\253\343\315\026B"
 246      C9D7A1F7 
 246      9B8DABE3 
 246      CD1642
 247 0745 671174C6 		.ascii	"g\021t\306N\320;\236\005\240|Y?I\023t\216\007\216=\334"
 247      4ED03B9E 
 247      05A07C59 
 247      3F491374 
 247      8E078E3D 
 248 075a D54F0FF6 		.ascii	"\325O\017\366\231\355q?n-\006=\003\322\362\235\037\332"
 248      99ED713F 
 248      6E2D063D 
 248      03D2F29D 
 248      1FDA
 249 076c 216ADD0B 		.ascii	"!j\335\013j\310\330\204z!\253\2152\001.\232\223-\003"
 249      6AC8D884 
 249      7A21AB8D 
 249      32012E9A 
 249      932D03
 250 077f CED1C9D9 		.ascii	"\316\321\311\331\301\0324\252\032\340\030\236@\320\034"
 250      C11A34AA 
 250      1AE0189E 
 250      40D01C
 251 078e 3A25C240 		.ascii	":%\302@pe\235\333\353_m\244Y\332Q\263\264Ag\324\275"
 251      70659DDB 
 251      EB5F6DA4 
 251      59DA51B3 
 251      B44167D4 
 252 07a3 34381995 		.ascii	"48\031\2256\310\025w/\017\352>\302U\000q\3779\246j\260"
 252      36C81577 
ARM GAS  /tmp/ccvHxCle.s 			page 19


 252      2F0FEA3E 
 252      C2550071 
 252      FF39A66A 
 253 07b8 CCC0DBA1 		.ascii	"\314\300\333\241_\031<*Q\334_\367\014Hs\177\015\232"
 253      5F193C2A 
 253      51DC5FF7 
 253      0C48737F 
 253      0D9A
 254 07ca 7EA0A3DD 		.ascii	"~\240\243\335\347\336"
 254      E7DE
 255 07d0 1F3A6AB5 		.ascii	"\037:j\265D? ||\346\271?\3649\243?4\316r\360y\025\016"
 255      443F207C 
 255      7CE6B93F 
 255      F439A33F 
 255      34CE72F0 
 256 07e7 25E8624B 		.ascii	"%\350bK\006~\375\372\340U\311>\272\2677\246\335\222"
 256      067EFDFA 
 256      E055C93E 
 256      BAB737A6 
 256      DD92
 257 07f9 0970272E 		.ascii	"\011p'.l\031.\354\222\323\254\357\242\306\364\022\327"
 257      6C192EEC 
 257      92D3ACEF 
 257      A2C6F412 
 257      D7
 258 080a C0FCFC07 		.ascii	"\300\374\374\007}\266\201\371s\026^ym\351E\325jiz<C"
 258      7DB681F9 
 258      73165E79 
 258      6DE945D5 
 258      6A697A3C 
 259 081f D1C6FC22 		.ascii	"\321\306\374\"\017\365\"\017T\021F\277\312C\275\346"
 259      0FF5220F 
 259      541146BF 
 259      CA43BDE6 
 260 082f 198A96EA 		.ascii	"\031\212\226\352\353<\224\316\003U\244)\275\232\207"
 260      EB3C94CE 
 260      0355A429 
 260      BD9A87
 261 083e 3AE0198A 		.ascii	":\340\031\212\226\352\233<\324q\036(\346kVM\3776\017"
 261      96EA9B3C 
 261      D4711E28 
 261      E66B564D 
 261      FF360F
 262 0851 75D63314 		.ascii	"u\3263\024-\325wy\250!\036\250\210\213T\326O\022\276"
 262      2DD57779 
 262      A8211EA8 
 262      888B54D6 
 262      4F12BE
 263 0864 70562CBA 		.ascii	"pV,\2722\270\201\320\362\334\030\274J\215\275\332\303"
 263      32B881D0 
 263      F2DC18BC 
 263      4A8DBDDA 
 263      C3
 264 0875 1CE1A648 		.ascii	"\034\341\246H[8<\230\013<\207\242\257\"\206\021^\247"
 264      5B383C98 
 264      0B3C87A2 
 264      AF228611 
ARM GAS  /tmp/ccvHxCle.s 			page 20


 264      5EA7
 265 0887 136FAADD 		.ascii	"\023o\252\335\241J\265E\232\276h\350\250\017*~\207U"
 265      A14AB545 
 265      9ABE68E8 
 265      A80F2A7E 
 265      8755
 266 0899 F137E62B 		.ascii	"\3617\346+~\213\231\277\032s\261\032\027\265\300\347"
 266      7E8B99BF 
 266      1A73B11A 
 266      17B5C0E7 
 267 08a9 A8F7D797 		.ascii	"\250\367\327\227\340)9t\275t\315\277\261d\231\210\226"
 267      E0293974 
 267      BD74CDBF 
 267      B1649988 
 267      96
 268 08ba 6298C172 		.ascii	"b\230\301r#D>\237\025\371\352\314\002\2038\217\"v\372"
 268      23443E9F 
 268      15F9EACC 
 268      0283388F 
 268      2276FA
 269 08cd CC5ED537 		.ascii	"\314^\3257\371^U\217%\207[\266\322\361\342\273G\321"
 269      F95E558F 
 269      25875BB6 
 269      D2F1E2BB 
 269      47D1
 270 08df F20D042D 		.ascii	"\362\015\004-\011\233<c\331\327ot\350\235\313\361Z\020"
 270      099B3C63 
 270      D9D76F74 
 270      E89DCBF1 
 270      5A10
 271 08f1 1F32C5CB 		.ascii	"\0372\305\313N,\336u%6\177\333\3564'e\003\222d\317\322"
 271      4E2CDE75 
 271      25367FDB 
 271      EE342765 
 271      039264CF 
 272 0906 EA4B862E 		.ascii	"\352K\206.\032q\334\234v\335\311\343\037Ml\300\245C"
 272      1A71DC9C 
 272      76DDC9E3 
 272      1F4D6CC0 
 272      A543
 273 0918 1538521B 		.ascii	"\0258R\033h\373x\320Z\330h\313)\264wx\320f\260\321V"
 273      68FB78D0 
 273      5AD868CB 
 273      29B47778 
 273      D066B0D1 
 274 092d 0DD14D2F 		.ascii	"\015\321M/\236_\264\265\275Si\322\025\361\005\237\327"
 274      9E5FB4B5 
 274      BD5369D2 
 274      15F1059F 
 274      D7
 275 093e A6B7CBE7 		.ascii	"\246\267\313\347\336\364\232S\361\222\360>\217\022\232"
 275      DEF49A53 
 275      F192F03E 
 275      8F129A
 276 094d C8D6E2B9 		.ascii	"\310\326\342\271!\366l\012=\216\305\353\361<\253\320"
 276      21F66C0A 
 276      3D8EC5EB 
ARM GAS  /tmp/ccvHxCle.s 			page 21


 276      F13CABD0 
 277 095d C350E1AF 		.ascii	"\303P\341\257,\025>u\252@\027K\222\363\212\350\260f"
 277      2C153E75 
 277      AA40174B 
 277      92F38AE8 
 277      B066
 278 096f 888E7257 		.ascii	"\210\216rWy\242\\w\021\300.\247\037\317\031\301A3\215"
 278      79A25C77 
 278      11C02EA7 
 278      1FCF19C1 
 278      41338D
 279 0982 18A1107B 		.ascii	"\030\241\020{)\327[\302\003\267\261\010\334+\024\334"
 279      29D75BC2 
 279      03B7B108 
 279      DC2B14DC 
 280 0992 6F79E07A 		.ascii	"oy\340z\213\300m\247\340\266\361\300\355(\002\367\032"
 280      8BC06DA7 
 280      E0B6F1C0 
 280      ED2802F7 
 280      1A
 281 09a3 05B79707 		.ascii	"\005\267\227\007N/\002\267s\210\236@<\356\004t3o\237"
 281      4E2F02B7 
 281      73889E40 
 281      3CEE0474 
 281      336F9F
 282 09b6 1BA0F553 		.ascii	"\033\240\365S\304\337\211\022\031\213\220G\034c\207"
 282      C4DF8912 
 282      198B9047 
 282      1C6387
 283 09c5 D281FCAC 		.ascii	"\322\201\374\2541\022q\355\264\272\014{\266;[\256\343"
 283      311271ED 
 283      B4BA0C7B 
 283      B63B5BAE 
 283      E3
 284 09d6 437820B2 		.ascii	"Cx \262\235\253\345:=t\312\207\0133k*\252vh\341\200"
 284      9DABE53A 
 284      3D74CA87 
 284      0B336B2A 
 284      AA7668E1 
 285 09eb 59674274 		.ascii	"YgBt\304R\304\327=W\325\035\214\252\372C\"\212$\234"
 285      C452C4D7 
 285      3D57D51D 
 285      8CAAFA43 
 285      228A249C 
 286 09ff C1CC6FCF 		.ascii	"\301\314o\317\2671t\261\2459{wH/T#\020fk\361\206\325"
 286      B73174B1 
 286      A5397B77 
 286      482F5423 
 286      10666BF1 
 287 0a15 049BD281 		.ascii	"\004\233\322\201\030\003\\b\270\205n\353\007a\007\203"
 287      18035C62 
 287      B8856EEB 
 287      07610783 
 288 0a25 D81D80B6 		.ascii	"\330\035\200\266Y\021el(_\215p\214\235\335Q\230m&\014"
 288      5911656C 
 288      285F8D70 
 288      8C9DDD51 
ARM GAS  /tmp/ccvHxCle.s 			page 22


 288      986D260C 
 289 0a39 09873867 		.ascii	"\011\2078g\025\265q&Z\247\017\227}\015\227\275\307\351"
 289      15B57126 
 289      5AA70F97 
 289      7D0D97BD 
 289      C7E9
 290 0a4b 5757E6E2 		.ascii	"WW\346\342\036\321\036\016\277\352\320\257\3155W\241"
 290      1ED11E0E 
 290      BFEAD0AF 
 290      CD3557A1 
 291 0a5b E83E34A7 		.ascii	"\350>4\247\272_\222\010f\221\272U\304\300\327\347\332"
 291      BA5F9208 
 291      6691BA55 
 291      C4C0D7E7 
 291      DA
 292 0a6c 5F7AB657 		.ascii	"_z\266W\212\036\321\"\024\332\360\276\005x\315M\336"
 292      8A1ED122 
 292      14DAF0BE 
 292      0578CD4D 
 292      DE
 293 0a7d 5BCA9C41 		.ascii	"[\312\234A>\350\273\215\244\314Ic\326\223\007|\326\314"
 293      3EE8BB8D 
 293      A4CC4963 
 293      D693077C 
 293      D6CC
 294 0a8f 8DC9BBB5 		.ascii	"\215\311\273\265pC3\353r\237\347\272u\210Q\267\306["
 294      704333EB 
 294      729FE7BA 
 294      758851B7 
 294      C65B
 295 0aa1 9E34D7C9 		.ascii	"\2364\327\311\225\243\\\267\036\034\315\375\242'\273"
 295      95A35CB7 
 295      1E1CCDFD 
 295      A227BB
 296 0ab0 ECAB79A9 		.ascii	"\354\253y\251\031i\2533\210>#\200\322\236\306\245\035"
 296      1969AB33 
 296      883E2380 
 296      D29EC6A5 
 296      1D
 297 0ac1 76FACE56 		.ascii	"v\372\316V\303w\016s\305\244ms\237qX\007\257\316b\323"
 297      C3770E73 
 297      C5A46D73 
 297      9F715807 
 297      AFCE62D3 
 298 0ad5 76CCAACC 		.ascii	"v\314\252\314\207\362\225y\225%IQ\275\213\370\334\253"
 298      87F29579 
 298      95254951 
 298      BD8BF8DC 
 298      AB
 299 0ae6 C44B8C02 		.ascii	"\304K\214\002$a-\037\"\273W\204^\202?C\252\2051w\273"
 299      24612D1F 
 299      22BB5784 
 299      5E823F43 
 299      AA853177 
 300 0afb C509E9E6 		.ascii	"\305\011\351\346\310\232\304\006|s\037\236q7\320^\363"
 300      C89AC406 
 300      7C731F9E 
ARM GAS  /tmp/ccvHxCle.s 			page 23


 300      7137D05E 
 300      F3
 301 0b0c 8E167198 		.ascii	"\216\026q\230@\021\217\370\0345\325a\343b\375&\353\307"
 301      40118FF8 
 301      1C35D561 
 301      E362FD26 
 301      EBC7
 302 0b1e 72573D5F 		.ascii	"rW=_\013\024q/.\251\304\374`\037SyM\2776t\324\354N!"
 302      0B14712F 
 302      2EA9C4FC 
 302      601F5379 
 302      4DBF3674 
 303 0b36 7925E1CD 		.ascii	"y%\341\315Jg\324\244c\233+f\204\"t\321\3079\227wJe\206"
 303      4A67D4A4 
 303      639B2B66 
 303      842274D1 
 303      C7399777 
 304 0b4d 87F33EC7 		.ascii	"\207\363>\307\013&\274\266\205\343\375\322\271\202h"
 304      0B26BCB6 
 304      85E3FDD2 
 304      B98268
 305 0b5c 51F0C859 		.ascii	"Q\360\310Y\237m*x\277Sq7*O\005Xjk\372\352\217u\346L"
 305      9F6D2A78 
 305      BF537137 
 305      2A4F0558 
 305      6A6BFAEA 
 306 0b74 D9E32640 		.ascii	"\331\343&@\025.\253\037\2275\340\254\342K\214\001\363"
 306      152EAB1F 
 306      9735E0AC 
 306      E24B8C01 
 306      F3
 307 0b85 0057F3B0 		.ascii	"\000W\363\260\342\370R\267\217:\006\030\256\213\000"
 307      E2F852B7 
 307      8F3A0618 
 307      AE8B00
 308 0b94 87ECAE63 		.ascii	"\207\354\256c4'\254\307KW\355U\307\355\315\311IK\243"
 308      3427ACC7 
 308      4B57ED55 
 308      C7EDCDC9 
 308      494BA3
 309 0ba7 729A930E 		.ascii	"r\232\223\016}\365q\263V\033o\266\317\361\340\271\005"
 309      7DF571B3 
 309      561B6FB6 
 309      CFF1E0B9 
 309      05
 310 0bb8 5CEB2709 		.ascii	"\\\353'\011\027\234\026\245\254@\222\271\200\013\210"
 310      179C16A5 
 310      AC4092B9 
 310      800B88
 311 0bc7 3978F9F8 		.ascii	"9x\371\370\250X\320%\332\222\307\323o1QvH\204\325\317"
 311      A858D025 
 311      DA92C7D3 
 311      6F315176 
 311      4884D5CF 
 312 0bdb DDE6253E 		.ascii	"\335\346%>u\012\342\310H\322\037\2729\227\365c\031u"
 312      750AE2C8 
 312      48D21FBA 
ARM GAS  /tmp/ccvHxCle.s 			page 24


 312      3997F563 
 312      1975
 313 0bed 5D7EB582 		.ascii	"]~\265\202cy\261u\332/V\272\334\246j\221$\\\252\264"
 313      6379B175 
 313      DA2F56BA 
 313      DCA66A91 
 313      245CAAB4 
 314 0c01 BF03C3CF 		.ascii	"\277\003\303\317B?\246\322\210Q\302\235B\217\246-\316"
 314      423FA6D2 
 314      8851C29D 
 314      428FA62D 
 314      CE
 315 0c12 7D309043 		.ascii	"}0\220C\223\356~s9\336w8\323Zq\274\253xD8\234\267S["
 315      93EE7E73 
 315      39DE7738 
 315      D35A71BC 
 315      AB784438 
 316 0c2a A14E23CE 		.ascii	"\241N#\316\242U\025\317\205\3443\012\324\372Q&c>~N\211"
 316      A25515CF 
 316      85E4330A 
 316      D4FA5126 
 316      633E7E4E 
 317 0c3f 5CFDB6B2 		.ascii	"\\\375\266\262\276\264\312z\212\243,A\370\033a=2\360"
 317      BEB4CA7A 
 317      8AA32C41 
 317      F81B613D 
 317      32F0
 318 0c51 E6B97346 		.ascii	"\346\271sF\373\3115v&B\374\227>\352\223:\3641]\357E"
 318      FBC93576 
 318      2642FC97 
 318      3EEA933A 
 318      F4315DEF 
 319 0c66 FD9B7D0B 		.ascii	"\375\233}\013\"\235\355\271\341\341\361\374\253\252"
 319      229DEDB9 
 319      E1E1F1FC 
 319      ABAA
 320 0c74 357FB155 		.ascii	"5\177\261U\325\016c\272\236:l\371LU\201-\025\361\262"
 320      D50E63BA 
 320      9E3A6CF9 
 320      4C55812D 
 320      15F1B2
 321 0c87 292FA1F6 		.ascii	")/\241\366zl\232\371\272\376\012nF\206}<f\\E\250U\304"
 321      7A6C9AF9 
 321      BAFE0A6E 
 321      46867D3C 
 321      665C45A8 
 322 0c9d 6B257259 		.ascii	"k%rYf\354\324vY\231\256\363g:o\031q9\326\247x&\206\021"
 322      66ECD476 
 322      5999AEF3 
 322      673A6F19 
 322      7139D6A7 
 323 0cb5 599908F5 		.ascii	"Y\231\010\365s\374nF\334\276\3374\242\361\235\243$<"
 323      73FC6E46 
 323      DCBEDF34 
 323      A2F19DA3 
 323      243C
 324 0cc7 5716A3CF 		.ascii	"W\026\243\317\370\313a\224\235\313V1\216\233\025\303"
ARM GAS  /tmp/ccvHxCle.s 			page 25


 324      F8CB6194 
 324      9DCB5631 
 324      8E9B15C3 
 325 0cd7 A4949DCB 		.ascii	"\244\224\235\313^1.[e\335\340(\213\301)+\023\341t\241"
 325      5E312E5B 
 325      65DDE028 
 325      8BC1292B 
 325      13E174A1 
 326 0ceb 2BA757F7 		.ascii	"+\247W\367{\257\030\3139*\206\303\365{\3122\324\262"
 326      7BAF18CB 
 326      392A86C3 
 326      F57BCA32 
 326      D4B2
 327 0cfd B20CC5CE 		.ascii	"\262\014\305\316U\204<V&\242\362\252B\362\272/\352]"
 327      55843C56 
 327      26A2F2AA 
 327      42F2BA2F 
 327      EA5D
 328 0d0f 0717B87F 		.ascii	"\007\027\270\177\242\353h\375\2171\026Q\222\345\240"
 328      A2EB68FD 
 328      8F311651 
 328      92E5A0
 329 0d1e 3B07FAEF 		.ascii	";\007\372\357\336\210\227\203v\373QH\355\031\351\\\367"
 329      DE889783 
 329      76FB5148 
 329      ED19E95C 
 329      F7
 330 0d2f D04F7D24 		.ascii	"\320O}$$\024|\235\305\262T\227wKm\036Y\332R\271\017"
 330      24147C9D 
 330      C5B25497 
 330      774B6D1E 
 330      59DA52B9 
 331 0d44 7AF6F8F3 		.ascii	"z\366\370\363\015\216i\256\027\270\314\325e\305\217"
 331      0D8E69AE 
 331      17B8CCD5 
 331      65C58F
 332 0d53 6DB82876 		.ascii	"m\270(v.\233\271:\264m\027~9\315 H(\222\211\350\275"
 332      2E9BB93A 
 332      B46D177E 
 332      39CD2048 
 332      289289E8 
 333 0d68 DED55C37 		.ascii	"\336\325\\7\016\036\024;\026k\337\016\017\373<|Q\375"
 333      0E1E143B 
 333      166BDF0E 
 333      0FFB3C7C 
 333      51FD
 334 0d7a 227F3350 		.ascii	"\"\1773PjB\"\3473\301\377\021s\275\003\023\260\325O"
 334      6A4222E7 
 334      33C1FF11 
 334      73BD0313 
 334      B0D54F
 335 0d8d 773873D7 		.ascii	"w8s\327?90\213|Z\215\356\225\036W^\371P\027\265\371"
 335      3F39308B 
 335      7C5A8DEE 
 335      951E575E 
 335      F95017B5 
 336 0da2 556470AD 		.ascii	"Udp\255\315\325\356\262\275\025\242\336jX\036w\240v"
ARM GAS  /tmp/ccvHxCle.s 			page 26


 336      CDD5EEB2 
 336      BD15A2DE 
 336      6A581E77 
 336      A076
 337 0db4 13F6B857 		.ascii	"\023\366\270W\015KT\273.\236\347@\332\275x\371x\274"
 337      0D4B54BB 
 337      2E9EE740 
 337      DABD78F9 
 337      78BC
 338 0dc6 6A7C0706 		.ascii	"j|\007\006\332Y\355t]\311\261dG\242\227\354Hh\021\374"
 338      DA59ED74 
 338      5DC9B164 
 338      47A297EC 
 338      486811FC 
 339 0dda 77C3C3F9 		.ascii	"w\303\303\371E\360\022Z\273#\012e\346\222\204=\325&"
 339      45F0125A 
 339      BB230A65 
 339      E692843D 
 339      D526
 340 0dec A96E6297 		.ascii	"\251nb\227\352Aw\000\373\357\365\210\355\263\264\215"
 340      EA417700 
 340      FBEFF588 
 340      EDB3B48D 
 341 0dfc 7564D512 		.ascii	"ud\325\022\027\237\247\357\331\201\371\334\205i\350"
 341      179FA7EF 
 341      D981F9DC 
 341      8569E8
 342 0e0b 2BA0C1E7 		.ascii	"+\240\301\347\240\301G+\344\013\347\023\310=\001\343"
 342      A0C1472B 
 342      E40BE713 
 342      C83D01E3 
 343 0e1b B0673D46 		.ascii	"\260g=F;\364\370\250G\\4K\353\253\343_\230\016~\361"
 343      3BF4F8A8 
 343      475C344B 
 343      EBABE35F 
 343      980E7EF1 
 344 0e2f D397B01E 		.ascii	"\323\227\260\036{\261\036'\012\364(ga\372\031\247&\336"
 344      7BB11E27 
 344      0AF42867 
 344      61FA19A7 
 344      26DE
 345 0e41 4621A0C9 		.ascii	"F!\240\311\245m\336-r\351\247\206E\366cM.\374\031,\362"
 345      A56DDE2D 
 345      72E9A786 
 345      45F6634D 
 345      2EFC192C 
 346 0e56 298F45D8 		.ascii	")\217E\330k\204A\217kexV?\251\251oc=.\273\325T.\244"
 346      6B84418F 
 346      6B657856 
 346      3FA9A96F 
 346      633D2EBB 
 347 0e6e DD8B9F9F 		.ascii	"\335\213\237\237\214k\352\021\014t\375{\023\342\221"
 347      8C6BEA11 
 347      0C74FD7B 
 347      13E291
 348 0e7d BD59A3BC 		.ascii	"\275Y\243\274\262\347\364\347=\353\312\250\227\204\275"
 348      B2E7F4E7 
ARM GAS  /tmp/ccvHxCle.s 			page 27


 348      3DEBCAA8 
 348      9784BD
 349 0e8c 77B0D2F3 		.ascii	"w\260\322\363G\225\315\336\2615\006{'1P\347\250\233"
 349      4795CDDE 
 349      B135067B 
 349      273150E7 
 349      A89B
 350 0e9e CCDE4ACF 		.ascii	"\314\336J\317\354\331\353\020nS\010{f\314\357\362\214"
 350      ECD9EB10 
 350      6E53087B 
 350      66CCEFF2 
 350      8C
 351 0eaf 48FF15C2 		.ascii	"H\377\025\302R\225D\026\256\217\254v\016\354\2515\372"
 351      52954416 
 351      AE8FAC76 
 351      0EECA935 
 351      FA
 352 0ec0 38E78CE5 		.ascii	"8\347\214\345\252\005\004\316q\266\024\236>i\333\342"
 352      AA0504CE 
 352      71B6149E 
 352      3E69DBE2 
 353 0ed0 D4C62DC6 		.ascii	"\324\306-\306\260\027\332 \357\372\235-Zr\352\324?\376"
 353      B017DA20 
 353      EFFA9D2D 
 353      5A72EAD4 
 353      3FFE
 354 0ee2 F758A701 		.ascii	"\367X\247\001\254\323\253\005:}\257\257\364\376\350"
 354      ACD3AB05 
 354      3A7DAFAF 
 354      F4FEE8
 355 0ef1 59A50293 		.ascii	"Y\245\002\223/7T\302\270\222\360\026\017`\221e?'>\""
 355      2F3754C2 
 355      B892F016 
 355      0F609165 
 355      3F273E22 
 356 0f05 CBC00C75 		.ascii	"\313\300\014u\217x\206\243\344\323O\232\253\312\260"
 356      8F7886A3 
 356      E4D34F9A 
 356      ABCAB0
 357 0f14 70A778D0 		.ascii	"p\247x\320\"l\341N\323\302\275\357\031\216\026\356]"
 357      226CE14E 
 357      D3C2BDEF 
 357      198E16EE 
 357      5D
 358 0f25 4AB84F78 		.ascii	"J\270Ox\320\230\037xk\372\031\3252\302e\317P\264`\347"
 358      D0981F78 
 358      6BFA19D5 
 358      32C265CF 
 358      50B460E7 
 359 0f39 F250DA68 		.ascii	"\362P\332h\016(\346W\020\232~\351\275\012\3332\355\251"
 359      0E28E657 
 359      109A7EE9 
 359      BD0ADB32 
 359      EDA9
 360 0f4b 68A41264 		.ascii	"h\244\022d/\306\370\332\357\365\025\316\025\277\373"
 360      2FC6F8DA 
 360      EFF515CE 
ARM GAS  /tmp/ccvHxCle.s 			page 28


 360      15BFFB
 361 0f5a 2B1CB373 		.ascii	"+\034\263s\007\361\330\251\001U\252\233\006\021\201"
 361      07F1D8A9 
 361      0155AA9B 
 361      061181
 362 0f69 FEB1CAEE 		.ascii	"\376\261\312\356\365\333GL\2161\316\322\321\034c\234"
 362      F5DB474C 
 362      8E31CED2 
 362      D11C639C 
 363 0f79 B75EFEC8 		.ascii	"\267^\376\310W8\306\331\\\326\220\224\235\3136wp\011"
 363      5738C6D9 
 363      5CD69094 
 363      9DCB3677 
 363      7009
 364 0f8b 65EAC523 		.ascii	"e\352\305#\3005X@v.\242\235\353H\226\225\213\020q\315"
 364      C0355840 
 364      762EA29D 
 364      EB489695 
 364      8B1071CD 
 365 0f9f 75       		.ascii	"u"
 366 0fa0 1AE0B543 		.ascii	"\032\340\265C\371\251\0254\274\227\204n\016\216\264"
 366      F9A91534 
 366      BC97846E 
 366      0E8EB4
 367 0faf 1BCE11BB 		.ascii	"\033\316\021\273\026\340\241g\2655\004\374=.\205\235"
 367      16E0A167 
 367      B53504FC 
 367      3D2E859D 
 368 0fbf ABC8889D 		.ascii	"\253\310\210\235\225\211\350\331\036(\3203\327\231{"
 368      9589E8D9 
 368      1E28D033 
 368      D7997B
 369 0fce A3E78B1F 		.ascii	"\243\347\213\037\254zE\233\375\024\214\036~#:\006\201"
 369      AC7A459B 
 369      FD148C1E 
 369      7E233A06 
 369      81
 370 0fdf 53D8CBD3 		.ascii	"S\330\313\323\347\005\250A\240\227O=s\377`|\3529\037"
 370      E705A841 
 370      A0974F3D 
 370      73FF607C 
 370      EA391F
 371 0ff2 AF873E3B 		.ascii	"\257\207>;\372\373\367\250\255\301g\300m\000"
 371      FAFBF7A8 
 371      ADC167C0 
 371      6D00
 372 1000 7FC15182 		.ascii	"\177\301Q\202\211\273\320\205\220\336\334\371\015\007"
 372      89BBD085 
 372      90DEDCF9 
 372      0D07
 373 100e 33ABB4BD 		.ascii	"3\253\264\275\2635\200\256\321\364\227\2708!\323\320"
 373      B33580AE 
 373      D1F497B8 
 373      3821D3D0 
 374 101e 9F8C1105 		.ascii	"\237\214\021\005kN\372K8!\202\335.\\\037\263F\253\020"
 374      6B4EFA4B 
 374      382182DD 
ARM GAS  /tmp/ccvHxCle.s 			page 29


 374      2E5C1FB3 
 374      46AB10
 375 1031 1C027406 		.ascii	"\034\002t\006\034\003\351)\354\351\324\371\256\252\335"
 375      1C03E929 
 375      ECE9D4F9 
 375      AEAADD
 376 1040 18E33219 		.ascii	"\030\3432\031>{\254M\212\005c\351\221\243\343\347\230"
 376      3E7BAC4D 
 376      8A0563E9 
 376      91A3E3E7 
 376      98
 377 1051 97415665 		.ascii	"\227AVeY\274+@\315\260 \272\364\213\340?\177\032\277"
 377      59BC2B40 
 377      CDB020BA 
 377      F48BE03F 
 377      7F1ABF
 378 1064 E5154DC3 		.ascii	"\345\025M\303\376\323>\333\203\007\255uj??\020v\352"
 378      FED33EDB 
 378      8307AD75 
 378      6A3F3F10 
 378      76EA
 379 1076 B7682C6D 		.ascii	"\267h,m:R\313\266\242\352b\270\317\032\374D7\263\276"
 379      3A52CBB6 
 379      A2EA62B8 
 379      CF1AFC44 
 379      37B3BE
 380 1089 10DEC89C 		.ascii	"\020\336\310\234\311\273x\316d\2121e\302\312D\344\353"
 380      C9BB78CE 
 380      648A3165 
 380      C2CA44E4 
 380      EB
 381 109a A1DDE3AF 		.ascii	"\241\335\343\257\205\265\332\321\243\2719\033V\211\363"
 381      85B5DAD1 
 381      A3B9391B 
 381      5689F3
 382 10a9 72506561 		.ascii	"rPea\260-Z-\305J\340\356\034\307\272\275\374z<\264\346"
 382      B02D5A2D 
 382      C54AE0EE 
 382      1CC7BABD 
 382      FC7A3CB4 
 383 10be 6AAC63B6 		.ascii	"j\254c\266\307\221M\0226\2175\337{\217\020\013l\325"
 383      C7914D12 
 383      368F35DF 
 383      7B8F100B 
 383      6CD5
 384 10d0 59C4569B 		.ascii	"Y\304V\233\003\371`\177\307\204\011\265\0176\305\353"
 384      03F9607F 
 384      C78409B5 
 384      0F36C5EB 
 385 10e0 E38F3C5A 		.ascii	"\343\217<Z\233\312\324>\241\244\343\251\326Lmff&\252"
 385      9BCAD43E 
 385      A1A4E3A9 
 385      D64C6D66 
 385      6626AA
 386 10f3 24129909 		.ascii	"$\022\231\011Q!(\247U5\231\015\376\313/\036\213<(<Q"
 386      512128A7 
 386      5535990D 
ARM GAS  /tmp/ccvHxCle.s 			page 30


 386      FECB2F1E 
 386      8B3C283C 
 387 1108 9B6CC8A0 		.ascii	"\233l\310\240\355\307\265M\251f\2656\255fT%\035m\252"
 387      EDC7B54D 
 387      A966B536 
 387      AD665425 
 387      1D6DAA
 388 111b 6D52D2B1 		.ascii	"mR\322\2616%\255\326*\351\346\211\265\215\321\350\275"
 388      3625ADD6 
 388      2AE9E689 
 388      B58DD1E8 
 388      BD
 389 112c 90B8576D 		.ascii	"\220\270Wm\256Wc15f]H\246\222\352\275\252R\037\277w"
 389      AE576331 
 389      35665D48 
 389      A692EABD 
 389      AA521FBF 
 390 1141 923CF9DE 		.ascii	"\222<\371\336\211u\367M\372\317\211\265\324\215\332"
 390      8975F74D 
 390      FACF89B5 
 390      D48DDA
 391 1150 78329A68 		.ascii	"x2\232h\215\251H\206Z\\\364\204&\020BM\247\223\251\240"
 391      8DA94886 
 391      5A5CF484 
 391      2610424D 
 391      A793A9A0 
 392 1164 2CFFF3CF 		.ascii	",\377\363\317\037~($\313\031t\224\344\026INKr[PnH(\215"
 392      1F7E2824 
 392      CB197494 
 392      E416494E 
 392      4B725B50 
 393 117c 9980DC10 		.ascii	"\231\200\334\020O\250\360P\246\276\265! \327+\0315 "
 393      4FA8F050 
 393      A6BEB521 
 393      20D72B19 
 393      3520
 394 118e 67E2FFA5 		.ascii	"g\342\377\245\372\344\372\206\0129Q\337\200NBr4\225"
 394      FAE4FA86 
 394      0A3951DF 
 394      804E4272 
 394      3495
 395 11a0 9A1E57FD 		.ascii	"\232\036W\375Q\2209\000\332)\261\240\334\226\216g\325"
 395      51903900 
 395      DA29B1A0 
 395      DC968E67 
 395      D5
 396 11b1 B69BAB9C 		.ascii	"\266\233\253\234\234\235\331\242f@\273\220\334\320\222"
 396      9C9DD9A2 
 396      6640BB90 
 396      DCD092
 397 11c0 CAC85910 		.ascii	"\312\310Y\020VU\247\007\345h\"\225\001\231[\353ak\201"
 397      5655A707 
 397      E5682295 
 397      01995BEB 
 397      616B81
 398 11d3 0DA46CC5 		.ascii	"\015\244l\305\032%a\357\003=*\344\372\304t\244KPN54"
 398      1A2561EF 
ARM GAS  /tmp/ccvHxCle.s 			page 31


 398      033D2AE4 
 398      FAC474A4 
 398      4B504E35 
 399 11e8 C8D9103A 		.ascii	"\310\331\020:dT\000\210)Y\245\002\330HE\247\313\331"
 399      64540088 
 399      2959A502 
 399      D84845A7 
 399      CBD9
 400 11fa D69BAB0F 		.ascii	"\326\233\253\017*\024\264\031#?\374\310\203\377*\377"
 400      2A14B419 
 400      233FFCC8 
 400      83FF2AFF 
 401 120a EAA1071F 		.ascii	"\352\241\007\037\373\325\243?\377\367\207\344\177\013"
 401      FBD5A33F 
 401      FFF787E4 
 401      7F0B
 402 1218 C8E8D608 		.ascii	"\310\350\326\010\271\271>\223U\262*\222\027l\320\232"
 402      B9B93E93 
 402      55B22A92 
 402      176CD09A 
 403 1228 CCB68B7F 		.ascii	"\314\266\213\177\011\011\023\361z\364\200C\322I\023"
 403      090913F1 
 403      7AF48043 
 403      D24913
 404 1237 264F9894 		.ascii	"&O\230\224\2277\0138\015\310\263\332\342\311,\242^n"
 404      97370B38 
 404      0DC8B3DA 
 404      E2C92CA2 
 404      5E6E
 405 1249 8B3605F1 		.ascii	"\2136\005\361\276\036\304{BI\264\252\025\246\304!\303"
 405      BE1EC47B 
 405      4249B4AA 
 405      15A6C421 
 405      C3
 406 125a BF260665 		.ascii	"\277&\006e\310\027O\206\320!\325\232\305GpL\277\014"
 406      C8174F86 
 406      D021D59A 
 406      C547704C 
 406      BF0C
 407 126c B02364B5 		.ascii	"\260#d\265YM7\252\311\350\3141r\2645\235\006\317\225"
 407      594D37AA 
 407      C9E8CC31 
 407      72B4359D 
 407      06CF95
 408 127f A390B931 		.ascii	"\243\220\2711\225\2369\312\272\002L(\011u\004\370h,"
 408      959E39CA 
 408      BA024C28 
 408      097504F8 
 408      682C
 409 1291 0E50F16C 		.ascii	"\016P\361l\030\270H\250J\262\265%$?\020o\004i\300\316"
 409      18B848A8 
 409      4AB2B525 
 409      243F106F 
 409      0469C0CE 
 410 12a5 EA8CAC24 		.ascii	"\352\214\254$O\017\311\315\312\214\266X\0069qc\322/"
 410      4F0FC9CD 
 410      CA8CB658 
ARM GAS  /tmp/ccvHxCle.s 			page 32


 410      06397163 
 410      D22F
 411 12b7 4312447B 		.ascii	"C\022D{\354\341T\262Q\222g\204\300u3\255\011\0000\216"
 411      ECE154B2 
 411      51926784 
 411      C07533AD 
 411      0900308E 
 412 12cb F274BFDC 		.ascii	"\362t\277\334\362\343LXn\200Z\223\210g@\274\350\023"
 412      F2E34C58 
 412      6E805A93 
 412      886740BC 
 412      E813
 413 12dd D9849AC4 		.ascii	"\331\204\232\304G\360\234*\2715\331\232QcrZI\306\252"
 413      47F09C2A 
 413      B935D99A 
 413      5163725A 
 413      49C6AA
 414 12f0 40F67436 		.ascii	"@\366t65]N(\231l\225\254d\242\331x\263*\303c~Y\3166"
 414      355D4E28 
 414      996C95AC 
 414      64A2D978 
 414      B32AC363 
 415 1308 57A01DB8 		.ascii	"W\240\035\270c\324H4\307\223a\234hJ\265\246\215TsL\231"
 415      63D44834 
 415      C793619C 
 415      684AB5A6 
 415      8D54734C 
 416 131d 496EA6C8 		.ascii	"In\246\310\315\231`;#\325\0067\3115H\215\300\251x&\226"
 416      CD99603B 
 416      23D50637 
 416      C935488D 
 416      C0A97826 
 417 1332 C9561B04 		.ascii	"\311V\033\004\230eU\313\215Js\263\202\365\203\324\010"
 417      986555CB 
 417      8D4A73B3 
 417      82F583D4 
 417      08
 418 1343 2C1A563F 		.ascii	",\032V?\204\223\223&\343:\021\013\310\315\240\241_V"
 418      84939326 
 418      E33A110B 
 418      C8CDA0A1 
 418      5F56
 419 1355 6231BF9C 		.ascii	"b1\277\234\2364\271\012,\003\232\311\330:#\341$\233"
 419      9E34B90A 
 419      2C039AC9 
 419      D83A23E1 
 419      249B
 420 1367 6A8B9A67 		.ascii	"j\213\232gm\321l\252\271\3368\013\313\211\277\237\244"
 420      6DD16CAA 
 420      B9DE380B 
 420      CB89BF9F 
 420      A4
 421 1378 A0A22A71 		.ascii	"\240\242*q!JB\306L4\252\331\030rE\260\036\312\236\266"
 421      214A42C6 
 421      4C34AAD9 
 421      187245B0 
 421      1ECA9EB6 
ARM GAS  /tmp/ccvHxCle.s 			page 33


 422 138c C0AAD159 		.ascii	"\300\252\321Y\036m4r\001|\2361\357\267E\323y\374\321"
 422      1E6D3472 
 422      017C9E31 
 422      EFB745D3 
 422      79FCD1
 423 139f 709AC1E7 		.ascii	"p\232\301\347\344~\205\334d\306*\244\006\204\235d3D"
 423      E47E85DC 
 423      64C62AA4 
 423      06849D64 
 423      3344
 424 13b1 D2543444 		.ascii	"\322T4D\330\367\303\365\266\220\014\217\316\210g\221"
 424      D8F7C3F5 
 424      B6900C8F 
 424      CE886791 
 425 13c1 E7C09586 		.ascii	"\347\300\225\206df\244\234J\312\350\222\254\244\033"
 425      6466A49C 
 425      4ACAE892 
 425      ACA41B
 426 13d0 C1CC0D49 		.ascii	"\301\314\015It\254\224c\231\224\334\004L$\000\271!\211"
 426      74AC9463 
 426      9994DC04 
 426      4C2400B9 
 426      2189
 427 13e2 234608A8 		.ascii	"#F\010\250\224\2433\240\236\033 ua\244\232\334\320\232"
 427      94A333A0 
 427      9E1B2075 
 427      61A49ADC 
 427      D09A
 428 13f4 8C06E446 		.ascii	"\214\006\344F\360[(:\236\252\007\267A{\024,\321E0k\246"
 428      F05B283A 
 428      9EAA07B7 
 428      417B142C 
 428      D145306B 
 429 1409 2184C39D 		.ascii	"!\204\303\235\234\366#I\304\264\037\305K_K6\355\003"
 429      9CF62349 
 429      C4B41FC5 
 429      4B5F4B36 
 429      ED03
 430 141b FD2140A2 		.ascii	"\375!@\242\360#\247}\261x\272\302\210\2102$p4\222\323"
 430      F023A77D 
 430      B178BAC2 
 430      88883224 
 430      703492D3 
 431 142f 3739F25B 		.ascii	"79\362[\2611\0126O\243\220\221\251O\203p~x(\355GT\337"
 431      B1310A36 
 431      4FA39091 
 431      A94F8370 
 431      7E7828ED 
 432 1446 E4E8868A 		.ascii	"\344\350\206\212\004y\0021\365\011\034\300\3601\230"
 432      04790231 
 432      F5091CC0 
 432      F03198
 433 1455 C9A24420 		.ascii	"\311\242D \236L\031'\220\0106\247b(\306\301\031J\205"
 433      9E4C1927 
 433      900836A7 
 433      6228C6C1 
 433      194A85
ARM GAS  /tmp/ccvHxCle.s 			page 34


 434 1468 92897812 		.ascii	"\222\211x\022\202q\005\234\343d\2405\036\303\010\370"
 434      8271059C 
 434      E364A035 
 434      1EC308F8 
 435 1478 88324122 		.ascii	"\2102A\"\320H.6\232\027!\201 \322\010\336\010\362p\206"
 435      D0482E36 
 435      9A172181 
 435      20D208DE 
 435      08F27086 
 436 148c 633EAE3C 		.ascii	"c>\256<\030OA\3110\272\336\002\372\336\207.5S\227&\242"
 436      184F41C9 
 436      30BADE02 
 436      FADE872E 
 436      35539726 
 437 14a1 4B51EAD2 		.ascii	"KQ\352\322\337\215\200\024i>\3028\011\2619c\335\236"
 437      DF8D8014 
 437      693EC238 
 437      09B13963 
 437      DD9E
 438 14b3 046E8654 		.ascii	"\004n\206T\205v5\003\241%\236Q\262\331\231p\322\020"
 438      85763503 
 438      A1259E51 
 438      B2D99970 
 438      D210
 439 14c5 ABA5BB0A 		.ascii	"\253\245\273\012\321T3T|H\241pk\022\025mjV\233\243\251"
 439      D1543354 
 439      7C48A170 
 439      6B12156D 
 439      6A569BA3 
 440 14da B48A222B 		.ascii	"\264\212\"+*A\316\216\2156=\010\027\356Gu\340\376\004"
 440      2A41CE8E 
 440      8D363D08 
 440      17EE4775 
 440      E0FE04
 441 14ed 54413596 		.ascii	"TA5\226\271\211\226\313\246\343\311F\344Gp/\331\232"
 441      B98996CB 
 441      A6E3C946 
 441      E447702F 
 441      D99A
 442 14ff 48841A92 		.ascii	"H\204\032\222\221L\213\032\025\357\013\202\250\320f"
 442      914C8B1A 
 442      15EF0B82 
 442      A8D066
 443 150e C28D6C53 		.ascii	"\302\215lS:\325\346\207 \334Pi\023\326\217\344\207\010"
 443      3AD5E687 
 443      20DC5069 
 443      13D68FE4 
 443      8708
 444 1520 87EA952C 		.ascii	"\207\352\225,\2174\023\023~2q\362O\376\037\322N\032"
 444      8F341313 
 444      7E3271F2 
 444      4FFE1FD2 
 444      4E1A
 445 1532 0D       		.ascii	"\015"
 446              		.text
 447              		.section	.gnu.lto_.symtab.168219edd451d26,"",%progbits
 448 0000 5F726561 		.ascii	"_read_r\000\000\000\000\000\000\000\000\000\000\000"
ARM GAS  /tmp/ccvHxCle.s 			page 35


 448      645F7200 
 448      00000000 
 448      00000000 
 448      0000
 449 0012 00A10000 		.ascii	"\000\241\000\000\000_lseek_r\000\000\000\000\000\000"
 449      005F6C73 
 449      65656B5F 
 449      72000000 
 449      000000
 450 0025 00000000 		.ascii	"\000\000\000\000\000\000\377\001\000\000_write_r\000"
 450      0000FF01 
 450      00005F77 
 450      72697465 
 450      5F7200
 451 0038 00000000 		.ascii	"\000\000\000\000\000\000\000\000\000\000\000\015\002"
 451      00000000 
 451      0000000D 
 451      02
 452 0045 00005F63 		.ascii	"\000\000_close_r\000\000\000\000\000\000\000\000\000"
 452      6C6F7365 
 452      5F720000 
 452      00000000 
 452      000000
 453 0058 00000015 		.ascii	"\000\000\000\025\002\000\000_sbrk_r\000\000\000\000"
 453      0200005F 
 453      7362726B 
 453      5F720000 
 453      0000
 454 006a 00000000 		.ascii	"\000\000\000\000\000\000\000\000\036\002\000\000_fs"
 454      00000000 
 454      1E020000 
 454      5F6673
 455 0079 7461745F 		.ascii	"tat_r\000\000\000\000\000\000\000\000\000\000\000\000"
 455      72000000 
 455      00000000 
 455      00000000 
 455      00
 456 008a 2B020000 		.ascii	"+\002\000\000_isatty_r\000\000\000\000\000\000\000\000"
 456      5F697361 
 456      7474795F 
 456      72000000 
 456      00000000 
 457 009f 00000000 		.ascii	"\000\000\000\000\200\002\000\000chCoreAllocAligned\000"
 457      80020000 
 457      6368436F 
 457      7265416C 
 457      6C6F6341 
 458 00ba 00020000 		.ascii	"\000\002\000\000\000\000\000\000\000\000\000\207\002"
 458      00000000 
 458      00000087 
 458      02
 459 00c7 0000     		.ascii	"\000\000"
 460              		.text
 461              		.section	.gnu.lto_.opts,"",%progbits
 462 0000 272D6D63 		.ascii	"'-mcpu=cortex-m4' '-mno-thumb-interwork' '-mthumb' "
 462      70753D63 
 462      6F727465 
ARM GAS  /tmp/ccvHxCle.s 			page 36


 462      782D6D34 
 462      2720272D 
 463 0033 272D6767 		.ascii	"'-ggdb' '-O2' '-fomit-frame-pointer' '-falign-funct"
 463      64622720 
 463      272D4F32 
 463      2720272D 
 463      666F6D69 
 464 0066 696F6E73 		.ascii	"ions=16' '-ffunction-sections' '-fdata-sections' '-"
 464      3D313627 
 464      20272D66 
 464      66756E63 
 464      74696F6E 
 465 0099 666E6F2D 		.ascii	"fno-common' '-flto'\000"
 465      636F6D6D 
 465      6F6E2720 
 465      272D666C 
 465      746F2700 
 466              		.text
 467              		.cfi_sections	.debug_frame
 468              		.section	.text._read_r,"ax",%progbits
 469              		.align	2
 470              		.p2align 4,,15
 471              		.global	_read_r
 472              		.thumb
 473              		.thumb_func
 474              		.type	_read_r, %function
 475              	_read_r:
 476              	.LFB239:
 477              		.file 1 "../ChibiOS/os/various/syscalls.c"
 478              		.loc 1 72 0
 479              		.cfi_startproc
 480              		@ args = 0, pretend = 0, frame = 0
 481              		@ frame_needed = 0, uses_anonymous_args = 0
 482              		@ link register save eliminated.
 483              	.LVL0:
 484              		.loc 1 85 0
 485 0000 1623     		movs	r3, #22
 486              	.LVL1:
 487 0002 0360     		str	r3, [r0]
 488              		.loc 1 88 0
 489 0004 4FF0FF30 		mov	r0, #-1
 490              	.LVL2:
 491 0008 7047     		bx	lr
 492              		.cfi_endproc
 493              	.LFE239:
 494              		.size	_read_r, .-_read_r
 495 000a 00BFAFF3 		.section	.text._lseek_r,"ax",%progbits
 495      0080
 496              		.align	2
 497              		.p2align 4,,15
 498              		.global	_lseek_r
 499              		.thumb
 500              		.thumb_func
 501              		.type	_lseek_r, %function
 502              	_lseek_r:
 503              	.LFB240:
 504              		.loc 1 94 0
ARM GAS  /tmp/ccvHxCle.s 			page 37


 505              		.cfi_startproc
 506              		@ args = 0, pretend = 0, frame = 0
 507              		@ frame_needed = 0, uses_anonymous_args = 0
 508              		@ link register save eliminated.
 509              	.LVL3:
 510              		.loc 1 101 0
 511 0000 0020     		movs	r0, #0
 512              	.LVL4:
 513 0002 7047     		bx	lr
 514              		.cfi_endproc
 515              	.LFE240:
 516              		.size	_lseek_r, .-_lseek_r
 517 0004 AFF30080 		.section	.text._write_r,"ax",%progbits
 517      AFF30080 
 517      AFF30080 
 518              		.align	2
 519              		.p2align 4,,15
 520              		.global	_write_r
 521              		.thumb
 522              		.thumb_func
 523              		.type	_write_r, %function
 524              	_write_r:
 525              	.LFB241:
 526              		.loc 1 107 0
 527              		.cfi_startproc
 528              		@ args = 0, pretend = 0, frame = 0
 529              		@ frame_needed = 0, uses_anonymous_args = 0
 530              		@ link register save eliminated.
 531              	.LVL5:
 532              		.loc 1 119 0
 533 0000 1846     		mov	r0, r3
 534              	.LVL6:
 535 0002 7047     		bx	lr
 536              		.cfi_endproc
 537              	.LFE241:
 538              		.size	_write_r, .-_write_r
 539 0004 AFF30080 		.section	.text._close_r,"ax",%progbits
 539      AFF30080 
 539      AFF30080 
 540              		.align	2
 541              		.p2align 4,,15
 542              		.global	_close_r
 543              		.thumb
 544              		.thumb_func
 545              		.type	_close_r, %function
 546              	_close_r:
 547              	.LFB242:
 548              		.loc 1 125 0
 549              		.cfi_startproc
 550              		@ args = 0, pretend = 0, frame = 0
 551              		@ frame_needed = 0, uses_anonymous_args = 0
 552              		@ link register save eliminated.
 553              	.LVL7:
 554              		.loc 1 130 0
 555 0000 0020     		movs	r0, #0
 556              	.LVL8:
 557 0002 7047     		bx	lr
ARM GAS  /tmp/ccvHxCle.s 			page 38


 558              		.cfi_endproc
 559              	.LFE242:
 560              		.size	_close_r, .-_close_r
 561 0004 AFF30080 		.section	.text._sbrk_r,"ax",%progbits
 561      AFF30080 
 561      AFF30080 
 562              		.align	2
 563              		.p2align 4,,15
 564              		.global	_sbrk_r
 565              		.thumb
 566              		.thumb_func
 567              		.type	_sbrk_r, %function
 568              	_sbrk_r:
 569              	.LFB243:
 570              		.loc 1 136 0
 571              		.cfi_startproc
 572              		@ args = 0, pretend = 0, frame = 0
 573              		@ frame_needed = 0, uses_anonymous_args = 0
 574              	.LVL9:
 575 0000 10B5     		push	{r4, lr}
 576              		.cfi_def_cfa_offset 8
 577              		.cfi_offset 4, -8
 578              		.cfi_offset 14, -4
 579              		.loc 1 136 0
 580 0002 0446     		mov	r4, r0
 581              	.LBB4:
 582              	.LBB5:
 583              		.file 2 "../ChibiOS/os/common/oslib/include/chmemcore.h"
 584              		.loc 2 125 0
 585 0004 0846     		mov	r0, r1
 586              	.LVL10:
 587 0006 0421     		movs	r1, #4
 588              	.LVL11:
 589 0008 FFF7FEFF 		bl	chCoreAllocAligned
 590              	.LVL12:
 591              	.LBE5:
 592              	.LBE4:
 593              		.loc 1 143 0
 594 000c 00B1     		cbz	r0, .L9
 595              		.loc 1 153 0
 596 000e 10BD     		pop	{r4, pc}
 597              	.LVL13:
 598              	.L9:
 599              		.loc 1 144 0
 600 0010 0C23     		movs	r3, #12
 601 0012 2360     		str	r3, [r4]
 602              		.loc 1 145 0
 603 0014 4FF0FF30 		mov	r0, #-1
 604              		.loc 1 153 0
 605 0018 10BD     		pop	{r4, pc}
 606              		.cfi_endproc
 607              	.LFE243:
 608              		.size	_sbrk_r, .-_sbrk_r
 609 001a 00BFAFF3 		.section	.text._fstat_r,"ax",%progbits
 609      0080
 610              		.align	2
 611              		.p2align 4,,15
ARM GAS  /tmp/ccvHxCle.s 			page 39


 612              		.global	_fstat_r
 613              		.thumb
 614              		.thumb_func
 615              		.type	_fstat_r, %function
 616              	_fstat_r:
 617              	.LFB244:
 618              		.loc 1 159 0
 619              		.cfi_startproc
 620              		@ args = 0, pretend = 0, frame = 0
 621              		@ frame_needed = 0, uses_anonymous_args = 0
 622              	.LVL14:
 623 0000 10B5     		push	{r4, lr}
 624              		.cfi_def_cfa_offset 8
 625              		.cfi_offset 4, -8
 626              		.cfi_offset 14, -4
 627              		.loc 1 163 0
 628 0002 1046     		mov	r0, r2
 629              	.LVL15:
 630              		.loc 1 159 0
 631 0004 1446     		mov	r4, r2
 632              		.loc 1 163 0
 633 0006 0021     		movs	r1, #0
 634              	.LVL16:
 635 0008 3C22     		movs	r2, #60
 636              	.LVL17:
 637 000a FFF7FEFF 		bl	memset
 638              	.LVL18:
 639              		.loc 1 164 0
 640 000e 4FF40053 		mov	r3, #8192
 641 0012 6360     		str	r3, [r4, #4]
 642              		.loc 1 166 0
 643 0014 0020     		movs	r0, #0
 644 0016 10BD     		pop	{r4, pc}
 645              		.cfi_endproc
 646              	.LFE244:
 647              		.size	_fstat_r, .-_fstat_r
 648 0018 AFF30080 		.section	.text._isatty_r,"ax",%progbits
 648      AFF30080 
 649              		.align	2
 650              		.p2align 4,,15
 651              		.global	_isatty_r
 652              		.thumb
 653              		.thumb_func
 654              		.type	_isatty_r, %function
 655              	_isatty_r:
 656              	.LFB245:
 657              		.loc 1 172 0
 658              		.cfi_startproc
 659              		@ args = 0, pretend = 0, frame = 0
 660              		@ frame_needed = 0, uses_anonymous_args = 0
 661              		@ link register save eliminated.
 662              	.LVL19:
 663              		.loc 1 177 0
 664 0000 0120     		movs	r0, #1
 665              	.LVL20:
 666 0002 7047     		bx	lr
 667              		.cfi_endproc
ARM GAS  /tmp/ccvHxCle.s 			page 40


 668              	.LFE245:
 669              		.size	_isatty_r, .-_isatty_r
 670 0004 AFF30080 		.text
 670      AFF30080 
 670      AFF30080 
 671              	.Letext0:
 672              		.file 3 "/nfs/nfs5/home/research/hardware/arm2/gcc-arm-embedded/gcc-arm-none-eabi-4_8-2014q2/lib/g
 673              		.file 4 "/nfs/nfs5/home/research/hardware/arm2/gcc-arm-embedded/gcc-arm-none-eabi-4_8-2014q2/arm-n
 674              		.file 5 "/nfs/nfs5/home/research/hardware/arm2/gcc-arm-embedded/gcc-arm-none-eabi-4_8-2014q2/arm-n
 675              		.file 6 "/nfs/nfs5/home/research/hardware/arm2/gcc-arm-embedded/gcc-arm-none-eabi-4_8-2014q2/arm-n
 676              		.file 7 "/nfs/nfs5/home/research/hardware/arm2/gcc-arm-embedded/gcc-arm-none-eabi-4_8-2014q2/arm-n
 677              		.file 8 "/nfs/nfs5/home/research/hardware/arm2/gcc-arm-embedded/gcc-arm-none-eabi-4_8-2014q2/arm-n
 678              		.file 9 "/nfs/nfs5/home/research/hardware/arm2/gcc-arm-embedded/gcc-arm-none-eabi-4_8-2014q2/arm-n
 679              		.file 10 "/nfs/nfs5/home/research/hardware/arm2/gcc-arm-embedded/gcc-arm-none-eabi-4_8-2014q2/arm-
 680              		.file 11 "../ChibiOS/os/common/ports/ARMCMx/compilers/GCC/chtypes.h"
 681              		.file 12 "../ChibiOS/os/rt/include/chsystypes.h"
 682              		.file 13 "../ChibiOS/os/rt/include/chschd.h"
 683              		.file 14 "../ChibiOS/os/common/ports/ARMCMx/chcore.h"
 684              		.file 15 "../ChibiOS/os/common/ports/ARMCMx/chcore_v7m.h"
 685              		.file 16 "../ChibiOS/os/rt/include/chtm.h"
 686              		.file 17 "../ChibiOS/os/rt/include/chsem.h"
 687              		.file 18 "../ChibiOS/os/rt/include/chmtx.h"
 688              		.file 19 "../ChibiOS/os/common/ext/CMSIS/include/core_cm4.h"