ARM GAS  /tmp/ccLwiMZb.s 			page 1


   1              		.syntax unified
   2              		.cpu cortex-m4
   3              		.fpu softvfp
   4              		.eabi_attribute 20, 1
   5              		.eabi_attribute 21, 1
   6              		.eabi_attribute 23, 3
   7              		.eabi_attribute 24, 1
   8              		.eabi_attribute 25, 1
   9              		.eabi_attribute 26, 1
  10              		.eabi_attribute 30, 2
  11              		.eabi_attribute 34, 1
  12              		.eabi_attribute 18, 4
  13              		.thumb
  14              		.file	"test_root.c"
  15              		.text
  16              	.Ltext0:
  17              		.section	.gnu.lto_.jmpfuncs.b351366f209d4e36,"",%progbits
  18 0000 789C6362 		.ascii	"x\234cb`b\300\006$\24043\003\003#\003P\015#\210\311"
  18      6062C006 
  18      24A03433 
  18      03032303 
  18      500D2388 
  19 0015 C814C198 		.ascii	"\310\024\301\230\311\010b3\000\000\012\364\000\356"
  19      C9086233 
  19      00000AF4 
  19      00EE
  20              		.text
  21              		.section	.gnu.lto_.inline.b351366f209d4e36,"",%progbits
  22 0000 789C6362 		.ascii	"x\234cb`b\300\006\202\24143\003\003\367\011\006F\006"
  22      6062C006 
  22      82A13433 
  22      0303F709 
  22      064606
  23 0013 269E179F 		.ascii	"&\236\027\237\231\031\330\026\310\203\2253q320N\360"
  23      9919D816 
  23      C8839533 
  23      71333230 
  23      4EF0
  24 0025 6362E039 		.ascii	"cb\3409\003\222\343[\263\212\005]\216\231\201C\000("
  24      0392E35B 
  24      B38A055D 
  24      8E998143 
  24      0028
  25 0037 C5F6410F 		.ascii	"\305\366A\017I\206\001\250\232\001\000\033\350\012\337"
  25      498601A8 
  25      9A01001B 
  25      E80ADF
  26              		.text
  27              		.section	.gnu.lto_.pureconst.b351366f209d4e36,"",%progbits
  28 0000 789C6362 		.ascii	"x\234cb`b`g\200\000f\006\011&\011f+\000\001\341\000"
  28      60626067 
  28      80006606 
  28      09260966 
  28      2B0001E1 
  29 0015 7E       		.ascii	"~"
  30              		.text
  31              		.section	.gnu.lto_test_terminate_threads.b351366f209d4e36,"",%progbits
ARM GAS  /tmp/ccLwiMZb.s 			page 2


  32 0000 789C5D92 		.ascii	"x\234]\222\277O\024A\024\307\277\337\231\235\335\365"
  32      BF4F1441 
  32      14C7BFDF 
  32      999DDDF5 
  33 0010 078954B4 		.ascii	"\007\211T\264\004K\34566\374\003VV\026r\004*\003\033"
  33      044BE536 
  33      36FC0356 
  33      56167204 
  33      2A031B
  34 0023 726E612E 		.ascii	"rna.9\316\312\202Y\356Lh\214\304\212\037\015\204\206"
  34      39CECA82 
  34      59EE4C68 
  34      8CC48A1F 
  34      0D8486
  35 0036 82843F00 		.ascii	"\202\204?\000I\216P\350\025j,M,6\026V\306\032\204\344"
  35      498E50E8 
  35      156A2C4D 
  35      2C361656 
  35      C61A84E4 
  36 004a 7CB33FEE 		.ascii	"|\263?\356\220\227\354\274y3\357}\336\217Y\005\205\233"
  36      9097ECBC 
  36      7933EF7D 
  36      DE8F5905 
  36      859B
  37 005c 3227DF15 		.ascii	"2'\337\025\201H4CPm|\001\322P\321/6Zy\037g`o\233\376"
  37      81483443 
  37      506D7C01 
  37      D250D12F 
  37      365A791F 
  38 0075 04EC5D8F 		.ascii	"\004\354]\217\24686\305\375i\350+\375\366\024\342\020"
  38      A63836C5 
  38      FD69E82B 
  38      FDF614E2 
  38      10
  39 0086 74C6C421 		.ascii	"t\306\304! \3359\210U\245=\343\007\\]\240\313\303)\354"
  39      20DD3988 
  39      55A53DE3 
  39      075C5DA0 
  39      CBC329EC 
  40 009a 59FB3E7B 		.ascii	"Y\373>{s\231q\313\366\272\273\366j0 \023JM5\"&\346\305"
  40      739971CB 
  40      F6BABBF6 
  40      6A302013 
  40      4A4D3522 
  41 00b1 E064AE94 		.ascii	"\340d\256\224\367\177\221G\252\227\015\006\037N\016"
  41      F77F9147 
  41      AA970D06 
  41      1F4E0E
  42 00c0 7F5E703C 		.ascii	"\177^p<$\026\271'<\203\204:(\015\021\203\256\265\033"
  42      2416B927 
  42      3C83843A 
  42      280D1183 
  42      AEB51B
  43 00d3 93951DE7 		.ascii	"\223\225\035\347yge\225\312\352T\242t\037k\331\2373"
  43      79676595 
  43      CAEA54A2 
  43      741F6BD9 
ARM GAS  /tmp/ccLwiMZb.s 			page 3


  43      9F33
  44 00e5 7F91FB34 		.ascii	"\177\221\3734e\240\3137LT\247\206\264\243?c\355\307"
  44      65A0CB37 
  44      4C54A786 
  44      B4A33F63 
  44      EDC7
  45 00f7 F9654F15 		.ascii	"\371eO\025\216\015\232i<\224d;\330N\255\275\227\320"
  45      8E0D9A69 
  45      3C94643B 
  45      D84EADBD 
  45      97D0
  46 0109 7B8DBF76 		.ascii	"{\215\277v\335\355\314\313<\332QL\216hp\204\373\204"
  46      DDEDCCCB 
  46      3CDA514C 
  46      8E687084 
  46      FB84
  47 011b EEEFF4D1 		.ascii	"\356\357\364\321\020\342\234\364\365\276\352\364p<\255"
  47      10E29CF4 
  47      F5BEEAF4 
  47      703CAD
  48 012a BFA29B9D 		.ascii	"\277\242\233\235\357\337)\374\200!\333\217K\226\304"
  48      EFDF29FC 
  48      8021DB8F 
  48      4B96C4
  49 0139 260CAA18 		.ascii	"&\014\252\030S\226\330Y\357\034\277{R\321\003I\234\367"
  49      5396D859 
  49      EF1CBF7B 
  49      52D10349 
  49      9CF7
  50 014b E242FA50 		.ascii	"\342B\372P\327{l\214\202}\310\373\2709\204\030^2\257"
  50      D77B6C8C 
  50      827DC8FB 
  50      B8398418 
  50      5E32AF
  51 015e F4571A54 		.ascii	"\364W\032T\254\0024z\204\357`9&u\240\005f6o9V\340F\372"
  51      AC02347A 
  51      84EF6039 
  51      2675A005 
  51      66366F39 
  52 0176 0D697671 		.ascii	"\015ivq\277\252\275\220YAv\306\334\317\366\240V\213"
  52      BFAABD90 
  52      594176C6 
  52      DCCFF6A0 
  52      568B
  53 0188 1EBF4896 		.ascii	"\036\277H\226\222\247\317\242\366\362J;j\265\243\225"
  53      92A7CFA2 
  53      F6F24A3B 
  53      6AB5A395 
  54 0198 E6AB56BC 		.ascii	"\346\253V\274\\\230ny\336j6\333\265\030L\376\001\237"
  54      5C986E79 
  54      DE6A36DB 
  54      B5184CFE 
  54      019F
  55 01aa AE88B4   		.ascii	"\256\210\264"
  56              		.text
  57              		.section	.gnu.lto_test_wait_threads.b351366f209d4e36,"",%progbits
  58 0000 789C9552 		.ascii	"x\234\225R\277k\024A\024\376\276\231\235\335M0 6\266"
ARM GAS  /tmp/ccLwiMZb.s 			page 4


  58      BF6B1441 
  58      14FEBE99 
  58      9DDD4D30 
  58      2036B6
  59 0013 41B0D2BB 		.ascii	"A\260\322\273\305\306\316\312J\020,\222\023\255$.!n"
  59      C5C6CECA 
  59      4A102C92 
  59      13AD242E 
  59      216E
  60 0025 210797B3 		.ascii	"!\007\227\263\262\310l\356\204\210\030\202XDm\214)\264"
  60      B2C86CEE 
  60      84881882 
  60      58446D8C 
  60      29B4
  61 0037 106C050B 		.ascii	"\020l\005\013s\205\350\025*\351\024,\326B\253\374\001"
  61      7385E815 
  61      2AE9142C 
  61      D642ABFC 
  61      01
  62 0048 22C2FA66 		.ascii	"\"\302\372fg\367\222\330\371`g\346\375\372\336\367\336"
  62      67F792D8 
  62      F96067E6 
  62      FDFADEF7 
  62      DE
  63 0059 5B05857F 		.ascii	"[\005\205\177\345\262|\027\305\234\310\315\030T\033"
  63      E5B27C17 
  63      C59CC8CD 
  63      18541B
  64 0068 9F803C56 		.ascii	"\237\200<V\014\375C\253\340\375Y\330i3>\016{$\240\361"
  64      0CFD43AB 
  64      E0FD59D8 
  64      69333E0E 
  64      7B24A0F1 
  65 007c 66E3FDA3 		.ascii	"f\343\375\2438T\372\376\010\022\020\015f$ \"\235\035"
  65      3854FAFE 
  65      0812100D 
  65      66242022 
  65      9D1D
  66 008e C48AD281 		.ascii	"\304\212\322\201\011#\256\\\245\253\303\023\330\262"
  66      0923AE5C 
  66      A5ABC313 
  66      D8B2
  67 009c F641F1A3 		.ascii	"\366A\361\243,\370\310\356\014\237\332?eIf\024Nm\"%"
  67      2CF8C8EE 
  67      0C9FDA3F 
  67      65496614 
  67      4E6D2225 
  68 00b0 AE88C2D9 		.ascii	"\256\210\302\331\352R\301a\222\257\324NQ\226{o\177}"
  68      EA52C161 
  68      92AFD44E 
  68      51967B6F 
  68      7F7D
  69 00c2 5FE7B129 		.ascii	"_\347\261)b\201[\202g\220Q\307\265\"b0\264vc\266\321"
  69      62815B82 
  69      679051C7 
  69      B5226230 
  69      B47663B6 
ARM GAS  /tmp/ccLwiMZb.s 			page 5


  70 00d7 D3AAEEBC 		.ascii	"\323\252\356\274\234\302\254C%\227\036c\265\270\373"
  70      9CC2AC43 
  70      25971E63 
  70      B5B8FB
  71 00e6 2E5CE036 		.ascii	".\\\3406M\235\350\352M\012u\250!\355\350\217X\375\366"
  71      4D9DE8EA 
  71      4D0A75A8 
  71      21EDE88F 
  71      58FDF6
  72 00f9 E5D948F9 		.ascii	"\345\331H\371\300%\232\026NK\261'x\234[{4cp\033\277"
  72      C0259A16 
  72      4E4BB127 
  72      789C5B7B 
  72      3463701B 
  73 010e ED9A7B99 		.ascii	"\355\232{\231\233U\266C1\025\304\022\367\341>`\270\227"
  73      9B55B643 
  73      3115C412 
  73      F7E13E60 
  73      B897
  74 0120 9F9980B8 		.ascii	"\237\231\200\270 }\260\257\016\003\274i\351\317\030"
  74      207DB0AF 
  74      0E03BC69 
  74      E9CF18
  75 012f 16F7EE4C 		.ascii	"\026\367\356L\3738`\202\035\2465\226\344f\214\000\241"
  75      FB386082 
  75      1DA63596 
  75      E4668C00 
  75      A1
  76 0140 F57A737B 		.ascii	"\365zs{\267\246\325\302K+r\356\277\211\035\342\321\021"
  76      B7A6D5C2 
  76      4B2B72EE 
  76      BF891DE2 
  76      D111
  77 0152 B76F79B0 		.ascii	"\267oy\2606x\376\360B\3036\226\370j6.k\014upf\342m\222"
  77      3678FEF0 
  77      42C33696 
  77      F86A362E 
  77      6B0C7570 
  78 016a 43C8BEDD 		.ascii	"C\310\276\335\\\305\3228Yu\3763\217\032,\017\264\277"
  78      5CC5D238 
  78      5975FE33 
  78      8F1A2C0F 
  78      B4BF
  79 017c D4AF603D 		.ascii	"\324\257`=v\365B\013\230\331\234rX\221[\321.\362b\375"
  79      76F5420B 
  79      98D99C72 
  79      58915BD1 
  79      2EF262FD 
  80 0190 64330B2F 		.ascii	"d3\013/\363\0029\230q?\357\251v;9\177#\273\236]\232"
  80      F3023998 
  80      713FEFA9 
  80      763B397F 
  80      23BB9E5D 
  81 01a5 4BFA8BCB 		.ascii	"K\372\213\313\375\244\327O\226\273\267z\351\242W\335"
  81      FDA4D74F 
  81      96BBB77A 
  81      E9A257DD 
ARM GAS  /tmp/ccLwiMZb.s 			page 6


  82 01b5 71ADD7ED 		.ascii	"q\255\327\355\366\333)\230\375\005\275\272\230Z"
  82      F6DB2998 
  82      FD05BDBA 
  82      985A
  83              		.text
  84              		.section	.gnu.lto_test_wait_tick.b351366f209d4e36,"",%progbits
  85 0000 789C8D53 		.ascii	"x\234\215SOH\024Q\030\377\276\231]g\265\002\257V\330"
  85      4F481451 
  85      18FFBE99 
  85      5D67B502 
  85      AF56D8
  86 0013 260485B1 		.ascii	"&\004\205\261/\225\350ZX\007\301%p7\250K\313\3548\271"
  86      2F95E85A 
  86      5807C125 
  86      7037A84B 
  86      CBEC38B9 
  87 0027 03BB8ECC 		.ascii	"\003\273\216\314\214\213\322\301Y\335C\024\304\"D\221"
  87      8C8BD2C1 
  87      59DD4314 
  87      C4224491 
  88 0037 885956E8 		.ascii	"\210YV\350\301\210(\272\004[\247\202\334\245:\231\227"
  88      C18828BA 
  88      045BA782 
  88      DCA53A99 
  88      97
  89 0048 25E96004 		.ascii	"%\351`\004)\004\205\211\333\367flt\0271\037\274y\177"
  89      29048589 
  89      DBF7666C 
  89      7417311F 
  89      BC797F
  90 005b BE7FBFEF 		.ascii	"\276\177\277\357\367{#\200\000\325\243\201\3469\021"
  90      F77B2380 
  90      00D5A381 
  90      E63911
  91 006a E00A02A0 		.ascii	"\340\012\002\240\010(\344\012\000\231\200\200\3107\200"
  91      0828E40A 
  91      00998080 
  91      C83780
  92 0079 3024E0D0 		.ascii	"0$\340\320%t|\237\010\371R\271<\373\342\372\324\032"
  92      25747C9F 
  92      08F952B9 
  92      3CFBE2FA 
  92      D41A
  93 008b 4E0B920F 		.ascii	"N\013\222\0174\347\336\017Y\333\316\005\001\024\347"
  93      34E7DE0F 
  93      59DBCE05 
  93      0114E7
  94 009a 18A52F8F 		.ascii	"\030\245/\217\275\200\002_\305\"dK\343\017%\031'\321"
  94      BD80025F 
  94      C522644B 
  94      E30F2519 
  94      27D1
  95 00ac 4FE6ABB0 		.ascii	"O\346\253\260j_\263\3535D\005\335\264\027\221\362 %"
  95      6A5FB3EB 
  95      354405DD 
  95      B41791F2 
  95      2025
ARM GAS  /tmp/ccLwiMZb.s 			page 7


  96 00be 2374EF60 		.ascii	"#t\357`8\000\320\004\223\266=Zz5=\367\032GG\354\267"
  96      3800D004 
  96      93B63D5A 
  96      7A353DF7 
  96      1A4747EC 
  97 00d3 76365F2E 		.ascii	"v6_.\343!\015E\001.#\257\303c|Ag\361\373*;\342w\"\241"
  97      E3210D45 
  97      012E23AF 
  97      C3637C41 
  97      67F1FB2A 
  98 00ec 81020CAF 		.ascii	"\201\002\014\257\274\037y\264\337\303\347n\362\177>"
  98      BC1F79B4 
  98      DFC3E76E 
  98      F27F3E
  99 00fb 8E894765 		.ascii	"\216\211Ge|\200M\036\370\374\342\255\337{\016z\247\245"
  99      7C804D1E 
  99      F8FCE2AD 
  99      DF7B0E7A 
  99      A7A5
 100 010d DBAB92D7 		.ascii	"\333\253\222\327\227\013&\277R\274\331`\337\033\316"
 100      970B26BF 
 100      52BCD960 
 100      DF1BCE
 101 011c D9EB0485 		.ascii	"\331\353\004\205\000\013\260\200\377\203\342%\274Ql"
 101      000BB080 
 101      FF83E225 
 101      BC516C
 102 012b 05701950 		.ascii	"\005p\031P\320\021A!\262\025\364\321\344\244\000'`\221"
 102      D0114121 
 102      B215F4D1 
 102      E4A40027 
 102      6091
 103 013d AEC826BA 		.ascii	"\256\310&\272*5\302O\034\267\357\234\326\260\246\242"
 103      2A35C24F 
 103      1CB7EF9C 
 103      D6B0A6A2 
 104 014d AB4DFBAF 		.ascii	"\253M\373\257\015\273\344\226\232\2037\237\277\227\227"
 104      0DBBE496 
 104      9A83379F 
 104      BF9797
 105 015c 8E55B7FB 		.ascii	"\216U\267\373\374\361\202\270\245\263y\2573\373\307"
 105      FCF182B8 
 105      A5B379AF 
 105      33FBC7
 106 016b C4018E6A 		.ascii	"\304\001\216j\332AUCS\242\031\340\271z\320\327\0143"
 106      DA415543 
 106      53A219E0 
 106      B97AD0D7 
 106      0C33
 107 017d 7636532A 		.ascii	"v6S*\027\013\367\221j\007\306\340n&\307u\253\345P\352"
 107      170BF791 
 107      6A07C6E0 
 107      6E26C775 
 107      ABE550EA 
 108 0191 6C1A3E07 		.ascii	"l\032>\007U\235S=\316\265\224\361\231\333\016\311\270"
 108      559D533D 
 108      CEB594F1 
ARM GAS  /tmp/ccLwiMZb.s 			page 8


 108      99DB0EC9 
 108      B8
 109 01a2 BCFA757D 		.ascii	"\274\372u}\036\335\3542\3168dW\353\273T\250\326W\306"
 109      1EDDEC32 
 109      CE386457 
 109      EBBB54A8 
 109      D657C6
 110 01b5 29E26717 		.ascii	")\342g\027\002\303N\002\177\033\347\002\277\254\024"
 110      02C34E02 
 110      7F1BE702 
 110      BFAC14
 111 01c4 78625FE3 		.ascii	"xb_\343\226\267\352\361\261&mrP\353*S\267\215*2\316"
 111      96B7EAF1 
 111      B1266D72 
 111      50EB2A53 
 111      B78D2A32 
 112 01d9 D2C62BFD 		.ascii	"\322\306+\375O\005\031\237b\243\013\353\003d\226\277"
 112      4F05199F 
 112      62A30BEB 
 112      036496BF 
 113 01e9 7CDAEBAA 		.ascii	"|\332\353\252L\004\272\267Qz$\364\027p\347\346P\210"
 113      4C04BAB7 
 113      517A24F4 
 113      1770E7E6 
 113      5088
 114 01fb B527B4B8 		.ascii	"\265'\264\270v>\302,\325\264\230a1S\3577\024\325=\362"
 114      763EC22C 
 114      D5B49861 
 114      3153EF37 
 114      14D53DF2 
 115 020f 4FCCD075 		.ascii	"O\314\320u+\244\000\333\342\253\233L\321S)\275\227\365"
 115      2BA400DB 
 115      E2AB9B4C 
 115      D15329BD 
 115      97F5
 116 0221 E98665B2 		.ascii	"\351\206e\2623]\341\366\360\000S\022\212n\250\261\364"
 116      335DE1F6 
 116      F0005312 
 116      8A6EA8B1 
 116      F4
 117 0232 A9542801 		.ascii	"\251T(\001\376\264\234\354W\333\266\215R\007,\326\036"
 117      FEB49CEC 
 117      57DBB68D 
 117      52072CD6 
 117      1E
 118 0243 8E744498 		.ascii	"\216tD\230\326\253$\373\273U\246\244L\315\214\365(\012"
 118      D6AB24FB 
 118      BB55A6A4 
 118      4CCD8CF5 
 118      280A
 119 0255 451EAE8C 		.ascii	"E\036\256\214!L\236W\302\0344\311#\270\203G\332\"\007"
 119      214C9E57 
 119      C21C34C9 
 119      23B88347 
 119      DA2207
 120 0268 89FC2C2D 		.ascii	"\211\374,-\245\326\207#]\301\270l\252}\206v<x\344\004"
 120      A5D68723 
ARM GAS  /tmp/ccLwiMZb.s 			page 9


 120      5DC1B86C 
 120      AA7D8676 
 120      3C78E404 
 121 027c 08064829 		.ascii	"\010\006H)5\245\033\203p\2622IBNnt\023\211\206\333Z"
 121      35A51B83 
 121      70B23249 
 121      424E6E74 
 121      138986DB 
 122 0291 5967E759 		.ascii	"Yg\347Y\026\355\010\247[\270%F<$\223\335\224\271e\327"
 122      16ED08A7 
 122      5BB82546 
 122      3C2493DD 
 122      94B965D7 
 123 02a5 34F0FA06 		.ascii	"4\360\372\006E\374\005}\236I\221"
 123      45FC057D 
 123      9E4991
 124              		.text
 125              		.section	.gnu.lto_.symbol_nodes.b351366f209d4e36,"",%progbits
 126 0000 789C4DCD 		.ascii	"x\234M\3159\016\302@\020D\321\236?\036\366%\000\316"
 126      390EC240 
 126      1044D19E 
 126      3F1EF625 
 126      00CE
 127 0012 DB964888 		.ascii	"\333\226H\210\300\354\273\331\022N\303\031@\334\201"
 127      C0ECBBD9 
 127      124EC319 
 127      40DC81
 128 0021 10E19611 		.ascii	"\020\341\226\021\246\223\247*\225\324\010\362\220\357"
 128      A693A72A 
 128      95D408F2 
 128      90EF
 129 002f 31414592 		.ascii	"1AE\222\233\210j:p!A\202\012S\324\025-3\224\277\321"
 129      9B886A3A 
 129      70214182 
 129      0A53D415 
 129      2D3394BF 
 130 0044 18978DC2 		.ascii	"\030\227\215\302\010\214!\336\230\023I\306\202`,)\031"
 130      088C21DE 
 130      981349C6 
 130      82602C29 
 130      19
 131 0055 2BCAC69A 		.ascii	"+\312\306\232\212\261\241jl\251\031;\352\306\236\206"
 131      8AB1A16A 
 131      6CA9193B 
 131      EAC69E86 
 132 0065 91D2340E 		.ascii	"\221\3224\016\264\214#\355\014wB}\3767\216\235;\243"
 132      B48C23ED 
 132      0C77427D 
 132      FE378E9D 
 132      3BA3
 133 0077 51912E68 		.ascii	"Q\221.h\370%/\035y^_%O7\327\367\244\177\177;\371\000"
 133      F8252F1D 
 133      795E5F25 
 133      4F37D7F7 
 133      A47F7F3B 
 134 008d EB2C34E8 		.ascii	"\353,4\350"
 135              		.text
ARM GAS  /tmp/ccLwiMZb.s 			page 10


 136              		.section	.gnu.lto_.refs.b351366f209d4e36,"",%progbits
 137 0000 789C35C2 		.ascii	"x\2345\302\211\015\300 \020\304\300=\213?\204\257\023"
 137      890DC020 
 137      10C4C03D 
 137      8B3F84AF 
 137      13
 138 0011 FA6F2E91 		.ascii	"\372o.\221\020\036#\264u\262\177\220\231y\207\277j "
 138      101E23B4 
 138      75B27F90 
 138      997987BF 
 138      6A20
 139 0023 92C8141E 		.ascii	"\222\310\024\036*/\215\316`\262\364\001\035\027\001"
 139      2A2F8DCE 
 139      60B2F401 
 139      1D1701
 140 0032 2B       		.ascii	"+"
 141              		.text
 142              		.section	.gnu.lto_.decls.b351366f209d4e36,"",%progbits
 143 0000 789CBD9B 		.ascii	"x\234\275\233{p\024U\272\300\273{&\231\231$\"\017\265"
 143      7B701455 
 143      BAC0BB7B 
 143      26999924 
 143      220FB5
 144 0013 704BD7E0 		.ascii	"pK\327\340\256{\257\273\027&\011\240xkKq\203\245V\311"
 144      AE7BAFBB 
 144      172609A0 
 144      786B4B71 
 144      83A556C9 
 145 0027 2E95E0BD 		.ascii	".\225\340\275Vm\335;\333L\0322\227ydg:\004\352\376a"
 145      566DDD3B 
 145      DB4C1A32 
 145      97796467 
 145      3A04EAFE 
 146 003c 27A020A2 		.ascii	"'\240 \242&\200\022\236\031\004\004\237\274\224\020"
 146      2680129E 
 146      1904049F 
 146      BC9410
 147 004b 79F5BA08 		.ascii	"y\365\272\010\341\015\341\271d\227L\241\"R^\226%\006"
 147      E10DE1B9 
 147      64974CA1 
 147      22525E96 
 147      2506
 148 005d 441EB9DF 		.ascii	"D\036\271\3379\335=\335\247\347\364Lw(w\252\316IO\367"
 148      39DD3DDD 
 148      A7E7F44C 
 148      772877AA 
 148      CE494FF7 
 149 0071 39BFF39D 		.ascii	"9\277\363\235\357\373\3169\3379\235\341\030\216\231"
 149      EFFBCE39 
 149      DF399DE1 
 149      188E99
 150 0080 CF324C2F 		.ascii	"\3172L/|\016\374\232a\366\0260\214\233a\230\307!\301"
 150      7C0EFC9A 
 150      61F61630 
 150      8C9B6198 
 150      C721C1
 151 0093 6D6639A3 		.ascii	"mf9\243|\362!\275\017i-\244\015\2206A\232\014\005b\220"
ARM GAS  /tmp/ccLwiMZb.s 			page 11


 151      7CF221BD 
 151      0F692DA4 
 151      0D903641 
 151      9A0C0562 
 152 00a8 FAC37502 		.ascii	"\372\303u\002\376\326A\252\207\364:\244w!}\000i-\244"
 152      FED641AA 
 152      87F43AA4 
 152      77217D00 
 152      692DA4
 153 00bb 0D903E81 		.ascii	"\015\220>\201\264\031\322\026H\333!\375\011\322NH\273"
 153      B419D216 
 153      48DB21FD 
 153      09D24E48 
 153      BB
 154 00cc 21ED6519 		.ascii	"!\355e\031\342\203\332\361B\312\203\324\017R\021\244"
 154      E283DAF1 
 154      42CA83D4 
 154      0F5211A4 
 155 00dc 36482294 		.ascii	"6H\"\224\333\017\351\000\244V\265,\247\226\337\244\312"
 155      DB0FE900 
 155      A456B52C 
 155      A796DFA4 
 155      CA
 156 00ed 9B30B1D6 		.ascii	"\2330\261\326\346`\035\204\024fu\326Z\265_4\026\352"
 156      E6601D84 
 156      146675D6 
 156      5AB55F34 
 156      16EA
 157 00ff 77A1AA93 		.ascii	"w\241\252\223C\360\254\006\322*\003\3670|\357\200t\014"
 157      43F0AC06 
 157      D22A03F7 
 157      307CEF80 
 157      740C
 158 0111 D271481E 		.ascii	"\322qH\036N\341|\313*\365P}\244//\334/\204\324\017\322"
 158      4EE17CCB 
 158      2AF5507D 
 158      A42F2FDC 
 158      2F84D40F 
 159 0126 00483F81 		.ascii	"\000H?\201t?\244bH?\203\364\013\216\311\370\370\230"
 159      743FA462 
 159      483F83F4 
 159      0B8EC9F8 
 159      F898
 160 0138 5992D420 		.ascii	"Y\222\324 %_\226\236i\207\366^`y\266\237\217)\306\027"
 160      255F969E 
 160      6987F65E 
 160      6079B69F 
 160      8F29C617 
 161 014c 453E6CB2 		.ascii	"E>l\262\207\230\225\222\324\230\372j\321\335\222\233"
 161      87989592 
 161      D498FA6A 
 161      D1DD929B 
 162 015c 6797B33E 		.ascii	"g\227\263>\350\320\303,\363K\346]\011\356K\322\331\237"
 162      E8D0C32C 
 162      F34BE65D 
 162      09EE4BD2 
 162      D99F
ARM GAS  /tmp/ccLwiMZb.s 			page 12


 163 016e 64621D70 		.ascii	"db\035p{\336\235\363o\222\344\345\331U\230\374\021\313"
 163      7BDE9DF3 
 163      6F92E4E5 
 163      D95598FC 
 163      11CB
 164 0180 323CBB92 		.ascii	"2<\273\222\375\245cP\327\253[\037\303\2405\030\264\225"
 164      FDA56350 
 164      D7AB5B1F 
 164      C3A03518 
 164      B495
 165 0192 23413CEB 		.ascii	"#A<\353\361\031%\304\337\265\002\210\206\037\253\027"
 165      F11925C4 
 165      DFB50288 
 165      861FAB17 
 166 01a2 C86DEF64 		.ascii	"\310m\357d~\344\342\0170\313\244d*\325r\242\207_(\311"
 166      7EE4E20F 
 166      30CBA464 
 166      2AD572A2 
 166      875F28C9 
 167 01b6 33A4DEDE 		.ascii	"3\244\336\336\027\231{\2307A\253\250\273\022+\362\354"
 167      17997B98 
 167      3741ABA8 
 167      BB122BF2 
 167      EC
 168 01c7 E377537B 		.ascii	"\343wS{\214\370\037\260\367\250W\317\2734?\3536\365"
 168      8CF81FB0 
 168      F7A857CF 
 168      BB343FEB 
 168      36F5
 169 01d9 196CCEAC 		.ascii	"\031l\316\254B<i\215\344\3024T\376}\366\001R\324\017"
 169      423C698D 
 169      E4C23454 
 169      FE7DF601 
 169      52D40F
 170 01ec 59C23314 		.ascii	"Y\3023\024\271\344\033\273\213\032\353S\275\275\017"
 170      B9E41BBB 
 170      8B1AEB53 
 170      BDBD0F
 171 01fb 286D71CC 		.ascii	"(mq\314l\227\035\372Z3}\035\225\336\272\367\265{\245"
 171      6C971DFA 
 171      5A337D1D 
 171      95DEBAF7 
 171      B57BA5
 172 020e 6483DCDB 		.ascii	"d\203\334\333\373\204\271\323\310\305\254z\275\221\322"
 172      FB84B9D3 
 172      C8C5AC7A 
 172      BD91D2
 173 021d EB2574B9 		.ascii	"\353%t\271\032\244\015k$\237\202C\0256\200`t,~\374q"
 173      1AA40D6B 
 173      249F8243 
 173      15368060 
 173      742C7EFC 
 174 0232 A698A9C6 		.ascii	"\246\230\251\306Tk\347\325\351l\323\364d\273t\011\331"
 174      546BE7D5 
 174      E96CD3F4 
 174      64BB7409 
 174      D9
ARM GAS  /tmp/ccLwiMZb.s 			page 13


 175 0243 CCBE795A 		.ascii	"\314\276yZUA]x\370\3038\235\255\273\361@\246\011Q\212"
 175      55415D78 
 175      F8C3389D 
 175      ADBBF140 
 175      A609518A 
 176 0257 0D0E9D74 		.ascii	"\015\016\235tk\2001\214>\344Z\356GC\356Sv @\216\230"
 176      6B80318C 
 176      3EE45AEE 
 176      4743EE53 
 176      7620408E 
 177 026c 7A9913C2 		.ascii	"z\231\023\3021\247q\225mP]\251\210\261Rja\313\337\032"
 177      31A77195 
 177      6D505DA9 
 177      88B1526A 
 177      61CBDF1A 
 178 0280 D87AE881 		.ascii	"\330z\350\201\362\2141)\317\360\031\302$\241\202|u\357"
 178      F28C3129 
 178      CFF019C2 
 178      24A1827C 
 178      75EF
 179 0292 12564A7E 		.ascii	"\022VJ~\306R\232\034\255\265\350\325\305~\351B\273\033"
 179      C6529A1C 
 179      ADB5E8D5 
 179      C57EE942 
 179      BB1B
 180 02a4 0FC43F61 		.ascii	"\017\304?a\301g\272\251\202'G[a8f\001\256\2623C\360"
 180      C167BAA9 
 180      8227475B 
 180      61386601 
 180      AEB23343 
 181 02b9 AE439AE0 		.ascii	"\256C\232\340;m\010\336 \037\231\275\364^$8\317\266"
 181      3B6D08DE 
 181      201F99BD 
 181      F45E2438 
 181      CFB6
 182 02cb B185C05D 		.ascii	"\261\205\300]\223\346\322\314\246^*\037\265\000\311"
 182      93E6D2CC 
 182      A65E2A1F 
 182      B500C9
 183 02da EBD85BD4 		.ascii	"\353\330[\324\310k\260\017\035\303\212i\242j\376\247"
 183      C86BB00F 
 183      1DC38A69 
 183      A26AFEA7 
 184 02ea F7966777 		.ascii	"\367\226gw\261\017A\276\233\035\002\371\036\310\323"
 184      B10F41BE 
 184      9B1D02F9 
 184      1EC8D3
 185 02f9 1F8ED9E0 		.ascii	"\037\216\331\340\326lJS]\356.\\\333\273\004\253\304"
 185      D66C4A53 
 185      5DEE2E5C 
 185      DBBB04AB 
 185      C4
 186 030a FEBCFA8F 		.ascii	"\376\274\372\217/\344\301\333$\251?\317\036\300\023"
 186      2FE4C1DB 
 186      24A93FCF 
 186      1EC013
 187 0319 6BB7DB3C 		.ascii	"k\267\333<\261\256b\035\317\254\034s\335\334\021\232"
ARM GAS  /tmp/ccLwiMZb.s 			page 14


 187      B1AE621D 
 187      CFAC1C73 
 187      DDDC119A 
 188 0329 FABC561D 		.ascii	"\372\274V\035A\316pf.;o\272\324^\2429T\276UG8F\312C"
 188      41CE7066 
 188      2E3B6FBA 
 188      D45EA239 
 188      54BE5547 
 189 0341 8D75981D 		.ascii	"\215u\230\035j\313\205\366\207\233q\327:l\371\323'{"
 189      6ACB85F6 
 189      879B71D7 
 189      3A6CF9D3 
 189      277B
 190 0353 1760E5E5 		.ascii	"\027`\345\345\034\315\234\326\374\317q\363m\270\371"
 190      1CCD9CD6 
 190      FCCF71F3 
 190      6DB8F9
 191 0362 93E6E617 		.ascii	"\223\346\346\027_l\377\275\322\374I[\315\267\235\234"
 191      5F6CFFBD 
 191      D2FC495B 
 191      CDB79D9C 
 192 0372 9FD9BCE5 		.ascii	"\237\331\274\345,\244\232o\313\205\363\367\265\340F"
 192      2CA49A6F 
 192      CB85F3F7 
 192      B5E046
 193 0381 3AB1DBF6 		.ascii	":\261\333\366\344\231\315\367D!i=\370n(\3001\267\322"
 193      E499CDF7 
 193      4421693D 
 193      F86E28C0 
 193      31B7D2
 194 0394 D2F769D4 		.ascii	"\322\367i\324@7\317\377\327\273\033$\351\225|M\206\372"
 194      4037CFFF 
 194      D7BB1B24 
 194      E9957C4D 
 194      86FA
 195 03a6 7CA7C462 		.ascii	"|\247\304bB\021[O\342q\250\300f\330\201Y:R\203\274\335"
 195      42115B4F 
 195      E271A8C0 
 195      66D88159 
 195      3A5283BC 
 196 03bb 089BE918 		.ascii	"\010\233\351\030FJv\330\010\233m\007\326\337Z\262\016"
 196      464A76D8 
 196      089B6D07 
 196      D6DF5AB2 
 196      0E
 197 03cc 23EC35C7 		.ascii	"#\3545\3070R\262cFX\243\035\330`k\311N\030a\363\035"
 197      3052B263 
 197      4658A31D 
 197      D8606BC9 
 197      4E1861F3 
 198 03e1 C348C94E 		.ascii	"\303H\311N\031a\315v`\305\024\311\322\037\253\025\371"
 198      1961CD76 
 198      60C514C9 
 198      D21FAB15 
 198      F9
 199 03f2 049BF673 		.ascii	"\004\233\366s\216Y\234\257M\010\016}\232\321\031\313"
 199      8E599CAF 
ARM GAS  /tmp/ccLwiMZb.s 			page 15


 199      4D080E7D 
 199      9AD119CB 
 200 0402 F29DCE60 		.ascii	"\362\235\316`D\277a\006\353z[\231\301\264%\345m;\304"
 200      44BF6106 
 200      EB7A5B99 
 200      C1B425E5 
 200      6D3BC4
 201 0415 2C0ED3B8 		.ascii	",\016\323\270\317\260>\255q\014#\315\262\014\301\210"
 201      CFB03EAD 
 201      710C23CD 
 201      B20CC188 
 202 0425 A9465D33 		.ascii	"\251F]3R\253\344\301\315\372d\347\325XhO\242\314l\260"
 202      52ABE4C1 
 202      CDFA64E7 
 202      D558684F 
 202      A2CC6CB0 
 203 0439 2BE0D285 		.ascii	"+\340\322\205\245\301\203\351ey\366{\274\316]S\227\017"
 203      A5C183E9 
 203      6579F67B 
 203      BCCE5D53 
 203      970F
 204 044b F448B9D6 		.ascii	"\364H\271\326\256zY\244\347\217\362M\033&\355\223\253"
 204      AE7A59A4 
 204      E78FF24D 
 204      1B26ED93 
 204      AB
 205 045c AA95275C 		.ascii	"\252\225'\\1z\302F;j\3122\024\016[\251I~Y\232\305\326"
 205      317AC246 
 205      3B6ACA32 
 205      140E5BA9 
 205      497E599A 
 206 0472 AFBF2F6B 		.ascii	"\257\277/k\254\004\263\363\375\357\341\331\371\026^"
 206      AC04B3F3 
 206      FDEFE1D9 
 206      F9165E
 207 0481 5C37E753 		.ascii	"\\7\347S\267?\266X=\327\324\235T=\207P\177\356;*\331"
 207      B73FB658 
 207      3DD7D49D 
 207      543D8750 
 207      7FEE3B2A 
 208 0496 B5EF3E14 		.ascii	"\265\357>\024y\316\300\240\375\371\346\025\303gZ\357"
 208      79CEC0A0 
 208      FDF9E615 
 208      C3675AEF 
 209 04a6 7DE47AEF 		.ascii	"}\344z\357\363\351\027\275\332\207\264\341\217Z\307"
 209      F3E917BD 
 209      DA87B4E1 
 209      8F5AC7
 210 04b5 CAEE378D 		.ascii	"\312\3567\215v?\351\330\356\304\360H5w]\341\026Hr\275"
 210      763FE9D8 
 210      EEC4F048 
 210      35775DE1 
 210      164872BD 
 211 04c9 CBE0E859 		.ascii	"\313\340\350YG\005\212\244\316\237d\247\343\370\365"
 211      47058AA4 
 211      CE9F64A7 
 211      E3F8F5
ARM GAS  /tmp/ccLwiMZb.s 			page 16


 212 04d8 15ACD933 		.ascii	"\025\254\3313t\023\331@\365|s\232\303\266\236\203A_"
 212      7413D940 
 212      F57C739A 
 212      C3B69E83 
 212      415F
 213 04ea F719D4F5 		.ascii	"\367\031\324\365\352\262Q\030\364\006\006\375=\303\326"
 213      EAB25118 
 213      F40606FD 
 213      3DC3D6
 214 04f9 E6D88E25 		.ascii	"\346\330\216%m\220\036t\352\230\373\261\312r\3145\263"
 214      6D901E74 
 214      EA98FBB1 
 214      CA72CC35 
 214      B3
 215 050a C188EE64 		.ascii	"\301\210\356dY\031\322\323\355\215\271lw\203\324\\\342"
 215      5919D2D3 
 215      ED8DB96C 
 215      7783D45C 
 215      E2
 216 051b C46229CD 		.ascii	"\304b)\315b\363\261~z3\364\203\014\340\254#3=N;\342"
 216      62F3B17E 
 216      7A33F483 
 216      0CE0AC23 
 216      333D4E3B 
 217 0530 253BD2D2 		.ascii	"%;\322\322\333\207\216\\\322:\262\020w\3445\317\355"
 217      DB878E5C 
 217      D23AB210 
 217      77E435CF 
 217      ED
 218 0541 77E44DC7 		.ascii	"w\344M\307\035\351o\350\010\336\317\315W\026\300A\314"
 218      1DE96FE8 
 218      08DECFCD 
 218      5716C041 
 218      CC
 219 0552 DCEC213C 		.ascii	"\334\354!<\222g\0317\210\210\237\345\343\007\331b\345"
 219      92671937 
 219      88889FE5 
 219      E307D962 
 219      E5
 220 0563 76EE3D6C 		.ascii	"v\356=l\367A\303\276G\262\267\357iW\367=\313\261\306"
 220      F741C3BE 
 220      47B2B7EF 
 220      6957F73D 
 220      CBB1C6
 221 0576 16792863 		.ascii	"\026y(c\314\016)\331\363!\222s%\246$\373JIu\355kUF\352"
 221      CC0E29D9 
 221      F3219273 
 221      25A624FB 
 221      4A4975ED 
 222 058e 6A0C5A93 		.ascii	"j\014Z\223a\300|\223\375\362I\373\301W\324\322\367x"
 222      61C07C93 
 222      FDF249FB 
 222      C157D4D2 
 222      F778
 223 05a0 927C51BD 		.ascii	"\222|Q\275\203\276x\230\177z=\330\307b\361\221\355\034"
 223      83BE7898 
 223      7F7A3DD8 
ARM GAS  /tmp/ccLwiMZb.s 			page 17


 223      C762F191 
 223      ED1C
 224 05b2 06609AEF 		.ascii	"\006`\232\357\264|9O\013\236\024\373\264\335\026\261"
 224      B47C394F 
 224      0B9E14FB 
 224      B4DD16B1 
 225 05c2 416E7943 		.ascii	"AnyC;,x\002\205O\237\335&n\353!s\\`\332\266}j\261\364"
 225      3B2C7802 
 225      854F9FDD 
 225      266EEB21 
 225      735C60DA 
 226 05db 68A7285F 		.ascii	"h\247(_\244\224\031~=\207\304\331\223a\3566\326\264"
 226      A494197E 
 226      3D87C4D9 
 226      9361EE36 
 226      D6B4
 227 05ed 6F43370C 		.ascii	"oC7\014E\254\206\321:\316\260\012\376\365v\315\320\325"
 227      45AC86D1 
 227      3ACEB00A 
 227      FEF576CD 
 227      D0D5
 228 05ff 6332C3D9 		.ascii	"c2\303\331\333\324\3335\325\014\271\366\330\177\320"
 228      DBD4DB35 
 228      D50CB9F6 
 228      D87FD0
 229 060e 5845B823 		.ascii	"XE\270#\027p\263m\234i\213\335\325\233z\231m\300\363"
 229      1770B36D 
 229      9C698BDD 
 229      D59B7A99 
 229      6DC0F3
 230 0621 1E7A967B 		.ascii	"\036z\226{\236\350\374\312'\315-R\316\256xv\037\313"
 230      9EE8FCCA 
 230      27CD2D52 
 230      CEAE7876 
 230      1FCB
 231 0633 A9545AB0 		.ascii	"\251TZ\260\224S=\362\031\241\275\304\311\214s^\235q"
 231      94533DF2 
 231      19A1BDC4 
 231      C98C735E 
 231      9D71
 232 0645 B663552E 		.ascii	"\266cU.\364\232m\276\322<G;\032s-^\226\354\215\335\235"
 232      F49A6DBE 
 232      D23C473B 
 232      1A732D5E 
 232      96EC8DDD 
 233 065a 72FA63E5 		.ascii	"r\372c\345S\233\215>\265\302{[\036\000>\265k\245\342"
 233      539B8D3E 
 233      B5C27B5B 
 233      1E003EB5 
 233      6BA5E2
 234 066d 53B97C40 		.ascii	"S\271|@b\215\373\030\216y\017\267\374\271\331\011N\256"
 234      628DFB18 
 234      8E790FB7 
 234      FCB9D909 
 234      4EAE
 235 067f D833533D 		.ascii	"\3303S=7\374\334\226\023\364P\234\340\363>:\001x\364"
 235      37FCDC96 
ARM GAS  /tmp/ccLwiMZb.s 			page 18


 235      13F4509C 
 235      E0F33E3A 
 235      0178F4
 236 0692 377B588C 		.ascii	"7{X\214S\366e\307\323B:\264\202\212\273!8U\214\342^"
 236      53F665C7 
 236      D3423AB4 
 236      828ABB21 
 236      38558CE2 
 237 06a7 F25FBE42 		.ascii	"\362_\276B\313\320\001\016\035\312vf\270\226\242\031"
 237      CBD0010E 
 237      1DCA7666 
 237      B896A219 
 238 06b7 836BE96A 		.ascii	"\203k\351j\344\331\335\034\332\250\265s\370@\022\347"
 238      E4D9DD1C 
 238      DAA8B573 
 238      F84012E7 
 239 06c7 FB38C3B1 		.ascii	"\3738\303\261\244\225[\354\327\335\002j\233\325hw\273"
 239      A4955BEC 
 239      D7DD026A 
 239      9BD56877 
 239      BB
 240 06d8 9CB3999D 		.ascii	"\234\263\231\235F\357\373\3426\275\257\271\353\240\033"
 240      46EFFBE2 
 240      36BDAFB9 
 240      EBA01B
 241 06e7 BD8E7139 		.ascii	"\275\216q99!=\245\216\333\016<n/d(\267O'\244W\372\332"
 241      39213DA5 
 241      8EDB0E3C 
 241      6E2F6428 
 241      B74F27A4 
 242 06fe 93F48763 		.ascii	"\223\364\207cnzm\354r\212)JO/\263'\346\333<eU\225\261"
 242      6E7A6DEC 
 242      728A294A 
 242      4F2FB327 
 242      E6DB3C65 
 243 0715 EA9CAC9C 		.ascii	"\352\234\254\234\376\237\302\216\326k\322\205\215\303"
 243      FE9FC28E 
 243      D66BD285 
 243      8DC3
 244 0723 DAD77DA8 		.ascii	"\332\327}\250J\247y\024/l\331\257\235\376w\332\030\305"
 244      4AA77914 
 244      2F6CD9AF 
 244      9DFE77DA 
 244      18C5
 245 0735 0DF246E2 		.ascii	"\015\362F\342\364_s\300\316\354\016\230U\237\204\011"
 245      F45F73C0 
 245      CEEC0E98 
 245      559F8409 
 246 0745 3B0DE3E3 		.ascii	";\015\343\343ox|\2341\216\011\216Y\346\263\241\373\177"
 246      6F787C9C 
 246      318E098E 
 246      59E6B3A1 
 246      FB7F
 247 0757 B5F24498 		.ascii	"\265\362D\230\205:\224\327.\332\213\224w\314<\332<D"
 247      853A94D7 
 247      2EDA8B94 
 247      77CC3CDA 
ARM GAS  /tmp/ccLwiMZb.s 			page 19


 247      3C44
 248 0769 F08CB66C 		.ascii	"\360\214\266l\220\033\217\342\323!\305G\327\332\021"
 248      901B8FE2 
 248      D321C547 
 248      D7DA11
 249 0778 AEC41AD6 		.ascii	"\256\304\032\3262OS\356N\034\237l\266\303\033e\325\331"
 249      324F53EE 
 249      4E1C9F6C 
 249      B6C31B65 
 249      D5D9
 250 078a 06B9F5E8 		.ascii	"\006\271\365\350\022\225\247\274e\220\035\363H\371\216"
 250      1295A7BC 
 250      65901DF3 
 250      48F98E
 251 0799 CF23A2B9 		.ascii	"\317#\242\271=vp\243m\333^\177\247\306\263;\360!\226"
 251      3D7670A3 
 251      6DDB5E7F 
 251      A7C6B33B 
 251      F02196
 252 07ac 8C5FD6EC 		.ascii	"\214_\326\354\307\371\021\234\377\003\347\3358\357\301"
 252      C7F9119C 
 252      FF03E7DD 
 252      38EFC1
 253 07bb F90D9CCF 		.ascii	"\371\015\234\317\302\363\347<\2347\343|)\316O\342<\205"
 253      C2F3E73C 
 253      9C37E37C 
 253      29CE4FE2 
 253      3C85
 254 07cd F3B338   		.ascii	"\363\2638"
 255 07d0 FF12E7E7 		.ascii	"\377\022\347\347p~\336\316|k\212\000\365\227\244\330"
 255      707EDECE 
 255      7C6B8A00 
 255      F597A4D8 
 256 07e0 1F0FF9CC 		.ascii	"\037\017\371\314\357I\225B\0278\352\233\317\305W\346"
 256      EF499542 
 256      1738EA9B 
 256      CFC557E6 
 257 07f0 59BFF944 		.ascii	"Y\277\371D\261\236\225\024\337r\304\253OM,B\2263\026"
 257      B19E9514 
 257      DF72C4AB 
 257      4F4D2C42 
 257      963316
 258 0803 B25CA4C9 		.ascii	"\262\\\244\311\"7\315\235s\257\264\234\372\2628\313"
 258      2237CD9D 
 258      73AFB49C 
 258      FAB238CB 
 259 0813 2BD84B66 		.ascii	"+\330Kf9\226\343\035-!\307y\0139.\223r<\310,\227R\207"
 259      3996E31D 
 259      2D21C779 
 259      0B392E93 
 259      723CC82C 
 260 082a 532D27CE 		.ascii	"S-'\316\255ga\376j\207\321\011\001\326\003\003\230F"
 260      AD6761FE 
 260      6A87D109 
 260      01D60303 
 260      9846
 261 083c 75E5553A 		.ascii	"u\345U:\251J\222L\257\276w\251\270\357\270\001\370\212"
ARM GAS  /tmp/ccLwiMZb.s 			page 20


 261      A94A924C 
 261      AFBE77A9 
 261      B8EFB801 
 261      F88A
 262 084e 88057109 		.ascii	"\210\005q\011+\341{8\375d\263\310\247_ho\2549\246;-"
 262      2BE17B38 
 262      FD64B3C8 
 262      A75F686F 
 262      AC39A63B 
 263 0863 BA65B357 		.ascii	"\272e\263W\364^\240\036\254\223\345Ov\317\2079\005\002"
 263      F45EA01E 
 263      AC93E54F 
 263      76CF8739 
 263      0502
 264 0875 E25B20BF 		.ascii	"\342[ \277.~:\236\220\263\275Q\312|9d\321\262Q/OdQ\313"
 264      2E7E3A9E 
 264      90B3BD51 
 264      CA7C3964 
 264      D1B2512F 
 265 088d 0FAA5AF4 		.ascii	"\017\252Z\364\356\232\277r\314\365\334\335\274\256v"
 265      EE9ABF72 
 265      CCF5DCDD 
 265      BCAE76
 266 089c 7304B351 		.ascii	"s\004\263Q\232%\217\343\331\357\201\233\036\306\377"
 266      9A258FE3 
 266      D9EF819B 
 266      1EC6FF
 267 08ab CBFC2081 		.ascii	"\313\374 \201\326k\211\230I\223\260\271\237r\360\241"
 267      D66B8998 
 267      4993B0B9 
 267      9F72F0A1 
 268 08bb 9696276A 		.ascii	"\226\226'j\354\363E*\274\327\261\351$\027\335t_\027"
 268      ECF3452A 
 268      BCD7B1E9 
 268      2417DD74 
 268      5F17
 269 08cd 3184D632 		.ascii	"1\204\3262*\336\322\343\030\305\341\344\246\231k\331"
 269      2ADED2E3 
 269      18C5E1E4 
 269      A6996BD9 
 270 08dd C6E41C58 		.ascii	"\306\344\034X\375\360\377a Y8\346\226Y#\204\324\330"
 270      FDF0FF61 
 270      205938E6 
 270      96592384 
 270      D4D8
 271 08ef DB396676 		.ascii	"\3339fv\001\2539>z\226\227>D\302-5\270\214\356\255b"
 271      01AB393E 
 271      7A96973E 
 271      44C22D35 
 271      B88CEEAD 
 272 0904 58660CF3 		.ascii	"Xf\014\363gP\225\334:\363_\260\3354\315)\222\361l\275"
 272      675095DC 
 272      3AF35FB0 
 272      DD34CD29 
 272      92F16CBD 
 273 0918 EB4143BF 		.ascii	"\353AC\277\3329C]N\253\333f\253nc\236\241\256K\253\273"
 273      DA39435D 
ARM GAS  /tmp/ccLwiMZb.s 			page 21


 273      4EABDB66 
 273      AB6E639E 
 273      A1AE4BAB 
 274 092d C556DD53 		.ascii	"\305V\335S\036C]\267Vw\233\255\272\311\002]\275IY\356"
 274      1E435DB7 
 274      56779BAD 
 274      BAC9025D 
 274      BD4959EE 
 275 0941 FE3F88F3 		.ascii	"\376?\210\363%<\301Q\306\002\261g\227\365@\033\326\027"
 275      253CC151 
 275      C602B167 
 275      97F5401B 
 275      D617
 276 0953 3647AC9D 		.ascii	"6G\254\235:\276\341\310`t\334\22636\207\225\300\365"
 276      3ABEE1C8 
 276      6074DC96 
 276      33368795 
 276      C0F5
 277 0965 10ED9F39 		.ascii	"\020\355\2379\310b\250\340\233.2\"\222\257\013\305\312"
 277      C862A8E0 
 277      9B2E3222 
 277      92AF0BC5 
 277      CA
 278 0976 DDDCB1D0 		.ascii	"\335\334\261\320\315\233\355\312\036\344\012\236\213"
 278      CD9BEDCA 
 278      1EE40A9E 
 278      8B
 279 0983 AFE35008 		.ascii	"\257\343P\010U\355S\220,\367~\203q\246\023\015\364o"
 279      55ED5390 
 279      2CF77E83 
 279      71A6130D 
 279      F46F
 280 0995 4256BEBD 		.ascii	"BV\276\275\320ez\253\274\276\200u(B1!B\343.\034\315"
 280      D0657AAB 
 280      BCBE8075 
 280      28423121 
 280      42E32E1C 
 281 09aa 202EC7B4 		.ascii	" .\307\264\332\201e\331S\3155\302d\307\260b\223\322"
 281      DA8165D9 
 281      53CD35C2 
 281      64C7B062 
 281      93D2
 282 09bc B5D0E02D 		.ascii	"\265\320\340-\027\012\015\026\270\360R\217\363\3058"
 282      170A0D16 
 282      B8F0528F 
 282      F3C538
 283 09cb 5FEA2202 		.ascii	"_\352\"\002\305\366\002\363~A1\252\201\247\333\236\311"
 283      C5F602F3 
 283      7E4131AA 
 283      81A7DB9E 
 283      C9
 284 09dc 4DA4DBC0 		.ascii	"M\244\333\300d\254\271\026\375C\374\244\2138Z\262D\362"
 284      64ACB916 
 284      FD43FCA4 
 284      8B385AB2 
 284      44F2
 285 09ee 6CA35E52 		.ascii	"l\243^R\233\236]Z\231\021j\2317\\Ng\320\345\0263\250"
ARM GAS  /tmp/ccLwiMZb.s 			page 22


 285      9B9E5D5A 
 285      99116A99 
 285      375C4E67 
 285      D0E51633 
 286 0a03 368172CC 		.ascii	"6\201r\314\321\002\363\252\220\321\354\3330\307\375"
 286      D102F3AA 
 286      90D1ECDB 
 286      30C7FD
 287 0a12 943953B0 		.ascii	"\2249S\260TRl\245\254\016\207]\212@\304\362\320,\245"
 287      54526CA5 
 287      AC0E875D 
 287      8A40C4F2 
 287      D02CA5
 288 0a25 5ADEDAE6 		.ascii	"Z\336\332\346\242\256\020H\324&\203>\214\367\215z\342"
 288      A2AE1048 
 288      D426833E 
 288      8CF78D7A 
 288      E2
 289 0a36 D9356A3F 		.ascii	"\3315j?3?V\375|\307EL\370\227\032S;Z\367\314c\347KI"
 289      333F56FD 
 289      7CC7454C 
 289      F8971A53 
 289      3B5AF7CC 
 290 0a4e 2DC2E0D9 		.ascii	"-\302\340\331\325.4\347\257(4\307)<\373\036}\022\327"
 290      D52E34E7 
 290      AF2834C7 
 290      293CFB1E 
 290      7D12D7
 291 0a61 3A74629B 		.ascii	":tb\233KiAEwn\241\243\277\241\240?\244\2419]W\333I\364"
 291      4B694145 
 291      776EA1A3 
 291      BFA1A03F 
 291      A4A1395D 
 292 0a79 D51D74F4 		.ascii	"\325\035t\364\332\242L\364:\032\332\245\243w\220\350"
 292      DAA24CF4 
 292      3A1ADAA5 
 292      A37790E8 
 293 0a89 79E7E8E8 		.ascii	"y\347\350\350\036\012z#\015\355\326\025\262\263\224"
 293      1E0A7A23 
 293      0DEDD615 
 293      B2B394
 294 0a98 40B75CA0 		.ascii	"@\267\\\240\243\267\334\221\211\336DC\347\351R\357\""
 294      A3B7DC91 
 294      89DE4443 
 294      E7E952EF 
 294      22
 295 0aa9 D15B2ED2 		.ascii	"\321[.\322\321\365\3752\321m4t\276.\365n\022}\3622\035"
 295      D1F5FD32 
 295      D16D3474 
 295      BE2EF56E 
 295      127DF232 
 296 0abe BD9B82DE 		.ascii	"\275\233\202\336JC{t\251\017\220\350\356+t\364kwf\242"
 296      4A437B74 
 296      A90F90E8 
 296      EE2B74F4 
 296      6B7766A2 
 297 0ad2 77D0D05E 		.ascii	"w\320\320^]\352\203$\272\367\007:\372(\005\375\031\015"
ARM GAS  /tmp/ccLwiMZb.s 			page 23


 297      5DEA8324 
 297      BAF7073A 
 297      FA2805FD 
 297      190D
 298 0ae4 EDD3A53E 		.ascii	"\355\323\245>F\242\027\367\322\321\013\373g\242?\247"
 298      46A217F7 
 298      D2D10BFB 
 298      67A23FA7 
 299 0af4 A10B74A9 		.ascii	"\241\013t\251\217\223\350\326\025{\251\350.\012\272"
 299      8F93E8D6 
 299      157BA9E8 
 299      2E0ABA
 300 0b03 9D862ED4 		.ascii	"\235\206.\324\321'H\364\321\325t\364\252\001\231\350"
 300      D12748F4 
 300      D1D574F4 
 300      AA0199E8 
 301 0b13 7D347411 		.ascii	"}4t\021\276\320\346_\323\344\376\235\036\000g\036\312"
 301      BED0E65F 
 301      D3E4FE9D 
 301      1E00671E 
 301      CA
 302 0b24 E9938EA9 		.ascii	"\351\223\216\251Vk\226\365\373\200e-\264\335\263\252"
 302      566B96F5 
 302      FB80652D 
 302      B4DDB3AA 
 303 0b34 75D0B2D6 		.ascii	"u\320\262\326\245,\265\016\351\265\324\33169\032\005"
 303      A52CB50E 
 303      E9B5D4D9 
 303      36391A05 
 304 0b44 EAD7F47F 		.ascii	"\352\327\364\177\014\356\257\325\341\324:\207\035/2"
 304      0CEEAFD5 
 304      E1D43A87 
 304      1D2F32
 305 0b53 472C1619 		.ascii	"G,\026\031\226l\272\330\324\362(\255\234G\345t8n\371"
 305      966CBAD8 
 305      D4F228AD 
 305      9C47E574 
 305      386EF9
 306 0b66 A845CBF9 		.ascii	"\250E\313\371j\313\2304=\353\311#\370\022>v\310}\216"
 306      6ACB9834 
 306      3DEBC923 
 306      F8123E76 
 306      C87D8E
 307 0b79 480B2DF3 		.ascii	"H\013-\3635\324\037\030\375\365\342\373\227\243\312"
 307      35D41F18 
 307      FDF5E2FB 
 307      97A3CA
 308 0b88 0BE2E32E 		.ascii	"\013\342\343.t\332\364\255\311\021sr\220P\247\314!\352"
 308      74DAF4AD 
 308      C9117372 
 308      9050A7CC 
 308      21EA
 309 0b9a BCCE22F4 		.ascii	"\274\316\"\364\217$\247r\007\2513\246\313ovjg@\307\\"
 309      8F24A772 
 309      07A933A6 
 309      CB6F766A 
 309      6740C75C 
ARM GAS  /tmp/ccLwiMZb.s 			page 24


 310 0bae C8B2DF63 		.ascii	"\310\262\337c\021N\365-J\005\336[\2358\252S`7\034\303"
 310      114EF52D 
 310      4A05DE5B 
 310      9D38AA53 
 310      60371CC3 
 311 0bc2 8A0958B3 		.ascii	"\212\011X\263\021&\015\264\001\263\2127\001\266\310"
 311      11260DB4 
 311      01B38A37 
 311      01B6C8
 312 0bd1 087BC931 		.ascii	"\010{\3111\214\224l\211\0216\333\016\314\352_\310\000"
 312      8C946C89 
 312      1136DB0E 
 312      CCEA5FC8 
 312      00
 313 0be2 B6CC087B 		.ascii	"\266\314\010{\3151\214\224l\235\021\326d\007f\365\217"
 313      CD318C94 
 313      6C9D11D6 
 313      640766F5 
 313      8F
 314 0bf3 5600DB60 		.ascii	"V\000\333`\204-p\014#%\373\330\010[j\007Vl-\331&#\354"
 314      842D700C 
 314      2325FBD8 
 314      085B6A07 
 314      566C2DD9 
 315 0c0a 6DC73052 		.ascii	"m\3070R\262\315F\330;v`VG\310\000\373\324\010{\3171"
 315      B2CD46D8 
 315      3B766056 
 315      47C800FB 
 315      D4087BCF 
 316 0c1f 8C946CAB 		.ascii	"\214\224l\253\021\366\221\035X\211\225d\365\362\366"
 316      11F6911D 
 316      58899564 
 316      F5F2F6
 317 0c2e DF37F2C6 		.ascii	"\3377\362\306P\032Q\265i\305\264\3635\026[\305Z\026"
 317      501A51B5 
 317      69C5B4F3 
 317      35165BC5 
 317      5A16
 318 0c40 83BDADE3 		.ascii	"\203\275\255\343\231\370\252\305L\254\037\021\032K\241"
 318      99F8AAC5 
 318      4CAC1F11 
 318      1A4BA1
 319 0c4f 7F5B3077 		.ascii	"\177[0w\233\224\202\326oR\211\207\215J\334dG\211\243"
 319      9B9482D6 
 319      6F528987 
 319      8D4ADC64 
 319      4789A3
 320 0c62 AD611D46 		.ascii	"\255a\035F\330\026;\260g\254}\345\230\021\266\3031\214"
 320      D8163BB0 
 320      67AC7DE5 
 320      9811B6C3 
 320      318C
 321 0c74 94EC8411 		.ascii	"\224\354\204\021\266\323\016l\234\265d\247\214\260\335"
 321      B6D30E6C 
 321      9CB564A7 
 321      8CB0DD
 322 0c83 8E6146C9 		.ascii	"\216aF\311\352\345\323\272\343\241\237\240\020\2367"
ARM GAS  /tmp/ccLwiMZb.s 			page 25


 322      EAE5D3BA 
 322      E3A19FA0 
 322      109E37
 323 0c92 9A9C6D89 		.ascii	"\232\234m\211b\006\3173\025\343\331\227\334\3329\246"
 323      6206CF33 
 323      15E3D997 
 323      DCDA39A6 
 324 0ca2 165498BF 		.ascii	"\026T\230\277r\314\001\263\334\004E\275|\201\242\004"
 324      72CC01B3 
 324      DC0445BD 
 324      7C81A204 
 325 0cb2 DAC7B8D2 		.ascii	"\332\307\270\322\362\354_\3601\303i|\020\360W\234\237"
 325      F2EC5FF0 
 325      31C3697C 
 325      10F0579C 
 325      9F
 326 0cc3 C1790AE7 		.ascii	"\301y\012\347gq\376%\316\317\341\374<\316/\340\374["
 326      6771FE25 
 326      CECFE1FC 
 326      3CCE2FE0 
 326      FC5B
 327 0cd5 9C5FC4F9 		.ascii	"\234_\304\371%\234_\306\371w8\277\206\363\3538\277\211"
 327      259C5FC6 
 327      F97738BF 
 327      86F3EB38 
 327      BF89
 328 0ce7 F35E9CD7 		.ascii	"\363^\234\327\273Q>\335m8t0\305w\307\263\034/\314t\247"
 328      BB513EDD 
 328      6D387430 
 328      C577C7B3 
 328      1C2FCC74 
 329 0cfc E33B74C0 		.ascii	"\343;t\300/_J\035\333\364\303\343\332o\340\206(\277"
 329      2F5F4A1D 
 329      DBF4C3E3 
 329      DA6FE086 
 329      28BF
 330 0d0e F2E298EE 		.ascii	"\362\342\230\356\201\346P\230\372\273\256Y\356\254\277"
 330      81E65098 
 330      FABBAE59 
 330      EEACBF
 331 0d1d EB7AC59D 		.ascii	"\353z\305\235\361F\001\032\\\374\351\345\377\376\000"
 331      F146011A 
 331      5CFCE9E5 
 331      FFFE00
 332 0d2c FD2641BA 		.ascii	"\375&A\272\325\373b\375\014V\373\215\333\352A\3246%"
 332      D5FB62FD 
 332      0C56FB8D 
 332      DBEA41D4 
 332      3625
 333 0d3e F2376EAF 		.ascii	"\3627n\257\272M\277q\233Cmd\321\305\303\213\330\246"
 333      BA4DBF71 
 333      9B436D64 
 333      D1C5C38B 
 333      D8A6
 334 0d50 E992F20A 		.ascii	"\351\222\362\012%\351\325\032Yo\253\221\327\315\215"
 334      25E9D51A 
 334      596FAB91 
ARM GAS  /tmp/ccLwiMZb.s 			page 26


 334      D7CD8D
 335 0d5f BC416DE4 		.ascii	"\274Am\344\352\226\313\317\\\323{2\304\376\373\221\271"
 335      EA96CBCF 
 335      5CD37B32 
 335      C4FEFB91 
 335      B9
 336 0d70 6ED3FB91 		.ascii	"n\323\373\221U\231\357G\376N\210\252\236-\337\034\244"
 336      5599EF47 
 336      FE4E88AA 
 336      9E2DDF1C 
 336      A4
 337 0d81 C6C83F67 		.ascii	"\306\310?gVH\322\\\351\310\256\242FV\373\001\347\253"
 337      5648D25C 
 337      E9C8AEA2 
 337      4656FB01 
 337      E7AB
 338 0d93 77A11A4D 		.ascii	"w\241\032M\026FI\277\012W{\334]?np\272\307M\346\036"
 338      164649BF 
 338      0A577BDC 
 338      5D3F6E70 
 338      BAC74DE6 
 339 0da8 CFA7F6F8 		.ascii	"\317\247\366\370\370\246\263\277n#l\247\370K\323]\266"
 339      F8A6B3BF 
 339      6E236CA7 
 339      F84BD35D 
 339      B6
 340 0db9 FC655176 		.ascii	"\374eQv\177YLm\263\371\213\275\367g8\350\011{\015.\315"
 340      7F594C6D 
 340      B3F98BBD 
 340      F76738E8 
 340      097B0D2E 
 341 0dce DEE0326A 		.ascii	"\336\3402j\203\037\177}\372\341\214\006\223w\333j0\231"
 341      831F7F7D 
 341      FAE18C06 
 341      9377DB6A 
 341      3099
 342 0de0 BDC1E516 		.ascii	"\275\301\345\026#\242\243\2326\"6\322\33349\353\012"
 342      23A2A39A 
 342      362236D2 
 342      DB3439EB 
 342      0A
 343 0df1 B3E9565A 		.ascii	"\263\351VZ\215\210\245\264\021\261\303V#\357\230\033"
 343      8D88A5B4 
 343      11B1C356 
 343      23EF981B 
 344 0e01 594D36C2 		.ascii	"YM6\302\374b\3300\177yuhB\350w\225\376X\302\037\027"
 344      FC62D830 
 344      7F797568 
 344      42E87795 
 344      FE58C21F 
 345 0e16 FDA16830 		.ascii	"\375\241h0\\[%\370\203\325\211i\011qZ\215\220\030V\315"
 345      5C5B25F8 
 345      83D58969 
 345      09715A8D 
 345      901856CD 
 346 0e2a F8D07528 		.ascii	"\370\320u(\"\004\304\374\247\177\373|q9\223\360G'\342"
 346      2204C4FC 
ARM GAS  /tmp/ccLwiMZb.s 			page 27


 346      A77FFB7C 
 346      713993F0 
 346      4727E2
 347 0e3d 34D25F1D 		.ascii	"4\322_\035\213\010\376\270\220\020\370x\260\332_\315"
 347      8B08FEB8 
 347      9010F878 
 347      B0DA5FCD 
 348 0e4d C7ABEAF8 		.ascii	"\307\253\352\370\270\340\347\343\2212\377\244`p(\\\014"
 348      B8E0E7E3 
 348      9132FFA4 
 348      6070285C 
 348      0C
 349 0e5e 15221384 		.ascii	"\025\"\023\204\252*\241*}#\032\213\012C\005~Bh\350\210"
 349      AA2AA12A 
 349      7D231A8B 
 349      0A43057E 
 349      4268E888 
 350 0e72 C0A8A165 		.ascii	"\300\250\241e%\245#\376X\346'\036\244\005I\210U\241"
 350      25A523FE 
 350      58E6271E 
 350      A4054988 
 350      55A1
 351 0e84 A8084278 		.ascii	"\250\010Bxk\341\357\360\262\2008\235\375\347\265\036"
 351      6BE1EFF0 
 351      B280389D 
 351      FDE7B51E 
 352 0e94 E183D5A1 		.ascii	"\341\203\325\241\250\340\017T\011\023\371\332\260\030"
 352      A8E00F54 
 352      0913F9DA 
 352      B018
 353 0ea2 D0545210 		.ascii	"\320TR\020\010h\362\374\312\240DQH\210H\215\211Xm<("
 353      0868F2FC 
 353      CAA04451 
 353      4888488D 
 353      89586D3C 
 354 0eb7 285F5116 		.ascii	"(_Q\026\210\307b\342\260 s\017\376\"\012\361H(\312\213"
 354      88C762E2 
 354      B020730F 
 354      FE220AF1 
 354      4828CA8B 
 355 0ecb A0D0EAB8 		.ascii	"\240\320\352\270\300W%\006\340\333u|H\324\356\3643\334"
 355      C0572506 
 355      E0DB757C 
 355      48D4EEF4 
 355      33DC
 356 0edd 0905273F 		.ascii	"\011\005'?\224\305Pj\015\244\"\3452 \372\202\325*\350"
 356      94C5506A 
 356      0DA422E5 
 356      3220FA82 
 356      D52AE8
 357 0ef0 C16C160E 		.ascii	"\301l\026\016VWA\255;U@\340\217\265B-\210\324?]Y\275"
 357      565741AD 
 357      3B5540E0 
 357      8FB5422D 
 357      88D43F5D 
 358 0f06 E58E0A53 		.ascii	"\345\216\012SEwM\\\230\222\207\277\377;\311\014\306"
 358      45774D5C 
ARM GAS  /tmp/ccLwiMZb.s 			page 28


 358      989287BF 
 358      FF3BC90C 
 358      C6
 359 0f17 229158D4 		.ascii	"\"\221X\324_\023\213\213\011\377\223\025c\313\307NE"
 359      5F138B8B 
 359      09FF9315 
 359      63CBC74E 
 359      45
 360 0f28 F76A4261 		.ascii	"\367jBa!\236\360?]^\216dT\325\346\021k\342\241X\000"
 360      219EF03F 
 360      5D5E8E64 
 360      54D5E611 
 360      6BE2A158 
 361 0f3d D142B122 		.ascii	"\321B\261\"T%\020\214EE\340\377\312\006\264:\030\213"
 361      5425108C 
 361      4545E0FF 
 361      CA06B43A 
 361      188B
 362 0f4f 0B4029C4 		.ascii	"\013@)\304\025A\375Aq\252\337n\275\300\224G#HGqa\022"
 362      1541FD41 
 362      71AADF6E 
 362      BDC09447 
 362      23484771 
 363 0f65 D83A2072 		.ascii	"\330: r\361\021\\|$\027\177\204\213?\312\305Gq\361\307"
 363      F1115C7C 
 363      24177F84 
 363      8B3FCAC5 
 363      4771F1C7 
 364 0f79 5CF1D212 		.ascii	"\\\361\322\022H\245\\8\316%j\\\000\317\213\012uB</\026"
 364      48A55C38 
 364      CE256A5C 
 364      00CF8B0A 
 364      75423C2F 
 365 0f8e AE12E2EE 		.ascii	"\256\022\342\356 \270\227;\312G\204\202\2048\231\017"
 365      20B8973B 
 365      CA478482 
 365      8438990F 
 366 0f9e 8726     		.ascii	"\207&"
 367 0fa0 45032276 		.ascii	"E\003\"v\312GF\004D\325\037\320e~\035?\201O\010^1!b"
 367      CA474604 
 367      44D51FD0 
 367      657E1D3F 
 367      814F085E 
 368 0fb7 137BD083 		.ascii	"\023{\320\203Q`\024\245\010\\\345\341'\0361\022\253"
 368      516014A5 
 368      085CE5E1 
 368      271E3112 
 368      AB
 369 0fc8 82E77913 		.ascii	"\202\347y\023\303\374\244\204G\214\013\023\023\240\031"
 369      C3FCA484 
 369      478C0B13 
 369      13A019
 370 0fd7 F4272F92 		.ascii	"\364'/\222\230\004\025U\007\203\212\352U~\274j\032<"
 370      98041555 
 370      07838AEA 
 370      557EBC6A 
 370      1A3C
ARM GAS  /tmp/ccLwiMZb.s 			page 29


 371 0fe9 F20A5343 		.ascii	"\362\012SCb\020*\347\327\211\261\011\377S3P\265;T\025"
 371      62102AE7 
 371      D789B109 
 371      FF533350 
 371      B53B5415 
 372 0ffd E24234   		.ascii	"\342B4"
 373 1000 88A075A2 		.ascii	"\210\240u\242\030\257\361$\204\250\010\025\212\300\244"
 373      18AFF124 
 373      84A80815 
 373      8AC0A4
 374 100f 0921C2D7 		.ascii	"\011!\302\327T\203\"\206ds\011\001\351(/\030\005\267"
 374      54832286 
 374      64730901 
 374      E9282F18 
 374      05B7
 375 1021 73410E0D 		.ascii	"sA\016\015\300\255\032/\324\217\324\202\231\262\325"
 375      C0AD1A2F 
 375      D48FD482 
 375      99B2D5
 376 1030 8D885351 		.ascii	"\215\210SQ\335X]T\210{pi\244\013\021n\327\024\012S\220"
 376      DD585D54 
 376      887B7069 
 376      A40B116E 
 376      D7140A53 
 377 1045 207C6232 		.ascii	" |b2\334\022\352\320\005[\333Os\262p\010\215\211;\015"
 377      DC12EAD0 
 377      055BDB4F 
 377      73B27008 
 377      8D893B0D 
 378 1059 6E87EE78 		.ascii	"n\207\356x\220\363\207\242\223\274 ?v;\257P#Da2\230"
 378      90F387A2 
 378      93BC203F 
 378      763BAF50 
 378      23446132 
 379 106e E401242A 		.ascii	"\344\001$*\001\246\344\303\310\221\362\"5\261X\270_"
 379      01A6E4C3 
 379      C891F222 
 379      35B158B8 
 379      5F
 380 107f B07A7C75 		.ascii	"\260z|u\325xml\371\360\327\377\004H\001\276\252\014"
 380      D5786D6C 
 380      F9F0D7FF 
 380      044801BE 
 380      AA0C
 381 1091 0B428D47 		.ascii	"\013B\215Gm\201\253\343\013\361\010\233P;\021t\346\301"
 381      6D81ABE3 
 381      0BF1089B 
 381      503B1174 
 381      E6C1
 382 10a3 E614AA7E 		.ascii	"\346\024\252~j\036\312\341\320\004?\222\013\256Q\337"
 382      6A1ECAE1 
 382      D0043F92 
 382      0BAE51DF 
 383 10b3 1282585B 		.ascii	"\022\202X[\343\025a\266\251\202nz\204\251B\020\372Y"
 383      E31561B6 
 383      A9826E7A 
 383      84A94210 
ARM GAS  /tmp/ccLwiMZb.s 			page 30


 383      FA59
 384 10c5 801E07C1 		.ascii	"\200\036\007\301\344\340\006\030\232\250\015\211B\377"
 384      E4E00618 
 384      9AA80D89 
 384      42FF
 385 10d3 6155BCC8 		.ascii	"aU\274\310\017\323o\014\2673O$\004\350+\262`II)\264"
 385      0FD36F0C 
 385      B7334F24 
 385      04E82BB2 
 385      60494929 
 386 10e8 3820E3A6 		.ascii	"8 \343\246SJ\031\215R\346\2242\234F\031\356\2242\202"
 386      534A198D 
 386      52E69432 
 386      9C4619EE 
 386      943282
 387 10fb 4619E194 		.ascii	"F\031\341\2242\222F\031\351\224\362\010\215\362\210"
 387      32924619 
 387      E994F208 
 387      8DF288
 388 110a 53CAA334 		.ascii	"S\312\2434\312\243N)\243h\224QN)\217\321(\2179\244\224"
 388      CAA34E29 
 388      A3689451 
 388      4E298FD1 
 388      288F39A4 
 389 111f 965028A5 		.ascii	"\226P(\245%N)4\337-u\352\273\2454\337--\033A\316A\325"
 389      254E2934 
 389      DF2D75EA 
 389      BBA534DF 
 389      2D2D1B41 
 390 1136 7C589DEE 		.ascii	"|X\235\356+\307\217\035^\346\177\356\2711\376\361\317"
 390      2BC78F1D 
 390      5EE67FEE 
 390      B931FEF1 
 390      CF
 391 1147 8E9D520A 		.ascii	"\216\235R\012\241C\004M\232!4\245\025\246\277\300\304"
 391      A143044D 
 391      9A2134A5 
 391      15A6BFC0 
 391      C4
 392 1158 565E510A 		.ascii	"V^Q\012\251\314]9\266\274\302=\346\331\247*\270\312"
 392      A9CC5D39 
 392      B6BCC23D 
 392      E6D9A72A 
 392      B8CA
 393 116a 0AD7534F 		.ascii	"\012\327SOW\344\225\227\217\255(\305y\231\273\274\374"
 393      57E49597 
 393      8FAD28C5 
 393      7999BBBC 
 393      FC
 394 117b A90A57F9 		.ascii	"\251\012W\371o\307\273\306U\226\273\236\254\250pU\224"
 394      6FC7BBC6 
 394      5596BB9E 
 394      ACA87055 
 394      94
 395 118c C377A8F0 		.ascii	"\303w\250\360\2331\343+\\cP\315\261OVp\277Sj\015\207"
 395      9B31E32B 
 395      5C6350CD 
ARM GAS  /tmp/ccLwiMZb.s 			page 31


 395      B14F5670 
 395      BF536A0D 
 396 11a1 F22F5414 		.ascii	"\362/T\024g\231\036\247\240\031d@\260\372?\306?-\210"
 396      67991EA7 
 396      A0196440 
 396      B0FA3FC6 
 396      3F2D88
 397 11b4 95105009 		.ascii	"\225\020P\011\221\361\020Se\235\215\247\341\350+X\015"
 397      91F11053 
 397      659D8DA7 
 397      E1E82B58 
 397      0D
 398 11c5 C59F8B05 		.ascii	"\305\237\213\005'\373\360\272\027\206\253\341\324U\017"
 398      27FBF0BA 
 398      1786ABE1 
 398      D4550F
 399 11d4 96517FF9 		.ascii	"\226Q\177\371\330\312g+uF$\021J\004 \360\001\316\035"
 399      D8CA672B 
 399      75462411 
 399      4A0420F0 
 399      01CE1D
 400 11e7 0150A318 		.ascii	"\001P\243\030\370\315\223\225O\215\253x\366\016>\\\307"
 400      F8CD9395 
 400      4F8DAB78 
 400      F60E3E5C 
 400      C7
 401 11f8 4F4BC0CA 		.ascii	"OK\300\312\022\206\000'o\012\037\256\025\006fH\367B"
 401      12860027 
 401      6F0A1FAE 
 401      15066648 
 401      F742
 402 120a A9EDE515 		.ascii	"\251\355\345\025\005\210qhf\020\026\022\177\013L\022"
 402      05887168 
 402      66101612 
 402      7F0B4C12 
 403 121a 94AB9176 		.ascii	"\224\253\221vM\006O\002`\356p\030\005&\003\225+L\011"
 403      4D064F02 
 403      60EE7018 
 403      05260395 
 403      2B4C09
 404 122d C66A214C 		.ascii	"\306j!L\210\027b]<\037E:P\242\200Z|\375\377\032\\\216"
 404      8817625D 
 404      3C1F453A 
 404      50A2805A 
 404      7CFDFF1A 
 405 1243 0C       		.ascii	"\014"
 406              		.text
 407              		.section	.gnu.lto_.symtab.b351366f209d4e36,"",%progbits
 408 0000 74657374 		.ascii	"test_terminate_threads\000\000\000\000\000\000\000\000"
 408      5F746572 
 408      6D696E61 
 408      74655F74 
 408      68726561 
 409 001e 00000000 		.ascii	"\000\000\000\000\253\000\000\000threads\000\000\000"
 409      AB000000 
 409      74687265 
 409      61647300 
ARM GAS  /tmp/ccLwiMZb.s 			page 32


 409      0000
 410 0030 00000000 		.ascii	"\000\000\000\000\000\000\000\000\000s\001\000\000te"
 410      00000000 
 410      00730100 
 410      007465
 411 003f 73745F77 		.ascii	"st_wait_threads\000\000\000\000\000\000\000\000\000"
 411      6169745F 
 411      74687265 
 411      61647300 
 411      00000000 
 412 0057 000000AF 		.ascii	"\000\000\000\257\000\000\000test_wait_tick\000\000\000"
 412      00000074 
 412      6573745F 
 412      77616974 
 412      5F746963 
 413 006f 00000000 		.ascii	"\000\000\000\000\000\000\000\000\000\262\000\000\000"
 413      00000000 
 413      00B20000 
 413      00
 414 007c 77610000 		.ascii	"wa\000\000\000\000\000\000\000\000\000\000\000\000w"
 414      00000000 
 414      00000000 
 414      000077
 415 008b 01000074 		.ascii	"\001\000\000test_buffer\000\000\000\000\000\000\000"
 415      6573745F 
 415      62756666 
 415      65720000 
 415      00000000 
 416 00a0 00000000 		.ascii	"\000\000\000\000\000\201\001\000\000test_suite\000\000"
 416      00810100 
 416      00746573 
 416      745F7375 
 416      69746500 
 417 00b5 00000000 		.ascii	"\000\000\000\000\000\000\000\000\000\000\216\001\000"
 417      00000000 
 417      00008E01 
 417      00
 418 00c2 00746573 		.ascii	"\000test_sequence_001\000\000\002\000\000\000\000\000"
 418      745F7365 
 418      7175656E 
 418      63655F30 
 418      30310000 
 419 00dc 00000000 		.ascii	"\000\000\000\000\251\001\000\000test_sequence_002\000"
 419      A9010000 
 419      74657374 
 419      5F736571 
 419      75656E63 
 420 00f6 00020000 		.ascii	"\000\002\000\000\000\000\000\000\000\000\000\254\001"
 420      00000000 
 420      000000AC 
 420      01
 421 0103 00007465 		.ascii	"\000\000test_sequence_003\000\000\002\000\000\000\000"
 421      73745F73 
 421      65717565 
 421      6E63655F 
 421      30303300 
 422 011d 00000000 		.ascii	"\000\000\000\000\000\257\001\000\000test_sequence_0"
ARM GAS  /tmp/ccLwiMZb.s 			page 33


 422      00AF0100 
 422      00746573 
 422      745F7365 
 422      7175656E 
 423 0135 30340000 		.ascii	"04\000\000\002\000\000\000\000\000\000\000\000\000\262"
 423      02000000 
 423      00000000 
 423      0000B2
 424 0144 01000074 		.ascii	"\001\000\000test_sequence_005\000\000\002\000\000\000"
 424      6573745F 
 424      73657175 
 424      656E6365 
 424      5F303035 
 425 015e 00000000 		.ascii	"\000\000\000\000\000\000\265\001\000\000test_sequen"
 425      0000B501 
 425      00007465 
 425      73745F73 
 425      65717565 
 426 0173 63655F30 		.ascii	"ce_006\000\000\002\000\000\000\000\000\000\000\000\000"
 426      30360000 
 426      02000000 
 426      00000000 
 426      0000
 427 0185 B8010000 		.ascii	"\270\001\000\000test_sequence_007\000\000\002\000\000"
 427      74657374 
 427      5F736571 
 427      75656E63 
 427      655F3030 
 428 019f 00000000 		.ascii	"\000\000\000\000\000\000\000\273\001\000\000test_se"
 428      000000BB 
 428      01000074 
 428      6573745F 
 428      7365
 429 01b1 7175656E 		.ascii	"quence_008\000\000\002\000\000\000\000\000\000\000\000"
 429      63655F30 
 429      30380000 
 429      02000000 
 429      00000000 
 430 01c6 00BE0100 		.ascii	"\000\276\001\000\000test_sequence_009\000\000\002\000"
 430      00746573 
 430      745F7365 
 430      7175656E 
 430      63655F30 
 431 01e0 00000000 		.ascii	"\000\000\000\000\000\000\000\000\301\001\000\000tes"
 431      00000000 
 431      C1010000 
 431      746573
 432 01ef 745F7365 		.ascii	"t_sequence_010\000\000\002\000\000\000\000\000\000\000"
 432      7175656E 
 432      63655F30 
 432      31300000 
 432      02000000 
 433 0207 0000C401 		.ascii	"\000\000\304\001\000\000test_sequence_011\000\000\002"
 433      00007465 
 433      73745F73 
 433      65717565 
 433      6E63655F 
ARM GAS  /tmp/ccLwiMZb.s 			page 34


 434 0221 00000000 		.ascii	"\000\000\000\000\000\000\000\000\000\307\001\000\000"
 434      00000000 
 434      00C70100 
 434      00
 435 022e 74657374 		.ascii	"test_sequence_012\000\000\002\000\000\000\000\000\000"
 435      5F736571 
 435      75656E63 
 435      655F3031 
 435      32000002 
 436 0248 000000CA 		.ascii	"\000\000\000\312\001\000\000chThdTerminate\000\000\002"
 436      01000063 
 436      68546864 
 436      5465726D 
 436      696E6174 
 437 0260 00000000 		.ascii	"\000\000\000\000\000\000\000\000\000\266\000\000\000"
 437      00000000 
 437      00B60000 
 437      00
 438 026d 63685468 		.ascii	"chThdWait\000\000\002\000\000\000\000\000\000\000\000"
 438      64576169 
 438      74000002 
 438      00000000 
 438      00000000 
 439 0281 006B0100 		.ascii	"\000k\001\000\000chThdSleep\000\000\002\000\000\000"
 439      00636854 
 439      6864536C 
 439      65657000 
 439      00020000 
 440 0296 00000000 		.ascii	"\000\000\000\000\000\000o\001\000\000"
 440      00006F01 
 440      0000
 441              		.text
 442              		.section	.gnu.lto_.opts,"",%progbits
 443 0000 272D6D63 		.ascii	"'-mcpu=cortex-m4' '-mno-thumb-interwork' '-mthumb' "
 443      70753D63 
 443      6F727465 
 443      782D6D34 
 443      2720272D 
 444 0033 272D6767 		.ascii	"'-ggdb' '-O2' '-fomit-frame-pointer' '-falign-funct"
 444      64622720 
 444      272D4F32 
 444      2720272D 
 444      666F6D69 
 445 0066 696F6E73 		.ascii	"ions=16' '-ffunction-sections' '-fdata-sections' '-"
 445      3D313627 
 445      20272D66 
 445      66756E63 
 445      74696F6E 
 446 0099 666E6F2D 		.ascii	"fno-common' '-flto'\000"
 446      636F6D6D 
 446      6F6E2720 
 446      272D666C 
 446      746F2700 
 447              		.text
 448              		.cfi_sections	.debug_frame
 449              		.section	.text.test_terminate_threads,"ax",%progbits
 450              		.align	2
ARM GAS  /tmp/ccLwiMZb.s 			page 35


 451              		.p2align 4,,15
 452              		.global	test_terminate_threads
 453              		.thumb
 454              		.thumb_func
 455              		.type	test_terminate_threads, %function
 456              	test_terminate_threads:
 457              	.LFB270:
 458              		.file 1 "../ChibiOS/test/rt/source/test/test_root.c"
 459              		.loc 1 115 0
 460              		.cfi_startproc
 461              		@ args = 0, pretend = 0, frame = 0
 462              		@ frame_needed = 0, uses_anonymous_args = 0
 463              	.LVL0:
 464 0000 38B5     		push	{r3, r4, r5, lr}
 465              		.cfi_def_cfa_offset 16
 466              		.cfi_offset 3, -16
 467              		.cfi_offset 4, -12
 468              		.cfi_offset 5, -8
 469              		.cfi_offset 14, -4
 470 0002 064C     		ldr	r4, .L9
 471 0004 04F11405 		add	r5, r4, #20
 472              	.LVL1:
 473              	.L4:
 474              		.loc 1 119 0
 475 0008 54F8043F 		ldr	r3, [r4, #4]!
 476              		.loc 1 120 0
 477 000c 1846     		mov	r0, r3
 478              		.loc 1 119 0
 479 000e 0BB1     		cbz	r3, .L2
 480              		.loc 1 120 0
 481 0010 FFF7FEFF 		bl	chThdTerminate
 482              	.LVL2:
 483              	.L2:
 484              		.loc 1 118 0
 485 0014 AC42     		cmp	r4, r5
 486 0016 F7D1     		bne	.L4
 487              		.loc 1 121 0
 488 0018 38BD     		pop	{r3, r4, r5, pc}
 489              	.L10:
 490 001a 00BF     		.align	2
 491              	.L9:
 492 001c FCFFFFFF 		.word	.LANCHOR0-4
 493              		.cfi_endproc
 494              	.LFE270:
 495              		.size	test_terminate_threads, .-test_terminate_threads
 496              		.section	.text.test_wait_threads,"ax",%progbits
 497              		.align	2
 498              		.p2align 4,,15
 499              		.global	test_wait_threads
 500              		.thumb
 501              		.thumb_func
 502              		.type	test_wait_threads, %function
 503              	test_wait_threads:
 504              	.LFB271:
 505              		.loc 1 126 0
 506              		.cfi_startproc
 507              		@ args = 0, pretend = 0, frame = 0
ARM GAS  /tmp/ccLwiMZb.s 			page 36


 508              		@ frame_needed = 0, uses_anonymous_args = 0
 509              	.LVL3:
 510 0000 70B5     		push	{r4, r5, r6, lr}
 511              		.cfi_def_cfa_offset 16
 512              		.cfi_offset 4, -16
 513              		.cfi_offset 5, -12
 514              		.cfi_offset 6, -8
 515              		.cfi_offset 14, -4
 516 0002 074C     		ldr	r4, .L18
 517              		.loc 1 132 0
 518 0004 0026     		movs	r6, #0
 519 0006 04F11405 		add	r5, r4, #20
 520              	.LVL4:
 521              	.L14:
 522              		.loc 1 130 0
 523 000a 54F8043B 		ldr	r3, [r4], #4
 524              		.loc 1 131 0
 525 000e 1846     		mov	r0, r3
 526              		.loc 1 130 0
 527 0010 1BB1     		cbz	r3, .L12
 528              		.loc 1 131 0
 529 0012 FFF7FEFF 		bl	chThdWait
 530              	.LVL5:
 531              		.loc 1 132 0
 532 0016 44F8046C 		str	r6, [r4, #-4]
 533              	.L12:
 534              		.loc 1 129 0
 535 001a AC42     		cmp	r4, r5
 536 001c F5D1     		bne	.L14
 537              		.loc 1 134 0
 538 001e 70BD     		pop	{r4, r5, r6, pc}
 539              	.L19:
 540              		.align	2
 541              	.L18:
 542 0020 00000000 		.word	.LANCHOR0
 543              		.cfi_endproc
 544              	.LFE271:
 545              		.size	test_wait_threads, .-test_wait_threads
 546 0024 AFF30080 		.section	.text.test_wait_tick,"ax",%progbits
 546      AFF30080 
 546      AFF30080 
 547              		.align	2
 548              		.p2align 4,,15
 549              		.global	test_wait_tick
 550              		.thumb
 551              		.thumb_func
 552              		.type	test_wait_tick, %function
 553              	test_wait_tick:
 554              	.LFB272:
 555              		.loc 1 139 0
 556              		.cfi_startproc
 557              		@ args = 0, pretend = 0, frame = 0
 558              		@ frame_needed = 0, uses_anonymous_args = 0
 559 0000 08B5     		push	{r3, lr}
 560              		.cfi_def_cfa_offset 8
 561              		.cfi_offset 3, -8
 562              		.cfi_offset 14, -4
ARM GAS  /tmp/ccLwiMZb.s 			page 37


 563              		.loc 1 141 0
 564 0002 0120     		movs	r0, #1
 565 0004 FFF7FEFF 		bl	chThdSleep
 566              	.LVL6:
 567              	.LBB50:
 568              	.LBB51:
 569              	.LBB52:
 570              	.LBB53:
 571              	.LBB54:
 572              	.LBB55:
 573              		.file 2 "../ChibiOS/os/common/ext/CMSIS/include/cmsis_gcc.h"
 574              		.loc 2 264 0
 575 0008 2023     		movs	r3, #32
 576              	@ 264 "../ChibiOS/os/common/ext/CMSIS/include/cmsis_gcc.h" 1
 577 000a 83F31188 		MSR basepri, r3
 578              	@ 0 "" 2
 579              		.thumb
 580              	.LBE55:
 581              	.LBE54:
 582              	.LBE53:
 583              	.LBE52:
 584              	.LBB56:
 585              	.LBB57:
 586              	.LBB58:
 587              	.LBB59:
 588              		.file 3 "../ChibiOS/os/hal/ports/STM32/LLD/TIMv1/hal_st_lld.h"
 589              		.loc 3 141 0
 590 000e 4FF08042 		mov	r2, #1073741824
 591              	.LBE59:
 592              	.LBE58:
 593              	.LBE57:
 594              	.LBE56:
 595              	.LBB63:
 596              	.LBB64:
 597              	.LBB65:
 598              	.LBB66:
 599              	.LBB67:
 600              		.loc 2 264 0
 601 0012 0023     		movs	r3, #0
 602              	.LBE67:
 603              	.LBE66:
 604              	.LBE65:
 605              	.LBE64:
 606              	.LBE63:
 607              	.LBB72:
 608              	.LBB62:
 609              	.LBB61:
 610              	.LBB60:
 611              		.loc 3 141 0
 612 0014 506A     		ldr	r0, [r2, #36]
 613              	.LVL7:
 614              	.LBE60:
 615              	.LBE61:
 616              	.LBE62:
 617              	.LBE72:
 618              	.LBB73:
 619              	.LBB71:
ARM GAS  /tmp/ccLwiMZb.s 			page 38


 620              	.LBB70:
 621              	.LBB69:
 622              	.LBB68:
 623              		.loc 2 264 0
 624              	@ 264 "../ChibiOS/os/common/ext/CMSIS/include/cmsis_gcc.h" 1
 625 0016 83F31188 		MSR basepri, r3
 626              	@ 0 "" 2
 627              		.thumb
 628              	.LBE68:
 629              	.LBE69:
 630              	.LBE70:
 631              	.LBE71:
 632              	.LBE73:
 633              	.LBE51:
 634              	.LBE50:
 635              		.loc 1 143 0
 636 001a 08BD     		pop	{r3, pc}
 637              		.cfi_endproc
 638              	.LFE272:
 639              		.size	test_wait_tick, .-test_wait_tick
 640              		.global	wa
 641              		.global	threads
 642              		.global	test_buffer
 643              		.global	test_suite
 644 001c AFF30080 		.section	.bss.test_buffer,"aw",%nobits
 645              		.align	3
 646              		.type	test_buffer, %object
 647              		.size	test_buffer, 1640
 648              	test_buffer:
 649 0000 00000000 		.space	1640
 649      00000000 
 649      00000000 
 649      00000000 
 649      00000000 
 650              		.section	.data.test_suite,"aw",%progbits
 651              		.align	2
 652              		.type	test_suite, %object
 653              		.size	test_suite, 52
 654              	test_suite:
 655 0000 00000000 		.word	test_sequence_001
 656 0004 00000000 		.word	test_sequence_002
 657 0008 00000000 		.word	test_sequence_003
 658 000c 00000000 		.word	test_sequence_004
 659 0010 00000000 		.word	test_sequence_005
 660 0014 00000000 		.word	test_sequence_006
 661 0018 00000000 		.word	test_sequence_007
 662 001c 00000000 		.word	test_sequence_008
 663 0020 00000000 		.word	test_sequence_009
 664 0024 00000000 		.word	test_sequence_010
 665 0028 00000000 		.word	test_sequence_011
 666 002c 00000000 		.word	test_sequence_012
 667 0030 00000000 		.word	0
 668              		.section	.rodata.wa,"a",%progbits
 669              		.align	2
 670              		.type	wa, %object
 671              		.size	wa, 20
 672              	wa:
ARM GAS  /tmp/ccLwiMZb.s 			page 39


 673 0000 00000000 		.word	test_buffer
 674 0004 48010000 		.word	test_buffer+328
 675 0008 90020000 		.word	test_buffer+656
 676 000c D8030000 		.word	test_buffer+984
 677 0010 20050000 		.word	test_buffer+1312
 678              		.section	.bss.threads,"aw",%nobits
 679              		.align	2
 680              		.set	.LANCHOR0,. + 0
 681              		.type	threads, %object
 682              		.size	threads, 20
 683              	threads:
 684 0000 00000000 		.space	20
 684      00000000 
 684      00000000 
 684      00000000 
 684      00000000 
 685              		.text
 686              	.Letext0:
 687              		.file 4 "/nfs/nfs5/home/research/hardware/arm2/gcc-arm-embedded/gcc-arm-none-eabi-4_8-2014q2/lib/g
 688              		.file 5 "/nfs/nfs5/home/research/hardware/arm2/gcc-arm-embedded/gcc-arm-none-eabi-4_8-2014q2/arm-n
 689              		.file 6 "/nfs/nfs5/home/research/hardware/arm2/gcc-arm-embedded/gcc-arm-none-eabi-4_8-2014q2/arm-n
 690              		.file 7 "../ChibiOS/os/common/ports/ARMCMx/compilers/GCC/chtypes.h"
 691              		.file 8 "../ChibiOS/os/rt/include/chsystypes.h"
 692              		.file 9 "../ChibiOS/os/rt/include/chschd.h"
 693              		.file 10 "../ChibiOS/os/common/ports/ARMCMx/chcore.h"
 694              		.file 11 "../ChibiOS/os/common/ports/ARMCMx/chcore_v7m.h"
 695              		.file 12 "../ChibiOS/os/hal/ports/STM32/LLD/TIMv1/stm32_tim.h"
 696              		.file 13 "../ChibiOS/os/rt/include/chtm.h"
 697              		.file 14 "../ChibiOS/os/rt/include/chsem.h"
 698              		.file 15 "../ChibiOS/os/rt/include/chmtx.h"
 699              		.file 16 "../ChibiOS/test/lib/ch_test.h"
 700              		.file 17 "../ChibiOS/os/common/ports/ARMCMx/chcore_timer.h"
 701              		.file 18 "../ChibiOS/os/rt/include/chsys.h"
 702              		.file 19 "../ChibiOS/os/rt/include/chvt.h"
 703              		.file 20 "../ChibiOS/os/common/ext/CMSIS/include/core_cm4.h"
 704              		.file 21 "../ChibiOS/test/rt/source/test/test_sequence_001.h"
 705              		.file 22 "../ChibiOS/test/rt/source/test/test_sequence_002.h"
 706              		.file 23 "../ChibiOS/test/rt/source/test/test_sequence_003.h"
 707              		.file 24 "../ChibiOS/test/rt/source/test/test_sequence_004.h"
 708              		.file 25 "../ChibiOS/test/rt/source/test/test_sequence_005.h"
 709              		.file 26 "../ChibiOS/test/rt/source/test/test_sequence_006.h"
 710              		.file 27 "../ChibiOS/test/rt/source/test/test_sequence_007.h"
 711              		.file 28 "../ChibiOS/test/rt/source/test/test_sequence_008.h"
 712              		.file 29 "../ChibiOS/test/rt/source/test/test_sequence_009.h"
 713              		.file 30 "../ChibiOS/test/rt/source/test/test_sequence_010.h"
 714              		.file 31 "../ChibiOS/test/rt/source/test/test_sequence_011.h"
 715              		.file 32 "../ChibiOS/test/rt/source/test/test_sequence_012.h"
 716              		.file 33 "../ChibiOS/os/rt/include/chthreads.h"