ARM GAS  /tmp/ccJfAsKX.s 			page 1


   1              		.syntax unified
   2              		.cpu cortex-m4
   3              		.fpu softvfp
   4              		.eabi_attribute 20, 1
   5              		.eabi_attribute 21, 1
   6              		.eabi_attribute 23, 3
   7              		.eabi_attribute 24, 1
   8              		.eabi_attribute 25, 1
   9              		.eabi_attribute 26, 1
  10              		.eabi_attribute 30, 2
  11              		.eabi_attribute 34, 1
  12              		.eabi_attribute 18, 4
  13              		.thumb
  14              		.file	"test_sequence_006.c"
  15              		.text
  16              	.Ltext0:
  17              		.section	.gnu.lto_.jmpfuncs.32806d33e24948ba,"",%progbits
  18 0000 789C6362 		.ascii	"x\234cb`b\300\006\326\000\261\004\020\003e\231\230\252"
  18      6062C006 
  18      D600B104 
  18      10036599 
  18      98AA
  19 0012 197E35CC 		.ascii	"\031~5\314h\020\310dd\220c`\234\3330\303!\223\221\021"
  19      6810C864 
  19      64906360 
  19      9CDB30C3 
  19      21939111 
  20 0026 AC0A21C3 		.ascii	"\254\012!\303$\307\300\016\221a\206\030\300\310\000"
  20      24C7C00E 
  20      91618618 
  20      C0C800
  21 0035 359915C8 		.ascii	"5\231\025\310\210`\314dd9\301\004\327\322\001\322\302"
  21      8860CC64 
  21      6439C104 
  21      D7D201D2 
  21      C2
  22 0046 9ACC08B5 		.ascii	"\232\314\010\265\214\205\221\011\244\253\014\252\222"
  22      8C859109 
  22      A4AB0CAA 
  22      92
  23 0053 CD05C840 		.ascii	"\315\005\310@\021pF\027pB\027p\004\331\344\350\344\354"
  23      11704617 
  23      70421770 
  23      04D9E4E8 
  23      E4EC
  24 0065 C2209899 		.ascii	"\302 \230\231W\226\230\223\231\242P\234ZX\232\232\227"
  24      57969893 
  24      99A2509C 
  24      5A589A9A 
  24      97
  25 0076 9CCA0000 		.ascii	"\234\312\000\000\333\023 \013"
  25      DB13200B 
  26              		.text
  27              		.section	.gnu.lto_.inline.32806d33e24948ba,"",%progbits
  28 0000 789C6362 		.ascii	"x\234cb`b\300\006\312\2414PV\341$##\003\223\330\205"
  28      6062C006 
  28      CAA13450 
ARM GAS  /tmp/ccJfAsKX.s 			page 2


  28      56E12423 
  28      230393D8 
  29 0015 366606B6 		.ascii	"6f\006\266\005\362`\345\314<`\031F.\220\012nF\006\306"
  29      05F260E5 
  29      CC3C6019 
  29      462E900A 
  29      6E4606C6 
  30 0029 097ECC3C 		.ascii	"\011~\314<@E\023\374&\370\201\370\014\354\002\014\014"
  30      404513FC 
  30      26F881F8 
  30      0CEC020C 
  30      0C
  31 003a AC13FC18 		.ascii	"\254\023\374\030\300\210\205\201\337\210\021l\017\212"
  31      C0888581 
  31      DF88116C 
  31      0F8A
  32 0048 7EA01C2E 		.ascii	"~\240\034.\232\001\000ot\016\007"
  32      9A01006F 
  32      740E07
  33              		.text
  34              		.section	.gnu.lto_.pureconst.32806d33e24948ba,"",%progbits
  35 0000 789C6362 		.ascii	"x\234cb`b`e\200\000&\006I\026\011\000\001\007\000A"
  35      60626065 
  35      80002606 
  35      49160900 
  35      01070041 
  36              		.text
  37              		.section	.gnu.lto_test_006_001_execute.32806d33e24948ba,"",%progbits
  38 0000 789C9554 		.ascii	"x\234\225TQhTW\020\235\271\357\275\315f\263q]\233h\264"
  38      51685457 
  38      109DB9EF 
  38      BDCD66B3 
  38      715D9B68 
  39 0015 1AA3D59F 		.ascii	"\032\243\325\237Jw\205\212\020*\242\325\377~\250\240"
  39      4A77858A 
  39      102AA2D5 
  39      FF7EA8A0 
  40 0025 5FB2BE2C 		.ascii	"_\262\276,\233\013\331\330f7\376\370\341M6V?\264]\374"
  40      9B0BD9D8 
  40      6637FEF8 
  40      E14D3656 
  40      3FB45DFC 
  41 0039 4A15451B 		.ascii	"J\025E\033b\241\226\252-\242\010\352J@V\242\306|(*\005"
  41      62A196AA 
  41      2DA208EA 
  41      4A4056A2 
  41      C67C282A 
  42 004e 172D6D51 		.ascii	"\027-mQ\220\342OD\304u\346\336w_\323\246(.\354}\363"
  42      90E24F44 
  42      C475E6DE 
  42      775FD3A6 
  42      282EEC7D 
  43 0063 E6CE39F7 		.ascii	"\346\3169\367\314\314\235'@\300\177\177k\350?'\002p"
  43      CCCC9D27 
  43      40C07F7F 
  43      6BE83F27 
  43      0270
ARM GAS  /tmp/ccJfAsKX.s 			page 3


  44 0075 8C9E1801 		.ascii	"\214\236\030\001\024\345[\000\003Q\201\2561\034c\\\215"
  44      14E55B00 
  44      035181AE 
  44      311C635C 
  44      8D
  45 0086 BAC2A9AC 		.ascii	"\272\302\251\254\005\025\363n'@\305=Dv\003\302\036\341"
  45      0515F36E 
  45      2740C53D 
  45      447603C2 
  45      1EE1
  46 0098 B81EEED9 		.ascii	"\270\036\356\331\206\314&\226\302\011\245\016\325F\377"
  46      86CC2696 
  46      C209A50E 
  46      D546FF
  47 00a7 FC0BBF53 		.ascii	"\374\013\277S\225\241\343\352U\275\216(\221N^\215\340"
  47      95A1E3EA 
  47      55BD8E28 
  47      914E5E8D 
  47      E0
  48 00b8 236CA517 		.ascii	"#l\245\027\354\320\017\341\376[\212\301V\246\276\376"
  48      ECD00FE1 
  48      FE5B8AC1 
  48      56A6BEFE 
  49 00c8 76BE3A3E 		.ascii	"v\276:>XV\257\011*\321\021\320\371.\344iQ\251\325\353"
  49      5856AF09 
  49      2AD111D0 
  49      F92EE469 
  49      51A9D5EB 
  50 00dc 377EAD3D 		.ascii	"7~\255=\272\205\311\271\010\031\034\301\245\340\201"
  50      BA85C9B9 
  50      08191CC1 
  50      A5E081
  51 00eb 4437428B 		.ascii	"D7B\213\027\245\005\342\344>A\356fz\211$hiH\006\201"
  51      17A505E2 
  51      E43E41EE 
  51      667A8924 
  51      68694806 
  52 0100 2DBCDD4A 		.ascii	"-\274\335JK\224\270<\030R\252\334ab\265\244r\345\322"
  52      4B94B83C 
  52      1852AADC 
  52      6162B5A4 
  52      72E5D2
  53 0113 B503D325 		.ascii	"\265\003\323%5\012\370\354]\222\200\367\351\267\231"
  53      350AF8EC 
  53      5D9280F7 
  53      E9B799
  54 0122 56AAD816 		.ascii	"V\252\330\026\024\364pn\302\340\205\013O\33228\212\036"
  54      14F4706E 
  54      C2E0850B 
  54      4FDA3238 
  54      8A1E
  55 0134 1C81C303 		.ascii	"\034\201\303\003J\315\246\024w\303K\265\237\255X^\203"
  55      4ACDA614 
  55      77C34BB5 
  55      9FAD585E 
  55      83
  56 0145 983006D6 		.ascii	"\2300\006\326r\330G\310\337^<\271\347\032h\016\275O"
ARM GAS  /tmp/ccJfAsKX.s 			page 4


  56      72D847C8 
  56      DF5E3CB9 
  56      E71A680E 
  56      BD4F
  57 0157 E0274634 		.ascii	"\340'F41K\231\2558\263\014\263\325\234G\014\260\315"
  57      314B99AD 
  57      38B30CB3 
  57      D59C470C 
  57      B0CD
  58 0169 21CBAC69 		.ascii	"!\313\254i\322\210\354\301\253\207wW\005\271\332\244"
  58      D288ECC1 
  58      AB877757 
  58      05B9DAA4 
  59 0179 D5A993E9 		.ascii	"\325\251\223\351\260\000\326\250\214\337\231L\022\235"
  59      B000D6A8 
  59      8CDF994C 
  59      129D
  60 0187 39D8D7CC 		.ascii	"9\330\327\314\364\3207)\207-+\340G\245T\255~n\364c*"
  60      F4D03729 
  60      872D2BE0 
  60      47A554AD 
  60      7E6EF463 
  61 019c A279539D 		.ascii	"\242yS\235\022\023av\263\303\354\222y\015c5I\255c\007"
  61      12136176 
  61      B3C3EC92 
  61      790D6335 
  61      49AD6307 
  62 01b0 9365F067 		.ascii	"\223e\360g\"&\033C\333(\274\367\313\202\014\236\326"
  62      22261B43 
  62      DB28BCF7 
  62      CB820C9E 
  62      D6
  63 01c1 D9B606C4 		.ascii	"\331\266\006\304\005\352QH<\207\216g.\010\270\004\343"
  63      05EA5148 
  63      3C878E67 
  63      2E08B804 
  63      E3
  64 01d2 CF587C69 		.ascii	"\317X|i\377\330\370\235\263\215\266^\021\"\341`\217"
  64      FFD8F89D 
  64      B38DB65E 
  64      1122E160 
  64      8F
  65 01e3 C327A0CD 		.ascii	"\303'\240\315\372\243\241\272\017|t\300d\345\351\262"
  65      FAA3A1BA 
  65      0F7C74C0 
  65      64E5E9B2 
  66 01f3 5705E378 		.ascii	"W\005\343x?*\261\305\307\240\366\234\265\304V\255\361"
  66      3F2AB1C5 
  66      C7A0F69C 
  66      B5C456AD 
  66      F1
  67 0204 7A39669C 		.ascii	"z9f\234\334\015\223\370?m\235\033R\317\313kjf\235\367"
  67      DC0D93F8 
  67      3F6D9D1B 
  67      52CFCB6B 
  67      6A669DF7 
  68 0218 3F0DC9F1 		.ascii	"?\015\311\361\305\323W\343\331\373^\015\256\347u\030"
ARM GAS  /tmp/ccJfAsKX.s 			page 5


  68      C5D357E3 
  68      D9FB5E0D 
  68      AEE77518 
  69 0228 AC5D2A35 		.ascii	"\254]*5\204\027\227\257\264\355\2276\330\241\243\355"
  69      841797AF 
  69      B4ED9736 
  69      D8A1A3ED 
  70 0238 815BC8AC 		.ascii	"\201[\310\254\254u&\240T\273<\026\311\340e]\212xxV\233"
  70      AC7526A0 
  70      54BB3C16 
  70      C9E0655D 
  70      8A787856 
  71 024d 6FA03412 		.ascii	"o\2404\022\363\231_\230\0203\023\024\250\325^\334;u"
  71      F3995F98 
  71      10331314 
  71      A8D55EDC 
  71      3B75
  72 025f 60118B6F 		.ascii	"`\021\213o&\265<\025\264\241\333\261\314\034\302\262"
  72      26B53C15 
  72      B4A1DBB1 
  72      CC1CC2B2 
  73 026f AE3C0ED8 		.ascii	"\256<\016\330\363\350j\0349\243v\322kG\366\375>\211"
  73      F3E86A1C 
  73      39A376D2 
  73      6B47F6FD 
  73      3E89
  74 0281 874AAAAA 		.ascii	"\207J\252\252\206*4X\213%O\356\367\324\307\267\217\026"
  74      862A3458 
  74      8B254FEE 
  74      F7D4C7B7 
  74      8F16
  75 0293 7169A2BF 		.ascii	"qi\242\277\237\237\357\261\302N\352\234\271\263{k\325"
  75      9F9FEFB1 
  75      C24EEA9C 
  75      B9B37B6B 
  75      D5
  76 02a4 C731E306 		.ascii	"\3071\343\006\0103Z\340\323\307\315\324:N\212%~\250"
  76      08335AE0 
  76      D3C7CDD4 
  76      3A4E8A25 
  76      7EA8
  77 02b6 73785AFA 		.ascii	"sxZ\372\341\233\224\315?\221\343q\231\000w\006z\241"
  77      E19B94CD 
  77      3F91E371 
  77      99007706 
  77      7AA1
  78 02c8 8F0D013A 		.ascii	"\217\015\001:!q\221\271^\245\251\203\235\026\232\314"
  78      217191B9 
  78      5EA5A983 
  78      9D169ACC 
  79 02d8 2186A33A 		.ascii	"!\206\243:\255^#\272^I[u\027\350\243\351\230\032\330"
  79      AD5E23BA 
  79      5E495B75 
  79      17E8A3E9 
  79      981AD8
  80 02eb 4D425461 		.ascii	"MBTa\350\217\201&\313e\210\302^\301}\300\240y\242\352"
  80      E88F8126 
ARM GAS  /tmp/ccJfAsKX.s 			page 6


  80      CB6588C2 
  80      5EC17DC0 
  80      A079A2EA 
  81 02ff 109933DC 		.ascii	"\020\2313\334\300\\\036\177O\270\203\343cM3\004\267"
  81      C05C1E7F 
  81      4FB883E3 
  81      634D3304 
  81      B7
  82 0310 FBFA5BC6 		.ascii	"\373\372[\306\015\\l\212rc\004gDu\370\330\250\243\330"
  82      0D5C6C8A 
  82      72630467 
  82      4475F8D8 
  82      A8A3D8
  83 0323 D3267149 		.ascii	"\323&qI;\354\303\243jx\235$eAt\260\365Q;\034\014\266"
  83      3BECC3A3 
  83      6A789D24 
  83      654174B0 
  83      F5513B1C 
  84 0339 96D92D89 		.ascii	"\226\331-\211\313\001&!\3445\277\315\224\321\355\004"
  84      CB012621 
  84      E435BFCD 
  84      94D1ED04 
  85 0349 DFCB4F53 		.ascii	"\337\313OS\251\364\206n\271C~\261)]\314\026\212\351"
  85      A9F4866E 
  85      B9437EB1 
  85      295DCC16 
  85      8AE9
  86 035b BE62BAB0 		.ascii	"\276b\272\260\263\277\317\317\232W^\266\027\262_\365"
  86      B3BFCFCF 
  86      9A575EB6 
  86      17B25FF5 
  87 036b 677BFDEC 		.ascii	"g{\375\354\366\225+W\247|\020\305/Q:\371Bn\3714\360"
  87      F6952B57 
  87      A77C10C5 
  87      2F513AF9 
  87      426EF934 
  88 0380 CE024365 		.ascii	"\316\002Ce\257\337\323\337\225M\373\335\305\356\276"
  88      AFDFD3DF 
  88      954DFBDD 
  88      C5EEBE
  89 038f 6CA6AB90 		.ascii	"l\246\253\220\352\206%o\211\"\022\212\360\326\177\276"
  89      EA86256F 
  89      8922128A 
  89      F0D67FBE 
  90 039f 61232465 		.ascii	"a#$e\357\256L\217\354\352\260\307\301\033\036&\236\370"
  90      EFAE4C8F 
  90      ECEAB0C7 
  90      C11B1E26 
  90      9EF8
  91              		.text
  92              		.section	.gnu.lto_msg_thread1.32806d33e24948ba,"",%progbits
  93 0000 789C6362 		.ascii	"x\234cb`b@\007\222@,\304\310\300`\012\244\031\231\031"
  93      60624007 
  93      92402CC4 
  93      C8C0600A 
  93      A4199919 
  94 0014 1899269C 		.ascii	"\030\231&\234c`h\344`bd\0041\030\030\031\352\231\030"
ARM GAS  /tmp/ccJfAsKX.s 			page 7


  94      636068E4 
  94      60626404 
  94      31181819 
  94      EA9918
  95 0027 EB2319C1 		.ascii	"\353#\031\301j\3273\035x\360\377\377\272+[\037U0\262"
  95      6AD7331D 
  95      78F0FFFF 
  95      BA2B5B1F 
  95      5530B2
  96 003a 3331E682 		.ascii	"31\346\202EY\031Z\032\032&(00$\203\271!@\022\2443\224"
  96      4559195A 
  96      1A1A2628 
  96      30302483 
  96      B9214012 
  97 0051 91094433 		.ascii	"\221\011D3\237gh}\360\306\"\221q!#+P\266\232\341WCG"
  97      9F67687D 
  97      F0C62291 
  97      7121232B 
  97      50B69AE1 
  98 0068 83402623 		.ascii	"\203@&#P5\304\314tF\246\010\306LFFG\206L\240\016\006"
  98      5035C4CC 
  98      7446A608 
  98      C64C4646 
  98      47864CA0 
  99 007e A0F205B9 		.ascii	"\240\362\005\271\204U;!T\347\021V\355\214P\235OX\265"
  99      84553B21 
  99      54E71156 
  99      ED8C509D 
  99      4F58B5
 100 0091 0B44F545 		.ascii	"\013D\365E\206\306\007?\230`\312! \004\250\024\350)"
 100      86C6073F 
 100      9860CA21 
 100      2004A814 
 100      E829
 101 00a3 50281AEB 		.ascii	"P(\032\353\351\351;gd&e\372\007\353\227\244\026\227"
 101      E9E93B67 
 101      642665FA 
 101      07EB97A4 
 101      1697
 102 00b5 E81795E8 		.ascii	"\350\027\225\350\027\347\227\026%\247B\270 \"\2768\265"
 102      17E79716 
 102      25A742B8 
 102      2022BE38 
 102      B5
 103 00c6 B034352F 		.ascii	"\26045/95\336\300\300L/\231\001\000H>Q\002"
 103      3935DEC0 
 103      C04C2F99 
 103      0100483E 
 103      5102
 104              		.text
 105              		.section	.gnu.lto_.symbol_nodes.32806d33e24948ba,"",%progbits
 106 0000 789C4DCA 		.ascii	"x\234M\312K\012\3020\024\205\341\223\223D\353s\013\256"
 106      4B0AC230 
 106      1485E193 
 106      9344EB73 
 106      0BAE
 107 0012 CD8D780B 		.ascii	"\315\215x\013\202\242\202V\353\333\316\262\224\316]"
ARM GAS  /tmp/ccJfAsKX.s 			page 8


 107      82A28256 
 107      EBDBCEB2 
 107      94CE5D
 108 0021 8352872E 		.ascii	"\203R\207.A\304\004\2131\223/?\367\020\304\013\365\343"
 108      41C4048B 
 108      31932F3F 
 108      F710C40B 
 108      F5E3
 109 0033 8AA2905D 		.ascii	"\212\242\220]\001\221b6\264\033\372\037lN\025(H\017"
 109      01916236 
 109      B41BFA1F 
 109      6C4E1528 
 109      480F
 110 0045 9714FC6D 		.ascii	"\227\024\374mv\324\341\270\246\261\236\214\326\210V"
 110      76D4E1B8 
 110      A6B19E8C 
 110      D68856
 111 0054 670ABF9B 		.ascii	"g\012\277\2334U\352D\321\261\216\024\023\353@\261\261"
 111      3455EA44 
 111      D1B18E14 
 111      13EB40B1 
 111      B1
 112 0065 F69446AC 		.ascii	"\366\224F\254-\245\031\353BI~\245\321\203\273\277\275"
 112      2DA519EB 
 112      42497EA5 
 112      D183BBBF 
 112      BD
 113 0076 5DB8C963 		.ascii	"]\270\311c\244\321A5\015\266\341\346\301\026\312\305"
 113      A4D14135 
 113      0DB6E1E6 
 113      C116CAC5 
 114 0086 73A091A0 		.ascii	"s\240\221\240\012\232>\3067\277\367\272\332\262\266"
 114      0A9A3EC6 
 114      37BFF7BA 
 114      DAB2B6
 115 0095 F2E20367 		.ascii	"\362\342\003g\016G\261"
 115      0E47B1
 116              		.text
 117              		.section	.gnu.lto_.refs.32806d33e24948ba,"",%progbits
 118 0000 789C6362 		.ascii	"x\234cb`b\020g\200\0006\006FF \227\231\211\205\221\225"
 118      60621067 
 118      80003606 
 118      46462097 
 118      99898591 
 119 0015 9191918D 		.ascii	"\221\221\221\215\211\235\221\235\211\201\001\000\005"
 119      899D919D 
 119      89810100 
 119      05
 120 0022 C70051   		.ascii	"\307\000Q"
 121              		.text
 122              		.section	.gnu.lto_.decls.32806d33e24948ba,"",%progbits
 123 0000 789CBD5B 		.ascii	"x\234\275[{t\024U\232\277U\335\235\356\206\220\200\212"
 123      7B741455 
 123      9ABF55DD 
 123      9DEE8690 
 123      808A
 124 0012 0B0EA3D1 		.ascii	"\013\016\243\321\035gg\207\003\015\016\243\314\2343"
ARM GAS  /tmp/ccJfAsKX.s 			page 9


 124      1D676787 
 124      030D0EA3 
 124      CC9C33
 125 0021 CA2C7B8E 		.ascii	"\312,{\216\343\236uw\317\260s\326\331=sz\213N\221\364"
 125      E39E7577 
 125      CFB073D6 
 125      D93D737A 
 125      8B4E91F4 
 126 0035 9A74B7D5 		.ascii	"\232t\267\325\025\036\263\177X$\210\3100\030\302+<\002"
 126      151EB37F 
 126      582488C8 
 126      3018C22B 
 126      3C02
 127 0047 4190970A 		.ascii	"A\220\227\012\002J\214\313\243AG\003(\206\360\212\""
 127      024A8CCB 
 127      A3414703 
 127      2886F08A 
 127      22
 128 0058 D22A8F08 		.ascii	"\322*\217\010+\0060\013\014j\366\273\337\255\252\256"
 128      2B06300B 
 128      0C6AF6BB 
 128      DFADAAAE 
 129 0068 AAAEEAAE 		.ascii	"\252\256\352\256\016:u\316\275]u\353\336\337\375\356"
 129      0E3A75CE 
 129      BD5D75EB 
 129      DEDFFDEE 
 130 0078 FD7EF7BB 		.ascii	"\375~\367\273\337\275\267\232'<y\205#\244\027\256\324"
 130      DFBDB79A 
 130      273C7985 
 130      23A417AE 
 130      D4
 131 0089 8384F40F 		.ascii	"\203\204\364\017\020\342!\204\300-\361CX\005\3419\010"
 131      10E22184 
 131      C02DF143 
 131      5805E139 
 131      08
 132 009a EB20AC87 		.ascii	"\353 \254\207\340\203\260\021\302&\302\256 \204\026"
 132      E083B011 
 132      C226C2AE 
 132      208416
 133 00a9 083B20A4 		.ascii	"\010; \244 \034\200\360.\204C\020\236\004\334Z\010\365"
 133      201C80F0 
 133      2E844310 
 133      9E04DC5A 
 133      08F5
 134 00bb 108AE079 		.ascii	"\020\212\340y!\374.\206\260\034\302E\010\227 \004yb"
 134      21FC2E86 
 134      B01CC245 
 134      08972004 
 134      7962
 135 00cd BA28CE0F 		.ascii	"\272(\316\017!\034\201P\002\241X\255\363!U\036\212\263"
 135      211C8150 
 135      02A158AD 
 135      F321551E 
 135      8AB3
 136 00df 1A42972A 		.ascii	"\032B\227*\303-P~\011\3404B\270\025\356\275\220\266"
 136      C32D507E 
ARM GAS  /tmp/ccJfAsKX.s 			page 10


 136      09E03442 
 136      B815EEBD 
 136      90B6
 137 00f1 06EE9B20 		.ascii	"\006\356\233 \334\006\317G\341y0\317d\256\203\264/ "
 137      DC06CF47 
 137      E17930CF 
 137      64AE83B4 
 137      2F20
 138 0103 DC0ECF7F 		.ascii	"\334\016\317\177\005A\201\373!\360\333\001\357\206\302"
 138      054181FB 
 138      21F0DB01 
 138      EF86C2
 139 0112 EF41F8BD 		.ascii	"\357A\370\275\001i;\341\367\016>\273\355{\010\353\233"
 139      01693BE1 
 139      F70E3EBB 
 139      ED7B08EB 
 139      9B
 140 0123 D5906733 		.ascii	"\325\220g3\204sp\337O\225\371{\220\377.\236\265\267"
 140      847370DF 
 140      4F95F97B 
 140      90FF2E9E 
 140      B5B7
 141 0135 456DFB21 		.ascii	"Em\373!\265/\016\250}\343\263\351\203{,\355oQ\353\370"
 141      B52F0EA8 
 141      7DE3B3E9 
 141      837B2CED 
 141      6F51EBF8 
 142 0149 6B9EB56F 		.ascii	"k\236\265o\036\307\322y\365\035\355K\232\324j.F\372"
 142      1EC7D279 
 142      F51DED4B 
 142      9AD46A2E 
 142      46FA
 143 015b 93D98A52 		.ascii	"\223\331\212R\2534\317T~\325V2\210\324+p\2255\226\004"
 143      AB34CF54 
 143      7ED55632 
 143      88D42B70 
 143      95359604 
 144 016f C92C9A9C 		.ascii	"\311,\232\234~^\0312\204\220\3078\201\203\244\000\336"
 144      7E5E1932 
 144      8490C738 
 144      8183A400 
 144      DE
 145 0180 140711E8 		.ascii	"\024\007\021\350^\262\006\262B~^\340VsA\250\210\347"
 145      5EB206B2 
 145      427E5EE0 
 145      567341A8 
 145      88E7
 146 0192 88EDC5DE 		.ascii	"\210\355\305\336\323\213\026g\367\332]/\247\243\377"
 146      D38B1667 
 146      F7DA5D2F 
 146      A7A3FF
 147 01a1 4843F7A9 		.ascii	"HC\367\251\245\236\343\006\251T\231E\245b\"b\016\265"
 147      A59EE306 
 147      A9549945 
 147      A5622262 
 147      0EB5
 148 01b3 449956C2 		.ascii	"D\231V\302\253\226Xk\250\2478\230\271\361\252\2228\225"
ARM GAS  /tmp/ccJfAsKX.s 			page 11


 148      AB96586B 
 148      A8A73898 
 148      B9F1AA92 
 148      3895
 149 01c5 5BC5F5CF 		.ascii	"[\305\365\317\323\037LZ\265\374,N\003\030\244\002\254"
 149      D31F4C5A 
 149      B5FC2C4E 
 149      0318A402 
 149      AC
 150 01d6 2F58D40D 		.ascii	"/X\324\015\016\242\016\314#\352:\007Qo'\013\325\232"
 150      0EA20ECC 
 150      23EA3A07 
 150      516F270B 
 150      D59A
 151 01e8 154E16B8 		.ascii	"\025N\026\270\007\007;\"\274\300\335\216w\036\344\006"
 151      07073B22 
 151      BCC0DD8E 
 151      771EE406 
 152 01f8 243CD41F 		.ascii	"$<\324\037\242\337xt}9\025\334\010U\377\230l`Z\377\304"
 152      A2DF7874 
 152      7D3915DC 
 152      0855FF98 
 152      6C605AFF 
 153 020d 46D9A6D6 		.ascii	"F\331\246\326\333\343 k\352\323;\327\314\371\205\242"
 153      DBE3206B 
 153      EAD33BD7 
 153      CCF985A2 
 154 021d 04046E13 		.ascii	"\004\004n\0232\347\021\016\340_\342~\\(N\363\356\267"
 154      32E7110E 
 154      E05FE27E 
 154      5C284EF3 
 154      EEB7
 155 022f 062B5E81 		.ascii	"\006+^\201\333\202(op}\204I\267\034l\031\213\342\274"
 155      DB82286F 
 155      707D8449 
 155      B71C6C19 
 155      8BE2BC
 156 0242 8240EDBC 		.ascii	"\202@\355\274\031H\340\212\202fB\303\263\226\201\242"
 156      1948E08A 
 156      826642C3 
 156      B39681A2 
 157 0252 C123ADE9 		.ascii	"\301#\255\351\0325\206\334\223j\012}\360\223\277x\271"
 157      1A3586DC 
 157      936A0A7D 
 157      F093BF78 
 157      B9
 158 0263 BBC80A25 		.ascii	"\273\310\012%\325\235\356Y\364\352\220%Jj\206\322\333"
 158      D59DEE59 
 158      F4EA9025 
 158      4A6A86D2 
 158      DB
 159 0274 FBA4AA74 		.ascii	"\373\244\252t\236\314\365\230\033\366\003\262ZQ\032"
 159      9ECCF598 
 159      1BF603B2 
 159      5A511A
 160 0283 94AD8A12 		.ascii	"\224\255\212\022D\032\360d)\346h\341\356\262\355.\314"
 160      441AF064 
ARM GAS  /tmp/ccJfAsKX.s 			page 12


 160      29E668E1 
 160      EEB2ED2E 
 160      CC
 161 0294 44A8A17D 		.ascii	"D\250\241}\236\326\257\254W<H5\242\2261\311\374\032"
 161      9ED6AFAC 
 161      573C4835 
 161      A29631C9 
 161      FC1A
 162 02a6 6732514C 		.ascii	"g2QL\256T\353[s\207*\315\265\251\336\336\207\210{\316"
 162      AE54EB5B 
 162      73872ACD 
 162      B5A9DEDE 
 162      87887BCE 
 163 02ba EE54399B 		.ascii	"\356T9\233\341)O\226[\032c/\326\016\253X\273\262\305"
 163      E1294F96 
 163      5B1A632F 
 163      D60EAB58 
 163      BBB2C5
 164 02cd 4AD7A70F 		.ascii	"J\327\247\017\2378W\313\315\253knS\272{{K\315\222\005"
 164      9F3857CB 
 164      CDAB6B6E 
 164      53BA7B7B 
 164      4BCD9205 
 165 02e1 C8D3680B 		.ascii	"\310\323h\013\237R\246sO\3447\206{\271\000\345\220\307"
 165      9F52A673 
 165      4FE43786 
 165      7BB900E5 
 165      90C7
 166 02f3 D11AD20C 		.ascii	"\321\032\322\014D\325$\273\327\3568\347\301\267\307"
 166      44D524BB 
 166      D7EE38E7 
 166      C1B7C7
 167 0302 3C6A4D63 		.ascii	"<jMc\337d\234\262J\276\225\261\030v\205uK\237\032\322"
 167      DF649CB2 
 167      4ABE95B1 
 167      18768575 
 167      4B9F1AD2 
 168 0316 5862DF3A 		.ascii	"Xb\337:\201[\303\335\353\326\214g\325\337\226\251\337"
 168      815BC3DD 
 168      EBD68C67 
 168      D5DF96A9 
 168      DF
 169 0327 A44154E2 		.ascii	"\244AT\342\261,%\262L\373m\265\324z\352#a\211\262W#"
 169      B12C25B2 
 169      4CFB6DB5 
 169      D47AEA23 
 169      6189B257 
 170 033c F54E2475 		.ascii	"\365N$u\243\327\036\342\035{E/\373\302Q\3219)x\320j"
 170      A3D71EE2 
 170      1D7B452F 
 170      FBC251D1 
 170      392978D0 
 171 0351 3669BB2D 		.ascii	"6i\273-\255\331\350 J\273\255(_~\332\355\327[\343^\220"
 171      ADD9E820 
 171      4ABBAD28 
 171      5F7EDAED 
 171      D75BE35E 
ARM GAS  /tmp/ccJfAsKX.s 			page 13


 172 0366 8E1C4CB8 		.ascii	"\216\034L\270\205\314\303\011\313`\357\232\275\032\300"
 172      85CCC309 
 172      CB60EF9A 
 172      BD1AC0
 173 0375 DF13DDE0 		.ascii	"\337\023\335\340]?{m\035W\007U\011\334Q\356\026\000"
 173      5D3F7B6D 
 173      1D570755 
 173      09DC51EE 
 173      1600
 174 0387 AAF39925 		.ascii	"\252\363\231%\317\013\304\2239X\244\023\212\263\202"
 174      CF0BC493 
 174      3958A413 
 174      8AB382
 175 0396 6C0CA44F 		.ascii	"l\014\244O\236o\037\336\250(\003\331+b\323\037\352u"
 175      9E6F1FDE 
 175      A82803D9 
 175      2B62D31F 
 175      EA75
 176 03a8 376986FC 		.ascii	"7i\206\374\251\253\373\227sJ\363^\316\246\306qZ\205"
 176      A9ABFB97 
 176      734AF35E 
 176      CEA6C671 
 176      5A85
 177 03ba 01A3E4A9 		.ascii	"\001\243\344\251;\366!\374\207(x\253\275\340\315\343"
 177      3BF621FC 
 177      872878AB 
 177      BDE0CDE3 
 178 03ca 9C7078B2 		.ascii	"\234px\262\017\213\234\312\026\374\332\3372\301O\271"
 178      0F8B9CCA 
 178      16FCDADF 
 178      32C14FB9 
 179 03da 10BC3675 		.ascii	"\020\2746uhv\323P*\270\300\035\341\250\351\374@\207"
 179      6876D350 
 179      2AB8C01D 
 179      E1A8E9FC 
 179      4087
 180 03ec B5D39C3E 		.ascii	"\265\323\234>\317\023\242\313e\306\353\330_\\/h`\247"
 180      CF13A2CB 
 180      65C6EBD8 
 180      5F5C2F68 
 180      60A7
 181 03fe 0A062BB3 		.ascii	"\012\006+\263\023U#`\246\261\002\3671\216\345O\270\273"
 181      13552360 
 181      A6B102F7 
 181      318EE54F 
 181      B8BB
 182 0410 213E0DB1 		.ascii	"!>\015\261~\361\344\264\256R\273\236\313\337\204\353"
 182      7EF1E4B4 
 182      AE52BB9E 
 182      CBDF84EB 
 183 0420 FB976397 		.ascii	"\373\227c\227\2506\305\215#\320\254:\002]8\363\236\367"
 183      A836C58D 
 183      23D0AC3A 
 183      025D38F3 
 183      9EF7
 184 0432 D94CE1AE 		.ascii	"\331L\341\256\200v\317\374\323\036\256\026\031}\001"
 184      8076CFFC 
ARM GAS  /tmp/ccJfAsKX.s 			page 14


 184      D31EAE16 
 184      197D01
 185 0441 A12EF719 		.ascii	"\241.\367\031\252e\356\216\237\241L\027\021\350\206"
 185      AA65EE8E 
 185      9FA14C17 
 185      11E886
 186 0450 CFEA0DF8 		.ascii	"\317\352\015\370-\336\200\337<;\373\203\231\033:)\227"
 186      2DDE80DF 
 186      3C3BFB83 
 186      991B3A29 
 186      97
 187 0461 92EF383B 		.ascii	"\222\3578;Of\026Y\024gG\227\314\254cQ\234\222\376\360"
 187      4F661659 
 187      14674797 
 187      CCAC6351 
 187      9C92FEF0 
 188 0475 7CD770EA 		.ascii	"|\327p\352-x\264\341S\344\324G<\371\003\326u\305:|."
 188      2D78B4E1 
 188      53E4D447 
 188      3CF903D6 
 188      75C53A7C 
 189 048a 5D6E5387 		.ascii	"]nS\207\317\025W\303\347\325\375\213\221+y\355\027\257"
 189      CF1557C3 
 189      E7D5FD8B 
 189      912B79ED 
 189      17AF
 190 049c 55FF03AC 		.ascii	"U\377\003\254\376M\254\376\232\265\372C\377\327\366"
 190      FE4DACFE 
 190      9AB5FA43 
 190      FFD7F6
 191 04ab 1FACFA6B 		.ascii	"\037\254\372k\256\252o=\276 \273zG\273\2532\343\322"
 191      AEAA6F3D 
 191      BE20BB7A 
 191      47BBAB32 
 191      E3D2
 192 04bd E5AE612B 		.ascii	"\345\256a+\261\222\257p\224*~+5\0362\316u\232o\255g"
 192      B192AF70 
 192      942A7E2B 
 192      351E32CE 
 192      759A6FAD 
 193 04d2 E0C9337E 		.ascii	"\340\3113~M\372>\031\011hf\327\3576\200\277\366L\221"
 193      4DFA3E19 
 193      096866D7 
 193      EF3680BF 
 193      F64C91
 194 04e5 26C39C82 		.ascii	"&\303\234\202\021\313L\035\261\3438\232\035\006\366"
 194      11CB4C1D 
 194      B1E3389A 
 194      1D06F6
 195 04f4 AC1B3047 		.ascii	"\254\0330G\036\325\246v\031\301\032\012\0063K\326n\004"
 195      1ED5A676 
 195      19C11A0A 
 195      06334BD6 
 195      6E04
 196 0506 5BE8066C 		.ascii	"[\350\006l\240\263d\035F\260\306\202\301\314\222\035"
 196      A0B3641D 
 196      46B0C682 
ARM GAS  /tmp/ccJfAsKX.s 			page 15


 196      C1CC921D 
 197 0516 31822D73 		.ascii	"1\202-s\0036\304Y\262cF\260\225\005\203\231%\3534\202"
 197      0336C459 
 197      B26346B0 
 197      95058399 
 197      25EB3482 
 198 052a AD760356 		.ascii	"\255v\003Vf#\231~9\371 W3>\035O\326\3725\203P \247I"
 198      6623997E 
 198      39F92057 
 198      333E1D4F 
 198      D6FA3583 
 199 0542 066383BF 		.ascii	"\006c\203\277P\003fj7\235\274\207\277\256\216\0136\203"
 199      5003666A 
 199      379DBC87 
 199      BFAE8E0B 
 199      3683
 200 0554 BEE40631 		.ascii	"\276\344\0061\007a\352\017\030\246\343m\005\203\231"
 200      0761EA0F 
 200      18A6E36D 
 200      058399
 201 0563 D5B28281 		.ascii	"\325\262\202\201\265!X\253\033\260\034\204i\247`v>|"
 201      B52158AB 
 201      1BB01C84 
 201      69A76076 
 201      3E7C
 202 0575 6AA6328B 		.ascii	"j\2462\213\233\276eXN\007\012l\330\3677\242\015[\312"
 202      9BBE6558 
 202      4E070A6C 
 202      D8F737A2 
 202      0D5BCA
 203 0588 D3E96D97 		.ascii	"\323\351m\227\337v\236t\205\265{\346{\332\244\333\204"
 203      DF769E74 
 203      85B57BE6 
 203      7BDAA4DB 
 203      84
 204 0599 60FBFA0E 		.ascii	"`\373\372\016\326\334rp\030]\3137#PG\226e\015Z&\335"
 204      D6DC7270 
 204      185DCB37 
 204      23504796 
 204      650D5A26 
 205 05ae A0795A0C 		.ascii	"\240yZ\014\00637\275\332e^\202}\247e\234F\312\022\336"
 205      063337BD 
 205      DA655E82 
 205      7DA7659C 
 205      46CA12DE 
 206 05c2 30524E16 		.ascii	"0RN\026\254y3\313a\232\036\271XIM\367\030\266\347\234"
 206      AC7933CB 
 206      619A1EB9 
 206      58494DF7 
 206      18B6E79C 
 207 05d6 166D9A83 		.ascii	"\026m\232\203\365\345\005\017:3\317c\277\236\266W\220"
 207      F5E5050F 
 207      3A33CF63 
 207      BF9EB657 
 207      90
 208 05e7 0BA0DD33 		.ascii	"\013\240\3353_\032\216@\353\021\350\363>\003\265\314"
 208      5F1A8E40 
ARM GAS  /tmp/ccJfAsKX.s 			page 16


 208      EB11E8F3 
 208      3E03B5CC 
 209 05f7 5DC1365B 		.ascii	"]\3016[^@\240\236,Ms\026Msf\015\350\013Ou\335\371]\345"
 209      5E40A09E 
 209      2C4D7316 
 209      4D73660D 
 209      E80B4F75 
 210 060f E549AF55 		.ascii	"\345I\257U]\246\346\344\260\237\272Qj\013\265nR\224"
 210      5DA6E6E4 
 210      B09FBA51 
 210      6A0BB56E 
 210      5294
 211 0621 BAA202F4 		.ascii	"\272\242\002\364\325\255\352\353e\354\235\247\002\326"
 211      D5ADEAEB 
 211      65EC9DA7 
 211      02D6
 212 062f DEA1DD5F 		.ascii	"\336\241\335_X3\376\030(\264\031\001K3\272\013o\306"
 212      5833FE18 
 212      28B41901 
 212      4B33BA0B 
 212      6FC6
 213 0641 35B519AF 		.ascii	"5\265\031\257b3\346\177\013\315XVp3\006\032\232\201"
 213      6233E67F 
 213      0BCD5856 
 213      7033061A 
 213      9A81
 214 0653 EBBB475A 		.ascii	"\353\273GZq\212\270\2254\344vr\251<\257\363\267\232"
 214      718AB895 
 214      34E47672 
 214      A93CAFF3 
 214      B79A
 215 0665 3CCCD4D1 		.ascii	"<\314\324\321\203\\\031K\316\277\250\275rp\271\2726"
 215      835C194B 
 215      CEBFA8BD 
 215      7270B9BA 
 215      36
 216 0676 641B9CCD 		.ascii	"d\033\234\315(;-\333\027\267OI\325\277\207\363\007\003"
 216      283B2DDB 
 216      17B74F49 
 216      D5BF87F3 
 216      0703
 217 0688 5B775360 		.ascii	"[wS`\265\251\225\317j\013W\334\362{\371&\341v\274g\235"
 217      B5A995CF 
 217      6A0B57DC 
 217      F27BF926 
 217      E176BC67 
 218 069d 8E2C3EF5 		.ascii	"\216,>\365Q\007{\247\257\350\323C^\304\011\351M\236"
 218      51077BA7 
 218      AFE8D343 
 218      5EC409E9 
 218      4D9E
 219 06af CAD392C5 		.ascii	"\312\323\222\305\225#\234\305\253\246\011\206,N*|\303"
 219      95239CC5 
 219      ABA60986 
 219      2C4E2A7C 
 219      C3
 220 06c0 687BF7DF 		.ascii	"h{\367\337\234\012\200>\235\017\266\252\036\006\323"
ARM GAS  /tmp/ccJfAsKX.s 			page 17


 220      9C0A803E 
 220      9D0FB6AA 
 220      1E06D3
 221 06cf 43FB4D76 		.ascii	"C\373Mv\334uU\017\371V@\377\251a\025cC:\261\332wx\313"
 221      DC75550F 
 221      F95640FF 
 221      A9611563 
 221      433AB1DA 
 222 06e6 0268D9BA 		.ascii	"\002h\331\272\217g\252s1}\227\237\243'\316\004\225\206"
 222      8F67AA73 
 222      317D979F 
 222      A327CE04 
 222      9586
 223 06f8 62B68F22 		.ascii	"b\266\217\"pg9^E\265\233\242\3633\364#\261mT\001\373"
 223      7067395E 
 223      45B59BA2 
 223      F333F423 
 223      B16D5401 
 224 070d FFAFA8CB 		.ascii	"\377\257\250\313\376Ch\036\236\016ZU\276\305:\011\024"
 224      FE43681E 
 224      9E0E5A55 
 224      BEC53A09 
 224      14
 225 071e B0030E16 		.ascii	"\260\003\016\026/\310\231\033\343v\031\243_N\224:`\244"
 225      2FC8991B 
 225      E37619A3 
 225      5F4E943A 
 225      60A4
 226 0730 D4BCE04D 		.ascii	"\324\274\340M\021\000(\325\365+\346\264\346\243\200"
 226      110028D5 
 226      F52BE6B4 
 226      E6A380
 227 073f A29F380D 		.ascii	"\242\2378\015\304\232\033\261\346N+\007\346\277\260"
 227      C49A1BB1 
 227      E64E2B07 
 227      E6BFB0
 228 074e EF696E3A 		.ascii	"\357in:r\240\323\025\007zl8\320\331G\016\000\241?\333"
 228      72A0D315 
 228      077A6C38 
 228      D0D9470E 
 228      00A13FDB 
 229 0762 C7211C73 		.ascii	"\307!\034s\232\337\320\205,P\013*\334W@\251\302:\206"
 229      9ADFD085 
 229      2C500B2A 
 229      DC5740A9 
 229      C23A86
 230 0775 B12BF5FE 		.ascii	"\261+\365\376\031j\251\323<\335\037\334\227E-\3263\006"
 230      196AA9D3 
 230      3CDD1FDC 
 230      97452DD6 
 230      3306
 231 0787 6A65BA51 		.ascii	"je\272Q\340>\340\351\346\330\011\236n\216}\210\361G"
 231      E03EE0E9 
 231      E6D8099E 
 231      6E8E7D88 
 231      F147
 232 0799 BC618BCC 		.ascii	"\274a\213\314\211\026\2472\264\020\270O\255\335\350"
ARM GAS  /tmp/ccJfAsKX.s 			page 18


 232      8916A732 
 232      B410B84F 
 232      ADDDE8
 233 07a8 762D93B7 		.ascii	"v-\223\267\232\343F\366\035\272I\366\2013\371\010\356"
 233      9AE346F6 
 233      1DBA49F6 
 233      8133F908 
 233      EE
 234 07b9 F914B05B 		.ascii	"\371\024\260[\367\242:l\317\340\260\355\314\352\333"
 234      F7A23A6C 
 234      CFE0B0ED 
 234      CCEADB
 235 07c8 0BD661EB 		.ascii	"\013\326a\353f\363\352t"
 235      66F3EA74 
 236 07d0 5F1BA25F 		.ascii	"_\033\242_<\271\020t\341Y\227\331\364\271n\335\323\377"
 236      3CB91074 
 236      E15997D9 
 236      F4B96EDD 
 236      D3FF
 237 07e2 C0AC7BDE 		.ascii	"\300\254{\336\0350}\332j\033\332\206\323\326\005$\332"
 237      1D307DDA 
 237      6A1BDA86 
 237      D3D60524 
 237      DA
 238 07f3 E796CE70 		.ascii	"\347\226\316p\261\223\366\025\026\271h\035\305'\317"
 238      B193F615 
 238      16B9681D 
 238      C527CF
 239 0802 A7D49DB4 		.ascii	"\247\324\235\264\213.\006qmj\233i#Z\343\337\305\334"
 239      8B2E0671 
 239      6D6A9B69 
 239      235AE3DF 
 239      C5DC
 240 0814 FCCBD99F 		.ascii	"\374\313\331\237&\025^4\014\217n\034\036\227\214C\202"
 240      26155E34 
 240      0C8F6E1C 
 240      1E978C43 
 240      82
 241 0825 2773FAB9 		.ascii	"'s\372\271\350\373\0379\021\021\214P\007;\001\320\266"
 241      E8FB1F39 
 241      11118C50 
 241      073B01D0 
 241      B6
 242 0836 F41758F1 		.ascii	"\364\027X\361\354\314\220\011\317\250KX\271\037Fg\211"
 242      ECCC9009 
 242      CFA84B58 
 242      B91F4667 
 242      89
 243 0847 71B4C98D 		.ascii	"q\264\311\215p\243\234\301V\316\327:\3678z'k\335\340"
 243      70A39CC1 
 243      56CED73A 
 243      F7387A27 
 243      6BDDE0
 244 085a 8D756A6C 		.ascii	"\215ujlm\252\345\260\346\031\262\035\357M\005\343\231"
 244      6DAAE5B0 
 244      E619B21D 
 244      EF4D05E3 
ARM GAS  /tmp/ccJfAsKX.s 			page 19


 244      99
 245 086b E53B3ADF 		.ascii	"\345;:\337\344\314\265\270\201\033\347Z\367\231\323"
 245      E4CCB5B8 
 245      811BE75A 
 245      F799D3
 246 087a 1D308D78 		.ascii	"\0350\215xnp\002\317\015\316a|\031\343\0064\223\013"
 246      6E7002CF 
 246      0DCE617C 
 246      19E30634 
 246      930B
 247 088c 305E8471 		.ascii	"0^\204q#\306k0\336\214\361+\030\267b|\036\343+\030\367"
 247      23C66B30 
 247      DE8CF12B 
 247      18B7627C 
 247      1EE32B18 
 248 08a1 607C15E3 		.ascii	"`|\025\343\353\030\337pcn-\376\237~$\267\211\231\037"
 248      EB18DF70 
 248      636E2DFE 
 248      9F7E24B7 
 248      89991F
 249 08b4 CBA9DCCE 		.ascii	"\313\251\334\316~\366\247r\337\360v\247r=\237v\235s"
 249      7EF6A772 
 249      DFF076A7 
 249      723D9F76 
 249      9D73
 250 08c6 3E20A435 		.ascii	"> \2445;I\245x\262\017\251\367;\324=\335cW\367\373\333"
 250      3B49A578 
 250      B20FA9F7 
 250      3BD43DDD 
 250      6357F7FB 
 251 08db 0FFDA269 		.ascii	"\017\375\242i\2532\343\031\345\233\336'\271\002\252"
 251      AB32E319 
 251      E59BDE27 
 251      B902AA
 252 08ea AEF3647F 		.ascii	"\256\363d\177\323\241\336\273\267\356=-\037\377|3\332"
 252      D3A1DEBB 
 252      B7EE3D2D 
 252      1FFF7C33 
 252      DA
 253 08fb 9D991E4A 		.ascii	"\235\231\036J\315\257\373[\315\273\317b\335}f\353\356"
 253      CDAFFB5B 
 253      CDBBCF62 
 253      DD7D66EB 
 253      EE
 254 090c 0B666E32 		.ascii	"\013fn2'\031\272L]L;\366'\330\364\003\205\034\262\275"
 254      2719BA4C 
 254      5D4C3BF6 
 254      27D8F403 
 254      851CB2BD 
 255 0920 BF7DCF90 		.ascii	"\277}\317\220\365(\333\037<\224\3473\212\255\262m\264"
 255      F528DB1F 
 255      3C94E733 
 255      8AADB26D 
 255      B4
 256 0931 2E12369A 		.ascii	".\0226\232Ib\351\235l\232\314)\266W\325\263\266\252"
 256      4962E99D 
 256      6C9ACC29 
ARM GAS  /tmp/ccJfAsKX.s 			page 20


 256      B657D5B3 
 256      B6AA
 257 0943 EAF934BD 		.ascii	"\352\3714\275\330\231&\233r\234\307\317\263\352\212"
 257      D899269B 
 257      729CC7CF 
 257      B3EA8A
 258 0952 2A360F85 		.ascii	"*6\017\205W8\310\266\300,\333=d\225\322\334\220>\274"
 258      5738C8B6 
 258      C02CDB3D 
 258      6495D2DC 
 258      903EBC
 259 0965 EC5403D7 		.ascii	"\354T\003\327@eSR\340\036\337\205\012\341\311z\035\304"
 259      40655352 
 259      E01EDF85 
 259      0AE1C97A 
 259      1DC4
 260 0977 49B44519 		.ascii	"I\264E\0318\012\365r}\272u\345\311\351\334|E\207\322"
 260      380AF572 
 260      7DBA75E5 
 260      C9E9DC7C 
 260      4587D2
 261 098a BE88322C 		.ascii	"\276\2102,\362R\271\016N\262\317@\324\\\315\272\343"
 261      F252B90E 
 261      4EB2CF40 
 261      D45CCDBA 
 261      E3
 262 099b 761B2667 		.ascii	"v\033&g\200\261\200C.\201[\352\321\276\271Zk\3645\014"
 262      80B18043 
 262      2E815BEA 
 262      D1BEB95A 
 262      6BF4350C 
 263 09af 8F3CD96A 		.ascii	"\217<\331jmh6\3142sKA\241'\317\267\377\376\305Z:\366"
 263      6D6836CC 
 263      32734B41 
 263      A127CFB7 
 263      FFFEC55A 
 264 09c5 6055C1F5 		.ascii	"`U\301\365zl\234\315\224_\203\231J\214\007\322w\276"
 264      7A6C9CCD 
 264      945F8399 
 264      4A8C07D2 
 264      77BE
 265 09d7 8ECC6CF2 		.ascii	"\216\314l\362\320\331\353\325b[?\300\031\207'{\260H"
 265      D0D9EBD5 
 265      625B3FC0 
 265      1987277B 
 265      B048
 266 09e9 B327CB0F 		.ascii	"\263'\313\017H?\316\374\000\372*\2773?\357\204\343I"
 266      483FCEFC 
 266      00FA2ABF 
 266      333FEF84 
 266      E349
 267 09fb 7A5AEF80 		.ascii	"zZ\357\200aF\311\257\335\261\013\361\327\240\344\007"
 267      6146C9AF 
 267      DDB10BF1 
 267      D7A0E407 
 268 0a0b F24B6EC6 		.ascii	"\362Kn\306\001\017\020\213\254\313\226\274\375wL\362"
 268      010F108B 
ARM GAS  /tmp/ccJfAsKX.s 			page 21


 268      ACCB96BC 
 268      FD774CF2 
 269 0a1b 75AE246F 		.ascii	"u\256$o9n\364\000\264\205\010-\333\267\205\310k\354"
 269      396EF400 
 269      B485082D 
 269      DBB785C8 
 269      6BEC
 270 0a2d 14A40BF7 		.ascii	"\024\244\013\367\224.Y\301\012Z\206(\332\001\031;\360"
 270      942E59C1 
 270      0A5A8628 
 270      DA01193B 
 270      F0
 271 0a3e 9CC7170A 		.ascii	"\234\307\027\012Vf\222\354\360b\263\2576\337\015^\216"
 271      566692EC 
 271      F062B3AF 
 271      36DF0D5E 
 271      8E
 272 0a4f 530AF524 		.ascii	"S\012\365$\212\201-,\030\314,\334\007\307\015G\036g"
 272      8A812D2C 
 272      18CC2CDC 
 272      07C70D47 
 272      1E67
 273 0a61 75D5E600 		.ascii	"u\325\346\000\263;\245\260\273\214\034\021\270\015\036"
 273      B33BA5B0 
 273      BB8C1C11 
 273      B80D1E
 274 0a70 EA496CF4 		.ascii	"\352Il\364\320\371\376\005\214_\304\370%\2147a\274\331"
 274      D0F9FE05 
 274      8C5FC4F8 
 274      258C3761 
 274      BCD9
 275 0a82 63F2312F 		.ascii	"c\3621/\352C\304\226\211\371(\241\244\2268\017\016\273"
 275      EA43C496 
 275      89F928A1 
 275      A496380F 
 275      0EBB
 276 0a94 35240C8E 		.ascii	"5$\014\216\356a\235H\341m88\276\314?8\254\213\364\331"
 276      EE619D48 
 276      E16D3838 
 276      BECC3F38 
 276      AC8BF4D9 
 277 0aa8 036891ED 		.ascii	"\003h\221\355\331\203\243\353\337\331\340\330\356bp"
 277      D983A3EB 
 277      DFD9E0D8 
 277      EE6270
 278 0ab7 D4A64E2E 		.ascii	"\324\246N.r\267Md6r\231U\3120\366\271\314\377`3V\015"
 278      72B74D64 
 278      36729955 
 278      CA30F6B9 
 278      CCFF6033 
 279 0acd C8FF9D8F 		.ascii	"\310\377\235\217\011\207'[\260\310.\233f<\306\232\261"
 279      0987275B 
 279      B0C82E9B 
 279      663CC69A 
 279      B1
 280 0ade CB55339A 		.ascii	"\313U3\232\026i\314\177\335\223Y\245\354\312\315/G\205"
 280      1669CC7F 
ARM GAS  /tmp/ccJfAsKX.s 			page 22


 280      DD9359A5 
 280      ECCACD2F 
 280      4785
 281 0af0 D6A6561C 		.ascii	"\326\246V\034C\2622\2603\005\203\231\231\277\345X\241"
 281      43B232B0 
 281      33058399 
 281      99BFE558 
 281      A1
 282 0b01 1FAE5C3F 		.ascii	"\037\256\\?\333\271V\335n{\023\275\245\275\003\254\036"
 282      DBB956DD 
 282      6E7B13BD 
 282      A5BD03AC 
 282      1E
 283 0b12 499F16C3 		.ascii	"I\237\026\303\357\350\275\335\027k\205g\016\277m\315"
 283      EFE8BDDD 
 283      176B8567 
 283      0EBF6DCD 
 284 0b22 DE53CAEB 		.ascii	"\336S\312\353`]?\233\376\036s\260\366\241\203\325\221"
 284      605D3F9B 
 284      FE1E73B0 
 284      F6A183D5 
 284      91
 285 0b33 D59C7C0E 		.ascii	"\325\234|\016\026ON\024,{\231E\366\316\337j\207\270"
 285      164F4E14 
 285      2C7B9945 
 285      F6CEDF6A 
 285      87B8
 286 0b45 B89A49BB 		.ascii	"\270\232I\273\001\264\263\216v\227\221\303\002\227B"
 286      01B4B38E 
 286      769791C3 
 286      029742
 287 0b54 1BB4076D 		.ascii	"\033\264\007m\315^\214\337\300\270\015\343w=.V!\224"
 287      CD5E8CDF 
 287      C0B80DE3 
 287      773D2E56 
 287      2194
 288 0b66 7A3A36A3 		.ascii	"z:6\243\363\366>\323\271;\233\316\205\200\231\351\334"
 288      F3F63ED3 
 288      B93B9BCE 
 288      858099E9 
 288      DC
 289 0b77 734C5B64 		.ascii	"sL[dRn\012\334\333\036\027x9v\342\026\260\211\201\021"
 289      526E0ADC 
 289      DB1E1778 
 289      3976E216 
 289      B0898111 
 290 0b8b FDB46ED6 		.ascii	"\375\264n\326\012\324\262\275R\266\033\224\362\032*"
 290      0AD4B2BD 
 290      52B61B94 
 290      F21A2A
 291 0b9a A51555F0 		.ascii	"\245\025U\360\036\306\355\030\0372O\006\237\017\260"
 291      1EC6ED18 
 291      1F324F06 
 291      9F0FB0
 292 0ba9 4C0666CB 		.ascii	"L\006f\313k77\031\373GI\275|\002\332\343~\243\247\363"
 292      6B373719 
 292      FB4749BD 
ARM GAS  /tmp/ccJfAsKX.s 			page 23


 292      7C02DAE3 
 292      7EA3A7F3 
 293 0bbd FB6CA3E7 		.ascii	"\373l\243\347(\233\011\354Mh\256\215\236\272\022\\\225"
 293      289B09EC 
 293      4D68AE8D 
 293      9EBA125C 
 293      95
 294 0bce DB387861 		.ascii	"\3338xa\365S\311\374&tF]j\311\322\265\231\231\240N\037"
 294      F553C9FC 
 294      2674465D 
 294      6AC9D2B5 
 294      9999A04E 
 295 0be3 D9FB722C 		.ascii	"\331\373r,6\332\214\037j\314\327\305(\220\243\366\232"
 295      36DA8C1F 
 295      6ACCD7C5 
 295      2890A3F6 
 295      9A
 296 0bf4 EB3468EE 		.ascii	"\3534h\356\003\324\334\011\263\236\232J,z\312\2731d"
 296      03D4DC09 
 296      B39E9A4A 
 296      2C7ACABB 
 296      3164
 297 0c06 5653EB09 		.ascii	"VS\353\011\315-d\037\251\256\262\342\231?IUoM\2339\304"
 297      CD2D641F 
 297      A9AEB2E2 
 297      993F4955 
 297      6F4D9B39 
 298 0c1b 04D85188 		.ascii	"\004\330Q\210\336[\257|\366\000nv~\202j\177\267\244"
 298      DE5BAF7C 
 298      F6006E76 
 298      7E826A7F 
 298      B7A4
 299 0c2d 40B5D32E 		.ascii	"@\265\323.:cQy\352\222X\306R\363O\230\327\317\340nz"
 299      3A635179 
 299      EA9258C6 
 299      52F34F98 
 299      D7CFE06E 
 300 0c42 01BBB3A7 		.ascii	"\001\273\263\247\3253\327.\034\247\037\225|+\023\322"
 300      D533D72E 
 300      1CA71F95 
 300      7C2B13D2 
 301 0c52 598439F3 		.ascii	"Y\2049\363m\221\346\214\2014g\2214\347,\203\333\015"
 301      6D91E68C 
 301      81346791 
 301      34E72C83 
 301      DB0D
 302 0c64 691236A4 		.ascii	"i\0226\244\261\257\257\331P\337sX\337j4)[1>\202\361"
 302      B1AFAFD9 
 302      50DF7358 
 302      DF6A3429 
 302      5B313E82 
 303 0c79 298C3F36 		.ascii	")\214?6\313\321\255w\237\355\252\215b\177n^D6\323\017"
 303      CBD1AD77 
 303      9FEDAA8D 
 303      627F6E5E 
 303      4436D30F 
 304 0c8d D43F5CC5 		.ascii	"\324?\\\3055\330-\227M\3737\331\353\321/\262\227\265"
ARM GAS  /tmp/ccJfAsKX.s 			page 24


 304      35D82D97 
 304      4DFB37D9 
 304      EBD12FB2 
 304      97B5
 305 0c9f 3CB96215 		.ascii	"<\271b\025!\273\\\267e\305\236J\367,\272\272\012V\354"
 305      21BB5CB7 
 305      65C59E4A 
 305      F72CBABA 
 305      0A56EC
 306 0cb2 8A4504FA 		.ascii	"\212E\004\372A\264i\311\256\361\027\\\230|\276\360\341"
 306      41B469C9 
 306      AEF1175C 
 306      987CBEF0 
 306      E1
 307 0cc3 657F1A0D 		.ascii	"e\177\032\015\304\312\353\362\012\\\017\364p\336l\370"
 307      C4CAEBF2 
 307      0A5C0FF4 
 307      70DE6CF8 
 308 0cd3 01997560 		.ascii	"\001\231u`\334\240\003\343\252\253\201\361\365\327m"
 308      DCA003E3 
 308      AAAB81F1 
 308      F5D76D
 309 0ce2 EC98A90D 		.ascii	"\354\230\251\015\035\220\305\270\352\271\332\347\231"
 309      1D90C5B8 
 309      EAB9DAE7 
 309      99
 310 0cef B7F73384 		.ascii	"\267\3673\204\263\270K;\035\334%*\336\015\217\305\361"
 310      B3B84B3B 
 310      1DDC252A 
 310      DE0D8FC5 
 310      F1
 311 0d00 B9818A2A 		.ascii	"\271\201\212*D\2042\223\010\365o\341\374z\003=\257\351"
 311      44843293 
 311      08F56FE1 
 311      FC7A033D 
 311      AFE9
 312 0d12 A52EC072 		.ascii	"\245.\300rL\326\015F\260\331\005\203\225e\015!6x\256"
 312      4CD60D46 
 312      B0D90583 
 312      95650D21 
 312      3678AE
 313 0d25 E1E0B98E 		.ascii	"\341\340\271\216C\345\317\030\177\215q\257y\3304\224"
 313      43E5CF18 
 313      7F8D71AF 
 313      79D83494 
 314 0d35 5AAD0E53 		.ascii	"Z\255\016S\252\001/\243{\222\037\321^\007\026e}\351"
 314      AA012FA3 
 314      7B921FD1 
 314      5E071665 
 314      7DE9
 315 0d47 D03E8A5F 		.ascii	"\320>\212_\3535\271\255\031\310q\346\346\033\306\011"
 315      EB35B9AD 
 315      19C871E6 
 315      E61BC609 
 316 0d57 2B649F4D 		.ascii	"+d\237M\340\352\274\205\376\327o\206\327\376\277~\306"
 316      E0EABC85 
 316      FED76F86 
ARM GAS  /tmp/ccJfAsKX.s 			page 25


 316      D7FEBF7E 
 316      C6
 317 0d68 0F9232B9 		.ascii	"\017\2222\271\350\304Yj\031\370YB<\345\345\311\235d"
 317      E8C4596A 
 317      19F85942 
 317      3CE5E5C9 
 317      9D64
 318 0d7a 736993C2 		.ascii	"si\223\302R\306\220m\312\254\024\014\241\313`HtZ\374"
 318      52C6906D 
 318      CAAC140C 
 318      A1CB6048 
 318      745AFC
 319 0d8d 37F9B3D2 		.ascii	"7\371\263\322\250\244{\216]\035\315\332DmD{{j\313\333"
 319      A8A47B8E 
 319      5D1DCDDA 
 319      446D447B 
 319      7B6ACBDB 
 320 0da1 746285D5 		.ascii	"tb\205\325\3137`!X\367\361d\237\265\322\354Q;\333\313"
 320      CB376021 
 320      58F7F164 
 320      9FB5D2EC 
 320      513BDBCB 
 321 0db5 1B6A1BC7 		.ascii	"\033j\033\307J2\025\262\252R\333\336\346\334\374\203"
 321      4A3215B2 
 321      AA52DBDE 
 321      E6DCFC83 
 322 0dc5 72BD0E3D 		.ascii	"r\275\016=X\205\236[p\257>\353\320\253\267\345d\216"
 322      58859E5B 
 322      70AF3EEB 
 322      D0ABB7E5 
 322      648E
 323 0dd7 C0FD3143 		.ascii	"\300\3751C\210;\3111\350\301\306q\231\352\031\023i\211"
 323      883BC931 
 323      E8C1C671 
 323      99EA1913 
 323      6989
 324 0de9 1BE8DD33 		.ascii	"\033\350\3353N\032\237{\325\306\316RR\257\3715[`\374"
 324      4E1A9F7B 
 324      D5C6CE52 
 324      52AFF935 
 324      5B60FC
 325 0dfc 97995A2F 		.ascii	"\227\231Z/k\241\306>\013a}\316\315j\360\332\377\301"
 325      6BA1C63E 
 325      0B617DCE 
 325      CD6AF0DA 
 325      FFC1
 326 0e0e 53E01A33 		.ascii	"S\340\0323\252\315*5\337\261TS\216\261\261\300\261\024"
 326      AACD2A35 
 326      DFB15453 
 326      8EB1B1C0 
 326      B114
 327 0e20 3D50702A 		.ascii	"=Pp*\265\320\261\324\0279$\\\344XJ\311Q\327b\307R\035"
 327      B5D0B1D4 
 327      1739245C 
 327      E4584AC9 
 327      51D762C7 
 328 0e36 390C74A3 		.ascii	"9\014t\243c\251\2039J-q,\265'G\251\245\231R\352_/\337"
ARM GAS  /tmp/ccJfAsKX.s 			page 26


 328      63A98339 
 328      4A2D712C 
 328      B52747A9 
 328      A59952EA 
 329 0e4d DFBEE71F 		.ascii	"\337\276\347\0377\323e,=\305\231>\343\227\226\263\201"
 329      37D3652C 
 329      3DC5993E 
 329      E39796B3 
 329      81
 330 0e5e AE1CEEFA 		.ascii	"\256\034\356\372ro\366\021\322\377Z,\252\372?\307Ze"
 330      726FF611 
 330      D2FF5A2C 
 330      AAFA3FC7 
 330      5A65
 331 0e70 EB7AFAB7 		.ascii	"\353z\372\267Mv\252\"p\313\274\366\377\331T\361\232"
 331      4D76AA22 
 331      70CBBCF6 
 331      FFD954F1 
 331      9A
 332 0e81 BC76FFC6 		.ascii	"\274v\377\306<\336\261\\\3757\346n\345\356\000S\005"
 332      3CDEB15C 
 332      FD37E66E 
 332      E5EE0053 
 332      05
 333 0e92 4FBEC95D 		.ascii	"O\276\311]#\373\034K\340V\346\256\261\331\\\343\337"
 333      23FB1C4B 
 333      E056E6AE 
 333      B1D95CE3 
 333      DF
 334 0ea3 90B574CD 		.ascii	"\220\265t\315\323s\354\253AK\352\003Y\037ue\365\371"
 334      D373ECAB 
 334      414BEA03 
 334      591F7565 
 334      F5F9
 335 0eb5 BC1CAC58 		.ascii	"\274\034\254Xm\260\351\336H\245 \025=\374O\277)\033"
 335      6DB0E9DE 
 335      48A52015 
 335      3DFC4FBF 
 335      291B
 336 0ec7 4F7E3E72 		.ascii	"O~>rdh|etb\364\237'\204\342\311P$^]\035\217\205\022"
 336      64687C65 
 336      7462F49F 
 336      2784E2C9 
 336      50245E5D 
 337 0edf 71494E86 		.ascii	"qIN\206~\371\353G\307?:\225\246%\242U\242\224\014=<"
 337      7EF9EB47 
 337      C73F3A95 
 337      A625A255 
 337      A2940C3D 
 338 0ef4 7E7C2852 		.ascii	"~|(R)OK\210\311\221\225\304W\235\254\010C\266\330$\014"
 338      294F4B88 
 338      C99195C4 
 338      579DAC08 
 338      43B6D824 
 339 0f09 3F0D55C6 		.ascii	"?\015U\306\253\305\220$&EA\212T\206\240\216\362)\202"
 339      ABC59024 
 339      2645418A 
ARM GAS  /tmp/ccJfAsKX.s 			page 27


 339      5486A08E 
 339      F22982
 340 0f1c 248604A9 		.ascii	"$\206\004\251\372\276PE$2\002nF\210\325\023\305\362"
 340      FABE5045 
 340      2432026E 
 340      4688D513 
 340      C5F2
 341 0f2e 72B15C4F 		.ascii	"r\261\\O\210\305c\342\010Q\230\030\0351&<v\304}\243"
 341      88C563E2 
 341      08519818 
 341      1D31263C 
 341      76C47DA3 
 342 0f42 468F79E2 		.ascii	"F\217y\342\276\220\351E(\032\213T\325\224\213\241\244"
 342      BE90E945 
 342      281A8B54 
 342      D5948BA1 
 342      A4
 343 0f53 5C1E8DC9 		.ascii	"\\\036\215\311P\263\037~~r_X\256\343\376r\225W\013\221"
 343      50B31F7E 
 343      7E725F58 
 343      AEE3FE72 
 343      95570B91 
 344 0f67 CA684C0C 		.ascii	"\312hL\014\205\313\305IBM\225\034\326\272!\030\016\253"
 344      85CBC549 
 344      424D951C 
 344      D6BA2118 
 344      0EAB
 345 0f79 E2FCC4D0 		.ascii	"\342\374\304\320\227\262\230\224C\222\034J\306k\244"
 345      97B29894 
 345      43921C4A 
 345      C66BA4
 346 0f88 88C81E69 		.ascii	"\210\310\036i\024N\212O\324\210\261\210\030\0365\352"
 346      144E8A4F 
 346      D488B188 
 346      181E35EA 
 347 0f98 FE9111D2 		.ascii	"\376\221\021\322\037;\261R"
 347      1F3BB152 
 348 0fa0 1285F2D1 		.ascii	"\022\205\362\321\\\3426\314\002o \214\016\213S\305H"
 348      5CE236CC 
 348      026F208C 
 348      0E8B53C5 
 348      48
 349 0fb1 8D2CDE69 		.ascii	"\215,\336i\205\255\212N\0045\204\351=UC\370\357\342"
 349      85AD8A4E 
 349      043584E9 
 349      3D5543F8 
 349      EFE2
 350 0fc3 F1AAC1F8 		.ascii	"\361\252\301\370\030\026\222IQ\312T2\334\215DR<Nq\006"
 350      18169249 
 350      51CA5432 
 350      DC8D4452 
 350      3C4E7106 
 351 0fd7 E1C31421 		.ascii	"\341\303\024!*\253\362$K1E\254\246)\361\307\305\330"
 351      2AABF224 
 351      4B3145AC 
 351      A629F1C7 
 351      C5D8
ARM GAS  /tmp/ccJfAsKX.s 			page 28


 352 0fe9 DD66AE00 		.ascii	"\335f\256\000\226\3269\221Jh\006`\3740G\216\344\264"
 352      96D63991 
 352      4A680660 
 352      FC30478E 
 352      E4B4
 353 0ffb A4D66501 		.ascii	"\244\326e\001V"
 353      56
 354 1000 41580ED2 		.ascii	"AX\016\322f\340\375=\271JF*\313\241T\251*V\030\332V"
 354      66E0FD3D 
 354      B94A462A 
 354      CBA154A9 
 354      2A5618DA 
 355 1015 2386E581 		.ascii	"#\206\345\201za5\311\033\023\247\312\336\204$N\366\341"
 355      7A6135C9 
 355      1B13A7CA 
 355      DE84244E 
 355      F6E1
 356 1027 B35F4E48 		.ascii	"\263_NH\321xX\016\324\250\012\352\027\016k\267^\372"
 356      D178580E 
 356      D4A80AEA 
 356      170E6BB7 
 356      5EFA
 357 1039 AA98F23C 		.ascii	"\252\230\362<\034\211\307d(8\334\305H\250\214\304%\021"
 357      1C89C764 
 357      2838DCC5 
 357      48A88CC4 
 357      2511
 358 104b 44E98F05 		.ascii	"D\351\217\005\001*\"O\015\271-\027\236\374@5m\274$V"
 358      012A224F 
 358      0DB92D17 
 358      9EFC4035 
 358      6DBC2456 
 359 105f 00C5C232 		.ascii	"\000\305\3022/\215\341\245\237\362\322\375\274\364\000"
 359      2F8DE1A5 
 359      9FF2D2FD 
 359      BCF400
 360 106e 2F8DE5A5 		.ascii	"/\215\345\245\237y\244\321\243 \214\346\253$>\231\360"
 360      9F79A4D1 
 360      A3208CE6 
 360      AB243E99 
 360      F0
 361 107f 00B82F26 		.ascii	"\000\270/&N\021%_\274\252\\\224\2741\241Z\354\227\224"
 361      4E11255F 
 361      BCAA5C94 
 361      BC31A15A 
 361      EC9794
 362 1092 1F17AAA2 		.ascii	"\037\027\252\242\0251\265Y\367\217\321\233Eo\213\246"
 362      1531B559 
 362      F78FD19B 
 362      456F8BA6 
 363 10a2 081385A4 		.ascii	"\010\023\205\244\030\220\223\262 C\037\371\351\213\261"
 363      189093B2 
 363      20431FF9 
 363      E98BB1
 364 10b1 D0D12C0B 		.ascii	"\320\321,\013\334\371\360\215_\256\216\227\303{\337"
 364      DCF9F08D 
 364      5FAE8E97 
ARM GAS  /tmp/ccJfAsKX.s 			page 29


 364      C37BDF
 365 10c0 A42AA122 		.ascii	"\244*\241\"\351\227%qR\022:\205\376\024I\345\323@\233"
 365      E9972571 
 365      52123A85 
 365      FE1449E5 
 365      D3409B
 366 10d3 01716A54 		.ascii	"\001qjT\216@\246\242)r|\342\177%nQu\006YD\011\011,\373"
 366      8E40A6A2 
 366      29727CE2 
 366      7F256E51 
 366      75065944 
 367 10eb A6C8B294 		.ascii	"\246\310\262\224\360'\305\230\014\005\212A\035I\261"
 367      F027C598 
 367      0C058A41 
 367      1D49B1
 368 10fa 5A485442 		.ascii	"ZHTB[sQ\0052Q\332Fb@+\017\304P\001$%\002P\276\032\350"
 368      5B735105 
 368      3251DA46 
 368      62402B0F 
 368      C4500124 
 369 1114 3E3527CD 		.ascii	">5'\315\344\251\264l|JL\224\374\230\233\266Y\206\344"
 369      E4A9B46C 
 369      7C4A4C94 
 369      FC989BB6 
 369      5986E4
 370 1127 447F7132 		.ascii	"D\177q2\025DH>\016I\342\024z\303\325\224h\004\251\212"
 370      1544483E 
 370      0E49E214 
 370      7AC3D594 
 370      6804A98A 
 371 113b 0295E552 		.ascii	"\002\225\345R\003eh\212\237\322=\032\253\010\200\374"
 371      0365688A 
 371      9FD23D1A 
 371      AB0880FC 
 372 114b 48998098 		.ascii	"H\231\200\230\020c`e*\374\000Is\200\266\204*\312\025"
 372      10636065 
 372      2AFC0049 
 372      7380B684 
 372      2ACA15
 373 115e 5F750286 		.ascii	"_u\002\206\0314\362\321d\305\257\305*\021z9\210\017"
 373      1934F2D1 
 373      64C5AFC5 
 373      2A117A39 
 373      880F
 374 1170 FF0610F7 		.ascii	"\377\006\020\367\346\020Y\255\017\304\236\376\235\230"
 374      E61059AD 
 374      0FC49EFE 
 374      9D98
 375 117e 2B6A0D20 		.ascii	"+j\015 \203\305l\215\0319v\344\030\243\345\004\263\005"
 375      83C56C8D 
 375      193976E4 
 375      18A3E504 
 375      B305
 376 1190 221425A3 		.ascii	"\"\024%\243\277\247\264\220'\325\304\"ayP\244\362_+"
 376      BFA7B490 
 376      27D5C422 
 376      617950A4 
ARM GAS  /tmp/ccJfAsKX.s 			page 30


 376      F25F2B
 377 11a3 CBC78380 		.ascii	"\313\307\203\200\2628\001x\021\215\2606M\200N\0102s"
 377      B2380178 
 377      118DB036 
 377      4D804E08 
 377      3273
 378 11b5 258B097E 		.ascii	"%\213\011~\212\320\237*\027\006\260X\315\006-\273/\246"
 378      8AD09F2A 
 378      1706B058 
 378      CD062DBB 
 378      2FA6
 379 11c7 2D9BA6F6 		.ascii	"-\233\246\366\355\000H\316<\373#5\022\320D\366I\364"
 379      ED0048CE 
 379      3CFB2335 
 379      12D044F6 
 379      49F4
 380 11d9 69F0E4A8 		.ascii	"i\360\344\250$\327\010Ua9Z\015\023\211Z\342v(a\363\242"
 380      24D70855 
 380      61395A0D 
 380      13895AE2 
 380      762861F3 
 381 11ee D494C6C6 		.ascii	"\324\224\306\306\271))Hk\207\033``\271X%\013\201\311"
 381      B9292948 
 381      6B871B60 
 381      60B95825 
 381      0B81C9
 382 1201 6A73BCF4 		.ascii	"js\274\364\307\223\020\244@\225\220\224i\226\242\311"
 382      C79310A4 
 382      40959094 
 382      6996A2C9 
 383 1211 32852C51 		.ascii	"2\205,Qe/\027'\326T0\032\030S\202\011!\026\215\204\201"
 383      652F1727 
 383      D654301A 
 383      18538209 
 383      21168D84 
 384 1226 049EF289 		.ascii	"\004\236\362\211\025\375\252\005\030*\250\265\262\\"
 384      15FDAA05 
 384      182AA8B5 
 384      B25C
 385 1234 7AA52C1E 		.ascii	"z\245,\036(W\207#0\036'J\320yq\030\224~IFb\027\305'"
 385      28578723 
 385      301E274A 
 385      D0797118 
 385      947E4946 
 386 124c 4D4A8A32 		.ascii	"MJ\2122/W\363\221J\277\312\001\037\244\324$\0022(\275"
 386      2F57F391 
 386      4ABFCA01 
 386      1FA4D424 
 386      023228BD 
 387 1260 1C28EC57 		.ascii	"\034(\354W\015|?\332\323\021 \024($k\216\030:R\212\227"
 387      0D7C3FDA 
 387      D3112014 
 387      28246B8E 
 387      183A528A 
 388 1275 0BB23032 		.ascii	"\013\26202\353M\261q\262\030\374\250\230L\012\025b\262"
 388      EB4DB171 
 388      B218FCA8 
ARM GAS  /tmp/ccJfAsKX.s 			page 31


 388      984C0A15 
 388      62B2
 389 1287 6C82284D 		.ascii	"l\202(M\026\245\262\252x<A\230~\037\026\345\177\001"
 389      16A5B2AA 
 389      783C4198 
 389      7E1F16E5 
 389      7F01
 390 1299 064B5179 		.ascii	"\006KQy\332c\003\264\224\011b\325\244\307\376\037\321"
 390      DA6303B4 
 390      940962D5 
 390      A4C7FE1F 
 390      D1
 391 12aa CAB381   		.ascii	"\312\263\201"
 392              		.text
 393              		.section	.gnu.lto_.symtab.32806d33e24948ba,"",%progbits
 394 0000 74657374 		.ascii	"test_sequence_006\000\000\000\000\000\000\000\000\000"
 394      5F736571 
 394      75656E63 
 394      655F3030 
 394      36000000 
 395 001a 000000F1 		.ascii	"\000\000\000\361\001\000\000test_step\000\000\002\000"
 395      01000074 
 395      6573745F 
 395      73746570 
 395      00000200 
 396 002e 00000000 		.ascii	"\000\000\000\000\000\000\000\000\225\001\000\000wa\000"
 396      00000000 
 396      95010000 
 396      776100
 397 003d 00020000 		.ascii	"\000\002\000\000\000\000\000\000\000\000\000\227\001"
 397      00000000 
 397      00000097 
 397      01
 398 004a 00006368 		.ascii	"\000\000ch\000\000\002\000\000\000\000\000\000\000\000"
 398      00000200 
 398      00000000 
 398      000000
 399 0059 009C0100 		.ascii	"\000\234\001\000\000threads\000\000\002\000\000\000"
 399      00746872 
 399      65616473 
 399      00000200 
 399      0000
 400 006b 00000000 		.ascii	"\000\000\000\000\000\000\356\001\000\000_test_asser"
 400      0000EE01 
 400      00005F74 
 400      6573745F 
 400      61737365 
 401 0080 745F7365 		.ascii	"t_sequence\000\000\002\000\000\000\000\000\000\000\000"
 401      7175656E 
 401      63650000 
 401      02000000 
 401      00000000 
 402 0095 00C00000 		.ascii	"\000\300\000\000\000test_wait_threads\000\000\002\000"
 402      00746573 
 402      745F7761 
 402      69745F74 
 402      68726561 
ARM GAS  /tmp/ccJfAsKX.s 			page 32


 403 00af 00000000 		.ascii	"\000\000\000\000\000\000\000\000\313\000\000\000tes"
 403      00000000 
 403      CB000000 
 403      746573
 404 00be 745F656D 		.ascii	"t_emit_token\000\000\002\000\000\000\000\000\000\000"
 404      69745F74 
 404      6F6B656E 
 404      00000200 
 404      00000000 
 405 00d4 0000CD00 		.ascii	"\000\000\315\000\000\000chMsgRelease\000\000\002\000"
 405      00006368 
 405      4D736752 
 405      656C6561 
 405      73650000 
 406 00ea 00000000 		.ascii	"\000\000\000\000\000\000\000\000\321\000\000\000chM"
 406      00000000 
 406      D1000000 
 406      63684D
 407 00f9 73675761 		.ascii	"sgWait\000\000\002\000\000\000\000\000\000\000\000\000"
 407      69740000 
 407      02000000 
 407      00000000 
 407      0000
 408 010b 7F010000 		.ascii	"\177\001\000\000chThdCreateStatic\000\000\002\000\000"
 408      63685468 
 408      64437265 
 408      61746553 
 408      74617469 
 409 0125 00000000 		.ascii	"\000\000\000\000\000\000\000\202\001\000\000chMsgSe"
 409      00000082 
 409      01000063 
 409      684D7367 
 409      5365
 410 0137 6E640000 		.ascii	"nd\000\000\002\000\000\000\000\000\000\000\000\000\220"
 410      02000000 
 410      00000000 
 410      000090
 411 0146 010000   		.ascii	"\001\000\000"
 412              		.text
 413              		.section	.gnu.lto_.opts,"",%progbits
 414 0000 272D6D63 		.ascii	"'-mcpu=cortex-m4' '-mno-thumb-interwork' '-mthumb' "
 414      70753D63 
 414      6F727465 
 414      782D6D34 
 414      2720272D 
 415 0033 272D6767 		.ascii	"'-ggdb' '-O2' '-fomit-frame-pointer' '-falign-funct"
 415      64622720 
 415      272D4F32 
 415      2720272D 
 415      666F6D69 
 416 0066 696F6E73 		.ascii	"ions=16' '-ffunction-sections' '-fdata-sections' '-"
 416      3D313627 
 416      20272D66 
 416      66756E63 
 416      74696F6E 
 417 0099 666E6F2D 		.ascii	"fno-common' '-flto'\000"
 417      636F6D6D 
ARM GAS  /tmp/ccJfAsKX.s 			page 33


 417      6F6E2720 
 417      272D666C 
 417      746F2700 
 418              		.text
 419              		.cfi_sections	.debug_frame
 420              		.section	.text.test_006_001_execute,"ax",%progbits
 421              		.align	2
 422              		.p2align 4,,15
 423              		.thumb
 424              		.thumb_func
 425              		.type	test_006_001_execute, %function
 426              	test_006_001_execute:
 427              	.LFB271:
 428              		.file 1 "../ChibiOS/test/rt/source/test/test_sequence_006.c"
 429              		.loc 1 76 0
 430              		.cfi_startproc
 431              		@ args = 0, pretend = 0, frame = 0
 432              		@ frame_needed = 0, uses_anonymous_args = 0
 433 0000 30B5     		push	{r4, r5, lr}
 434              		.cfi_def_cfa_offset 12
 435              		.cfi_offset 4, -12
 436              		.cfi_offset 5, -8
 437              		.cfi_offset 14, -4
 438              	.LBB13:
 439              	.LBB14:
 440              	.LBB15:
 441              	.LBB16:
 442              		.file 2 "../ChibiOS/os/rt/include/chthreads.h"
 443              		.loc 2 277 0
 444 0002 144B     		ldr	r3, .L5
 445              	.LBE16:
 446              	.LBE15:
 447              	.LBE14:
 448              	.LBE13:
 449              		.loc 1 83 0
 450 0004 144A     		ldr	r2, .L5+4
 451              	.LBB20:
 452              	.LBB19:
 453              	.LBB18:
 454              	.LBB17:
 455              		.loc 2 277 0
 456 0006 9B69     		ldr	r3, [r3, #24]
 457              	.LBE17:
 458              	.LBE18:
 459              	.LBE19:
 460              	.LBE20:
 461              		.loc 1 81 0
 462 0008 144C     		ldr	r4, .L5+8
 463              		.loc 1 83 0
 464 000a 1068     		ldr	r0, [r2]
 465 000c 9A68     		ldr	r2, [r3, #8]
 466              		.loc 1 76 0
 467 000e 83B0     		sub	sp, sp, #12
 468              		.cfi_def_cfa_offset 24
 469              		.loc 1 81 0
 470 0010 0125     		movs	r5, #1
 471              		.loc 1 83 0
ARM GAS  /tmp/ccJfAsKX.s 			page 34


 472 0012 0093     		str	r3, [sp]
 473 0014 0132     		adds	r2, r2, #1
 474 0016 124B     		ldr	r3, .L5+12
 475              		.loc 1 81 0
 476 0018 2560     		str	r5, [r4]
 477              		.loc 1 83 0
 478 001a 4FF4A471 		mov	r1, #328
 479 001e FFF7FEFF 		bl	chThdCreateStatic
 480              	.LVL0:
 481 0022 104A     		ldr	r2, .L5+16
 482              		.loc 1 89 0
 483 0024 0223     		movs	r3, #2
 484 0026 2360     		str	r3, [r4]
 485              	.LVL1:
 486              		.loc 1 83 0
 487 0028 1060     		str	r0, [r2]
 488              		.loc 1 89 0
 489 002a 0424     		movs	r4, #4
 490              	.LVL2:
 491              	.L3:
 492              	.LBB21:
 493              		.loc 1 94 0 discriminator 2
 494 002c FFF7FEFF 		bl	chMsgWait
 495              	.LVL3:
 496              	.LBE21:
 497              		.loc 1 77 0 discriminator 2
 498 0030 456A     		ldr	r5, [r0, #36]
 499              	.LVL4:
 500              	.LBB22:
 501              		.loc 1 96 0 discriminator 2
 502 0032 2946     		mov	r1, r5
 503 0034 FFF7FEFF 		bl	chMsgRelease
 504              	.LVL5:
 505              		.loc 1 97 0 discriminator 2
 506 0038 E8B2     		uxtb	r0, r5
 507 003a FFF7FEFF 		bl	test_emit_token
 508              	.LVL6:
 509              		.loc 1 93 0 discriminator 2
 510 003e 013C     		subs	r4, r4, #1
 511              	.LVL7:
 512 0040 F4D1     		bne	.L3
 513              		.loc 1 99 0
 514 0042 FFF7FEFF 		bl	test_wait_threads
 515              	.LVL8:
 516              		.loc 1 100 0
 517 0046 0848     		ldr	r0, .L5+20
 518 0048 0849     		ldr	r1, .L5+24
 519              	.LBE22:
 520              		.loc 1 102 0
 521 004a 03B0     		add	sp, sp, #12
 522              		@ sp needed
 523 004c BDE83040 		pop	{r4, r5, lr}
 524              	.LVL9:
 525              	.LBB23:
 526              		.loc 1 100 0
 527 0050 FFF7FEBF 		b	_test_assert_sequence
 528              	.LVL10:
ARM GAS  /tmp/ccJfAsKX.s 			page 35


 529              	.L6:
 530              		.align	2
 531              	.L5:
 532 0054 00000000 		.word	ch
 533 0058 00000000 		.word	wa
 534 005c 00000000 		.word	test_step
 535 0060 00000000 		.word	msg_thread1
 536 0064 00000000 		.word	threads
 537 0068 00000000 		.word	.LC0
 538 006c 08000000 		.word	.LC1
 539              	.LBE23:
 540              		.cfi_endproc
 541              	.LFE271:
 542              		.size	test_006_001_execute, .-test_006_001_execute
 543              		.section	.text.msg_thread1,"ax",%progbits
 544              		.align	2
 545              		.p2align 4,,15
 546              		.thumb
 547              		.thumb_func
 548              		.type	msg_thread1, %function
 549              	msg_thread1:
 550              	.LFB270:
 551              		.loc 1 50 0
 552              		.cfi_startproc
 553              		@ args = 0, pretend = 0, frame = 0
 554              		@ frame_needed = 0, uses_anonymous_args = 0
 555              	.LVL11:
 556 0000 10B5     		push	{r4, lr}
 557              		.cfi_def_cfa_offset 8
 558              		.cfi_offset 4, -8
 559              		.cfi_offset 14, -4
 560              		.loc 1 52 0
 561 0002 4121     		movs	r1, #65
 562              		.loc 1 50 0
 563 0004 0446     		mov	r4, r0
 564              		.loc 1 52 0
 565 0006 FFF7FEFF 		bl	chMsgSend
 566              	.LVL12:
 567              		.loc 1 53 0
 568 000a 2046     		mov	r0, r4
 569 000c 4221     		movs	r1, #66
 570 000e FFF7FEFF 		bl	chMsgSend
 571              	.LVL13:
 572              		.loc 1 54 0
 573 0012 2046     		mov	r0, r4
 574 0014 4321     		movs	r1, #67
 575 0016 FFF7FEFF 		bl	chMsgSend
 576              	.LVL14:
 577              		.loc 1 55 0
 578 001a 2046     		mov	r0, r4
 579 001c 4421     		movs	r1, #68
 580              		.loc 1 56 0
 581 001e BDE81040 		pop	{r4, lr}
 582              	.LVL15:
 583              		.loc 1 55 0
 584 0022 FFF7FEBF 		b	chMsgSend
 585              	.LVL16:
ARM GAS  /tmp/ccJfAsKX.s 			page 36


 586              		.cfi_endproc
 587              	.LFE270:
 588              		.size	msg_thread1, .-msg_thread1
 589              		.global	test_sequence_006
 590 0026 00BFAFF3 		.section	.rodata.test_sequence_006,"a",%progbits
 590      0080AFF3 
 590      0080
 591              		.align	2
 592              		.type	test_sequence_006, %object
 593              		.size	test_sequence_006, 8
 594              	test_sequence_006:
 595 0000 00000000 		.word	test_006_001
 596 0004 00000000 		.word	0
 597              		.section	.rodata.str1.4,"aMS",%progbits,1
 598              		.align	2
 599              	.LC0:
 600 0000 41424344 		.ascii	"ABCD\000"
 600      00
 601 0005 000000   		.space	3
 602              	.LC1:
 603 0008 696E7661 		.ascii	"invalid sequence\000"
 603      6C696420 
 603      73657175 
 603      656E6365 
 603      00
 604 0019 000000   		.space	3
 605              	.LC2:
 606 001c 4D657373 		.ascii	"Messages Server loop\000"
 606      61676573 
 606      20536572 
 606      76657220 
 606      6C6F6F70 
 607 0031 000000   		.section	.rodata.test_006_001,"a",%progbits
 608              		.align	2
 609              		.type	test_006_001, %object
 610              		.size	test_006_001, 16
 611              	test_006_001:
 612 0000 1C000000 		.word	.LC2
 613 0004 00000000 		.word	0
 614 0008 00000000 		.word	0
 615 000c 00000000 		.word	test_006_001_execute
 616              		.text
 617              	.Letext0:
 618              		.file 3 "/nfs/nfs5/home/research/hardware/arm2/gcc-arm-embedded/gcc-arm-none-eabi-4_8-2014q2/lib/g
 619              		.file 4 "/nfs/nfs5/home/research/hardware/arm2/gcc-arm-embedded/gcc-arm-none-eabi-4_8-2014q2/arm-n
 620              		.file 5 "/nfs/nfs5/home/research/hardware/arm2/gcc-arm-embedded/gcc-arm-none-eabi-4_8-2014q2/arm-n
 621              		.file 6 "../ChibiOS/os/common/ports/ARMCMx/compilers/GCC/chtypes.h"
 622              		.file 7 "../ChibiOS/os/rt/include/chsystypes.h"
 623              		.file 8 "../ChibiOS/os/rt/include/chschd.h"
 624              		.file 9 "../ChibiOS/os/common/ports/ARMCMx/chcore.h"
 625              		.file 10 "../ChibiOS/os/common/ports/ARMCMx/chcore_v7m.h"
 626              		.file 11 "../ChibiOS/os/rt/include/chtm.h"
 627              		.file 12 "../ChibiOS/os/rt/include/chsem.h"
 628              		.file 13 "../ChibiOS/os/rt/include/chmtx.h"
 629              		.file 14 "../ChibiOS/test/lib/ch_test.h"
 630              		.file 15 "../ChibiOS/os/common/ext/CMSIS/include/core_cm4.h"
 631              		.file 16 "../ChibiOS/test/rt/source/test/test_root.h"
ARM GAS  /tmp/ccJfAsKX.s 			page 37


 632              		.file 17 "../ChibiOS/os/rt/include/chmsg.h"
 633              		.section	.debug_info,"",%progbits
 634              	.Ldebug_info0:
 635 0000 4E090000 		.4byte	0x94e
 636 0004 0400     		.2byte	0x4
 637 0006 00000000 		.4byte	.Ldebug_abbrev0
 638 000a 04       		.byte	0x4
 639 000b 01       		.uleb128 0x1
 640 000c 01050000 		.4byte	.LASF111
 641 0010 01       		.byte	0x1
 642 0011 7F010000 		.4byte	.LASF112
 643 0015 51030000 		.4byte	.LASF113
 644 0019 50000000 		.4byte	.Ldebug_ranges0+0x50
 645 001d 00000000 		.4byte	0
 646 0021 00000000 		.4byte	.Ldebug_line0
 647 0025 02       		.uleb128 0x2
 648 0026 04       		.byte	0x4
 649 0027 05       		.byte	0x5
 650 0028 696E7400 		.ascii	"int\000"
 651 002c 03       		.uleb128 0x3
 652 002d 15000000 		.4byte	.LASF2
 653 0031 03       		.byte	0x3
 654 0032 D4       		.byte	0xd4
 655 0033 37000000 		.4byte	0x37
 656 0037 04       		.uleb128 0x4
 657 0038 04       		.byte	0x4
 658 0039 07       		.byte	0x7
 659 003a 65010000 		.4byte	.LASF0
 660 003e 04       		.uleb128 0x4
 661 003f 01       		.byte	0x1
 662 0040 06       		.byte	0x6
 663 0041 E2000000 		.4byte	.LASF1
 664 0045 03       		.uleb128 0x3
 665 0046 32000000 		.4byte	.LASF3
 666 004a 04       		.byte	0x4
 667 004b 1C       		.byte	0x1c
 668 004c 50000000 		.4byte	0x50
 669 0050 04       		.uleb128 0x4
 670 0051 01       		.byte	0x1
 671 0052 08       		.byte	0x8
 672 0053 9D030000 		.4byte	.LASF4
 673 0057 04       		.uleb128 0x4
 674 0058 02       		.byte	0x2
 675 0059 05       		.byte	0x5
 676 005a AB030000 		.4byte	.LASF5
 677 005e 04       		.uleb128 0x4
 678 005f 02       		.byte	0x2
 679 0060 07       		.byte	0x7
 680 0061 CF010000 		.4byte	.LASF6
 681 0065 03       		.uleb128 0x3
 682 0066 29020000 		.4byte	.LASF7
 683 006a 04       		.byte	0x4
 684 006b 37       		.byte	0x37
 685 006c 70000000 		.4byte	0x70
 686 0070 04       		.uleb128 0x4
 687 0071 04       		.byte	0x4
 688 0072 05       		.byte	0x5
ARM GAS  /tmp/ccJfAsKX.s 			page 38


 689 0073 14010000 		.4byte	.LASF8
 690 0077 03       		.uleb128 0x3
 691 0078 3B010000 		.4byte	.LASF9
 692 007c 04       		.byte	0x4
 693 007d 38       		.byte	0x38
 694 007e 82000000 		.4byte	0x82
 695 0082 04       		.uleb128 0x4
 696 0083 04       		.byte	0x4
 697 0084 07       		.byte	0x7
 698 0085 4B040000 		.4byte	.LASF10
 699 0089 04       		.uleb128 0x4
 700 008a 08       		.byte	0x8
 701 008b 05       		.byte	0x5
 702 008c D4000000 		.4byte	.LASF11
 703 0090 03       		.uleb128 0x3
 704 0091 19030000 		.4byte	.LASF12
 705 0095 04       		.byte	0x4
 706 0096 4E       		.byte	0x4e
 707 0097 9B000000 		.4byte	0x9b
 708 009b 04       		.uleb128 0x4
 709 009c 08       		.byte	0x8
 710 009d 07       		.byte	0x7
 711 009e 68000000 		.4byte	.LASF13
 712 00a2 03       		.uleb128 0x3
 713 00a3 E1040000 		.4byte	.LASF14
 714 00a7 05       		.byte	0x5
 715 00a8 2A       		.byte	0x2a
 716 00a9 45000000 		.4byte	0x45
 717 00ad 03       		.uleb128 0x3
 718 00ae 95030000 		.4byte	.LASF15
 719 00b2 05       		.byte	0x5
 720 00b3 41       		.byte	0x41
 721 00b4 65000000 		.4byte	0x65
 722 00b8 03       		.uleb128 0x3
 723 00b9 25040000 		.4byte	.LASF16
 724 00bd 05       		.byte	0x5
 725 00be 42       		.byte	0x42
 726 00bf 77000000 		.4byte	0x77
 727 00c3 03       		.uleb128 0x3
 728 00c4 29000000 		.4byte	.LASF17
 729 00c8 05       		.byte	0x5
 730 00c9 4E       		.byte	0x4e
 731 00ca 90000000 		.4byte	0x90
 732 00ce 03       		.uleb128 0x3
 733 00cf 9C040000 		.4byte	.LASF18
 734 00d3 06       		.byte	0x6
 735 00d4 39       		.byte	0x39
 736 00d5 B8000000 		.4byte	0xb8
 737 00d9 03       		.uleb128 0x3
 738 00da 07020000 		.4byte	.LASF19
 739 00de 06       		.byte	0x6
 740 00df 3C       		.byte	0x3c
 741 00e0 A2000000 		.4byte	0xa2
 742 00e4 03       		.uleb128 0x3
 743 00e5 27010000 		.4byte	.LASF20
 744 00e9 06       		.byte	0x6
 745 00ea 3D       		.byte	0x3d
ARM GAS  /tmp/ccJfAsKX.s 			page 39


 746 00eb A2000000 		.4byte	0xa2
 747 00ef 03       		.uleb128 0x3
 748 00f0 24030000 		.4byte	.LASF21
 749 00f4 06       		.byte	0x6
 750 00f5 3E       		.byte	0x3e
 751 00f6 A2000000 		.4byte	0xa2
 752 00fa 03       		.uleb128 0x3
 753 00fb 49030000 		.4byte	.LASF22
 754 00ff 06       		.byte	0x6
 755 0100 40       		.byte	0x40
 756 0101 B8000000 		.4byte	0xb8
 757 0105 03       		.uleb128 0x3
 758 0106 EC010000 		.4byte	.LASF23
 759 010a 06       		.byte	0x6
 760 010b 41       		.byte	0x41
 761 010c AD000000 		.4byte	0xad
 762 0110 03       		.uleb128 0x3
 763 0111 1D020000 		.4byte	.LASF24
 764 0115 06       		.byte	0x6
 765 0116 43       		.byte	0x43
 766 0117 B8000000 		.4byte	0xb8
 767 011b 03       		.uleb128 0x3
 768 011c 5F010000 		.4byte	.LASF25
 769 0120 06       		.byte	0x6
 770 0121 45       		.byte	0x45
 771 0122 AD000000 		.4byte	0xad
 772 0126 03       		.uleb128 0x3
 773 0127 78040000 		.4byte	.LASF26
 774 012b 07       		.byte	0x7
 775 012c 33       		.byte	0x33
 776 012d B8000000 		.4byte	0xb8
 777 0131 03       		.uleb128 0x3
 778 0132 6F040000 		.4byte	.LASF27
 779 0136 07       		.byte	0x7
 780 0137 3F       		.byte	0x3f
 781 0138 3C010000 		.4byte	0x13c
 782 013c 05       		.uleb128 0x5
 783 013d E2010000 		.4byte	.LASF45
 784 0141 44       		.byte	0x44
 785 0142 08       		.byte	0x8
 786 0143 9A       		.byte	0x9a
 787 0144 1A020000 		.4byte	0x21a
 788 0148 06       		.uleb128 0x6
 789 0149 35010000 		.4byte	.LASF28
 790 014d 08       		.byte	0x8
 791 014e 9B       		.byte	0x9b
 792 014f 4F020000 		.4byte	0x24f
 793 0153 00       		.byte	0
 794 0154 06       		.uleb128 0x6
 795 0155 0C030000 		.4byte	.LASF29
 796 0159 08       		.byte	0x8
 797 015a 9C       		.byte	0x9c
 798 015b FA000000 		.4byte	0xfa
 799 015f 08       		.byte	0x8
 800 0160 07       		.uleb128 0x7
 801 0161 63747800 		.ascii	"ctx\000"
 802 0165 08       		.byte	0x8
ARM GAS  /tmp/ccJfAsKX.s 			page 40


 803 0166 9D       		.byte	0x9d
 804 0167 47040000 		.4byte	0x447
 805 016b 0C       		.byte	0xc
 806 016c 06       		.uleb128 0x6
 807 016d A4040000 		.4byte	.LASF30
 808 0171 08       		.byte	0x8
 809 0172 9F       		.byte	0x9f
 810 0173 25020000 		.4byte	0x225
 811 0177 10       		.byte	0x10
 812 0178 06       		.uleb128 0x6
 813 0179 69040000 		.4byte	.LASF31
 814 017d 08       		.byte	0x8
 815 017e A0       		.byte	0xa0
 816 017f 25020000 		.4byte	0x225
 817 0183 14       		.byte	0x14
 818 0184 06       		.uleb128 0x6
 819 0185 C4010000 		.4byte	.LASF32
 820 0189 08       		.byte	0x8
 821 018a A7       		.byte	0xa7
 822 018b CC050000 		.4byte	0x5cc
 823 018f 18       		.byte	0x18
 824 0190 06       		.uleb128 0x6
 825 0191 5D040000 		.4byte	.LASF33
 826 0195 08       		.byte	0x8
 827 0196 B0       		.byte	0xb0
 828 0197 DE050000 		.4byte	0x5de
 829 019b 1C       		.byte	0x1c
 830 019c 06       		.uleb128 0x6
 831 019d 0E010000 		.4byte	.LASF34
 832 01a1 08       		.byte	0x8
 833 01a2 B5       		.byte	0xb5
 834 01a3 E4000000 		.4byte	0xe4
 835 01a7 20       		.byte	0x20
 836 01a8 06       		.uleb128 0x6
 837 01a9 E9040000 		.4byte	.LASF35
 838 01ad 08       		.byte	0x8
 839 01ae B9       		.byte	0xb9
 840 01af D9000000 		.4byte	0xd9
 841 01b3 21       		.byte	0x21
 842 01b4 06       		.uleb128 0x6
 843 01b5 2C030000 		.4byte	.LASF36
 844 01b9 08       		.byte	0x8
 845 01ba BE       		.byte	0xbe
 846 01bb EF000000 		.4byte	0xef
 847 01bf 22       		.byte	0x22
 848 01c0 08       		.uleb128 0x8
 849 01c1 7500     		.ascii	"u\000"
 850 01c3 08       		.byte	0x8
 851 01c4 0F01     		.2byte	0x10f
 852 01c6 01050000 		.4byte	0x501
 853 01ca 24       		.byte	0x24
 854 01cb 09       		.uleb128 0x9
 855 01cc 4F010000 		.4byte	.LASF37
 856 01d0 08       		.byte	0x8
 857 01d1 1401     		.2byte	0x114
 858 01d3 2B020000 		.4byte	0x22b
 859 01d7 28       		.byte	0x28
ARM GAS  /tmp/ccJfAsKX.s 			page 41


 860 01d8 09       		.uleb128 0x9
 861 01d9 05010000 		.4byte	.LASF38
 862 01dd 08       		.byte	0x8
 863 01de 1A01     		.2byte	0x11a
 864 01e0 4F020000 		.4byte	0x24f
 865 01e4 2C       		.byte	0x2c
 866 01e5 09       		.uleb128 0x9
 867 01e6 F2010000 		.4byte	.LASF39
 868 01ea 08       		.byte	0x8
 869 01eb 2001     		.2byte	0x120
 870 01ed 10010000 		.4byte	0x110
 871 01f1 34       		.byte	0x34
 872 01f2 09       		.uleb128 0x9
 873 01f3 F7050000 		.4byte	.LASF40
 874 01f7 08       		.byte	0x8
 875 01f8 2701     		.2byte	0x127
 876 01fa C6050000 		.4byte	0x5c6
 877 01fe 38       		.byte	0x38
 878 01ff 09       		.uleb128 0x9
 879 0200 5B020000 		.4byte	.LASF41
 880 0204 08       		.byte	0x8
 881 0205 2B01     		.2byte	0x12b
 882 0207 FA000000 		.4byte	0xfa
 883 020b 3C       		.byte	0x3c
 884 020c 09       		.uleb128 0x9
 885 020d C9010000 		.4byte	.LASF42
 886 0211 08       		.byte	0x8
 887 0212 3201     		.2byte	0x132
 888 0214 02030000 		.4byte	0x302
 889 0218 40       		.byte	0x40
 890 0219 00       		.byte	0
 891 021a 03       		.uleb128 0x3
 892 021b 6D020000 		.4byte	.LASF43
 893 021f 07       		.byte	0x7
 894 0220 44       		.byte	0x44
 895 0221 25020000 		.4byte	0x225
 896 0225 0A       		.uleb128 0xa
 897 0226 04       		.byte	0x4
 898 0227 31010000 		.4byte	0x131
 899 022b 03       		.uleb128 0x3
 900 022c E8050000 		.4byte	.LASF44
 901 0230 07       		.byte	0x7
 902 0231 49       		.byte	0x49
 903 0232 36020000 		.4byte	0x236
 904 0236 05       		.uleb128 0x5
 905 0237 35040000 		.4byte	.LASF46
 906 023b 04       		.byte	0x4
 907 023c 08       		.byte	0x8
 908 023d 88       		.byte	0x88
 909 023e 4F020000 		.4byte	0x24f
 910 0242 06       		.uleb128 0x6
 911 0243 BE000000 		.4byte	.LASF47
 912 0247 08       		.byte	0x8
 913 0248 89       		.byte	0x89
 914 0249 25020000 		.4byte	0x225
 915 024d 00       		.byte	0
 916 024e 00       		.byte	0
ARM GAS  /tmp/ccJfAsKX.s 			page 42


 917 024f 03       		.uleb128 0x3
 918 0250 B4040000 		.4byte	.LASF48
 919 0254 07       		.byte	0x7
 920 0255 50       		.byte	0x50
 921 0256 5A020000 		.4byte	0x25a
 922 025a 05       		.uleb128 0x5
 923 025b C3000000 		.4byte	.LASF49
 924 025f 08       		.byte	0x8
 925 0260 08       		.byte	0x8
 926 0261 8F       		.byte	0x8f
 927 0262 7F020000 		.4byte	0x27f
 928 0266 06       		.uleb128 0x6
 929 0267 BE000000 		.4byte	.LASF47
 930 026b 08       		.byte	0x8
 931 026c 90       		.byte	0x90
 932 026d 25020000 		.4byte	0x225
 933 0271 00       		.byte	0
 934 0272 06       		.uleb128 0x6
 935 0273 3C000000 		.4byte	.LASF50
 936 0277 08       		.byte	0x8
 937 0278 91       		.byte	0x91
 938 0279 25020000 		.4byte	0x225
 939 027d 04       		.byte	0x4
 940 027e 00       		.byte	0
 941 027f 03       		.uleb128 0x3
 942 0280 08000000 		.4byte	.LASF51
 943 0284 07       		.byte	0x7
 944 0285 57       		.byte	0x57
 945 0286 8A020000 		.4byte	0x28a
 946 028a 0B       		.uleb128 0xb
 947 028b 0F020000 		.4byte	.LASF52
 948 028f 1C       		.byte	0x1c
 949 0290 08       		.byte	0x8
 950 0291 6A01     		.2byte	0x16a
 951 0293 E6020000 		.4byte	0x2e6
 952 0297 09       		.uleb128 0x9
 953 0298 35010000 		.4byte	.LASF28
 954 029c 08       		.byte	0x8
 955 029d 6B01     		.2byte	0x16b
 956 029f 4F020000 		.4byte	0x24f
 957 02a3 00       		.byte	0
 958 02a4 09       		.uleb128 0x9
 959 02a5 0C030000 		.4byte	.LASF29
 960 02a9 08       		.byte	0x8
 961 02aa 6C01     		.2byte	0x16c
 962 02ac FA000000 		.4byte	0xfa
 963 02b0 08       		.byte	0x8
 964 02b1 08       		.uleb128 0x8
 965 02b2 63747800 		.ascii	"ctx\000"
 966 02b6 08       		.byte	0x8
 967 02b7 6E01     		.2byte	0x16e
 968 02b9 47040000 		.4byte	0x447
 969 02bd 0C       		.byte	0xc
 970 02be 09       		.uleb128 0x9
 971 02bf A4040000 		.4byte	.LASF30
 972 02c3 08       		.byte	0x8
 973 02c4 7101     		.2byte	0x171
ARM GAS  /tmp/ccJfAsKX.s 			page 43


 974 02c6 25020000 		.4byte	0x225
 975 02ca 10       		.byte	0x10
 976 02cb 09       		.uleb128 0x9
 977 02cc 69040000 		.4byte	.LASF31
 978 02d0 08       		.byte	0x8
 979 02d1 7201     		.2byte	0x172
 980 02d3 25020000 		.4byte	0x225
 981 02d7 14       		.byte	0x14
 982 02d8 09       		.uleb128 0x9
 983 02d9 11030000 		.4byte	.LASF53
 984 02dd 08       		.byte	0x8
 985 02de 7501     		.2byte	0x175
 986 02e0 25020000 		.4byte	0x225
 987 02e4 18       		.byte	0x18
 988 02e5 00       		.byte	0
 989 02e6 03       		.uleb128 0x3
 990 02e7 82040000 		.4byte	.LASF54
 991 02eb 07       		.byte	0x7
 992 02ec 5C       		.byte	0x5c
 993 02ed F1020000 		.4byte	0x2f1
 994 02f1 0A       		.uleb128 0xa
 995 02f2 04       		.byte	0x4
 996 02f3 F7020000 		.4byte	0x2f7
 997 02f7 0C       		.uleb128 0xc
 998 02f8 02030000 		.4byte	0x302
 999 02fc 0D       		.uleb128 0xd
 1000 02fd 02030000 		.4byte	0x302
 1001 0301 00       		.byte	0
 1002 0302 0E       		.uleb128 0xe
 1003 0303 04       		.byte	0x4
 1004 0304 03       		.uleb128 0x3
 1005 0305 31030000 		.4byte	.LASF55
 1006 0309 07       		.byte	0x7
 1007 030a 61       		.byte	0x61
 1008 030b 0F030000 		.4byte	0x30f
 1009 030f 0B       		.uleb128 0xb
 1010 0310 EC030000 		.4byte	.LASF56
 1011 0314 14       		.byte	0x14
 1012 0315 08       		.byte	0x8
 1013 0316 4501     		.2byte	0x145
 1014 0318 5E030000 		.4byte	0x35e
 1015 031c 09       		.uleb128 0x9
 1016 031d BE000000 		.4byte	.LASF47
 1017 0321 08       		.byte	0x8
 1018 0322 4601     		.2byte	0x146
 1019 0324 E4050000 		.4byte	0x5e4
 1020 0328 00       		.byte	0
 1021 0329 09       		.uleb128 0x9
 1022 032a 3C000000 		.4byte	.LASF50
 1023 032e 08       		.byte	0x8
 1024 032f 4701     		.2byte	0x147
 1025 0331 E4050000 		.4byte	0x5e4
 1026 0335 04       		.byte	0x4
 1027 0336 09       		.uleb128 0x9
 1028 0337 1C000000 		.4byte	.LASF57
 1029 033b 08       		.byte	0x8
 1030 033c 4801     		.2byte	0x148
ARM GAS  /tmp/ccJfAsKX.s 			page 44


 1031 033e 26010000 		.4byte	0x126
 1032 0342 08       		.byte	0x8
 1033 0343 09       		.uleb128 0x9
 1034 0344 30010000 		.4byte	.LASF58
 1035 0348 08       		.byte	0x8
 1036 0349 4901     		.2byte	0x149
 1037 034b E6020000 		.4byte	0x2e6
 1038 034f 0C       		.byte	0xc
 1039 0350 08       		.uleb128 0x8
 1040 0351 70617200 		.ascii	"par\000"
 1041 0355 08       		.byte	0x8
 1042 0356 4B01     		.2byte	0x14b
 1043 0358 02030000 		.4byte	0x302
 1044 035c 10       		.byte	0x10
 1045 035d 00       		.byte	0
 1046 035e 03       		.uleb128 0x3
 1047 035f 9B000000 		.4byte	.LASF59
 1048 0363 07       		.byte	0x7
 1049 0364 66       		.byte	0x66
 1050 0365 69030000 		.4byte	0x369
 1051 0369 0B       		.uleb128 0xb
 1052 036a 80020000 		.4byte	.LASF60
 1053 036e 10       		.byte	0x10
 1054 036f 08       		.byte	0x8
 1055 0370 5501     		.2byte	0x155
 1056 0372 AB030000 		.4byte	0x3ab
 1057 0376 09       		.uleb128 0x9
 1058 0377 BE000000 		.4byte	.LASF47
 1059 037b 08       		.byte	0x8
 1060 037c 5601     		.2byte	0x156
 1061 037e E4050000 		.4byte	0x5e4
 1062 0382 00       		.byte	0
 1063 0383 09       		.uleb128 0x9
 1064 0384 3C000000 		.4byte	.LASF50
 1065 0388 08       		.byte	0x8
 1066 0389 5801     		.2byte	0x158
 1067 038b E4050000 		.4byte	0x5e4
 1068 038f 04       		.byte	0x4
 1069 0390 09       		.uleb128 0x9
 1070 0391 1C000000 		.4byte	.LASF57
 1071 0395 08       		.byte	0x8
 1072 0396 5A01     		.2byte	0x15a
 1073 0398 26010000 		.4byte	0x126
 1074 039c 08       		.byte	0x8
 1075 039d 09       		.uleb128 0x9
 1076 039e B5030000 		.4byte	.LASF61
 1077 03a2 08       		.byte	0x8
 1078 03a3 6201     		.2byte	0x162
 1079 03a5 26010000 		.4byte	0x126
 1080 03a9 0C       		.byte	0xc
 1081 03aa 00       		.byte	0
 1082 03ab 03       		.uleb128 0x3
 1083 03ac 4D000000 		.4byte	.LASF62
 1084 03b0 07       		.byte	0x7
 1085 03b1 6B       		.byte	0x6b
 1086 03b2 B6030000 		.4byte	0x3b6
 1087 03b6 0B       		.uleb128 0xb
ARM GAS  /tmp/ccJfAsKX.s 			page 45


 1088 03b7 7F030000 		.4byte	.LASF63
 1089 03bb 04       		.byte	0x4
 1090 03bc 08       		.byte	0x8
 1091 03bd 7C01     		.2byte	0x17c
 1092 03bf D1030000 		.4byte	0x3d1
 1093 03c3 09       		.uleb128 0x9
 1094 03c4 8B040000 		.4byte	.LASF64
 1095 03c8 08       		.byte	0x8
 1096 03c9 8401     		.2byte	0x184
 1097 03cb EA050000 		.4byte	0x5ea
 1098 03cf 00       		.byte	0
 1099 03d0 00       		.byte	0
 1100 03d1 03       		.uleb128 0x3
 1101 03d2 FB010000 		.4byte	.LASF65
 1102 03d6 07       		.byte	0x7
 1103 03d7 70       		.byte	0x70
 1104 03d8 DC030000 		.4byte	0x3dc
 1105 03dc 0B       		.uleb128 0xb
 1106 03dd CD030000 		.4byte	.LASF66
 1107 03e1 78       		.byte	0x78
 1108 03e2 08       		.byte	0x8
 1109 03e3 9C01     		.2byte	0x19c
 1110 03e5 2A040000 		.4byte	0x42a
 1111 03e9 09       		.uleb128 0x9
 1112 03ea CD040000 		.4byte	.LASF67
 1113 03ee 08       		.byte	0x8
 1114 03ef A001     		.2byte	0x1a0
 1115 03f1 7F020000 		.4byte	0x27f
 1116 03f5 00       		.byte	0
 1117 03f6 09       		.uleb128 0x9
 1118 03f7 FE000000 		.4byte	.LASF68
 1119 03fb 08       		.byte	0x8
 1120 03fc A401     		.2byte	0x1a4
 1121 03fe 5E030000 		.4byte	0x35e
 1122 0402 1C       		.byte	0x1c
 1123 0403 08       		.uleb128 0x8
 1124 0404 64626700 		.ascii	"dbg\000"
 1125 0408 08       		.byte	0x8
 1126 0409 A801     		.2byte	0x1a8
 1127 040b AB030000 		.4byte	0x3ab
 1128 040f 2C       		.byte	0x2c
 1129 0410 09       		.uleb128 0x9
 1130 0411 88000000 		.4byte	.LASF69
 1131 0415 08       		.byte	0x8
 1132 0416 AC01     		.2byte	0x1ac
 1133 0418 31010000 		.4byte	0x131
 1134 041c 30       		.byte	0x30
 1135 041d 08       		.uleb128 0x8
 1136 041e 746D00   		.ascii	"tm\000"
 1137 0421 08       		.byte	0x8
 1138 0422 B101     		.2byte	0x1b1
 1139 0424 F6040000 		.4byte	0x4f6
 1140 0428 74       		.byte	0x74
 1141 0429 00       		.byte	0
 1142 042a 04       		.uleb128 0x4
 1143 042b 04       		.byte	0x4
 1144 042c 07       		.byte	0x7
ARM GAS  /tmp/ccJfAsKX.s 			page 46


 1145 042d 64020000 		.4byte	.LASF70
 1146 0431 03       		.uleb128 0x3
 1147 0432 46010000 		.4byte	.LASF71
 1148 0436 09       		.byte	0x9
 1149 0437 65       		.byte	0x65
 1150 0438 02030000 		.4byte	0x302
 1151 043c 03       		.uleb128 0x3
 1152 043d 33020000 		.4byte	.LASF72
 1153 0441 09       		.byte	0x9
 1154 0442 6D       		.byte	0x6d
 1155 0443 C3000000 		.4byte	0xc3
 1156 0447 05       		.uleb128 0x5
 1157 0448 D1020000 		.4byte	.LASF73
 1158 044c 04       		.byte	0x4
 1159 044d 09       		.byte	0x9
 1160 044e 89       		.byte	0x89
 1161 044f 5F040000 		.4byte	0x45f
 1162 0453 07       		.uleb128 0x7
 1163 0454 737000   		.ascii	"sp\000"
 1164 0457 09       		.byte	0x9
 1165 0458 8A       		.byte	0x8a
 1166 0459 DB040000 		.4byte	0x4db
 1167 045d 00       		.byte	0
 1168 045e 00       		.byte	0
 1169 045f 0B       		.uleb128 0xb
 1170 0460 41000000 		.4byte	.LASF74
 1171 0464 24       		.byte	0x24
 1172 0465 0A       		.byte	0xa
 1173 0466 5901     		.2byte	0x159
 1174 0468 DB040000 		.4byte	0x4db
 1175 046c 08       		.uleb128 0x8
 1176 046d 723400   		.ascii	"r4\000"
 1177 0470 0A       		.byte	0xa
 1178 0471 6C01     		.2byte	0x16c
 1179 0473 31040000 		.4byte	0x431
 1180 0477 00       		.byte	0
 1181 0478 08       		.uleb128 0x8
 1182 0479 723500   		.ascii	"r5\000"
 1183 047c 0A       		.byte	0xa
 1184 047d 6D01     		.2byte	0x16d
 1185 047f 31040000 		.4byte	0x431
 1186 0483 04       		.byte	0x4
 1187 0484 08       		.uleb128 0x8
 1188 0485 723600   		.ascii	"r6\000"
 1189 0488 0A       		.byte	0xa
 1190 0489 6E01     		.2byte	0x16e
 1191 048b 31040000 		.4byte	0x431
 1192 048f 08       		.byte	0x8
 1193 0490 08       		.uleb128 0x8
 1194 0491 723700   		.ascii	"r7\000"
 1195 0494 0A       		.byte	0xa
 1196 0495 6F01     		.2byte	0x16f
 1197 0497 31040000 		.4byte	0x431
 1198 049b 0C       		.byte	0xc
 1199 049c 08       		.uleb128 0x8
 1200 049d 723800   		.ascii	"r8\000"
 1201 04a0 0A       		.byte	0xa
ARM GAS  /tmp/ccJfAsKX.s 			page 47


 1202 04a1 7001     		.2byte	0x170
 1203 04a3 31040000 		.4byte	0x431
 1204 04a7 10       		.byte	0x10
 1205 04a8 08       		.uleb128 0x8
 1206 04a9 723900   		.ascii	"r9\000"
 1207 04ac 0A       		.byte	0xa
 1208 04ad 7101     		.2byte	0x171
 1209 04af 31040000 		.4byte	0x431
 1210 04b3 14       		.byte	0x14
 1211 04b4 08       		.uleb128 0x8
 1212 04b5 72313000 		.ascii	"r10\000"
 1213 04b9 0A       		.byte	0xa
 1214 04ba 7201     		.2byte	0x172
 1215 04bc 31040000 		.4byte	0x431
 1216 04c0 18       		.byte	0x18
 1217 04c1 08       		.uleb128 0x8
 1218 04c2 72313100 		.ascii	"r11\000"
 1219 04c6 0A       		.byte	0xa
 1220 04c7 7301     		.2byte	0x173
 1221 04c9 31040000 		.4byte	0x431
 1222 04cd 1C       		.byte	0x1c
 1223 04ce 08       		.uleb128 0x8
 1224 04cf 6C7200   		.ascii	"lr\000"
 1225 04d2 0A       		.byte	0xa
 1226 04d3 7401     		.2byte	0x174
 1227 04d5 31040000 		.4byte	0x431
 1228 04d9 20       		.byte	0x20
 1229 04da 00       		.byte	0
 1230 04db 0A       		.uleb128 0xa
 1231 04dc 04       		.byte	0x4
 1232 04dd 5F040000 		.4byte	0x45f
 1233 04e1 0F       		.uleb128 0xf
 1234 04e2 04       		.byte	0x4
 1235 04e3 0B       		.byte	0xb
 1236 04e4 38       		.byte	0x38
 1237 04e5 F6040000 		.4byte	0x4f6
 1238 04e9 06       		.uleb128 0x6
 1239 04ea 95040000 		.4byte	.LASF75
 1240 04ee 0B       		.byte	0xb
 1241 04ef 3C       		.byte	0x3c
 1242 04f0 CE000000 		.4byte	0xce
 1243 04f4 00       		.byte	0
 1244 04f5 00       		.byte	0
 1245 04f6 03       		.uleb128 0x3
 1246 04f7 AE020000 		.4byte	.LASF76
 1247 04fb 0B       		.byte	0xb
 1248 04fc 3D       		.byte	0x3d
 1249 04fd E1040000 		.4byte	0x4e1
 1250 0501 10       		.uleb128 0x10
 1251 0502 04       		.byte	0x4
 1252 0503 08       		.byte	0x8
 1253 0504 D2       		.byte	0xd2
 1254 0505 64050000 		.4byte	0x564
 1255 0509 11       		.uleb128 0x11
 1256 050a 22000000 		.4byte	.LASF77
 1257 050e 08       		.byte	0x8
 1258 050f D9       		.byte	0xd9
ARM GAS  /tmp/ccJfAsKX.s 			page 48


 1259 0510 05010000 		.4byte	0x105
 1260 0514 11       		.uleb128 0x11
 1261 0515 7F000000 		.4byte	.LASF78
 1262 0519 08       		.byte	0x8
 1263 051a E0       		.byte	0xe0
 1264 051b 05010000 		.4byte	0x105
 1265 051f 11       		.uleb128 0x11
 1266 0520 E1050000 		.4byte	.LASF79
 1267 0524 08       		.byte	0x8
 1268 0525 E7       		.byte	0xe7
 1269 0526 02030000 		.4byte	0x302
 1270 052a 11       		.uleb128 0x11
 1271 052b 79010000 		.4byte	.LASF80
 1272 052f 08       		.byte	0x8
 1273 0530 EE       		.byte	0xee
 1274 0531 64050000 		.4byte	0x564
 1275 0535 11       		.uleb128 0x11
 1276 0536 93000000 		.4byte	.LASF81
 1277 053a 08       		.byte	0x8
 1278 053b F3       		.byte	0xf3
 1279 053c 05010000 		.4byte	0x105
 1280 0540 11       		.uleb128 0x11
 1281 0541 72010000 		.4byte	.LASF82
 1282 0545 08       		.byte	0x8
 1283 0546 FC       		.byte	0xfc
 1284 0547 8F050000 		.4byte	0x58f
 1285 054b 12       		.uleb128 0x12
 1286 054c 2E040000 		.4byte	.LASF83
 1287 0550 08       		.byte	0x8
 1288 0551 0501     		.2byte	0x105
 1289 0553 C6050000 		.4byte	0x5c6
 1290 0557 12       		.uleb128 0x12
 1291 0558 C6030000 		.4byte	.LASF84
 1292 055c 08       		.byte	0x8
 1293 055d 0D01     		.2byte	0x10d
 1294 055f 10010000 		.4byte	0x110
 1295 0563 00       		.byte	0
 1296 0564 0A       		.uleb128 0xa
 1297 0565 04       		.byte	0x4
 1298 0566 1A020000 		.4byte	0x21a
 1299 056a 05       		.uleb128 0x5
 1300 056b 0A040000 		.4byte	.LASF85
 1301 056f 0C       		.byte	0xc
 1302 0570 0C       		.byte	0xc
 1303 0571 34       		.byte	0x34
 1304 0572 8F050000 		.4byte	0x58f
 1305 0576 06       		.uleb128 0x6
 1306 0577 35010000 		.4byte	.LASF28
 1307 057b 0C       		.byte	0xc
 1308 057c 35       		.byte	0x35
 1309 057d 4F020000 		.4byte	0x24f
 1310 0581 00       		.byte	0
 1311 0582 07       		.uleb128 0x7
 1312 0583 636E7400 		.ascii	"cnt\000"
 1313 0587 0C       		.byte	0xc
 1314 0588 37       		.byte	0x37
 1315 0589 1B010000 		.4byte	0x11b
ARM GAS  /tmp/ccJfAsKX.s 			page 49


 1316 058d 08       		.byte	0x8
 1317 058e 00       		.byte	0
 1318 058f 0A       		.uleb128 0xa
 1319 0590 04       		.byte	0x4
 1320 0591 6A050000 		.4byte	0x56a
 1321 0595 05       		.uleb128 0x5
 1322 0596 C4040000 		.4byte	.LASF86
 1323 059a 10       		.byte	0x10
 1324 059b 0D       		.byte	0xd
 1325 059c 39       		.byte	0x39
 1326 059d C6050000 		.4byte	0x5c6
 1327 05a1 06       		.uleb128 0x6
 1328 05a2 35010000 		.4byte	.LASF28
 1329 05a6 0D       		.byte	0xd
 1330 05a7 3A       		.byte	0x3a
 1331 05a8 4F020000 		.4byte	0x24f
 1332 05ac 00       		.byte	0
 1333 05ad 06       		.uleb128 0x6
 1334 05ae 45040000 		.4byte	.LASF87
 1335 05b2 0D       		.byte	0xd
 1336 05b3 3C       		.byte	0x3c
 1337 05b4 25020000 		.4byte	0x225
 1338 05b8 08       		.byte	0x8
 1339 05b9 06       		.uleb128 0x6
 1340 05ba BE000000 		.4byte	.LASF47
 1341 05be 0D       		.byte	0xd
 1342 05bf 3E       		.byte	0x3e
 1343 05c0 05060000 		.4byte	0x605
 1344 05c4 0C       		.byte	0xc
 1345 05c5 00       		.byte	0
 1346 05c6 0A       		.uleb128 0xa
 1347 05c7 04       		.byte	0x4
 1348 05c8 95050000 		.4byte	0x595
 1349 05cc 0A       		.uleb128 0xa
 1350 05cd 04       		.byte	0x4
 1351 05ce D2050000 		.4byte	0x5d2
 1352 05d2 13       		.uleb128 0x13
 1353 05d3 D7050000 		.4byte	0x5d7
 1354 05d7 04       		.uleb128 0x4
 1355 05d8 01       		.byte	0x1
 1356 05d9 08       		.byte	0x8
 1357 05da 64040000 		.4byte	.LASF88
 1358 05de 0A       		.uleb128 0xa
 1359 05df 04       		.byte	0x4
 1360 05e0 3C040000 		.4byte	0x43c
 1361 05e4 0A       		.uleb128 0xa
 1362 05e5 04       		.byte	0x4
 1363 05e6 04030000 		.4byte	0x304
 1364 05ea 14       		.uleb128 0x14
 1365 05eb CC050000 		.4byte	0x5cc
 1366 05ef 03       		.uleb128 0x3
 1367 05f0 00000000 		.4byte	.LASF89
 1368 05f4 02       		.byte	0x2
 1369 05f5 40       		.byte	0x40
 1370 05f6 F1020000 		.4byte	0x2f1
 1371 05fa 03       		.uleb128 0x3
 1372 05fb 57010000 		.4byte	.LASF90
ARM GAS  /tmp/ccJfAsKX.s 			page 50


 1373 05ff 0D       		.byte	0xd
 1374 0600 34       		.byte	0x34
 1375 0601 95050000 		.4byte	0x595
 1376 0605 0A       		.uleb128 0xa
 1377 0606 04       		.byte	0x4
 1378 0607 FA050000 		.4byte	0x5fa
 1379 060b 04       		.uleb128 0x4
 1380 060c 01       		.byte	0x1
 1381 060d 02       		.byte	0x2
 1382 060e 8F030000 		.4byte	.LASF91
 1383 0612 0A       		.uleb128 0xa
 1384 0613 04       		.byte	0x4
 1385 0614 18060000 		.4byte	0x618
 1386 0618 15       		.uleb128 0x15
 1387 0619 0F       		.uleb128 0xf
 1388 061a 10       		.byte	0x10
 1389 061b 0E       		.byte	0xe
 1390 061c 3D       		.byte	0x3d
 1391 061d 52060000 		.4byte	0x652
 1392 0621 06       		.uleb128 0x6
 1393 0622 C4010000 		.4byte	.LASF32
 1394 0626 0E       		.byte	0xe
 1395 0627 3E       		.byte	0x3e
 1396 0628 CC050000 		.4byte	0x5cc
 1397 062c 00       		.byte	0
 1398 062d 06       		.uleb128 0x6
 1399 062e F0020000 		.4byte	.LASF92
 1400 0632 0E       		.byte	0xe
 1401 0633 3F       		.byte	0x3f
 1402 0634 12060000 		.4byte	0x612
 1403 0638 04       		.byte	0x4
 1404 0639 06       		.uleb128 0x6
 1405 063a B2010000 		.4byte	.LASF93
 1406 063e 0E       		.byte	0xe
 1407 063f 40       		.byte	0x40
 1408 0640 12060000 		.4byte	0x612
 1409 0644 08       		.byte	0x8
 1410 0645 06       		.uleb128 0x6
 1411 0646 41030000 		.4byte	.LASF94
 1412 064a 0E       		.byte	0xe
 1413 064b 41       		.byte	0x41
 1414 064c 12060000 		.4byte	0x612
 1415 0650 0C       		.byte	0xc
 1416 0651 00       		.byte	0
 1417 0652 03       		.uleb128 0x3
 1418 0653 3E020000 		.4byte	.LASF95
 1419 0657 0E       		.byte	0xe
 1420 0658 42       		.byte	0x42
 1421 0659 19060000 		.4byte	0x619
 1422 065d 16       		.uleb128 0x16
 1423 065e D3040000 		.4byte	.LASF96
 1424 0662 02       		.byte	0x2
 1425 0663 1301     		.2byte	0x113
 1426 0665 25020000 		.4byte	0x225
 1427 0669 03       		.byte	0x3
 1428 066a 17       		.uleb128 0x17
 1429 066b BB010000 		.4byte	.LASF114
ARM GAS  /tmp/ccJfAsKX.s 			page 51


 1430 066f 11       		.byte	0x11
 1431 0670 60       		.byte	0x60
 1432 0671 05010000 		.4byte	0x105
 1433 0675 03       		.byte	0x3
 1434 0676 92060000 		.4byte	0x692
 1435 067a 18       		.uleb128 0x18
 1436 067b 747000   		.ascii	"tp\000"
 1437 067e 11       		.byte	0x11
 1438 067f 60       		.byte	0x60
 1439 0680 25020000 		.4byte	0x225
 1440 0684 19       		.uleb128 0x19
 1441 0685 17040000 		.4byte	.LASF98
 1442 0689 A2060000 		.4byte	0x6a2
 1443 068d BB010000 		.4byte	.LASF114
 1444 0691 00       		.byte	0
 1445 0692 1A       		.uleb128 0x1a
 1446 0693 D7050000 		.4byte	0x5d7
 1447 0697 A2060000 		.4byte	0x6a2
 1448 069b 1B       		.uleb128 0x1b
 1449 069c 2A040000 		.4byte	0x42a
 1450 06a0 08       		.byte	0x8
 1451 06a1 00       		.byte	0
 1452 06a2 13       		.uleb128 0x13
 1453 06a3 92060000 		.4byte	0x692
 1454 06a7 16       		.uleb128 0x16
 1455 06a8 DE020000 		.4byte	.LASF97
 1456 06ac 02       		.byte	0x2
 1457 06ad 2001     		.2byte	0x120
 1458 06af FA000000 		.4byte	0xfa
 1459 06b3 03       		.byte	0x3
 1460 06b4 1C       		.uleb128 0x1c
 1461 06b5 D7030000 		.4byte	.LASF99
 1462 06b9 01       		.byte	0x1
 1463 06ba 4C       		.byte	0x4c
 1464 06bb 00000000 		.4byte	.LFB271
 1465 06bf 70000000 		.4byte	.LFE271-.LFB271
 1466 06c3 01       		.uleb128 0x1
 1467 06c4 9C       		.byte	0x9c
 1468 06c5 8E070000 		.4byte	0x78e
 1469 06c9 1D       		.uleb128 0x1d
 1470 06ca 747000   		.ascii	"tp\000"
 1471 06cd 01       		.byte	0x1
 1472 06ce 4D       		.byte	0x4d
 1473 06cf 25020000 		.4byte	0x225
 1474 06d3 00000000 		.4byte	.LLST0
 1475 06d7 1E       		.uleb128 0x1e
 1476 06d8 6D736700 		.ascii	"msg\000"
 1477 06dc 01       		.byte	0x1
 1478 06dd 4E       		.byte	0x4e
 1479 06de 05010000 		.4byte	0x105
 1480 06e2 1F       		.uleb128 0x1f
 1481 06e3 A7060000 		.4byte	0x6a7
 1482 06e7 02000000 		.4byte	.LBB13
 1483 06eb 00000000 		.4byte	.Ldebug_ranges0+0
 1484 06ef 01       		.byte	0x1
 1485 06f0 53       		.byte	0x53
 1486 06f1 06070000 		.4byte	0x706
ARM GAS  /tmp/ccJfAsKX.s 			page 52


 1487 06f5 20       		.uleb128 0x20
 1488 06f6 5D060000 		.4byte	0x65d
 1489 06fa 02000000 		.4byte	.LBB15
 1490 06fe 18000000 		.4byte	.Ldebug_ranges0+0x18
 1491 0702 02       		.byte	0x2
 1492 0703 2201     		.2byte	0x122
 1493 0705 00       		.byte	0
 1494 0706 21       		.uleb128 0x21
 1495 0707 30000000 		.4byte	.Ldebug_ranges0+0x30
 1496 070b 73070000 		.4byte	0x773
 1497 070f 1D       		.uleb128 0x1d
 1498 0710 6900     		.ascii	"i\000"
 1499 0712 01       		.byte	0x1
 1500 0713 5B       		.byte	0x5b
 1501 0714 37000000 		.4byte	0x37
 1502 0718 13000000 		.4byte	.LLST1
 1503 071c 22       		.uleb128 0x22
 1504 071d 30000000 		.4byte	.LVL3
 1505 0721 B9080000 		.4byte	0x8b9
 1506 0725 23       		.uleb128 0x23
 1507 0726 38000000 		.4byte	.LVL5
 1508 072a C4080000 		.4byte	0x8c4
 1509 072e 39070000 		.4byte	0x739
 1510 0732 24       		.uleb128 0x24
 1511 0733 01       		.uleb128 0x1
 1512 0734 51       		.byte	0x51
 1513 0735 02       		.uleb128 0x2
 1514 0736 75       		.byte	0x75
 1515 0737 00       		.sleb128 0
 1516 0738 00       		.byte	0
 1517 0739 23       		.uleb128 0x23
 1518 073a 3E000000 		.4byte	.LVL6
 1519 073e DA080000 		.4byte	0x8da
 1520 0742 4D070000 		.4byte	0x74d
 1521 0746 24       		.uleb128 0x24
 1522 0747 01       		.uleb128 0x1
 1523 0748 50       		.byte	0x50
 1524 0749 02       		.uleb128 0x2
 1525 074a 75       		.byte	0x75
 1526 074b 00       		.sleb128 0
 1527 074c 00       		.byte	0
 1528 074d 22       		.uleb128 0x22
 1529 074e 46000000 		.4byte	.LVL8
 1530 0752 EB080000 		.4byte	0x8eb
 1531 0756 25       		.uleb128 0x25
 1532 0757 54000000 		.4byte	.LVL10
 1533 075b F2080000 		.4byte	0x8f2
 1534 075f 24       		.uleb128 0x24
 1535 0760 01       		.uleb128 0x1
 1536 0761 51       		.byte	0x51
 1537 0762 05       		.uleb128 0x5
 1538 0763 03       		.byte	0x3
 1539 0764 08000000 		.4byte	.LC1
 1540 0768 24       		.uleb128 0x24
 1541 0769 01       		.uleb128 0x1
 1542 076a 50       		.byte	0x50
 1543 076b 05       		.uleb128 0x5
ARM GAS  /tmp/ccJfAsKX.s 			page 53


 1544 076c 03       		.byte	0x3
 1545 076d 00000000 		.4byte	.LC0
 1546 0771 00       		.byte	0
 1547 0772 00       		.byte	0
 1548 0773 26       		.uleb128 0x26
 1549 0774 22000000 		.4byte	.LVL0
 1550 0778 12090000 		.4byte	0x912
 1551 077c 24       		.uleb128 0x24
 1552 077d 01       		.uleb128 0x1
 1553 077e 53       		.byte	0x53
 1554 077f 05       		.uleb128 0x5
 1555 0780 03       		.byte	0x3
 1556 0781 00000000 		.4byte	msg_thread1
 1557 0785 24       		.uleb128 0x24
 1558 0786 01       		.uleb128 0x1
 1559 0787 51       		.byte	0x51
 1560 0788 03       		.uleb128 0x3
 1561 0789 0A       		.byte	0xa
 1562 078a 4801     		.2byte	0x148
 1563 078c 00       		.byte	0
 1564 078d 00       		.byte	0
 1565 078e 1C       		.uleb128 0x1c
 1566 078f 5C000000 		.4byte	.LASF100
 1567 0793 01       		.byte	0x1
 1568 0794 32       		.byte	0x32
 1569 0795 00000000 		.4byte	.LFB270
 1570 0799 26000000 		.4byte	.LFE270-.LFB270
 1571 079d 01       		.uleb128 0x1
 1572 079e 9C       		.byte	0x9c
 1573 079f 16080000 		.4byte	0x816
 1574 07a3 27       		.uleb128 0x27
 1575 07a4 7000     		.ascii	"p\000"
 1576 07a6 01       		.byte	0x1
 1577 07a7 32       		.byte	0x32
 1578 07a8 02030000 		.4byte	0x302
 1579 07ac 54000000 		.4byte	.LLST2
 1580 07b0 23       		.uleb128 0x23
 1581 07b1 0A000000 		.4byte	.LVL12
 1582 07b5 3B090000 		.4byte	0x93b
 1583 07b9 CA070000 		.4byte	0x7ca
 1584 07bd 24       		.uleb128 0x24
 1585 07be 01       		.uleb128 0x1
 1586 07bf 51       		.byte	0x51
 1587 07c0 02       		.uleb128 0x2
 1588 07c1 08       		.byte	0x8
 1589 07c2 41       		.byte	0x41
 1590 07c3 24       		.uleb128 0x24
 1591 07c4 01       		.uleb128 0x1
 1592 07c5 50       		.byte	0x50
 1593 07c6 02       		.uleb128 0x2
 1594 07c7 74       		.byte	0x74
 1595 07c8 00       		.sleb128 0
 1596 07c9 00       		.byte	0
 1597 07ca 23       		.uleb128 0x23
 1598 07cb 12000000 		.4byte	.LVL13
 1599 07cf 3B090000 		.4byte	0x93b
 1600 07d3 E4070000 		.4byte	0x7e4
ARM GAS  /tmp/ccJfAsKX.s 			page 54


 1601 07d7 24       		.uleb128 0x24
 1602 07d8 01       		.uleb128 0x1
 1603 07d9 51       		.byte	0x51
 1604 07da 02       		.uleb128 0x2
 1605 07db 08       		.byte	0x8
 1606 07dc 42       		.byte	0x42
 1607 07dd 24       		.uleb128 0x24
 1608 07de 01       		.uleb128 0x1
 1609 07df 50       		.byte	0x50
 1610 07e0 02       		.uleb128 0x2
 1611 07e1 74       		.byte	0x74
 1612 07e2 00       		.sleb128 0
 1613 07e3 00       		.byte	0
 1614 07e4 23       		.uleb128 0x23
 1615 07e5 1A000000 		.4byte	.LVL14
 1616 07e9 3B090000 		.4byte	0x93b
 1617 07ed FE070000 		.4byte	0x7fe
 1618 07f1 24       		.uleb128 0x24
 1619 07f2 01       		.uleb128 0x1
 1620 07f3 51       		.byte	0x51
 1621 07f4 02       		.uleb128 0x2
 1622 07f5 08       		.byte	0x8
 1623 07f6 43       		.byte	0x43
 1624 07f7 24       		.uleb128 0x24
 1625 07f8 01       		.uleb128 0x1
 1626 07f9 50       		.byte	0x50
 1627 07fa 02       		.uleb128 0x2
 1628 07fb 74       		.byte	0x74
 1629 07fc 00       		.sleb128 0
 1630 07fd 00       		.byte	0
 1631 07fe 25       		.uleb128 0x25
 1632 07ff 26000000 		.4byte	.LVL16
 1633 0803 3B090000 		.4byte	0x93b
 1634 0807 24       		.uleb128 0x24
 1635 0808 01       		.uleb128 0x1
 1636 0809 51       		.byte	0x51
 1637 080a 02       		.uleb128 0x2
 1638 080b 08       		.byte	0x8
 1639 080c 44       		.byte	0x44
 1640 080d 24       		.uleb128 0x24
 1641 080e 01       		.uleb128 0x1
 1642 080f 50       		.byte	0x50
 1643 0810 03       		.uleb128 0x3
 1644 0811 F3       		.byte	0xf3
 1645 0812 01       		.uleb128 0x1
 1646 0813 50       		.byte	0x50
 1647 0814 00       		.byte	0
 1648 0815 00       		.byte	0
 1649 0816 28       		.uleb128 0x28
 1650 0817 A1020000 		.4byte	.LASF101
 1651 081b 01       		.byte	0x1
 1652 081c 68       		.byte	0x68
 1653 081d 27080000 		.4byte	0x827
 1654 0821 05       		.uleb128 0x5
 1655 0822 03       		.byte	0x3
 1656 0823 00000000 		.4byte	test_006_001
 1657 0827 13       		.uleb128 0x13
ARM GAS  /tmp/ccJfAsKX.s 			page 55


 1658 0828 52060000 		.4byte	0x652
 1659 082c 29       		.uleb128 0x29
 1660 082d B1000000 		.4byte	.LASF102
 1661 0831 0F       		.byte	0xf
 1662 0832 4407     		.2byte	0x744
 1663 0834 38080000 		.4byte	0x838
 1664 0838 14       		.uleb128 0x14
 1665 0839 AD000000 		.4byte	0xad
 1666 083d 2A       		.uleb128 0x2a
 1667 083e 636800   		.ascii	"ch\000"
 1668 0841 08       		.byte	0x8
 1669 0842 D201     		.2byte	0x1d2
 1670 0844 D1030000 		.4byte	0x3d1
 1671 0848 2B       		.uleb128 0x2b
 1672 0849 97020000 		.4byte	.LASF103
 1673 084d 0E       		.byte	0xe
 1674 084e 9E       		.byte	0x9e
 1675 084f 37000000 		.4byte	0x37
 1676 0853 1A       		.uleb128 0x1a
 1677 0854 63080000 		.4byte	0x863
 1678 0858 63080000 		.4byte	0x863
 1679 085c 1B       		.uleb128 0x1b
 1680 085d 2A040000 		.4byte	0x42a
 1681 0861 01       		.byte	0x1
 1682 0862 00       		.byte	0
 1683 0863 0A       		.uleb128 0xa
 1684 0864 04       		.byte	0x4
 1685 0865 27080000 		.4byte	0x827
 1686 0869 2C       		.uleb128 0x2c
 1687 086a EF040000 		.4byte	.LASF104
 1688 086e 01       		.byte	0x1
 1689 086f 76       		.byte	0x76
 1690 0870 7A080000 		.4byte	0x87a
 1691 0874 05       		.uleb128 0x5
 1692 0875 03       		.byte	0x3
 1693 0876 00000000 		.4byte	test_sequence_006
 1694 087a 13       		.uleb128 0x13
 1695 087b 53080000 		.4byte	0x853
 1696 087f 1A       		.uleb128 0x1a
 1697 0880 25020000 		.4byte	0x225
 1698 0884 8F080000 		.4byte	0x88f
 1699 0888 1B       		.uleb128 0x1b
 1700 0889 2A040000 		.4byte	0x42a
 1701 088d 04       		.byte	0x4
 1702 088e 00       		.byte	0
 1703 088f 2B       		.uleb128 0x2b
 1704 0890 BE030000 		.4byte	.LASF105
 1705 0894 10       		.byte	0x10
 1706 0895 59       		.byte	0x59
 1707 0896 7F080000 		.4byte	0x87f
 1708 089a 1A       		.uleb128 0x1a
 1709 089b 02030000 		.4byte	0x302
 1710 089f AA080000 		.4byte	0x8aa
 1711 08a3 1B       		.uleb128 0x1b
 1712 08a4 2A040000 		.4byte	0x42a
 1713 08a8 04       		.byte	0x4
 1714 08a9 00       		.byte	0
ARM GAS  /tmp/ccJfAsKX.s 			page 56


 1715 08aa 2D       		.uleb128 0x2d
 1716 08ab 776100   		.ascii	"wa\000"
 1717 08ae 10       		.byte	0x10
 1718 08af 5A       		.byte	0x5a
 1719 08b0 B4080000 		.4byte	0x8b4
 1720 08b4 13       		.uleb128 0x13
 1721 08b5 9A080000 		.4byte	0x89a
 1722 08b9 2E       		.uleb128 0x2e
 1723 08ba AA040000 		.4byte	.LASF115
 1724 08be 11       		.byte	0x11
 1725 08bf 3D       		.byte	0x3d
 1726 08c0 25020000 		.4byte	0x225
 1727 08c4 2F       		.uleb128 0x2f
 1728 08c5 FD030000 		.4byte	.LASF106
 1729 08c9 11       		.byte	0x11
 1730 08ca 3E       		.byte	0x3e
 1731 08cb DA080000 		.4byte	0x8da
 1732 08cf 0D       		.uleb128 0xd
 1733 08d0 25020000 		.4byte	0x225
 1734 08d4 0D       		.uleb128 0xd
 1735 08d5 05010000 		.4byte	0x105
 1736 08d9 00       		.byte	0
 1737 08da 2F       		.uleb128 0x2f
 1738 08db EE000000 		.4byte	.LASF107
 1739 08df 0E       		.byte	0xe
 1740 08e0 AE       		.byte	0xae
 1741 08e1 EB080000 		.4byte	0x8eb
 1742 08e5 0D       		.uleb128 0xd
 1743 08e6 D7050000 		.4byte	0x5d7
 1744 08ea 00       		.byte	0
 1745 08eb 30       		.uleb128 0x30
 1746 08ec BF020000 		.4byte	.LASF116
 1747 08f0 10       		.byte	0x10
 1748 08f1 5D       		.byte	0x5d
 1749 08f2 31       		.uleb128 0x31
 1750 08f3 F6020000 		.4byte	.LASF108
 1751 08f7 0E       		.byte	0xe
 1752 08f8 A7       		.byte	0xa7
 1753 08f9 0B060000 		.4byte	0x60b
 1754 08fd 0C090000 		.4byte	0x90c
 1755 0901 0D       		.uleb128 0xd
 1756 0902 0C090000 		.4byte	0x90c
 1757 0906 0D       		.uleb128 0xd
 1758 0907 CC050000 		.4byte	0x5cc
 1759 090b 00       		.byte	0
 1760 090c 0A       		.uleb128 0xa
 1761 090d 04       		.byte	0x4
 1762 090e D7050000 		.4byte	0x5d7
 1763 0912 31       		.uleb128 0x31
 1764 0913 49020000 		.4byte	.LASF109
 1765 0917 02       		.byte	0x2
 1766 0918 EA       		.byte	0xea
 1767 0919 25020000 		.4byte	0x225
 1768 091d 3B090000 		.4byte	0x93b
 1769 0921 0D       		.uleb128 0xd
 1770 0922 02030000 		.4byte	0x302
 1771 0926 0D       		.uleb128 0xd
ARM GAS  /tmp/ccJfAsKX.s 			page 57


 1772 0927 2C000000 		.4byte	0x2c
 1773 092b 0D       		.uleb128 0xd
 1774 092c FA000000 		.4byte	0xfa
 1775 0930 0D       		.uleb128 0xd
 1776 0931 EF050000 		.4byte	0x5ef
 1777 0935 0D       		.uleb128 0xd
 1778 0936 02030000 		.4byte	0x302
 1779 093a 00       		.byte	0
 1780 093b 32       		.uleb128 0x32
 1781 093c 1D010000 		.4byte	.LASF110
 1782 0940 11       		.byte	0x11
 1783 0941 3C       		.byte	0x3c
 1784 0942 05010000 		.4byte	0x105
 1785 0946 0D       		.uleb128 0xd
 1786 0947 25020000 		.4byte	0x225
 1787 094b 0D       		.uleb128 0xd
 1788 094c 05010000 		.4byte	0x105
 1789 0950 00       		.byte	0
 1790 0951 00       		.byte	0
 1791              		.section	.debug_abbrev,"",%progbits
 1792              	.Ldebug_abbrev0:
 1793 0000 01       		.uleb128 0x1
 1794 0001 11       		.uleb128 0x11
 1795 0002 01       		.byte	0x1
 1796 0003 25       		.uleb128 0x25
 1797 0004 0E       		.uleb128 0xe
 1798 0005 13       		.uleb128 0x13
 1799 0006 0B       		.uleb128 0xb
 1800 0007 03       		.uleb128 0x3
 1801 0008 0E       		.uleb128 0xe
 1802 0009 1B       		.uleb128 0x1b
 1803 000a 0E       		.uleb128 0xe
 1804 000b 55       		.uleb128 0x55
 1805 000c 17       		.uleb128 0x17
 1806 000d 11       		.uleb128 0x11
 1807 000e 01       		.uleb128 0x1
 1808 000f 10       		.uleb128 0x10
 1809 0010 17       		.uleb128 0x17
 1810 0011 00       		.byte	0
 1811 0012 00       		.byte	0
 1812 0013 02       		.uleb128 0x2
 1813 0014 24       		.uleb128 0x24
 1814 0015 00       		.byte	0
 1815 0016 0B       		.uleb128 0xb
 1816 0017 0B       		.uleb128 0xb
 1817 0018 3E       		.uleb128 0x3e
 1818 0019 0B       		.uleb128 0xb
 1819 001a 03       		.uleb128 0x3
 1820 001b 08       		.uleb128 0x8
 1821 001c 00       		.byte	0
 1822 001d 00       		.byte	0
 1823 001e 03       		.uleb128 0x3
 1824 001f 16       		.uleb128 0x16
 1825 0020 00       		.byte	0
 1826 0021 03       		.uleb128 0x3
 1827 0022 0E       		.uleb128 0xe
 1828 0023 3A       		.uleb128 0x3a
ARM GAS  /tmp/ccJfAsKX.s 			page 58


 1829 0024 0B       		.uleb128 0xb
 1830 0025 3B       		.uleb128 0x3b
 1831 0026 0B       		.uleb128 0xb
 1832 0027 49       		.uleb128 0x49
 1833 0028 13       		.uleb128 0x13
 1834 0029 00       		.byte	0
 1835 002a 00       		.byte	0
 1836 002b 04       		.uleb128 0x4
 1837 002c 24       		.uleb128 0x24
 1838 002d 00       		.byte	0
 1839 002e 0B       		.uleb128 0xb
 1840 002f 0B       		.uleb128 0xb
 1841 0030 3E       		.uleb128 0x3e
 1842 0031 0B       		.uleb128 0xb
 1843 0032 03       		.uleb128 0x3
 1844 0033 0E       		.uleb128 0xe
 1845 0034 00       		.byte	0
 1846 0035 00       		.byte	0
 1847 0036 05       		.uleb128 0x5
 1848 0037 13       		.uleb128 0x13
 1849 0038 01       		.byte	0x1
 1850 0039 03       		.uleb128 0x3
 1851 003a 0E       		.uleb128 0xe
 1852 003b 0B       		.uleb128 0xb
 1853 003c 0B       		.uleb128 0xb
 1854 003d 3A       		.uleb128 0x3a
 1855 003e 0B       		.uleb128 0xb
 1856 003f 3B       		.uleb128 0x3b
 1857 0040 0B       		.uleb128 0xb
 1858 0041 01       		.uleb128 0x1
 1859 0042 13       		.uleb128 0x13
 1860 0043 00       		.byte	0
 1861 0044 00       		.byte	0
 1862 0045 06       		.uleb128 0x6
 1863 0046 0D       		.uleb128 0xd
 1864 0047 00       		.byte	0
 1865 0048 03       		.uleb128 0x3
 1866 0049 0E       		.uleb128 0xe
 1867 004a 3A       		.uleb128 0x3a
 1868 004b 0B       		.uleb128 0xb
 1869 004c 3B       		.uleb128 0x3b
 1870 004d 0B       		.uleb128 0xb
 1871 004e 49       		.uleb128 0x49
 1872 004f 13       		.uleb128 0x13
 1873 0050 38       		.uleb128 0x38
 1874 0051 0B       		.uleb128 0xb
 1875 0052 00       		.byte	0
 1876 0053 00       		.byte	0
 1877 0054 07       		.uleb128 0x7
 1878 0055 0D       		.uleb128 0xd
 1879 0056 00       		.byte	0
 1880 0057 03       		.uleb128 0x3
 1881 0058 08       		.uleb128 0x8
 1882 0059 3A       		.uleb128 0x3a
 1883 005a 0B       		.uleb128 0xb
 1884 005b 3B       		.uleb128 0x3b
 1885 005c 0B       		.uleb128 0xb
ARM GAS  /tmp/ccJfAsKX.s 			page 59


 1886 005d 49       		.uleb128 0x49
 1887 005e 13       		.uleb128 0x13
 1888 005f 38       		.uleb128 0x38
 1889 0060 0B       		.uleb128 0xb
 1890 0061 00       		.byte	0
 1891 0062 00       		.byte	0
 1892 0063 08       		.uleb128 0x8
 1893 0064 0D       		.uleb128 0xd
 1894 0065 00       		.byte	0
 1895 0066 03       		.uleb128 0x3
 1896 0067 08       		.uleb128 0x8
 1897 0068 3A       		.uleb128 0x3a
 1898 0069 0B       		.uleb128 0xb
 1899 006a 3B       		.uleb128 0x3b
 1900 006b 05       		.uleb128 0x5
 1901 006c 49       		.uleb128 0x49
 1902 006d 13       		.uleb128 0x13
 1903 006e 38       		.uleb128 0x38
 1904 006f 0B       		.uleb128 0xb
 1905 0070 00       		.byte	0
 1906 0071 00       		.byte	0
 1907 0072 09       		.uleb128 0x9
 1908 0073 0D       		.uleb128 0xd
 1909 0074 00       		.byte	0
 1910 0075 03       		.uleb128 0x3
 1911 0076 0E       		.uleb128 0xe
 1912 0077 3A       		.uleb128 0x3a
 1913 0078 0B       		.uleb128 0xb
 1914 0079 3B       		.uleb128 0x3b
 1915 007a 05       		.uleb128 0x5
 1916 007b 49       		.uleb128 0x49
 1917 007c 13       		.uleb128 0x13
 1918 007d 38       		.uleb128 0x38
 1919 007e 0B       		.uleb128 0xb
 1920 007f 00       		.byte	0
 1921 0080 00       		.byte	0
 1922 0081 0A       		.uleb128 0xa
 1923 0082 0F       		.uleb128 0xf
 1924 0083 00       		.byte	0
 1925 0084 0B       		.uleb128 0xb
 1926 0085 0B       		.uleb128 0xb
 1927 0086 49       		.uleb128 0x49
 1928 0087 13       		.uleb128 0x13
 1929 0088 00       		.byte	0
 1930 0089 00       		.byte	0
 1931 008a 0B       		.uleb128 0xb
 1932 008b 13       		.uleb128 0x13
 1933 008c 01       		.byte	0x1
 1934 008d 03       		.uleb128 0x3
 1935 008e 0E       		.uleb128 0xe
 1936 008f 0B       		.uleb128 0xb
 1937 0090 0B       		.uleb128 0xb
 1938 0091 3A       		.uleb128 0x3a
 1939 0092 0B       		.uleb128 0xb
 1940 0093 3B       		.uleb128 0x3b
 1941 0094 05       		.uleb128 0x5
 1942 0095 01       		.uleb128 0x1
ARM GAS  /tmp/ccJfAsKX.s 			page 60


 1943 0096 13       		.uleb128 0x13
 1944 0097 00       		.byte	0
 1945 0098 00       		.byte	0
 1946 0099 0C       		.uleb128 0xc
 1947 009a 15       		.uleb128 0x15
 1948 009b 01       		.byte	0x1
 1949 009c 27       		.uleb128 0x27
 1950 009d 19       		.uleb128 0x19
 1951 009e 01       		.uleb128 0x1
 1952 009f 13       		.uleb128 0x13
 1953 00a0 00       		.byte	0
 1954 00a1 00       		.byte	0
 1955 00a2 0D       		.uleb128 0xd
 1956 00a3 05       		.uleb128 0x5
 1957 00a4 00       		.byte	0
 1958 00a5 49       		.uleb128 0x49
 1959 00a6 13       		.uleb128 0x13
 1960 00a7 00       		.byte	0
 1961 00a8 00       		.byte	0
 1962 00a9 0E       		.uleb128 0xe
 1963 00aa 0F       		.uleb128 0xf
 1964 00ab 00       		.byte	0
 1965 00ac 0B       		.uleb128 0xb
 1966 00ad 0B       		.uleb128 0xb
 1967 00ae 00       		.byte	0
 1968 00af 00       		.byte	0
 1969 00b0 0F       		.uleb128 0xf
 1970 00b1 13       		.uleb128 0x13
 1971 00b2 01       		.byte	0x1
 1972 00b3 0B       		.uleb128 0xb
 1973 00b4 0B       		.uleb128 0xb
 1974 00b5 3A       		.uleb128 0x3a
 1975 00b6 0B       		.uleb128 0xb
 1976 00b7 3B       		.uleb128 0x3b
 1977 00b8 0B       		.uleb128 0xb
 1978 00b9 01       		.uleb128 0x1
 1979 00ba 13       		.uleb128 0x13
 1980 00bb 00       		.byte	0
 1981 00bc 00       		.byte	0
 1982 00bd 10       		.uleb128 0x10
 1983 00be 17       		.uleb128 0x17
 1984 00bf 01       		.byte	0x1
 1985 00c0 0B       		.uleb128 0xb
 1986 00c1 0B       		.uleb128 0xb
 1987 00c2 3A       		.uleb128 0x3a
 1988 00c3 0B       		.uleb128 0xb
 1989 00c4 3B       		.uleb128 0x3b
 1990 00c5 0B       		.uleb128 0xb
 1991 00c6 01       		.uleb128 0x1
 1992 00c7 13       		.uleb128 0x13
 1993 00c8 00       		.byte	0
 1994 00c9 00       		.byte	0
 1995 00ca 11       		.uleb128 0x11
 1996 00cb 0D       		.uleb128 0xd
 1997 00cc 00       		.byte	0
 1998 00cd 03       		.uleb128 0x3
 1999 00ce 0E       		.uleb128 0xe
ARM GAS  /tmp/ccJfAsKX.s 			page 61


 2000 00cf 3A       		.uleb128 0x3a
 2001 00d0 0B       		.uleb128 0xb
 2002 00d1 3B       		.uleb128 0x3b
 2003 00d2 0B       		.uleb128 0xb
 2004 00d3 49       		.uleb128 0x49
 2005 00d4 13       		.uleb128 0x13
 2006 00d5 00       		.byte	0
 2007 00d6 00       		.byte	0
 2008 00d7 12       		.uleb128 0x12
 2009 00d8 0D       		.uleb128 0xd
 2010 00d9 00       		.byte	0
 2011 00da 03       		.uleb128 0x3
 2012 00db 0E       		.uleb128 0xe
 2013 00dc 3A       		.uleb128 0x3a
 2014 00dd 0B       		.uleb128 0xb
 2015 00de 3B       		.uleb128 0x3b
 2016 00df 05       		.uleb128 0x5
 2017 00e0 49       		.uleb128 0x49
 2018 00e1 13       		.uleb128 0x13
 2019 00e2 00       		.byte	0
 2020 00e3 00       		.byte	0
 2021 00e4 13       		.uleb128 0x13
 2022 00e5 26       		.uleb128 0x26
 2023 00e6 00       		.byte	0
 2024 00e7 49       		.uleb128 0x49
 2025 00e8 13       		.uleb128 0x13
 2026 00e9 00       		.byte	0
 2027 00ea 00       		.byte	0
 2028 00eb 14       		.uleb128 0x14
 2029 00ec 35       		.uleb128 0x35
 2030 00ed 00       		.byte	0
 2031 00ee 49       		.uleb128 0x49
 2032 00ef 13       		.uleb128 0x13
 2033 00f0 00       		.byte	0
 2034 00f1 00       		.byte	0
 2035 00f2 15       		.uleb128 0x15
 2036 00f3 15       		.uleb128 0x15
 2037 00f4 00       		.byte	0
 2038 00f5 27       		.uleb128 0x27
 2039 00f6 19       		.uleb128 0x19
 2040 00f7 00       		.byte	0
 2041 00f8 00       		.byte	0
 2042 00f9 16       		.uleb128 0x16
 2043 00fa 2E       		.uleb128 0x2e
 2044 00fb 00       		.byte	0
 2045 00fc 03       		.uleb128 0x3
 2046 00fd 0E       		.uleb128 0xe
 2047 00fe 3A       		.uleb128 0x3a
 2048 00ff 0B       		.uleb128 0xb
 2049 0100 3B       		.uleb128 0x3b
 2050 0101 05       		.uleb128 0x5
 2051 0102 27       		.uleb128 0x27
 2052 0103 19       		.uleb128 0x19
 2053 0104 49       		.uleb128 0x49
 2054 0105 13       		.uleb128 0x13
 2055 0106 20       		.uleb128 0x20
 2056 0107 0B       		.uleb128 0xb
ARM GAS  /tmp/ccJfAsKX.s 			page 62


 2057 0108 00       		.byte	0
 2058 0109 00       		.byte	0
 2059 010a 17       		.uleb128 0x17
 2060 010b 2E       		.uleb128 0x2e
 2061 010c 01       		.byte	0x1
 2062 010d 03       		.uleb128 0x3
 2063 010e 0E       		.uleb128 0xe
 2064 010f 3A       		.uleb128 0x3a
 2065 0110 0B       		.uleb128 0xb
 2066 0111 3B       		.uleb128 0x3b
 2067 0112 0B       		.uleb128 0xb
 2068 0113 27       		.uleb128 0x27
 2069 0114 19       		.uleb128 0x19
 2070 0115 49       		.uleb128 0x49
 2071 0116 13       		.uleb128 0x13
 2072 0117 20       		.uleb128 0x20
 2073 0118 0B       		.uleb128 0xb
 2074 0119 01       		.uleb128 0x1
 2075 011a 13       		.uleb128 0x13
 2076 011b 00       		.byte	0
 2077 011c 00       		.byte	0
 2078 011d 18       		.uleb128 0x18
 2079 011e 05       		.uleb128 0x5
 2080 011f 00       		.byte	0
 2081 0120 03       		.uleb128 0x3
 2082 0121 08       		.uleb128 0x8
 2083 0122 3A       		.uleb128 0x3a
 2084 0123 0B       		.uleb128 0xb
 2085 0124 3B       		.uleb128 0x3b
 2086 0125 0B       		.uleb128 0xb
 2087 0126 49       		.uleb128 0x49
 2088 0127 13       		.uleb128 0x13
 2089 0128 00       		.byte	0
 2090 0129 00       		.byte	0
 2091 012a 19       		.uleb128 0x19
 2092 012b 34       		.uleb128 0x34
 2093 012c 00       		.byte	0
 2094 012d 03       		.uleb128 0x3
 2095 012e 0E       		.uleb128 0xe
 2096 012f 49       		.uleb128 0x49
 2097 0130 13       		.uleb128 0x13
 2098 0131 34       		.uleb128 0x34
 2099 0132 19       		.uleb128 0x19
 2100 0133 1C       		.uleb128 0x1c
 2101 0134 0E       		.uleb128 0xe
 2102 0135 00       		.byte	0
 2103 0136 00       		.byte	0
 2104 0137 1A       		.uleb128 0x1a
 2105 0138 01       		.uleb128 0x1
 2106 0139 01       		.byte	0x1
 2107 013a 49       		.uleb128 0x49
 2108 013b 13       		.uleb128 0x13
 2109 013c 01       		.uleb128 0x1
 2110 013d 13       		.uleb128 0x13
 2111 013e 00       		.byte	0
 2112 013f 00       		.byte	0
 2113 0140 1B       		.uleb128 0x1b
ARM GAS  /tmp/ccJfAsKX.s 			page 63


 2114 0141 21       		.uleb128 0x21
 2115 0142 00       		.byte	0
 2116 0143 49       		.uleb128 0x49
 2117 0144 13       		.uleb128 0x13
 2118 0145 2F       		.uleb128 0x2f
 2119 0146 0B       		.uleb128 0xb
 2120 0147 00       		.byte	0
 2121 0148 00       		.byte	0
 2122 0149 1C       		.uleb128 0x1c
 2123 014a 2E       		.uleb128 0x2e
 2124 014b 01       		.byte	0x1
 2125 014c 03       		.uleb128 0x3
 2126 014d 0E       		.uleb128 0xe
 2127 014e 3A       		.uleb128 0x3a
 2128 014f 0B       		.uleb128 0xb
 2129 0150 3B       		.uleb128 0x3b
 2130 0151 0B       		.uleb128 0xb
 2131 0152 27       		.uleb128 0x27
 2132 0153 19       		.uleb128 0x19
 2133 0154 11       		.uleb128 0x11
 2134 0155 01       		.uleb128 0x1
 2135 0156 12       		.uleb128 0x12
 2136 0157 06       		.uleb128 0x6
 2137 0158 40       		.uleb128 0x40
 2138 0159 18       		.uleb128 0x18
 2139 015a 9742     		.uleb128 0x2117
 2140 015c 19       		.uleb128 0x19
 2141 015d 01       		.uleb128 0x1
 2142 015e 13       		.uleb128 0x13
 2143 015f 00       		.byte	0
 2144 0160 00       		.byte	0
 2145 0161 1D       		.uleb128 0x1d
 2146 0162 34       		.uleb128 0x34
 2147 0163 00       		.byte	0
 2148 0164 03       		.uleb128 0x3
 2149 0165 08       		.uleb128 0x8
 2150 0166 3A       		.uleb128 0x3a
 2151 0167 0B       		.uleb128 0xb
 2152 0168 3B       		.uleb128 0x3b
 2153 0169 0B       		.uleb128 0xb
 2154 016a 49       		.uleb128 0x49
 2155 016b 13       		.uleb128 0x13
 2156 016c 02       		.uleb128 0x2
 2157 016d 17       		.uleb128 0x17
 2158 016e 00       		.byte	0
 2159 016f 00       		.byte	0
 2160 0170 1E       		.uleb128 0x1e
 2161 0171 34       		.uleb128 0x34
 2162 0172 00       		.byte	0
 2163 0173 03       		.uleb128 0x3
 2164 0174 08       		.uleb128 0x8
 2165 0175 3A       		.uleb128 0x3a
 2166 0176 0B       		.uleb128 0xb
 2167 0177 3B       		.uleb128 0x3b
 2168 0178 0B       		.uleb128 0xb
 2169 0179 49       		.uleb128 0x49
 2170 017a 13       		.uleb128 0x13
ARM GAS  /tmp/ccJfAsKX.s 			page 64


 2171 017b 00       		.byte	0
 2172 017c 00       		.byte	0
 2173 017d 1F       		.uleb128 0x1f
 2174 017e 1D       		.uleb128 0x1d
 2175 017f 01       		.byte	0x1
 2176 0180 31       		.uleb128 0x31
 2177 0181 13       		.uleb128 0x13
 2178 0182 52       		.uleb128 0x52
 2179 0183 01       		.uleb128 0x1
 2180 0184 55       		.uleb128 0x55
 2181 0185 17       		.uleb128 0x17
 2182 0186 58       		.uleb128 0x58
 2183 0187 0B       		.uleb128 0xb
 2184 0188 59       		.uleb128 0x59
 2185 0189 0B       		.uleb128 0xb
 2186 018a 01       		.uleb128 0x1
 2187 018b 13       		.uleb128 0x13
 2188 018c 00       		.byte	0
 2189 018d 00       		.byte	0
 2190 018e 20       		.uleb128 0x20
 2191 018f 1D       		.uleb128 0x1d
 2192 0190 00       		.byte	0
 2193 0191 31       		.uleb128 0x31
 2194 0192 13       		.uleb128 0x13
 2195 0193 52       		.uleb128 0x52
 2196 0194 01       		.uleb128 0x1
 2197 0195 55       		.uleb128 0x55
 2198 0196 17       		.uleb128 0x17
 2199 0197 58       		.uleb128 0x58
 2200 0198 0B       		.uleb128 0xb
 2201 0199 59       		.uleb128 0x59
 2202 019a 05       		.uleb128 0x5
 2203 019b 00       		.byte	0
 2204 019c 00       		.byte	0
 2205 019d 21       		.uleb128 0x21
 2206 019e 0B       		.uleb128 0xb
 2207 019f 01       		.byte	0x1
 2208 01a0 55       		.uleb128 0x55
 2209 01a1 17       		.uleb128 0x17
 2210 01a2 01       		.uleb128 0x1
 2211 01a3 13       		.uleb128 0x13
 2212 01a4 00       		.byte	0
 2213 01a5 00       		.byte	0
 2214 01a6 22       		.uleb128 0x22
 2215 01a7 898201   		.uleb128 0x4109
 2216 01aa 00       		.byte	0
 2217 01ab 11       		.uleb128 0x11
 2218 01ac 01       		.uleb128 0x1
 2219 01ad 31       		.uleb128 0x31
 2220 01ae 13       		.uleb128 0x13
 2221 01af 00       		.byte	0
 2222 01b0 00       		.byte	0
 2223 01b1 23       		.uleb128 0x23
 2224 01b2 898201   		.uleb128 0x4109
 2225 01b5 01       		.byte	0x1
 2226 01b6 11       		.uleb128 0x11
 2227 01b7 01       		.uleb128 0x1
ARM GAS  /tmp/ccJfAsKX.s 			page 65


 2228 01b8 31       		.uleb128 0x31
 2229 01b9 13       		.uleb128 0x13
 2230 01ba 01       		.uleb128 0x1
 2231 01bb 13       		.uleb128 0x13
 2232 01bc 00       		.byte	0
 2233 01bd 00       		.byte	0
 2234 01be 24       		.uleb128 0x24
 2235 01bf 8A8201   		.uleb128 0x410a
 2236 01c2 00       		.byte	0
 2237 01c3 02       		.uleb128 0x2
 2238 01c4 18       		.uleb128 0x18
 2239 01c5 9142     		.uleb128 0x2111
 2240 01c7 18       		.uleb128 0x18
 2241 01c8 00       		.byte	0
 2242 01c9 00       		.byte	0
 2243 01ca 25       		.uleb128 0x25
 2244 01cb 898201   		.uleb128 0x4109
 2245 01ce 01       		.byte	0x1
 2246 01cf 11       		.uleb128 0x11
 2247 01d0 01       		.uleb128 0x1
 2248 01d1 9542     		.uleb128 0x2115
 2249 01d3 19       		.uleb128 0x19
 2250 01d4 31       		.uleb128 0x31
 2251 01d5 13       		.uleb128 0x13
 2252 01d6 00       		.byte	0
 2253 01d7 00       		.byte	0
 2254 01d8 26       		.uleb128 0x26
 2255 01d9 898201   		.uleb128 0x4109
 2256 01dc 01       		.byte	0x1
 2257 01dd 11       		.uleb128 0x11
 2258 01de 01       		.uleb128 0x1
 2259 01df 31       		.uleb128 0x31
 2260 01e0 13       		.uleb128 0x13
 2261 01e1 00       		.byte	0
 2262 01e2 00       		.byte	0
 2263 01e3 27       		.uleb128 0x27
 2264 01e4 05       		.uleb128 0x5
 2265 01e5 00       		.byte	0
 2266 01e6 03       		.uleb128 0x3
 2267 01e7 08       		.uleb128 0x8
 2268 01e8 3A       		.uleb128 0x3a
 2269 01e9 0B       		.uleb128 0xb
 2270 01ea 3B       		.uleb128 0x3b
 2271 01eb 0B       		.uleb128 0xb
 2272 01ec 49       		.uleb128 0x49
 2273 01ed 13       		.uleb128 0x13
 2274 01ee 02       		.uleb128 0x2
 2275 01ef 17       		.uleb128 0x17
 2276 01f0 00       		.byte	0
 2277 01f1 00       		.byte	0
 2278 01f2 28       		.uleb128 0x28
 2279 01f3 34       		.uleb128 0x34
 2280 01f4 00       		.byte	0
 2281 01f5 03       		.uleb128 0x3
 2282 01f6 0E       		.uleb128 0xe
 2283 01f7 3A       		.uleb128 0x3a
 2284 01f8 0B       		.uleb128 0xb
ARM GAS  /tmp/ccJfAsKX.s 			page 66


 2285 01f9 3B       		.uleb128 0x3b
 2286 01fa 0B       		.uleb128 0xb
 2287 01fb 49       		.uleb128 0x49
 2288 01fc 13       		.uleb128 0x13
 2289 01fd 02       		.uleb128 0x2
 2290 01fe 18       		.uleb128 0x18
 2291 01ff 00       		.byte	0
 2292 0200 00       		.byte	0
 2293 0201 29       		.uleb128 0x29
 2294 0202 34       		.uleb128 0x34
 2295 0203 00       		.byte	0
 2296 0204 03       		.uleb128 0x3
 2297 0205 0E       		.uleb128 0xe
 2298 0206 3A       		.uleb128 0x3a
 2299 0207 0B       		.uleb128 0xb
 2300 0208 3B       		.uleb128 0x3b
 2301 0209 05       		.uleb128 0x5
 2302 020a 49       		.uleb128 0x49
 2303 020b 13       		.uleb128 0x13
 2304 020c 3F       		.uleb128 0x3f
 2305 020d 19       		.uleb128 0x19
 2306 020e 3C       		.uleb128 0x3c
 2307 020f 19       		.uleb128 0x19
 2308 0210 00       		.byte	0
 2309 0211 00       		.byte	0
 2310 0212 2A       		.uleb128 0x2a
 2311 0213 34       		.uleb128 0x34
 2312 0214 00       		.byte	0
 2313 0215 03       		.uleb128 0x3
 2314 0216 08       		.uleb128 0x8
 2315 0217 3A       		.uleb128 0x3a
 2316 0218 0B       		.uleb128 0xb
 2317 0219 3B       		.uleb128 0x3b
 2318 021a 05       		.uleb128 0x5
 2319 021b 49       		.uleb128 0x49
 2320 021c 13       		.uleb128 0x13
 2321 021d 3F       		.uleb128 0x3f
 2322 021e 19       		.uleb128 0x19
 2323 021f 3C       		.uleb128 0x3c
 2324 0220 19       		.uleb128 0x19
 2325 0221 00       		.byte	0
 2326 0222 00       		.byte	0
 2327 0223 2B       		.uleb128 0x2b
 2328 0224 34       		.uleb128 0x34
 2329 0225 00       		.byte	0
 2330 0226 03       		.uleb128 0x3
 2331 0227 0E       		.uleb128 0xe
 2332 0228 3A       		.uleb128 0x3a
 2333 0229 0B       		.uleb128 0xb
 2334 022a 3B       		.uleb128 0x3b
 2335 022b 0B       		.uleb128 0xb
 2336 022c 49       		.uleb128 0x49
 2337 022d 13       		.uleb128 0x13
 2338 022e 3F       		.uleb128 0x3f
 2339 022f 19       		.uleb128 0x19
 2340 0230 3C       		.uleb128 0x3c
 2341 0231 19       		.uleb128 0x19
ARM GAS  /tmp/ccJfAsKX.s 			page 67


 2342 0232 00       		.byte	0
 2343 0233 00       		.byte	0
 2344 0234 2C       		.uleb128 0x2c
 2345 0235 34       		.uleb128 0x34
 2346 0236 00       		.byte	0
 2347 0237 03       		.uleb128 0x3
 2348 0238 0E       		.uleb128 0xe
 2349 0239 3A       		.uleb128 0x3a
 2350 023a 0B       		.uleb128 0xb
 2351 023b 3B       		.uleb128 0x3b
 2352 023c 0B       		.uleb128 0xb
 2353 023d 49       		.uleb128 0x49
 2354 023e 13       		.uleb128 0x13
 2355 023f 3F       		.uleb128 0x3f
 2356 0240 19       		.uleb128 0x19
 2357 0241 02       		.uleb128 0x2
 2358 0242 18       		.uleb128 0x18
 2359 0243 00       		.byte	0
 2360 0244 00       		.byte	0
 2361 0245 2D       		.uleb128 0x2d
 2362 0246 34       		.uleb128 0x34
 2363 0247 00       		.byte	0
 2364 0248 03       		.uleb128 0x3
 2365 0249 08       		.uleb128 0x8
 2366 024a 3A       		.uleb128 0x3a
 2367 024b 0B       		.uleb128 0xb
 2368 024c 3B       		.uleb128 0x3b
 2369 024d 0B       		.uleb128 0xb
 2370 024e 49       		.uleb128 0x49
 2371 024f 13       		.uleb128 0x13
 2372 0250 3F       		.uleb128 0x3f
 2373 0251 19       		.uleb128 0x19
 2374 0252 3C       		.uleb128 0x3c
 2375 0253 19       		.uleb128 0x19
 2376 0254 00       		.byte	0
 2377 0255 00       		.byte	0
 2378 0256 2E       		.uleb128 0x2e
 2379 0257 2E       		.uleb128 0x2e
 2380 0258 00       		.byte	0
 2381 0259 3F       		.uleb128 0x3f
 2382 025a 19       		.uleb128 0x19
 2383 025b 03       		.uleb128 0x3
 2384 025c 0E       		.uleb128 0xe
 2385 025d 3A       		.uleb128 0x3a
 2386 025e 0B       		.uleb128 0xb
 2387 025f 3B       		.uleb128 0x3b
 2388 0260 0B       		.uleb128 0xb
 2389 0261 27       		.uleb128 0x27
 2390 0262 19       		.uleb128 0x19
 2391 0263 49       		.uleb128 0x49
 2392 0264 13       		.uleb128 0x13
 2393 0265 3C       		.uleb128 0x3c
 2394 0266 19       		.uleb128 0x19
 2395 0267 00       		.byte	0
 2396 0268 00       		.byte	0
 2397 0269 2F       		.uleb128 0x2f
 2398 026a 2E       		.uleb128 0x2e
ARM GAS  /tmp/ccJfAsKX.s 			page 68


 2399 026b 01       		.byte	0x1
 2400 026c 3F       		.uleb128 0x3f
 2401 026d 19       		.uleb128 0x19
 2402 026e 03       		.uleb128 0x3
 2403 026f 0E       		.uleb128 0xe
 2404 0270 3A       		.uleb128 0x3a
 2405 0271 0B       		.uleb128 0xb
 2406 0272 3B       		.uleb128 0x3b
 2407 0273 0B       		.uleb128 0xb
 2408 0274 27       		.uleb128 0x27
 2409 0275 19       		.uleb128 0x19
 2410 0276 3C       		.uleb128 0x3c
 2411 0277 19       		.uleb128 0x19
 2412 0278 01       		.uleb128 0x1
 2413 0279 13       		.uleb128 0x13
 2414 027a 00       		.byte	0
 2415 027b 00       		.byte	0
 2416 027c 30       		.uleb128 0x30
 2417 027d 2E       		.uleb128 0x2e
 2418 027e 00       		.byte	0
 2419 027f 3F       		.uleb128 0x3f
 2420 0280 19       		.uleb128 0x19
 2421 0281 03       		.uleb128 0x3
 2422 0282 0E       		.uleb128 0xe
 2423 0283 3A       		.uleb128 0x3a
 2424 0284 0B       		.uleb128 0xb
 2425 0285 3B       		.uleb128 0x3b
 2426 0286 0B       		.uleb128 0xb
 2427 0287 27       		.uleb128 0x27
 2428 0288 19       		.uleb128 0x19
 2429 0289 3C       		.uleb128 0x3c
 2430 028a 19       		.uleb128 0x19
 2431 028b 00       		.byte	0
 2432 028c 00       		.byte	0
 2433 028d 31       		.uleb128 0x31
 2434 028e 2E       		.uleb128 0x2e
 2435 028f 01       		.byte	0x1
 2436 0290 3F       		.uleb128 0x3f
 2437 0291 19       		.uleb128 0x19
 2438 0292 03       		.uleb128 0x3
 2439 0293 0E       		.uleb128 0xe
 2440 0294 3A       		.uleb128 0x3a
 2441 0295 0B       		.uleb128 0xb
 2442 0296 3B       		.uleb128 0x3b
 2443 0297 0B       		.uleb128 0xb
 2444 0298 27       		.uleb128 0x27
 2445 0299 19       		.uleb128 0x19
 2446 029a 49       		.uleb128 0x49
 2447 029b 13       		.uleb128 0x13
 2448 029c 3C       		.uleb128 0x3c
 2449 029d 19       		.uleb128 0x19
 2450 029e 01       		.uleb128 0x1
 2451 029f 13       		.uleb128 0x13
 2452 02a0 00       		.byte	0
 2453 02a1 00       		.byte	0
 2454 02a2 32       		.uleb128 0x32
 2455 02a3 2E       		.uleb128 0x2e
ARM GAS  /tmp/ccJfAsKX.s 			page 69


 2456 02a4 01       		.byte	0x1
 2457 02a5 3F       		.uleb128 0x3f
 2458 02a6 19       		.uleb128 0x19
 2459 02a7 03       		.uleb128 0x3
 2460 02a8 0E       		.uleb128 0xe
 2461 02a9 3A       		.uleb128 0x3a
 2462 02aa 0B       		.uleb128 0xb
 2463 02ab 3B       		.uleb128 0x3b
 2464 02ac 0B       		.uleb128 0xb
 2465 02ad 27       		.uleb128 0x27
 2466 02ae 19       		.uleb128 0x19
 2467 02af 49       		.uleb128 0x49
 2468 02b0 13       		.uleb128 0x13
 2469 02b1 3C       		.uleb128 0x3c
 2470 02b2 19       		.uleb128 0x19
 2471 02b3 00       		.byte	0
 2472 02b4 00       		.byte	0
 2473 02b5 00       		.byte	0
 2474              		.section	.debug_loc,"",%progbits
 2475              	.Ldebug_loc0:
 2476              	.LLST0:
 2477 0000 30000000 		.4byte	.LVL3
 2478 0004 37000000 		.4byte	.LVL5-1
 2479 0008 0100     		.2byte	0x1
 2480 000a 50       		.byte	0x50
 2481 000b 00000000 		.4byte	0
 2482 000f 00000000 		.4byte	0
 2483              	.LLST1:
 2484 0013 28000000 		.4byte	.LVL1
 2485 0017 2C000000 		.4byte	.LVL2
 2486 001b 0200     		.2byte	0x2
 2487 001d 30       		.byte	0x30
 2488 001e 9F       		.byte	0x9f
 2489 001f 2C000000 		.4byte	.LVL2
 2490 0023 3E000000 		.4byte	.LVL6
 2491 0027 0500     		.2byte	0x5
 2492 0029 34       		.byte	0x34
 2493 002a 74       		.byte	0x74
 2494 002b 00       		.sleb128 0
 2495 002c 1C       		.byte	0x1c
 2496 002d 9F       		.byte	0x9f
 2497 002e 3E000000 		.4byte	.LVL6
 2498 0032 40000000 		.4byte	.LVL7
 2499 0036 0500     		.2byte	0x5
 2500 0038 35       		.byte	0x35
 2501 0039 74       		.byte	0x74
 2502 003a 00       		.sleb128 0
 2503 003b 1C       		.byte	0x1c
 2504 003c 9F       		.byte	0x9f
 2505 003d 40000000 		.4byte	.LVL7
 2506 0041 50000000 		.4byte	.LVL9
 2507 0045 0500     		.2byte	0x5
 2508 0047 34       		.byte	0x34
 2509 0048 74       		.byte	0x74
 2510 0049 00       		.sleb128 0
 2511 004a 1C       		.byte	0x1c
 2512 004b 9F       		.byte	0x9f
ARM GAS  /tmp/ccJfAsKX.s 			page 70


 2513 004c 00000000 		.4byte	0
 2514 0050 00000000 		.4byte	0
 2515              	.LLST2:
 2516 0054 00000000 		.4byte	.LVL11
 2517 0058 09000000 		.4byte	.LVL12-1
 2518 005c 0100     		.2byte	0x1
 2519 005e 50       		.byte	0x50
 2520 005f 09000000 		.4byte	.LVL12-1
 2521 0063 22000000 		.4byte	.LVL15
 2522 0067 0100     		.2byte	0x1
 2523 0069 54       		.byte	0x54
 2524 006a 22000000 		.4byte	.LVL15
 2525 006e 25000000 		.4byte	.LVL16-1
 2526 0072 0100     		.2byte	0x1
 2527 0074 50       		.byte	0x50
 2528 0075 25000000 		.4byte	.LVL16-1
 2529 0079 26000000 		.4byte	.LFE270
 2530 007d 0400     		.2byte	0x4
 2531 007f F3       		.byte	0xf3
 2532 0080 01       		.uleb128 0x1
 2533 0081 50       		.byte	0x50
 2534 0082 9F       		.byte	0x9f
 2535 0083 00000000 		.4byte	0
 2536 0087 00000000 		.4byte	0
 2537              		.section	.debug_aranges,"",%progbits
 2538 0000 24000000 		.4byte	0x24
 2539 0004 0200     		.2byte	0x2
 2540 0006 00000000 		.4byte	.Ldebug_info0
 2541 000a 04       		.byte	0x4
 2542 000b 00       		.byte	0
 2543 000c 0000     		.2byte	0
 2544 000e 0000     		.2byte	0
 2545 0010 00000000 		.4byte	.LFB271
 2546 0014 70000000 		.4byte	.LFE271-.LFB271
 2547 0018 00000000 		.4byte	.LFB270
 2548 001c 26000000 		.4byte	.LFE270-.LFB270
 2549 0020 00000000 		.4byte	0
 2550 0024 00000000 		.4byte	0
 2551              		.section	.debug_ranges,"",%progbits
 2552              	.Ldebug_ranges0:
 2553 0000 02000000 		.4byte	.LBB13
 2554 0004 04000000 		.4byte	.LBE13
 2555 0008 06000000 		.4byte	.LBB20
 2556 000c 08000000 		.4byte	.LBE20
 2557 0010 00000000 		.4byte	0
 2558 0014 00000000 		.4byte	0
 2559 0018 02000000 		.4byte	.LBB15
 2560 001c 04000000 		.4byte	.LBE15
 2561 0020 06000000 		.4byte	.LBB18
 2562 0024 08000000 		.4byte	.LBE18
 2563 0028 00000000 		.4byte	0
 2564 002c 00000000 		.4byte	0
 2565 0030 2C000000 		.4byte	.LBB21
 2566 0034 30000000 		.4byte	.LBE21
 2567 0038 32000000 		.4byte	.LBB22
 2568 003c 4A000000 		.4byte	.LBE22
 2569 0040 50000000 		.4byte	.LBB23
ARM GAS  /tmp/ccJfAsKX.s 			page 71


 2570 0044 70000000 		.4byte	.LBE23
 2571 0048 00000000 		.4byte	0
 2572 004c 00000000 		.4byte	0
 2573 0050 00000000 		.4byte	.LFB271
 2574 0054 70000000 		.4byte	.LFE271
 2575 0058 00000000 		.4byte	.LFB270
 2576 005c 26000000 		.4byte	.LFE270
 2577 0060 00000000 		.4byte	0
 2578 0064 00000000 		.4byte	0
 2579              		.section	.debug_line,"",%progbits
 2580              	.Ldebug_line0:
 2581 0000 8B030000 		.section	.debug_str,"MS",%progbits,1
 2581      02001803 
 2581      00000201 
 2581      FB0E0D00 
 2581      01010101 
 2582              	.LASF89:
 2583 0000 7466756E 		.ascii	"tfunc_t\000"
 2583      635F7400 
 2584              	.LASF51:
 2585 0008 72656164 		.ascii	"ready_list_t\000"
 2585      795F6C69 
 2585      73745F74 
 2585      00
 2586              	.LASF2:
 2587 0015 73697A65 		.ascii	"size_t\000"
 2587      5F7400
 2588              	.LASF57:
 2589 001c 64656C74 		.ascii	"delta\000"
 2589      6100
 2590              	.LASF77:
 2591 0022 7264796D 		.ascii	"rdymsg\000"
 2591      736700
 2592              	.LASF17:
 2593 0029 75696E74 		.ascii	"uint64_t\000"
 2593      36345F74 
 2593      00
 2594              	.LASF3:
 2595 0032 5F5F7569 		.ascii	"__uint8_t\000"
 2595      6E74385F 
 2595      7400
 2596              	.LASF50:
 2597 003c 70726576 		.ascii	"prev\000"
 2597      00
 2598              	.LASF74:
 2599 0041 706F7274 		.ascii	"port_intctx\000"
 2599      5F696E74 
 2599      63747800 
 2600              	.LASF62:
 2601 004d 73797374 		.ascii	"system_debug_t\000"
 2601      656D5F64 
 2601      65627567 
 2601      5F7400
 2602              	.LASF100:
 2603 005c 6D73675F 		.ascii	"msg_thread1\000"
 2603      74687265 
 2603      61643100 
ARM GAS  /tmp/ccJfAsKX.s 			page 72


 2604              	.LASF13:
 2605 0068 6C6F6E67 		.ascii	"long long unsigned int\000"
 2605      206C6F6E 
 2605      6720756E 
 2605      7369676E 
 2605      65642069 
 2606              	.LASF78:
 2607 007f 65786974 		.ascii	"exitcode\000"
 2607      636F6465 
 2607      00
 2608              	.LASF69:
 2609 0088 6D61696E 		.ascii	"mainthread\000"
 2609      74687265 
 2609      616400
 2610              	.LASF81:
 2611 0093 73656E74 		.ascii	"sentmsg\000"
 2611      6D736700 
 2612              	.LASF59:
 2613 009b 76697274 		.ascii	"virtual_timers_list_t\000"
 2613      75616C5F 
 2613      74696D65 
 2613      72735F6C 
 2613      6973745F 
 2614              	.LASF102:
 2615 00b1 49544D5F 		.ascii	"ITM_RxBuffer\000"
 2615      52784275 
 2615      66666572 
 2615      00
 2616              	.LASF47:
 2617 00be 6E657874 		.ascii	"next\000"
 2617      00
 2618              	.LASF49:
 2619 00c3 63685F74 		.ascii	"ch_threads_queue\000"
 2619      68726561 
 2619      64735F71 
 2619      75657565 
 2619      00
 2620              	.LASF11:
 2621 00d4 6C6F6E67 		.ascii	"long long int\000"
 2621      206C6F6E 
 2621      6720696E 
 2621      7400
 2622              	.LASF1:
 2623 00e2 7369676E 		.ascii	"signed char\000"
 2623      65642063 
 2623      68617200 
 2624              	.LASF107:
 2625 00ee 74657374 		.ascii	"test_emit_token\000"
 2625      5F656D69 
 2625      745F746F 
 2625      6B656E00 
 2626              	.LASF68:
 2627 00fe 76746C69 		.ascii	"vtlist\000"
 2627      737400
 2628              	.LASF38:
 2629 0105 6D736771 		.ascii	"msgqueue\000"
 2629      75657565 
ARM GAS  /tmp/ccJfAsKX.s 			page 73


 2629      00
 2630              	.LASF34:
 2631 010e 73746174 		.ascii	"state\000"
 2631      6500
 2632              	.LASF8:
 2633 0114 6C6F6E67 		.ascii	"long int\000"
 2633      20696E74 
 2633      00
 2634              	.LASF110:
 2635 011d 63684D73 		.ascii	"chMsgSend\000"
 2635      6753656E 
 2635      6400
 2636              	.LASF20:
 2637 0127 74737461 		.ascii	"tstate_t\000"
 2637      74655F74 
 2637      00
 2638              	.LASF58:
 2639 0130 66756E63 		.ascii	"func\000"
 2639      00
 2640              	.LASF28:
 2641 0135 71756575 		.ascii	"queue\000"
 2641      6500
 2642              	.LASF9:
 2643 013b 5F5F7569 		.ascii	"__uint32_t\000"
 2643      6E743332 
 2643      5F7400
 2644              	.LASF71:
 2645 0146 72656761 		.ascii	"regarm_t\000"
 2645      726D5F74 
 2645      00
 2646              	.LASF37:
 2647 014f 77616974 		.ascii	"waiting\000"
 2647      696E6700 
 2648              	.LASF90:
 2649 0157 6D757465 		.ascii	"mutex_t\000"
 2649      785F7400 
 2650              	.LASF25:
 2651 015f 636E745F 		.ascii	"cnt_t\000"
 2651      7400
 2652              	.LASF0:
 2653 0165 756E7369 		.ascii	"unsigned int\000"
 2653      676E6564 
 2653      20696E74 
 2653      00
 2654              	.LASF82:
 2655 0172 77747365 		.ascii	"wtsemp\000"
 2655      6D7000
 2656              	.LASF80:
 2657 0179 77747472 		.ascii	"wttrp\000"
 2657      7000
 2658              	.LASF112:
 2659 017f 2E2E2F43 		.ascii	"../ChibiOS/test/rt/source/test/test_sequence_006.c\000"
 2659      68696269 
 2659      4F532F74 
 2659      6573742F 
 2659      72742F73 
 2660              	.LASF93:
ARM GAS  /tmp/ccJfAsKX.s 			page 74


 2661 01b2 74656172 		.ascii	"teardown\000"
 2661      646F776E 
 2661      00
 2662              	.LASF114:
 2663 01bb 63684D73 		.ascii	"chMsgGet\000"
 2663      67476574 
 2663      00
 2664              	.LASF32:
 2665 01c4 6E616D65 		.ascii	"name\000"
 2665      00
 2666              	.LASF42:
 2667 01c9 6D706F6F 		.ascii	"mpool\000"
 2667      6C00
 2668              	.LASF6:
 2669 01cf 73686F72 		.ascii	"short unsigned int\000"
 2669      7420756E 
 2669      7369676E 
 2669      65642069 
 2669      6E7400
 2670              	.LASF45:
 2671 01e2 63685F74 		.ascii	"ch_thread\000"
 2671      68726561 
 2671      6400
 2672              	.LASF23:
 2673 01ec 6D73675F 		.ascii	"msg_t\000"
 2673      7400
 2674              	.LASF39:
 2675 01f2 6570656E 		.ascii	"epending\000"
 2675      64696E67 
 2675      00
 2676              	.LASF65:
 2677 01fb 63685F73 		.ascii	"ch_system_t\000"
 2677      79737465 
 2677      6D5F7400 
 2678              	.LASF19:
 2679 0207 746D6F64 		.ascii	"tmode_t\000"
 2679      655F7400 
 2680              	.LASF52:
 2681 020f 63685F72 		.ascii	"ch_ready_list\000"
 2681      65616479 
 2681      5F6C6973 
 2681      7400
 2682              	.LASF24:
 2683 021d 6576656E 		.ascii	"eventmask_t\000"
 2683      746D6173 
 2683      6B5F7400 
 2684              	.LASF7:
 2685 0229 5F5F696E 		.ascii	"__int32_t\000"
 2685      7433325F 
 2685      7400
 2686              	.LASF72:
 2687 0233 73746B61 		.ascii	"stkalign_t\000"
 2687      6C69676E 
 2687      5F7400
 2688              	.LASF95:
 2689 023e 74657374 		.ascii	"testcase_t\000"
 2689      63617365 
ARM GAS  /tmp/ccJfAsKX.s 			page 75


 2689      5F7400
 2690              	.LASF109:
 2691 0249 63685468 		.ascii	"chThdCreateStatic\000"
 2691      64437265 
 2691      61746553 
 2691      74617469 
 2691      6300
 2692              	.LASF41:
 2693 025b 7265616C 		.ascii	"realprio\000"
 2693      7072696F 
 2693      00
 2694              	.LASF70:
 2695 0264 73697A65 		.ascii	"sizetype\000"
 2695      74797065 
 2695      00
 2696              	.LASF43:
 2697 026d 74687265 		.ascii	"thread_reference_t\000"
 2697      61645F72 
 2697      65666572 
 2697      656E6365 
 2697      5F7400
 2698              	.LASF60:
 2699 0280 63685F76 		.ascii	"ch_virtual_timers_list\000"
 2699      69727475 
 2699      616C5F74 
 2699      696D6572 
 2699      735F6C69 
 2700              	.LASF103:
 2701 0297 74657374 		.ascii	"test_step\000"
 2701      5F737465 
 2701      7000
 2702              	.LASF101:
 2703 02a1 74657374 		.ascii	"test_006_001\000"
 2703      5F303036 
 2703      5F303031 
 2703      00
 2704              	.LASF76:
 2705 02ae 746D5F63 		.ascii	"tm_calibration_t\000"
 2705      616C6962 
 2705      72617469 
 2705      6F6E5F74 
 2705      00
 2706              	.LASF116:
 2707 02bf 74657374 		.ascii	"test_wait_threads\000"
 2707      5F776169 
 2707      745F7468 
 2707      72656164 
 2707      7300
 2708              	.LASF73:
 2709 02d1 706F7274 		.ascii	"port_context\000"
 2709      5F636F6E 
 2709      74657874 
 2709      00
 2710              	.LASF97:
 2711 02de 63685468 		.ascii	"chThdGetPriorityX\000"
 2711      64476574 
 2711      5072696F 
ARM GAS  /tmp/ccJfAsKX.s 			page 76


 2711      72697479 
 2711      5800
 2712              	.LASF92:
 2713 02f0 73657475 		.ascii	"setup\000"
 2713      7000
 2714              	.LASF108:
 2715 02f6 5F746573 		.ascii	"_test_assert_sequence\000"
 2715      745F6173 
 2715      73657274 
 2715      5F736571 
 2715      75656E63 
 2716              	.LASF29:
 2717 030c 7072696F 		.ascii	"prio\000"
 2717      00
 2718              	.LASF53:
 2719 0311 63757272 		.ascii	"current\000"
 2719      656E7400 
 2720              	.LASF12:
 2721 0319 5F5F7569 		.ascii	"__uint64_t\000"
 2721      6E743634 
 2721      5F7400
 2722              	.LASF21:
 2723 0324 74726566 		.ascii	"trefs_t\000"
 2723      735F7400 
 2724              	.LASF36:
 2725 032c 72656673 		.ascii	"refs\000"
 2725      00
 2726              	.LASF55:
 2727 0331 76697274 		.ascii	"virtual_timer_t\000"
 2727      75616C5F 
 2727      74696D65 
 2727      725F7400 
 2728              	.LASF94:
 2729 0341 65786563 		.ascii	"execute\000"
 2729      75746500 
 2730              	.LASF22:
 2731 0349 74707269 		.ascii	"tprio_t\000"
 2731      6F5F7400 
 2732              	.LASF113:
 2733 0351 2F6E6673 		.ascii	"/nfs/nfs7/home/npalumbo/p442-submissions/lab4\000"
 2733      2F6E6673 
 2733      372F686F 
 2733      6D652F6E 
 2733      70616C75 
 2734              	.LASF63:
 2735 037f 63685F73 		.ascii	"ch_system_debug\000"
 2735      79737465 
 2735      6D5F6465 
 2735      62756700 
 2736              	.LASF91:
 2737 038f 5F426F6F 		.ascii	"_Bool\000"
 2737      6C00
 2738              	.LASF15:
 2739 0395 696E7433 		.ascii	"int32_t\000"
 2739      325F7400 
 2740              	.LASF4:
 2741 039d 756E7369 		.ascii	"unsigned char\000"
ARM GAS  /tmp/ccJfAsKX.s 			page 77


 2741      676E6564 
 2741      20636861 
 2741      7200
 2742              	.LASF5:
 2743 03ab 73686F72 		.ascii	"short int\000"
 2743      7420696E 
 2743      7400
 2744              	.LASF61:
 2745 03b5 6C617374 		.ascii	"lasttime\000"
 2745      74696D65 
 2745      00
 2746              	.LASF105:
 2747 03be 74687265 		.ascii	"threads\000"
 2747      61647300 
 2748              	.LASF84:
 2749 03c6 65776D61 		.ascii	"ewmask\000"
 2749      736B00
 2750              	.LASF66:
 2751 03cd 63685F73 		.ascii	"ch_system\000"
 2751      79737465 
 2751      6D00
 2752              	.LASF99:
 2753 03d7 74657374 		.ascii	"test_006_001_execute\000"
 2753      5F303036 
 2753      5F303031 
 2753      5F657865 
 2753      63757465 
 2754              	.LASF56:
 2755 03ec 63685F76 		.ascii	"ch_virtual_timer\000"
 2755      69727475 
 2755      616C5F74 
 2755      696D6572 
 2755      00
 2756              	.LASF106:
 2757 03fd 63684D73 		.ascii	"chMsgRelease\000"
 2757      6752656C 
 2757      65617365 
 2757      00
 2758              	.LASF85:
 2759 040a 63685F73 		.ascii	"ch_semaphore\000"
 2759      656D6170 
 2759      686F7265 
 2759      00
 2760              	.LASF98:
 2761 0417 5F5F6675 		.ascii	"__func__.6171\000"
 2761      6E635F5F 
 2761      2E363137 
 2761      3100
 2762              	.LASF16:
 2763 0425 75696E74 		.ascii	"uint32_t\000"
 2763      33325F74 
 2763      00
 2764              	.LASF83:
 2765 042e 77746D74 		.ascii	"wtmtxp\000"
 2765      787000
 2766              	.LASF46:
 2767 0435 63685F74 		.ascii	"ch_threads_list\000"
ARM GAS  /tmp/ccJfAsKX.s 			page 78


 2767      68726561 
 2767      64735F6C 
 2767      69737400 
 2768              	.LASF87:
 2769 0445 6F776E65 		.ascii	"owner\000"
 2769      7200
 2770              	.LASF10:
 2771 044b 6C6F6E67 		.ascii	"long unsigned int\000"
 2771      20756E73 
 2771      69676E65 
 2771      6420696E 
 2771      7400
 2772              	.LASF33:
 2773 045d 77616261 		.ascii	"wabase\000"
 2773      736500
 2774              	.LASF88:
 2775 0464 63686172 		.ascii	"char\000"
 2775      00
 2776              	.LASF31:
 2777 0469 6F6C6465 		.ascii	"older\000"
 2777      7200
 2778              	.LASF27:
 2779 046f 74687265 		.ascii	"thread_t\000"
 2779      61645F74 
 2779      00
 2780              	.LASF26:
 2781 0478 73797374 		.ascii	"systime_t\000"
 2781      696D655F 
 2781      7400
 2782              	.LASF54:
 2783 0482 76746675 		.ascii	"vtfunc_t\000"
 2783      6E635F74 
 2783      00
 2784              	.LASF64:
 2785 048b 70616E69 		.ascii	"panic_msg\000"
 2785      635F6D73 
 2785      6700
 2786              	.LASF75:
 2787 0495 6F666673 		.ascii	"offset\000"
 2787      657400
 2788              	.LASF18:
 2789 049c 7274636E 		.ascii	"rtcnt_t\000"
 2789      745F7400 
 2790              	.LASF30:
 2791 04a4 6E657765 		.ascii	"newer\000"
 2791      7200
 2792              	.LASF115:
 2793 04aa 63684D73 		.ascii	"chMsgWait\000"
 2793      67576169 
 2793      7400
 2794              	.LASF48:
 2795 04b4 74687265 		.ascii	"threads_queue_t\000"
 2795      6164735F 
 2795      71756575 
 2795      655F7400 
 2796              	.LASF86:
 2797 04c4 63685F6D 		.ascii	"ch_mutex\000"
ARM GAS  /tmp/ccJfAsKX.s 			page 79


 2797      75746578 
 2797      00
 2798              	.LASF67:
 2799 04cd 726C6973 		.ascii	"rlist\000"
 2799      7400
 2800              	.LASF96:
 2801 04d3 63685468 		.ascii	"chThdGetSelfX\000"
 2801      64476574 
 2801      53656C66 
 2801      5800
 2802              	.LASF14:
 2803 04e1 75696E74 		.ascii	"uint8_t\000"
 2803      385F7400 
 2804              	.LASF35:
 2805 04e9 666C6167 		.ascii	"flags\000"
 2805      7300
 2806              	.LASF104:
 2807 04ef 74657374 		.ascii	"test_sequence_006\000"
 2807      5F736571 
 2807      75656E63 
 2807      655F3030 
 2807      3600
 2808              	.LASF111:
 2809 0501 474E5520 		.ascii	"GNU C 4.8.4 20140526 (release) [ARM/embedded-4_8-br"
 2809      4320342E 
 2809      382E3420 
 2809      32303134 
 2809      30353236 
 2810 0534 616E6368 		.ascii	"anch revision 211358] -mcpu=cortex-m4 -mno-thumb-in"
 2810      20726576 
 2810      6973696F 
 2810      6E203231 
 2810      31333538 
 2811 0567 74657277 		.ascii	"terwork -mthumb -ggdb -O2 -fomit-frame-pointer -fal"
 2811      6F726B20 
 2811      2D6D7468 
 2811      756D6220 
 2811      2D676764 
 2812 059a 69676E2D 		.ascii	"ign-functions=16 -ffunction-sections -fdata-section"
 2812      66756E63 
 2812      74696F6E 
 2812      733D3136 
 2812      202D6666 
 2813 05cd 73202D66 		.ascii	"s -fno-common -flto\000"
 2813      6E6F2D63 
 2813      6F6D6D6F 
 2813      6E202D66 
 2813      6C746F00 
 2814              	.LASF79:
 2815 05e1 77746F62 		.ascii	"wtobjp\000"
 2815      6A7000
 2816              	.LASF44:
 2817 05e8 74687265 		.ascii	"threads_list_t\000"
 2817      6164735F 
 2817      6C697374 
 2817      5F7400
 2818              	.LASF40:
ARM GAS  /tmp/ccJfAsKX.s 			page 80


 2819 05f7 6D74786C 		.ascii	"mtxlist\000"
 2819      69737400 
 2820              		.comm	__gnu_lto_v1,1,1
 2821              		.ident	"GCC: (GNU Tools for ARM Embedded Processors) 4.8.4 20140526 (release) [ARM/embedded-4_8-br
ARM GAS  /tmp/ccJfAsKX.s 			page 81


DEFINED SYMBOLS
                            *ABS*:00000000 test_sequence_006.c
     /tmp/ccJfAsKX.s:421    .text.test_006_001_execute:00000000 $t
     /tmp/ccJfAsKX.s:426    .text.test_006_001_execute:00000000 test_006_001_execute
     /tmp/ccJfAsKX.s:532    .text.test_006_001_execute:00000054 $d
     /tmp/ccJfAsKX.s:549    .text.msg_thread1:00000000 msg_thread1
     /tmp/ccJfAsKX.s:544    .text.msg_thread1:00000000 $t
     /tmp/ccJfAsKX.s:594    .rodata.test_sequence_006:00000000 test_sequence_006
     /tmp/ccJfAsKX.s:591    .rodata.test_sequence_006:00000000 $d
     /tmp/ccJfAsKX.s:611    .rodata.test_006_001:00000000 test_006_001
     /tmp/ccJfAsKX.s:598    .rodata.str1.4:00000000 $d
     /tmp/ccJfAsKX.s:608    .rodata.test_006_001:00000000 $d
                            *COM*:00000001 __gnu_lto_v1
                     .debug_frame:00000010 $d

UNDEFINED SYMBOLS
chThdCreateStatic
chMsgWait
chMsgRelease
test_emit_token
test_wait_threads
_test_assert_sequence
ch
wa
test_step
threads
chMsgSend
