ARM GAS  /tmp/ccRV6WVv.s 			page 1


   1              		.syntax unified
   2              		.cpu cortex-m4
   3              		.fpu softvfp
   4              		.eabi_attribute 20, 1
   5              		.eabi_attribute 21, 1
   6              		.eabi_attribute 23, 3
   7              		.eabi_attribute 24, 1
   8              		.eabi_attribute 25, 1
   9              		.eabi_attribute 26, 1
  10              		.eabi_attribute 30, 2
  11              		.eabi_attribute 34, 1
  12              		.eabi_attribute 18, 4
  13              		.thumb
  14              		.file	"test_sequence_003.c"
  15              		.text
  16              	.Ltext0:
  17              		.section	.gnu.lto_.jmpfuncs.bc1f97dbf017f777,"",%progbits
  18 0000 789C6362 		.ascii	"x\234cb`b\300\006\314\031\031\030,\2014\013\003\003"
  18      6062C006 
  18      CC191918 
  18      2C81340B 
  18      0303
  19 0012 132390CD 		.ascii	"\023#\220\315\300\304T\315\360\253\241\243A \223\221"
  19      C0C454CD 
  19      F0ABA1A3 
  19      41209391 
  20 0022 219711AC 		.ascii	"!\227\021\254\206)\2021\023,\307\214[\232i\202\037X"
  20      86298231 
  20      132CC78C 
  20      5B9A6982 
  20      1F58
  21 0034 1EC80529 		.ascii	"\036\310\005)\230\001R\300,\307\3008\267a\206C&#\013"
  21      980152C0 
  21      2CC7C038 
  21      B7618643 
  21      26230B
  22 0047 4421B224 		.ascii	"D!\262$\253\034\203(D\222\015S\222]\216A\036\"\311\001"
  22      AB1C8328 
  22      44920D53 
  22      925D8E41 
  22      1E22C901 
  23 005b 96642520 		.ascii	"\226d% \217\337d\\N\376\017\004\374\020\303A|\316\023"
  23      8FDF645C 
  23      4EFE0F04 
  23      FC10C341 
  23      7CCE13
  24 006e 4C70F783 		.ascii	"Lp\367\203Us%CU\303\215\346\226c0\207\030\315\003\011"
  24      55732543 
  24      55C38DE6 
  24      96633087 
  24      18CD0309 
  25 0082 3EE1FCD2 		.ascii	">\341\374\322\022\205\3744\205\222\314\334T\205\362"
  25      1285FC34 
  25      8592CCDC 
  25      5485F2
  26 0091 CCBC94FC 		.ascii	"\314\274\224\374r\006\316\274\374\022\005\277P\037\037"
  26      7206CEBC 
ARM GAS  /tmp/ccRV6WVv.s 			page 2


  26      FC1205BF 
  26      501F1F
  27 00a0 06F1F2A2 		.ascii	"\006\361\362\242\374\274t\205\242\324\222\322\242\274"
  27      FCBC7485 
  27      A2D492D2 
  27      A2BC
  28 00ae D41485DC 		.ascii	"\324\024\205\334\324\342\342\304\364T\006&G\006\000"
  28      D4E2E2C4 
  28      F4540626 
  28      470600
  29 00bd E39B50D4 		.ascii	"\343\233P\324"
  30              		.text
  31              		.section	.gnu.lto_.inline.bc1f97dbf017f777,"",%progbits
  32 0000 789C6362 		.ascii	"x\234cb`b\300\0066Ai\026 bfd`b\272\300\317\300\266@"
  32      6062C006 
  32      36416916 
  32      20626664 
  32      6062BAC0 
  33 0018 1EAC9889 		.ascii	"\036\254\230\211\201G\015(\304\332\241\316\300\336\241"
  33      81470D28 
  33      C4DAA1CE 
  33      C0DEA1
  34 0027 0E11E266 		.ascii	"\016\021\342f``\234\340\307\310\005d3\363\200\22400"
  34      60609CE0 
  34      C7C80564 
  34      33F38094 
  34      3030
  35 0039 33285A00 		.ascii	"3(Z\000UI]\233\316\010\327\011\226g\341\005\313\263"
  35      55495D9B 
  35      CE08D709 
  35      9667E105 
  35      CBB3
  36 004b F201D54C 		.ascii	"\362\001\325L\360\233\340\007\021\000\322`\215@\232"
  36      F09BE007 
  36      1100D260 
  36      8D409A
  37 005a 9541ED00 		.ascii	"\225A\355\000\003P\253\334\275\263\330\264\"\351\200"
  37      0350ABDC 
  37      BDB3D8B4 
  37      22E980
  38 0069 1AC52E00 		.ascii	"\032\305.\0004\016\310\005\"\006\006\000hZ\022\355"
  38      340EC805 
  38      22060600 
  38      685A12ED 
  39              		.text
  40              		.section	.gnu.lto_.pureconst.bc1f97dbf017f777,"",%progbits
  41 0000 789C6362 		.ascii	"x\234cb`b\340d\200\000\026\006\011&+f+V+\000\003\366"
  41      6062E064 
  41      80001606 
  41      09262B66 
  41      2B562B00 
  42 0016 00E2     		.ascii	"\000\342"
  43              		.text
  44              		.section	.gnu.lto_test_003_001_setup.bc1f97dbf017f777,"",%progbits
  45 0000 789C6362 		.ascii	"x\234cb`b@\007\222@<\001\210M\201\230\221\231\201\221"
  45      60624007 
  45      92403C01 
ARM GAS  /tmp/ccRV6WVv.s 			page 3


  45      884D8198 
  45      91998191 
  46 0014 69C23906 		.ascii	"i\3029\006\206F\016&FF\020\203\201\221\241\236\211\261"
  46      86460E26 
  46      46461083 
  46      8191A19E 
  46      89B1
  47 0026 3E9211AC 		.ascii	">\222\021\254v=\323\201\007\377\377\257\333\322\266"
  47      763DD381 
  47      07FFFFAF 
  47      DBD2B6
  48 0035 FC0CE34C 		.ascii	"\374\014\343L&f\240\010+CKC\303\004\005\006\206d\260"
  48      2666A008 
  48      2B434B43 
  48      C3040506 
  48      8664B0
  49 0048 8A102009 		.ascii	"\212\020 \011\322\026\312\310\004\242\231\31724\355"
  49      D216CAC8 
  49      04A299CF 
  49      3234ED
  50 0057 F8F1CC22 		.ascii	"\370\361\314\"\221q!#+\303l\206Y\215\015\015\002\231"
  50      91712123 
  50      2BC36C86 
  50      598D0D0D 
  50      0299
  51 0069 8C0CD50C 		.ascii	"\214\014\325\014\277\032:@,\306\\\260\266\010F \223"
  51      BF1A3A40 
  51      2CC65CB0 
  51      B6084620 
  51      93
  52 007a 01C60233 		.ascii	"\001\306\0023.24>\230\243\014\321\010\003!@E@SA~0\326"
  52      2E32343E 
  52      98A30CD1 
  52      08032140 
  52      45405341 
  53 0091 D3D377CE 		.ascii	"\323\323w\316\310L\312\364\017\326/I-.\321/*\321/\316"
  53      C84CCAF4 
  53      0FD62F49 
  53      2D2ED12F 
  53      2AD12FCE 
  54 00a5 2F2D4A4E 		.ascii	"/-JN\205pAD|qjaij^rj\274\201\201\261^2\003\000a\320"
  54      85704144 
  54      7C716A61 
  54      696A5E72 
  54      6ABC8181 
  55 00c0 3970     		.ascii	"9p"
  56              		.text
  57              		.section	.gnu.lto_thread1.bc1f97dbf017f777,"",%progbits
  58 0000 789C8552 		.ascii	"x\234\205RMh\023A\024~o6\177\032+\275*\022cA\360 \231"
  58      4D681341 
  58      147E6F36 
  58      7F1A2BBD 
  58      2A126341 
  59 0017 40046FA2 		.ascii	"@\004o\242\344\344!\010M\025=\205\35586\203\335l\273"
  59      E4E42108 
  59      4D153D85 
  59      ED383683 
ARM GAS  /tmp/ccRV6WVv.s 			page 4


  59      DD6CBB
  60 002a 9B94160F 		.ascii	"\233\224\026\017\335&-\350\255\364 b)R\213BQ\324\243"
  60      DD262DE8 
  60      ADF42062 
  60      29528B42 
  60      51D4A3
  61 003d E8257A6A 		.ascii	"\350%zj\017\215H\300\223\305\340I\351\311\233x\211o"
  61      0F8D48C0 
  61      93C5E049 
  61      E9C99B78 
  61      896F
  62 004f 7693B469 		.ascii	"v\223\264i\213\016\314\314\2337\337\367\2767\337.\003"
  62      8B0ECCCC 
  62      9B37DFF7 
  62      BE37DF2E 
  62      03
  63 0060 06FBC709 		.ascii	"\006\373\307\011\232\033\224\336\246\035\015@\266\330"
  63      9A1B94DE 
  63      A61D0D40 
  63      B6D8
  64 006e 00988B31 		.ascii	"\000\230\2131D\035\000\302,\303\331[\350c_\263z\253"
  64      441D00C2 
  64      2CC3D95B 
  64      E8635FB3 
  64      7AAB
  65 0080 DD7EF5F6 		.ascii	"\335~\365\366\331\367\273\030\217\240\205\020\005\345"
  65      D9F7BB18 
  65      8FA08510 
  65      05E5
  66 008e 5F8561DE 		.ascii	"_\205a\336\363\026\223\000\302?\216\320\252\351\327"
  66      F3169300 
  66      C23F8ED0 
  66      AAE9D7
  67 009d 91E9DDD8 		.ascii	"\221\351\335\330\204j\014`\010V=o\251\265\275\276\365"
  67      846A0C60 
  67      08563D6F 
  67      A9B5BDBE 
  67      F5
  68 00ae 01976ADE 		.ascii	"\001\227j\336\2067_o\267\361\264BB\335AM\275\211\012"
  68      86375F6F 
  68      B7F1B442 
  68      42DD414D 
  68      BD890A
  69 00c1 59D2DF8C 		.ascii	"Y\322\337\214P\177\237:\207$\000\015\250\376\372Z{~"
  69      507F9F3A 
  69      8724000D 
  69      A8FEFA5A 
  69      7B7E
  70 00d3 B2271904 		.ascii	"\262'\031\004\365\367\315e\343\234\211Oq\250\327O}\355"
  70      F5F7CD65 
  70      E39C894F 
  70      71A8D74F 
  70      7DED
  71 00e5 E1EFF8A9 		.ascii	"\341\357\370\251\336\351\001\0070q\025\303$\245\345"
  71      DEE90107 
  71      307115C3 
  71      24A5E5
ARM GAS  /tmp/ccRV6WVv.s 			page 5


  72 00f4 184D03FC 		.ascii	"\030M\003\374G\"|\244\220l0\002\213\022\320\304\025"
  72      47227CA4 
  72      906C3002 
  72      8B12D0C4 
  72      15
  73 0105 EFD16585 		.ascii	"\357\321e\205\241>\361\335\373/\235\373p\320\336'Xh"
  73      A13EF1DD 
  73      FB2F9DFB 
  73      70D0DE27 
  73      5868
  74 0117 7DBB1454 		.ascii	"}\273\024T\007\270\007\177\274\373\336\240\302\210\010"
  74      07B8077F 
  74      BCFBDEA0 
  74      C28808
  75 0126 0AF89998 		.ascii	"\012\370\231\230\302\250\205\330\001\351\232d\212\302"
  75      C2A885D8 
  75      01E99A64 
  75      8AC2
  76 0134 239A5D6B 		.ascii	"#\232]k\375\270q\200}Tt\312+\214\003\364\233\370\263"
  76      FDB87180 
  76      7D5474CA 
  76      2B8C03F4 
  76      9BF8B3
  77 0147 B1DF4413 		.ascii	"\261\337D\023\327\374'\375\327E\370\227\213;+\332\305"
  77      D7FC27FD 
  77      D745F897 
  77      8B3B2BDA 
  77      C5
  78 0158 37FD2E3E 		.ascii	"7\375.>\031H\354\371\306\235\364\346\205];#\272\246"
  78      1948ECF9 
  78      C69DF4E6 
  78      855D3B23 
  78      BAA6
  79 016a C0E8218E 		.ascii	"\300\350!\216\232\270NAO\270\353\240\211/1\0214\265"
  79      9AB84E41 
  79      4FB8EBA0 
  79      892F3111 
  79      34B5
  80 017c 05D5770B 		.ascii	"\005\325w\013/\232,(6\206\321exLp\212\"\232v\014\272"
  80      2F9A2C28 
  80      3686D165 
  80      784C708A 
  80      229A760C 
  81 0191 16870E38 		.ascii	"\026\207\01684 \264\2074\210\245\3608\300g\230k\355"
  81      3420B487 
  81      3488A5F0 
  81      38C06798 
  81      6BED
  82 01a3 B02E2E18 		.ascii	"\260..\030#\244L\177\241\226\315\244R<[T\243\352Z\236"
  82      23A44C7F 
  82      A196CDA4 
  82      523C5B54 
  82      A3EA5A9E 
  83 01b7 97A55BE6 		.ascii	"\227\245[\346N\231\273v\305\02128\352\245\340\312\311"
  83      4E99BB76 
  83      C5113238 
  83      EAA5E0CA 
ARM GAS  /tmp/ccRV6WVv.s 			page 6


  83      C9
  84 01c8 8A2C0959 		.ascii	"\212,\011YH\2473)\001|\017\307v\271\260-\313.\361\011"
  84      48A73329 
  84      017C0FC7 
  84      76B9B02D 
  84      CB2EF109 
  85 01dc DB29BBFC 		.ascii	"\333)\273\374\312p.\233\233\346\242(lG\026\246.Z\251"
  85      CA702E9B 
  85      9BE6A228 
  85      6C4716A6 
  85      2E5AA9
  86 01ef 2284A7CC 		.ascii	"\"\204\247\314\361\212\314\034\312\222\323e\236\315"
  86      F18ACC1C 
  86      CA92D365 
  86      9ECD
  87 01fd E5AFE6B9 		.ascii	"\345\257\346\271*\211\361\312m\311\205\345*\2670&\004"
  87      2A89F1CA 
  87      6DC985E5 
  87      2AB73026 
  87      04
  88 020e 31CFF473 		.ascii	"1\317\364s\250\267\036\252\350\316\270\204\030\314\345"
  88      A8B71EAA 
  88      E8CEB884 
  88      18CCE5
  89 021d 8793A3A6 		.ascii	"\207\223\243\246+'\034u>y6\015\314\201\250%-\333\231"
  89      2B271C75 
  89      3E79360D 
  89      CC81A825 
  89      2DDB99
  90 0230 81BFCFD0 		.ascii	"\201\277\317\320\353\361"
  90      EBF1
  91              		.text
  92              		.section	.gnu.lto_test_003_001_execute.part.0.bc1f97dbf017f777,"",%progbits
  93 0000 789C8D55 		.ascii	"x\234\215U]h\034U\024>g\376v7I\333\324T\233\324\272"
  93      5D681C55 
  93      143E67FE 
  93      763749DB 
  93      D4549BD4 
  94 0015 8E059F94 		.ascii	"\216\005\237\224LjP\321\027\225\370\022\310Fh\022\320"
  94      4C6A50D1 
  94      1795F812 
  94      C8466812 
  94      D0
  95 0026 A730998C 		.ascii	"\2470\231\214\233\201\354N\235\231MZ|\310l\022%j)\241"
  95      9B81EC4E 
  95      9D994D5A 
  95      7CC86C12 
  95      256A29A1 
  96 003a 06D116B1 		.ascii	"\006\321\026\261\241X\255\032\225\242T\203\342\242\030"
  96      A158AD1A 
  96      95A25483 
  96      E2A218
  97 0049 ACD2843C 		.ascii	"\254\322\204<(\250\010kA\243P\361\0074\361\007\327s"
  97      28A8086B 
  97      41A350F1 
  97      0734F107 
  97      D773
ARM GAS  /tmp/ccRV6WVv.s 			page 7


  98 005b EFFC6437 		.ascii	"\357\374d7\206&w\231;\367\336\363\367\235\357\234;+"
  98      86267799 
  98      3BF7DEF3 
  98      F79DEF9C 
  98      3B2B
  99 006d 80001B47 		.ascii	"\200\000\033G'=3\012\300\253\010\200\011@ez\221\026"
  99      273D330A 
  99      C0AB0880 
  99      0940657A 
  99      9116
 100 007f 0A0AFC2D 		.ascii	"\012\012\374-\010\362\027\032\370u\342|\032\374\006"
 100      08F2171A 
 100      F875E27C 
 100      1AFC06
 101 008e 31DC497C 		.ascii	"1\334I|'\241\314t\212I\031\221-\000aL\021DI\306\261"
 101      27A1CC74 
 101      8A491991 
 101      2D00614C 
 101      114449C6 
 102 00a3 8790B996 		.ascii	"\207\220\271\226\017\300\254\357\237,\177\274\362\003"
 102      0FC0ACEF 
 102      9F2C7FBC 
 102      F203
 103 00b1 3E37539A 		.ascii	">7S\232<\355\377S\251 ZLh <H+T\371K\220jA\005\206\376"
 103      3CEDFF53 
 103      A9205A4C 
 103      68203C48 
 103      2B54F94B 
 104 00cb F997FD14 		.ascii	"\371\227\375\0247\022-\024\267e3]Z^8\326\342\237\036"
 104      37122D14 
 104      B765335D 
 104      5A5E38D6 
 104      E29F1E
 105 00de 9FF6FFA5 		.ascii	"\237\366\377\245X\026J\002\334\201\333\261<Q\372`\341"
 105      58164A02 
 105      DC81DBB1 
 105      3C51FA60 
 105      E1
 106 00ef 78B52571 		.ascii	"x\265%qu\3676-W\027>\235E\377\204_\374\245R\331e\241"
 106      75F7362D 
 106      57173E9D 
 106      45FF845F 
 106      FCA552D9 
 107 0105 2CC03D5B 		.ascii	",\300=[Y\276!\370\345J\345\317\325\344\036\004\036K"
 107      59BE21F8 
 107      E54AE5CF 
 107      D5E41E04 
 107      1E4B
 108 0117 C7337800 		.ascii	"\3073x\000D\332(\022\233d\232\022\012\035\277D\307\011"
 108      44DA2812 
 108      9B649A12 
 108      0A1DBF44 
 108      C709
 109 0129 B649B229 		.ascii	"\266I\262)\305&\306-LR\266\252\216/\2228\260\345\004"
 109      C526C62D 
 109      4C52B6AA 
 109      8E2F9238 
ARM GAS  /tmp/ccRV6WVv.s 			page 8


 109      B0E504
 110 013c D1E8A599 		.ascii	"\321\350\245\231\325\243\027\025\366\026\373P\340\357"
 110      D5A31715 
 110      F616FB50 
 110      E0EF
 111 014a 259828BF 		.ascii	"%\230(\277\377Q\275\216\347P&\265G\341/\177\312o\264"
 111      FF51BD8E 
 111      E75026B5 
 111      47E12F7F 
 111      CA6FB4
 112 015d 306920B7 		.ascii	"0i \267#\317)\200K0\376\316\332o\315\201\326)8Y\364"
 112      23CF2980 
 112      4B30FECE 
 112      DA6FCD81 
 112      D6293859 
 113 0172 994E5DAC 		.ascii	"\231N]\254]\237\343\312,\247z\210Vu\254\257.\302x2\242"
 113      5D9FE3CA 
 113      2CA77A88 
 113      5675ACAF 
 113      2EC27832 
 114 0187 A47CEAF1 		.ascii	"\244|\352\361\317[^;\357\373O\224\374\265\012\262\002"
 114      CF5B5E3B 
 114      EFFB4F94 
 114      FCB50AB2 
 114      02
 115 0198 360850D8 		.ascii	"6\010P\330\212\025v\326\240\322b\021\306\177\375{\342"
 115      8A1576D6 
 115      A0D26211 
 115      C67FFD7B 
 115      E2
 116 01a9 ECBE30CD 		.ascii	"\354\2760\315(\337\322\205c\363MEY\3079\236oxXyf\255"
 116      28DFD285 
 116      63F34D45 
 116      59C7399E 
 116      6F785879 
 117 01bf 7E7FBCFB 		.ascii	"~\177\274\373\354\373o\251W\002\374\006\245nP\353\030"
 117      ECFB6FA9 
 117      5702FC06 
 117      A56E50EB 
 117      18
 118 01d0 C80321FD 		.ascii	"\310\003!\375\226iKh\305\340*\244\3412>\357?{\257\205"
 118      96694B68 
 118      C5E02AA4 
 118      E1323EEF 
 118      3F7BAF85 
 119 01e4 3B6AE2AF 		.ascii	";j\342\257\313\277\013\345;\003\204\227\340\303\257"
 119      CBBF0BE5 
 119      3B038497 
 119      E0C3AF
 120 01f3 DE5BFDF1 		.ascii	"\336[\375\361\234\262\021\331\334\331\257\305x\363\366"
 120      9CB211D9 
 120      DCD9AFC5 
 120      78F3F6
 121 0202 DC978978 		.ascii	"\334\227\211x\363\324\312l\025 \366(\364\260\"B\026"
 121      F3D4CA6C 
 121      1520F628 
 121      F4B02242 
ARM GAS  /tmp/ccRV6WVv.s 			page 9


 121      16
 122 0213 F11678C5 		.ascii	"\361\026x\305\237,\226\347\227\026\005\013w1\302\247"
 122      9F2C96E7 
 122      9716050B 
 122      7731C2A7 
 123 0223 19CD8D0C 		.ascii	"\031\315\215\014\312n\237\206\304Q\355\346\321\007\030"
 123      CA6E9F86 
 123      C451EDE6 
 123      D10718
 124 0232 F73ABECB 		.ascii	"\367:\276\313\013\310\010\177\363\362]\201\343\240\021"
 124      0BC8087F 
 124      F3F25D81 
 124      E3A011
 125 0241 D85882C7 		.ascii	"\330X\202\307\312Kg\224\3408\213B\\\271k\014Lr\215\340"
 125      CA4B6794 
 125      E0388B42 
 125      5CB96B0C 
 125      4C728DE0 
 126 0255 C41FB3B0 		.ascii	"\304\037\263\260)\207\030\366\003\013\242LwS\023\354"
 126      298718F6 
 126      030BA24C 
 126      775313EC 
 127 0265 E19E4B2D 		.ascii	"\341\236K-\221c\326[\344\347\177\005\376ic\201u|\235"
 127      9163D65B 
 127      E4E77F05 
 127      FE696381 
 127      757C9D
 128 0278 F3BD6585 		.ascii	"\363\275e\205\341\252\025\376\206W\270T[\341\027v\244"
 128      E1AA15FE 
 128      8657B854 
 128      5BE11776 
 128      A4
 129 0289 E3A65F67 		.ascii	"\343\246_g\366JQ^g6\005\374\012\324mRm\035\337\242E"
 129      F64A515E 
 129      673605FC 
 129      0AD46D52 
 129      6D1DDFA2 
 130 029e 1C3BAAAE 		.ascii	"\034;\252\256\216\0270\035\325ubjb\345\270\034\321&"
 130      8E17301D 
 130      D575626A 
 130      62E5B81C 
 130      D126
 131 02b0 5269224A 		.ascii	"Ri\"J\002\251\030\211\244H\364t7\247;\246Z\216\251\276"
 131      02A91889 
 131      A448F474 
 131      37A73BA6 
 131      5A8EA9BE 
 132 02c4 D6082F07 		.ascii	"\326\010/\007w$\261\363f\013\257K\303\037B\320M{C\324"
 132      7724B1F3 
 132      660BAF4B 
 132      C31F42D0 
 132      4D7B43D4 
 133 02d8 447733C0 		.ascii	"Dw3\300'0y\005c/\314w\242\232\263>\302>\237\026\351"
 133      27307905 
 133      632FCC77 
 133      A29AB33E 
 133      C23E9F16 
ARM GAS  /tmp/ccRV6WVv.s 			page 10


 134 02ed 665E9C1A 		.ascii	"f^\234\032\215\324\224\370n\266\304aY9C\216\233 \316"
 134      8DD494F8 
 134      6EB6C461 
 134      5939438E 
 134      9B20CE
 135 0300 6B29469E 		.ascii	"k)F\236 3&l\011\372$N6\031{\330g\204\014\221r\210\372"
 135      2033266C 
 135      09FA244E 
 135      36197BD8 
 135      67840C91 
 136 0317 FA343C29 		.ascii	"\3724<)\006\250\367\257\243\276a\003\352\344&\250%\370"
 136      06A8F7AF 
 136      A3BE6103 
 136      EAE426A8 
 136      25F8
 137 0329 B95E6400 		.ascii	"\271^d\000&~\337\031\351\245\250\223\230j\272\022\015"
 137      267EDF19 
 137      E9A5A893 
 137      986ABA12 
 137      0D
 138 033a 1CABC252 		.ascii	"\034\253\302R\365Y\252\202\222\012\241\334\230\206\231"
 138      F559AA82 
 138      920AA1DC 
 138      988699
 139 0349 108A5A03 		.ascii	"\020\212Z\003%\210'\363\317\3342\375#\255\243\350%F"
 139      258827F3 
 139      CFDC32FD 
 139      23ADA3E8 
 139      2546
 140 035b E89495BB 		.ascii	"\350\224\225\273\275\265U\353\030\262\006\254\007z4"
 140      BDB555EB 
 140      18B206AC 
 140      077A34
 141 036a CF743DCD 		.ascii	"\317t=\315\3614\327.8\206\031l\331\324\357\232\217\024"
 141      F134D72E 
 141      3886196C 
 141      D9D4EF9A 
 141      8F14
 142 037c CCBC61F6 		.ascii	"\314\274a\366\267\265\265\267\032 \346\334\254\344Y"
 142      B7B5B5B7 
 142      1A20E6DC 
 142      ACE459
 143 038b 3953F69C 		.ascii	"9S\366\234\203\255mZ\225\013\333\325\014;\227\263\363"
 143      83AD6D5A 
 143      950BDBD5 
 143      0C3B97B3 
 143      F3
 144 039c DA61DBF1 		.ascii	"\332a\333\361\\\355\276C\231\216\314\021\315\0302l\307"
 144      5CEDBE43 
 144      998ECC11 
 144      CD18326C 
 144      C7
 145 03ad EC1FB933 		.ascii	"\354\037\2713\327:\004\362\210>\\0\3337\2652\217xZG"
 145      D73A04F2 
 145      883E5C30 
 145      DB37B532 
 145      8F785A47 
ARM GAS  /tmp/ccRV6WVv.s 			page 11


 146 03c1 A6A7B347 		.ascii	"\246\247\263G\263\362\306pa\320\324\214\234k\271\375"
 146      B3F2C670 
 146      61D0D48C 
 146      9C6BB9FD 
 147 03d1 59C320CB 		.ascii	"Y\303 \313\233jm\010j\2545\344\036uI\2431\323sH\035"
 147      9B6A6D08 
 147      6AAC35E4 
 147      1E7549A3 
 147      31D37348 
 148 03e6 D05DF3B0 		.ascii	"\320]\363\260c\335\252\336\334\006\202\003\211\234\231"
 148      63DDAADE 
 148      DC068203 
 148      899C99
 149 03f5 B39DA370 		.ascii	"\263\235\243p{\255\365\220>\034\202\354\351\315\264"
 149      7BADF590 
 149      3E1C82EC 
 149      E9CDB4
 150 0404 DFA67575 		.ascii	"\337\246uu\335\257\365vfF\0162I?e=<<H\036\017n;;\306"
 150      DDAFF576 
 150      66460E32 
 150      493F653D 
 150      3C3C481E 
 151 041d 884316EA 		.ascii	"\210C\026\352UP\216x\244\320d\027<\325~Xe\006\352\250"
 151      55508E78 
 151      A4D06417 
 151      3CD57E58 
 151      6506EAA8 
 152 0431 951FB447 		.ascii	"\225\037\264G!\225\267=\265\273\257\253\013\366\216"
 152      2195B73D 
 152      B5BBAFAB 
 152      0BF68E
 153 0440 3A763EAB 		.ascii	":v>\253:\246Wp\362\346\240\2323]W\317\232\360\037t\212"
 153      3AA65770 
 153      F2E6A09A 
 153      335D57CF 
 153      9AF01F74 
 154 0455 2177     		.ascii	"!w"
 155              		.text
 156              		.section	.gnu.lto_test_003_001_execute.bc1f97dbf017f777,"",%progbits
 157 0000 789C8D55 		.ascii	"x\234\215U_h\034e\020\237\331\275\275^.w\346\222\252"
 157      5F681C65 
 157      109FD9BD 
 157      BD5E2E77 
 157      E692AA
 158 0013 BD8BE9F5 		.ascii	"\275\213\351\365\032\215\026\324l$`\021|H\311\223\320"
 158      1A8D16D4 
 158      6C246011 
 158      7C48C993 
 158      D0
 159 0024 28340DE8 		.ascii	"(4\015\350S\330l\226\313b\367\256\356nj\213\017\331"
 159      53D86C96 
 159      CB62F7AE 
 159      EE6E6A8B 
 159      0FD9
 160 0036 242D5623 		.ascii	"$-V#\341\350\203\024K\265\245ZD\213\325\372R\203\332"
 160      E1E88314 
 160      4BB5A55A 
ARM GAS  /tmp/ccRV6WVv.s 			page 12


 160      448BD5FA 
 160      5283DA
 161 0049 03312446 		.ascii	"\0031$F\033\362`[\244\305\323\"\010\255\225\276\205"
 161      1BF2605B 
 161      A4C5D322 
 161      08AD95BE 
 161      85
 162 005a 167ACEEC 		.ascii	"\026z\316\354\277\273\304\330\270\260\337\237\371\346"
 162      BFBBC4D8 
 162      B8B0DF9F 
 162      F9E6
 163 0068 CF6F7E33 		.ascii	"\317o~3\337\256\000\002\254~z\350\305\015\000\333\221"
 163      DFAE0002 
 163      AC7E7AE8 
 163      C50D00DB 
 163      91
 164 0079 E628A050 		.ascii	"\346(\240P\272\0100\036\023\004\351\222\014N\\\234\311"
 164      BA08301E 
 164      1304E992 
 164      0C4E5C9C 
 164      C9
 165 008a 829310FD 		.ascii	"\202\223\020\375]\304\335EPb%\224\020y\006\2041A\214"
 165      5DC4DD45 
 165      50622594 
 165      10790684 
 165      31418C
 166 009d 4838F60A 		.ascii	"H8\366\012\262G\241\035N:\316\221\312\037\267>\316\274"
 166      B247A11D 
 166      4E3ACE91 
 166      CA1FB73E 
 166      CEBC
 167 00af 7D62A2E4 		.ascii	"}b\242\344\334\253VQG\212\375,\202\212\3602m0\347NB"
 167      DCAB5651 
 167      478AFD2C 
 167      828AF032 
 167      6D30E74E 
 168 00c4 642518D7 		.ascii	"d%\030\327\262T^\232}'\343\324,E\001\236_\317\362\254"
 168      B2545E9A 
 168      7D27E3D4 
 168      2C45019E 
 168      5FCFF2AC 
 169 00d8 50AE54AB 		.ascii	"P\256T\2537\277\254\374\376+6\267\211\240c$B\203\024"
 169      37BFACFC 
 169      FE2B36B7 
 169      89A06324 
 169      428314
 170 00eb A501E2A0 		.ascii	"\245\001\342\240\340)l\207\004\315'iN\2220\332\304C"
 170      E0296C87 
 170      04CD2769 
 170      4E9230DA 
 170      C443
 171 00fd 8A87161E 		.ascii	"\212\207\026\036\322\254\230\241\201\270\000\011\016"
 171      D2AC98A1 
 171      81B80009 
 171      0E
 172 010a 128E9C97 		.ascii	"\022\216\234\227H\371\302\354t=\234\230\000=\353\301"
 172      48F9C2EC 
ARM GAS  /tmp/ccRV6WVv.s 			page 13


 172      743D9C98 
 172      003DEBC1 
 173 011a F1E2016B 		.ascii	"\361\342\001k\321\263\233Ffj\000\005\236\305\237`\342"
 173      D1B39B46 
 173      666A0005 
 173      9EC59F60 
 173      E2
 174 012b FCF91B69 		.ascii	"\374\371\033i\005?B\011\216\301{\343\216\223\322\261"
 174      053F4209 
 174      8EC17BE3 
 174      8E93D2B1 
 175 013b E10DB8E3 		.ascii	"\341\015\270\343\034\346U\334p\315\330q\034\202U\003"
 175      1CE655DC 
 175      70CDD871 
 175      1C825503 
 176 014b CBC8F2EA 		.ascii	"\313\310\362\352\362\215+\021\3174\217\342\323p\206"
 176      F28D2B11 
 176      CF348FE2 
 176      D37086
 177 015a 2D1AD94B 		.ascii	"-\032\331K\211W\011\366r\224WI\003\321\267M\206^\036"
 177      895709F6 
 177      72945749 
 177      03D1B74D 
 177      865E1E
 178 016d A80349CE 		.ascii	"\250\003I\316~\371\372\372\237?D\375t\203\274\235OO"
 178      7EF9FAFA 
 178      9F3F44FD 
 178      7483BC9D 
 178      4F4F
 179 017f CB2107C1 		.ascii	"\313!\007\301\242\274py\251\03193\216\254\272\256ir"
 179      A2BC7079 
 179      A9193933 
 179      8EACBAAE 
 179      6972
 180 0191 1B2A8FE9 		.ascii	"\033*\217\351'\341\023\307q*\307f/}\210\0021\351\355"
 180      27E113C7 
 180      712AC766 
 180      2F7D8802 
 180      31E9ED
 181 01a4 9DE7746C 		.ascii	"\235\347tl\012\023L\205\0116\033\256!\003jv\241\014"
 181      0A134C85 
 181      09361BAE 
 181      21036A76 
 181      A10C
 182 01b6 A14BDA67 		.ascii	"\241K\332g\344\232\326\030\256=\220W\316\265*x\326M"
 182      E49AD618 
 182      AE3D9057 
 182      CEB52A78 
 182      D64D
 183 01c8 38E33BB6 		.ascii	"8\343;\266\250P\241\343\026\002\300\276\300\367%\260"
 183      A850A1E3 
 183      1602C0BE 
 183      C0F725B0 
 184 01d8 FDE781FD 		.ascii	"\375\347\201\375\344\341\357\026.\177\321\020P\026!"
 184      E4E1EF16 
 184      2E7FD110 
 184      501621
ARM GAS  /tmp/ccRV6WVv.s 			page 14


 185 01e7 27AC2C55 		.ascii	"'\254,U\351i\"\215EH\007g\321\020\341F\025E\360r\023"
 185      E969228D 
 185      45480767 
 185      D110E146 
 185      1545F072 
 186 01fc 5DF6E704 		.ascii	"]\366\347\004\266\345\363\230\216\017\252\350\227\000"
 186      B6E5F398 
 186      8E0FAAE8 
 186      9700
 187 020a 5892D6F1 		.ascii	"X\222\326\361\241,\274z\3349\332\243\343\303>E\324J"
 187      A12CBC7A 
 187      DC39DAA3 
 187      E3C33E45 
 187      D44A
 188 021c 9B5CF8F3 		.ascii	"\233\\\370\363\245\270'\341Zy\234\324\212\236\016#f"
 188      A5B827E1 
 188      5A799CD4 
 188      8A9E0E23 
 188      66
 189 022d 0C372207 		.ascii	"\0147\"\007\313\254Q.\002\0070\017\0231\377\226\034"
 189      CBAC512E 
 189      0207300F 
 189      1331FF96 
 189      1C
 190 023e A97CF3E6 		.ascii	"\251|\363\346\317\2313\347\034\347\255\262\263\\\305"
 190      CF9933E7 
 190      1CE7ADB2 
 190      B35CC5
 191 024d AAA863AB 		.ascii	"\252\250c\253\000\357\343z\255\311\262V*+\\\204\211"
 191      00EFE37A 
 191      ADC9B256 
 191      2A2B5C84 
 191      89
 192 025e DB3F1E3A 		.ascii	"\333?\036:\335\272\272\320w\247g6\216K\012~\353v\260"
 192      DDBABAD0 
 192      77A76736 
 192      8E4B0A7E 
 192      EB76B0
 193 0271 2FBC7E7C 		.ascii	"/\274~|\271\261-\334M]\375M\254\265\002\277Qz\371\346"
 193      B9B12DDC 
 193      4D5DFD4D 
 193      ACB502BF 
 193      517AF9E6 
 194 0285 D0C700E1 		.ascii	"\320\307\000\341\016eB5\020\275\317M\026\246\204\200"
 194      0E654235 
 194      10BDCF4D 
 194      16A68480 
 195 0295 9AFAF8B5 		.ascii	"\232\372\370\265\363i\377\374\021\017\341\"\034\252"
 195      F369FFFC 
 195      110FE122 
 195      1CAA
 196 02a3 7C752A1A 		.ascii	"|u*\032\024%\036R\324\246b\314\325\360$\316\230\216"
 196      14251E52 
 196      D4A662CC 
 196      D5F024CE 
 196      988E
 197 02b5 9B8DB012 		.ascii	"\233\215\260\022uE\3251\353\222U\316xg\336u\314\363"
ARM GAS  /tmp/ccRV6WVv.s 			page 15


 197      7545D531 
 197      EB9255CE 
 197      7867DE75 
 197      CCF3
 198 02c7 6D5A45E1 		.ascii	"mZE\341_\253)T\360\002\365\317\377\240\020\356K\341"
 198      5FAB2954 
 198      F002F5CF 
 198      FFA010EE 
 198      4BE1
 199 02d9 3597C285 		.ascii	"5\227\302\205\225\024~\220\314\376\373^M]\033\227j\\"
 199      95147E90 
 199      CCFEFB5E 
 199      4D5D1B97 
 199      6A5C
 200 02eb 3678D72A 		.ascii	"6x\327*\276\006\235\012~O\2130v@\237\202s\234\255\177"
 200      BE069D0A 
 200      7E4F8B30 
 200      76409F82 
 200      739CAD7F 
 201 02ff 57E6976F 		.ascii	"W\346\227om\013\210K\204]\266%\244\220\371\3623\330"
 201      6D0B884B 
 201      845DB625 
 201      A490F9F2 
 201      33D8
 202 0311 1C7E0626 		.ascii	"\034~\006&\027\305\300&If|\270\305+\204\024\310\233"
 202      17C5C026 
 202      49667CB8 
 202      C52B8414 
 202      C89B
 203 0323 420F3915 		.ascii	"B\0179\025\033\375\216L\372\315\2775\013\357\372%l\257"
 203      1BFD8E4C 
 203      FACDBF35 
 203      0BEFFA25 
 203      6CAF
 204 0335 75FFA300 		.ascii	"u\377\243\000sp\360&\206.\330o\264\236\307\001\312g"
 204      7370F026 
 204      862ED86F 
 204      B49EC701 
 204      CA67
 205 0347 262B3280 		.ascii	"&+2\200\311\333\311@/Eub\325\307VAhY\013B\312\207\320"
 205      C9DBC940 
 205      2F457562 
 205      D5C75641 
 205      68590B42 
 206 035e 9185133E 		.ascii	"\221\205\023>\204\307\377\033B\313\032\020\"\360w\243"
 206      84C7FF1B 
 206      42CB1A10 
 206      22F077A3 
 207 036e B8089331 		.ascii	"\270\010\2231\337\012\3020O\250\230p\225t\334\026hK"
 207      DF0AC230 
 207      4FA89870 
 207      9574DC16 
 207      684B
 208 0380 EE077C89 		.ascii	"\356\007|\211\376\2205\037\273\351\316\221\224\253\321"
 208      FE90351F 
 208      BBE9CE91 
 208      94ABD1
ARM GAS  /tmp/ccRV6WVv.s 			page 16


 209 038f DDD929F7 		.ascii	"\335\331)\367\216\350C\372K\375\262\255Y\266l\332\262"
 209      8EE843FA 
 209      4BFDB2AD 
 209      59B66CDA 
 209      B2
 210 03a0 551C3555 		.ascii	"U\0345U\315\333\3620hi\257\215j\005U\033\354\352\352"
 210      CDDBF230 
 210      6869AF8D 
 210      6A05551B 
 210      ECEAEA
 211 03b3 EE5441B2 		.ascii	"\356TA\262\315g:\273D\303\312Gl\335\320:\352\\\024-"
 211      CD673ABB 
 211      44C3CA47 
 211      6CDDD03A 
 211      EA5C142D 
 212 03c7 76A017D4 		.ascii	"v\240\027\324=\243\303\232\254\216\330#\246\246\014"
 212      3DA3C39A 
 212      AC8ED823 
 212      A6A60C
 213 03d6 5B9D2320 		.ascii	"[\235# \354\000y\245\242Z4\214bA\336[4mK\336\261\253"
 213      EC0079A5 
 213      A25A348C 
 213      6241DE5B 
 213      346D4BDE 
 214 03ec AFB76F3F 		.ascii	"\257\267o?Y\250ES\033\334\267\335 \023i\237\262gT\353"
 214      59A84553 
 214      1BDCB7DD 
 214      2013699F 
 214      B26754EB 
 215 0400 5ED34ADB 		.ascii	"^\323J\333o\313\275}\375/\364\327\202\031\226n\015\346"
 215      6FCBBD7D 
 215      FD2FF4D7 
 215      8219966E 
 215      0DE6
 216 0412 55952CB7 		.ascii	"U\225,\267\336\007\222u\200\341\244\372\372w\345\206"
 216      DE079275 
 216      80E1A4FA 
 216      FA77E586 
 217 0422 144BDB6B 		.ascii	"\024K\333k\352O\345:\272@0a\203\241\031E\363\0004\024"
 217      EA4FE53A 
 217      BA403061 
 217      83A11945 
 217      F3003414 
 218 0436 8A76EEC5 		.ascii	"\212v\356\305\201\235;a\323\353f\261\220\317\231\232"
 218      819D3B61 
 218      D3EB66B1 
 218      90CF999A 
 219 0446 3D6A16B4 		.ascii	"=j\026\264\341\234\241Y\226\222\327\340\037I\266\012"
 219      E19CA159 
 219      9692D7E0 
 219      1F49B60A 
 220 0456 B7       		.ascii	"\267"
 221              		.text
 222              		.section	.gnu.lto_.symbol_nodes.bc1f97dbf017f777,"",%progbits
 223 0000 789C4D8C 		.ascii	"x\234M\214KN\002Q\020E\357\273\325\325((\015l\300\345"
 223      4B4E0251 
 223      1045EFBB 
ARM GAS  /tmp/ccRV6WVv.s 			page 17


 223      D5D52828 
 223      0D6CC0E5 
 224 0014 B80E5752 		.ascii	"\270\016WR\304ND&\200\037\360\307g@\302F:q\200\211S"
 224      C44E4426 
 224      801FF0C7 
 224      6740C246 
 224      3A718089 
 225 0029 A69A9EB2 		.ascii	"\246\232\236\262\006\302{4\341Q\223\223s\253n\021\304"
 225      06C27B34 
 225      E1519393 
 225      73AB6E11 
 225      C4
 226 003a AD43351C 		.ascii	"\255C5\034\321\034F\277\200\331\264\177\247\003\"1\341"
 226      D11C46BF 
 226      80D9B47F 
 226      A7032231 
 226      E1
 227 004b 90869872 		.ascii	"\220\206\230rE\343Qg\217N_\351`\340\023M\316\252c\322"
 227      45E35167 
 227      8F4E5FE9 
 227      60E0134D 
 227      CEAA63D2 
 228 005f A7BAA004 		.ascii	"\247\272\240\004\2741\011x\241\252\3073S\377\326\315"
 228      BC310978 
 228      A1AAC733 
 228      53FFD6CD 
 229 006f 6949D5E8 		.ascii	"iI\325\350v\235\233\3214\332\224\226F\373\244\325\242"
 229      769D9BD1 
 229      34DA9496 
 229      46FBA4D5 
 229      A2
 230 0080 BDD32EA2 		.ascii	"\275\323.\242}\321.\243}\320\352\321&\264\306\311\204"
 230      7DD12EA3 
 230      7DD0EAD1 
 230      26B4C6C9 
 230      84
 231 0091 D728FE76 		.ascii	"\327(\376v\236W(\017l\240\374\367\2246\312\365\206\201"
 231      9E57280F 
 231      6CA0FCF7 
 231      9436CAF5 
 231      8681
 232 00a3 F9FA3B15 		.ascii	"\371\372;\025i!\357moD2\024\207}\023y\270\327\016\226"
 232      6921EF6D 
 232      6F443214 
 232      877D1379 
 232      B8D70E96 
 233 00b7 C135C3F2 		.ascii	"\3015\303\362\301\357\325\367z\025\213\320S\301\375"
 233      C1EFD5F7 
 233      7A158BD0 
 233      53C1FD
 234 00c6 CF86D803 		.ascii	"\317\206\330\003$\274\\i"
 234      24BC5C69 
 235              		.text
 236              		.section	.gnu.lto_.refs.bc1f97dbf017f777,"",%progbits
 237 0000 789C2588 		.ascii	"x\234%\210\321\025\000\020\014\304.G\025\253\330\177"
 237      D1150010 
 237      0CC42E47 
ARM GAS  /tmp/ccRV6WVv.s 			page 18


 237      15ABD87F 
 238 0010 3FF5245F 		.ascii	"?\365$_\211e\035}\020`\323\032\335\025\031t\015e\255"
 238      89651D7D 
 238      1060D31A 
 238      DD151974 
 238      0D65AD
 239 0023 F99AE55D 		.ascii	"\371\232\345]\312\241\013\021\353\000\242"
 239      CAA10B11 
 239      EB00A2
 240              		.text
 241              		.section	.gnu.lto_.decls.bc1f97dbf017f777,"",%progbits
 242 0000 789CBD5B 		.ascii	"x\234\275[\011t\024U\272\256\252\356\316\002auy\314"
 242      09741455 
 242      BAAEAAEE 
 242      CE026175 
 242      79CC
 243 0012 D319C39C 		.ascii	"\323\031\303\234\321\343r l\216\350y\016`\364\250\347"
 243      D1E37220 
 243      6C8EE879 
 243      0E60F4A8 
 243      E7
 244 0023 C8E849F0 		.ascii	"\310\350I\360\035\346\315\233\327\026\235\202\364\330"
 244      1DE6CD9B 
 244      D7169D82 
 244      F4D8
 245 0031 4BECAE10 		.ascii	"K\354\256\020xo\316\263\022BXD\010\213!0,\001DA\224"
 245      786FCEB3 
 245      12425844 
 245      088B2130 
 245      2C014441 
 246 0046 258084E5 		.ascii	"%\200\204\345a\003\022C\024!0\200\022\221 F\204AD\030"
 246      61031243 
 246      14213080 
 246      12912046 
 246      84414418 
 247 005a 96B098F7 		.ascii	"\226\260\230\367\337\377VuWUWUW\005\235:\347\336\256"
 247      DFFF5675 
 247      57555755 
 247      57059D3A 
 247      E7DEAE
 248 006d E5DEEFFE 		.ascii	"\345\336\357\376\353\275\377]\232c8f\244\213a\332\341"
 248      EBBDFF5D 
 248      9A633866 
 248      A48B61DA 
 248      E1
 249 007e 9AFF3CC3 		.ascii	"\232\377<\303<\323\211a<\014\303\374\016R\027HK \245"
 249      3CD38961 
 249      3C0CC3FC 
 249      0E521748 
 249      4B20A5
 250 0091 414A87F4 		.ascii	"AJ\207\364\007\226a\376\003\322\177B\372\023$/\244\227"
 250      079661FE 
 250      03D27F42 
 250      FA13242F 
 250      A497
 251 00a3 585A7E14 		.ascii	"XZ~\024\374\012\220FC\"W\026\244B\270\017Bz\005R1\244"
 251      FC0A9046 
ARM GAS  /tmp/ccRV6WVv.s 			page 19


 251      43225716 
 251      A442B80F 
 251      427A0552 
 252 00b9 7190FE02 		.ascii	"q\220\376\002\351\177!M\2004\021\322\353\220\252 \375"
 252      E97F214D 
 252      803411D2 
 252      EB90AA20 
 252      FD
 253 00ca 95A56DAC 		.ascii	"\225\245m\254\204\337U\220\336\203\264\036\022\307\001"
 253      84DF5590 
 253      DE83B41E 
 253      12C701
 254 00d9 3EA4BB39 		.ascii	">\244\2739Fs\021\\\362j\251L#\271X\371=+\343\250/BK"
 254      4673115C 
 254      F26AA94C 
 254      23B958F9 
 254      3D2BE3A8 
 255 00f0 37F83D03 		.ascii	"7\370=\003i+\244\2562\215\204\336\373\000\350~.\301"
 255      692BA4AE 
 255      328D84DE 
 255      FB00E87E 
 255      2EC1
 256 0102 EBABA42C 		.ascii	"\353\253\244,<\207\340\367\001\370}\020\322x\031/S\306"
 256      3C87E0F7 
 256      01F87D10 
 256      D278192F 
 256      53C6
 257 0114 7A08DEF5 		.ascii	"z\010\336\365\205\324\237\243\374\020\276\036\203\373"
 257      85D49FA3 
 257      FC10BE1E 
 257      83FB
 258 0122 C739CA27 		.ascii	"\3079\312'\241\355\317l2\035D\026\275\341w\012\233\240"
 258      A1EDCF6C 
 258      321D4416 
 258      BDE1770A 
 258      9BA0
 259 0134 A10E524F 		.ascii	"\241\016ROx\256\225\345<C\325>\221\355P\216\322\254"
 259      78AE95E5 
 259      3C43D53E 
 259      91ED508E 
 259      D2AC
 260 0146 D03A0CD2 		.ascii	"\320:\014\322\023\220DH\3052\335\025\360m,\227\320\321"
 260      13904448 
 260      C532DD15 
 260      F06D2C97 
 260      D0D1
 261 0158 7496CAA6 		.ascii	"t\226\312\246\204K\350k.K\371S\364FH\373\003G\365\374"
 261      844BE86B 
 261      2E4BF953 
 261      F44648FB 
 261      0347F5FC 
 262 016c 8AAC1335 		.ascii	"\212\254\0235_\343 \375\005\322\253\034\325\225\302"
 262      5FE320FD 
 262      05D2AB1C 
 262      D595C2
 263 017b 9FA233C2 		.ascii	"\237\2423\302\343*\003\036\211\256\037`(?\012\217\204"
 263      E32A031E 
ARM GAS  /tmp/ccRV6WVv.s 			page 20


 263      89AE1F60 
 263      283F0A8F 
 263      84
 264 018c BF212AFE 		.ascii	"\277!*\376\352d\031(\374\255\201\373\325\220\312\340"
 264      EA641928 
 264      FCAD81FB 
 264      D590CAE0 
 265 019c DE4D7404 		.ascii	"\336Mt\004\367\033\010M\360\274\014\236\3139\255\215"
 265      F71B084D 
 265      F0BC0C9E 
 265      CB39AD8D 
 266 01ac 2D80E422 		.ascii	"-\200\344\"t\311\262\271O'\213T\274W\300\267\010\301"
 266      74C9B2B9 
 266      4F278B54 
 266      BC57C0B7 
 266      08C1
 267 01be 80775BE0 		.ascii	"\200w[\340\267\036\322&\331\346\011\375\223\340\373"
 267      B71ED226 
 267      D9E609FD 
 267      93E0FB
 268 01cd 6B1CB54B 		.ascii	"k\034\265K\275\276\325\262\250\222\355\333\303$\333"
 268      BDBED5B2 
 268      A892EDDB 
 268      C324DB
 269 01dc AD5E2E9D 		.ascii	"\255^.\235\231\251\222T&\325TH\3174t\325<\364dfJpe7"
 269      99A99254 
 269      26D55448 
 269      CF3474D5 
 269      3CF46466 
 270 01f4 80B846B2 		.ascii	"\200\270F\262<\3335\223\251q\343]V&\363$T\275\227yS"
 270      3CDB3593 
 270      A971E35D 
 270      5626F324 
 270      54BD9779 
 271 0209 922A5B5A 		.ascii	"\222*[Z\027\377Rr\363\3542\266'\010\377\001\226y\220"
 271      17FF5272 
 271      F3EC32B6 
 271      2708FF01 
 271      967990
 272 021c 5909D52A 		.ascii	"Y\011\325*%i\347\2772\311WJT\216y\224ex\366m\200\343"
 272      2569E7BF 
 272      32C9574A 
 272      548E7994 
 272      6578F66D 
 273 0232 D9B7D807 		.ascii	"\331\267\330\007i3R\313\334\212cel\251$\261\364\033"
 273      693352CB 
 273      DC8A6365 
 273      6CA924B1 
 273      F41B
 274 0244 237F35B8 		.ascii	"#\1775\270z35P!v\245q\001+\325\354d\015Z\034\2524\230"
 274      7A333550 
 274      2176A571 
 274      012BD5EC 
 274      640D5A1C 
 275 025b 916063E2 		.ascii	"\221`c\342\231\006\267$e\360\354*dd4\253i@\006\251\031"
 275      9906B724 
 275      65F0EC2A 
ARM GAS  /tmp/ccRV6WVv.s 			page 21


 275      646434AB 
 275      694006A9 
 276 0270 6A86C231 		.ascii	"j\206\3021cI\215\325Id\327\357S\310^m\203\354\262X\323"
 276      63498DD5 
 276      4964D7EF 
 276      53C85E6D 
 276      83ECB258 
 277 0285 D485BF20 		.ascii	"\324\205\277 dktA\305+\267\233\255\264\353\306z<[\013"
 277      646B7441 
 277      C52BB79B 
 277      ADB4EBC6 
 277      7A3C5B0B 
 278 0299 8555B01C 		.ascii	"\205U\260\0343\211Uh1\252\"\337\322K.\240\245\341@c"
 278      33895568 
 278      31AA22DF 
 278      D24B2EA0 
 278      A5E14063 
 279 02ad 56254F71 		.ascii	"V%Oq9f\232c\260l#\366\030\231\330\204\204xv-{/\344\353"
 279      39669A63 
 279      B06C23F6 
 279      1899D884 
 279      8478762D 
 280 02c5 D8DE906F 		.ascii	"\330\336\220o`{'\212q\314LV\261\002#i\247f\241\255q"
 280      607B278A 
 280      71CC4C56 
 280      B1022369 
 280      A766A1AD 
 281 02da 018A3193 		.ascii	"\001\2121\223\231\234\020#c\310\202l\000\307\247~\330"
 281      999C1023 
 281      63C8826C 
 281      00C7A77E 
 281      D8
 282 02eb C44E404D 		.ascii	"\304N@M\325A5\2169\300jm\300>\324\245\351\273w\260e"
 282      D541358E 
 282      39C06A6D 
 282      C03ED4A5 
 282      E9BB77B0 
 283 0300 08B515A1 		.ascii	"\010\265\025\241>\345:\012u\274j\333\243h\226\333\021"
 283      3EE53A0A 
 283      75BC6ADB 
 283      A36896DB 
 283      11
 284 0311 E80B9716 		.ascii	"\350\013\227\026\210g\323\343\234\307\237\225\002\004"
 284      8867D3E3 
 284      9CC79F95 
 284      0204
 285 031f 0D3FCB37 		.ascii	"\015?\3137d<\355\306\374\314\3059\346\224K\247:#\203"
 285      643CEDC6 
 285      FCCCC539 
 285      E6944BA7 
 285      3A2383
 286 0332 C930539D 		.ascii	"\3110S\235\324RU\377%7O\212\225\273\024\247K3\223\021"
 286      D45255FF 
 286      25374F8A 
 286      95BB14A7 
 286      4B339311 
 287 0346 C79CC5B6 		.ascii	"\307\234\305\266v\351\275\356\342\361O\024\257\333e"
ARM GAS  /tmp/ccRV6WVv.s 			page 22


 287      76E9BDEE 
 287      E2F14F14 
 287      AFDB65
 288 0355 CBEB3636 		.ascii	"\313\35366\316M\366:\243\276\212S\332\377\015\266\277"
 288      CE4DF63A 
 288      A3BE8A53 
 288      DAFF0DB6 
 288      BF
 289 0366 DC4DDA6F 		.ascii	"\334M\332o\320\267\177\360d\303\037\253%\251;\375\224"
 289      D0B77FF0 
 289      64C31FAB 
 289      25A93BFD 
 289      94
 290 0377 BAF9CD47 		.ascii	"\272\371\315G\346\0309\375\357\356\2602\215\213\307"
 290      E61839FD 
 290      EFEEB032 
 290      8D8BC7
 291 0386 BFF94166 		.ascii	"\277\371Af\362\023\364\324\023n\275q\014\351\254U\337"
 291      F213F4D4 
 291      136EBD71 
 291      0CE9AC55 
 291      DF
 292 0397 105D4771 		.ascii	"\020]Gq&N~\207:\012\340\363\333?\255\254\225\244)i\012"
 292      264E7E87 
 292      3A0AE0F3 
 292      DB3FADAC 
 292      95A42969 
 293 03ac 0DDF3946 		.ascii	"\015\3379F\314\326Hb\333\021\354z(\330y;`\246\226T\026"
 293      CCD64862 
 293      DB11EC7A 
 293      28D8793B 
 293      60A69654 
 294 03c1 DBAE06BB 		.ascii	"\333\256\006\273\350\030LK\331~5\330e;`\335\315);\240"
 294      E8184C4B 
 294      D97E35D8 
 294      653B60DD 
 294      CD293BA0 
 295 03d5 066B730C 		.ascii	"\006ks\014\246\245\354oj\260\033v\300z\231SvX\015&y"
 295      A6A5EC6F 
 295      6AB01B76 
 295      C07A9953 
 295      76580D26 
 296 03ea 9C826929 		.ascii	"\234\202i)\373L\015Vn\007,\333\200\262\370e6\000~\304"
 296      FB4C0D56 
 296      6E072CDB 
 296      80B2F865 
 296      36007EC4 
 297 03fe C6ED1C06 		.ascii	"\306\355\034\006?\217\322%8\264i&\2011\325\343\264\013"
 297      3F8FD225 
 297      38B46926 
 297      8131D5E3 
 297      B40B
 298 0410 D3F00DA3 		.ascii	"\323\360\015\243\376\361\245\354\354\011RC?e\024\235"
 298      FEF1A5EC 
 298      EC095243 
 298      3F65149D 
 299 0420 6E07D1C2 		.ascii	"n\007\321\302`*?V\015\311s\034\203i\325\262\210\200"
ARM GAS  /tmp/ccRV6WVv.s 			page 23


 299      602A3F56 
 299      0DC9731C 
 299      8369D5B2 
 299      8880
 300 0432 69FA1A79 		.ascii	"i\372\032y@jY\036\353U\235\350\3552\024,\0224\322\256"
 300      406A591E 
 300      EB559DE8 
 300      ED32142C 
 300      1234D2AE 
 301 0446 0DE23A2E 		.ascii	"\015\342:.^X\352\325\313\270,\317\236\306\241\375\014"
 301      5E58EAD5 
 301      CBB82CCF 
 301      9EC6A1FD 
 301      0C
 302 0457 9B19A782 		.ascii	"\233\031\247\202\336+w\355\030\253\317\367\350\302Q"
 302      DE2B77ED 
 302      18ABCFF7 
 302      E8C251
 303 0466 E54A55D5 		.ascii	"\345JU\325\314\022N\251-a\261\0351Y\270\302~31\305*"
 303      CC124EA9 
 303      2D61B11D 
 303      3159B8C2 
 303      7E3331C5 
 304 047b A4C96CE9 		.ascii	"\244\311l\351\272\273-\003\312\213\307\317-\221\203"
 304      BABB2D03 
 304      CA8BC7CF 
 304      2D9183
 305 048a 80EF71EC 		.ascii	"\200\357q\354~\323c\030\004\330\002\2734}\237\022Q\\"
 305      7ED36318 
 305      04D802BB 
 305      347D9F12 
 305      515C
 306 049c 40B0351D 		.ascii	"@\2605\035\007\2539~\370n\022\261_B\240:\217~\320\310"
 306      07AB397E 
 306      F86E12B1 
 306      5F42A03A 
 306      8F7ED0C8 
 307 04b0 D4451499 		.ascii	"\324E\024\231\3321?33q\323\256\\Z5\376\254u\314T\177"
 307      DA313F33 
 307      3371D3AE 
 307      5C5A35FE 
 307      AC75CC54 
 308 04c5 4EADFA5D 		.ascii	"N\255\372]\216U\257\361\020\210A.ss\245X\251Ke\353\226"
 308      8E55AFF1 
 308      1088412E 
 308      7373A558 
 308      A94B65EB 
 309 04da 8E01915A 		.ascii	"\216\001\221Z\343\366\3071R\273\206rm4V\220\015\240"
 309      E3F6C731 
 309      52BB8672 
 309      6D345690 
 309      0DA0
 310 04ec 4BD3DF7B 		.ascii	"K\323\337{\010\201n\"\320\301\016\003\035\257Z4\030"
 310      08816E22 
 310      D0C10E03 
 310      1DAF5A34 
 310      18
ARM GAS  /tmp/ccRV6WVv.s 			page 24


 311 04fd 8188CB72 		.ascii	"\201\210\313rLs\222\246Y\235\246Y\255\006\342^';\335"
 311      4C7392A6 
 311      599DA659 
 311      AD06E25E 
 311      273BDD
 312 0510 CF559663 		.ascii	"\317U\226cZ\365\352\322\260c14\304\373\333\033\263\330"
 312      5AF5EAD2 
 312      B0633134 
 312      C4FBDB1B 
 312      B3D8
 313 0522 8B655275 		.ascii	"\213eRu?\007\322\231*\353k\"J\347\357I\322\271\351P"
 313      3F07D299 
 313      2AEB6B22 
 313      4AE7EF49 
 313      D2B9E950 
 314 0536 3C106238 		.ascii	"<\020b8f#C\313FE{\007\330\370\200\2621\025\331h\373"
 314      662343CB 
 314      46457B07 
 314      D8F880B2 
 314      3115D968 
 315 054b 09D8284D 		.ascii	"\011\330(Ms\312Fw\025\0338\347\235CG\277\333\230Y\326"
 315      73CA4677 
 315      151B38E7 
 315      9D4347BF 
 315      DB9859D6 
 316 055f 113CA167 		.ascii	"\021<\241g\006w\233&z\216\035\372\224\315\246\257S\317"
 316      06779B26 
 316      7A8E1DFA 
 316      94CDA6AF 
 316      53CF
 317 0571 F22F7EAA 		.ascii	"\362/~\252\232\347I\266fT\215\361y\336,\024YE\232\201"
 317      9AE749B6 
 317      66548DF1 
 317      79DE2C14 
 317      59459A81 
 318 0585 83D981AA 		.ascii	"\203\331\201\252\271\364\351\035\244#}\003a\246u\024"
 318      B9F4E91D 
 318      A4237D03 
 318      61A67514 
 319 0595 A6E5F8E1 		.ascii	"\246\345\370\341M\324O\253\021hN\232^\205i:\015\246"
 319      4DD44FAB 
 319      11684E9A 
 319      5E85693A 
 319      0DA6
 320 05a7 6935088F 		.ascii	"i5\010\217\244\245\253\330A\276*\277!\017\351\314?\275"
 320      A4A5ABD8 
 320      41BE2ABF 
 320      210FE9CC 
 320      3FBD
 321 05b9 1EC72C42 		.ascii	"\036\307,B\362\211\366\034\306_\212\365T|=[\211\235"
 321      F289F61C 
 321      C65F8AF5 
 321      547C3D5B 
 321      899D
 322 05cb A88296DF 		.ascii	"\250\202\226\337\022bYl\361\014\272\244\202\363\037"
 322      1262596C 
 322      F10CBAA4 
ARM GAS  /tmp/ccRV6WVv.s 			page 25


 322      82F31F
 323 05da 8E597D8B 		.ascii	"\216Y}\213p\333\366a(\266\004C\261\215\267\306m\354"
 323      70DBF661 
 323      28B60443 
 323      B18DB7C6 
 323      6DEC
 324 05ec C8BE0532 		.ascii	"\310\276\0052m\224\327\255\267H\\\333\014\203\345#\203"
 324      6D94D7AD 
 324      B7485CDB 
 324      0C83E523 
 324      83
 325 05fd 89EC4B0A 		.ascii	"\211\354K\012\026Y\010\205\361\222\332\034\247\233\307"
 325      16590885 
 325      F192DA1C 
 325      A79BC7
 326 060c 365D6EA9 		.ascii	"6]n\251\220\303\016\362-\265;6\267fJ\263\262\350\"\032"
 326      90C30EF2 
 326      2DB53B36 
 326      B7664AB3 
 326      B2E8221A 
 327 0620 CFBECF72 		.ascii	"\317\276\317r2\252Q4\222Z8_\012\015\375\2348v\275\342"
 327      32AA5134 
 327      925A385F 
 327      0A0DFD9C 
 327      3876BDE2 
 328 0634 D8AB5096 		.ascii	"\330\253P\226\027\222\034\211xj\307-\373j\\Hvg\005\372"
 328      17921C89 
 328      786AC72D 
 328      FB6A5C48 
 328      766705FA 
 329 0648 CBAC0B5C 		.ascii	"\313\254\013\\\316\251b\227\033\267f\002\320\375\326"
 329      CEA96297 
 329      1BB76602 
 329      D0FDD6
 330 0657 BF491D28 		.ascii	"\277I\035(\225\021H\254z\262\3001\023\322I\313\265z"
 330      951148AC 
 330      7AB2C031 
 330      13D249CB 
 330      B57A
 331 0669 2BD87CAD 		.ascii	"+\330|\255a\222\274\320Pk\313\012.\031XAm\007\255\000"
 331      6192BCD0 
 331      506BCB0A 
 331      2E195841 
 331      6D07AD00 
 332 067d 4CFAF41E 		.ascii	"L\372\364\036\026\341\350\344gu\234H\207Z\220\341n\010"
 332      16E1E8E4 
 332      67759C48 
 332      875A90E1 
 332      6E08
 333 068f 4E0543ED 		.ascii	"N\005C\355+\366y+\031\226\266pdyxC\272\336\264\250d"
 333      2BF6792B 
 333      1996B670 
 333      64797843 
 333      BADEB4A8 
 334 06a4 54A69510 		.ascii	"T\246\225\020#\317n\340\310lh#G\026:\337\307\274\216"
 334      23CF6EE0 
 334      C86C6823 
ARM GAS  /tmp/ccRV6WVv.s 			page 26


 334      47163ADF 
 334      C7BC8E
 335 06b7 532D779A 		.ascii	"S-w\232\231\305\346\204Y\360\354z\275\030\355\316IS"
 335      99C5E684 
 335      59F0EC7A 
 335      BD18EDCE 
 335      4953
 336 06c9 36B34E6D 		.ascii	"6\263Nm}\333\322o\315\372\252\352?u\343\352\235\203"
 336      7DDBD26F 
 336      CDFAAAEA 
 336      3F75E3EA 
 336      9D83
 337 06db 35CEC6DD 		.ascii	"5\316\306\335\212\343~\200\216\273+I\272[\365A\214\235"
 337      8AE37E80 
 337      8EBB2B49 
 337      BA5BF541 
 337      8C9D
 338 06ed 85C87D1D 		.ascii	"\205\310}\035e%~q\314\341t\033\023\211l\003\251\307"
 338      65257E71 
 338      CCE1741B 
 338      13896C03 
 338      A9C7
 339 06ff 47B3C372 		.ascii	"G\263\303r,\224r5S\226\306\362obt#b7Z\332g:Y\330X\024"
 339      2C947235 
 339      5396C6F2 
 339      6F627423 
 339      62375ADA 
 340 0719 3D85551A 		.ascii	"=\205U\032\364n<\267\"\276(\332`\303\215\313b\353\247"
 340      F46E3CB7 
 340      22BE28DA 
 340      60C38DCB 
 340      62EBA7
 341 072c 2AE326DD 		.ascii	"*\343&\335a\240\026\330`m\201\226\362\324\250\260A\345"
 341      61A016D8 
 341      606D8196 
 341      F2D4A8B0 
 341      41E5
 342 073e 208DE820 		.ascii	" \215\350 \037\253\235\202c\256\330\221\375\375f\246"
 342      1FAB9D82 
 342      63AED891 
 342      FDFD66A6 
 343 074e 08DDD001 		.ascii	"\010\335\320\001\272\003\244\354\351\264\353\361\214"
 343      BA03A4EC 
 343      E9B4EBF1 
 343      8C
 344 075b 3A220D9E 		.ascii	":\"\015\236Z\227e\261\312\2038\360S\033\235\234a\203"
 344      5A9765B1 
 344      CA8338F0 
 344      531B9D9C 
 344      6183
 345 076d B87EE660 		.ascii	"\270~\346`\213g+\302%\356\30713\355\340\0156c\266,\266"
 345      8B672BC2 
 345      25EEC731 
 345      33EDE00D 
 345      3663B62C 
 346 0782 E9A01248 		.ascii	"\351\240\022H\320\335\213y\216\361\264\364\035\232\255"
 346      D0DD8B79 
ARM GAS  /tmp/ccRV6WVv.s 			page 27


 346      8EF1B4F4 
 346      1D9AAD
 347 0791 099A96DA 		.ascii	"\011\232\226\332\201\033j[\367\211\355=\236]\211KE\357"
 347      811B6A5B 
 347      F789ED3D 
 347      9E5D894B 
 347      45EF
 348 07a3 E02ED026 		.ascii	"\340.\320&\314wb\376\025\346_c\376\015\346\337a\336"
 348      CC7762FE 
 348      15E65F63 
 348      FE0DE6DF 
 348      61DE
 349 07b5 86793976 		.ascii	"\206y9v\243S0\237\216\371\207\230\357\305|\037\346M"
 349      A353309F 
 349      8EF98798 
 349      EFC57C1F 
 349      E64D
 350 07c7 981FC4FC 		.ascii	"\230\037\304\374P\252\016W\331"
 350      50AA0E57 
 350      D9
 351 07d0 073CD9C2 		.ascii	"\007<\331\302\241\373-\305\321fEFRG\317\352\026\325"
 351      A1FB2DC5 
 351      D1664546 
 351      5247CFEA 
 351      16D5
 352 07e2 75DB6F66 		.ascii	"u\333of\275\354\222D=\315\360\323\203\251\304\341\247"
 352      BDEC9244 
 352      3DCDF0D3 
 352      83A9C4E1 
 352      A7
 353 07f3 BA2B5DDE 		.ascii	"\272+]\336\222\353W\307\207\240\333d\200\243\\\017\274"
 353      92EB57C7 
 353      87A0DB64 
 353      80A35C0F 
 353      BC
 354 0804 D3444458 		.ascii	"\323DDX\302\254\311f.\261\206\226\225\231\270QF*\263"
 354      C2ACC966 
 354      2EB18696 
 354      9599B851 
 354      462AB3
 355 0817 7A9F738E 		.ascii	"z\237s\216H}F\251\237)\327?\346\230\322/M(\315HA\351"
 355      487D46A9 
 355      9F29D73F 
 355      E698D22F 
 355      4D28CD48 
 356 082d 17CE28AD 		.ascii	"\027\316(\255\213\013\365_d\200\026\307\244\2360!\365"
 356      8B0BF55F 
 356      648016C7 
 356      A49E3021 
 356      F5
 357 083e CE14A41E 		.ascii	"\316\024\244\0367!\365N\346\015\271e\211\025M\367|\010"
 357      3721F54E 
 357      E60DB965 
 357      89154DF7 
 357      7C08
 358 0850 C2498EB6 		.ascii	"\302I\216\266\341\302S\016\214\274\235\363\242\313\322"
 358      E1C2530E 
ARM GAS  /tmp/ccRV6WVv.s 			page 28


 358      8CBC9DF3 
 358      A2CBD2
 359 085f AC49B9AF 		.ascii	"\254I\271\2578\215\205\032I\252f\250NT\335\025\020N"
 359      388D851A 
 359      49AA66A8 
 359      4E54DD15 
 359      104E
 360 0871 06F9C6B1 		.ascii	"\006\371\306\261\244N\231H\212MAnkBR\3670\213\244\330"
 360      A44E9948 
 360      8A4D416E 
 360      6B4252F7 
 360      308BA4D8 
 361 0885 F9962BCB 		.ascii	"\371\226+\313NLdg\302(*\235'c;\025\005\307|\257s\316"
 361      4E4C6467 
 361      C2282A9D 
 361      27633B15 
 361      05C77CAF 
 362 089b DF30CB24 		.ascii	"\3370\313$i\226T+I\231r\267u\005K|\313\335c\330\230"
 362      6996542B 
 362      499972B7 
 362      75054B7C 
 362      CBDD63D8 
 363 08b0 B241761F 		.ascii	"\262Av\037\263\234\260$\255\220\\\250\000F\256\243\272"
 363      B39CB024 
 363      AD905CA8 
 363      0046AEA3 
 363      BA
 364 08c1 78F634A7 		.ascii	"x\3664\2479\356C)\213m\254\237\016\335dY\254\275}\010"
 364      39EE4329 
 364      8B6DAC9F 
 364      0EDD6459 
 364      ACBD7D08 
 365 08d5 635F93E7 		.ascii	"c_\223\347dM&\264\3071m:f\214\311\372NO\326\367\206"
 365      644D26B4 
 365      C7316D3A 
 365      668CC9FA 
 365      4E4FD6F7 
 366 08ea 646DAB9F 		.ascii	"dm\253\237\226QY\332\322\336~\217}\242.\030\0205-\323"
 366      965159DA 
 366      D2DE7E8F 
 366      7DA22E18 
 366      10352DD3 
 367 08fe 90A84A2D 		.ascii	"\220\250J-Q?\350\211\272hD\024\352E\202\340L\342\250"
 367      513FE889 
 367      BA684414 
 367      EA4582E0 
 367      4CE2A8
 368 0911 04A07735 		.ascii	"\004\240w5\206\327\361|I\017\1779\031\276\245\262\345"
 368      86D7F17C 
 368      490F7F39 
 368      19BEA5B2 
 368      E5
 369 0922 FAAA1FFA 		.ascii	"\372\252\037\372T\327J\345S\244\037\333_e\355\363\335"
 369      54D74AE5 
 369      53A41FDB 
 369      5F65EDF3 
 369      DD
ARM GAS  /tmp/ccRV6WVv.s 			page 29


 370 0933 A677AB33 		.ascii	"\246w\2533\270B\246\362+\216\371\"\211PZ\364\272!%U"
 370      B842A6F2 
 370      2B8EF922 
 370      89505AF4 
 370      BA212555 
 371 0947 F55FA7CF 		.ascii	"\365_\247\317\223v\226\003\263\2572\012\257gM n\032"
 371      93769603 
 371      B3AF320A 
 371      AF674D20 
 371      6E1A
 372 0959 425C5BD3 		.ascii	"B\\[\3234$\016a\237\227v=/d\324\211?\314\242\016\251"
 372      34240E61 
 372      9F97763D 
 372      2F64D489 
 372      3FCCA20E 
 373 096e E36D5927 		.ascii	"\343mY'c\302\312\\F\2045\255?}W\325\204\232\270'R\346"
 373      63C2CA5C 
 373      468435AD 
 373      3F7D57D5 
 373      849AB827 
 374 0984 BE30C128 		.ascii	"\2760\301(7\304\270\276f\317\220yf\232\"D\232\261W\341"
 374      37C4B8BE 
 374      66CF9079 
 374      669A2244 
 374      9AB157E1 
 375 0998 3267CFFE 		.ascii	"2g\317\376|\243u>.\333Mq\221\316\355\\'\375\000\337"
 375      7CA3753E 
 375      2EDB4D71 
 375      91CEED5C 
 375      27FD00DF 
 376 09ac 81B946B2 		.ascii	"\201\271F\262P\257\232\010d\232\261@V\35503\335\014"
 376      50AF9A08 
 376      649AB140 
 376      56ED3033 
 376      DD0C
 377 09be 6612AE04 		.ascii	"f\022\256\004O\224J\331W\342l\231\354\314\301l\307\225"
 377      4F944AD9 
 377      57E26C99 
 377      ECCCC16C 
 377      C795
 378 09d0 01ADBFDE 		.ascii	"\001\255\277\336\331t_\215\024`d\006\350\275rg\261\267"
 378      D9745F8D 
 378      14606406 
 378      E8BD7267 
 378      B1B7
 379 09e2 325D2F77 		.ascii	"2]/w\";\315\203\372\243\274\011\247\223\310\354\316"
 379      223BCD83 
 379      FAA3BC09 
 379      A793C8EC 
 379      CE
 380 09f3 C61279C3 		.ascii	"\306\022y\303H\"\261\005\037O\223X\303\036\214\220j"
 380      4822B105 
 380      1F4F9358 
 380      C31E8C90 
 380      6A
 381 0a04 46E75C3D 		.ascii	"F\347\\=\235\244p\012\272\3365\241k\276\211\3516=\276"
 381      9DA4700A 
ARM GAS  /tmp/ccRV6WVv.s 			page 30


 381      BADE35A1 
 381      6BBE89E9 
 381      363DBE
 382 0a17 D0CC7449 		.ascii	"\320\314tI$hF\332\002=iC:`\271\027\267\236xl\015\236"
 382      246846DA 
 382      023D6943 
 382      3A60B917 
 382      B79E786C 
 383 0a2d 2B598CC6 		.ascii	"+Y\214\306\273-Ko\274\036\235\355z\264\266\353\311L"
 383      BB2D4B6F 
 383      BC1E9DED 
 383      7AB4B6EB 
 383      C94C
 384 0a3f DC246C37 		.ascii	"\334$l7NS\035\253\326\244\3564\012\031s-h\273\276fG"
 384      4E531DAB 
 384      D6A4EE34 
 384      0A19732D 
 384      68BBBE66 
 385 0a54 AF1548DB 		.ascii	"\257\025H\333\233.2\364\356J\242\355+N\0279\353\342"
 385      9B2E32F4 
 385      EE4AA2ED 
 385      2B4E1739 
 385      EBE2
 386 0a66 129D7492 		.ascii	"\022\235t\222U\365q\226\261\252VhU\365kf\211\024;\000"
 386      55F57196 
 386      B1AA5668 
 386      55F56B66 
 386      89143B00 
 387 0a7a 4143D346 		.ascii	"AC\323F\234z\303T\260\275\235\275G\011\351\217\305Q"
 387      9C7AC354 
 387      B0BD9DBD 
 387      4709E98F 
 387      C551
 388 0a8c CC74F54E 		.ascii	"\314t\365N\002\217`\325\314\"c\313C+Q\355\322\325v\266"
 388      028F60D5 
 388      CC2263CB 
 388      432B51ED 
 388      D2D576B6 
 389 0aa0 DD8502E4 		.ascii	"\335\205\002\344\230\023)\241\336\325B\255%\035h\323"
 389      981329A1 
 389      DED542AD 
 389      251D68D3 
 390 0ab0 5D756509 		.ascii	"]ue\011(%TU\035\277\214Y\235\376I>\307#\227\252\211"
 390      28255455 
 390      1DBF8C59 
 390      9DFE493E 
 390      C72397AA 
 391 0ac5 07B7B7E3 		.ascii	"\007\267\267\343\353\0040V0)\305\263k]N\003\273u.\343"
 391      EB043056 
 391      3029C5B3 
 391      6B5D4E03 
 391      BB752EE3 
 392 0ad9 C0CEADD1 		.ascii	"\300\316\255\321\212R\212l\256\351\345\224LE\255VP\340"
 392      8A528A6C 
 392      AEE9E594 
 392      4C45AD56 
 392      50E0
ARM GAS  /tmp/ccRV6WVv.s 			page 31


 393 0aeb 6A732B0E 		.ascii	"js+\016}\304\316\222j\024\375\031\254\323\305\322\025"
 393      7DC4CE92 
 393      6A14FD19 
 393      ACD3C5D2 
 393      15
 394 0afc 98710943 		.ascii	"\230q\011C\234xm\277\013gp\033\\d\326\177Ng4)a8\346"
 394      9C786DBF 
 394      0B67701B 
 394      5C64D67F 
 394      4E673429 
 395 0b13 1A56D9E4 		.ascii	"\032V\331\344JZ@\371\262B^@!\337R\257\203\316l6=\202"
 395      4A5A40F9 
 395      B2425E40 
 395      21DF52AF 
 395      83CE6C36 
 396 0b29 DA1217C0 		.ascii	"\332\022\027\300\335\011\312[\377~\236R\276\025)/\357"
 396      DD09CA5B 
 396      FF7E9E52 
 396      BE15292F 
 396      EF
 397 0b3a 9292722D 		.ascii	"\222\222r-\014\307\314\304*\333\223)\377n\242L\371v"
 397      0CC7CCC4 
 397      2ADB9329 
 397      FF6EA24C 
 397      F976
 398 0b4c 5B946F3A 		.ascii	"[\224o:\242^:Q\326pI]\213\245\023\2155\252\361\312b"
 398      A25E3A51 
 398      D670495D 
 398      8BA5138D 
 398      35AAF1CA 
 399 0b61 75F42050 		.ascii	"u\364 P\035FV;\364`\216Vp%\345\214\030=\365w\3021X\266"
 399      1D46563B 
 399      F4608E56 
 399      7025E58C 
 399      183DF577 
 400 0b79 86B28373 		.ascii	"\206\262\203s\265\213\\'\355\340Y\034\324\221\017cQ"
 400      B58B5C27 
 400      EDE0591C 
 400      D4910F63 
 400      51
 401 0b8a B056C760 		.ascii	"\260V\307`Z\342\216\036Q\235\372Y\034\327\255\005\230"
 401      5AE28E1E 
 401      519DFA59 
 401      1CD7AD05 
 401      98
 402 0b9b D17116A3 		.ascii	"\321q\026\243Km$<\033s\221%\230\035.\\|\301|\027\346"
 402      4B6D243C 
 402      1B739125 
 402      981D2E5C 
 402      7CC17C17 
 403 0bb0 1F62BE1B 		.ascii	"\037b\276\033\363z\227fq\356\355.\212\217\030\232b*"
 403      F37A9766 
 403      71EEED2E 
 403      8A8F189A 
 403      622A
 404 0bc2 939062F3 		.ascii	"\223\220b\363\314\235\303h\371\275e\367\305\230\007"
 404      CC9DC368 
ARM GAS  /tmp/ccRV6WVv.s 			page 32


 404      F9BD65F7 
 404      C59807
 405 0bd1 9DA3119D 		.ascii	"\235\243\021\235\343\275\324\316\241\337\336\330\205"
 405      E3BDD4CE 
 405      A1DFDED8 
 405      85
 406 0bde 55F62639 		.ascii	"U\366&9G\375a\3059\366\332p\216\262\330\261*{{l\332"
 406      47FD61C5 
 406      39F6DA70 
 406      8EB2D8B1 
 406      2A7B7B6C 
 407 0bf3 4E4E59DE 		.ascii	"NNY\336\275 \2373?\200l\034M\315\206\026\206c\316`\225"
 407      BD209F33 
 407      3F806C1C 
 407      4DCD8616 
 407      8663CE60 
 408 0c08 43C96CD4 		.ascii	"C\311l\324+l\034\262\305\306\302*\305\362\233\\\211"
 408      2B6C1CB2 
 408      C5C6C22A 
 408      C5F29B5C 
 408      89
 409 0c19 E5DD43D6 		.ascii	"\345\335C\326\366e\252\320\262\330\242\303h\254\024"
 409      F665AAD0 
 409      B2D8A2C3 
 409      68AC14
 410 0c28 6CA36330 		.ascii	"l\243c0\255\345\257;\254,g\3220\375z\234\351\216\364"
 410      ADE5AF3B 
 410      AC2C67D2 
 410      30FD7A9C 
 410      E98EF4
 411 0c3b 1965B1DA 		.ascii	"\031e\261\332\303\372\263\\)\003\232\211\337\307\350"
 411      C3FAB35C 
 411      29039A89 
 411      DFC7E8
 412 0c4a 4AE0318C 		.ascii	"J\3401\214gJ\273:\215g8fjW\247Tk\244\000:\335\273\\"
 412      674ABB3A 
 412      8D673866 
 412      6A57A754 
 412      6BA4003A 
 413 0c61 D90BC7F5 		.ascii	"\331\013\307\365\214\031v\000\215z'\243KmD<{\004\373"
 413      8C197600 
 413      8D7A27A3 
 413      4B6D443C 
 413      7B04FB
 414 0c74 80CFD0D7 		.ascii	"\200\317\320\327?\307\374(\346_`~B\355\375fq\001Q}\034"
 414      3FC7FC28 
 414      E65F607E 
 414      42EDFD66 
 414      7101517D 
 415 0c89 9B9AD3DE 		.ascii	"\233\232\323\336\016\233\323\371dsr\002\2465\247K\032"
 415      0E9BD3F9 
 415      64737202 
 415      A635A74B 
 415      1A
 416 0c9a 73E2D966 		.ascii	"s\342\331f\227\015<\013s\232C;fj\233\263\273\262\016"
 416      970D3C0B 
 416      739A433B 
ARM GAS  /tmp/ccRV6WVv.s 			page 33


 416      666A9BB3 
 416      BBB20E
 417 0cad C1B2AD94 		.ascii	"\301\262\255\224\262W\245\224}\250\224\375\250\202\223"
 417      B257A594 
 417      7DA894FD 
 417      A88293
 418 0cbc 987F8D79 		.ascii	"\230\177\215y\253\2663^\320U\327\031k\273>\243\261A"
 418      ABB6335E 
 418      D055D719 
 418      6BBB3EA3 
 418      B141
 419 0cce 2D1F29B6 		.ascii	"-\037)\266\266\031\370\261\273C\325z9F\273\260\323\330"
 419      B619F8B1 
 419      BB43D57A 
 419      3946BBB0 
 419      D3D8
 420 0ce0 852DEB6A 		.ascii	"\205-\353j\330\205Y\355P\325b\225\263\311a\312\217J"
 420      D88559ED 
 420      50D56295 
 420      B3C961CA 
 420      8F4A
 421 0cf2 17763675 		.ascii	"\027v6u\027V>!6o\376[\211\236xB\334\261\277e-\026%\325"
 421      17563E21 
 421      366FFE5B 
 421      899E7842 
 421      DCB1BF65 
 422 0d0a C70477C6 		.ascii	"\307\004w\306\351ph\243\306\232;\253\322\3349\324\334"
 422      E97068A3 
 422      C69A3BAB 
 422      D2DC39D4 
 422      DC
 423 0d1b F75A3D7D 		.ascii	"\367Z=}\242\327\223Q{\246;PRls\263\022\226\321\277["
 423      A2D79351 
 423      7BA63B50 
 423      526C73B3 
 423      1296D1BF 
 424 0d30 EDD7E3D5 		.ascii	"\355\327\343\325h\376K%\337jv\241\030\015\340\001'z"
 424      68FE4B25 
 424      DF6A76A1 
 424      180DE001 
 424      277A
 425 0d42 BF72F9F4 		.ascii	"\277r\371\364#\250\367\313\250\367\033N\365\216\213"
 425      23A8F7CB 
 425      A8F71B4E 
 425      F58E8B
 426 0d51 6D3A9DC7 		.ascii	"m:\235\307~\020\262\351\333\324\003V[+\036\004p\262"
 426      7E10B2E9 
 426      DBD40356 
 426      5B2B1E04 
 426      70B2
 427 0d63 B1BC8D9E 		.ascii	"\261\274\215\236\215\273\201~\372z\267\237d[\371\015"
 427      8DBB817E 
 427      FA7AB79F 
 427      645BF90D 
 428 0d73 8469FBA9 		.ascii	"\204i\373\251\214\246Me4\327\320h\256\353\234\273\233"
 428      8CA64D65 
 428      34D7D068 
ARM GAS  /tmp/ccRV6WVv.s 			page 34


 428      AEEB9CBB 
 428      9B
 429 0d84 0DA32932 		.ascii	"\015\243)20\032\343\3666\251\332\333\214\355m\301.e"
 429      301AE3F6 
 429      36A9DADB 
 429      8CED6DC1 
 429      2E65
 430 0d96 0FE6DF62 		.ascii	"\017\346\337b~\021\363KZ:\026\307\305g8m\"\330\245n"
 430      7E11F34B 
 430      5A3A16C7 
 430      C567386D 
 430      22D8A56E 
 431 0daa EDC499CC 		.ascii	"\355\304\231\314v\367\334\365\216\341lW\263\\\222<\037"
 431      76F7DCF5 
 431      8EE16C57 
 431      B35C923C 
 431      1F
 432 0dbb 9CE0EE21 		.ascii	"\234\340\356!\337\251\346\221K\365$$\327+\327\222\260"
 432      DFA9E691 
 432      4BF52424 
 432      D72BD792 
 432      B0
 433 0dcc 36D67265 		.ascii	"6\326reY\333=[\312$IG\002\371/\237f\306\255\330/\364"
 433      59DB3D5B 
 433      CA244947 
 433      02F92F9F 
 433      66C6ADD8 
 434 0de2 3FA962D1 		.ascii	"?\251b\321\353\253\232z\221\003\013)\203N\030\"\334"
 434      EBAB9A7A 
 434      91030B29 
 434      834E1822 
 434      DC
 435 0df3 F7A68E4D 		.ascii	"\367\246\216MI\301\327\334:\317\270N<\203\274M\355\031"
 435      49C1D7DC 
 435      3ACFB84E 
 435      3C83BC4D 
 435      ED19
 436 0e05 376F36D0 		.ascii	"7o6\320#2\247p\332q\026GKR\265cCo\373i\204\323\205K"
 436      2332A770 
 436      DA711647 
 436      4B52B563 
 436      436FFB69 
 437 0e1d E74CC225 		.ascii	"\347L\302%\\gs\353\"\237wPSNH\310\326\220PY\217\003"
 437      5C6773EB 
 437      229F7750 
 437      534E48C8 
 437      D6905059 
 438 0e33 2CC1E598 		.ascii	",\301\345\230\265v\300,F\353Yj\260\315\216\301\262\223"
 438      B576C02C 
 438      46EB596A 
 438      B0CD8EC1 
 438      B293
 439 0e45 7C887ACF 		.ascii	"|\210z\31747\361\236\327\335\270\005\215\371L\314g\273"
 439      3437F19E 
 439      D7DDB805 
 439      8DF94CCC 
 439      67BB
ARM GAS  /tmp/ccRV6WVv.s 			page 35


 440 0e57 357EB323 		.ascii	"5~\263#\251\333\241JU\341%t\317\244F4\326\201NY\223"
 440      A9DBA14A 
 440      55E12574 
 440      CFA44634 
 440      D6814E59 
 441 0e6c 4DF823F8 		.ascii	"M\370#\370UnM\334\232\200\034\252e_\345(\264\222q1\236"
 441      556E4DDC 
 441      9A801CAA 
 441      655FE528 
 441      B4927131 
 442 0e81 9D1BF7D5 		.ascii	"\235\033\367\325S\352\003v\252G\030\372\364\256\233"
 442      53EA0376 
 442      AA4718FA 
 442      F4AE9B
 443 0e90 84520D9E 		.ascii	"\204R\015\236\373+\346\313n\013%\372f\020\263^\232\034"
 443      FB2BE6CB 
 443      6E0B25FA 
 443      6610B35E 
 443      9A1C
 444 0ea2 031FA800 		.ascii	"\003\037\250\000\370\270^\377\207\271&UK\340\324;\356"
 444      F8B85EFF 
 444      87B92655 
 444      4BE0D43B 
 444      EE
 445 0eb3 7751AA88 		.ascii	"wQ\252\210\233\357\337\037;\370\021\031\033\301\317"
 445      9BEFDF1F 
 445      3BF81119 
 445      1BC1CF
 446 0ec2 7F6C6F67 		.ascii	"\177log\251\0008\346\252\276\325d\277[(w\030\264\271"
 446      A90038E6 
 446      AABED564 
 446      BF5B2877 
 446      18B4B9
 447 0ed5 A1B42655 		.ascii	"\241\264&U\002m+v\350#\326\316\346\362\344\370\177\003"
 447      026D2B76 
 447      E823D6CE 
 447      E6F2E4F8 
 447      7F03
 448 0ee7 7BCBD04B 		.ascii	"{\313\320K\334NW\326\226\272\215W\326\024\0234\253W"
 448      DC4E57D6 
 448      96BA8D57 
 448      D6141334 
 448      AB57
 449 0ef9 9350E9AF 		.ascii	"\223P\351\257\230\211\335\027J\325C\023\315S[\"\314"
 449      9889DD17 
 449      4AD54313 
 449      CD535B22 
 449      CC
 450 0f0a 4C966287 		.ascii	"L\226b\207\323\025o\225\267\022\251\215\021\274\031"
 450      D3156F95 
 450      B712A98D 
 450      11BC19
 451 0f19 0842AD4D 		.ascii	"\010B\255M.}4^Z\275\011'SAE\251X\223\211T\006+\244\246"
 451      2E7D345E 
 451      5ABD0927 
 451      534145A9 
 451      58938954 
ARM GAS  /tmp/ccRV6WVv.s 			page 36


 452 0f31 CBB4BCE5 		.ascii	"\313\264\274\345X(o\233\010%M&Gg\372\355\026\375\324"
 452      58286F9B 
 452      08254D26 
 452      4767FAED 
 452      16FDD4
 453 0f44 0AB7F126 		.ascii	"\012\267\361&\274\206\344\244Z+Mk\265Y\264\365\216["
 453      BC86E4A4 
 453      5A2B4D6B 
 453      B559B4F5 
 453      8E5B
 454 0f56 BF8DBD78 		.ascii	"\277\215\275x\331\205\377z\227\374]\222l\036\224\226"
 454      D985FF7A 
 454      97FC5D92 
 454      6C1E9496 
 455 0f66 B3CAEED9 		.ascii	"\263\312\356\331\236\356v\266AW\271u\333\240\357\272"
 455      9EEE76B6 
 455      4157B975 
 455      DBA0EFBA 
 456 0f76 937628A0 		.ascii	"\223v(\240\221\003'\367\317O\354\225\327d(\215\034\264"
 456      910327F7 
 456      CF4FEC95 
 456      D764288D 
 456      1CB4
 457 0f88 D5C86A7D 		.ascii	"\325\310j}#k\014\033\271\376\326\205g\332\022\234\364"
 457      236B0C1B 
 457      B9FED685 
 457      67DA129C 
 457      F4
 458 0f99 B6BF4359 		.ascii	"\266\277CY\353\326\355"
 458      EBD6ED
 459 0fa0 836C4DDE 		.ascii	"\203lM\336m\235\331CM*\226\204\360\243\207\274\247%"
 459      6D9DD943 
 459      4D2A9684 
 459      F0A387BC 
 459      A725
 460 0fb2 EFF23741 		.ascii	"\357\3627A\247\316*\177\260~\017k\254s\233\355\363\313"
 460      A7CE2A7F 
 460      B07E0F6B 
 460      AC739BED 
 460      F3CB
 461 0fc4 819ECCF1 		.ascii	"\201\236\314\361\305\322\027z\3059^\247\347x\203!\307"
 461      C5D2177A 
 461      C5395EA7 
 461      E7788321 
 461      C7
 462 0fd5 8B971D28 		.ascii	"\213\227\035(4\322\335\372\036v\304\272E\337\310V3\335"
 462      34D2DDFA 
 462      1E76C4BA 
 462      45DFC856 
 462      33DD
 463 0fe7 2D34D2DD 		.ascii	"-4\322\335\007\266\032\371?}#\333\265\215\350l\327c"
 463      07B61AF9 
 463      3F7D23DB 
 463      B58DE86C 
 463      D763
 464 0ff9 6EF0B184 		.ascii	"n\360\261\204\351\242\233"
 464      E9A29B
ARM GAS  /tmp/ccRV6WVv.s 			page 37


 465 1000 4EB08CB6 		.ascii	"N\260\214\266yv\033\036\341J\035<\033\005Bi\012\324"
 465      79761B1E 
 465      E14A1D3C 
 465      1B054269 
 465      0AD4
 466 1012 4B4C3CBE 		.ascii	"KL<\276\332\264\372B\210\036\010\335\211\335\270\324"
 466      DAB4FA42 
 466      881E08DD 
 466      89DDB8D4 
 467 1022 33F5629F 		.ascii	"3\365b\237\006\207\020\265[\037P\315n\316\"\373\276"
 467      068710B5 
 467      5B1F50CD 
 467      6ECE22FB 
 467      BE
 468 1033 BB538754 		.ascii	"\273S\207T0\265|\243YY1\330\341\306\277w \011\273;\026"
 468      30B57CA3 
 468      595931D8 
 468      E1C6BF77 
 468      2009BB3B 
 469 1048 53015E55 		.ascii	"S\001^U3\306 \024\254\3221X\266\006\254Z\0156\307\016"
 469      33C62014 
 469      ACD23158 
 469      B606AC5A 
 469      0D36C70E 
 470 105c 98597404 		.ascii	"\230Yt\004`\363\325`\363\034\203i)[\240\006[d\007\314"
 470      60F3D560 
 470      F31C8369 
 470      295BA006 
 470      5B6407CC 
 471 1070 6C2D1DC0 		.ascii	"l-\035\300\026\251\301\2268\006\323R\266V\015\266\334"
 471      16A9C196 
 471      3806D352 
 471      B6560DB6 
 471      DC
 472 1081 0E98D95F 		.ascii	"\016\230\331_C\001\254V\015\266\3121\230\226\262\015"
 472      4301AC56 
 472      0DB6CA31 
 472      9896B20D 
 473 1091 6AB07576 		.ascii	"j\260uv\300\262\315){_\015\366\276c0-euj\260-v\300\314"
 473      C0B2CD29 
 473      7B5F0DF6 
 473      BE63302D 
 473      65756AB0 
 474 10a9 8EE302D8 		.ascii	"\216\343\002\330\0265\330v\307`Z\312\266\251\301v\332"
 474      1635D876 
 474      C7605ACA 
 474      B6A9C176 
 474      DA
 475 10ba 01335B05 		.ascii	"\0013[\005)/\215m\377c%\257\236\230\022T\223xQ]l+kZ"
 475      292F8D6D 
 475      FF6325AF 
 475      9E981254 
 475      9378515D 
 476 10d2 8C674F3A 		.ascii	"\214gO:\016s\2766\011s\022#\243\272\024\260]\257g\333"
 476      0E73BE36 
 476      09731223 
 476      A3BA14B0 
ARM GAS  /tmp/ccRV6WVv.s 			page 38


 476      5DAF67DB 
 477 10e6 70D5CFEC 		.ascii	"p\325\317\354\0142\010q\277Z\210\215v\2048\324\034\354"
 477      0C320871 
 477      BF5A888D 
 477      768438D4 
 477      1CEC
 478 10f8 801A6C9F 		.ascii	"\200\032l\237\035\260g\314m\345oj\260\203\216\301\264"
 478      1DB067CC 
 478      6DE56F6A 
 478      B0838EC1 
 478      B4
 479 1109 941D5683 		.ascii	"\224\035V\203}f\007\354\005s\312>S\2035;\006SSV\032"
 479      7D6607EC 
 479      0573CA3E 
 479      5383353B 
 479      06535356 
 480 111e 3B9A303C 		.ascii	";\2320<:\313RY\236\325dLeyI\323\250\0136&c'\364tkP\344"
 480      3ACB5259 
 480      9ED5644C 
 480      657949D3 
 480      A80B3626 
 481 1139 DB910642 		.ascii	"\333\221\006B0\272\324#-\317\326\343\244\370#\234\266"
 481      30BAD423 
 481      2DCFD6E3 
 481      A4F8239C 
 481      B6
 482 114a EEC1FC63 		.ascii	"\356\301\374c\314\367b\276\017\363&\314\017b~\010\363"
 482      CCF762BE 
 482      0FF326CC 
 482      0F627E08 
 482      F3
 483 115b 23987F8E 		.ascii	"#\230\177\216y3\346\3070?\216\371\011\314\277\301\374"
 483      7933E6C7 
 483      303F8EF9 
 483      09CCBFC1 
 483      FC
 484 116c 5BCCCF60 		.ascii	"[\314\317`~\026\363s\230\237WO\221u\221\316N\213\311"
 484      7E16F373 
 484      989F574F 
 484      917591CE 
 484      4E8BC9
 485 117f F03F4C63 		.ascii	"\360?Lc{r\330\314\254\326%\323Z\323-j]6\2555\327\242"
 485      7B72D8CC 
 485      ACD625D3 
 485      5AD32D6A 
 485      5D36AD35 
 486 1195 D695A479 		.ascii	"\326\225\244y\304\202M_\375\033\371\217\0159\034\250"
 486      C4824D5F 
 486      FD1BF98F 
 486      0D391CA8 
 487 11a5 0FBDC996 		.ascii	"\017\275\311\226\204\031R\233;\371\204\347\244\333\014"
 487      8419529B 
 487      3BF984E7 
 487      A4DB0C
 488 11b4 43CB32A9 		.ascii	"C\3132\251v\0059EK\317v\361\354U\223\320Z\306\273f\030"
 488      76053945 
 488      4BCF76F1 
ARM GAS  /tmp/ccRV6WVv.s 			page 39


 488      EC5593D0 
 488      5AC6BB66 
 489 11c9 CEFE634B 		.ascii	"\316\376cK\343/\343t\322\3469\346\023{\015\336\260n"
 489      E32FE374 
 489      D2E639E6 
 489      137B0DDE 
 489      B06E
 490 11db F0A66183 		.ascii	"\360\246a\203\225\037\034} \251\301\252\333m5\330n\335"
 490      951F1C7D 
 490      20A9C1AA 
 490      DB6D35D8 
 490      6EDD
 491 11ed A0E4B18A 		.ascii	"\240\344\261\212\245W\273z\230J\275\314c\246\365\015"
 491      A557BB7A 
 491      984ABDCC 
 491      63A6F50D 
 492 11fd 266BBAB8 		.ascii	"&k\272\270\376iZk\201\205\255\224\233\326\232\3406\247"
 492      FE695A6B 
 492      8185AD94 
 492      9BD69AE0 
 492      36A7
 493 120f 70A269AD 		.ascii	"p\242i\255\013\026\363\333\012\217\336.\257\257\331"
 493      0B16F3DB 
 493      0A8FDE2E 
 493      AFAFD9
 494 121e F1DC9AC4 		.ascii	"\361\334\232\304\034i\230\3164\353,\246\330\223=\311"
 494      1C6998CE 
 494      34EB2CA6 
 494      D8933DC9 
 495 122e A6B9D25A 		.ascii	"\246\271\322Zq\364\260\032\317N\362X*n\212\307\300R"
 495      71F4B01A 
 495      CF4EF258 
 495      2A6E8AC7 
 495      C052
 496 1240 62470E2C 		.ascii	"bG\016,\220\317m\177 \365\316pp\216o\232\001\241[\255"
 496      90CF6D7F 
 496      20F5CE70 
 496      708E6F9A 
 496      01A15BAD 
 497 1254 09A5FF18 		.ascii	"\011\245\377\030\341\331\327\254\011}]K(s_\337\2769"
 497      E1D9D7AC 
 497      097D5D4B 
 497      28735FDF 
 497      BE39
 498 1266 B985FE51 		.ascii	"\271\205\376Q\376\347\363s\302\321\234\210\230\343\017"
 498      FEE7F373 
 498      C2D19C88 
 498      98E30F
 499 1275 F902C505 		.ascii	"\371\002\305\005B\216\2570:>*\216/\022\242}\013\231"
 499      428EAF30 
 499      3A3E2A8E 
 499      2F12A27D 
 499      0B99
 500 1287 0CB13022 		.ascii	"\014\2610\"\360\005^1\355\351\337\277\230\235\313d\372"
 500      F0055E31 
 500      EDE9DFBF 
 500      989DCB64 
ARM GAS  /tmp/ccRV6WVv.s 			page 40


 500      FA
 501 1298 0ABDF4D5 		.ascii	"\012\275\364\325\257\255\000|\205\005P\271\033-\031"
 501      AFAD007C 
 501      850550B9 
 501      1B2D19
 502 12a7 F5BE522C 		.ascii	"\365\276R,\024\013^\261{\274\262\374\312\035\022\306"
 502      140B5EB1 
 502      7BBCB2FC 
 502      CA1D12C6 
 503 12b7 89EEA288 		.ascii	"\211\356\242\2100\326\203\317\217i1}\341`0\034\312)"
 503      30D683CF 
 503      8F69317D 
 503      E160301C 
 503      CA29
 504 12c9 0A47C468 		.ascii	"\012G\304h\316\260\274\341\271\303\307\221wE\376\200"
 504      CEB0BCE1 
 504      B9C3C791 
 504      7745FE80 
 505 12d9 1089E63C 		.ascii	"\020\211\346<\235\233\013M)\204\246\213E\021\177\330"
 505      9D9B0B4D 
 505      2984A68B 
 505      45117FD8 
 506 12e9 0B0543A3 		.ascii	"\013\005C\2431=\234S\030\016\0129\021!*\360\021_aN!"
 506      313D9C53 
 506      180E0A39 
 506      11212AF0 
 506      115F614E 
 507 12fe 1F2928E1 		.ascii	"\037)(\341#B\016\037\011\016\310\031\343\363\365\201"
 507      23420E1F 
 507      090EC819 
 507      E3F3F581 
 508 130e 9B3E4270 		.ascii	"\233>Bp\224PP \024\304_\204\302!\241\217\300\217\362"
 508      94505020 
 508      14C45F84 
 508      C221A18F 
 508      C08FF2
 509 1321 F719E41D 		.ascii	"\367\031\344\035\334g@\277\376\203^\031\220\243\371"
 509      DC6740BF 
 509      FE835E19 
 509      90A3F9
 510 1330 10E7332A 		.ascii	"\020\3473*\026\370C\"\021R1\374\016\034\340\025'\260"
 510      16F84322 
 510      115231FC 
 510      0E1CE015 
 510      27B0
 511 1342 FFBCD683 		.ascii	"\377\274\326\203\274\257\320\037\022r\274\005\302h\276"
 511      BCAFD01F 
 511      1272BC05 
 511      C268BE
 512 1351 38207A15 		.ascii	"8 z\025It\362z\025z\334D&YD~^_8$\202\260\037\262!\341"
 512      4974F27A 
 512      157ADC44 
 512      2659447E 
 512      5E5F3824 
 513 136b 425F3822 		.ascii	"B_8\"\000Pg\254\010P>q\\\216\335z\336\261\217\004\211"
 513      005067AC 
 513      08503E71 
ARM GAS  /tmp/ccRV6WVv.s 			page 41


 513      5C8EDD7A 
 513      DEB18F04 
 514 1380 4822C218 		.ascii	"H\"\302\030\240\333+r\221A\\\344a.\362[.\362\010\027"
 514      A0DB2B72 
 514      91415CE4 
 514      612EF25B 
 514      2EF20817 
 515 1394 19CC451E 		.ascii	"\031\314E\036uE\372\367\203\324\237\013D\270h\221\013"
 515      7545FAF7 
 515      83D49F0B 
 515      44B86891 
 515      0B
 516 13a5 C03D21A1 		.ascii	"\300=!\241D\210x\302\201\002!\342\366\201\250\334!>"
 516      448878C2 
 516      810221E2 
 516      F681A8DC 
 516      213E
 517 13b7 28748A8A 		.ascii	"(t\212\212/\363\001\377\230\220WD\001\377v\220W\224"
 517      2FF301FF 
 517      98905744 
 517      01FF7690 
 517      5794
 518 13c9 7923B769 		.ascii	"y#\267i%\374(>*d\210Q\221\027\301\270\322\311\207\301"
 518      25FC283E 
 518      2A648851 
 518      9117C1B8 
 518      D2C987C1 
 519 13dd 5E319316 		.ascii	"^1\223\026\201;\017~I\027\203\341\002\370\356\031\035"
 519      813B0F7E 
 519      491783E1 
 519      02F8EE19 
 519      1D
 520 13ee E0C744D3 		.ascii	"\340\307D\323\305\2100:\012\222!?\236`t\014T\224\205"
 520      C588303A 
 520      0A92213F 
 520      9E60740C 
 520      549485
 521 1401 0515E5BB 		.ascii	"\005\025\345\273\264H\301x\370\224!\214\363\213>\250"
 521      B448C178 
 521      F894218C 
 521      F38B3EA8 
 522 1411 9C562286 		.ascii	"\234V\"\206G\375\271\310S\"\212\221\242\364\250\020"
 522      47FDB9C8 
 522      53228A91 
 522      A2F4A810 
 523 1421 12E16B16 		.ascii	"\022\341k\026\030sT\010\362E\205\300uo+g\020\210@<\276"
 523      18735408 
 523      F24585C0 
 523      756F2B67 
 523      1088403C 
 524 1436 10A8C805 		.ascii	"\020\250\310\0059\240\301\253\242\014\250\037,\006\235"
 524      39A0C1AB 
 524      A20CA81F 
 524      2C069D
 525 1445 58D50D8A 		.ascii	"X\325\015\212\343H\335pIH\210\244ci\302\270\010\257"
 525      E348DD70 
 525      494888A4 
ARM GAS  /tmp/ccRV6WVv.s 			page 42


 525      6369C2B8 
 525      08AF
 526 1457 8B3A0B63 		.ascii	"\213:\013c\011!|\364ex%\224\220\033\266\270\253\342"
 526      09217CF4 
 526      65782594 
 526      901BB6B8 
 526      ABE2
 527 1469 5E017F14 		.ascii	"^\001\177\024\232\353\246r8\362&\275\204\367\213\376"
 527      9AEBA672 
 527      38F226BD 
 527      84F78BFE 
 528 1479 D0980CA0 		.ascii	"\320\230\014\240\037\035.C(\022B`\305c\322\001\222\224"
 528      1F1D2E43 
 528      28124260 
 528      C563D201 
 528      9294
 529 148b 00BDF101 		.ascii	"\000\275\361\001b5\236`Q8\034\350)\273?HK\210\010!\037"
 529      62359E60 
 529      51381CE8 
 529      29BB3F48 
 529      4B880821 
 530 14a0 C871A08A 		.ascii	"\310q\240\212\\Q\210\212\204\340h\2708\342\023\350#"
 530      5C51888A 
 530      84E068B8 
 530      38E213E8 
 530      23
 531 14b1 C9403000 		.ascii	"\311@0\000O\212\367\3537\260\257\017\234\023a\372\263"
 531      4F8AF7EB 
 531      37B0AF0F 
 531      9C1361FA 
 531      B3
 532 14c2 453DF133 		.ascii	"E=\3613\274\205\324\037\212\211\305Ewi^\011\343\004"
 532      BC85D41F 
 532      8A89C545 
 532      77695E09 
 532      E304
 533 14d4 1FF0D9B7 		.ascii	"\037\360\331\267\210\217\210}\373\335n\364\355Wz\012"
 533      888F887D 
 533      FBDD6EF4 
 533      ED577A0A 
 534 14e4 02FE5139 		.ascii	"\002\376Q9\204S\270\307^\207\324\021\202~\020@\370e"
 534      8453B8C7 
 534      5E87D411 
 534      827E1040 
 534      F865
 535 14f6 2104BD4E 		.ascii	"!\004\275N\276\2570O\200NI((\016\010\371\367Z\010\\"
 535      BEAF304F 
 535      804E4928 
 535      280E08F9 
 535      F75A085C 
 536 150a 9616C080 		.ascii	"\226\026\300\200~G\024\026@\265\342\240\360\354Cv\230"
 536      7E471416 
 536      40B5E2A0 
 536      F0EC4376 
 536      98
 537 151b 8E84C3A4 		.ascii	"\216\204\303\244\375\036\370@$\255\310>\223t\250\376"
 537      FD1EF840 
ARM GAS  /tmp/ccRV6WVv.s 			page 43


 537      24ADC83E 
 537      9374A8FE 
 538 152b 2008EF76 		.ascii	" \010\357v\004\315/\216\022\261\217\200W\341b1\337\343"
 538      04CD2F8E 
 538      12B18F80 
 538      57E16231 
 538      DFE3
 539 153d 7D0244DD 		.ascii	"}\002D\335\013\351\367\362\321\250\000^\207\305K\374"
 539      0BE9F7F2 
 539      D1A8005E 
 539      87C54BFC 
 540 154d A1827049 		.ascii	"\241\202pI\226\372C\351\317\322\303\020\001B\001]O3"
 540      96FA43E9 
 540      CFD2C310 
 540      0142015D 
 540      4F33
 541 155f A8EFE0BE 		.ascii	"\250\357\340\276\203\324\275\035\3644\300_Z\324\377"
 541      83D4BD1D 
 541      F434C05F 
 541      5AD4FF
 542 156e DFC4DFC4 		.ascii	"\337\304\337\304\321\305!\237W\354\201,\345\002\243"
 542      D1C5219F 
 542      57EC812C 
 542      E502A3
 543 157d A2900F0E 		.ascii	"\242\220\017\016\347\367\271\304H\377Lj\006\242P\304"
 543      E7F7B9C4 
 543      48FF4C6A 
 543      06A250C4 
 544 158d 95F09D89 		.ascii	"\225\360\235\211\253\200\010\004\350\0172\343\367YD"
 544      AB800804 
 544      E80F32E3 
 544      F75944
 545 159c 36E3654B 		.ascii	"6\343eK\355\002\257\023\317\351\276\342\010\230\233"
 545      ED02AF13 
 545      CFE9BEE2 
 545      08989B
 546 15ab E88990A7 		.ascii	"\350\211\220\247;\306\372#b1\037@\241D\024\333\276\023"
 546      3BC6FA23 
 546      62311F40 
 546      A14414DB 
 546      BE13
 547 15bd 6A187CE8 		.ascii	"j\030|\350\246yG\307\034\315+O\201\020\020\371\214\261"
 547      A67947C7 
 547      1CCD2B4F 
 547      811010F9 
 547      8CB1
 548 15cf 32F96EF2 		.ascii	"2\371n\362\343\002k\313\010\360Q\221\224H\033+\022\240"
 548      E3026BCB 
 548      08F05191 
 548      94481B2B 
 548      12A0
 549 15e1 AE32C505 		.ascii	"\2562\305\005\302\250\3421\324\225\324o2\213\370\220"
 549      C2A8E231 
 549      D495D46F 
 549      328BF890 
 550 15f1 DFE70547 		.ascii	"\337\347\005Gr\025\214\032\323)\310C\337\201\332\316"
 550      72158C1A 
ARM GAS  /tmp/ccRV6WVv.s 			page 44


 550      D329C843 
 550      DF81DACE 
 551 1601 B6B22ED2 		.ascii	"\266\262.\322\023t\027\203^\037tl\243\" \2540\364n\351"
 551      13741783 
 551      5E1F746C 
 551      A32220AC 
 551      30F46EE9 
 552 1615 11113B87 		.ascii	"\021\021;\207\264\360\350\321\340\021\234\030\344|\205"
 552      B4F0E8D1 
 552      E0119C18 
 552      E47C85
 553 1624 B2CB443D 		.ascii	"\262\313D=\350#\031\"(\031l!\224.\373@'\"_\037\364\177"
 553      E8231922 
 553      28196C21 
 553      942EFB40 
 553      27225F1F 
 554 163a A080248F 		.ascii	"\240\200$\217\373E\337H\270\200\027\371\276I_\262\324"
 554      FB45DF48 
 554      B88017F9 
 554      BE495FB2 
 554      D4
 555 164b FED45BB6 		.ascii	"\376\324[\266\303l\036\0225\364l\"\015B\025\320'\216"
 555      C36C1E12 
 555      35F46C22 
 555      0D4215D0 
 555      278E
 556 165d 672CBBB5 		.ascii	"g,\273\265\361\304K@\235\371\343\243\317\205}/g\342"
 556      F1C44B40 
 556      9DF9E3A3 
 556      CF857D2F 
 556      67E2
 557 166f 681180BB 		.ascii	"h\021\200\273\201\206c\005\014>9\271\303\363\237\315"
 557      81866305 
 557      0C3E39B9 
 557      C3F39FCD 
 558 167f 4F6004A3 		.ascii	"O`\004\243\376\250\027\354\016p\272xIg\340}bX\376S/"
 558      FEA817EC 
 558      0E70BA78 
 558      4967E07D 
 558      6258FE53 
 559 1694 E43DDB85 		.ascii	"\344=\333\205\017\224\360\343\243\320\037\007`\210\363"
 559      0F94F0E3 
 559      A3D01F07 
 559      6088F3
 560 16a3 8CE503C5 		.ascii	"\214\345\003\305Bgl\351\305\020i\201\216L\305x?H\333"
 560      42676CE9 
 560      C5106981 
 560      8E4CC578 
 560      3F48DB
 561 16b6 5A211F90 		.ascii	"Z!\037\220\207\245\374\021\303\007\016\310y\356\271"
 561      87A5FC11 
 561      C3070EC8 
 561      79EEB9
 562 16c5 2773463C 		.ascii	"'sF<;|l\1770\340 \351\334\375D\007\235\343\017\320'"
 562      3B7C6C7F 
 562      30E020E9 
 562      DCFD4407 
ARM GAS  /tmp/ccRV6WVv.s 			page 45


 562      9DE30FD0 
 563 16da E7E6F587 		.ascii	"\347\346\365\2074\300\235?<7\317\375\344\263O\345q\371"
 563      34C09D3F 
 563      3C37CFFD 
 563      E4B34FE5 
 563      71F9
 564 16ec 79AEA79E 		.ascii	"y\256\247\236\316\363\344\346\016\317\353\217\371\000"
 564      CEF3E4E6 
 564      0ECFEB8F 
 564      F900
 565 16fa 776EEE53 		.ascii	"wn\356Sy\256\334\337\217p\275\220\237\353\032\226\227"
 565      79AEDCDF 
 565      8F70BD90 
 565      9FEB1A96 
 565      97
 566 170b E7CACB85 		.ascii	"\347\312\313\205g\250\360\304\223#\362\\O\222\232\303"
 566      67A8F0C4 
 566      9323F25C 
 566      4F929AC3 
 567 171b 87E571CF 		.ascii	"\207\345q\317\323Z\003\241\374\310<+S\030K\272\212\236"
 567      D35A03A1 
 567      FCC83C2B 
 567      53184BBA 
 567      8A9E
 568 172d BEC27F1F 		.ascii	"\276\302\177\037\361\264 \346\243a\221\376`d\177\333"
 568      F1B420E6 
 568      A36191FE 
 568      60647FDB 
 569 173d 032D5A33 		.ascii	"\003-Z3\200\334\206\302\240\346>F\240w\017\333\025\012"
 569      80DC86C2 
 569      A0E63E46 
 569      A0770FDB 
 569      150A
 570 174f 7C012FF5 		.ascii	"|\001/\365\006\002$^\353I\357\020\305\027.\206\200!"
 570      0602245E 
 570      EB49EF10 
 570      C5172E86 
 570      8021
 571 1761 42BD1B48 		.ascii	"B\275\033H|\001\306\204\010\330\304\310.\312\233|!0"
 571      7C01C684 
 571      08D8C4C8 
 571      2ECA9B7C 
 571      2130
 572 1773 7AE4FF03 		.ascii	"z\344\377\003\234Js\252"
 572      9C4A73AA 
 573              		.text
 574              		.section	.gnu.lto_.symtab.bc1f97dbf017f777,"",%progbits
 575 0000 74657374 		.ascii	"test_sequence_003\000\000\000\000\000\000\000\000\000"
 575      5F736571 
 575      75656E63 
 575      655F3030 
 575      33000000 
 576 001a 00000005 		.ascii	"\000\000\000\005\002\000\000test_step\000\000\002\000"
 576      02000074 
 576      6573745F 
 576      73746570 
 576      00000200 
ARM GAS  /tmp/ccRV6WVv.s 			page 46


 577 002e 00000000 		.ascii	"\000\000\000\000\000\000\000\000\253\001\000\000wa\000"
 577      00000000 
 577      AB010000 
 577      776100
 578 003d 00020000 		.ascii	"\000\002\000\000\000\000\000\000\000\000\000\255\001"
 578      00000000 
 578      000000AD 
 578      01
 579 004a 00006368 		.ascii	"\000\000ch\000\000\002\000\000\000\000\000\000\000\000"
 579      00000200 
 579      00000000 
 579      000000
 580 0059 00B30100 		.ascii	"\000\263\001\000\000threads\000\000\002\000\000\000"
 580      00746872 
 580      65616473 
 580      00000200 
 580      0000
 581 006b 00000000 		.ascii	"\000\000\000\000\000\000\002\002\000\000test_emit_t"
 581      00000202 
 581      00007465 
 581      73745F65 
 581      6D69745F 
 582 0080 6F6B656E 		.ascii	"oken\000\000\002\000\000\000\000\000\000\000\000\000"
 582      00000200 
 582      00000000 
 582      00000000 
 583 0090 78010000 		.ascii	"x\001\000\000chSchRescheduleS\000\000\002\000\000\000"
 583      63685363 
 583      68526573 
 583      63686564 
 583      756C6553 
 584 00aa 00000000 		.ascii	"\000\000\000\000\000\000|\001\000\000chThdResumeI\000"
 584      00007C01 
 584      00006368 
 584      54686452 
 584      6573756D 
 585 00c1 00020000 		.ascii	"\000\002\000\000\000\000\000\000\000\000\000~\001\000"
 585      00000000 
 585      0000007E 
 585      0100
 586 00cf 00746573 		.ascii	"\000test_wait_threads\000\000\002\000\000\000\000\000"
 586      745F7761 
 586      69745F74 
 586      68726561 
 586      64730000 
 587 00e9 00000000 		.ascii	"\000\000\000\000\203\001\000\000chThdSuspendTimeout"
 587      83010000 
 587      63685468 
 587      64537573 
 587      70656E64 
 588 0104 53000002 		.ascii	"S\000\000\002\000\000\000\000\000\000\000\000\000\205"
 588      00000000 
 588      00000000 
 588      0085
 589 0112 0100005F 		.ascii	"\001\000\000_test_assert_time_window\000\000\002\000"
 589      74657374 
 589      5F617373 
ARM GAS  /tmp/ccRV6WVv.s 			page 47


 589      6572745F 
 589      74696D65 
 590 0131 00000000 		.ascii	"\000\000\000\000\000\000\000\000\215\001\000\000_te"
 590      00000000 
 590      8D010000 
 590      5F7465
 591 0140 73745F61 		.ascii	"st_assert\000\000\002\000\000\000\000\000\000\000\000"
 591      73736572 
 591      74000002 
 591      00000000 
 591      00000000 
 592 0154 00960100 		.ascii	"\000\226\001\000\000chThdCreateStatic\000\000\002\000"
 592      00636854 
 592      68644372 
 592      65617465 
 592      53746174 
 593 016e 00000000 		.ascii	"\000\000\000\000\000\000\000\000\233\001\000\000"
 593      00000000 
 593      9B010000 
 594              		.text
 595              		.section	.gnu.lto_.opts,"",%progbits
 596 0000 272D6D63 		.ascii	"'-mcpu=cortex-m4' '-mno-thumb-interwork' '-mthumb' "
 596      70753D63 
 596      6F727465 
 596      782D6D34 
 596      2720272D 
 597 0033 272D6767 		.ascii	"'-ggdb' '-O2' '-fomit-frame-pointer' '-falign-funct"
 597      64622720 
 597      272D4F32 
 597      2720272D 
 597      666F6D69 
 598 0066 696F6E73 		.ascii	"ions=16' '-ffunction-sections' '-fdata-sections' '-"
 598      3D313627 
 598      20272D66 
 598      66756E63 
 598      74696F6E 
 599 0099 666E6F2D 		.ascii	"fno-common' '-flto'\000"
 599      636F6D6D 
 599      6F6E2720 
 599      272D666C 
 599      746F2700 
 600              		.text
 601              		.cfi_sections	.debug_frame
 602              		.section	.text.test_003_001_setup,"ax",%progbits
 603              		.align	2
 604              		.p2align 4,,15
 605              		.thumb
 606              		.thumb_func
 607              		.type	test_003_001_setup, %function
 608              	test_003_001_setup:
 609              	.LFB271:
 610              		.file 1 "../ChibiOS/test/rt/source/test/test_sequence_003.c"
 611              		.loc 1 74 0
 612              		.cfi_startproc
 613              		@ args = 0, pretend = 0, frame = 0
 614              		@ frame_needed = 0, uses_anonymous_args = 0
 615              		@ link register save eliminated.
ARM GAS  /tmp/ccRV6WVv.s 			page 48


 616              		.loc 1 75 0
 617 0000 014B     		ldr	r3, .L2
 618 0002 0022     		movs	r2, #0
 619 0004 1A60     		str	r2, [r3]
 620 0006 7047     		bx	lr
 621              	.L3:
 622              		.align	2
 623              	.L2:
 624 0008 00000000 		.word	.LANCHOR0
 625              		.cfi_endproc
 626              	.LFE271:
 627              		.size	test_003_001_setup, .-test_003_001_setup
 628 000c AFF30080 		.section	.text.thread1,"ax",%progbits
 629              		.align	2
 630              		.p2align 4,,15
 631              		.thumb
 632              		.thumb_func
 633              		.type	thread1, %function
 634              	thread1:
 635              	.LFB270:
 636              		.loc 1 44 0
 637              		.cfi_startproc
 638              		@ args = 0, pretend = 0, frame = 0
 639              		@ frame_needed = 0, uses_anonymous_args = 0
 640              	.LVL0:
 641 0000 10B5     		push	{r4, lr}
 642              		.cfi_def_cfa_offset 8
 643              		.cfi_offset 4, -8
 644              		.cfi_offset 14, -4
 645              	.LBB87:
 646              	.LBB88:
 647              	.LBB89:
 648              	.LBB90:
 649              		.file 2 "../ChibiOS/os/common/ext/CMSIS/include/cmsis_gcc.h"
 650              		.loc 2 264 0
 651 0002 2023     		movs	r3, #32
 652              	.LBE90:
 653              	.LBE89:
 654              	.LBE88:
 655              	.LBE87:
 656              		.loc 1 44 0
 657 0004 0446     		mov	r4, r0
 658              	.LBB94:
 659              	.LBB93:
 660              	.LBB92:
 661              	.LBB91:
 662              		.loc 2 264 0
 663              	@ 264 "../ChibiOS/os/common/ext/CMSIS/include/cmsis_gcc.h" 1
 664 0006 83F31188 		MSR basepri, r3
 665              	@ 0 "" 2
 666              		.thumb
 667              	.LBE91:
 668              	.LBE92:
 669              	.LBE93:
 670              	.LBE94:
 671              		.loc 1 47 0
 672 000a 0748     		ldr	r0, .L5
ARM GAS  /tmp/ccRV6WVv.s 			page 49


 673              	.LVL1:
 674 000c 0021     		movs	r1, #0
 675 000e FFF7FEFF 		bl	chThdResumeI
 676              	.LVL2:
 677              		.loc 1 48 0
 678 0012 FFF7FEFF 		bl	chSchRescheduleS
 679              	.LVL3:
 680              	.LBB95:
 681              	.LBB96:
 682              	.LBB97:
 683              	.LBB98:
 684              	.LBB99:
 685              		.loc 2 264 0
 686 0016 0023     		movs	r3, #0
 687              	@ 264 "../ChibiOS/os/common/ext/CMSIS/include/cmsis_gcc.h" 1
 688 0018 83F31188 		MSR basepri, r3
 689              	@ 0 "" 2
 690              		.thumb
 691              	.LBE99:
 692              	.LBE98:
 693              	.LBE97:
 694              	.LBE96:
 695              	.LBE95:
 696              		.loc 1 50 0
 697 001c 2078     		ldrb	r0, [r4]	@ zero_extendqisi2
 698              		.loc 1 51 0
 699 001e BDE81040 		pop	{r4, lr}
 700              	.LVL4:
 701              		.loc 1 50 0
 702 0022 FFF7FEBF 		b	test_emit_token
 703              	.LVL5:
 704              	.L6:
 705 0026 00BF     		.align	2
 706              	.L5:
 707 0028 00000000 		.word	.LANCHOR0
 708              		.cfi_endproc
 709              	.LFE270:
 710              		.size	thread1, .-thread1
 711 002c AFF30080 		.section	.text.test_003_001_execute,"ax",%progbits
 712              		.align	2
 713              		.p2align 4,,15
 714              		.thumb
 715              		.thumb_func
 716              		.type	test_003_001_execute, %function
 717              	test_003_001_execute:
 718              	.LFB272:
 719              		.loc 1 78 0
 720              		.cfi_startproc
 721              		@ args = 0, pretend = 0, frame = 0
 722              		@ frame_needed = 0, uses_anonymous_args = 0
 723 0000 F0B5     		push	{r4, r5, r6, r7, lr}
 724              		.cfi_def_cfa_offset 20
 725              		.cfi_offset 4, -20
 726              		.cfi_offset 5, -16
 727              		.cfi_offset 6, -12
 728              		.cfi_offset 7, -8
 729              		.cfi_offset 14, -4
ARM GAS  /tmp/ccRV6WVv.s 			page 50


 730              	.LBB141:
 731              	.LBB142:
 732              	.LBB143:
 733              	.LBB144:
 734              		.file 3 "../ChibiOS/os/rt/include/chthreads.h"
 735              		.loc 3 277 0
 736 0002 314B     		ldr	r3, .L13
 737              	.LBE144:
 738              	.LBE143:
 739              	.LBE142:
 740              	.LBE141:
 741              		.loc 1 87 0
 742 0004 314A     		ldr	r2, .L13+4
 743              	.LBB146:
 744              	.LBB145:
 745              		.loc 3 290 0
 746 0006 9B69     		ldr	r3, [r3, #24]
 747              	.LBE145:
 748              	.LBE146:
 749              		.loc 1 87 0
 750 0008 1068     		ldr	r0, [r2]
 751              		.loc 1 85 0
 752 000a 314E     		ldr	r6, .L13+8
 753              		.loc 1 87 0
 754 000c 9A68     		ldr	r2, [r3, #8]
 755 000e 314B     		ldr	r3, .L13+12
 756              		.loc 1 78 0
 757 0010 83B0     		sub	sp, sp, #12
 758              		.cfi_def_cfa_offset 32
 759              		.loc 1 85 0
 760 0012 0124     		movs	r4, #1
 761              		.loc 1 87 0
 762 0014 0093     		str	r3, [sp]
 763 0016 013A     		subs	r2, r2, #1
 764 0018 4FF4A471 		mov	r1, #328
 765 001c 2E4B     		ldr	r3, .L13+16
 766              		.loc 1 85 0
 767 001e 3460     		str	r4, [r6]
 768              		.loc 1 87 0
 769 0020 FFF7FEFF 		bl	chThdCreateStatic
 770              	.LVL6:
 771 0024 2D4B     		ldr	r3, .L13+20
 772              	.LBB147:
 773              	.LBB148:
 774              	.LBB149:
 775              	.LBB150:
 776              		.loc 2 264 0
 777 0026 2025     		movs	r5, #32
 778              	.LBE150:
 779              	.LBE149:
 780              	.LBE148:
 781              	.LBE147:
 782              		.loc 1 87 0
 783 0028 1860     		str	r0, [r3]
 784              	.LVL7:
 785              	.LBB154:
 786              	.LBB153:
ARM GAS  /tmp/ccRV6WVv.s 			page 51


 787              	.LBB152:
 788              	.LBB151:
 789              		.loc 2 264 0
 790              	@ 264 "../ChibiOS/os/common/ext/CMSIS/include/cmsis_gcc.h" 1
 791 002a 85F31188 		MSR basepri, r5
 792              	@ 0 "" 2
 793              		.thumb
 794              	.LBE151:
 795              	.LBE152:
 796              	.LBE153:
 797              	.LBE154:
 798              		.loc 1 89 0
 799 002e 2C4C     		ldr	r4, .L13+24
 800 0030 4FF0FF31 		mov	r1, #-1
 801 0034 2046     		mov	r0, r4
 802 0036 FFF7FEFF 		bl	chThdSuspendTimeoutS
 803              	.LVL8:
 804              	.LBB155:
 805              	.LBB156:
 806              	.LBB157:
 807              	.LBB158:
 808              	.LBB159:
 809              		.loc 2 264 0
 810 003a 0023     		movs	r3, #0
 811              	.LBE159:
 812              	.LBE158:
 813              	.LBE157:
 814              	.LBE156:
 815              	.LBE155:
 816              		.loc 1 89 0
 817 003c 0746     		mov	r7, r0
 818              	.LVL9:
 819              	.LBB164:
 820              	.LBB163:
 821              	.LBB162:
 822              	.LBB161:
 823              	.LBB160:
 824              		.loc 2 264 0
 825              	@ 264 "../ChibiOS/os/common/ext/CMSIS/include/cmsis_gcc.h" 1
 826 003e 83F31188 		MSR basepri, r3
 827              	@ 0 "" 2
 828              		.thumb
 829              	.LBE160:
 830              	.LBE161:
 831              	.LBE162:
 832              	.LBE163:
 833              	.LBE164:
 834              		.loc 1 91 0
 835 0042 2068     		ldr	r0, [r4]
 836              	.LVL10:
 837 0044 2749     		ldr	r1, .L13+28
 838 0046 C21A     		subs	r2, r0, r3
 839 0048 5042     		rsbs	r0, r2, #0
 840 004a 5041     		adcs	r0, r0, r2
 841 004c FFF7FEFF 		bl	_test_assert
 842              	.LVL11:
 843 0050 08B1     		cbz	r0, .L12
ARM GAS  /tmp/ccRV6WVv.s 			page 52


 844              	.LVL12:
 845              	.L7:
 846              		.loc 1 111 0
 847 0052 03B0     		add	sp, sp, #12
 848              		@ sp needed
 849 0054 F0BD     		pop	{r4, r5, r6, r7, pc}
 850              	.LVL13:
 851              	.L12:
 852              		.loc 1 92 0
 853 0056 D7F10100 		rsbs	r0, r7, #1
 854 005a 38BF     		it	cc
 855 005c 0020     		movcc	r0, #0
 856 005e 2249     		ldr	r1, .L13+32
 857 0060 FFF7FEFF 		bl	_test_assert
 858              	.LVL14:
 859 0064 0746     		mov	r7, r0
 860              	.LVL15:
 861 0066 0028     		cmp	r0, #0
 862 0068 F3D1     		bne	.L7
 863              	.LBB165:
 864              	.LBB166:
 865              		.loc 1 93 0
 866 006a FFF7FEFF 		bl	test_wait_threads
 867              	.LVL16:
 868              		.loc 1 99 0
 869 006e 0223     		movs	r3, #2
 870 0070 3360     		str	r3, [r6]
 871              	.LVL17:
 872              	.LBB167:
 873              	.LBB168:
 874              	.LBB169:
 875              	.LBB170:
 876              		.loc 2 264 0
 877              	@ 264 "../ChibiOS/os/common/ext/CMSIS/include/cmsis_gcc.h" 1
 878 0072 85F31188 		MSR basepri, r5
 879              	@ 0 "" 2
 880              		.thumb
 881              	.LBE170:
 882              	.LBE169:
 883              	.LBE168:
 884              	.LBE167:
 885              	.LBB171:
 886              	.LBB172:
 887              	.LBB173:
 888              	.LBB174:
 889              		.file 4 "../ChibiOS/os/hal/ports/STM32/LLD/TIMv1/hal_st_lld.h"
 890              		.loc 4 141 0
 891 0076 4FF08043 		mov	r3, #1073741824
 892              	.LBE174:
 893              	.LBE173:
 894              	.LBE172:
 895              	.LBE171:
 896              		.loc 1 103 0
 897 007a 2046     		mov	r0, r4
 898 007c 42F21071 		movw	r1, #10000
 899              	.LBB178:
 900              	.LBB177:
ARM GAS  /tmp/ccRV6WVv.s 			page 53


 901              	.LBB176:
 902              	.LBB175:
 903              		.loc 4 141 0
 904 0080 5D6A     		ldr	r5, [r3, #36]
 905              	.LBE175:
 906              	.LBE176:
 907              	.LBE177:
 908              	.LBE178:
 909              		.loc 1 103 0
 910 0082 FFF7FEFF 		bl	chThdSuspendTimeoutS
 911              	.LVL18:
 912 0086 0646     		mov	r6, r0
 913              	.LVL19:
 914              	.LBB179:
 915              	.LBB180:
 916              	.LBB181:
 917              	.LBB182:
 918              	.LBB183:
 919              		.loc 2 264 0
 920              	@ 264 "../ChibiOS/os/common/ext/CMSIS/include/cmsis_gcc.h" 1
 921 0088 87F31188 		MSR basepri, r7
 922              	@ 0 "" 2
 923              		.thumb
 924              	.LBE183:
 925              	.LBE182:
 926              	.LBE181:
 927              	.LBE180:
 928              	.LBE179:
 929              		.loc 1 105 0
 930 008c 05F51C50 		add	r0, r5, #9984
 931              	.LVL20:
 932 0090 0146     		mov	r1, r0
 933 0092 1331     		adds	r1, r1, #19
 934 0094 1030     		adds	r0, r0, #16
 935 0096 154A     		ldr	r2, .L13+36
 936 0098 FFF7FEFF 		bl	_test_assert_time_window
 937              	.LVL21:
 938 009c 0028     		cmp	r0, #0
 939 009e D8D1     		bne	.L7
 940              		.loc 1 108 0
 941 00a0 2068     		ldr	r0, [r4]
 942 00a2 1049     		ldr	r1, .L13+28
 943 00a4 D0F10100 		rsbs	r0, r0, #1
 944 00a8 38BF     		it	cc
 945 00aa 0020     		movcc	r0, #0
 946 00ac FFF7FEFF 		bl	_test_assert
 947              	.LVL22:
 948 00b0 0028     		cmp	r0, #0
 949 00b2 CED1     		bne	.L7
 950              		.loc 1 109 0
 951 00b4 B6F1FF33 		subs	r3, r6, #-1
 952 00b8 5842     		rsbs	r0, r3, #0
 953 00ba 0B49     		ldr	r1, .L13+32
 954 00bc 5841     		adcs	r0, r0, r3
 955              	.LBE166:
 956              	.LBE165:
 957              		.loc 1 111 0
ARM GAS  /tmp/ccRV6WVv.s 			page 54


 958 00be 03B0     		add	sp, sp, #12
 959              		@ sp needed
 960 00c0 BDE8F040 		pop	{r4, r5, r6, r7, lr}
 961              	.LVL23:
 962              	.LBB185:
 963              	.LBB184:
 964              		.loc 1 109 0
 965 00c4 FFF7FEBF 		b	_test_assert
 966              	.LVL24:
 967              	.L14:
 968              		.align	2
 969              	.L13:
 970 00c8 00000000 		.word	ch
 971 00cc 00000000 		.word	wa
 972 00d0 00000000 		.word	test_step
 973 00d4 00000000 		.word	.LC0
 974 00d8 00000000 		.word	thread1
 975 00dc 00000000 		.word	threads
 976 00e0 00000000 		.word	.LANCHOR0
 977 00e4 04000000 		.word	.LC1
 978 00e8 10000000 		.word	.LC2
 979 00ec 28000000 		.word	.LC3
 980              	.LBE184:
 981              	.LBE185:
 982              		.cfi_endproc
 983              	.LFE272:
 984              		.size	test_003_001_execute, .-test_003_001_execute
 985              		.global	test_sequence_003
 986              		.section	.rodata.test_sequence_003,"a",%progbits
 987              		.align	2
 988              		.type	test_sequence_003, %object
 989              		.size	test_sequence_003, 8
 990              	test_sequence_003:
 991 0000 00000000 		.word	test_003_001
 992 0004 00000000 		.word	0
 993              		.section	.bss.tr1,"aw",%nobits
 994              		.align	2
 995              		.set	.LANCHOR0,. + 0
 996              		.type	tr1, %object
 997              		.size	tr1, 4
 998              	tr1:
 999 0000 00000000 		.space	4
 1000              		.section	.rodata.test_003_001,"a",%progbits
 1001              		.align	2
 1002              		.type	test_003_001, %object
 1003              		.size	test_003_001, 16
 1004              	test_003_001:
 1005 0000 3C000000 		.word	.LC4
 1006 0004 00000000 		.word	test_003_001_setup
 1007 0008 00000000 		.word	0
 1008 000c 00000000 		.word	test_003_001_execute
 1009              		.section	.rodata.str1.4,"aMS",%progbits,1
 1010              		.align	2
 1011              	.LC0:
 1012 0000 4100     		.ascii	"A\000"
 1013 0002 0000     		.space	2
 1014              	.LC1:
ARM GAS  /tmp/ccRV6WVv.s 			page 55


 1015 0004 6E6F7420 		.ascii	"not NULL\000"
 1015      4E554C4C 
 1015      00
 1016 000d 000000   		.space	3
 1017              	.LC2:
 1018 0010 77726F6E 		.ascii	"wrong returned message\000"
 1018      67207265 
 1018      7475726E 
 1018      6564206D 
 1018      65737361 
 1019 0027 00       		.space	1
 1020              	.LC3:
 1021 0028 6F757420 		.ascii	"out of time window\000"
 1021      6F662074 
 1021      696D6520 
 1021      77696E64 
 1021      6F7700
 1022 003b 00       		.space	1
 1023              	.LC4:
 1024 003c 53757370 		.ascii	"Suspend and Resume functionality\000"
 1024      656E6420 
 1024      616E6420 
 1024      52657375 
 1024      6D652066 
 1025 005d 000000   		.text
 1026              	.Letext0:
 1027              		.file 5 "/nfs/nfs5/home/research/hardware/arm2/gcc-arm-embedded/gcc-arm-none-eabi-4_8-2014q2/lib/g
 1028              		.file 6 "/nfs/nfs5/home/research/hardware/arm2/gcc-arm-embedded/gcc-arm-none-eabi-4_8-2014q2/arm-n
 1029              		.file 7 "/nfs/nfs5/home/research/hardware/arm2/gcc-arm-embedded/gcc-arm-none-eabi-4_8-2014q2/arm-n
 1030              		.file 8 "../ChibiOS/os/common/ports/ARMCMx/compilers/GCC/chtypes.h"
 1031              		.file 9 "../ChibiOS/os/rt/include/chsystypes.h"
 1032              		.file 10 "../ChibiOS/os/rt/include/chschd.h"
 1033              		.file 11 "../ChibiOS/os/common/ports/ARMCMx/chcore.h"
 1034              		.file 12 "../ChibiOS/os/common/ports/ARMCMx/chcore_v7m.h"
 1035              		.file 13 "../ChibiOS/os/hal/ports/STM32/LLD/TIMv1/stm32_tim.h"
 1036              		.file 14 "../ChibiOS/os/rt/include/chtm.h"
 1037              		.file 15 "../ChibiOS/os/rt/include/chsem.h"
 1038              		.file 16 "../ChibiOS/os/rt/include/chmtx.h"
 1039              		.file 17 "../ChibiOS/test/lib/ch_test.h"
 1040              		.file 18 "../ChibiOS/os/common/ports/ARMCMx/chcore_timer.h"
 1041              		.file 19 "../ChibiOS/os/rt/include/chsys.h"
 1042              		.file 20 "../ChibiOS/os/rt/include/chvt.h"
 1043              		.file 21 "../ChibiOS/os/common/ext/CMSIS/include/core_cm4.h"
 1044              		.file 22 "../ChibiOS/test/rt/source/test/test_root.h"