ARM GAS  /tmp/ccLwiMZb.s 			page 1


   1              		.syntax unified
   2              		.cpu cortex-m4
   3              		.fpu softvfp
   4              		.eabi_attribute 20, 1
   5              		.eabi_attribute 21, 1
   6              		.eabi_attribute 23, 3
   7              		.eabi_attribute 24, 1
   8              		.eabi_attribute 25, 1
   9              		.eabi_attribute 26, 1
  10              		.eabi_attribute 30, 2
  11              		.eabi_attribute 34, 1
  12              		.eabi_attribute 18, 4
  13              		.thumb
  14              		.file	"test_root.c"
  15              		.text
  16              	.Ltext0:
  17              		.section	.gnu.lto_.jmpfuncs.b351366f209d4e36,"",%progbits
  18 0000 789C6362 		.ascii	"x\234cb`b\300\006$\24043\003\003#\003P\015#\210\311"
  18      6062C006 
  18      24A03433 
  18      03032303 
  18      500D2388 
  19 0015 C814C198 		.ascii	"\310\024\301\230\311\010b3\000\000\012\364\000\356"
  19      C9086233 
  19      00000AF4 
  19      00EE
  20              		.text
  21              		.section	.gnu.lto_.inline.b351366f209d4e36,"",%progbits
  22 0000 789C6362 		.ascii	"x\234cb`b\300\006\202\24143\003\003\367\011\006F\006"
  22      6062C006 
  22      82A13433 
  22      0303F709 
  22      064606
  23 0013 269E179F 		.ascii	"&\236\027\237\231\031\330\026\310\203\2253q320N\360"
  23      9919D816 
  23      C8839533 
  23      71333230 
  23      4EF0
  24 0025 6362E039 		.ascii	"cb\3409\003\222\343[\263\212\005]\216\231\201C\000("
  24      0392E35B 
  24      B38A055D 
  24      8E998143 
  24      0028
  25 0037 C5F6410F 		.ascii	"\305\366A\017I\206\001\250\232\001\000\033\350\012\337"
  25      498601A8 
  25      9A01001B 
  25      E80ADF
  26              		.text
  27              		.section	.gnu.lto_.pureconst.b351366f209d4e36,"",%progbits
  28 0000 789C6362 		.ascii	"x\234cb`b`g\200\000f\006\011&\011f+\000\001\341\000"
  28      60626067 
  28      80006606 
  28      09260966 
  28      2B0001E1 
  29 0015 7E       		.ascii	"~"
  30              		.text
  31              		.section	.gnu.lto_test_terminate_threads.b351366f209d4e36,"",%progbits
ARM GAS  /tmp/ccLwiMZb.s 			page 2


  32 0000 789C5D92 		.ascii	"x\234]\222\277O\024A\024\307\277\337\231\235\335\365"
  32      BF4F1441 
  32      14C7BFDF 
  32      999DDDF5 
  33 0010 078954B4 		.ascii	"\007\211T\264\004K\34566\374\003VV\026r\004*\003\033"
  33      044BE536 
  33      36FC0356 
  33      56167204 
  33      2A031B
  34 0023 726E612E 		.ascii	"rna.9\316\312\202Y\356Lh\214\304\212\037\015\204\206"
  34      39CECA82 
  34      59EE4C68 
  34      8CC48A1F 
  34      0D8486
  35 0036 82843F00 		.ascii	"\202\204?\000I\216P\350\025j,M,6\026V\306\032\204\344"
  35      498E50E8 
  35      156A2C4D 
  35      2C361656 
  35      C61A84E4 
  36 004a 7CB33FEE 		.ascii	"|\263?\356\220\227\354\274y3\357}\336\217Y\005\205\233"
  36      9097ECBC 
  36      7933EF7D 
  36      DE8F5905 
  36      859B
  37 005c 3227DF15 		.ascii	"2'\337\025\201H4CPm|\001\322P\321/6Zy\037g`o\233\376"
  37      81483443 
  37      506D7C01 
  37      D250D12F 
  37      365A791F 
  38 0075 04EC5D8F 		.ascii	"\004\354]\217\24686\305\375i\350+\375\366\024\342\020"
  38      A63836C5 
  38      FD69E82B 
  38      FDF614E2 
  38      10
  39 0086 74C6C421 		.ascii	"t\306\304! \3359\210U\245=\343\007\\]\240\313\303)\354"
  39      20DD3988 
  39      55A53DE3 
  39      075C5DA0 
  39      CBC329EC 
  40 009a 59FB3E7B 		.ascii	"Y\373>{s\231q\313\366\272\273\366j0 \023JM5\"&\346\305"
  40      739971CB 
  40      F6BABBF6 
  40      6A302013 
  40      4A4D3522 
  41 00b1 E064AE94 		.ascii	"\340d\256\224\367\177\221G\252\227\015\006\037N\016"
  41      F77F9147 
  41      AA970D06 
  41      1F4E0E
  42 00c0 7F5E703C 		.ascii	"\177^p<$\026\271'<\203\204:(\015\021\203\256\265\033"
  42      2416B927 
  42      3C83843A 
  42      280D1183 
  42      AEB51B
  43 00d3 93951DE7 		.ascii	"\223\225\035\347yge\225\312\352T\242t\037k\331\2373"
  43      79676595 
  43      CAEA54A2 
  43      741F6BD9 
ARM GAS  /tmp/ccLwiMZb.s 			page 3


  43      9F33
  44 00e5 7F91FB34 		.ascii	"\177\221\3734e\240\3137LT\247\206\264\243?c\355\307"
  44      65A0CB37 
  44      4C54A786 
  44      B4A33F63 
  44      EDC7
  45 00f7 F9654F15 		.ascii	"\371eO\025\216\015\232i<\224d;\330N\255\275\227\320"
  45      8E0D9A69 
  45      3C94643B 
  45      D84EADBD 
  45      97D0
  46 0109 7B8DBF76 		.ascii	"{\215\277v\335\355\314\313<\332QL\216hp\204\373\204"
  46      DDEDCCCB 
  46      3CDA514C 
  46      8E687084 
  46      FB84
  47 011b EEEFF4D1 		.ascii	"\356\357\364\321\020\342\234\364\365\276\352\364p<\255"
  47      10E29CF4 
  47      F5BEEAF4 
  47      703CAD
  48 012a BFA29B9D 		.ascii	"\277\242\233\235\357\337)\374\200!\333\217K\226\304"
  48      EFDF29FC 
  48      8021DB8F 
  48      4B96C4
  49 0139 260CAA18 		.ascii	"&\014\252\030S\226\330Y\357\034\277{R\321\003I\234\367"
  49      5396D859 
  49      EF1CBF7B 
  49      52D10349 
  49      9CF7
  50 014b E242FA50 		.ascii	"\342B\372P\327{l\214\202}\310\373\2709\204\030^2\257"
  50      D77B6C8C 
  50      827DC8FB 
  50      B8398418 
  50      5E32AF
  51 015e F4571A54 		.ascii	"\364W\032T\254\0024z\204\357`9&u\240\005f6o9V\340F\372"
  51      AC02347A 
  51      84EF6039 
  51      2675A005 
  51      66366F39 
  52 0176 0D697671 		.ascii	"\015ivq\277\252\275\220YAv\306\334\317\366\240V\213"
  52      BFAABD90 
  52      594176C6 
  52      DCCFF6A0 
  52      568B
  53 0188 1EBF4896 		.ascii	"\036\277H\226\222\247\317\242\366\362J;j\265\243\225"
  53      92A7CFA2 
  53      F6F24A3B 
  53      6AB5A395 
  54 0198 E6AB56BC 		.ascii	"\346\253V\274\\\230ny\336j6\333\265\030L\376\001\237"
  54      5C986E79 
  54      DE6A36DB 
  54      B5184CFE 
  54      019F
  55 01aa AE88B4   		.ascii	"\256\210\264"
  56              		.text
  57              		.section	.gnu.lto_test_wait_threads.b351366f209d4e36,"",%progbits
  58 0000 789C9552 		.ascii	"x\234\225R\277k\024A\024\376\276\231\235\335M0 6\266"
ARM GAS  /tmp/ccLwiMZb.s 			page 4


  58      BF6B1441 
  58      14FEBE99 
  58      9DDD4D30 
  58      2036B6
  59 0013 41B0D2BB 		.ascii	"A\260\322\273\305\306\316\312J\020,\222\023\255$.!n"
  59      C5C6CECA 
  59      4A102C92 
  59      13AD242E 
  59      216E
  60 0025 210797B3 		.ascii	"!\007\227\263\262\310l\356\204\210\030\202XDm\214)\264"
  60      B2C86CEE 
  60      84881882 
  60      58446D8C 
  60      29B4
  61 0037 106C050B 		.ascii	"\020l\005\013s\205\350\025*\351\024,\326B\253\374\001"
  61      7385E815 
  61      2AE9142C 
  61      D642ABFC 
  61      01
  62 0048 22C2FA66 		.ascii	"\"\302\372fg\367\222\330\371`g\346\375\372\336\367\336"
  62      67F792D8 
  62      F96067E6 
  62      FDFADEF7 
  62      DE
  63 0059 5B05857F 		.ascii	"[\005\205\177\345\262|\027\305\234\310\315\030T\033"
  63      E5B27C17 
  63      C59CC8CD 
  63      18541B
  64 0068 9F803C56 		.ascii	"\237\200<V\014\375C\253\340\375Y\330i3>\016{$\240\361"
  64      0CFD43AB 
  64      E0FD59D8 
  64      69333E0E 
  64      7B24A0F1 
  65 007c 66E3FDA3 		.ascii	"f\343\375\2438T\372\376\010\022\020\015f$ \"\235\035"
  65      3854FAFE 
  65      0812100D 
  65      66242022 
  65      9D1D
  66 008e C48AD281 		.ascii	"\304\212\322\201\011#\256\\\245\253\303\023\330\262"
  66      0923AE5C 
  66      A5ABC313 
  66      D8B2
  67 009c F641F1A3 		.ascii	"\366A\361\243,\370\310\356\014\237\332?eIf\024Nm\"%"
  67      2CF8C8EE 
  67      0C9FDA3F 
  67      65496614 
  67      4E6D2225 
  68 00b0 AE88C2D9 		.ascii	"\256\210\302\331\352R\301a\222\257\324NQ\226{o\177}"
  68      EA52C161 
  68      92AFD44E 
  68      51967B6F 
  68      7F7D
  69 00c2 5FE7B129 		.ascii	"_\347\261)b\201[\202g\220Q\307\265\"b0\264vc\266\321"
  69      62815B82 
  69      679051C7 
  69      B5226230 
  69      B47663B6 
ARM GAS  /tmp/ccLwiMZb.s 			page 5


  70 00d7 D3AAEEBC 		.ascii	"\323\252\356\274\234\302\254C%\227\036c\265\270\373"
  70      9CC2AC43 
  70      25971E63 
  70      B5B8FB
  71 00e6 2E5CE036 		.ascii	".\\\3406M\235\350\352M\012u\250!\355\350\217X\375\366"
  71      4D9DE8EA 
  71      4D0A75A8 
  71      21EDE88F 
  71      58FDF6
  72 00f9 E5D948F9 		.ascii	"\345\331H\371\300%\232\026NK\261'x\234[{4cp\033\277"
  72      C0259A16 
  72      4E4BB127 
  72      789C5B7B 
  72      3463701B 
  73 010e ED9A7B99 		.ascii	"\355\232{\231\233U\266C1\025\304\022\367\341>`\270\227"
  73      9B55B643 
  73      3115C412 
  73      F7E13E60 
  73      B897
  74 0120 9F9980B8 		.ascii	"\237\231\200\270 }\260\257\016\003\274i\351\317\030"
  74      207DB0AF 
  74      0E03BC69 
  74      E9CF18
  75 012f 16F7EE4C 		.ascii	"\026\367\356L\3738`\202\035\2465\226\344f\214\000\241"
  75      FB386082 
  75      1DA63596 
  75      E4668C00 
  75      A1
  76 0140 F57A737B 		.ascii	"\365zs{\267\246\325\302K+r\356\277\211\035\342\321\021"
  76      B7A6D5C2 
  76      4B2B72EE 
  76      BF891DE2 
  76      D111
  77 0152 B76F79B0 		.ascii	"\267oy\2606x\376\360B\3036\226\370j6.k\014upf\342m\222"
  77      3678FEF0 
  77      42C33696 
  77      F86A362E 
  77      6B0C7570 
  78 016a 43C8BEDD 		.ascii	"C\310\276\335\\\305\3228Yu\3763\217\032,\017\264\277"
  78      5CC5D238 
  78      5975FE33 
  78      8F1A2C0F 
  78      B4BF
  79 017c D4AF603D 		.ascii	"\324\257`=v\365B\013\230\331\234rX\221[\321.\362b\375"
  79      76F5420B 
  79      98D99C72 
  79      58915BD1 
  79      2EF262FD 
  80 0190 64330B2F 		.ascii	"d3\013/\363\0029\230q?\357\251v;9\177#\273\236]\232"
  80      F3023998 
  80      713FEFA9 
  80      763B397F 
  80      23BB9E5D 
  81 01a5 4BFA8BCB 		.ascii	"K\372\213\313\375\244\327O\226\273\267z\351\242W\335"
  81      FDA4D74F 
  81      96BBB77A 
  81      E9A257DD 
ARM GAS  /tmp/ccLwiMZb.s 			page 6


  82 01b5 71ADD7ED 		.ascii	"q\255\327\355\366\333)\230\375\005\275\272\230Z"
  82      F6DB2998 
  82      FD05BDBA 
  82      985A
  83              		.text
  84              		.section	.gnu.lto_test_wait_tick.b351366f209d4e36,"",%progbits
  85 0000 789C8D53 		.ascii	"x\234\215SOH\024Q\030\377\276\231]g\265\002\257V\330"
  85      4F481451 
  85      18FFBE99 
  85      5D67B502 
  85      AF56D8
  86 0013 260485B1 		.ascii	"&\004\205\261/\225\350ZX\007\301%p7\250K\313\3548\271"
  86      2F95E85A 
  86      5807C125 
  86      7037A84B 
  86      CBEC38B9 
  87 0027 03BB8ECC 		.ascii	"\003\273\216\314\214\213\322\301Y\335C\024\304\"D\221"
  87      8C8BD2C1 
  87      59DD4314 
  87      C4224491 
  88 0037 885956E8 		.ascii	"\210YV\350\301\210(\272\004[\247\202\334\245:\231\227"
  88      C18828BA 
  88      045BA782 
  88      DCA53A99 
  88      97
  89 0048 25E96004 		.ascii	"%\351`\004)\004\205\211\333\367flt\0271\037\274y\177"
  89      29048589 
  89      DBF7666C 
  89      7417311F 
  89      BC797F
  90 005b BE7FBFEF 		.ascii	"\276\177\277\357\367{#\200\000\325\243\201\3469\021"
  90      F77B2380 
  90      00D5A381 
  90      E63911
  91 006a E00A02A0 		.ascii	"\340\012\002\240\010(\344\012\000\231\200\200\3107\200"
  91      0828E40A 
  91      00998080 
  91      C83780
  92 0079 3024E0D0 		.ascii	"0$\340\320%t|\237\010\371R\271<\373\342\372\324\032"
  92      25747C9F 
  92      08F952B9 
  92      3CFBE2FA 
  92      D41A
  93 008b 4E0B920F 		.ascii	"N\013\222\0174\347\336\017Y\333\316\005\001\024\347"
  93      34E7DE0F 
  93      59DBCE05 
  93      0114E7
  94 009a 18A52F8F 		.ascii	"\030\245/\217\275\200\002_\305\"dK\343\017%\031'\321"
  94      BD80025F 
  94      C522644B 
  94      E30F2519 
  94      27D1
  95 00ac 4FE6ABB0 		.ascii	"O\346\253\260j_\263\3535D\005\335\264\027\221\362 %"
  95      6A5FB3EB 
  95      354405DD 
  95      B41791F2 
  95      2025
ARM GAS  /tmp/ccLwiMZb.s 			page 7


  96 00be 2374EF60 		.ascii	"#t\357`8\000\320\004\223\266=Zz5=\367\032GG\354\267"
  96      3800D004 
  96      93B63D5A 
  96      7A353DF7 
  96      1A4747EC 
  97 00d3 76365F2E 		.ascii	"v6_.\343!\015E\001.#\257\303c|Ag\361\373*;\342w\"\241"
  97      E3210D45 
  97      012E23AF 
  97      C3637C41 
  97      67F1FB2A 
  98 00ec 81020CAF 		.ascii	"\201\002\014\257\274\037y\264\337\303\347n\362\177>"
  98      BC1F79B4 
  98      DFC3E76E 
  98      F27F3E
  99 00fb 8E894765 		.ascii	"\216\211Ge|\200M\036\370\374\342\255\337{\016z\247\245"
  99      7C804D1E 
  99      F8FCE2AD 
  99      DF7B0E7A 
  99      A7A5
 100 010d DBAB92D7 		.ascii	"\333\253\222\327\227\013&\277R\274\331`\337\033\316"
 100      970B26BF 
 100      52BCD960 
 100      DF1BCE
 101 011c D9EB0485 		.ascii	"\331\353\004\205\000\013\260\200\377\203\342%\274Ql"
 101      000BB080 
 101      FF83E225 
 101      BC516C
 102 012b 05701950 		.ascii	"\005p\031P\320\021A!\262\025\364\321\344\244\000'`\221"
 102      D0114121 
 102      B215F4D1 
 102      E4A40027 
 102      6091
 103 013d AEC826BA 		.ascii	"\256\310&\272*5\302O\034\267\357\234\326\260\246\242"
 103      2A35C24F 
 103      1CB7EF9C 
 103      D6B0A6A2 
 104 014d AB4DFBAF 		.ascii	"\253M\373\257\015\273\344\226\232\2037\237\277\227\227"
 104      0DBBE496 
 104      9A83379F 
 104      BF9797
 105 015c 8E55B7FB 		.ascii	"\216U\267\373\374\361\202\270\245\263y\2573\373\307"
 105      FCF182B8 
 105      A5B379AF 
 105      33FBC7
 106 016b C4018E6A 		.ascii	"\304\001\216j\332AUCS\242\031\340\271z\320\327\0143"
 106      DA415543 
 106      53A219E0 
 106      B97AD0D7 
 106      0C33
 107 017d 7636532A 		.ascii	"v6S*\027\013\367\221j\007\306\340n&\307u\253\345P\352"
 107      170BF791 
 107      6A07C6E0 
 107      6E26C775 
 107      ABE550EA 
 108 0191 6C1A3E07 		.ascii	"l\032>\007U\235S=\316\265\224\361\231\333\016\311\270"
 108      559D533D 
 108      CEB594F1 
ARM GAS  /tmp/ccLwiMZb.s 			page 8


 108      99DB0EC9 
 108      B8
 109 01a2 BCFA757D 		.ascii	"\274\372u}\036\335\3542\3168dW\353\273T\250\326W\306"
 109      1EDDEC32 
 109      CE386457 
 109      EBBB54A8 
 109      D657C6
 110 01b5 29E26717 		.ascii	")\342g\027\002\303N\002\177\033\347\002\277\254\024"
 110      02C34E02 
 110      7F1BE702 
 110      BFAC14
 111 01c4 78625FE3 		.ascii	"xb_\343\226\267\352\361\261&mrP\353*S\267\215*2\316"
 111      96B7EAF1 
 111      B1266D72 
 111      50EB2A53 
 111      B78D2A32 
 112 01d9 D2C62BFD 		.ascii	"\322\306+\375O\005\031\237b\243\013\353\003d\226\277"
 112      4F05199F 
 112      62A30BEB 
 112      036496BF 
 113 01e9 7CDAEBAA 		.ascii	"|\332\353\252L\004\272\267Qz$\364\027p\347\346P\210"
 113      4C04BAB7 
 113      517A24F4 
 113      1770E7E6 
 113      5088
 114 01fb B527B4B8 		.ascii	"\265'\264\270v>\302,\325\264\230a1S\3577\024\325=\362"
 114      763EC22C 
 114      D5B49861 
 114      3153EF37 
 114      14D53DF2 
 115 020f 4FCCD075 		.ascii	"O\314\320u+\244\000\333\342\253\233L\321S)\275\227\365"
 115      2BA400DB 
 115      E2AB9B4C 
 115      D15329BD 
 115      97F5
 116 0221 E98665B2 		.ascii	"\351\206e\2623]\341\366\360\000S\022\212n\250\261\364"
 116      335DE1F6 
 116      F0005312 
 116      8A6EA8B1 
 116      F4
 117 0232 A9542801 		.ascii	"\251T(\001\376\264\234\354W\333\266\215R\007,\326\036"
 117      FEB49CEC 
 117      57DBB68D 
 117      52072CD6 
 117      1E
 118 0243 8E744498 		.ascii	"\216tD\230\326\253$\373\273U\246\244L\315\214\365(\012"
 118      D6AB24FB 
 118      BB55A6A4 
 118      4CCD8CF5 
 118      280A
 119 0255 451EAE8C 		.ascii	"E\036\256\214!L\236W\302\0344\311#\270\203G\332\"\007"
 119      214C9E57 
 119      C21C34C9 
 119      23B88347 
 119      DA2207
 120 0268 89FC2C2D 		.ascii	"\211\374,-\245\326\207#]\301\270l\252}\206v<x\344\004"
 120      A5D68723 
ARM GAS  /tmp/ccLwiMZb.s 			page 9


 120      5DC1B86C 
 120      AA7D8676 
 120      3C78E404 
 121 027c 08064829 		.ascii	"\010\006H)5\245\033\203p\2622IBNnt\023\211\206\333Z"
 121      35A51B83 
 121      70B23249 
 121      424E6E74 
 121      138986DB 
 122 0291 5967E759 		.ascii	"Yg\347Y\026\355\010\247[\270%F<$\223\335\224\271e\327"
 122      16ED08A7 
 122      5BB82546 
 122      3C2493DD 
 122      94B965D7 
 123 02a5 34F0FA06 		.ascii	"4\360\372\006E\374\005}\236I\221"
 123      45FC057D 
 123      9E4991
 124              		.text
 125              		.section	.gnu.lto_.symbol_nodes.b351366f209d4e36,"",%progbits
 126 0000 789C4DCD 		.ascii	"x\234M\3159\016\302@\020D\321\236?\036\366%\000\316"
 126      390EC240 
 126      1044D19E 
 126      3F1EF625 
 126      00CE
 127 0012 DB964888 		.ascii	"\333\226H\210\300\354\273\331\022N\303\031@\334\201"
 127      C0ECBBD9 
 127      124EC319 
 127      40DC81
 128 0021 10E19611 		.ascii	"\020\341\226\021\246\223\247*\225\324\010\362\220\357"
 128      A693A72A 
 128      95D408F2 
 128      90EF
 129 002f 31414592 		.ascii	"1AE\222\233\210j:p!A\202\012S\324\025-3\224\277\321"
 129      9B886A3A 
 129      70214182 
 129      0A53D415 
 129      2D3394BF 
 130 0044 18978DC2 		.ascii	"\030\227\215\302\010\214!\336\230\023I\306\202`,)\031"
 130      088C21DE 
 130      981349C6 
 130      82602C29 
 130      19
 131 0055 2BCAC69A 		.ascii	"+\312\306\232\212\261\241jl\251\031;\352\306\236\206"
 131      8AB1A16A 
 131      6CA9193B 
 131      EAC69E86 
 132 0065 91D2340E 		.ascii	"\221\3224\016\264\214#\355\014wB}\3767\216\235;\243"
 132      B48C23ED 
 132      0C77427D 
 132      FE378E9D 
 132      3BA3
 133 0077 51912E68 		.ascii	"Q\221.h\370%/\035y^_%O7\327\367\244\177\177;\371\000"
 133      F8252F1D 
 133      795E5F25 
 133      4F37D7F7 
 133      A47F7F3B 
 134 008d EB2C34E8 		.ascii	"\353,4\350"
 135              		.text
ARM GAS  /tmp/ccLwiMZb.s 			page 10


 136              		.section	.gnu.lto_.refs.b351366f209d4e36,"",%progbits
 137 0000 789C35C2 		.ascii	"x\2345\302\211\015\300 \020\304\300=\213?\204\257\023"
 137      890DC020 
 137      10C4C03D 
 137      8B3F84AF 
 137      13
 138 0011 FA6F2E91 		.ascii	"\372o.\221\020\036#\264u\262\177\220\231y\207\277j "
 138      101E23B4 
 138      75B27F90 
 138      997987BF 
 138      6A20
 139 0023 92C8141E 		.ascii	"\222\310\024\036*/\215\316`\262\364\001\035\027\001"
 139      2A2F8DCE 
 139      60B2F401 
 139      1D1701
 140 0032 2B       		.ascii	"+"
 141              		.text
 142              		.section	.gnu.lto_.decls.b351366f209d4e36,"",%progbits
 143 0000 789CBD9B 		.ascii	"x\234\275\233{p\024U\272\300\273{&\231\231$\"\017\265"
 143      7B701455 
 143      BAC0BB7B 
 143      26999924 
 143      220FB5
 144 0013 704BD7E0 		.ascii	"pK\327\340\256{\257\273\027&\011\240xkKq\203\245V\311"
 144      AE7BAFBB 
 144      172609A0 
 144      786B4B71 
 144      83A556C9 
 145 0027 2E95E0BD 		.ascii	".\225\340\275Vm\335;\333L\0322\227ydg:\004\352\376a"
 145      566DDD3B 
 145      DB4C1A32 
 145      97796467 
 145      3A04EAFE 
 146 003c 27A020A2 		.ascii	"'\240 \242&\200\022\236\031\004\004\237\274\224\020"
 146      2680129E 
 146      1904049F 
 146      BC9410
 147 004b 79F5BA08 		.ascii	"y\365\272\010\341\015\341\271d\227L\241\"R^\226%\006"
 147      E10DE1B9 
 147      64974CA1 
 147      22525E96 
 147      2506
 148 005d 441EB9DF 		.ascii	"D\036\271\3379\335=\335\247\347\364Lw(w\252\316IO\367"
 148      39DD3DDD 
 148      A7E7F44C 
 148      772877AA 
 148      CE494FF7 
 149 0071 39BFF39D 		.ascii	"9\277\363\235\357\373\3169\3379\235\341\030\216\231"
 149      EFFBCE39 
 149      DF399DE1 
 149      188E99
 150 0080 CF324C2F 		.ascii	"\3172L/|\016\374\232a\366\0260\214\233a\230\307!\301"
 150      7C0EFC9A 
 150      61F61630 
 150      8C9B6198 
 150      C721C1
 151 0093 6D6639A3 		.ascii	"mf9\243|\362!\275\017i-\244\015\2206A\232\014\005b\220"
ARM GAS  /tmp/ccLwiMZb.s 			page 11


 151      7CF221BD 
 151      0F692DA4 
 151      0D903641 
 151      9A0C0562 
 152 00a8 FAC37502 		.ascii	"\372\303u\002\376\326A\252\207\364:\244w!}\000i-\244"
 152      FED641AA 
 152      87F43AA4 
 152      77217D00 
 152      692DA4
 153 00bb 0D903E81 		.ascii	"\015\220>\201\264\031\322\026H\333!\375\011\322NH\273"
 153      B419D216 
 153      48DB21FD 
 153      09D24E48 
 153      BB
 154 00cc 21ED6519 		.ascii	"!\355e\031\342\203\332\361B\312\203\324\017R\021\244"
 154      E283DAF1 
 154      42CA83D4 
 154      0F5211A4 
 155 00dc 36482294 		.ascii	"6H\"\224\333\017\351\000\244V\265,\247\226\337\244\312"
 155      DB0FE900 
 155      A456B52C 
 155      A796DFA4 
 155      CA
 156 00ed 9B30B1D6 		.ascii	"\2330\261\326\346`\035\204\024fu\326Z\265_4\026\352"
 156      E6601D84 
 156      146675D6 
 156      5AB55F34 
 156      16EA
 157 00ff 77A1AA93 		.ascii	"w\241\252\223C\360\254\006\322*\003\3670|\357\200t\014"
 157      43F0AC06 
 157      D22A03F7 
 157      307CEF80 
 157      740C
 158 0111 D271481E 		.ascii	"\322qH\036N\341|\313*\365P}\244//\334/\204\324\017\322"
 158      4EE17CCB 
 158      2AF5507D 
 158      A42F2FDC 
 158      2F84D40F 
 159 0126 00483F81 		.ascii	"\000H?\201t?\244bH?\203\364\013\216\311\370\370\230"
 159      743FA462 
 159      483F83F4 
 159      0B8EC9F8 
 159      F898
 160 0138 5992D420 		.ascii	"Y\222\324 %_\226\236i\207\366^`y\266\237\217)\306\027"
 160      255F969E 
 160      6987F65E 
 160      6079B69F 
 160      8F29C617 
 161 014c 453E6CB2 		.ascii	"E>l\262\207\230\225\222\324\230\372j\321\335\222\233"
 161      87989592 
 161      D498FA6A 
 161      D1DD929B 
 162 015c 6797B33E 		.ascii	"g\227\263>\350\320\303,\363K\346]\011\356K\322\331\237"
 162      E8D0C32C 
 162      F34BE65D 
 162      09EE4BD2 
 162      D99F
ARM GAS  /tmp/ccLwiMZb.s 			page 12


 163 016e 64621D70 		.ascii	"db\035p{\336\235\363o\222\344\345\331U\230\374\021\313"
 163      7BDE9DF3 
 163      6F92E4E5 
 163      D95598FC 
 163      11CB
 164 0180 323CBB92 		.ascii	"2<\273\222\375\245cP\327\253[\037\303\2405\030\264\225"
 164      FDA56350 
 164      D7AB5B1F 
 164      C3A03518 
 164      B495
 165 0192 23413CEB 		.ascii	"#A<\353\361\031%\304\337\265\002\210\206\037\253\027"
 165      F11925C4 
 165      DFB50288 
 165      861FAB17 
 166 01a2 C86DEF64 		.ascii	"\310m\357d~\344\342\0170\313\244d*\325r\242\207_(\311"
 166      7EE4E20F 
 166      30CBA464 
 166      2AD572A2 
 166      875F28C9 
 167 01b6 33A4DEDE 		.ascii	"3\244\336\336\027\231{\2307A\253\250\273\022+\362\354"
 167      17997B98 
 167      3741ABA8 
 167      BB122BF2 
 167      EC
 168 01c7 E377537B 		.ascii	"\343wS{\214\370\037\260\367\250W\317\2734?\3536\365"
 168      8CF81FB0 
 168      F7A857CF 
 168      BB343FEB 
 168      36F5
 169 01d9 196CCEAC 		.ascii	"\031l\316\254B<i\215\344\3024T\376}\366\001R\324\017"
 169      423C698D 
 169      E4C23454 
 169      FE7DF601 
 169      52D40F
 170 01ec 59C23314 		.ascii	"Y\3023\024\271\344\033\273\213\032\353S\275\275\017"
 170      B9E41BBB 
 170      8B1AEB53 
 170      BDBD0F
 171 01fb 286D71CC 		.ascii	"(mq\314l\227\035\372Z3}\035\225\336\272\367\265{\245"
 171      6C971DFA 
 171      5A337D1D 
 171      95DEBAF7 
 171      B57BA5
 172 020e 6483DCDB 		.ascii	"d\203\334\333\373\204\271\323\310\305\254z\275\221\322"
 172      FB84B9D3 
 172      C8C5AC7A 
 172      BD91D2
 173 021d EB2574B9 		.ascii	"\353%t\271\032\244\015k$\237\202C\0256\200`t,~\374q"
 173      1AA40D6B 
 173      249F8243 
 173      15368060 
 173      742C7EFC 
 174 0232 A698A9C6 		.ascii	"\246\230\251\306Tk\347\325\351l\323\364d\273t\011\331"
 174      546BE7D5 
 174      E96CD3F4 
 174      64BB7409 
 174      D9
ARM GAS  /tmp/ccLwiMZb.s 			page 13


 175 0243 CCBE795A 		.ascii	"\314\276yZUA]x\370\3038\235\255\273\361@\246\011Q\212"
 175      55415D78 
 175      F8C3389D 
 175      ADBBF140 
 175      A609518A 
 176 0257 0D0E9D74 		.ascii	"\015\016\235tk\2001\214>\344Z\356GC\356Sv @\216\230"
 176      6B80318C 
 176      3EE45AEE 
 176      4743EE53 
 176      7620408E 
 177 026c 7A9913C2 		.ascii	"z\231\023\3021\247q\225mP]\251\210\261Rja\313\337\032"
 177      31A77195 
 177      6D505DA9 
 177      88B1526A 
 177      61CBDF1A 
 178 0280 D87AE881 		.ascii	"\330z\350\201\362\2141)\317\360\031\302$\241\202|u\357"
 178      F28C3129 
 178      CFF019C2 
 178      24A1827C 
 178      75EF
 179 0292 12564A7E 		.ascii	"\022VJ~\306R\232\034\255\265\350\325\305~\351B\273\033"
 179      C6529A1C 
 179      ADB5E8D5 
 179      C57EE942 
 179      BB1B
 180 02a4 0FC43F61 		.ascii	"\017\304?a\301g\272\251\202'G[a8f\001\256\2623C\360"
 180      C167BAA9 
 180      8227475B 
 180      61386601 
 180      AEB23343 
 181 02b9 AE439AE0 		.ascii	"\256C\232\340;m\010\336 \037\231\275\364^$8\317\266"
 181      3B6D08DE 
 181      201F99BD 
 181      F45E2438 
 181      CFB6
 182 02cb B185C05D 		.ascii	"\261\205\300]\223\346\322\314\246^*\037\265\000\311"
 182      93E6D2CC 
 182      A65E2A1F 
 182      B500C9
 183 02da EBD85BD4 		.ascii	"\353\330[\324\310k\260\017\035\303\212i\242j\376\247"
 183      C86BB00F 
 183      1DC38A69 
 183      A26AFEA7 
 184 02ea F7966777 		.ascii	"\367\226gw\261\017A\276\233\035\002\371\036\310\323"
 184      B10F41BE 
 184      9B1D02F9 
 184      1EC8D3
 185 02f9 1F8ED9E0 		.ascii	"\037\216\331\340\326lJS]\356.\\\333\273\004\253\304"
 185      D66C4A53 
 185      5DEE2E5C 
 185      DBBB04AB 
 185      C4
 186 030a FEBCFA8F 		.ascii	"\376\274\372\217/\344\301\333$\251?\317\036\300\023"
 186      2FE4C1DB 
 186      24A93FCF 
 186      1EC013
 187 0319 6BB7DB3C 		.ascii	"k\267\333<\261\256b\035\317\254\034s\335\334\021\232"
ARM GAS  /tmp/ccLwiMZb.s 			page 14


 187      B1AE621D 
 187      CFAC1C73 
 187      DDDC119A 
 188 0329 FABC561D 		.ascii	"\372\274V\035A\316pf.;o\272\324^\2429T\276UG8F\312C"
 188      41CE7066 
 188      2E3B6FBA 
 188      D45EA239 
 188      54BE5547 
 189 0341 8D75981D 		.ascii	"\215u\230\035j\313\205\366\207\233q\327:l\371\323'{"
 189      6ACB85F6 
 189      879B71D7 
 189      3A6CF9D3 
 189      277B
 190 0353 1760E5E5 		.ascii	"\027`\345\345\034\315\234\326\374\317q\363m\270\371"
 190      1CCD9CD6 
 190      FCCF71F3 
 190      6DB8F9
 191 0362 93E6E617 		.ascii	"\223\346\346\027_l\377\275\322\374I[\315\267\235\234"
 191      5F6CFFBD 
 191      D2FC495B 
 191      CDB79D9C 
 192 0372 9FD9BCE5 		.ascii	"\237\331\274\345,\244\232o\313\205\363\367\265\340F"
 192      2CA49A6F 
 192      CB85F3F7 
 192      B5E046
 193 0381 3AB1DBF6 		.ascii	":\261\333\366\344\231\315\367D!i=\370n(\3001\267\322"
 193      E499CDF7 
 193      4421693D 
 193      F86E28C0 
 193      31B7D2
 194 0394 D2F769D4 		.ascii	"\322\367i\324@7\317\377\327\273\033$\351\225|M\206\372"
 194      4037CFFF 
 194      D7BB1B24 
 194      E9957C4D 
 194      86FA
 195 03a6 7CA7C462 		.ascii	"|\247\304bB\021[O\342q\250\300f\330\201Y:R\203\274\335"
 195      42115B4F 
 195      E271A8C0 
 195      66D88159 
 195      3A5283BC 
 196 03bb 089BE918 		.ascii	"\010\233\351\030FJv\330\010\233m\007\326\337Z\262\016"
 196      464A76D8 
 196      089B6D07 
 196      D6DF5AB2 
 196      0E
 197 03cc 23EC35C7 		.ascii	"#\3545\3070R\262cFX\243\035\330`k\311N\030a\363\035"
 197      3052B263 
 197      4658A31D 
 197      D8606BC9 
 197      4E1861F3 
 198 03e1 C348C94E 		.ascii	"\303H\311N\031a\315v`\305\024\311\322\037\253\025\371"
 198      1961CD76 
 198      60C514C9 
 198      D21FAB15 
 198      F9
 199 03f2 049BF673 		.ascii	"\004\233\366s\216Y\234\257M\010\016}\232\321\031\313"
 199      8E599CAF 
ARM GAS  /tmp/ccLwiMZb.s 			page 15


 199      4D080E7D 
 199      9AD119CB 
 200 0402 F29DCE60 		.ascii	"\362\235\316`D\277a\006\353z[\231\301\264%\345m;\304"
 200      44BF6106 
 200      EB7A5B99 
 200      C1B425E5 
 200      6D3BC4
 201 0415 2C0ED3B8 		.ascii	",\016\323\270\317\260>\255q\014#\315\262\014\301\210"
 201      CFB03EAD 
 201      710C23CD 
 201      B20CC188 
 202 0425 A9465D33 		.ascii	"\251F]3R\253\344\301\315\372d\347\325XhO\242\314l\260"
 202      52ABE4C1 
 202      CDFA64E7 
 202      D558684F 
 202      A2CC6CB0 
 203 0439 2BE0D285 		.ascii	"+\340\322\205\245\301\203\351ey\366{\274\316]S\227\017"
 203      A5C183E9 
 203      6579F67B 
 203      BCCE5D53 
 203      970F
 204 044b F448B9D6 		.ascii	"\364H\271\326\256zY\244\347\217\362M\033&\355\223\253"
 204      AE7A59A4 
 204      E78FF24D 
 204      1B26ED93 
 204      AB
 205 045c AA95275C 		.ascii	"\252\225'\\1z\302F;j\3122\024\016[\251I~Y\232\305\326"
 205      317AC246 
 205      3B6ACA32 
 205      140E5BA9 
 205      497E599A 
 206 0472 AFBF2F6B 		.ascii	"\257\277/k\254\004\263\363\375\357\341\331\371\026^"
 206      AC04B3F3 
 206      FDEFE1D9 
 206      F9165E
 207 0481 5C37E753 		.ascii	"\\7\347S\267?\266X=\327\324\235T=\207P\177\356;*\331"
 207      B73FB658 
 207      3DD7D49D 
 207      543D8750 
 207      7FEE3B2A 
 208 0496 B5EF3E14 		.ascii	"\265\357>\024y\316\300\240\375\371\346\025\303gZ\357"
 208      79CEC0A0 
 208      FDF9E615 
 208      C3675AEF 
 209 04a6 7DE47AEF 		.ascii	"}\344z\357\363\351\027\275\332\207\264\341\217Z\307"
 209      F3E917BD 
 209      DA87B4E1 
 209      8F5AC7
 210 04b5 CAEE378D 		.ascii	"\312\3567\215v?\351\330\356\304\360H5w]\341\026Hr\275"
 210      763FE9D8 
 210      EEC4F048 
 210      35775DE1 
 210      164872BD 
 211 04c9 CBE0E859 		.ascii	"\313\340\350YG\005\212\244\316\237d\247\343\370\365"
 211      47058AA4 
 211      CE9F64A7 
 211      E3F8F5
ARM GAS  /tmp/ccLwiMZb.s 			page 16


 212 04d8 15ACD933 		.ascii	"\025\254\3313t\023\331@\365|s\232\303\266\236\203A_"
 212      7413D940 
 212      F57C739A 
 212      C3B69E83 
 212      415F
 213 04ea F719D4F5 		.ascii	"\367\031\324\365\352\262Q\030\364\006\006\375=\303\326"
 213      EAB25118 
 213      F40606FD 
 213      3DC3D6
 214 04f9 E6D88E25 		.ascii	"\346\330\216%m\220\036t\352\230\373\261\312r\3145\263"
 214      6D901E74 
 214      EA98FBB1 
 214      CA72CC35 
 214      B3
 215 050a C188EE64 		.ascii	"\301\210\356dY\031\322\323\355\215\271lw\203\324\\\342"
 215      5919D2D3 
 215      ED8DB96C 
 215      7783D45C 
 215      E2
 216 051b C46229CD 		.ascii	"\304b)\315b\363\261~z3\364\203\014\340\254#3=N;\342"
 216      62F3B17E 
 216      7A33F483 
 216      0CE0AC23 
 216      333D4E3B 
 217 0530 253BD2D2 		.ascii	"%;\322\322\333\207\216\\\322:\262\020w\3445\317\355"
 217      DB878E5C 
 217      D23AB210 
 217      77E435CF 
 217      ED
 218 0541 77E44DC7 		.ascii	"w\344M\307\035\351o\350\010\336\317\315W\026\300A\314"
 218      1DE96FE8 
 218      08DECFCD 
 218      5716C041 
 218      CC
 219 0552 DCEC213C 		.ascii	"\334\354!<\222g\0317\210\210\237\345\343\007\331b\345"
 219      92671937 
 219      88889FE5 
 219      E307D962 
 219      E5
 220 0563 76EE3D6C 		.ascii	"v\356=l\367A\303\276G\262\267\357iW\367=\313\261\306"
 220      F741C3BE 
 220      47B2B7EF 
 220      6957F73D 
 220      CBB1C6
 221 0576 16792863 		.ascii	"\026y(c\314\016)\331\363!\222s%\246$\373JIu\355kUF\352"
 221      CC0E29D9 
 221      F3219273 
 221      25A624FB 
 221      4A4975ED 
 222 058e 6A0C5A93 		.ascii	"j\014Z\223a\300|\223\375\362I\373\301W\324\322\367x"
 222      61C07C93 
 222      FDF249FB 
 222      C157D4D2 
 222      F778
 223 05a0 927C51BD 		.ascii	"\222|Q\275\203\276x\230\177z=\330\307b\361\221\355\034"
 223      83BE7898 
 223      7F7A3DD8 
ARM GAS  /tmp/ccLwiMZb.s 			page 17


 223      C762F191 
 223      ED1C
 224 05b2 06609AEF 		.ascii	"\006`\232\357\264|9O\013\236\024\373\264\335\026\261"
 224      B47C394F 
 224      0B9E14FB 
 224      B4DD16B1 
 225 05c2 416E7943 		.ascii	"AnyC;,x\002\205O\237\335&n\353!s\\`\332\266}j\261\364"
 225      3B2C7802 
 225      854F9FDD 
 225      266EEB21 
 225      735C60DA 
 226 05db 68A7285F 		.ascii	"h\247(_\244\224\031~=\207\304\331\223a\3566\326\264"
 226      A494197E 
 226      3D87C4D9 
 226      9361EE36 
 226      D6B4
 227 05ed 6F43370C 		.ascii	"oC7\014E\254\206\321:\316\260\012\376\365v\315\320\325"
 227      45AC86D1 
 227      3ACEB00A 
 227      FEF576CD 
 227      D0D5
 228 05ff 6332C3D9 		.ascii	"c2\303\331\333\324\3335\325\014\271\366\330\177\320"
 228      DBD4DB35 
 228      D50CB9F6 
 228      D87FD0
 229 060e 5845B823 		.ascii	"XE\270#\027p\263m\234i\213\335\325\233z\231m\300\363"
 229      1770B36D 
 229      9C698BDD 
 229      D59B7A99 
 229      6DC0F3
 230 0621 1E7A967B 		.ascii	"\036z\226{\236\350\374\312'\315-R\316\256xv\037\313"
 230      9EE8FCCA 
 230      27CD2D52 
 230      CEAE7876 
 230      1FCB
 231 0633 A9545AB0 		.ascii	"\251TZ\260\224S=\362\031\241\275\304\311\214s^\235q"
 231      94533DF2 
 231      19A1BDC4 
 231      C98C735E 
 231      9D71
 232 0645 B663552E 		.ascii	"\266cU.\364\232m\276\322<G;\032s-^\226\354\215\335\235"
 232      F49A6DBE 
 232      D23C473B 
 232      1A732D5E 
 232      96EC8DDD 
 233 065a 72FA63E5 		.ascii	"r\372c\345S\233\215>\265\302{[\036\000>\265k\245\342"
 233      539B8D3E 
 233      B5C27B5B 
 233      1E003EB5 
 233      6BA5E2
 234 066d 53B97C40 		.ascii	"S\271|@b\215\373\030\216y\017\267\374\271\331\011N\256"
 234      628DFB18 
 234      8E790FB7 
 234      FCB9D909 
 234      4EAE
 235 067f D833533D 		.ascii	"\3303S=7\374\334\226\023\364P\234\340\363>:\001x\364"
 235      37FCDC96 
ARM GAS  /tmp/ccLwiMZb.s 			page 18


 235      13F4509C 
 235      E0F33E3A 
 235      0178F4
 236 0692 377B588C 		.ascii	"7{X\214S\366e\307\323B:\264\202\212\273!8U\214\342^"
 236      53F665C7 
 236      D3423AB4 
 236      828ABB21 
 236      38558CE2 
 237 06a7 F25FBE42 		.ascii	"\362_\276B\313\320\001\016\035\312vf\270\226\242\031"
 237      CBD0010E 
 237      1DCA7666 
 237      B896A219 
 238 06b7 836BE96A 		.ascii	"\203k\351j\344\331\335\034\332\250\265s\370@\022\347"
 238      E4D9DD1C 
 238      DAA8B573 
 238      F84012E7 
 239 06c7 FB38C3B1 		.ascii	"\3738\303\261\244\225[\354\327\335\002j\233\325hw\273"
 239      A4955BEC 
 239      D7DD026A 
 239      9BD56877 
 239      BB
 240 06d8 9CB3999D 		.ascii	"\234\263\231\235F\357\373\3426\275\257\271\353\240\033"
 240      46EFFBE2 
 240      36BDAFB9 
 240      EBA01B
 241 06e7 BD8E7139 		.ascii	"\275\216q99!=\245\216\333\016<n/d(\267O'\244W\372\332"
 241      39213DA5 
 241      8EDB0E3C 
 241      6E2F6428 
 241      B74F27A4 
 242 06fe 93F48763 		.ascii	"\223\364\207cnzm\354r\212)JO/\263'\346\333<eU\225\261"
 242      6E7A6DEC 
 242      728A294A 
 242      4F2FB327 
 242      E6DB3C65 
 243 0715 EA9CAC9C 		.ascii	"\352\234\254\234\376\237\302\216\326k\322\205\215\303"
 243      FE9FC28E 
 243      D66BD285 
 243      8DC3
 244 0723 DAD77DA8 		.ascii	"\332\327}\250J\247y\024/l\331\257\235\376w\332\030\305"
 244      4AA77914 
 244      2F6CD9AF 
 244      9DFE77DA 
 244      18C5
 245 0735 0DF246E2 		.ascii	"\015\362F\342\364_s\300\316\354\016\230U\237\204\011"
 245      F45F73C0 
 245      CEEC0E98 
 245      559F8409 
 246 0745 3B0DE3E3 		.ascii	";\015\343\343ox|\2341\216\011\216Y\346\263\241\373\177"
 246      6F787C9C 
 246      318E098E 
 246      59E6B3A1 
 246      FB7F
 247 0757 B5F24498 		.ascii	"\265\362D\230\205:\224\327.\332\213\224w\314<\332<D"
 247      853A94D7 
 247      2EDA8B94 
 247      77CC3CDA 
ARM GAS  /tmp/ccLwiMZb.s 			page 19


 247      3C44
 248 0769 F08CB66C 		.ascii	"\360\214\266l\220\033\217\342\323!\305G\327\332\021"
 248      901B8FE2 
 248      D321C547 
 248      D7DA11
 249 0778 AEC41AD6 		.ascii	"\256\304\032\3262OS\356N\034\237l\266\303\033e\325\331"
 249      324F53EE 
 249      4E1C9F6C 
 249      B6C31B65 
 249      D5D9
 250 078a 06B9F5E8 		.ascii	"\006\271\365\350\022\225\247\274e\220\035\363H\371\216"
 250      1295A7BC 
 250      65901DF3 
 250      48F98E
 251 0799 CF23A2B9 		.ascii	"\317#\242\271=vp\243m\333^\177\247\306\263;\360!\226"
 251      3D7670A3 
 251      6DDB5E7F 
 251      A7C6B33B 
 251      F02196
 252 07ac 8C5FD6EC 		.ascii	"\214_\326\354\307\371\021\234\377\003\347\3358\357\301"
 252      C7F9119C 
 252      FF03E7DD 
 252      38EFC1
 253 07bb F90D9CCF 		.ascii	"\371\015\234\317\302\363\347<\2347\343|)\316O\342<\205"
 253      C2F3E73C 
 253      9C37E37C 
 253      29CE4FE2 
 253      3C85
 254 07cd F3B338   		.ascii	"\363\2638"
 255 07d0 FF12E7E7 		.ascii	"\377\022\347\347p~\336\316|k\212\000\365\227\244\330"
 255      707EDECE 
 255      7C6B8A00 
 255      F597A4D8 
 256 07e0 1F0FF9CC 		.ascii	"\037\017\371\314\357I\225B\0278\352\233\317\305W\346"
 256      EF499542 
 256      1738EA9B 
 256      CFC557E6 
 257 07f0 59BFF944 		.ascii	"Y\277\371D\261\236\225\024\337r\304\253OM,B\2263\026"
 257      B19E9514 
 257      DF72C4AB 
 257      4F4D2C42 
 257      963316
 258 0803 B25CA4C9 		.ascii	"\262\\\244\311\"7\315\235s\257\264\234\372\2628\313"
 258      2237CD9D 
 258      73AFB49C 
 258      FAB238CB 
 259 0813 2BD84B66 		.ascii	"+\330Kf9\226\343\035-!\307y\0139.\223r<\310,\227R\207"
 259      3996E31D 
 259      2D21C779 
 259      0B392E93 
 259      723CC82C 
 260 082a 532D27CE 		.ascii	"S-'\316\255ga\376j\207\321\011\001\326\003\003\230F"
 260      AD6761FE 
 260      6A87D109 
 260      01D60303 
 260      9846
 261 083c 75E5553A 		.ascii	"u\345U:\251J\222L\257\276w\251\270\357\270\001\370\212"
ARM GAS  /tmp/ccLwiMZb.s 			page 20


 261      A94A924C 
 261      AFBE77A9 
 261      B8EFB801 
 261      F88A
 262 084e 88057109 		.ascii	"\210\005q\011+\341{8\375d\263\310\247_ho\2549\246;-"
 262      2BE17B38 
 262      FD64B3C8 
 262      A75F686F 
 262      AC39A63B 
 263 0863 BA65B357 		.ascii	"\272e\263W\364^\240\036\254\223\345Ov\317\2079\005\002"
 263      F45EA01E 
 263      AC93E54F 
 263      76CF8739 
 263      0502
 264 0875 E25B20BF 		.ascii	"\342[ \277.~:\236\220\263\275Q\312|9d\321\262Q/OdQ\313"
 264      2E7E3A9E 
 264      90B3BD51 
 264      CA7C3964 
 264      D1B2512F 
 265 088d 0FAA5AF4 		.ascii	"\017\252Z\364\356\232\277r\314\365\334\335\274\256v"
 265      EE9ABF72 
 265      CCF5DCDD 
 265      BCAE76
 266 089c 7304B351 		.ascii	"s\004\263Q\232%\217\343\331\357\201\233\036\306\377"
 266      9A258FE3 
 266      D9EF819B 
 266      1EC6FF
 267 08ab CBFC2081 		.ascii	"\313\374 \201\326k\211\230I\223\260\271\237r\360\241"
 267      D66B8998 
 267      4993B0B9 
 267      9F72F0A1 
 268 08bb 9696276A 		.ascii	"\226\226'j\354\363E*\274\327\261\351$\027\335t_\027"
 268      ECF3452A 
 268      BCD7B1E9 
 268      2417DD74 
 268      5F17
 269 08cd 3184D632 		.ascii	"1\204\3262*\336\322\343\030\305\341\344\246\231k\331"
 269      2ADED2E3 
 269      18C5E1E4 
 269      A6996BD9 
 270 08dd C6E41C58 		.ascii	"\306\344\034X\375\360\377a Y8\346\226Y#\204\324\330"
 270      FDF0FF61 
 270      205938E6 
 270      96592384 
 270      D4D8
 271 08ef DB396676 		.ascii	"\3339fv\001\2539>z\226\227>D\302-5\270\214\356\255b"
 271      01AB393E 
 271      7A96973E 
 271      44C22D35 
 271      B88CEEAD 
 272 0904 58660CF3 		.ascii	"Xf\014\363gP\225\334:\363_\260\3354\315)\222\361l\275"
 272      675095DC 
 272      3AF35FB0 
 272      DD34CD29 
 272      92F16CBD 
 273 0918 EB4143BF 		.ascii	"\353AC\277\3329C]N\253\333f\253nc\236\241\256K\253\273"
 273      DA39435D 
ARM GAS  /tmp/ccLwiMZb.s 			page 21


 273      4EABDB66 
 273      AB6E639E 
 273      A1AE4BAB 
 274 092d C556DD53 		.ascii	"\305V\335S\036C]\267Vw\233\255\272\311\002]\275IY\356"
 274      1E435DB7 
 274      56779BAD 
 274      BAC9025D 
 274      BD4959EE 
 275 0941 FE3F88F3 		.ascii	"\376?\210\363%<\301Q\306\002\261g\227\365@\033\326\027"
 275      253CC151 
 275      C602B167 
 275      97F5401B 
 275      D617
 276 0953 3647AC9D 		.ascii	"6G\254\235:\276\341\310`t\334\22636\207\225\300\365"
 276      3ABEE1C8 
 276      6074DC96 
 276      33368795 
 276      C0F5
 277 0965 10ED9F39 		.ascii	"\020\355\2379\310b\250\340\233.2\"\222\257\013\305\312"
 277      C862A8E0 
 277      9B2E3222 
 277      92AF0BC5 
 277      CA
 278 0976 DDDCB1D0 		.ascii	"\335\334\261\320\315\233\355\312\036\344\012\236\213"
 278      CD9BEDCA 
 278      1EE40A9E 
 278      8B
 279 0983 AFE35008 		.ascii	"\257\343P\010U\355S\220,\367~\203q\246\023\015\364o"
 279      55ED5390 
 279      2CF77E83 
 279      71A6130D 
 279      F46F
 280 0995 4256BEBD 		.ascii	"BV\276\275\320ez\253\274\276\200u(B1!B\343.\034\315"
 280      D0657AAB 
 280      BCBE8075 
 280      28423121 
 280      42E32E1C 
 281 09aa 202EC7B4 		.ascii	" .\307\264\332\201e\331S\3155\302d\307\260b\223\322"
 281      DA8165D9 
 281      53CD35C2 
 281      64C7B062 
 281      93D2
 282 09bc B5D0E02D 		.ascii	"\265\320\340-\027\012\015\026\270\360R\217\363\3058"
 282      170A0D16 
 282      B8F0528F 
 282      F3C538
 283 09cb 5FEA2202 		.ascii	"_\352\"\002\305\366\002\363~A1\252\201\247\333\236\311"
 283      C5F602F3 
 283      7E4131AA 
 283      81A7DB9E 
 283      C9
 284 09dc 4DA4DBC0 		.ascii	"M\244\333\300d\254\271\026\375C\374\244\2138Z\262D\362"
 284      64ACB916 
 284      FD43FCA4 
 284      8B385AB2 
 284      44F2
 285 09ee 6CA35E52 		.ascii	"l\243^R\233\236]Z\231\021j\2317\\Ng\320\345\0263\250"
ARM GAS  /tmp/ccLwiMZb.s 			page 22


 285      9B9E5D5A 
 285      99116A99 
 285      375C4E67 
 285      D0E51633 
 286 0a03 368172CC 		.ascii	"6\201r\314\321\002\363\252\220\321\354\3330\307\375"
 286      D102F3AA 
 286      90D1ECDB 
 286      30C7FD
 287 0a12 943953B0 		.ascii	"\2249S\260TRl\245\254\016\207]\212@\304\362\320,\245"
 287      54526CA5 
 287      AC0E875D 
 287      8A40C4F2 
 287      D02CA5
 288 0a25 5ADEDAE6 		.ascii	"Z\336\332\346\242\256\020H\324&\203>\214\367\215z\342"
 288      A2AE1048 
 288      D426833E 
 288      8CF78D7A 
 288      E2
 289 0a36 D9356A3F 		.ascii	"\3315j?3?V\375|\307EL\370\227\032S;Z\367\314c\347KI"
 289      333F56FD 
 289      7CC7454C 
 289      F8971A53 
 289      3B5AF7CC 
 290 0a4e 2DC2E0D9 		.ascii	"-\302\340\331\325.4\347\257(4\307)<\373\036}\022\327"
 290      D52E34E7 
 290      AF2834C7 
 290      293CFB1E 
 290      7D12D7
 291 0a61 3A74629B 		.ascii	":tb\233KiAEwn\241\243\277\241\240?\244\2419]W\333I\364"
 291      4B694145 
 291      776EA1A3 
 291      BFA1A03F 
 291      A4A1395D 
 292 0a79 D51D74F4 		.ascii	"\325\035t\364\332\242L\364:\032\332\245\243w\220\350"
 292      DAA24CF4 
 292      3A1ADAA5 
 292      A37790E8 
 293 0a89 79E7E8E8 		.ascii	"y\347\350\350\036\012z#\015\355\326\025\262\263\224"
 293      1E0A7A23 
 293      0DEDD615 
 293      B2B394
 294 0a98 40B75CA0 		.ascii	"@\267\\\240\243\267\334\221\211\336DC\347\351R\357\""
 294      A3B7DC91 
 294      89DE4443 
 294      E7E952EF 
 294      22
 295 0aa9 D15B2ED2 		.ascii	"\321[.\322\321\365\3752\321m4t\276.\365n\022}\3622\035"
 295      D1F5FD32 
 295      D16D3474 
 295      BE2EF56E 
 295      127DF232 
 296 0abe BD9B82DE 		.ascii	"\275\233\202\336JC{t\251\017\220\350\356+t\364kwf\242"
 296      4A437B74 
 296      A90F90E8 
 296      EE2B74F4 
 296      6B7766A2 
 297 0ad2 77D0D05E 		.ascii	"w\320\320^]\352\203$\272\367\007:\372(\005\375\031\015"
ARM GAS  /tmp/ccLwiMZb.s 			page 23


 297      5DEA8324 
 297      BAF7073A 
 297      FA2805FD 
 297      190D
 298 0ae4 EDD3A53E 		.ascii	"\355\323\245>F\242\027\367\322\321\013\373g\242?\247"
 298      46A217F7 
 298      D2D10BFB 
 298      67A23FA7 
 299 0af4 A10B74A9 		.ascii	"\241\013t\251\217\223\350\326\025{\251\350.\012\272"
 299      8F93E8D6 
 299      157BA9E8 
 299      2E0ABA
 300 0b03 9D862ED4 		.ascii	"\235\206.\324\321'H\364\321\325t\364\252\001\231\350"
 300      D12748F4 
 300      D1D574F4 
 300      AA0199E8 
 301 0b13 7D347411 		.ascii	"}4t\021\276\320\346_\323\344\376\235\036\000g\036\312"
 301      BED0E65F 
 301      D3E4FE9D 
 301      1E00671E 
 301      CA
 302 0b24 E9938EA9 		.ascii	"\351\223\216\251Vk\226\365\373\200e-\264\335\263\252"
 302      566B96F5 
 302      FB80652D 
 302      B4DDB3AA 
 303 0b34 75D0B2D6 		.ascii	"u\320\262\326\245,\265\016\351\265\324\33169\032\005"
 303      A52CB50E 
 303      E9B5D4D9 
 303      36391A05 
 304 0b44 EAD7F47F 		.ascii	"\352\327\364\177\014\356\257\325\341\324:\207\035/2"
 304      0CEEAFD5 
 304      E1D43A87 
 304      1D2F32
 305 0b53 472C1619 		.ascii	"G,\026\031\226l\272\330\324\362(\255\234G\345t8n\371"
 305      966CBAD8 
 305      D4F228AD 
 305      9C47E574 
 305      386EF9
 306 0b66 A845CBF9 		.ascii	"\250E\313\371j\313\2304=\353\311#\370\022>v\310}\216"
 306      6ACB9834 
 306      3DEBC923 
 306      F8123E76 
 306      C87D8E
 307 0b79 480B2DF3 		.ascii	"H\013-\3635\324\037\030\375\365\342\373\227\243\312"
 307      35D41F18 
 307      FDF5E2FB 
 307      97A3CA
 308 0b88 0BE2E32E 		.ascii	"\013\342\343.t\332\364\255\311\021sr\220P\247\314!\352"
 308      74DAF4AD 
 308      C9117372 
 308      9050A7CC 
 308      21EA
 309 0b9a BCCE22F4 		.ascii	"\274\316\"\364\217$\247r\007\2513\246\313ovjg@\307\\"
 309      8F24A772 
 309      07A933A6 
 309      CB6F766A 
 309      6740C75C 
ARM GAS  /tmp/ccLwiMZb.s 			page 24


 310 0bae C8B2DF63 		.ascii	"\310\262\337c\021N\365-J\005\336[\2358\252S`7\034\303"
 310      114EF52D 
 310      4A05DE5B 
 310      9D38AA53 
 310      60371CC3 
 311 0bc2 8A0958B3 		.ascii	"\212\011X\263\021&\015\264\001\263\2127\001\266\310"
 311      11260DB4 
 311      01B38A37 
 311      01B6C8
 312 0bd1 087BC931 		.ascii	"\010{\3111\214\224l\211\0216\333\016\314\352_\310\000"
 312      8C946C89 
 312      1136DB0E 
 312      CCEA5FC8 
 312      00
 313 0be2 B6CC087B 		.ascii	"\266\314\010{\3151\214\224l\235\021\326d\007f\365\217"
 313      CD318C94 
 313      6C9D11D6 
 313      640766F5 
 313      8F
 314 0bf3 5600DB60 		.ascii	"V\000\333`\204-p\014#%\373\330\010[j\007Vl-\331&#\354"
 314      842D700C 
 314      2325FBD8 
 314      085B6A07 
 314      566C2DD9 
 315 0c0a 6DC73052 		.ascii	"m\3070R\262\315F\330;v`VG\310\000\373\324\010{\3171"
 315      B2CD46D8 
 315      3B766056 
 315      47C800FB 
 315      D4087BCF 
 316 0c1f 8C946CAB 		.ascii	"\214\224l\253\021\366\221\035X\211\225d\365\362\366"
 316      11F6911D 
 316      58899564 
 316      F5F2F6
 317 0c2e DF37F2C6 		.ascii	"\3377\362\306P\032Q\265i\305\264\3635\026[\305Z\026"
 317      501A51B5 
 317      69C5B4F3 
 317      35165BC5 
 317      5A16
 318 0c40 83BDADE3 		.ascii	"\203\275\255\343\231\370\252\305L\254\037\021\032K\241"
 318      99F8AAC5 
 318      4CAC1F11 
 318      1A4BA1
 319 0c4f 7F5B3077 		.ascii	"\177[0w\233\224\202\326oR\211\207\215J\334dG\211\243"
 319      9B9482D6 
 319      6F528987 
 319      8D4ADC64 
 319      4789A3
 320 0c62 AD611D46 		.ascii	"\255a\035F\330\026;\260g\254}\345\230\021\266\3031\214"
 320      D8163BB0 
 320      67AC7DE5 
 320      9811B6C3 
 320      318C
 321 0c74 94EC8411 		.ascii	"\224\354\204\021\266\323\016l\234\265d\247\214\260\335"
 321      B6D30E6C 
 321      9CB564A7 
 321      8CB0DD
 322 0c83 8E6146C9 		.ascii	"\216aF\311\352\345\323\272\343\241\237\240\020\2367"
ARM GAS  /tmp/ccLwiMZb.s 			page 25


 322      EAE5D3BA 
 322      E3A19FA0 
 322      109E37
 323 0c92 9A9C6D89 		.ascii	"\232\234m\211b\006\3173\025\343\331\227\334\3329\246"
 323      6206CF33 
 323      15E3D997 
 323      DCDA39A6 
 324 0ca2 165498BF 		.ascii	"\026T\230\277r\314\001\263\334\004E\275|\201\242\004"
 324      72CC01B3 
 324      DC0445BD 
 324      7C81A204 
 325 0cb2 DAC7B8D2 		.ascii	"\332\307\270\322\362\354_\3601\303i|\020\360W\234\237"
 325      F2EC5FF0 
 325      31C3697C 
 325      10F0579C 
 325      9F
 326 0cc3 C1790AE7 		.ascii	"\301y\012\347gq\376%\316\317\341\374<\316/\340\374["
 326      6771FE25 
 326      CECFE1FC 
 326      3CCE2FE0 
 326      FC5B
 327 0cd5 9C5FC4F9 		.ascii	"\234_\304\371%\234_\306\371w8\277\206\363\3538\277\211"
 327      259C5FC6 
 327      F97738BF 
 327      86F3EB38 
 327      BF89
 328 0ce7 F35E9CD7 		.ascii	"\363^\234\327\273Q>\335m8t0\305w\307\263\034/\314t\247"
 328      BB513EDD 
 328      6D387430 
 328      C577C7B3 
 328      1C2FCC74 
 329 0cfc E33B74C0 		.ascii	"\343;t\300/_J\035\333\364\303\343\332o\340\206(\277"
 329      2F5F4A1D 
 329      DBF4C3E3 
 329      DA6FE086 
 329      28BF
 330 0d0e F2E298EE 		.ascii	"\362\342\230\356\201\346P\230\372\273\256Y\356\254\277"
 330      81E65098 
 330      FABBAE59 
 330      EEACBF
 331 0d1d EB7AC59D 		.ascii	"\353z\305\235\361F\001\032\\\374\351\345\377\376\000"
 331      F146011A 
 331      5CFCE9E5 
 331      FFFE00
 332 0d2c FD2641BA 		.ascii	"\375&A\272\325\373b\375\014V\373\215\333\352A\3246%"
 332      D5FB62FD 
 332      0C56FB8D 
 332      DBEA41D4 
 332      3625
 333 0d3e F2376EAF 		.ascii	"\3627n\257\272M\277q\233Cmd\321\305\303\213\330\246"
 333      BA4DBF71 
 333      9B436D64 
 333      D1C5C38B 
 333      D8A6
 334 0d50 E992F20A 		.ascii	"\351\222\362\012%\351\325\032Yo\253\221\327\315\215"
 334      25E9D51A 
 334      596FAB91 
ARM GAS  /tmp/ccLwiMZb.s 			page 26


 334      D7CD8D
 335 0d5f BC416DE4 		.ascii	"\274Am\344\352\226\313\317\\\323{2\304\376\373\221\271"
 335      EA96CBCF 
 335      5CD37B32 
 335      C4FEFB91 
 335      B9
 336 0d70 6ED3FB91 		.ascii	"n\323\373\221U\231\357G\376N\210\252\236-\337\034\244"
 336      5599EF47 
 336      FE4E88AA 
 336      9E2DDF1C 
 336      A4
 337 0d81 C6C83F67 		.ascii	"\306\310?gVH\322\\\351\310\256\242FV\373\001\347\253"
 337      5648D25C 
 337      E9C8AEA2 
 337      4656FB01 
 337      E7AB
 338 0d93 77A11A4D 		.ascii	"w\241\032M\026FI\277\012W{\334]?np\272\307M\346\036"
 338      164649BF 
 338      0A577BDC 
 338      5D3F6E70 
 338      BAC74DE6 
 339 0da8 CFA7F6F8 		.ascii	"\317\247\366\370\370\246\263\277n#l\247\370K\323]\266"
 339      F8A6B3BF 
 339      6E236CA7 
 339      F84BD35D 
 339      B6
 340 0db9 FC655176 		.ascii	"\374eQv\177YLm\263\371\213\275\367g8\350\011{\015.\315"
 340      7F594C6D 
 340      B3F98BBD 
 340      F76738E8 
 340      097B0D2E 
 341 0dce DEE0326A 		.ascii	"\336\3402j\203\037\177}\372\341\214\006\223w\333j0\231"
 341      831F7F7D 
 341      FAE18C06 
 341      9377DB6A 
 341      3099
 342 0de0 BDC1E516 		.ascii	"\275\301\345\026#\242\243\2326\"6\322\33349\353\012"
 342      23A2A39A 
 342      362236D2 
 342      DB3439EB 
 342      0A
 343 0df1 B3E9565A 		.ascii	"\263\351VZ\215\210\245\264\021\261\303V#\357\230\033"
 343      8D88A5B4 
 343      11B1C356 
 343      23EF981B 
 344 0e01 594D36C2 		.ascii	"YM6\302\374b\3300\177yuhB\350w\225\376X\302\037\027"
 344      FC62D830 
 344      7F797568 
 344      42E87795 
 344      FE58C21F 
 345 0e16 FDA16830 		.ascii	"\375\241h0\\[%\370\203\325\211i\011qZ\215\220\030V\315"
 345      5C5B25F8 
 345      83D58969 
 345      09715A8D 
 345      901856CD 
 346 0e2a F8D07528 		.ascii	"\370\320u(\"\004\304\374\247\177\373|q9\223\360G'\342"
 346      2204C4FC 
ARM GAS  /tmp/ccLwiMZb.s 			page 27


 346      A77FFB7C 
 346      713993F0 
 346      4727E2
 347 0e3d 34D25F1D 		.ascii	"4\322_\035\213\010\376\270\220\020\370x\260\332_\315"
 347      8B08FEB8 
 347      9010F878 
 347      B0DA5FCD 
 348 0e4d C7ABEAF8 		.ascii	"\307\253\352\370\270\340\347\343\2212\377\244`p(\\\014"
 348      B8E0E7E3 
 348      9132FFA4 
 348      6070285C 
 348      0C
 349 0e5e 15221384 		.ascii	"\025\"\023\204\252*\241*}#\032\213\012C\005~Bh\350\210"
 349      AA2AA12A 
 349      7D231A8B 
 349      0A43057E 
 349      4268E888 
 350 0e72 C0A8A165 		.ascii	"\300\250\241e%\245#\376X\346'\036\244\005I\210U\241"
 350      25A523FE 
 350      58E6271E 
 350      A4054988 
 350      55A1
 351 0e84 A8084278 		.ascii	"\250\010Bxk\341\357\360\262\2008\235\375\347\265\036"
 351      6BE1EFF0 
 351      B280389D 
 351      FDE7B51E 
 352 0e94 E183D5A1 		.ascii	"\341\203\325\241\250\340\017T\011\023\371\332\260\030"
 352      A8E00F54 
 352      0913F9DA 
 352      B018
 353 0ea2 D0545210 		.ascii	"\320TR\020\010h\362\374\312\240DQH\210H\215\211Xm<("
 353      0868F2FC 
 353      CAA04451 
 353      4888488D 
 353      89586D3C 
 354 0eb7 285F5116 		.ascii	"(_Q\026\210\307b\342\260 s\017\376\"\012\361H(\312\213"
 354      88C762E2 
 354      B020730F 
 354      FE220AF1 
 354      4828CA8B 
 355 0ecb A0D0EAB8 		.ascii	"\240\320\352\270\300W%\006\340\333u|H\324\356\3643\334"
 355      C0572506 
 355      E0DB757C 
 355      48D4EEF4 
 355      33DC
 356 0edd 0905273F 		.ascii	"\011\005'?\224\305Pj\015\244\"\3452 \372\202\325*\350"
 356      94C5506A 
 356      0DA422E5 
 356      3220FA82 
 356      D52AE8
 357 0ef0 C16C160E 		.ascii	"\301l\026\016VWA\255;U@\340\217\265B-\210\324?]Y\275"
 357      565741AD 
 357      3B5540E0 
 357      8FB5422D 
 357      88D43F5D 
 358 0f06 E58E0A53 		.ascii	"\345\216\012SEwM\\\230\222\207\277\377;\311\014\306"
 358      45774D5C 
ARM GAS  /tmp/ccLwiMZb.s 			page 28


 358      989287BF 
 358      FF3BC90C 
 358      C6
 359 0f17 229158D4 		.ascii	"\"\221X\324_\023\213\213\011\377\223\025c\313\307NE"
 359      5F138B8B 
 359      09FF9315 
 359      63CBC74E 
 359      45
 360 0f28 F76A4261 		.ascii	"\367jBa!\236\360?]^\216dT\325\346\021k\342\241X\000"
 360      219EF03F 
 360      5D5E8E64 
 360      54D5E611 
 360      6BE2A158 
 361 0f3d D142B122 		.ascii	"\321B\261\"T%\020\214EE\340\377\312\006\264:\030\213"
 361      5425108C 
 361      4545E0FF 
 361      CA06B43A 
 361      188B
 362 0f4f 0B4029C4 		.ascii	"\013@)\304\025A\375Aq\252\337n\275\300\224G#HGqa\022"
 362      1541FD41 
 362      71AADF6E 
 362      BDC09447 
 362      23484771 
 363 0f65 D83A2072 		.ascii	"\330: r\361\021\\|$\027\177\204\213?\312\305Gq\361\307"
 363      F1115C7C 
 363      24177F84 
 363      8B3FCAC5 
 363      4771F1C7 
 364 0f79 5CF1D212 		.ascii	"\\\361\322\022H\245\\8\316%j\\\000\317\213\012uB</\026"
 364      48A55C38 
 364      CE256A5C 
 364      00CF8B0A 
 364      75423C2F 
 365 0f8e AE12E2EE 		.ascii	"\256\022\342\356 \270\227;\312G\204\202\2048\231\017"
 365      20B8973B 
 365      CA478482 
 365      8438990F 
 366 0f9e 8726     		.ascii	"\207&"
 367 0fa0 45032276 		.ascii	"E\003\"v\312GF\004D\325\037\320e~\035?\201O\010^1!b"
 367      CA474604 
 367      44D51FD0 
 367      657E1D3F 
 367      814F085E 
 368 0fb7 137BD083 		.ascii	"\023{\320\203Q`\024\245\010\\\345\341'\0361\022\253"
 368      516014A5 
 368      085CE5E1 
 368      271E3112 
 368      AB
 369 0fc8 82E77913 		.ascii	"\202\347y\023\303\374\244\204G\214\013\023\023\240\031"
 369      C3FCA484 
 369      478C0B13 
 369      13A019
 370 0fd7 F4272F92 		.ascii	"\364'/\222\230\004\025U\007\203\212\352U~\274j\032<"
 370      98041555 
 370      07838AEA 
 370      557EBC6A 
 370      1A3C
ARM GAS  /tmp/ccLwiMZb.s 			page 29


 371 0fe9 F20A5343 		.ascii	"\362\012SCb\020*\347\327\211\261\011\377S3P\265;T\025"
 371      62102AE7 
 371      D789B109 
 371      FF533350 
 371      B53B5415 
 372 0ffd E24234   		.ascii	"\342B4"
 373 1000 88A075A2 		.ascii	"\210\240u\242\030\257\361$\204\250\010\025\212\300\244"
 373      18AFF124 
 373      84A80815 
 373      8AC0A4
 374 100f 0921C2D7 		.ascii	"\011!\302\327T\203\"\206ds\011\001\351(/\030\005\267"
 374      54832286 
 374      64730901 
 374      E9282F18 
 374      05B7
 375 1021 73410E0D 		.ascii	"sA\016\015\300\255\032/\324\217\324\202\231\262\325"
 375      C0AD1A2F 
 375      D48FD482 
 375      99B2D5
 376 1030 8D885351 		.ascii	"\215\210SQ\335X]T\210{pi\244\013\021n\327\024\012S\220"
 376      DD585D54 
 376      887B7069 
 376      A40B116E 
 376      D7140A53 
 377 1045 207C6232 		.ascii	" |b2\334\022\352\320\005[\333Os\262p\010\215\211;\015"
 377      DC12EAD0 
 377      055BDB4F 
 377      73B27008 
 377      8D893B0D 
 378 1059 6E87EE78 		.ascii	"n\207\356x\220\363\207\242\223\274 ?v;\257P#Da2\230"
 378      90F387A2 
 378      93BC203F 
 378      763BAF50 
 378      23446132 
 379 106e E401242A 		.ascii	"\344\001$*\001\246\344\303\310\221\362\"5\261X\270_"
 379      01A6E4C3 
 379      C891F222 
 379      35B158B8 
 379      5F
 380 107f B07A7C75 		.ascii	"\260z|u\325xml\371\360\327\377\004H\001\276\252\014"
 380      D5786D6C 
 380      F9F0D7FF 
 380      044801BE 
 380      AA0C
 381 1091 0B428D47 		.ascii	"\013B\215Gm\201\253\343\013\361\010\233P;\021t\346\301"
 381      6D81ABE3 
 381      0BF1089B 
 381      503B1174 
 381      E6C1
 382 10a3 E614AA7E 		.ascii	"\346\024\252~j\036\312\341\320\004?\222\013\256Q\337"
 382      6A1ECAE1 
 382      D0043F92 
 382      0BAE51DF 
 383 10b3 1282585B 		.ascii	"\022\202X[\343\025a\266\251\202nz\204\251B\020\372Y"
 383      E31561B6 
 383      A9826E7A 
 383      84A94210 
ARM GAS  /tmp/ccLwiMZb.s 			page 30


 383      FA59
 384 10c5 801E07C1 		.ascii	"\200\036\007\301\344\340\006\030\232\250\015\211B\377"
 384      E4E00618 
 384      9AA80D89 
 384      42FF
 385 10d3 6155BCC8 		.ascii	"aU\274\310\017\323o\014\2673O$\004\350+\262`II)\264"
 385      0FD36F0C 
 385      B7334F24 
 385      04E82BB2 
 385      60494929 
 386 10e8 3820E3A6 		.ascii	"8 \343\246SJ\031\215R\346\2242\234F\031\356\2242\202"
 386      534A198D 
 386      52E69432 
 386      9C4619EE 
 386      943282
 387 10fb 4619E194 		.ascii	"F\031\341\2242\222F\031\351\224\362\010\215\362\210"
 387      32924619 
 387      E994F208 
 387      8DF288
 388 110a 53CAA334 		.ascii	"S\312\2434\312\243N)\243h\224QN)\217\321(\2179\244\224"
 388      CAA34E29 
 388      A3689451 
 388      4E298FD1 
 388      288F39A4 
 389 111f 965028A5 		.ascii	"\226P(\245%N)4\337-u\352\273\2454\337--\033A\316A\325"
 389      254E2934 
 389      DF2D75EA 
 389      BBA534DF 
 389      2D2D1B41 
 390 1136 7C589DEE 		.ascii	"|X\235\356+\307\217\035^\346\177\356\2711\376\361\317"
 390      2BC78F1D 
 390      5EE67FEE 
 390      B931FEF1 
 390      CF
 391 1147 8E9D520A 		.ascii	"\216\235R\012\241C\004M\232!4\245\025\246\277\300\304"
 391      A143044D 
 391      9A2134A5 
 391      15A6BFC0 
 391      C4
 392 1158 565E510A 		.ascii	"V^Q\012\251\314]9\266\274\302=\346\331\247*\270\312"
 392      A9CC5D39 
 392      B6BCC23D 
 392      E6D9A72A 
 392      B8CA
 393 116a 0AD7534F 		.ascii	"\012\327SOW\344\225\227\217\255(\305y\231\273\274\374"
 393      57E49597 
 393      8FAD28C5 
 393      7999BBBC 
 393      FC
 394 117b A90A57F9 		.ascii	"\251\012W\371o\307\273\306U\226\273\236\254\250pU\224"
 394      6FC7BBC6 
 394      5596BB9E 
 394      ACA87055 
 394      94
 395 118c C377A8F0 		.ascii	"\303w\250\360\2331\343+\\cP\315\261OVp\277Sj\015\207"
 395      9B31E32B 
 395      5C6350CD 
ARM GAS  /tmp/ccLwiMZb.s 			page 31


 395      B14F5670 
 395      BF536A0D 
 396 11a1 F22F5414 		.ascii	"\362/T\024g\231\036\247\240\031d@\260\372?\306?-\210"
 396      67991EA7 
 396      A0196440 
 396      B0FA3FC6 
 396      3F2D88
 397 11b4 95105009 		.ascii	"\225\020P\011\221\361\020Se\235\215\247\341\350+X\015"
 397      91F11053 
 397      659D8DA7 
 397      E1E82B58 
 397      0D
 398 11c5 C59F8B05 		.ascii	"\305\237\213\005'\373\360\272\027\206\253\341\324U\017"
 398      27FBF0BA 
 398      1786ABE1 
 398      D4550F
 399 11d4 96517FF9 		.ascii	"\226Q\177\371\330\312g+uF$\021J\004 \360\001\316\035"
 399      D8CA672B 
 399      75462411 
 399      4A0420F0 
 399      01CE1D
 400 11e7 0150A318 		.ascii	"\001P\243\030\370\315\223\225O\215\253x\366\016>\\\307"
 400      F8CD9395 
 400      4F8DAB78 
 400      F60E3E5C 
 400      C7
 401 11f8 4F4BC0CA 		.ascii	"OK\300\312\022\206\000'o\012\037\256\025\006fH\367B"
 401      12860027 
 401      6F0A1FAE 
 401      15066648 
 401      F742
 402 120a A9EDE515 		.ascii	"\251\355\345\025\005\210qhf\020\026\022\177\013L\022"
 402      05887168 
 402      66101612 
 402      7F0B4C12 
 403 121a 94AB9176 		.ascii	"\224\253\221vM\006O\002`\356p\030\005&\003\225+L\011"
 403      4D064F02 
 403      60EE7018 
 403      05260395 
 403      2B4C09
 404 122d C66A214C 		.ascii	"\306j!L\210\027b]<\037E:P\242\200Z|\375\377\032\\\216"
 404      8817625D 
 404      3C1F453A 
 404      50A2805A 
 404      7CFDFF1A 
 405 1243 0C       		.ascii	"\014"
 406              		.text
 407              		.section	.gnu.lto_.symtab.b351366f209d4e36,"",%progbits
 408 0000 74657374 		.ascii	"test_terminate_threads\000\000\000\000\000\000\000\000"
 408      5F746572 
 408      6D696E61 
 408      74655F74 
 408      68726561 
 409 001e 00000000 		.ascii	"\000\000\000\000\253\000\000\000threads\000\000\000"
 409      AB000000 
 409      74687265 
 409      61647300 
ARM GAS  /tmp/ccLwiMZb.s 			page 32


 409      0000
 410 0030 00000000 		.ascii	"\000\000\000\000\000\000\000\000\000s\001\000\000te"
 410      00000000 
 410      00730100 
 410      007465
 411 003f 73745F77 		.ascii	"st_wait_threads\000\000\000\000\000\000\000\000\000"
 411      6169745F 
 411      74687265 
 411      61647300 
 411      00000000 
 412 0057 000000AF 		.ascii	"\000\000\000\257\000\000\000test_wait_tick\000\000\000"
 412      00000074 
 412      6573745F 
 412      77616974 
 412      5F746963 
 413 006f 00000000 		.ascii	"\000\000\000\000\000\000\000\000\000\262\000\000\000"
 413      00000000 
 413      00B20000 
 413      00
 414 007c 77610000 		.ascii	"wa\000\000\000\000\000\000\000\000\000\000\000\000w"
 414      00000000 
 414      00000000 
 414      000077
 415 008b 01000074 		.ascii	"\001\000\000test_buffer\000\000\000\000\000\000\000"
 415      6573745F 
 415      62756666 
 415      65720000 
 415      00000000 
 416 00a0 00000000 		.ascii	"\000\000\000\000\000\201\001\000\000test_suite\000\000"
 416      00810100 
 416      00746573 
 416      745F7375 
 416      69746500 
 417 00b5 00000000 		.ascii	"\000\000\000\000\000\000\000\000\000\000\216\001\000"
 417      00000000 
 417      00008E01 
 417      00
 418 00c2 00746573 		.ascii	"\000test_sequence_001\000\000\002\000\000\000\000\000"
 418      745F7365 
 418      7175656E 
 418      63655F30 
 418      30310000 
 419 00dc 00000000 		.ascii	"\000\000\000\000\251\001\000\000test_sequence_002\000"
 419      A9010000 
 419      74657374 
 419      5F736571 
 419      75656E63 
 420 00f6 00020000 		.ascii	"\000\002\000\000\000\000\000\000\000\000\000\254\001"
 420      00000000 
 420      000000AC 
 420      01
 421 0103 00007465 		.ascii	"\000\000test_sequence_003\000\000\002\000\000\000\000"
 421      73745F73 
 421      65717565 
 421      6E63655F 
 421      30303300 
 422 011d 00000000 		.ascii	"\000\000\000\000\000\257\001\000\000test_sequence_0"
ARM GAS  /tmp/ccLwiMZb.s 			page 33


 422      00AF0100 
 422      00746573 
 422      745F7365 
 422      7175656E 
 423 0135 30340000 		.ascii	"04\000\000\002\000\000\000\000\000\000\000\000\000\262"
 423      02000000 
 423      00000000 
 423      0000B2
 424 0144 01000074 		.ascii	"\001\000\000test_sequence_005\000\000\002\000\000\000"
 424      6573745F 
 424      73657175 
 424      656E6365 
 424      5F303035 
 425 015e 00000000 		.ascii	"\000\000\000\000\000\000\265\001\000\000test_sequen"
 425      0000B501 
 425      00007465 
 425      73745F73 
 425      65717565 
 426 0173 63655F30 		.ascii	"ce_006\000\000\002\000\000\000\000\000\000\000\000\000"
 426      30360000 
 426      02000000 
 426      00000000 
 426      0000
 427 0185 B8010000 		.ascii	"\270\001\000\000test_sequence_007\000\000\002\000\000"
 427      74657374 
 427      5F736571 
 427      75656E63 
 427      655F3030 
 428 019f 00000000 		.ascii	"\000\000\000\000\000\000\000\273\001\000\000test_se"
 428      000000BB 
 428      01000074 
 428      6573745F 
 428      7365
 429 01b1 7175656E 		.ascii	"quence_008\000\000\002\000\000\000\000\000\000\000\000"
 429      63655F30 
 429      30380000 
 429      02000000 
 429      00000000 
 430 01c6 00BE0100 		.ascii	"\000\276\001\000\000test_sequence_009\000\000\002\000"
 430      00746573 
 430      745F7365 
 430      7175656E 
 430      63655F30 
 431 01e0 00000000 		.ascii	"\000\000\000\000\000\000\000\000\301\001\000\000tes"
 431      00000000 
 431      C1010000 
 431      746573
 432 01ef 745F7365 		.ascii	"t_sequence_010\000\000\002\000\000\000\000\000\000\000"
 432      7175656E 
 432      63655F30 
 432      31300000 
 432      02000000 
 433 0207 0000C401 		.ascii	"\000\000\304\001\000\000test_sequence_011\000\000\002"
 433      00007465 
 433      73745F73 
 433      65717565 
 433      6E63655F 
ARM GAS  /tmp/ccLwiMZb.s 			page 34


 434 0221 00000000 		.ascii	"\000\000\000\000\000\000\000\000\000\307\001\000\000"
 434      00000000 
 434      00C70100 
 434      00
 435 022e 74657374 		.ascii	"test_sequence_012\000\000\002\000\000\000\000\000\000"
 435      5F736571 
 435      75656E63 
 435      655F3031 
 435      32000002 
 436 0248 000000CA 		.ascii	"\000\000\000\312\001\000\000chThdTerminate\000\000\002"
 436      01000063 
 436      68546864 
 436      5465726D 
 436      696E6174 
 437 0260 00000000 		.ascii	"\000\000\000\000\000\000\000\000\000\266\000\000\000"
 437      00000000 
 437      00B60000 
 437      00
 438 026d 63685468 		.ascii	"chThdWait\000\000\002\000\000\000\000\000\000\000\000"
 438      64576169 
 438      74000002 
 438      00000000 
 438      00000000 
 439 0281 006B0100 		.ascii	"\000k\001\000\000chThdSleep\000\000\002\000\000\000"
 439      00636854 
 439      6864536C 
 439      65657000 
 439      00020000 
 440 0296 00000000 		.ascii	"\000\000\000\000\000\000o\001\000\000"
 440      00006F01 
 440      0000
 441              		.text
 442              		.section	.gnu.lto_.opts,"",%progbits
 443 0000 272D6D63 		.ascii	"'-mcpu=cortex-m4' '-mno-thumb-interwork' '-mthumb' "
 443      70753D63 
 443      6F727465 
 443      782D6D34 
 443      2720272D 
 444 0033 272D6767 		.ascii	"'-ggdb' '-O2' '-fomit-frame-pointer' '-falign-funct"
 444      64622720 
 444      272D4F32 
 444      2720272D 
 444      666F6D69 
 445 0066 696F6E73 		.ascii	"ions=16' '-ffunction-sections' '-fdata-sections' '-"
 445      3D313627 
 445      20272D66 
 445      66756E63 
 445      74696F6E 
 446 0099 666E6F2D 		.ascii	"fno-common' '-flto'\000"
 446      636F6D6D 
 446      6F6E2720 
 446      272D666C 
 446      746F2700 
 447              		.text
 448              		.cfi_sections	.debug_frame
 449              		.section	.text.test_terminate_threads,"ax",%progbits
 450              		.align	2
ARM GAS  /tmp/ccLwiMZb.s 			page 35


 451              		.p2align 4,,15
 452              		.global	test_terminate_threads
 453              		.thumb
 454              		.thumb_func
 455              		.type	test_terminate_threads, %function
 456              	test_terminate_threads:
 457              	.LFB270:
 458              		.file 1 "../ChibiOS/test/rt/source/test/test_root.c"
 459              		.loc 1 115 0
 460              		.cfi_startproc
 461              		@ args = 0, pretend = 0, frame = 0
 462              		@ frame_needed = 0, uses_anonymous_args = 0
 463              	.LVL0:
 464 0000 38B5     		push	{r3, r4, r5, lr}
 465              		.cfi_def_cfa_offset 16
 466              		.cfi_offset 3, -16
 467              		.cfi_offset 4, -12
 468              		.cfi_offset 5, -8
 469              		.cfi_offset 14, -4
 470 0002 064C     		ldr	r4, .L9
 471 0004 04F11405 		add	r5, r4, #20
 472              	.LVL1:
 473              	.L4:
 474              		.loc 1 119 0
 475 0008 54F8043F 		ldr	r3, [r4, #4]!
 476              		.loc 1 120 0
 477 000c 1846     		mov	r0, r3
 478              		.loc 1 119 0
 479 000e 0BB1     		cbz	r3, .L2
 480              		.loc 1 120 0
 481 0010 FFF7FEFF 		bl	chThdTerminate
 482              	.LVL2:
 483              	.L2:
 484              		.loc 1 118 0
 485 0014 AC42     		cmp	r4, r5
 486 0016 F7D1     		bne	.L4
 487              		.loc 1 121 0
 488 0018 38BD     		pop	{r3, r4, r5, pc}
 489              	.L10:
 490 001a 00BF     		.align	2
 491              	.L9:
 492 001c FCFFFFFF 		.word	.LANCHOR0-4
 493              		.cfi_endproc
 494              	.LFE270:
 495              		.size	test_terminate_threads, .-test_terminate_threads
 496              		.section	.text.test_wait_threads,"ax",%progbits
 497              		.align	2
 498              		.p2align 4,,15
 499              		.global	test_wait_threads
 500              		.thumb
 501              		.thumb_func
 502              		.type	test_wait_threads, %function
 503              	test_wait_threads:
 504              	.LFB271:
 505              		.loc 1 126 0
 506              		.cfi_startproc
 507              		@ args = 0, pretend = 0, frame = 0
ARM GAS  /tmp/ccLwiMZb.s 			page 36


 508              		@ frame_needed = 0, uses_anonymous_args = 0
 509              	.LVL3:
 510 0000 70B5     		push	{r4, r5, r6, lr}
 511              		.cfi_def_cfa_offset 16
 512              		.cfi_offset 4, -16
 513              		.cfi_offset 5, -12
 514              		.cfi_offset 6, -8
 515              		.cfi_offset 14, -4
 516 0002 074C     		ldr	r4, .L18
 517              		.loc 1 132 0
 518 0004 0026     		movs	r6, #0
 519 0006 04F11405 		add	r5, r4, #20
 520              	.LVL4:
 521              	.L14:
 522              		.loc 1 130 0
 523 000a 54F8043B 		ldr	r3, [r4], #4
 524              		.loc 1 131 0
 525 000e 1846     		mov	r0, r3
 526              		.loc 1 130 0
 527 0010 1BB1     		cbz	r3, .L12
 528              		.loc 1 131 0
 529 0012 FFF7FEFF 		bl	chThdWait
 530              	.LVL5:
 531              		.loc 1 132 0
 532 0016 44F8046C 		str	r6, [r4, #-4]
 533              	.L12:
 534              		.loc 1 129 0
 535 001a AC42     		cmp	r4, r5
 536 001c F5D1     		bne	.L14
 537              		.loc 1 134 0
 538 001e 70BD     		pop	{r4, r5, r6, pc}
 539              	.L19:
 540              		.align	2
 541              	.L18:
 542 0020 00000000 		.word	.LANCHOR0
 543              		.cfi_endproc
 544              	.LFE271:
 545              		.size	test_wait_threads, .-test_wait_threads
 546 0024 AFF30080 		.section	.text.test_wait_tick,"ax",%progbits
 546      AFF30080 
 546      AFF30080 
 547              		.align	2
 548              		.p2align 4,,15
 549              		.global	test_wait_tick
 550              		.thumb
 551              		.thumb_func
 552              		.type	test_wait_tick, %function
 553              	test_wait_tick:
 554              	.LFB272:
 555              		.loc 1 139 0
 556              		.cfi_startproc
 557              		@ args = 0, pretend = 0, frame = 0
 558              		@ frame_needed = 0, uses_anonymous_args = 0
 559 0000 08B5     		push	{r3, lr}
 560              		.cfi_def_cfa_offset 8
 561              		.cfi_offset 3, -8
 562              		.cfi_offset 14, -4
ARM GAS  /tmp/ccLwiMZb.s 			page 37


 563              		.loc 1 141 0
 564 0002 0120     		movs	r0, #1
 565 0004 FFF7FEFF 		bl	chThdSleep
 566              	.LVL6:
 567              	.LBB50:
 568              	.LBB51:
 569              	.LBB52:
 570              	.LBB53:
 571              	.LBB54:
 572              	.LBB55:
 573              		.file 2 "../ChibiOS/os/common/ext/CMSIS/include/cmsis_gcc.h"
 574              		.loc 2 264 0
 575 0008 2023     		movs	r3, #32
 576              	@ 264 "../ChibiOS/os/common/ext/CMSIS/include/cmsis_gcc.h" 1
 577 000a 83F31188 		MSR basepri, r3
 578              	@ 0 "" 2
 579              		.thumb
 580              	.LBE55:
 581              	.LBE54:
 582              	.LBE53:
 583              	.LBE52:
 584              	.LBB56:
 585              	.LBB57:
 586              	.LBB58:
 587              	.LBB59:
 588              		.file 3 "../ChibiOS/os/hal/ports/STM32/LLD/TIMv1/hal_st_lld.h"
 589              		.loc 3 141 0
 590 000e 4FF08042 		mov	r2, #1073741824
 591              	.LBE59:
 592              	.LBE58:
 593              	.LBE57:
 594              	.LBE56:
 595              	.LBB63:
 596              	.LBB64:
 597              	.LBB65:
 598              	.LBB66:
 599              	.LBB67:
 600              		.loc 2 264 0
 601 0012 0023     		movs	r3, #0
 602              	.LBE67:
 603              	.LBE66:
 604              	.LBE65:
 605              	.LBE64:
 606              	.LBE63:
 607              	.LBB72:
 608              	.LBB62:
 609              	.LBB61:
 610              	.LBB60:
 611              		.loc 3 141 0
 612 0014 506A     		ldr	r0, [r2, #36]
 613              	.LVL7:
 614              	.LBE60:
 615              	.LBE61:
 616              	.LBE62:
 617              	.LBE72:
 618              	.LBB73:
 619              	.LBB71:
ARM GAS  /tmp/ccLwiMZb.s 			page 38


 620              	.LBB70:
 621              	.LBB69:
 622              	.LBB68:
 623              		.loc 2 264 0
 624              	@ 264 "../ChibiOS/os/common/ext/CMSIS/include/cmsis_gcc.h" 1
 625 0016 83F31188 		MSR basepri, r3
 626              	@ 0 "" 2
 627              		.thumb
 628              	.LBE68:
 629              	.LBE69:
 630              	.LBE70:
 631              	.LBE71:
 632              	.LBE73:
 633              	.LBE51:
 634              	.LBE50:
 635              		.loc 1 143 0
 636 001a 08BD     		pop	{r3, pc}
 637              		.cfi_endproc
 638              	.LFE272:
 639              		.size	test_wait_tick, .-test_wait_tick
 640              		.global	wa
 641              		.global	threads
 642              		.global	test_buffer
 643              		.global	test_suite
 644 001c AFF30080 		.section	.bss.test_buffer,"aw",%nobits
 645              		.align	3
 646              		.type	test_buffer, %object
 647              		.size	test_buffer, 1640
 648              	test_buffer:
 649 0000 00000000 		.space	1640
 649      00000000 
 649      00000000 
 649      00000000 
 649      00000000 
 650              		.section	.data.test_suite,"aw",%progbits
 651              		.align	2
 652              		.type	test_suite, %object
 653              		.size	test_suite, 52
 654              	test_suite:
 655 0000 00000000 		.word	test_sequence_001
 656 0004 00000000 		.word	test_sequence_002
 657 0008 00000000 		.word	test_sequence_003
 658 000c 00000000 		.word	test_sequence_004
 659 0010 00000000 		.word	test_sequence_005
 660 0014 00000000 		.word	test_sequence_006
 661 0018 00000000 		.word	test_sequence_007
 662 001c 00000000 		.word	test_sequence_008
 663 0020 00000000 		.word	test_sequence_009
 664 0024 00000000 		.word	test_sequence_010
 665 0028 00000000 		.word	test_sequence_011
 666 002c 00000000 		.word	test_sequence_012
 667 0030 00000000 		.word	0
 668              		.section	.rodata.wa,"a",%progbits
 669              		.align	2
 670              		.type	wa, %object
 671              		.size	wa, 20
 672              	wa:
ARM GAS  /tmp/ccLwiMZb.s 			page 39


 673 0000 00000000 		.word	test_buffer
 674 0004 48010000 		.word	test_buffer+328
 675 0008 90020000 		.word	test_buffer+656
 676 000c D8030000 		.word	test_buffer+984
 677 0010 20050000 		.word	test_buffer+1312
 678              		.section	.bss.threads,"aw",%nobits
 679              		.align	2
 680              		.set	.LANCHOR0,. + 0
 681              		.type	threads, %object
 682              		.size	threads, 20
 683              	threads:
 684 0000 00000000 		.space	20
 684      00000000 
 684      00000000 
 684      00000000 
 684      00000000 
 685              		.text
 686              	.Letext0:
 687              		.file 4 "/nfs/nfs5/home/research/hardware/arm2/gcc-arm-embedded/gcc-arm-none-eabi-4_8-2014q2/lib/g
 688              		.file 5 "/nfs/nfs5/home/research/hardware/arm2/gcc-arm-embedded/gcc-arm-none-eabi-4_8-2014q2/arm-n
 689              		.file 6 "/nfs/nfs5/home/research/hardware/arm2/gcc-arm-embedded/gcc-arm-none-eabi-4_8-2014q2/arm-n
 690              		.file 7 "../ChibiOS/os/common/ports/ARMCMx/compilers/GCC/chtypes.h"
 691              		.file 8 "../ChibiOS/os/rt/include/chsystypes.h"
 692              		.file 9 "../ChibiOS/os/rt/include/chschd.h"
 693              		.file 10 "../ChibiOS/os/common/ports/ARMCMx/chcore.h"
 694              		.file 11 "../ChibiOS/os/common/ports/ARMCMx/chcore_v7m.h"
 695              		.file 12 "../ChibiOS/os/hal/ports/STM32/LLD/TIMv1/stm32_tim.h"
 696              		.file 13 "../ChibiOS/os/rt/include/chtm.h"
 697              		.file 14 "../ChibiOS/os/rt/include/chsem.h"
 698              		.file 15 "../ChibiOS/os/rt/include/chmtx.h"
 699              		.file 16 "../ChibiOS/test/lib/ch_test.h"
 700              		.file 17 "../ChibiOS/os/common/ports/ARMCMx/chcore_timer.h"
 701              		.file 18 "../ChibiOS/os/rt/include/chsys.h"
 702              		.file 19 "../ChibiOS/os/rt/include/chvt.h"
 703              		.file 20 "../ChibiOS/os/common/ext/CMSIS/include/core_cm4.h"
 704              		.file 21 "../ChibiOS/test/rt/source/test/test_sequence_001.h"
 705              		.file 22 "../ChibiOS/test/rt/source/test/test_sequence_002.h"
 706              		.file 23 "../ChibiOS/test/rt/source/test/test_sequence_003.h"
 707              		.file 24 "../ChibiOS/test/rt/source/test/test_sequence_004.h"
 708              		.file 25 "../ChibiOS/test/rt/source/test/test_sequence_005.h"
 709              		.file 26 "../ChibiOS/test/rt/source/test/test_sequence_006.h"
 710              		.file 27 "../ChibiOS/test/rt/source/test/test_sequence_007.h"
 711              		.file 28 "../ChibiOS/test/rt/source/test/test_sequence_008.h"
 712              		.file 29 "../ChibiOS/test/rt/source/test/test_sequence_009.h"
 713              		.file 30 "../ChibiOS/test/rt/source/test/test_sequence_010.h"
 714              		.file 31 "../ChibiOS/test/rt/source/test/test_sequence_011.h"
 715              		.file 32 "../ChibiOS/test/rt/source/test/test_sequence_012.h"
 716              		.file 33 "../ChibiOS/os/rt/include/chthreads.h"
 717              		.section	.debug_info,"",%progbits
 718              	.Ldebug_info0:
 719 0000 4B0B0000 		.4byte	0xb4b
 720 0004 0400     		.2byte	0x4
 721 0006 00000000 		.4byte	.Ldebug_abbrev0
 722 000a 04       		.byte	0x4
 723 000b 01       		.uleb128 0x1
 724 000c 0B060000 		.4byte	.LASF133
 725 0010 01       		.byte	0x1
ARM GAS  /tmp/ccLwiMZb.s 			page 40


 726 0011 78020000 		.4byte	.LASF134
 727 0015 87030000 		.4byte	.LASF135
 728 0019 30000000 		.4byte	.Ldebug_ranges0+0x30
 729 001d 00000000 		.4byte	0
 730 0021 00000000 		.4byte	.Ldebug_line0
 731 0025 02       		.uleb128 0x2
 732 0026 04       		.byte	0x4
 733 0027 05       		.byte	0x5
 734 0028 696E7400 		.ascii	"int\000"
 735 002c 03       		.uleb128 0x3
 736 002d 12000000 		.4byte	.LASF2
 737 0031 04       		.byte	0x4
 738 0032 D4       		.byte	0xd4
 739 0033 37000000 		.4byte	0x37
 740 0037 04       		.uleb128 0x4
 741 0038 04       		.byte	0x4
 742 0039 07       		.byte	0x7
 743 003a CC010000 		.4byte	.LASF0
 744 003e 04       		.uleb128 0x4
 745 003f 01       		.byte	0x1
 746 0040 06       		.byte	0x6
 747 0041 1C010000 		.4byte	.LASF1
 748 0045 03       		.uleb128 0x3
 749 0046 6A000000 		.4byte	.LASF3
 750 004a 05       		.byte	0x5
 751 004b 1C       		.byte	0x1c
 752 004c 50000000 		.4byte	0x50
 753 0050 04       		.uleb128 0x4
 754 0051 01       		.byte	0x1
 755 0052 08       		.byte	0x8
 756 0053 D3030000 		.4byte	.LASF4
 757 0057 04       		.uleb128 0x4
 758 0058 02       		.byte	0x2
 759 0059 05       		.byte	0x5
 760 005a E9030000 		.4byte	.LASF5
 761 005e 04       		.uleb128 0x4
 762 005f 02       		.byte	0x2
 763 0060 07       		.byte	0x7
 764 0061 F5040000 		.4byte	.LASF6
 765 0065 03       		.uleb128 0x3
 766 0066 52020000 		.4byte	.LASF7
 767 006a 05       		.byte	0x5
 768 006b 37       		.byte	0x37
 769 006c 70000000 		.4byte	0x70
 770 0070 04       		.uleb128 0x4
 771 0071 04       		.byte	0x4
 772 0072 05       		.byte	0x5
 773 0073 4A010000 		.4byte	.LASF8
 774 0077 03       		.uleb128 0x3
 775 0078 89010000 		.4byte	.LASF9
 776 007c 05       		.byte	0x5
 777 007d 38       		.byte	0x38
 778 007e 82000000 		.4byte	0x82
 779 0082 04       		.uleb128 0x4
 780 0083 04       		.byte	0x4
 781 0084 07       		.byte	0x7
 782 0085 86040000 		.4byte	.LASF10
ARM GAS  /tmp/ccLwiMZb.s 			page 41


 783 0089 04       		.uleb128 0x4
 784 008a 08       		.byte	0x8
 785 008b 05       		.byte	0x5
 786 008c 66010000 		.4byte	.LASF11
 787 0090 03       		.uleb128 0x3
 788 0091 40030000 		.4byte	.LASF12
 789 0095 05       		.byte	0x5
 790 0096 4E       		.byte	0x4e
 791 0097 9B000000 		.4byte	0x9b
 792 009b 04       		.uleb128 0x4
 793 009c 08       		.byte	0x8
 794 009d 07       		.byte	0x7
 795 009e 9E000000 		.4byte	.LASF13
 796 00a2 03       		.uleb128 0x3
 797 00a3 61050000 		.4byte	.LASF14
 798 00a7 06       		.byte	0x6
 799 00a8 2A       		.byte	0x2a
 800 00a9 45000000 		.4byte	0x45
 801 00ad 03       		.uleb128 0x3
 802 00ae CB030000 		.4byte	.LASF15
 803 00b2 06       		.byte	0x6
 804 00b3 41       		.byte	0x41
 805 00b4 65000000 		.4byte	0x65
 806 00b8 03       		.uleb128 0x3
 807 00b9 60040000 		.4byte	.LASF16
 808 00bd 06       		.byte	0x6
 809 00be 42       		.byte	0x42
 810 00bf 77000000 		.4byte	0x77
 811 00c3 03       		.uleb128 0x3
 812 00c4 61000000 		.4byte	.LASF17
 813 00c8 06       		.byte	0x6
 814 00c9 4E       		.byte	0x4e
 815 00ca 90000000 		.4byte	0x90
 816 00ce 03       		.uleb128 0x3
 817 00cf 2A050000 		.4byte	.LASF18
 818 00d3 07       		.byte	0x7
 819 00d4 39       		.byte	0x39
 820 00d5 B8000000 		.4byte	0xb8
 821 00d9 03       		.uleb128 0x3
 822 00da 01070000 		.4byte	.LASF19
 823 00de 07       		.byte	0x7
 824 00df 3C       		.byte	0x3c
 825 00e0 A2000000 		.4byte	0xa2
 826 00e4 03       		.uleb128 0x3
 827 00e5 53010000 		.4byte	.LASF20
 828 00e9 07       		.byte	0x7
 829 00ea 3D       		.byte	0x3d
 830 00eb A2000000 		.4byte	0xa2
 831 00ef 03       		.uleb128 0x3
 832 00f0 4B030000 		.4byte	.LASF21
 833 00f4 07       		.byte	0x7
 834 00f5 3E       		.byte	0x3e
 835 00f6 A2000000 		.4byte	0xa2
 836 00fa 03       		.uleb128 0x3
 837 00fb 7F030000 		.4byte	.LASF22
 838 00ff 07       		.byte	0x7
 839 0100 40       		.byte	0x40
ARM GAS  /tmp/ccLwiMZb.s 			page 42


 840 0101 B8000000 		.4byte	0xb8
 841 0105 03       		.uleb128 0x3
 842 0106 09020000 		.4byte	.LASF23
 843 010a 07       		.byte	0x7
 844 010b 41       		.byte	0x41
 845 010c AD000000 		.4byte	0xad
 846 0110 03       		.uleb128 0x3
 847 0111 46020000 		.4byte	.LASF24
 848 0115 07       		.byte	0x7
 849 0116 43       		.byte	0x43
 850 0117 B8000000 		.4byte	0xb8
 851 011b 03       		.uleb128 0x3
 852 011c B3010000 		.4byte	.LASF25
 853 0120 07       		.byte	0x7
 854 0121 45       		.byte	0x45
 855 0122 AD000000 		.4byte	0xad
 856 0126 03       		.uleb128 0x3
 857 0127 C3040000 		.4byte	.LASF26
 858 012b 08       		.byte	0x8
 859 012c 33       		.byte	0x33
 860 012d B8000000 		.4byte	0xb8
 861 0131 03       		.uleb128 0x3
 862 0132 AF040000 		.4byte	.LASF27
 863 0136 08       		.byte	0x8
 864 0137 3F       		.byte	0x3f
 865 0138 3C010000 		.4byte	0x13c
 866 013c 05       		.uleb128 0x5
 867 013d FF010000 		.4byte	.LASF45
 868 0141 44       		.byte	0x44
 869 0142 09       		.byte	0x9
 870 0143 9A       		.byte	0x9a
 871 0144 1A020000 		.4byte	0x21a
 872 0148 06       		.uleb128 0x6
 873 0149 74010000 		.4byte	.LASF28
 874 014d 09       		.byte	0x9
 875 014e 9B       		.byte	0x9b
 876 014f 4F020000 		.4byte	0x24f
 877 0153 00       		.byte	0
 878 0154 06       		.uleb128 0x6
 879 0155 33030000 		.4byte	.LASF29
 880 0159 09       		.byte	0x9
 881 015a 9C       		.byte	0x9c
 882 015b FA000000 		.4byte	0xfa
 883 015f 08       		.byte	0x8
 884 0160 07       		.uleb128 0x7
 885 0161 63747800 		.ascii	"ctx\000"
 886 0165 09       		.byte	0x9
 887 0166 9D       		.byte	0x9d
 888 0167 6C040000 		.4byte	0x46c
 889 016b 0C       		.byte	0xc
 890 016c 06       		.uleb128 0x6
 891 016d 72020000 		.4byte	.LASF30
 892 0171 09       		.byte	0x9
 893 0172 9F       		.byte	0x9f
 894 0173 25020000 		.4byte	0x225
 895 0177 10       		.byte	0x10
 896 0178 06       		.uleb128 0x6
ARM GAS  /tmp/ccLwiMZb.s 			page 43


 897 0179 A4040000 		.4byte	.LASF31
 898 017d 09       		.byte	0x9
 899 017e A0       		.byte	0xa0
 900 017f 25020000 		.4byte	0x225
 901 0183 14       		.byte	0x14
 902 0184 06       		.uleb128 0x6
 903 0185 EF010000 		.4byte	.LASF32
 904 0189 09       		.byte	0x9
 905 018a A7       		.byte	0xa7
 906 018b 13070000 		.4byte	0x713
 907 018f 18       		.byte	0x18
 908 0190 06       		.uleb128 0x6
 909 0191 98040000 		.4byte	.LASF33
 910 0195 09       		.byte	0x9
 911 0196 B0       		.byte	0xb0
 912 0197 25070000 		.4byte	0x725
 913 019b 1C       		.byte	0x1c
 914 019c 06       		.uleb128 0x6
 915 019d 44010000 		.4byte	.LASF34
 916 01a1 09       		.byte	0x9
 917 01a2 B5       		.byte	0xb5
 918 01a3 E4000000 		.4byte	0xe4
 919 01a7 20       		.byte	0x20
 920 01a8 06       		.uleb128 0x6
 921 01a9 5B050000 		.4byte	.LASF35
 922 01ad 09       		.byte	0x9
 923 01ae B9       		.byte	0xb9
 924 01af D9000000 		.4byte	0xd9
 925 01b3 21       		.byte	0x21
 926 01b4 06       		.uleb128 0x6
 927 01b5 6A030000 		.4byte	.LASF36
 928 01b9 09       		.byte	0x9
 929 01ba BE       		.byte	0xbe
 930 01bb EF000000 		.4byte	0xef
 931 01bf 22       		.byte	0x22
 932 01c0 08       		.uleb128 0x8
 933 01c1 7500     		.ascii	"u\000"
 934 01c3 09       		.byte	0x9
 935 01c4 0F01     		.2byte	0x10f
 936 01c6 48060000 		.4byte	0x648
 937 01ca 24       		.byte	0x24
 938 01cb 09       		.uleb128 0x9
 939 01cc 9D010000 		.4byte	.LASF37
 940 01d0 09       		.byte	0x9
 941 01d1 1401     		.2byte	0x114
 942 01d3 2B020000 		.4byte	0x22b
 943 01d7 28       		.byte	0x28
 944 01d8 09       		.uleb128 0x9
 945 01d9 3B010000 		.4byte	.LASF38
 946 01dd 09       		.byte	0x9
 947 01de 1A01     		.2byte	0x11a
 948 01e0 4F020000 		.4byte	0x24f
 949 01e4 2C       		.byte	0x2c
 950 01e5 09       		.uleb128 0x9
 951 01e6 0F020000 		.4byte	.LASF39
 952 01ea 09       		.byte	0x9
 953 01eb 2001     		.2byte	0x120
ARM GAS  /tmp/ccLwiMZb.s 			page 44


 954 01ed 10010000 		.4byte	0x110
 955 01f1 34       		.byte	0x34
 956 01f2 09       		.uleb128 0x9
 957 01f3 15070000 		.4byte	.LASF40
 958 01f7 09       		.byte	0x9
 959 01f8 2701     		.2byte	0x127
 960 01fa 0D070000 		.4byte	0x70d
 961 01fe 38       		.byte	0x38
 962 01ff 09       		.uleb128 0x9
 963 0200 A3020000 		.4byte	.LASF41
 964 0204 09       		.byte	0x9
 965 0205 2B01     		.2byte	0x12b
 966 0207 FA000000 		.4byte	0xfa
 967 020b 3C       		.byte	0x3c
 968 020c 09       		.uleb128 0x9
 969 020d F4010000 		.4byte	.LASF42
 970 0211 09       		.byte	0x9
 971 0212 3201     		.2byte	0x132
 972 0214 02030000 		.4byte	0x302
 973 0218 40       		.byte	0x40
 974 0219 00       		.byte	0
 975 021a 03       		.uleb128 0x3
 976 021b B5020000 		.4byte	.LASF43
 977 021f 08       		.byte	0x8
 978 0220 44       		.byte	0x44
 979 0221 25020000 		.4byte	0x225
 980 0225 0A       		.uleb128 0xa
 981 0226 04       		.byte	0x4
 982 0227 31010000 		.4byte	0x131
 983 022b 03       		.uleb128 0x3
 984 022c F2060000 		.4byte	.LASF44
 985 0230 08       		.byte	0x8
 986 0231 49       		.byte	0x49
 987 0232 36020000 		.4byte	0x236
 988 0236 05       		.uleb128 0x5
 989 0237 70040000 		.4byte	.LASF46
 990 023b 04       		.byte	0x4
 991 023c 09       		.byte	0x9
 992 023d 88       		.byte	0x88
 993 023e 4F020000 		.4byte	0x24f
 994 0242 06       		.uleb128 0x6
 995 0243 19000000 		.4byte	.LASF47
 996 0247 09       		.byte	0x9
 997 0248 89       		.byte	0x89
 998 0249 25020000 		.4byte	0x225
 999 024d 00       		.byte	0
 1000 024e 00       		.byte	0
 1001 024f 03       		.uleb128 0x3
 1002 0250 3C050000 		.4byte	.LASF48
 1003 0254 08       		.byte	0x8
 1004 0255 50       		.byte	0x50
 1005 0256 5A020000 		.4byte	0x25a
 1006 025a 05       		.uleb128 0x5
 1007 025b F9000000 		.4byte	.LASF49
 1008 025f 08       		.byte	0x8
 1009 0260 09       		.byte	0x9
 1010 0261 8F       		.byte	0x8f
ARM GAS  /tmp/ccLwiMZb.s 			page 45


 1011 0262 7F020000 		.4byte	0x27f
 1012 0266 06       		.uleb128 0x6
 1013 0267 19000000 		.4byte	.LASF47
 1014 026b 09       		.byte	0x9
 1015 026c 90       		.byte	0x90
 1016 026d 25020000 		.4byte	0x225
 1017 0271 00       		.byte	0
 1018 0272 06       		.uleb128 0x6
 1019 0273 74000000 		.4byte	.LASF50
 1020 0277 09       		.byte	0x9
 1021 0278 91       		.byte	0x91
 1022 0279 25020000 		.4byte	0x225
 1023 027d 04       		.byte	0x4
 1024 027e 00       		.byte	0
 1025 027f 03       		.uleb128 0x3
 1026 0280 00000000 		.4byte	.LASF51
 1027 0284 08       		.byte	0x8
 1028 0285 57       		.byte	0x57
 1029 0286 8A020000 		.4byte	0x28a
 1030 028a 0B       		.uleb128 0xb
 1031 028b 38020000 		.4byte	.LASF52
 1032 028f 1C       		.byte	0x1c
 1033 0290 09       		.byte	0x9
 1034 0291 6A01     		.2byte	0x16a
 1035 0293 E6020000 		.4byte	0x2e6
 1036 0297 09       		.uleb128 0x9
 1037 0298 74010000 		.4byte	.LASF28
 1038 029c 09       		.byte	0x9
 1039 029d 6B01     		.2byte	0x16b
 1040 029f 4F020000 		.4byte	0x24f
 1041 02a3 00       		.byte	0
 1042 02a4 09       		.uleb128 0x9
 1043 02a5 33030000 		.4byte	.LASF29
 1044 02a9 09       		.byte	0x9
 1045 02aa 6C01     		.2byte	0x16c
 1046 02ac FA000000 		.4byte	0xfa
 1047 02b0 08       		.byte	0x8
 1048 02b1 08       		.uleb128 0x8
 1049 02b2 63747800 		.ascii	"ctx\000"
 1050 02b6 09       		.byte	0x9
 1051 02b7 6E01     		.2byte	0x16e
 1052 02b9 6C040000 		.4byte	0x46c
 1053 02bd 0C       		.byte	0xc
 1054 02be 09       		.uleb128 0x9
 1055 02bf 72020000 		.4byte	.LASF30
 1056 02c3 09       		.byte	0x9
 1057 02c4 7101     		.2byte	0x171
 1058 02c6 25020000 		.4byte	0x225
 1059 02ca 10       		.byte	0x10
 1060 02cb 09       		.uleb128 0x9
 1061 02cc A4040000 		.4byte	.LASF31
 1062 02d0 09       		.byte	0x9
 1063 02d1 7201     		.2byte	0x172
 1064 02d3 25020000 		.4byte	0x225
 1065 02d7 14       		.byte	0x14
 1066 02d8 09       		.uleb128 0x9
 1067 02d9 38030000 		.4byte	.LASF53
ARM GAS  /tmp/ccLwiMZb.s 			page 46


 1068 02dd 09       		.byte	0x9
 1069 02de 7501     		.2byte	0x175
 1070 02e0 25020000 		.4byte	0x225
 1071 02e4 18       		.byte	0x18
 1072 02e5 00       		.byte	0
 1073 02e6 03       		.uleb128 0x3
 1074 02e7 CD040000 		.4byte	.LASF54
 1075 02eb 08       		.byte	0x8
 1076 02ec 5C       		.byte	0x5c
 1077 02ed F1020000 		.4byte	0x2f1
 1078 02f1 0A       		.uleb128 0xa
 1079 02f2 04       		.byte	0x4
 1080 02f3 F7020000 		.4byte	0x2f7
 1081 02f7 0C       		.uleb128 0xc
 1082 02f8 02030000 		.4byte	0x302
 1083 02fc 0D       		.uleb128 0xd
 1084 02fd 02030000 		.4byte	0x302
 1085 0301 00       		.byte	0
 1086 0302 0E       		.uleb128 0xe
 1087 0303 04       		.byte	0x4
 1088 0304 03       		.uleb128 0x3
 1089 0305 6F030000 		.4byte	.LASF55
 1090 0309 08       		.byte	0x8
 1091 030a 61       		.byte	0x61
 1092 030b 0F030000 		.4byte	0x30f
 1093 030f 0B       		.uleb128 0xb
 1094 0310 1F040000 		.4byte	.LASF56
 1095 0314 14       		.byte	0x14
 1096 0315 09       		.byte	0x9
 1097 0316 4501     		.2byte	0x145
 1098 0318 5E030000 		.4byte	0x35e
 1099 031c 09       		.uleb128 0x9
 1100 031d 19000000 		.4byte	.LASF47
 1101 0321 09       		.byte	0x9
 1102 0322 4601     		.2byte	0x146
 1103 0324 2B070000 		.4byte	0x72b
 1104 0328 00       		.byte	0
 1105 0329 09       		.uleb128 0x9
 1106 032a 74000000 		.4byte	.LASF50
 1107 032e 09       		.byte	0x9
 1108 032f 4701     		.2byte	0x147
 1109 0331 2B070000 		.4byte	0x72b
 1110 0335 04       		.byte	0x4
 1111 0336 09       		.uleb128 0x9
 1112 0337 1E000000 		.4byte	.LASF57
 1113 033b 09       		.byte	0x9
 1114 033c 4801     		.2byte	0x148
 1115 033e 26010000 		.4byte	0x126
 1116 0342 08       		.byte	0x8
 1117 0343 09       		.uleb128 0x9
 1118 0344 5C010000 		.4byte	.LASF58
 1119 0348 09       		.byte	0x9
 1120 0349 4901     		.2byte	0x149
 1121 034b E6020000 		.4byte	0x2e6
 1122 034f 0C       		.byte	0xc
 1123 0350 08       		.uleb128 0x8
 1124 0351 70617200 		.ascii	"par\000"
ARM GAS  /tmp/ccLwiMZb.s 			page 47


 1125 0355 09       		.byte	0x9
 1126 0356 4B01     		.2byte	0x14b
 1127 0358 02030000 		.4byte	0x302
 1128 035c 10       		.byte	0x10
 1129 035d 00       		.byte	0
 1130 035e 03       		.uleb128 0x3
 1131 035f D1000000 		.4byte	.LASF59
 1132 0363 08       		.byte	0x8
 1133 0364 66       		.byte	0x66
 1134 0365 69030000 		.4byte	0x369
 1135 0369 0B       		.uleb128 0xb
 1136 036a C8020000 		.4byte	.LASF60
 1137 036e 10       		.byte	0x10
 1138 036f 09       		.byte	0x9
 1139 0370 5501     		.2byte	0x155
 1140 0372 AB030000 		.4byte	0x3ab
 1141 0376 09       		.uleb128 0x9
 1142 0377 19000000 		.4byte	.LASF47
 1143 037b 09       		.byte	0x9
 1144 037c 5601     		.2byte	0x156
 1145 037e 2B070000 		.4byte	0x72b
 1146 0382 00       		.byte	0
 1147 0383 09       		.uleb128 0x9
 1148 0384 74000000 		.4byte	.LASF50
 1149 0388 09       		.byte	0x9
 1150 0389 5801     		.2byte	0x158
 1151 038b 2B070000 		.4byte	0x72b
 1152 038f 04       		.byte	0x4
 1153 0390 09       		.uleb128 0x9
 1154 0391 1E000000 		.4byte	.LASF57
 1155 0395 09       		.byte	0x9
 1156 0396 5A01     		.2byte	0x15a
 1157 0398 26010000 		.4byte	0x126
 1158 039c 08       		.byte	0x8
 1159 039d 09       		.uleb128 0x9
 1160 039e F3030000 		.4byte	.LASF61
 1161 03a2 09       		.byte	0x9
 1162 03a3 6201     		.2byte	0x162
 1163 03a5 26010000 		.4byte	0x126
 1164 03a9 0C       		.byte	0xc
 1165 03aa 00       		.byte	0
 1166 03ab 03       		.uleb128 0x3
 1167 03ac 85000000 		.4byte	.LASF62
 1168 03b0 08       		.byte	0x8
 1169 03b1 6B       		.byte	0x6b
 1170 03b2 B6030000 		.4byte	0x3b6
 1171 03b6 0B       		.uleb128 0xb
 1172 03b7 B5030000 		.4byte	.LASF63
 1173 03bb 04       		.byte	0x4
 1174 03bc 09       		.byte	0x9
 1175 03bd 7C01     		.2byte	0x17c
 1176 03bf D1030000 		.4byte	0x3d1
 1177 03c3 09       		.uleb128 0x9
 1178 03c4 E4040000 		.4byte	.LASF64
 1179 03c8 09       		.byte	0x9
 1180 03c9 8401     		.2byte	0x184
 1181 03cb 31070000 		.4byte	0x731
ARM GAS  /tmp/ccLwiMZb.s 			page 48


 1182 03cf 00       		.byte	0
 1183 03d0 00       		.byte	0
 1184 03d1 03       		.uleb128 0x3
 1185 03d2 18020000 		.4byte	.LASF65
 1186 03d6 08       		.byte	0x8
 1187 03d7 70       		.byte	0x70
 1188 03d8 DC030000 		.4byte	0x3dc
 1189 03dc 0B       		.uleb128 0xb
 1190 03dd 0B040000 		.4byte	.LASF66
 1191 03e1 78       		.byte	0x78
 1192 03e2 09       		.byte	0x9
 1193 03e3 9C01     		.2byte	0x19c
 1194 03e5 2A040000 		.4byte	0x42a
 1195 03e9 09       		.uleb128 0x9
 1196 03ea 55050000 		.4byte	.LASF67
 1197 03ee 09       		.byte	0x9
 1198 03ef A001     		.2byte	0x1a0
 1199 03f1 7F020000 		.4byte	0x27f
 1200 03f5 00       		.byte	0
 1201 03f6 09       		.uleb128 0x9
 1202 03f7 28010000 		.4byte	.LASF68
 1203 03fb 09       		.byte	0x9
 1204 03fc A401     		.2byte	0x1a4
 1205 03fe 5E030000 		.4byte	0x35e
 1206 0402 1C       		.byte	0x1c
 1207 0403 08       		.uleb128 0x8
 1208 0404 64626700 		.ascii	"dbg\000"
 1209 0408 09       		.byte	0x9
 1210 0409 A801     		.2byte	0x1a8
 1211 040b AB030000 		.4byte	0x3ab
 1212 040f 2C       		.byte	0x2c
 1213 0410 09       		.uleb128 0x9
 1214 0411 BE000000 		.4byte	.LASF69
 1215 0415 09       		.byte	0x9
 1216 0416 AC01     		.2byte	0x1ac
 1217 0418 31010000 		.4byte	0x131
 1218 041c 30       		.byte	0x30
 1219 041d 08       		.uleb128 0x8
 1220 041e 746D00   		.ascii	"tm\000"
 1221 0421 09       		.byte	0x9
 1222 0422 B101     		.2byte	0x1b1
 1223 0424 3D060000 		.4byte	0x63d
 1224 0428 74       		.byte	0x74
 1225 0429 00       		.byte	0
 1226 042a 04       		.uleb128 0x4
 1227 042b 04       		.byte	0x4
 1228 042c 07       		.byte	0x7
 1229 042d AC020000 		.4byte	.LASF70
 1230 0431 0F       		.uleb128 0xf
 1231 0432 B8000000 		.4byte	0xb8
 1232 0436 10       		.uleb128 0x10
 1233 0437 B8000000 		.4byte	0xb8
 1234 043b 46040000 		.4byte	0x446
 1235 043f 11       		.uleb128 0x11
 1236 0440 2A040000 		.4byte	0x42a
 1237 0444 01       		.byte	0x1
 1238 0445 00       		.byte	0
ARM GAS  /tmp/ccLwiMZb.s 			page 49


 1239 0446 10       		.uleb128 0x10
 1240 0447 B8000000 		.4byte	0xb8
 1241 044b 56040000 		.4byte	0x456
 1242 044f 11       		.uleb128 0x11
 1243 0450 2A040000 		.4byte	0x42a
 1244 0454 03       		.byte	0x3
 1245 0455 00       		.byte	0
 1246 0456 03       		.uleb128 0x3
 1247 0457 94010000 		.4byte	.LASF71
 1248 045b 0A       		.byte	0xa
 1249 045c 65       		.byte	0x65
 1250 045d 02030000 		.4byte	0x302
 1251 0461 03       		.uleb128 0x3
 1252 0462 5C020000 		.4byte	.LASF72
 1253 0466 0A       		.byte	0xa
 1254 0467 6D       		.byte	0x6d
 1255 0468 C3000000 		.4byte	0xc3
 1256 046c 05       		.uleb128 0x5
 1257 046d FD020000 		.4byte	.LASF73
 1258 0471 04       		.byte	0x4
 1259 0472 0A       		.byte	0xa
 1260 0473 89       		.byte	0x89
 1261 0474 84040000 		.4byte	0x484
 1262 0478 07       		.uleb128 0x7
 1263 0479 737000   		.ascii	"sp\000"
 1264 047c 0A       		.byte	0xa
 1265 047d 8A       		.byte	0x8a
 1266 047e 00050000 		.4byte	0x500
 1267 0482 00       		.byte	0
 1268 0483 00       		.byte	0
 1269 0484 0B       		.uleb128 0xb
 1270 0485 79000000 		.4byte	.LASF74
 1271 0489 24       		.byte	0x24
 1272 048a 0B       		.byte	0xb
 1273 048b 5901     		.2byte	0x159
 1274 048d 00050000 		.4byte	0x500
 1275 0491 08       		.uleb128 0x8
 1276 0492 723400   		.ascii	"r4\000"
 1277 0495 0B       		.byte	0xb
 1278 0496 6C01     		.2byte	0x16c
 1279 0498 56040000 		.4byte	0x456
 1280 049c 00       		.byte	0
 1281 049d 08       		.uleb128 0x8
 1282 049e 723500   		.ascii	"r5\000"
 1283 04a1 0B       		.byte	0xb
 1284 04a2 6D01     		.2byte	0x16d
 1285 04a4 56040000 		.4byte	0x456
 1286 04a8 04       		.byte	0x4
 1287 04a9 08       		.uleb128 0x8
 1288 04aa 723600   		.ascii	"r6\000"
 1289 04ad 0B       		.byte	0xb
 1290 04ae 6E01     		.2byte	0x16e
 1291 04b0 56040000 		.4byte	0x456
 1292 04b4 08       		.byte	0x8
 1293 04b5 08       		.uleb128 0x8
 1294 04b6 723700   		.ascii	"r7\000"
 1295 04b9 0B       		.byte	0xb
ARM GAS  /tmp/ccLwiMZb.s 			page 50


 1296 04ba 6F01     		.2byte	0x16f
 1297 04bc 56040000 		.4byte	0x456
 1298 04c0 0C       		.byte	0xc
 1299 04c1 08       		.uleb128 0x8
 1300 04c2 723800   		.ascii	"r8\000"
 1301 04c5 0B       		.byte	0xb
 1302 04c6 7001     		.2byte	0x170
 1303 04c8 56040000 		.4byte	0x456
 1304 04cc 10       		.byte	0x10
 1305 04cd 08       		.uleb128 0x8
 1306 04ce 723900   		.ascii	"r9\000"
 1307 04d1 0B       		.byte	0xb
 1308 04d2 7101     		.2byte	0x171
 1309 04d4 56040000 		.4byte	0x456
 1310 04d8 14       		.byte	0x14
 1311 04d9 08       		.uleb128 0x8
 1312 04da 72313000 		.ascii	"r10\000"
 1313 04de 0B       		.byte	0xb
 1314 04df 7201     		.2byte	0x172
 1315 04e1 56040000 		.4byte	0x456
 1316 04e5 18       		.byte	0x18
 1317 04e6 08       		.uleb128 0x8
 1318 04e7 72313100 		.ascii	"r11\000"
 1319 04eb 0B       		.byte	0xb
 1320 04ec 7301     		.2byte	0x173
 1321 04ee 56040000 		.4byte	0x456
 1322 04f2 1C       		.byte	0x1c
 1323 04f3 08       		.uleb128 0x8
 1324 04f4 6C7200   		.ascii	"lr\000"
 1325 04f7 0B       		.byte	0xb
 1326 04f8 7401     		.2byte	0x174
 1327 04fa 56040000 		.4byte	0x456
 1328 04fe 20       		.byte	0x20
 1329 04ff 00       		.byte	0
 1330 0500 0A       		.uleb128 0xa
 1331 0501 04       		.byte	0x4
 1332 0502 84040000 		.4byte	0x484
 1333 0506 12       		.uleb128 0x12
 1334 0507 60       		.byte	0x60
 1335 0508 0C       		.byte	0xc
 1336 0509 A101     		.2byte	0x1a1
 1337 050b 12060000 		.4byte	0x612
 1338 050f 08       		.uleb128 0x8
 1339 0510 43523100 		.ascii	"CR1\000"
 1340 0514 0C       		.byte	0xc
 1341 0515 A201     		.2byte	0x1a2
 1342 0517 31040000 		.4byte	0x431
 1343 051b 00       		.byte	0
 1344 051c 08       		.uleb128 0x8
 1345 051d 43523200 		.ascii	"CR2\000"
 1346 0521 0C       		.byte	0xc
 1347 0522 A301     		.2byte	0x1a3
 1348 0524 31040000 		.4byte	0x431
 1349 0528 04       		.byte	0x4
 1350 0529 09       		.uleb128 0x9
 1351 052a FA010000 		.4byte	.LASF75
 1352 052e 0C       		.byte	0xc
ARM GAS  /tmp/ccLwiMZb.s 			page 51


 1353 052f A401     		.2byte	0x1a4
 1354 0531 31040000 		.4byte	0x431
 1355 0535 08       		.byte	0x8
 1356 0536 09       		.uleb128 0x9
 1357 0537 0D000000 		.4byte	.LASF76
 1358 053b 0C       		.byte	0xc
 1359 053c A501     		.2byte	0x1a5
 1360 053e 31040000 		.4byte	0x431
 1361 0542 0C       		.byte	0xc
 1362 0543 08       		.uleb128 0x8
 1363 0544 535200   		.ascii	"SR\000"
 1364 0547 0C       		.byte	0xc
 1365 0548 A601     		.2byte	0x1a6
 1366 054a 31040000 		.4byte	0x431
 1367 054e 10       		.byte	0x10
 1368 054f 08       		.uleb128 0x8
 1369 0550 45475200 		.ascii	"EGR\000"
 1370 0554 0C       		.byte	0xc
 1371 0555 A701     		.2byte	0x1a7
 1372 0557 31040000 		.4byte	0x431
 1373 055b 14       		.byte	0x14
 1374 055c 09       		.uleb128 0x9
 1375 055d 0A010000 		.4byte	.LASF77
 1376 0561 0C       		.byte	0xc
 1377 0562 A801     		.2byte	0x1a8
 1378 0564 31040000 		.4byte	0x431
 1379 0568 18       		.byte	0x18
 1380 0569 09       		.uleb128 0x9
 1381 056a 10010000 		.4byte	.LASF78
 1382 056e 0C       		.byte	0xc
 1383 056f A901     		.2byte	0x1a9
 1384 0571 31040000 		.4byte	0x431
 1385 0575 1C       		.byte	0x1c
 1386 0576 09       		.uleb128 0x9
 1387 0577 61010000 		.4byte	.LASF79
 1388 057b 0C       		.byte	0xc
 1389 057c AA01     		.2byte	0x1aa
 1390 057e 31040000 		.4byte	0x431
 1391 0582 20       		.byte	0x20
 1392 0583 08       		.uleb128 0x8
 1393 0584 434E5400 		.ascii	"CNT\000"
 1394 0588 0C       		.byte	0xc
 1395 0589 AB01     		.2byte	0x1ab
 1396 058b 31040000 		.4byte	0x431
 1397 058f 24       		.byte	0x24
 1398 0590 08       		.uleb128 0x8
 1399 0591 50534300 		.ascii	"PSC\000"
 1400 0595 0C       		.byte	0xc
 1401 0596 AC01     		.2byte	0x1ac
 1402 0598 31040000 		.4byte	0x431
 1403 059c 28       		.byte	0x28
 1404 059d 08       		.uleb128 0x8
 1405 059e 41525200 		.ascii	"ARR\000"
 1406 05a2 0C       		.byte	0xc
 1407 05a3 AD01     		.2byte	0x1ad
 1408 05a5 31040000 		.4byte	0x431
 1409 05a9 2C       		.byte	0x2c
ARM GAS  /tmp/ccLwiMZb.s 			page 52


 1410 05aa 08       		.uleb128 0x8
 1411 05ab 52435200 		.ascii	"RCR\000"
 1412 05af 0C       		.byte	0xc
 1413 05b0 AE01     		.2byte	0x1ae
 1414 05b2 31040000 		.4byte	0x431
 1415 05b6 30       		.byte	0x30
 1416 05b7 08       		.uleb128 0x8
 1417 05b8 43435200 		.ascii	"CCR\000"
 1418 05bc 0C       		.byte	0xc
 1419 05bd AF01     		.2byte	0x1af
 1420 05bf 12060000 		.4byte	0x612
 1421 05c3 34       		.byte	0x34
 1422 05c4 09       		.uleb128 0x9
 1423 05c5 F4000000 		.4byte	.LASF80
 1424 05c9 0C       		.byte	0xc
 1425 05ca B001     		.2byte	0x1b0
 1426 05cc 31040000 		.4byte	0x431
 1427 05d0 44       		.byte	0x44
 1428 05d1 08       		.uleb128 0x8
 1429 05d2 44435200 		.ascii	"DCR\000"
 1430 05d6 0C       		.byte	0xc
 1431 05d7 B101     		.2byte	0x1b1
 1432 05d9 31040000 		.4byte	0x431
 1433 05dd 48       		.byte	0x48
 1434 05de 09       		.uleb128 0x9
 1435 05df AA040000 		.4byte	.LASF81
 1436 05e3 0C       		.byte	0xc
 1437 05e4 B201     		.2byte	0x1b2
 1438 05e6 31040000 		.4byte	0x431
 1439 05ea 4C       		.byte	0x4c
 1440 05eb 08       		.uleb128 0x8
 1441 05ec 4F5200   		.ascii	"OR\000"
 1442 05ef 0C       		.byte	0xc
 1443 05f0 B301     		.2byte	0x1b3
 1444 05f2 31040000 		.4byte	0x431
 1445 05f6 50       		.byte	0x50
 1446 05f7 09       		.uleb128 0x9
 1447 05f8 16010000 		.4byte	.LASF82
 1448 05fc 0C       		.byte	0xc
 1449 05fd B401     		.2byte	0x1b4
 1450 05ff 31040000 		.4byte	0x431
 1451 0603 54       		.byte	0x54
 1452 0604 09       		.uleb128 0x9
 1453 0605 3D040000 		.4byte	.LASF83
 1454 0609 0C       		.byte	0xc
 1455 060a B501     		.2byte	0x1b5
 1456 060c 17060000 		.4byte	0x617
 1457 0610 58       		.byte	0x58
 1458 0611 00       		.byte	0
 1459 0612 0F       		.uleb128 0xf
 1460 0613 46040000 		.4byte	0x446
 1461 0617 0F       		.uleb128 0xf
 1462 0618 36040000 		.4byte	0x436
 1463 061c 13       		.uleb128 0x13
 1464 061d 24020000 		.4byte	.LASF84
 1465 0621 0C       		.byte	0xc
 1466 0622 B601     		.2byte	0x1b6
ARM GAS  /tmp/ccLwiMZb.s 			page 53


 1467 0624 06050000 		.4byte	0x506
 1468 0628 14       		.uleb128 0x14
 1469 0629 04       		.byte	0x4
 1470 062a 0D       		.byte	0xd
 1471 062b 38       		.byte	0x38
 1472 062c 3D060000 		.4byte	0x63d
 1473 0630 06       		.uleb128 0x6
 1474 0631 EE040000 		.4byte	.LASF85
 1475 0635 0D       		.byte	0xd
 1476 0636 3C       		.byte	0x3c
 1477 0637 CE000000 		.4byte	0xce
 1478 063b 00       		.byte	0
 1479 063c 00       		.byte	0
 1480 063d 03       		.uleb128 0x3
 1481 063e 0A030000 		.4byte	.LASF86
 1482 0642 0D       		.byte	0xd
 1483 0643 3D       		.byte	0x3d
 1484 0644 28060000 		.4byte	0x628
 1485 0648 15       		.uleb128 0x15
 1486 0649 04       		.byte	0x4
 1487 064a 09       		.byte	0x9
 1488 064b D2       		.byte	0xd2
 1489 064c AB060000 		.4byte	0x6ab
 1490 0650 16       		.uleb128 0x16
 1491 0651 24000000 		.4byte	.LASF87
 1492 0655 09       		.byte	0x9
 1493 0656 D9       		.byte	0xd9
 1494 0657 05010000 		.4byte	0x105
 1495 065b 16       		.uleb128 0x16
 1496 065c B5000000 		.4byte	.LASF88
 1497 0660 09       		.byte	0x9
 1498 0661 E0       		.byte	0xe0
 1499 0662 05010000 		.4byte	0x105
 1500 0666 16       		.uleb128 0x16
 1501 0667 EB060000 		.4byte	.LASF89
 1502 066b 09       		.byte	0x9
 1503 066c E7       		.byte	0xe7
 1504 066d 02030000 		.4byte	0x302
 1505 0671 16       		.uleb128 0x16
 1506 0672 E0010000 		.4byte	.LASF90
 1507 0676 09       		.byte	0x9
 1508 0677 EE       		.byte	0xee
 1509 0678 AB060000 		.4byte	0x6ab
 1510 067c 16       		.uleb128 0x16
 1511 067d C9000000 		.4byte	.LASF91
 1512 0681 09       		.byte	0x9
 1513 0682 F3       		.byte	0xf3
 1514 0683 05010000 		.4byte	0x105
 1515 0687 16       		.uleb128 0x16
 1516 0688 D9010000 		.4byte	.LASF92
 1517 068c 09       		.byte	0x9
 1518 068d FC       		.byte	0xfc
 1519 068e D6060000 		.4byte	0x6d6
 1520 0692 17       		.uleb128 0x17
 1521 0693 69040000 		.4byte	.LASF93
 1522 0697 09       		.byte	0x9
 1523 0698 0501     		.2byte	0x105
ARM GAS  /tmp/ccLwiMZb.s 			page 54


 1524 069a 0D070000 		.4byte	0x70d
 1525 069e 17       		.uleb128 0x17
 1526 069f 04040000 		.4byte	.LASF94
 1527 06a3 09       		.byte	0x9
 1528 06a4 0D01     		.2byte	0x10d
 1529 06a6 10010000 		.4byte	0x110
 1530 06aa 00       		.byte	0
 1531 06ab 0A       		.uleb128 0xa
 1532 06ac 04       		.byte	0x4
 1533 06ad 1A020000 		.4byte	0x21a
 1534 06b1 05       		.uleb128 0x5
 1535 06b2 30040000 		.4byte	.LASF95
 1536 06b6 0C       		.byte	0xc
 1537 06b7 0E       		.byte	0xe
 1538 06b8 34       		.byte	0x34
 1539 06b9 D6060000 		.4byte	0x6d6
 1540 06bd 06       		.uleb128 0x6
 1541 06be 74010000 		.4byte	.LASF28
 1542 06c2 0E       		.byte	0xe
 1543 06c3 35       		.byte	0x35
 1544 06c4 4F020000 		.4byte	0x24f
 1545 06c8 00       		.byte	0
 1546 06c9 07       		.uleb128 0x7
 1547 06ca 636E7400 		.ascii	"cnt\000"
 1548 06ce 0E       		.byte	0xe
 1549 06cf 37       		.byte	0x37
 1550 06d0 1B010000 		.4byte	0x11b
 1551 06d4 08       		.byte	0x8
 1552 06d5 00       		.byte	0
 1553 06d6 0A       		.uleb128 0xa
 1554 06d7 04       		.byte	0x4
 1555 06d8 B1060000 		.4byte	0x6b1
 1556 06dc 05       		.uleb128 0x5
 1557 06dd 4C050000 		.4byte	.LASF96
 1558 06e1 10       		.byte	0x10
 1559 06e2 0F       		.byte	0xf
 1560 06e3 39       		.byte	0x39
 1561 06e4 0D070000 		.4byte	0x70d
 1562 06e8 06       		.uleb128 0x6
 1563 06e9 74010000 		.4byte	.LASF28
 1564 06ed 0F       		.byte	0xf
 1565 06ee 3A       		.byte	0x3a
 1566 06ef 4F020000 		.4byte	0x24f
 1567 06f3 00       		.byte	0
 1568 06f4 06       		.uleb128 0x6
 1569 06f5 80040000 		.4byte	.LASF97
 1570 06f9 0F       		.byte	0xf
 1571 06fa 3C       		.byte	0x3c
 1572 06fb 25020000 		.4byte	0x225
 1573 06ff 08       		.byte	0x8
 1574 0700 06       		.uleb128 0x6
 1575 0701 19000000 		.4byte	.LASF47
 1576 0705 0F       		.byte	0xf
 1577 0706 3E       		.byte	0x3e
 1578 0707 41070000 		.4byte	0x741
 1579 070b 0C       		.byte	0xc
 1580 070c 00       		.byte	0
ARM GAS  /tmp/ccLwiMZb.s 			page 55


 1581 070d 0A       		.uleb128 0xa
 1582 070e 04       		.byte	0x4
 1583 070f DC060000 		.4byte	0x6dc
 1584 0713 0A       		.uleb128 0xa
 1585 0714 04       		.byte	0x4
 1586 0715 19070000 		.4byte	0x719
 1587 0719 18       		.uleb128 0x18
 1588 071a 1E070000 		.4byte	0x71e
 1589 071e 04       		.uleb128 0x4
 1590 071f 01       		.byte	0x1
 1591 0720 08       		.byte	0x8
 1592 0721 9F040000 		.4byte	.LASF98
 1593 0725 0A       		.uleb128 0xa
 1594 0726 04       		.byte	0x4
 1595 0727 61040000 		.4byte	0x461
 1596 072b 0A       		.uleb128 0xa
 1597 072c 04       		.byte	0x4
 1598 072d 04030000 		.4byte	0x304
 1599 0731 0F       		.uleb128 0xf
 1600 0732 13070000 		.4byte	0x713
 1601 0736 03       		.uleb128 0x3
 1602 0737 A5010000 		.4byte	.LASF99
 1603 073b 0F       		.byte	0xf
 1604 073c 34       		.byte	0x34
 1605 073d DC060000 		.4byte	0x6dc
 1606 0741 0A       		.uleb128 0xa
 1607 0742 04       		.byte	0x4
 1608 0743 36070000 		.4byte	0x736
 1609 0747 04       		.uleb128 0x4
 1610 0748 01       		.byte	0x1
 1611 0749 02       		.byte	0x2
 1612 074a C5030000 		.4byte	.LASF100
 1613 074e 0A       		.uleb128 0xa
 1614 074f 04       		.byte	0x4
 1615 0750 54070000 		.4byte	0x754
 1616 0754 19       		.uleb128 0x19
 1617 0755 14       		.uleb128 0x14
 1618 0756 10       		.byte	0x10
 1619 0757 10       		.byte	0x10
 1620 0758 3D       		.byte	0x3d
 1621 0759 8E070000 		.4byte	0x78e
 1622 075d 06       		.uleb128 0x6
 1623 075e EF010000 		.4byte	.LASF32
 1624 0762 10       		.byte	0x10
 1625 0763 3E       		.byte	0x3e
 1626 0764 13070000 		.4byte	0x713
 1627 0768 00       		.byte	0
 1628 0769 06       		.uleb128 0x6
 1629 076a 1B030000 		.4byte	.LASF101
 1630 076e 10       		.byte	0x10
 1631 076f 3F       		.byte	0x3f
 1632 0770 4E070000 		.4byte	0x74e
 1633 0774 04       		.byte	0x4
 1634 0775 06       		.uleb128 0x6
 1635 0776 E6010000 		.4byte	.LASF102
 1636 077a 10       		.byte	0x10
 1637 077b 40       		.byte	0x40
ARM GAS  /tmp/ccLwiMZb.s 			page 56


 1638 077c 4E070000 		.4byte	0x74e
 1639 0780 08       		.byte	0x8
 1640 0781 06       		.uleb128 0x6
 1641 0782 E1030000 		.4byte	.LASF103
 1642 0786 10       		.byte	0x10
 1643 0787 41       		.byte	0x41
 1644 0788 4E070000 		.4byte	0x74e
 1645 078c 0C       		.byte	0xc
 1646 078d 00       		.byte	0
 1647 078e 03       		.uleb128 0x3
 1648 078f 67020000 		.4byte	.LASF104
 1649 0793 10       		.byte	0x10
 1650 0794 42       		.byte	0x42
 1651 0795 55070000 		.4byte	0x755
 1652 0799 1A       		.uleb128 0x1a
 1653 079a D6040000 		.4byte	.LASF111
 1654 079e 02       		.byte	0x2
 1655 079f 0601     		.2byte	0x106
 1656 07a1 03       		.byte	0x3
 1657 07a2 B3070000 		.4byte	0x7b3
 1658 07a6 1B       		.uleb128 0x1b
 1659 07a7 AD010000 		.4byte	.LASF136
 1660 07ab 02       		.byte	0x2
 1661 07ac 0601     		.2byte	0x106
 1662 07ae B8000000 		.4byte	0xb8
 1663 07b2 00       		.byte	0
 1664 07b3 1C       		.uleb128 0x1c
 1665 07b4 4D040000 		.4byte	.LASF107
 1666 07b8 03       		.byte	0x3
 1667 07b9 8B       		.byte	0x8b
 1668 07ba 26010000 		.4byte	0x126
 1669 07be 03       		.byte	0x3
 1670 07bf 1D       		.uleb128 0x1d
 1671 07c0 94000000 		.4byte	.LASF105
 1672 07c4 0B       		.byte	0xb
 1673 07c5 5202     		.2byte	0x252
 1674 07c7 03       		.byte	0x3
 1675 07c8 1D       		.uleb128 0x1d
 1676 07c9 2F010000 		.4byte	.LASF106
 1677 07cd 0B       		.byte	0xb
 1678 07ce 6A02     		.2byte	0x26a
 1679 07d0 03       		.byte	0x3
 1680 07d1 1C       		.uleb128 0x1c
 1681 07d2 16050000 		.4byte	.LASF108
 1682 07d6 11       		.byte	0x11
 1683 07d7 69       		.byte	0x69
 1684 07d8 26010000 		.4byte	0x126
 1685 07dc 03       		.byte	0x3
 1686 07dd 1D       		.uleb128 0x1d
 1687 07de 15040000 		.4byte	.LASF109
 1688 07e2 12       		.byte	0x12
 1689 07e3 7601     		.2byte	0x176
 1690 07e5 03       		.byte	0x3
 1691 07e6 1C       		.uleb128 0x1c
 1692 07e7 B9010000 		.4byte	.LASF110
 1693 07eb 13       		.byte	0x13
 1694 07ec E4       		.byte	0xe4
ARM GAS  /tmp/ccLwiMZb.s 			page 57


 1695 07ed 26010000 		.4byte	0x126
 1696 07f1 03       		.byte	0x3
 1697 07f2 1A       		.uleb128 0x1a
 1698 07f3 09070000 		.4byte	.LASF112
 1699 07f7 12       		.byte	0x12
 1700 07f8 8201     		.2byte	0x182
 1701 07fa 03       		.byte	0x3
 1702 07fb 0D080000 		.4byte	0x80d
 1703 07ff 1E       		.uleb128 0x1e
 1704 0800 08050000 		.4byte	.LASF113
 1705 0804 1D080000 		.4byte	0x81d
 1706 0808 09070000 		.4byte	.LASF112
 1707 080c 00       		.byte	0
 1708 080d 10       		.uleb128 0x10
 1709 080e 1E070000 		.4byte	0x71e
 1710 0812 1D080000 		.4byte	0x81d
 1711 0816 11       		.uleb128 0x11
 1712 0817 2A040000 		.4byte	0x42a
 1713 081b 0B       		.byte	0xb
 1714 081c 00       		.byte	0
 1715 081d 18       		.uleb128 0x18
 1716 081e 0D080000 		.4byte	0x80d
 1717 0822 1F       		.uleb128 0x1f
 1718 0823 21030000 		.4byte	.LASF137
 1719 0827 13       		.byte	0x13
 1720 0828 F7       		.byte	0xf7
 1721 0829 26010000 		.4byte	0x126
 1722 082d 03       		.byte	0x3
 1723 082e 3E080000 		.4byte	0x83e
 1724 0832 20       		.uleb128 0x20
 1725 0833 30020000 		.4byte	.LASF114
 1726 0837 13       		.byte	0x13
 1727 0838 F8       		.byte	0xf8
 1728 0839 26010000 		.4byte	0x126
 1729 083d 00       		.byte	0
 1730 083e 21       		.uleb128 0x21
 1731 083f 53030000 		.4byte	.LASF115
 1732 0843 01       		.byte	0x1
 1733 0844 73       		.byte	0x73
 1734 0845 00000000 		.4byte	.LFB270
 1735 0849 20000000 		.4byte	.LFE270-.LFB270
 1736 084d 01       		.uleb128 0x1
 1737 084e 9C       		.byte	0x9c
 1738 084f 6A080000 		.4byte	0x86a
 1739 0853 22       		.uleb128 0x22
 1740 0854 6900     		.ascii	"i\000"
 1741 0856 01       		.byte	0x1
 1742 0857 74       		.byte	0x74
 1743 0858 37000000 		.4byte	0x37
 1744 085c 00000000 		.4byte	.LLST0
 1745 0860 23       		.uleb128 0x23
 1746 0861 14000000 		.4byte	.LVL2
 1747 0865 1A0B0000 		.4byte	0xb1a
 1748 0869 00       		.byte	0
 1749 086a 21       		.uleb128 0x21
 1750 086b EB020000 		.4byte	.LASF116
 1751 086f 01       		.byte	0x1
ARM GAS  /tmp/ccLwiMZb.s 			page 58


 1752 0870 7E       		.byte	0x7e
 1753 0871 00000000 		.4byte	.LFB271
 1754 0875 24000000 		.4byte	.LFE271-.LFB271
 1755 0879 01       		.uleb128 0x1
 1756 087a 9C       		.byte	0x9c
 1757 087b 96080000 		.4byte	0x896
 1758 087f 22       		.uleb128 0x22
 1759 0880 6900     		.ascii	"i\000"
 1760 0882 01       		.byte	0x1
 1761 0883 7F       		.byte	0x7f
 1762 0884 37000000 		.4byte	0x37
 1763 0888 14000000 		.4byte	.LLST1
 1764 088c 23       		.uleb128 0x23
 1765 088d 16000000 		.4byte	.LVL5
 1766 0891 2B0B0000 		.4byte	0xb2b
 1767 0895 00       		.byte	0
 1768 0896 24       		.uleb128 0x24
 1769 0897 1D070000 		.4byte	.LASF138
 1770 089b 01       		.byte	0x1
 1771 089c 8B       		.byte	0x8b
 1772 089d 26010000 		.4byte	0x126
 1773 08a1 00000000 		.4byte	.LFB272
 1774 08a5 1C000000 		.4byte	.LFE272-.LFB272
 1775 08a9 01       		.uleb128 0x1
 1776 08aa 9C       		.byte	0x9c
 1777 08ab 94090000 		.4byte	0x994
 1778 08af 25       		.uleb128 0x25
 1779 08b0 22080000 		.4byte	0x822
 1780 08b4 08000000 		.4byte	.LBB50
 1781 08b8 12000000 		.4byte	.LBE50-.LBB50
 1782 08bc 01       		.byte	0x1
 1783 08bd 8E       		.byte	0x8e
 1784 08be 84090000 		.4byte	0x984
 1785 08c2 26       		.uleb128 0x26
 1786 08c3 08000000 		.4byte	.LBB51
 1787 08c7 12000000 		.4byte	.LBE51-.LBB51
 1788 08cb 27       		.uleb128 0x27
 1789 08cc 32080000 		.4byte	0x832
 1790 08d0 25       		.uleb128 0x25
 1791 08d1 DD070000 		.4byte	0x7dd
 1792 08d5 08000000 		.4byte	.LBB52
 1793 08d9 06000000 		.4byte	.LBE52-.LBB52
 1794 08dd 13       		.byte	0x13
 1795 08de FA       		.byte	0xfa
 1796 08df 0C090000 		.4byte	0x90c
 1797 08e3 28       		.uleb128 0x28
 1798 08e4 BF070000 		.4byte	0x7bf
 1799 08e8 08000000 		.4byte	.LBB53
 1800 08ec 06000000 		.4byte	.LBE53-.LBB53
 1801 08f0 12       		.byte	0x12
 1802 08f1 7801     		.2byte	0x178
 1803 08f3 28       		.uleb128 0x28
 1804 08f4 99070000 		.4byte	0x799
 1805 08f8 08000000 		.4byte	.LBB54
 1806 08fc 06000000 		.4byte	.LBE54-.LBB54
 1807 0900 0B       		.byte	0xb
 1808 0901 5A02     		.2byte	0x25a
ARM GAS  /tmp/ccLwiMZb.s 			page 59


 1809 0903 29       		.uleb128 0x29
 1810 0904 A6070000 		.4byte	0x7a6
 1811 0908 20       		.byte	0x20
 1812 0909 00       		.byte	0
 1813 090a 00       		.byte	0
 1814 090b 00       		.byte	0
 1815 090c 2A       		.uleb128 0x2a
 1816 090d E6070000 		.4byte	0x7e6
 1817 0911 0E000000 		.4byte	.LBB56
 1818 0915 00000000 		.4byte	.Ldebug_ranges0+0
 1819 0919 13       		.byte	0x13
 1820 091a FB       		.byte	0xfb
 1821 091b 3F090000 		.4byte	0x93f
 1822 091f 2B       		.uleb128 0x2b
 1823 0920 D1070000 		.4byte	0x7d1
 1824 0924 0E000000 		.4byte	.LBB57
 1825 0928 00000000 		.4byte	.Ldebug_ranges0+0
 1826 092c 13       		.byte	0x13
 1827 092d E9       		.byte	0xe9
 1828 092e 2C       		.uleb128 0x2c
 1829 092f B3070000 		.4byte	0x7b3
 1830 0933 0E000000 		.4byte	.LBB58
 1831 0937 00000000 		.4byte	.Ldebug_ranges0+0
 1832 093b 11       		.byte	0x11
 1833 093c 6B       		.byte	0x6b
 1834 093d 00       		.byte	0
 1835 093e 00       		.byte	0
 1836 093f 2B       		.uleb128 0x2b
 1837 0940 F2070000 		.4byte	0x7f2
 1838 0944 12000000 		.4byte	.LBB63
 1839 0948 18000000 		.4byte	.Ldebug_ranges0+0x18
 1840 094c 13       		.byte	0x13
 1841 094d FC       		.byte	0xfc
 1842 094e 2D       		.uleb128 0x2d
 1843 094f 18000000 		.4byte	.Ldebug_ranges0+0x18
 1844 0953 27       		.uleb128 0x27
 1845 0954 FF070000 		.4byte	0x7ff
 1846 0958 2E       		.uleb128 0x2e
 1847 0959 C8070000 		.4byte	0x7c8
 1848 095d 12000000 		.4byte	.LBB65
 1849 0961 18000000 		.4byte	.Ldebug_ranges0+0x18
 1850 0965 12       		.byte	0x12
 1851 0966 8F01     		.2byte	0x18f
 1852 0968 2E       		.uleb128 0x2e
 1853 0969 99070000 		.4byte	0x799
 1854 096d 12000000 		.4byte	.LBB66
 1855 0971 18000000 		.4byte	.Ldebug_ranges0+0x18
 1856 0975 0B       		.byte	0xb
 1857 0976 6D02     		.2byte	0x26d
 1858 0978 29       		.uleb128 0x29
 1859 0979 A6070000 		.4byte	0x7a6
 1860 097d 00       		.byte	0
 1861 097e 00       		.byte	0
 1862 097f 00       		.byte	0
 1863 0980 00       		.byte	0
 1864 0981 00       		.byte	0
 1865 0982 00       		.byte	0
ARM GAS  /tmp/ccLwiMZb.s 			page 60


 1866 0983 00       		.byte	0
 1867 0984 2F       		.uleb128 0x2f
 1868 0985 08000000 		.4byte	.LVL6
 1869 0989 400B0000 		.4byte	0xb40
 1870 098d 30       		.uleb128 0x30
 1871 098e 01       		.uleb128 0x1
 1872 098f 50       		.byte	0x50
 1873 0990 01       		.uleb128 0x1
 1874 0991 31       		.byte	0x31
 1875 0992 00       		.byte	0
 1876 0993 00       		.byte	0
 1877 0994 31       		.uleb128 0x31
 1878 0995 E7000000 		.4byte	.LASF117
 1879 0999 14       		.byte	0x14
 1880 099a 4407     		.2byte	0x744
 1881 099c A0090000 		.4byte	0x9a0
 1882 09a0 0F       		.uleb128 0xf
 1883 09a1 AD000000 		.4byte	0xad
 1884 09a5 32       		.uleb128 0x32
 1885 09a6 636800   		.ascii	"ch\000"
 1886 09a9 09       		.byte	0x9
 1887 09aa D201     		.2byte	0x1d2
 1888 09ac D1030000 		.4byte	0x3d1
 1889 09b0 10       		.uleb128 0x10
 1890 09b1 BB090000 		.4byte	0x9bb
 1891 09b5 BB090000 		.4byte	0x9bb
 1892 09b9 33       		.uleb128 0x33
 1893 09ba 00       		.byte	0
 1894 09bb 0A       		.uleb128 0xa
 1895 09bc 04       		.byte	0x4
 1896 09bd C1090000 		.4byte	0x9c1
 1897 09c1 18       		.uleb128 0x18
 1898 09c2 8E070000 		.4byte	0x78e
 1899 09c6 34       		.uleb128 0x34
 1900 09c7 7B050000 		.4byte	.LASF118
 1901 09cb 15       		.byte	0x15
 1902 09cc 19       		.byte	0x19
 1903 09cd D1090000 		.4byte	0x9d1
 1904 09d1 18       		.uleb128 0x18
 1905 09d2 B0090000 		.4byte	0x9b0
 1906 09d6 34       		.uleb128 0x34
 1907 09d7 8D050000 		.4byte	.LASF119
 1908 09db 16       		.byte	0x16
 1909 09dc 19       		.byte	0x19
 1910 09dd E1090000 		.4byte	0x9e1
 1911 09e1 18       		.uleb128 0x18
 1912 09e2 B0090000 		.4byte	0x9b0
 1913 09e6 34       		.uleb128 0x34
 1914 09e7 9F050000 		.4byte	.LASF120
 1915 09eb 17       		.byte	0x17
 1916 09ec 19       		.byte	0x19
 1917 09ed F1090000 		.4byte	0x9f1
 1918 09f1 18       		.uleb128 0x18
 1919 09f2 B0090000 		.4byte	0x9b0
 1920 09f6 34       		.uleb128 0x34
 1921 09f7 B1050000 		.4byte	.LASF121
 1922 09fb 18       		.byte	0x18
ARM GAS  /tmp/ccLwiMZb.s 			page 61


 1923 09fc 19       		.byte	0x19
 1924 09fd 010A0000 		.4byte	0xa01
 1925 0a01 18       		.uleb128 0x18
 1926 0a02 B0090000 		.4byte	0x9b0
 1927 0a06 34       		.uleb128 0x34
 1928 0a07 C3050000 		.4byte	.LASF122
 1929 0a0b 19       		.byte	0x19
 1930 0a0c 19       		.byte	0x19
 1931 0a0d 110A0000 		.4byte	0xa11
 1932 0a11 18       		.uleb128 0x18
 1933 0a12 B0090000 		.4byte	0x9b0
 1934 0a16 34       		.uleb128 0x34
 1935 0a17 D5050000 		.4byte	.LASF123
 1936 0a1b 1A       		.byte	0x1a
 1937 0a1c 19       		.byte	0x19
 1938 0a1d 210A0000 		.4byte	0xa21
 1939 0a21 18       		.uleb128 0x18
 1940 0a22 B0090000 		.4byte	0x9b0
 1941 0a26 34       		.uleb128 0x34
 1942 0a27 E7050000 		.4byte	.LASF124
 1943 0a2b 1B       		.byte	0x1b
 1944 0a2c 19       		.byte	0x19
 1945 0a2d 310A0000 		.4byte	0xa31
 1946 0a31 18       		.uleb128 0x18
 1947 0a32 B0090000 		.4byte	0x9b0
 1948 0a36 34       		.uleb128 0x34
 1949 0a37 F9050000 		.4byte	.LASF125
 1950 0a3b 1C       		.byte	0x1c
 1951 0a3c 19       		.byte	0x19
 1952 0a3d 410A0000 		.4byte	0xa41
 1953 0a41 18       		.uleb128 0x18
 1954 0a42 B0090000 		.4byte	0x9b0
 1955 0a46 34       		.uleb128 0x34
 1956 0a47 69050000 		.4byte	.LASF126
 1957 0a4b 1D       		.byte	0x1d
 1958 0a4c 19       		.byte	0x19
 1959 0a4d 510A0000 		.4byte	0xa51
 1960 0a51 18       		.uleb128 0x18
 1961 0a52 B0090000 		.4byte	0x9b0
 1962 0a56 34       		.uleb128 0x34
 1963 0a57 2B000000 		.4byte	.LASF127
 1964 0a5b 1E       		.byte	0x1e
 1965 0a5c 19       		.byte	0x19
 1966 0a5d 610A0000 		.4byte	0xa61
 1967 0a61 18       		.uleb128 0x18
 1968 0a62 B0090000 		.4byte	0x9b0
 1969 0a66 34       		.uleb128 0x34
 1970 0a67 3D000000 		.4byte	.LASF128
 1971 0a6b 1F       		.byte	0x1f
 1972 0a6c 19       		.byte	0x19
 1973 0a6d 710A0000 		.4byte	0xa71
 1974 0a71 18       		.uleb128 0x18
 1975 0a72 B0090000 		.4byte	0x9b0
 1976 0a76 34       		.uleb128 0x34
 1977 0a77 4F000000 		.4byte	.LASF129
 1978 0a7b 20       		.byte	0x20
 1979 0a7c 19       		.byte	0x19
ARM GAS  /tmp/ccLwiMZb.s 			page 62


 1980 0a7d 810A0000 		.4byte	0xa81
 1981 0a81 18       		.uleb128 0x18
 1982 0a82 B0090000 		.4byte	0x9b0
 1983 0a86 10       		.uleb128 0x10
 1984 0a87 960A0000 		.4byte	0xa96
 1985 0a8b 960A0000 		.4byte	0xa96
 1986 0a8f 11       		.uleb128 0x11
 1987 0a90 2A040000 		.4byte	0x42a
 1988 0a94 0C       		.byte	0xc
 1989 0a95 00       		.byte	0
 1990 0a96 0A       		.uleb128 0xa
 1991 0a97 04       		.byte	0x4
 1992 0a98 9C0A0000 		.4byte	0xa9c
 1993 0a9c 18       		.uleb128 0x18
 1994 0a9d BB090000 		.4byte	0x9bb
 1995 0aa1 35       		.uleb128 0x35
 1996 0aa2 B8040000 		.4byte	.LASF130
 1997 0aa6 01       		.byte	0x1
 1998 0aa7 39       		.byte	0x39
 1999 0aa8 860A0000 		.4byte	0xa86
 2000 0aac 05       		.uleb128 0x5
 2001 0aad 03       		.byte	0x3
 2002 0aae 00000000 		.4byte	test_suite
 2003 0ab2 10       		.uleb128 0x10
 2004 0ab3 A2000000 		.4byte	0xa2
 2005 0ab7 C30A0000 		.4byte	0xac3
 2006 0abb 36       		.uleb128 0x36
 2007 0abc 2A040000 		.4byte	0x42a
 2008 0ac0 6706     		.2byte	0x667
 2009 0ac2 00       		.byte	0
 2010 0ac3 35       		.uleb128 0x35
 2011 0ac4 DF020000 		.4byte	.LASF131
 2012 0ac8 01       		.byte	0x1
 2013 0ac9 60       		.byte	0x60
 2014 0aca B20A0000 		.4byte	0xab2
 2015 0ace 05       		.uleb128 0x5
 2016 0acf 03       		.byte	0x3
 2017 0ad0 00000000 		.4byte	test_buffer
 2018 0ad4 10       		.uleb128 0x10
 2019 0ad5 25020000 		.4byte	0x225
 2020 0ad9 E40A0000 		.4byte	0xae4
 2021 0add 11       		.uleb128 0x11
 2022 0ade 2A040000 		.4byte	0x42a
 2023 0ae2 04       		.byte	0x4
 2024 0ae3 00       		.byte	0
 2025 0ae4 35       		.uleb128 0x35
 2026 0ae5 FC030000 		.4byte	.LASF132
 2027 0ae9 01       		.byte	0x1
 2028 0aea 65       		.byte	0x65
 2029 0aeb D40A0000 		.4byte	0xad4
 2030 0aef 05       		.uleb128 0x5
 2031 0af0 03       		.byte	0x3
 2032 0af1 00000000 		.4byte	threads
 2033 0af5 10       		.uleb128 0x10
 2034 0af6 02030000 		.4byte	0x302
 2035 0afa 050B0000 		.4byte	0xb05
 2036 0afe 11       		.uleb128 0x11
ARM GAS  /tmp/ccLwiMZb.s 			page 63


 2037 0aff 2A040000 		.4byte	0x42a
 2038 0b03 04       		.byte	0x4
 2039 0b04 00       		.byte	0
 2040 0b05 37       		.uleb128 0x37
 2041 0b06 776100   		.ascii	"wa\000"
 2042 0b09 01       		.byte	0x1
 2043 0b0a 6A       		.byte	0x6a
 2044 0b0b 150B0000 		.4byte	0xb15
 2045 0b0f 05       		.uleb128 0x5
 2046 0b10 03       		.byte	0x3
 2047 0b11 00000000 		.4byte	wa
 2048 0b15 18       		.uleb128 0x18
 2049 0b16 F50A0000 		.4byte	0xaf5
 2050 0b1a 38       		.uleb128 0x38
 2051 0b1b 7A010000 		.4byte	.LASF139
 2052 0b1f 21       		.byte	0x21
 2053 0b20 F7       		.byte	0xf7
 2054 0b21 2B0B0000 		.4byte	0xb2b
 2055 0b25 0D       		.uleb128 0xd
 2056 0b26 25020000 		.4byte	0x225
 2057 0b2a 00       		.byte	0
 2058 0b2b 39       		.uleb128 0x39
 2059 0b2c 32050000 		.4byte	.LASF140
 2060 0b30 21       		.byte	0x21
 2061 0b31 F4       		.byte	0xf4
 2062 0b32 05010000 		.4byte	0x105
 2063 0b36 400B0000 		.4byte	0xb40
 2064 0b3a 0D       		.uleb128 0xd
 2065 0b3b 25020000 		.4byte	0x225
 2066 0b3f 00       		.byte	0
 2067 0b40 3A       		.uleb128 0x3a
 2068 0b41 42040000 		.4byte	.LASF141
 2069 0b45 21       		.byte	0x21
 2070 0b46 0001     		.2byte	0x100
 2071 0b48 0D       		.uleb128 0xd
 2072 0b49 26010000 		.4byte	0x126
 2073 0b4d 00       		.byte	0
 2074 0b4e 00       		.byte	0
 2075              		.section	.debug_abbrev,"",%progbits
 2076              	.Ldebug_abbrev0:
 2077 0000 01       		.uleb128 0x1
 2078 0001 11       		.uleb128 0x11
 2079 0002 01       		.byte	0x1
 2080 0003 25       		.uleb128 0x25
 2081 0004 0E       		.uleb128 0xe
 2082 0005 13       		.uleb128 0x13
 2083 0006 0B       		.uleb128 0xb
 2084 0007 03       		.uleb128 0x3
 2085 0008 0E       		.uleb128 0xe
 2086 0009 1B       		.uleb128 0x1b
 2087 000a 0E       		.uleb128 0xe
 2088 000b 55       		.uleb128 0x55
 2089 000c 17       		.uleb128 0x17
 2090 000d 11       		.uleb128 0x11
 2091 000e 01       		.uleb128 0x1
 2092 000f 10       		.uleb128 0x10
 2093 0010 17       		.uleb128 0x17
ARM GAS  /tmp/ccLwiMZb.s 			page 64


 2094 0011 00       		.byte	0
 2095 0012 00       		.byte	0
 2096 0013 02       		.uleb128 0x2
 2097 0014 24       		.uleb128 0x24
 2098 0015 00       		.byte	0
 2099 0016 0B       		.uleb128 0xb
 2100 0017 0B       		.uleb128 0xb
 2101 0018 3E       		.uleb128 0x3e
 2102 0019 0B       		.uleb128 0xb
 2103 001a 03       		.uleb128 0x3
 2104 001b 08       		.uleb128 0x8
 2105 001c 00       		.byte	0
 2106 001d 00       		.byte	0
 2107 001e 03       		.uleb128 0x3
 2108 001f 16       		.uleb128 0x16
 2109 0020 00       		.byte	0
 2110 0021 03       		.uleb128 0x3
 2111 0022 0E       		.uleb128 0xe
 2112 0023 3A       		.uleb128 0x3a
 2113 0024 0B       		.uleb128 0xb
 2114 0025 3B       		.uleb128 0x3b
 2115 0026 0B       		.uleb128 0xb
 2116 0027 49       		.uleb128 0x49
 2117 0028 13       		.uleb128 0x13
 2118 0029 00       		.byte	0
 2119 002a 00       		.byte	0
 2120 002b 04       		.uleb128 0x4
 2121 002c 24       		.uleb128 0x24
 2122 002d 00       		.byte	0
 2123 002e 0B       		.uleb128 0xb
 2124 002f 0B       		.uleb128 0xb
 2125 0030 3E       		.uleb128 0x3e
 2126 0031 0B       		.uleb128 0xb
 2127 0032 03       		.uleb128 0x3
 2128 0033 0E       		.uleb128 0xe
 2129 0034 00       		.byte	0
 2130 0035 00       		.byte	0
 2131 0036 05       		.uleb128 0x5
 2132 0037 13       		.uleb128 0x13
 2133 0038 01       		.byte	0x1
 2134 0039 03       		.uleb128 0x3
 2135 003a 0E       		.uleb128 0xe
 2136 003b 0B       		.uleb128 0xb
 2137 003c 0B       		.uleb128 0xb
 2138 003d 3A       		.uleb128 0x3a
 2139 003e 0B       		.uleb128 0xb
 2140 003f 3B       		.uleb128 0x3b
 2141 0040 0B       		.uleb128 0xb
 2142 0041 01       		.uleb128 0x1
 2143 0042 13       		.uleb128 0x13
 2144 0043 00       		.byte	0
 2145 0044 00       		.byte	0
 2146 0045 06       		.uleb128 0x6
 2147 0046 0D       		.uleb128 0xd
 2148 0047 00       		.byte	0
 2149 0048 03       		.uleb128 0x3
 2150 0049 0E       		.uleb128 0xe
ARM GAS  /tmp/ccLwiMZb.s 			page 65


 2151 004a 3A       		.uleb128 0x3a
 2152 004b 0B       		.uleb128 0xb
 2153 004c 3B       		.uleb128 0x3b
 2154 004d 0B       		.uleb128 0xb
 2155 004e 49       		.uleb128 0x49
 2156 004f 13       		.uleb128 0x13
 2157 0050 38       		.uleb128 0x38
 2158 0051 0B       		.uleb128 0xb
 2159 0052 00       		.byte	0
 2160 0053 00       		.byte	0
 2161 0054 07       		.uleb128 0x7
 2162 0055 0D       		.uleb128 0xd
 2163 0056 00       		.byte	0
 2164 0057 03       		.uleb128 0x3
 2165 0058 08       		.uleb128 0x8
 2166 0059 3A       		.uleb128 0x3a
 2167 005a 0B       		.uleb128 0xb
 2168 005b 3B       		.uleb128 0x3b
 2169 005c 0B       		.uleb128 0xb
 2170 005d 49       		.uleb128 0x49
 2171 005e 13       		.uleb128 0x13
 2172 005f 38       		.uleb128 0x38
 2173 0060 0B       		.uleb128 0xb
 2174 0061 00       		.byte	0
 2175 0062 00       		.byte	0
 2176 0063 08       		.uleb128 0x8
 2177 0064 0D       		.uleb128 0xd
 2178 0065 00       		.byte	0
 2179 0066 03       		.uleb128 0x3
 2180 0067 08       		.uleb128 0x8
 2181 0068 3A       		.uleb128 0x3a
 2182 0069 0B       		.uleb128 0xb
 2183 006a 3B       		.uleb128 0x3b
 2184 006b 05       		.uleb128 0x5
 2185 006c 49       		.uleb128 0x49
 2186 006d 13       		.uleb128 0x13
 2187 006e 38       		.uleb128 0x38
 2188 006f 0B       		.uleb128 0xb
 2189 0070 00       		.byte	0
 2190 0071 00       		.byte	0
 2191 0072 09       		.uleb128 0x9
 2192 0073 0D       		.uleb128 0xd
 2193 0074 00       		.byte	0
 2194 0075 03       		.uleb128 0x3
 2195 0076 0E       		.uleb128 0xe
 2196 0077 3A       		.uleb128 0x3a
 2197 0078 0B       		.uleb128 0xb
 2198 0079 3B       		.uleb128 0x3b
 2199 007a 05       		.uleb128 0x5
 2200 007b 49       		.uleb128 0x49
 2201 007c 13       		.uleb128 0x13
 2202 007d 38       		.uleb128 0x38
 2203 007e 0B       		.uleb128 0xb
 2204 007f 00       		.byte	0
 2205 0080 00       		.byte	0
 2206 0081 0A       		.uleb128 0xa
 2207 0082 0F       		.uleb128 0xf
ARM GAS  /tmp/ccLwiMZb.s 			page 66


 2208 0083 00       		.byte	0
 2209 0084 0B       		.uleb128 0xb
 2210 0085 0B       		.uleb128 0xb
 2211 0086 49       		.uleb128 0x49
 2212 0087 13       		.uleb128 0x13
 2213 0088 00       		.byte	0
 2214 0089 00       		.byte	0
 2215 008a 0B       		.uleb128 0xb
 2216 008b 13       		.uleb128 0x13
 2217 008c 01       		.byte	0x1
 2218 008d 03       		.uleb128 0x3
 2219 008e 0E       		.uleb128 0xe
 2220 008f 0B       		.uleb128 0xb
 2221 0090 0B       		.uleb128 0xb
 2222 0091 3A       		.uleb128 0x3a
 2223 0092 0B       		.uleb128 0xb
 2224 0093 3B       		.uleb128 0x3b
 2225 0094 05       		.uleb128 0x5
 2226 0095 01       		.uleb128 0x1
 2227 0096 13       		.uleb128 0x13
 2228 0097 00       		.byte	0
 2229 0098 00       		.byte	0
 2230 0099 0C       		.uleb128 0xc
 2231 009a 15       		.uleb128 0x15
 2232 009b 01       		.byte	0x1
 2233 009c 27       		.uleb128 0x27
 2234 009d 19       		.uleb128 0x19
 2235 009e 01       		.uleb128 0x1
 2236 009f 13       		.uleb128 0x13
 2237 00a0 00       		.byte	0
 2238 00a1 00       		.byte	0
 2239 00a2 0D       		.uleb128 0xd
 2240 00a3 05       		.uleb128 0x5
 2241 00a4 00       		.byte	0
 2242 00a5 49       		.uleb128 0x49
 2243 00a6 13       		.uleb128 0x13
 2244 00a7 00       		.byte	0
 2245 00a8 00       		.byte	0
 2246 00a9 0E       		.uleb128 0xe
 2247 00aa 0F       		.uleb128 0xf
 2248 00ab 00       		.byte	0
 2249 00ac 0B       		.uleb128 0xb
 2250 00ad 0B       		.uleb128 0xb
 2251 00ae 00       		.byte	0
 2252 00af 00       		.byte	0
 2253 00b0 0F       		.uleb128 0xf
 2254 00b1 35       		.uleb128 0x35
 2255 00b2 00       		.byte	0
 2256 00b3 49       		.uleb128 0x49
 2257 00b4 13       		.uleb128 0x13
 2258 00b5 00       		.byte	0
 2259 00b6 00       		.byte	0
 2260 00b7 10       		.uleb128 0x10
 2261 00b8 01       		.uleb128 0x1
 2262 00b9 01       		.byte	0x1
 2263 00ba 49       		.uleb128 0x49
 2264 00bb 13       		.uleb128 0x13
ARM GAS  /tmp/ccLwiMZb.s 			page 67


 2265 00bc 01       		.uleb128 0x1
 2266 00bd 13       		.uleb128 0x13
 2267 00be 00       		.byte	0
 2268 00bf 00       		.byte	0
 2269 00c0 11       		.uleb128 0x11
 2270 00c1 21       		.uleb128 0x21
 2271 00c2 00       		.byte	0
 2272 00c3 49       		.uleb128 0x49
 2273 00c4 13       		.uleb128 0x13
 2274 00c5 2F       		.uleb128 0x2f
 2275 00c6 0B       		.uleb128 0xb
 2276 00c7 00       		.byte	0
 2277 00c8 00       		.byte	0
 2278 00c9 12       		.uleb128 0x12
 2279 00ca 13       		.uleb128 0x13
 2280 00cb 01       		.byte	0x1
 2281 00cc 0B       		.uleb128 0xb
 2282 00cd 0B       		.uleb128 0xb
 2283 00ce 3A       		.uleb128 0x3a
 2284 00cf 0B       		.uleb128 0xb
 2285 00d0 3B       		.uleb128 0x3b
 2286 00d1 05       		.uleb128 0x5
 2287 00d2 01       		.uleb128 0x1
 2288 00d3 13       		.uleb128 0x13
 2289 00d4 00       		.byte	0
 2290 00d5 00       		.byte	0
 2291 00d6 13       		.uleb128 0x13
 2292 00d7 16       		.uleb128 0x16
 2293 00d8 00       		.byte	0
 2294 00d9 03       		.uleb128 0x3
 2295 00da 0E       		.uleb128 0xe
 2296 00db 3A       		.uleb128 0x3a
 2297 00dc 0B       		.uleb128 0xb
 2298 00dd 3B       		.uleb128 0x3b
 2299 00de 05       		.uleb128 0x5
 2300 00df 49       		.uleb128 0x49
 2301 00e0 13       		.uleb128 0x13
 2302 00e1 00       		.byte	0
 2303 00e2 00       		.byte	0
 2304 00e3 14       		.uleb128 0x14
 2305 00e4 13       		.uleb128 0x13
 2306 00e5 01       		.byte	0x1
 2307 00e6 0B       		.uleb128 0xb
 2308 00e7 0B       		.uleb128 0xb
 2309 00e8 3A       		.uleb128 0x3a
 2310 00e9 0B       		.uleb128 0xb
 2311 00ea 3B       		.uleb128 0x3b
 2312 00eb 0B       		.uleb128 0xb
 2313 00ec 01       		.uleb128 0x1
 2314 00ed 13       		.uleb128 0x13
 2315 00ee 00       		.byte	0
 2316 00ef 00       		.byte	0
 2317 00f0 15       		.uleb128 0x15
 2318 00f1 17       		.uleb128 0x17
 2319 00f2 01       		.byte	0x1
 2320 00f3 0B       		.uleb128 0xb
 2321 00f4 0B       		.uleb128 0xb
ARM GAS  /tmp/ccLwiMZb.s 			page 68


 2322 00f5 3A       		.uleb128 0x3a
 2323 00f6 0B       		.uleb128 0xb
 2324 00f7 3B       		.uleb128 0x3b
 2325 00f8 0B       		.uleb128 0xb
 2326 00f9 01       		.uleb128 0x1
 2327 00fa 13       		.uleb128 0x13
 2328 00fb 00       		.byte	0
 2329 00fc 00       		.byte	0
 2330 00fd 16       		.uleb128 0x16
 2331 00fe 0D       		.uleb128 0xd
 2332 00ff 00       		.byte	0
 2333 0100 03       		.uleb128 0x3
 2334 0101 0E       		.uleb128 0xe
 2335 0102 3A       		.uleb128 0x3a
 2336 0103 0B       		.uleb128 0xb
 2337 0104 3B       		.uleb128 0x3b
 2338 0105 0B       		.uleb128 0xb
 2339 0106 49       		.uleb128 0x49
 2340 0107 13       		.uleb128 0x13
 2341 0108 00       		.byte	0
 2342 0109 00       		.byte	0
 2343 010a 17       		.uleb128 0x17
 2344 010b 0D       		.uleb128 0xd
 2345 010c 00       		.byte	0
 2346 010d 03       		.uleb128 0x3
 2347 010e 0E       		.uleb128 0xe
 2348 010f 3A       		.uleb128 0x3a
 2349 0110 0B       		.uleb128 0xb
 2350 0111 3B       		.uleb128 0x3b
 2351 0112 05       		.uleb128 0x5
 2352 0113 49       		.uleb128 0x49
 2353 0114 13       		.uleb128 0x13
 2354 0115 00       		.byte	0
 2355 0116 00       		.byte	0
 2356 0117 18       		.uleb128 0x18
 2357 0118 26       		.uleb128 0x26
 2358 0119 00       		.byte	0
 2359 011a 49       		.uleb128 0x49
 2360 011b 13       		.uleb128 0x13
 2361 011c 00       		.byte	0
 2362 011d 00       		.byte	0
 2363 011e 19       		.uleb128 0x19
 2364 011f 15       		.uleb128 0x15
 2365 0120 00       		.byte	0
 2366 0121 27       		.uleb128 0x27
 2367 0122 19       		.uleb128 0x19
 2368 0123 00       		.byte	0
 2369 0124 00       		.byte	0
 2370 0125 1A       		.uleb128 0x1a
 2371 0126 2E       		.uleb128 0x2e
 2372 0127 01       		.byte	0x1
 2373 0128 03       		.uleb128 0x3
 2374 0129 0E       		.uleb128 0xe
 2375 012a 3A       		.uleb128 0x3a
 2376 012b 0B       		.uleb128 0xb
 2377 012c 3B       		.uleb128 0x3b
 2378 012d 05       		.uleb128 0x5
ARM GAS  /tmp/ccLwiMZb.s 			page 69


 2379 012e 27       		.uleb128 0x27
 2380 012f 19       		.uleb128 0x19
 2381 0130 20       		.uleb128 0x20
 2382 0131 0B       		.uleb128 0xb
 2383 0132 01       		.uleb128 0x1
 2384 0133 13       		.uleb128 0x13
 2385 0134 00       		.byte	0
 2386 0135 00       		.byte	0
 2387 0136 1B       		.uleb128 0x1b
 2388 0137 05       		.uleb128 0x5
 2389 0138 00       		.byte	0
 2390 0139 03       		.uleb128 0x3
 2391 013a 0E       		.uleb128 0xe
 2392 013b 3A       		.uleb128 0x3a
 2393 013c 0B       		.uleb128 0xb
 2394 013d 3B       		.uleb128 0x3b
 2395 013e 05       		.uleb128 0x5
 2396 013f 49       		.uleb128 0x49
 2397 0140 13       		.uleb128 0x13
 2398 0141 00       		.byte	0
 2399 0142 00       		.byte	0
 2400 0143 1C       		.uleb128 0x1c
 2401 0144 2E       		.uleb128 0x2e
 2402 0145 00       		.byte	0
 2403 0146 03       		.uleb128 0x3
 2404 0147 0E       		.uleb128 0xe
 2405 0148 3A       		.uleb128 0x3a
 2406 0149 0B       		.uleb128 0xb
 2407 014a 3B       		.uleb128 0x3b
 2408 014b 0B       		.uleb128 0xb
 2409 014c 27       		.uleb128 0x27
 2410 014d 19       		.uleb128 0x19
 2411 014e 49       		.uleb128 0x49
 2412 014f 13       		.uleb128 0x13
 2413 0150 20       		.uleb128 0x20
 2414 0151 0B       		.uleb128 0xb
 2415 0152 00       		.byte	0
 2416 0153 00       		.byte	0
 2417 0154 1D       		.uleb128 0x1d
 2418 0155 2E       		.uleb128 0x2e
 2419 0156 00       		.byte	0
 2420 0157 03       		.uleb128 0x3
 2421 0158 0E       		.uleb128 0xe
 2422 0159 3A       		.uleb128 0x3a
 2423 015a 0B       		.uleb128 0xb
 2424 015b 3B       		.uleb128 0x3b
 2425 015c 05       		.uleb128 0x5
 2426 015d 27       		.uleb128 0x27
 2427 015e 19       		.uleb128 0x19
 2428 015f 20       		.uleb128 0x20
 2429 0160 0B       		.uleb128 0xb
 2430 0161 00       		.byte	0
 2431 0162 00       		.byte	0
 2432 0163 1E       		.uleb128 0x1e
 2433 0164 34       		.uleb128 0x34
 2434 0165 00       		.byte	0
 2435 0166 03       		.uleb128 0x3
ARM GAS  /tmp/ccLwiMZb.s 			page 70


 2436 0167 0E       		.uleb128 0xe
 2437 0168 49       		.uleb128 0x49
 2438 0169 13       		.uleb128 0x13
 2439 016a 34       		.uleb128 0x34
 2440 016b 19       		.uleb128 0x19
 2441 016c 1C       		.uleb128 0x1c
 2442 016d 0E       		.uleb128 0xe
 2443 016e 00       		.byte	0
 2444 016f 00       		.byte	0
 2445 0170 1F       		.uleb128 0x1f
 2446 0171 2E       		.uleb128 0x2e
 2447 0172 01       		.byte	0x1
 2448 0173 03       		.uleb128 0x3
 2449 0174 0E       		.uleb128 0xe
 2450 0175 3A       		.uleb128 0x3a
 2451 0176 0B       		.uleb128 0xb
 2452 0177 3B       		.uleb128 0x3b
 2453 0178 0B       		.uleb128 0xb
 2454 0179 27       		.uleb128 0x27
 2455 017a 19       		.uleb128 0x19
 2456 017b 49       		.uleb128 0x49
 2457 017c 13       		.uleb128 0x13
 2458 017d 20       		.uleb128 0x20
 2459 017e 0B       		.uleb128 0xb
 2460 017f 01       		.uleb128 0x1
 2461 0180 13       		.uleb128 0x13
 2462 0181 00       		.byte	0
 2463 0182 00       		.byte	0
 2464 0183 20       		.uleb128 0x20
 2465 0184 34       		.uleb128 0x34
 2466 0185 00       		.byte	0
 2467 0186 03       		.uleb128 0x3
 2468 0187 0E       		.uleb128 0xe
 2469 0188 3A       		.uleb128 0x3a
 2470 0189 0B       		.uleb128 0xb
 2471 018a 3B       		.uleb128 0x3b
 2472 018b 0B       		.uleb128 0xb
 2473 018c 49       		.uleb128 0x49
 2474 018d 13       		.uleb128 0x13
 2475 018e 00       		.byte	0
 2476 018f 00       		.byte	0
 2477 0190 21       		.uleb128 0x21
 2478 0191 2E       		.uleb128 0x2e
 2479 0192 01       		.byte	0x1
 2480 0193 3F       		.uleb128 0x3f
 2481 0194 19       		.uleb128 0x19
 2482 0195 03       		.uleb128 0x3
 2483 0196 0E       		.uleb128 0xe
 2484 0197 3A       		.uleb128 0x3a
 2485 0198 0B       		.uleb128 0xb
 2486 0199 3B       		.uleb128 0x3b
 2487 019a 0B       		.uleb128 0xb
 2488 019b 27       		.uleb128 0x27
 2489 019c 19       		.uleb128 0x19
 2490 019d 11       		.uleb128 0x11
 2491 019e 01       		.uleb128 0x1
 2492 019f 12       		.uleb128 0x12
ARM GAS  /tmp/ccLwiMZb.s 			page 71


 2493 01a0 06       		.uleb128 0x6
 2494 01a1 40       		.uleb128 0x40
 2495 01a2 18       		.uleb128 0x18
 2496 01a3 9742     		.uleb128 0x2117
 2497 01a5 19       		.uleb128 0x19
 2498 01a6 01       		.uleb128 0x1
 2499 01a7 13       		.uleb128 0x13
 2500 01a8 00       		.byte	0
 2501 01a9 00       		.byte	0
 2502 01aa 22       		.uleb128 0x22
 2503 01ab 34       		.uleb128 0x34
 2504 01ac 00       		.byte	0
 2505 01ad 03       		.uleb128 0x3
 2506 01ae 08       		.uleb128 0x8
 2507 01af 3A       		.uleb128 0x3a
 2508 01b0 0B       		.uleb128 0xb
 2509 01b1 3B       		.uleb128 0x3b
 2510 01b2 0B       		.uleb128 0xb
 2511 01b3 49       		.uleb128 0x49
 2512 01b4 13       		.uleb128 0x13
 2513 01b5 02       		.uleb128 0x2
 2514 01b6 17       		.uleb128 0x17
 2515 01b7 00       		.byte	0
 2516 01b8 00       		.byte	0
 2517 01b9 23       		.uleb128 0x23
 2518 01ba 898201   		.uleb128 0x4109
 2519 01bd 00       		.byte	0
 2520 01be 11       		.uleb128 0x11
 2521 01bf 01       		.uleb128 0x1
 2522 01c0 31       		.uleb128 0x31
 2523 01c1 13       		.uleb128 0x13
 2524 01c2 00       		.byte	0
 2525 01c3 00       		.byte	0
 2526 01c4 24       		.uleb128 0x24
 2527 01c5 2E       		.uleb128 0x2e
 2528 01c6 01       		.byte	0x1
 2529 01c7 3F       		.uleb128 0x3f
 2530 01c8 19       		.uleb128 0x19
 2531 01c9 03       		.uleb128 0x3
 2532 01ca 0E       		.uleb128 0xe
 2533 01cb 3A       		.uleb128 0x3a
 2534 01cc 0B       		.uleb128 0xb
 2535 01cd 3B       		.uleb128 0x3b
 2536 01ce 0B       		.uleb128 0xb
 2537 01cf 27       		.uleb128 0x27
 2538 01d0 19       		.uleb128 0x19
 2539 01d1 49       		.uleb128 0x49
 2540 01d2 13       		.uleb128 0x13
 2541 01d3 11       		.uleb128 0x11
 2542 01d4 01       		.uleb128 0x1
 2543 01d5 12       		.uleb128 0x12
 2544 01d6 06       		.uleb128 0x6
 2545 01d7 40       		.uleb128 0x40
 2546 01d8 18       		.uleb128 0x18
 2547 01d9 9742     		.uleb128 0x2117
 2548 01db 19       		.uleb128 0x19
 2549 01dc 01       		.uleb128 0x1
ARM GAS  /tmp/ccLwiMZb.s 			page 72


 2550 01dd 13       		.uleb128 0x13
 2551 01de 00       		.byte	0
 2552 01df 00       		.byte	0
 2553 01e0 25       		.uleb128 0x25
 2554 01e1 1D       		.uleb128 0x1d
 2555 01e2 01       		.byte	0x1
 2556 01e3 31       		.uleb128 0x31
 2557 01e4 13       		.uleb128 0x13
 2558 01e5 11       		.uleb128 0x11
 2559 01e6 01       		.uleb128 0x1
 2560 01e7 12       		.uleb128 0x12
 2561 01e8 06       		.uleb128 0x6
 2562 01e9 58       		.uleb128 0x58
 2563 01ea 0B       		.uleb128 0xb
 2564 01eb 59       		.uleb128 0x59
 2565 01ec 0B       		.uleb128 0xb
 2566 01ed 01       		.uleb128 0x1
 2567 01ee 13       		.uleb128 0x13
 2568 01ef 00       		.byte	0
 2569 01f0 00       		.byte	0
 2570 01f1 26       		.uleb128 0x26
 2571 01f2 0B       		.uleb128 0xb
 2572 01f3 01       		.byte	0x1
 2573 01f4 11       		.uleb128 0x11
 2574 01f5 01       		.uleb128 0x1
 2575 01f6 12       		.uleb128 0x12
 2576 01f7 06       		.uleb128 0x6
 2577 01f8 00       		.byte	0
 2578 01f9 00       		.byte	0
 2579 01fa 27       		.uleb128 0x27
 2580 01fb 34       		.uleb128 0x34
 2581 01fc 00       		.byte	0
 2582 01fd 31       		.uleb128 0x31
 2583 01fe 13       		.uleb128 0x13
 2584 01ff 00       		.byte	0
 2585 0200 00       		.byte	0
 2586 0201 28       		.uleb128 0x28
 2587 0202 1D       		.uleb128 0x1d
 2588 0203 01       		.byte	0x1
 2589 0204 31       		.uleb128 0x31
 2590 0205 13       		.uleb128 0x13
 2591 0206 11       		.uleb128 0x11
 2592 0207 01       		.uleb128 0x1
 2593 0208 12       		.uleb128 0x12
 2594 0209 06       		.uleb128 0x6
 2595 020a 58       		.uleb128 0x58
 2596 020b 0B       		.uleb128 0xb
 2597 020c 59       		.uleb128 0x59
 2598 020d 05       		.uleb128 0x5
 2599 020e 00       		.byte	0
 2600 020f 00       		.byte	0
 2601 0210 29       		.uleb128 0x29
 2602 0211 05       		.uleb128 0x5
 2603 0212 00       		.byte	0
 2604 0213 31       		.uleb128 0x31
 2605 0214 13       		.uleb128 0x13
 2606 0215 1C       		.uleb128 0x1c
ARM GAS  /tmp/ccLwiMZb.s 			page 73


 2607 0216 0B       		.uleb128 0xb
 2608 0217 00       		.byte	0
 2609 0218 00       		.byte	0
 2610 0219 2A       		.uleb128 0x2a
 2611 021a 1D       		.uleb128 0x1d
 2612 021b 01       		.byte	0x1
 2613 021c 31       		.uleb128 0x31
 2614 021d 13       		.uleb128 0x13
 2615 021e 52       		.uleb128 0x52
 2616 021f 01       		.uleb128 0x1
 2617 0220 55       		.uleb128 0x55
 2618 0221 17       		.uleb128 0x17
 2619 0222 58       		.uleb128 0x58
 2620 0223 0B       		.uleb128 0xb
 2621 0224 59       		.uleb128 0x59
 2622 0225 0B       		.uleb128 0xb
 2623 0226 01       		.uleb128 0x1
 2624 0227 13       		.uleb128 0x13
 2625 0228 00       		.byte	0
 2626 0229 00       		.byte	0
 2627 022a 2B       		.uleb128 0x2b
 2628 022b 1D       		.uleb128 0x1d
 2629 022c 01       		.byte	0x1
 2630 022d 31       		.uleb128 0x31
 2631 022e 13       		.uleb128 0x13
 2632 022f 52       		.uleb128 0x52
 2633 0230 01       		.uleb128 0x1
 2634 0231 55       		.uleb128 0x55
 2635 0232 17       		.uleb128 0x17
 2636 0233 58       		.uleb128 0x58
 2637 0234 0B       		.uleb128 0xb
 2638 0235 59       		.uleb128 0x59
 2639 0236 0B       		.uleb128 0xb
 2640 0237 00       		.byte	0
 2641 0238 00       		.byte	0
 2642 0239 2C       		.uleb128 0x2c
 2643 023a 1D       		.uleb128 0x1d
 2644 023b 00       		.byte	0
 2645 023c 31       		.uleb128 0x31
 2646 023d 13       		.uleb128 0x13
 2647 023e 52       		.uleb128 0x52
 2648 023f 01       		.uleb128 0x1
 2649 0240 55       		.uleb128 0x55
 2650 0241 17       		.uleb128 0x17
 2651 0242 58       		.uleb128 0x58
 2652 0243 0B       		.uleb128 0xb
 2653 0244 59       		.uleb128 0x59
 2654 0245 0B       		.uleb128 0xb
 2655 0246 00       		.byte	0
 2656 0247 00       		.byte	0
 2657 0248 2D       		.uleb128 0x2d
 2658 0249 0B       		.uleb128 0xb
 2659 024a 01       		.byte	0x1
 2660 024b 55       		.uleb128 0x55
 2661 024c 17       		.uleb128 0x17
 2662 024d 00       		.byte	0
 2663 024e 00       		.byte	0
ARM GAS  /tmp/ccLwiMZb.s 			page 74


 2664 024f 2E       		.uleb128 0x2e
 2665 0250 1D       		.uleb128 0x1d
 2666 0251 01       		.byte	0x1
 2667 0252 31       		.uleb128 0x31
 2668 0253 13       		.uleb128 0x13
 2669 0254 52       		.uleb128 0x52
 2670 0255 01       		.uleb128 0x1
 2671 0256 55       		.uleb128 0x55
 2672 0257 17       		.uleb128 0x17
 2673 0258 58       		.uleb128 0x58
 2674 0259 0B       		.uleb128 0xb
 2675 025a 59       		.uleb128 0x59
 2676 025b 05       		.uleb128 0x5
 2677 025c 00       		.byte	0
 2678 025d 00       		.byte	0
 2679 025e 2F       		.uleb128 0x2f
 2680 025f 898201   		.uleb128 0x4109
 2681 0262 01       		.byte	0x1
 2682 0263 11       		.uleb128 0x11
 2683 0264 01       		.uleb128 0x1
 2684 0265 31       		.uleb128 0x31
 2685 0266 13       		.uleb128 0x13
 2686 0267 00       		.byte	0
 2687 0268 00       		.byte	0
 2688 0269 30       		.uleb128 0x30
 2689 026a 8A8201   		.uleb128 0x410a
 2690 026d 00       		.byte	0
 2691 026e 02       		.uleb128 0x2
 2692 026f 18       		.uleb128 0x18
 2693 0270 9142     		.uleb128 0x2111
 2694 0272 18       		.uleb128 0x18
 2695 0273 00       		.byte	0
 2696 0274 00       		.byte	0
 2697 0275 31       		.uleb128 0x31
 2698 0276 34       		.uleb128 0x34
 2699 0277 00       		.byte	0
 2700 0278 03       		.uleb128 0x3
 2701 0279 0E       		.uleb128 0xe
 2702 027a 3A       		.uleb128 0x3a
 2703 027b 0B       		.uleb128 0xb
 2704 027c 3B       		.uleb128 0x3b
 2705 027d 05       		.uleb128 0x5
 2706 027e 49       		.uleb128 0x49
 2707 027f 13       		.uleb128 0x13
 2708 0280 3F       		.uleb128 0x3f
 2709 0281 19       		.uleb128 0x19
 2710 0282 3C       		.uleb128 0x3c
 2711 0283 19       		.uleb128 0x19
 2712 0284 00       		.byte	0
 2713 0285 00       		.byte	0
 2714 0286 32       		.uleb128 0x32
 2715 0287 34       		.uleb128 0x34
 2716 0288 00       		.byte	0
 2717 0289 03       		.uleb128 0x3
 2718 028a 08       		.uleb128 0x8
 2719 028b 3A       		.uleb128 0x3a
 2720 028c 0B       		.uleb128 0xb
ARM GAS  /tmp/ccLwiMZb.s 			page 75


 2721 028d 3B       		.uleb128 0x3b
 2722 028e 05       		.uleb128 0x5
 2723 028f 49       		.uleb128 0x49
 2724 0290 13       		.uleb128 0x13
 2725 0291 3F       		.uleb128 0x3f
 2726 0292 19       		.uleb128 0x19
 2727 0293 3C       		.uleb128 0x3c
 2728 0294 19       		.uleb128 0x19
 2729 0295 00       		.byte	0
 2730 0296 00       		.byte	0
 2731 0297 33       		.uleb128 0x33
 2732 0298 21       		.uleb128 0x21
 2733 0299 00       		.byte	0
 2734 029a 00       		.byte	0
 2735 029b 00       		.byte	0
 2736 029c 34       		.uleb128 0x34
 2737 029d 34       		.uleb128 0x34
 2738 029e 00       		.byte	0
 2739 029f 03       		.uleb128 0x3
 2740 02a0 0E       		.uleb128 0xe
 2741 02a1 3A       		.uleb128 0x3a
 2742 02a2 0B       		.uleb128 0xb
 2743 02a3 3B       		.uleb128 0x3b
 2744 02a4 0B       		.uleb128 0xb
 2745 02a5 49       		.uleb128 0x49
 2746 02a6 13       		.uleb128 0x13
 2747 02a7 3F       		.uleb128 0x3f
 2748 02a8 19       		.uleb128 0x19
 2749 02a9 3C       		.uleb128 0x3c
 2750 02aa 19       		.uleb128 0x19
 2751 02ab 00       		.byte	0
 2752 02ac 00       		.byte	0
 2753 02ad 35       		.uleb128 0x35
 2754 02ae 34       		.uleb128 0x34
 2755 02af 00       		.byte	0
 2756 02b0 03       		.uleb128 0x3
 2757 02b1 0E       		.uleb128 0xe
 2758 02b2 3A       		.uleb128 0x3a
 2759 02b3 0B       		.uleb128 0xb
 2760 02b4 3B       		.uleb128 0x3b
 2761 02b5 0B       		.uleb128 0xb
 2762 02b6 49       		.uleb128 0x49
 2763 02b7 13       		.uleb128 0x13
 2764 02b8 3F       		.uleb128 0x3f
 2765 02b9 19       		.uleb128 0x19
 2766 02ba 02       		.uleb128 0x2
 2767 02bb 18       		.uleb128 0x18
 2768 02bc 00       		.byte	0
 2769 02bd 00       		.byte	0
 2770 02be 36       		.uleb128 0x36
 2771 02bf 21       		.uleb128 0x21
 2772 02c0 00       		.byte	0
 2773 02c1 49       		.uleb128 0x49
 2774 02c2 13       		.uleb128 0x13
 2775 02c3 2F       		.uleb128 0x2f
 2776 02c4 05       		.uleb128 0x5
 2777 02c5 00       		.byte	0
ARM GAS  /tmp/ccLwiMZb.s 			page 76


 2778 02c6 00       		.byte	0
 2779 02c7 37       		.uleb128 0x37
 2780 02c8 34       		.uleb128 0x34
 2781 02c9 00       		.byte	0
 2782 02ca 03       		.uleb128 0x3
 2783 02cb 08       		.uleb128 0x8
 2784 02cc 3A       		.uleb128 0x3a
 2785 02cd 0B       		.uleb128 0xb
 2786 02ce 3B       		.uleb128 0x3b
 2787 02cf 0B       		.uleb128 0xb
 2788 02d0 49       		.uleb128 0x49
 2789 02d1 13       		.uleb128 0x13
 2790 02d2 3F       		.uleb128 0x3f
 2791 02d3 19       		.uleb128 0x19
 2792 02d4 02       		.uleb128 0x2
 2793 02d5 18       		.uleb128 0x18
 2794 02d6 00       		.byte	0
 2795 02d7 00       		.byte	0
 2796 02d8 38       		.uleb128 0x38
 2797 02d9 2E       		.uleb128 0x2e
 2798 02da 01       		.byte	0x1
 2799 02db 3F       		.uleb128 0x3f
 2800 02dc 19       		.uleb128 0x19
 2801 02dd 03       		.uleb128 0x3
 2802 02de 0E       		.uleb128 0xe
 2803 02df 3A       		.uleb128 0x3a
 2804 02e0 0B       		.uleb128 0xb
 2805 02e1 3B       		.uleb128 0x3b
 2806 02e2 0B       		.uleb128 0xb
 2807 02e3 27       		.uleb128 0x27
 2808 02e4 19       		.uleb128 0x19
 2809 02e5 3C       		.uleb128 0x3c
 2810 02e6 19       		.uleb128 0x19
 2811 02e7 01       		.uleb128 0x1
 2812 02e8 13       		.uleb128 0x13
 2813 02e9 00       		.byte	0
 2814 02ea 00       		.byte	0
 2815 02eb 39       		.uleb128 0x39
 2816 02ec 2E       		.uleb128 0x2e
 2817 02ed 01       		.byte	0x1
 2818 02ee 3F       		.uleb128 0x3f
 2819 02ef 19       		.uleb128 0x19
 2820 02f0 03       		.uleb128 0x3
 2821 02f1 0E       		.uleb128 0xe
 2822 02f2 3A       		.uleb128 0x3a
 2823 02f3 0B       		.uleb128 0xb
 2824 02f4 3B       		.uleb128 0x3b
 2825 02f5 0B       		.uleb128 0xb
 2826 02f6 27       		.uleb128 0x27
 2827 02f7 19       		.uleb128 0x19
 2828 02f8 49       		.uleb128 0x49
 2829 02f9 13       		.uleb128 0x13
 2830 02fa 3C       		.uleb128 0x3c
 2831 02fb 19       		.uleb128 0x19
 2832 02fc 01       		.uleb128 0x1
 2833 02fd 13       		.uleb128 0x13
 2834 02fe 00       		.byte	0
ARM GAS  /tmp/ccLwiMZb.s 			page 77


 2835 02ff 00       		.byte	0
 2836 0300 3A       		.uleb128 0x3a
 2837 0301 2E       		.uleb128 0x2e
 2838 0302 01       		.byte	0x1
 2839 0303 3F       		.uleb128 0x3f
 2840 0304 19       		.uleb128 0x19
 2841 0305 03       		.uleb128 0x3
 2842 0306 0E       		.uleb128 0xe
 2843 0307 3A       		.uleb128 0x3a
 2844 0308 0B       		.uleb128 0xb
 2845 0309 3B       		.uleb128 0x3b
 2846 030a 05       		.uleb128 0x5
 2847 030b 27       		.uleb128 0x27
 2848 030c 19       		.uleb128 0x19
 2849 030d 3C       		.uleb128 0x3c
 2850 030e 19       		.uleb128 0x19
 2851 030f 00       		.byte	0
 2852 0310 00       		.byte	0
 2853 0311 00       		.byte	0
 2854              		.section	.debug_loc,"",%progbits
 2855              	.Ldebug_loc0:
 2856              	.LLST0:
 2857 0000 00000000 		.4byte	.LVL0
 2858 0004 08000000 		.4byte	.LVL1
 2859 0008 0200     		.2byte	0x2
 2860 000a 30       		.byte	0x30
 2861 000b 9F       		.byte	0x9f
 2862 000c 00000000 		.4byte	0
 2863 0010 00000000 		.4byte	0
 2864              	.LLST1:
 2865 0014 00000000 		.4byte	.LVL3
 2866 0018 0A000000 		.4byte	.LVL4
 2867 001c 0200     		.2byte	0x2
 2868 001e 30       		.byte	0x30
 2869 001f 9F       		.byte	0x9f
 2870 0020 00000000 		.4byte	0
 2871 0024 00000000 		.4byte	0
 2872              		.section	.debug_aranges,"",%progbits
 2873 0000 2C000000 		.4byte	0x2c
 2874 0004 0200     		.2byte	0x2
 2875 0006 00000000 		.4byte	.Ldebug_info0
 2876 000a 04       		.byte	0x4
 2877 000b 00       		.byte	0
 2878 000c 0000     		.2byte	0
 2879 000e 0000     		.2byte	0
 2880 0010 00000000 		.4byte	.LFB270
 2881 0014 20000000 		.4byte	.LFE270-.LFB270
 2882 0018 00000000 		.4byte	.LFB271
 2883 001c 24000000 		.4byte	.LFE271-.LFB271
 2884 0020 00000000 		.4byte	.LFB272
 2885 0024 1C000000 		.4byte	.LFE272-.LFB272
 2886 0028 00000000 		.4byte	0
 2887 002c 00000000 		.4byte	0
 2888              		.section	.debug_ranges,"",%progbits
 2889              	.Ldebug_ranges0:
 2890 0000 0E000000 		.4byte	.LBB56
 2891 0004 12000000 		.4byte	.LBE56
ARM GAS  /tmp/ccLwiMZb.s 			page 78


 2892 0008 14000000 		.4byte	.LBB72
 2893 000c 16000000 		.4byte	.LBE72
 2894 0010 00000000 		.4byte	0
 2895 0014 00000000 		.4byte	0
 2896 0018 12000000 		.4byte	.LBB63
 2897 001c 14000000 		.4byte	.LBE63
 2898 0020 16000000 		.4byte	.LBB73
 2899 0024 1A000000 		.4byte	.LBE73
 2900 0028 00000000 		.4byte	0
 2901 002c 00000000 		.4byte	0
 2902 0030 00000000 		.4byte	.LFB270
 2903 0034 20000000 		.4byte	.LFE270
 2904 0038 00000000 		.4byte	.LFB271
 2905 003c 24000000 		.4byte	.LFE271
 2906 0040 00000000 		.4byte	.LFB272
 2907 0044 1C000000 		.4byte	.LFE272
 2908 0048 00000000 		.4byte	0
 2909 004c 00000000 		.4byte	0
 2910              		.section	.debug_line,"",%progbits
 2911              	.Ldebug_line0:
 2912 0000 F0040000 		.section	.debug_str,"MS",%progbits,1
 2912      02008704 
 2912      00000201 
 2912      FB0E0D00 
 2912      01010101 
 2913              	.LASF51:
 2914 0000 72656164 		.ascii	"ready_list_t\000"
 2914      795F6C69 
 2914      73745F74 
 2914      00
 2915              	.LASF76:
 2916 000d 44494552 		.ascii	"DIER\000"
 2916      00
 2917              	.LASF2:
 2918 0012 73697A65 		.ascii	"size_t\000"
 2918      5F7400
 2919              	.LASF47:
 2920 0019 6E657874 		.ascii	"next\000"
 2920      00
 2921              	.LASF57:
 2922 001e 64656C74 		.ascii	"delta\000"
 2922      6100
 2923              	.LASF87:
 2924 0024 7264796D 		.ascii	"rdymsg\000"
 2924      736700
 2925              	.LASF127:
 2926 002b 74657374 		.ascii	"test_sequence_010\000"
 2926      5F736571 
 2926      75656E63 
 2926      655F3031 
 2926      3000
 2927              	.LASF128:
 2928 003d 74657374 		.ascii	"test_sequence_011\000"
 2928      5F736571 
 2928      75656E63 
 2928      655F3031 
 2928      3100
ARM GAS  /tmp/ccLwiMZb.s 			page 79


 2929              	.LASF129:
 2930 004f 74657374 		.ascii	"test_sequence_012\000"
 2930      5F736571 
 2930      75656E63 
 2930      655F3031 
 2930      3200
 2931              	.LASF17:
 2932 0061 75696E74 		.ascii	"uint64_t\000"
 2932      36345F74 
 2932      00
 2933              	.LASF3:
 2934 006a 5F5F7569 		.ascii	"__uint8_t\000"
 2934      6E74385F 
 2934      7400
 2935              	.LASF50:
 2936 0074 70726576 		.ascii	"prev\000"
 2936      00
 2937              	.LASF74:
 2938 0079 706F7274 		.ascii	"port_intctx\000"
 2938      5F696E74 
 2938      63747800 
 2939              	.LASF62:
 2940 0085 73797374 		.ascii	"system_debug_t\000"
 2940      656D5F64 
 2940      65627567 
 2940      5F7400
 2941              	.LASF105:
 2942 0094 706F7274 		.ascii	"port_lock\000"
 2942      5F6C6F63 
 2942      6B00
 2943              	.LASF13:
 2944 009e 6C6F6E67 		.ascii	"long long unsigned int\000"
 2944      206C6F6E 
 2944      6720756E 
 2944      7369676E 
 2944      65642069 
 2945              	.LASF88:
 2946 00b5 65786974 		.ascii	"exitcode\000"
 2946      636F6465 
 2946      00
 2947              	.LASF69:
 2948 00be 6D61696E 		.ascii	"mainthread\000"
 2948      74687265 
 2948      616400
 2949              	.LASF91:
 2950 00c9 73656E74 		.ascii	"sentmsg\000"
 2950      6D736700 
 2951              	.LASF59:
 2952 00d1 76697274 		.ascii	"virtual_timers_list_t\000"
 2952      75616C5F 
 2952      74696D65 
 2952      72735F6C 
 2952      6973745F 
 2953              	.LASF117:
 2954 00e7 49544D5F 		.ascii	"ITM_RxBuffer\000"
 2954      52784275 
 2954      66666572 
ARM GAS  /tmp/ccLwiMZb.s 			page 80


 2954      00
 2955              	.LASF80:
 2956 00f4 42445452 		.ascii	"BDTR\000"
 2956      00
 2957              	.LASF49:
 2958 00f9 63685F74 		.ascii	"ch_threads_queue\000"
 2958      68726561 
 2958      64735F71 
 2958      75657565 
 2958      00
 2959              	.LASF77:
 2960 010a 43434D52 		.ascii	"CCMR1\000"
 2960      3100
 2961              	.LASF78:
 2962 0110 43434D52 		.ascii	"CCMR2\000"
 2962      3200
 2963              	.LASF82:
 2964 0116 43434D52 		.ascii	"CCMR3\000"
 2964      3300
 2965              	.LASF1:
 2966 011c 7369676E 		.ascii	"signed char\000"
 2966      65642063 
 2966      68617200 
 2967              	.LASF68:
 2968 0128 76746C69 		.ascii	"vtlist\000"
 2968      737400
 2969              	.LASF106:
 2970 012f 706F7274 		.ascii	"port_unlock\000"
 2970      5F756E6C 
 2970      6F636B00 
 2971              	.LASF38:
 2972 013b 6D736771 		.ascii	"msgqueue\000"
 2972      75657565 
 2972      00
 2973              	.LASF34:
 2974 0144 73746174 		.ascii	"state\000"
 2974      6500
 2975              	.LASF8:
 2976 014a 6C6F6E67 		.ascii	"long int\000"
 2976      20696E74 
 2976      00
 2977              	.LASF20:
 2978 0153 74737461 		.ascii	"tstate_t\000"
 2978      74655F74 
 2978      00
 2979              	.LASF58:
 2980 015c 66756E63 		.ascii	"func\000"
 2980      00
 2981              	.LASF79:
 2982 0161 43434552 		.ascii	"CCER\000"
 2982      00
 2983              	.LASF11:
 2984 0166 6C6F6E67 		.ascii	"long long int\000"
 2984      206C6F6E 
 2984      6720696E 
 2984      7400
 2985              	.LASF28:
ARM GAS  /tmp/ccLwiMZb.s 			page 81


 2986 0174 71756575 		.ascii	"queue\000"
 2986      6500
 2987              	.LASF139:
 2988 017a 63685468 		.ascii	"chThdTerminate\000"
 2988      64546572 
 2988      6D696E61 
 2988      746500
 2989              	.LASF9:
 2990 0189 5F5F7569 		.ascii	"__uint32_t\000"
 2990      6E743332 
 2990      5F7400
 2991              	.LASF71:
 2992 0194 72656761 		.ascii	"regarm_t\000"
 2992      726D5F74 
 2992      00
 2993              	.LASF37:
 2994 019d 77616974 		.ascii	"waiting\000"
 2994      696E6700 
 2995              	.LASF99:
 2996 01a5 6D757465 		.ascii	"mutex_t\000"
 2996      785F7400 
 2997              	.LASF136:
 2998 01ad 76616C75 		.ascii	"value\000"
 2998      6500
 2999              	.LASF25:
 3000 01b3 636E745F 		.ascii	"cnt_t\000"
 3000      7400
 3001              	.LASF110:
 3002 01b9 63685654 		.ascii	"chVTGetSystemTimeX\000"
 3002      47657453 
 3002      79737465 
 3002      6D54696D 
 3002      655800
 3003              	.LASF0:
 3004 01cc 756E7369 		.ascii	"unsigned int\000"
 3004      676E6564 
 3004      20696E74 
 3004      00
 3005              	.LASF92:
 3006 01d9 77747365 		.ascii	"wtsemp\000"
 3006      6D7000
 3007              	.LASF90:
 3008 01e0 77747472 		.ascii	"wttrp\000"
 3008      7000
 3009              	.LASF102:
 3010 01e6 74656172 		.ascii	"teardown\000"
 3010      646F776E 
 3010      00
 3011              	.LASF32:
 3012 01ef 6E616D65 		.ascii	"name\000"
 3012      00
 3013              	.LASF42:
 3014 01f4 6D706F6F 		.ascii	"mpool\000"
 3014      6C00
 3015              	.LASF75:
 3016 01fa 534D4352 		.ascii	"SMCR\000"
 3016      00
ARM GAS  /tmp/ccLwiMZb.s 			page 82


 3017              	.LASF45:
 3018 01ff 63685F74 		.ascii	"ch_thread\000"
 3018      68726561 
 3018      6400
 3019              	.LASF23:
 3020 0209 6D73675F 		.ascii	"msg_t\000"
 3020      7400
 3021              	.LASF39:
 3022 020f 6570656E 		.ascii	"epending\000"
 3022      64696E67 
 3022      00
 3023              	.LASF65:
 3024 0218 63685F73 		.ascii	"ch_system_t\000"
 3024      79737465 
 3024      6D5F7400 
 3025              	.LASF84:
 3026 0224 73746D33 		.ascii	"stm32_tim_t\000"
 3026      325F7469 
 3026      6D5F7400 
 3027              	.LASF114:
 3028 0230 73797374 		.ascii	"systime\000"
 3028      696D6500 
 3029              	.LASF52:
 3030 0238 63685F72 		.ascii	"ch_ready_list\000"
 3030      65616479 
 3030      5F6C6973 
 3030      7400
 3031              	.LASF24:
 3032 0246 6576656E 		.ascii	"eventmask_t\000"
 3032      746D6173 
 3032      6B5F7400 
 3033              	.LASF7:
 3034 0252 5F5F696E 		.ascii	"__int32_t\000"
 3034      7433325F 
 3034      7400
 3035              	.LASF72:
 3036 025c 73746B61 		.ascii	"stkalign_t\000"
 3036      6C69676E 
 3036      5F7400
 3037              	.LASF104:
 3038 0267 74657374 		.ascii	"testcase_t\000"
 3038      63617365 
 3038      5F7400
 3039              	.LASF30:
 3040 0272 6E657765 		.ascii	"newer\000"
 3040      7200
 3041              	.LASF134:
 3042 0278 2E2E2F43 		.ascii	"../ChibiOS/test/rt/source/test/test_root.c\000"
 3042      68696269 
 3042      4F532F74 
 3042      6573742F 
 3042      72742F73 
 3043              	.LASF41:
 3044 02a3 7265616C 		.ascii	"realprio\000"
 3044      7072696F 
 3044      00
 3045              	.LASF70:
ARM GAS  /tmp/ccLwiMZb.s 			page 83


 3046 02ac 73697A65 		.ascii	"sizetype\000"
 3046      74797065 
 3046      00
 3047              	.LASF43:
 3048 02b5 74687265 		.ascii	"thread_reference_t\000"
 3048      61645F72 
 3048      65666572 
 3048      656E6365 
 3048      5F7400
 3049              	.LASF60:
 3050 02c8 63685F76 		.ascii	"ch_virtual_timers_list\000"
 3050      69727475 
 3050      616C5F74 
 3050      696D6572 
 3050      735F6C69 
 3051              	.LASF131:
 3052 02df 74657374 		.ascii	"test_buffer\000"
 3052      5F627566 
 3052      66657200 
 3053              	.LASF116:
 3054 02eb 74657374 		.ascii	"test_wait_threads\000"
 3054      5F776169 
 3054      745F7468 
 3054      72656164 
 3054      7300
 3055              	.LASF73:
 3056 02fd 706F7274 		.ascii	"port_context\000"
 3056      5F636F6E 
 3056      74657874 
 3056      00
 3057              	.LASF86:
 3058 030a 746D5F63 		.ascii	"tm_calibration_t\000"
 3058      616C6962 
 3058      72617469 
 3058      6F6E5F74 
 3058      00
 3059              	.LASF101:
 3060 031b 73657475 		.ascii	"setup\000"
 3060      7000
 3061              	.LASF137:
 3062 0321 63685654 		.ascii	"chVTGetSystemTime\000"
 3062      47657453 
 3062      79737465 
 3062      6D54696D 
 3062      6500
 3063              	.LASF29:
 3064 0333 7072696F 		.ascii	"prio\000"
 3064      00
 3065              	.LASF53:
 3066 0338 63757272 		.ascii	"current\000"
 3066      656E7400 
 3067              	.LASF12:
 3068 0340 5F5F7569 		.ascii	"__uint64_t\000"
 3068      6E743634 
 3068      5F7400
 3069              	.LASF21:
 3070 034b 74726566 		.ascii	"trefs_t\000"
ARM GAS  /tmp/ccLwiMZb.s 			page 84


 3070      735F7400 
 3071              	.LASF115:
 3072 0353 74657374 		.ascii	"test_terminate_threads\000"
 3072      5F746572 
 3072      6D696E61 
 3072      74655F74 
 3072      68726561 
 3073              	.LASF36:
 3074 036a 72656673 		.ascii	"refs\000"
 3074      00
 3075              	.LASF55:
 3076 036f 76697274 		.ascii	"virtual_timer_t\000"
 3076      75616C5F 
 3076      74696D65 
 3076      725F7400 
 3077              	.LASF22:
 3078 037f 74707269 		.ascii	"tprio_t\000"
 3078      6F5F7400 
 3079              	.LASF135:
 3080 0387 2F6E6673 		.ascii	"/nfs/nfs7/home/npalumbo/p442-submissions/lab4\000"
 3080      2F6E6673 
 3080      372F686F 
 3080      6D652F6E 
 3080      70616C75 
 3081              	.LASF63:
 3082 03b5 63685F73 		.ascii	"ch_system_debug\000"
 3082      79737465 
 3082      6D5F6465 
 3082      62756700 
 3083              	.LASF100:
 3084 03c5 5F426F6F 		.ascii	"_Bool\000"
 3084      6C00
 3085              	.LASF15:
 3086 03cb 696E7433 		.ascii	"int32_t\000"
 3086      325F7400 
 3087              	.LASF4:
 3088 03d3 756E7369 		.ascii	"unsigned char\000"
 3088      676E6564 
 3088      20636861 
 3088      7200
 3089              	.LASF103:
 3090 03e1 65786563 		.ascii	"execute\000"
 3090      75746500 
 3091              	.LASF5:
 3092 03e9 73686F72 		.ascii	"short int\000"
 3092      7420696E 
 3092      7400
 3093              	.LASF61:
 3094 03f3 6C617374 		.ascii	"lasttime\000"
 3094      74696D65 
 3094      00
 3095              	.LASF132:
 3096 03fc 74687265 		.ascii	"threads\000"
 3096      61647300 
 3097              	.LASF94:
 3098 0404 65776D61 		.ascii	"ewmask\000"
 3098      736B00
ARM GAS  /tmp/ccLwiMZb.s 			page 85


 3099              	.LASF66:
 3100 040b 63685F73 		.ascii	"ch_system\000"
 3100      79737465 
 3100      6D00
 3101              	.LASF109:
 3102 0415 63685379 		.ascii	"chSysLock\000"
 3102      734C6F63 
 3102      6B00
 3103              	.LASF56:
 3104 041f 63685F76 		.ascii	"ch_virtual_timer\000"
 3104      69727475 
 3104      616C5F74 
 3104      696D6572 
 3104      00
 3105              	.LASF95:
 3106 0430 63685F73 		.ascii	"ch_semaphore\000"
 3106      656D6170 
 3106      686F7265 
 3106      00
 3107              	.LASF83:
 3108 043d 43435852 		.ascii	"CCXR\000"
 3108      00
 3109              	.LASF141:
 3110 0442 63685468 		.ascii	"chThdSleep\000"
 3110      64536C65 
 3110      657000
 3111              	.LASF107:
 3112 044d 73745F6C 		.ascii	"st_lld_get_counter\000"
 3112      6C645F67 
 3112      65745F63 
 3112      6F756E74 
 3112      657200
 3113              	.LASF16:
 3114 0460 75696E74 		.ascii	"uint32_t\000"
 3114      33325F74 
 3114      00
 3115              	.LASF93:
 3116 0469 77746D74 		.ascii	"wtmtxp\000"
 3116      787000
 3117              	.LASF46:
 3118 0470 63685F74 		.ascii	"ch_threads_list\000"
 3118      68726561 
 3118      64735F6C 
 3118      69737400 
 3119              	.LASF97:
 3120 0480 6F776E65 		.ascii	"owner\000"
 3120      7200
 3121              	.LASF10:
 3122 0486 6C6F6E67 		.ascii	"long unsigned int\000"
 3122      20756E73 
 3122      69676E65 
 3122      6420696E 
 3122      7400
 3123              	.LASF33:
 3124 0498 77616261 		.ascii	"wabase\000"
 3124      736500
 3125              	.LASF98:
ARM GAS  /tmp/ccLwiMZb.s 			page 86


 3126 049f 63686172 		.ascii	"char\000"
 3126      00
 3127              	.LASF31:
 3128 04a4 6F6C6465 		.ascii	"older\000"
 3128      7200
 3129              	.LASF81:
 3130 04aa 444D4152 		.ascii	"DMAR\000"
 3130      00
 3131              	.LASF27:
 3132 04af 74687265 		.ascii	"thread_t\000"
 3132      61645F74 
 3132      00
 3133              	.LASF130:
 3134 04b8 74657374 		.ascii	"test_suite\000"
 3134      5F737569 
 3134      746500
 3135              	.LASF26:
 3136 04c3 73797374 		.ascii	"systime_t\000"
 3136      696D655F 
 3136      7400
 3137              	.LASF54:
 3138 04cd 76746675 		.ascii	"vtfunc_t\000"
 3138      6E635F74 
 3138      00
 3139              	.LASF111:
 3140 04d6 5F5F7365 		.ascii	"__set_BASEPRI\000"
 3140      745F4241 
 3140      53455052 
 3140      4900
 3141              	.LASF64:
 3142 04e4 70616E69 		.ascii	"panic_msg\000"
 3142      635F6D73 
 3142      6700
 3143              	.LASF85:
 3144 04ee 6F666673 		.ascii	"offset\000"
 3144      657400
 3145              	.LASF6:
 3146 04f5 73686F72 		.ascii	"short unsigned int\000"
 3146      7420756E 
 3146      7369676E 
 3146      65642069 
 3146      6E7400
 3147              	.LASF113:
 3148 0508 5F5F6675 		.ascii	"__func__.5702\000"
 3148      6E635F5F 
 3148      2E353730 
 3148      3200
 3149              	.LASF108:
 3150 0516 706F7274 		.ascii	"port_timer_get_time\000"
 3150      5F74696D 
 3150      65725F67 
 3150      65745F74 
 3150      696D6500 
 3151              	.LASF18:
 3152 052a 7274636E 		.ascii	"rtcnt_t\000"
 3152      745F7400 
 3153              	.LASF140:
ARM GAS  /tmp/ccLwiMZb.s 			page 87


 3154 0532 63685468 		.ascii	"chThdWait\000"
 3154      64576169 
 3154      7400
 3155              	.LASF48:
 3156 053c 74687265 		.ascii	"threads_queue_t\000"
 3156      6164735F 
 3156      71756575 
 3156      655F7400 
 3157              	.LASF96:
 3158 054c 63685F6D 		.ascii	"ch_mutex\000"
 3158      75746578 
 3158      00
 3159              	.LASF67:
 3160 0555 726C6973 		.ascii	"rlist\000"
 3160      7400
 3161              	.LASF35:
 3162 055b 666C6167 		.ascii	"flags\000"
 3162      7300
 3163              	.LASF14:
 3164 0561 75696E74 		.ascii	"uint8_t\000"
 3164      385F7400 
 3165              	.LASF126:
 3166 0569 74657374 		.ascii	"test_sequence_009\000"
 3166      5F736571 
 3166      75656E63 
 3166      655F3030 
 3166      3900
 3167              	.LASF118:
 3168 057b 74657374 		.ascii	"test_sequence_001\000"
 3168      5F736571 
 3168      75656E63 
 3168      655F3030 
 3168      3100
 3169              	.LASF119:
 3170 058d 74657374 		.ascii	"test_sequence_002\000"
 3170      5F736571 
 3170      75656E63 
 3170      655F3030 
 3170      3200
 3171              	.LASF120:
 3172 059f 74657374 		.ascii	"test_sequence_003\000"
 3172      5F736571 
 3172      75656E63 
 3172      655F3030 
 3172      3300
 3173              	.LASF121:
 3174 05b1 74657374 		.ascii	"test_sequence_004\000"
 3174      5F736571 
 3174      75656E63 
 3174      655F3030 
 3174      3400
 3175              	.LASF122:
 3176 05c3 74657374 		.ascii	"test_sequence_005\000"
 3176      5F736571 
 3176      75656E63 
 3176      655F3030 
 3176      3500
ARM GAS  /tmp/ccLwiMZb.s 			page 88


 3177              	.LASF123:
 3178 05d5 74657374 		.ascii	"test_sequence_006\000"
 3178      5F736571 
 3178      75656E63 
 3178      655F3030 
 3178      3600
 3179              	.LASF124:
 3180 05e7 74657374 		.ascii	"test_sequence_007\000"
 3180      5F736571 
 3180      75656E63 
 3180      655F3030 
 3180      3700
 3181              	.LASF125:
 3182 05f9 74657374 		.ascii	"test_sequence_008\000"
 3182      5F736571 
 3182      75656E63 
 3182      655F3030 
 3182      3800
 3183              	.LASF133:
 3184 060b 474E5520 		.ascii	"GNU C 4.8.4 20140526 (release) [ARM/embedded-4_8-br"
 3184      4320342E 
 3184      382E3420 
 3184      32303134 
 3184      30353236 
 3185 063e 616E6368 		.ascii	"anch revision 211358] -mcpu=cortex-m4 -mno-thumb-in"
 3185      20726576 
 3185      6973696F 
 3185      6E203231 
 3185      31333538 
 3186 0671 74657277 		.ascii	"terwork -mthumb -ggdb -O2 -fomit-frame-pointer -fal"
 3186      6F726B20 
 3186      2D6D7468 
 3186      756D6220 
 3186      2D676764 
 3187 06a4 69676E2D 		.ascii	"ign-functions=16 -ffunction-sections -fdata-section"
 3187      66756E63 
 3187      74696F6E 
 3187      733D3136 
 3187      202D6666 
 3188 06d7 73202D66 		.ascii	"s -fno-common -flto\000"
 3188      6E6F2D63 
 3188      6F6D6D6F 
 3188      6E202D66 
 3188      6C746F00 
 3189              	.LASF89:
 3190 06eb 77746F62 		.ascii	"wtobjp\000"
 3190      6A7000
 3191              	.LASF44:
 3192 06f2 74687265 		.ascii	"threads_list_t\000"
 3192      6164735F 
 3192      6C697374 
 3192      5F7400
 3193              	.LASF19:
 3194 0701 746D6F64 		.ascii	"tmode_t\000"
 3194      655F7400 
 3195              	.LASF112:
 3196 0709 63685379 		.ascii	"chSysUnlock\000"
ARM GAS  /tmp/ccLwiMZb.s 			page 89


 3196      73556E6C 
 3196      6F636B00 
 3197              	.LASF40:
 3198 0715 6D74786C 		.ascii	"mtxlist\000"
 3198      69737400 
 3199              	.LASF138:
 3200 071d 74657374 		.ascii	"test_wait_tick\000"
 3200      5F776169 
 3200      745F7469 
 3200      636B00
 3201              		.comm	__gnu_lto_v1,1,1
 3202              		.ident	"GCC: (GNU Tools for ARM Embedded Processors) 4.8.4 20140526 (release) [ARM/embedded-4_8-br
ARM GAS  /tmp/ccLwiMZb.s 			page 90


DEFINED SYMBOLS
                            *ABS*:00000000 test_root.c
     /tmp/ccLwiMZb.s:450    .text.test_terminate_threads:00000000 $t
     /tmp/ccLwiMZb.s:456    .text.test_terminate_threads:00000000 test_terminate_threads
     /tmp/ccLwiMZb.s:492    .text.test_terminate_threads:0000001c $d
     /tmp/ccLwiMZb.s:497    .text.test_wait_threads:00000000 $t
     /tmp/ccLwiMZb.s:503    .text.test_wait_threads:00000000 test_wait_threads
     /tmp/ccLwiMZb.s:542    .text.test_wait_threads:00000020 $d
     /tmp/ccLwiMZb.s:547    .text.test_wait_tick:00000000 $t
     /tmp/ccLwiMZb.s:553    .text.test_wait_tick:00000000 test_wait_tick
     /tmp/ccLwiMZb.s:672    .rodata.wa:00000000 wa
     /tmp/ccLwiMZb.s:683    .bss.threads:00000000 threads
     /tmp/ccLwiMZb.s:648    .bss.test_buffer:00000000 test_buffer
     /tmp/ccLwiMZb.s:654    .data.test_suite:00000000 test_suite
     /tmp/ccLwiMZb.s:645    .bss.test_buffer:00000000 $d
     /tmp/ccLwiMZb.s:651    .data.test_suite:00000000 $d
     /tmp/ccLwiMZb.s:669    .rodata.wa:00000000 $d
     /tmp/ccLwiMZb.s:679    .bss.threads:00000000 $d
                            *COM*:00000001 __gnu_lto_v1
                     .debug_frame:00000010 $d
     /tmp/ccLwiMZb.s:546    .text.test_wait_threads:00000024 $t

UNDEFINED SYMBOLS
chThdTerminate
chThdWait
chThdSleep
test_sequence_001
test_sequence_002
test_sequence_003
test_sequence_004
test_sequence_005
test_sequence_006
test_sequence_007
test_sequence_008
test_sequence_009
test_sequence_010
test_sequence_011
test_sequence_012
