ARM GAS  /tmp/cc0yVrlH.s 			page 1


   1              		.syntax unified
   2              		.cpu cortex-m4
   3              		.fpu softvfp
   4              		.eabi_attribute 20, 1
   5              		.eabi_attribute 21, 1
   6              		.eabi_attribute 23, 3
   7              		.eabi_attribute 24, 1
   8              		.eabi_attribute 25, 1
   9              		.eabi_attribute 26, 1
  10              		.eabi_attribute 30, 2
  11              		.eabi_attribute 34, 1
  12              		.eabi_attribute 18, 4
  13              		.thumb
  14              		.file	"ch_test.c"
  15              		.text
  16              	.Ltext0:
  17              		.section	.gnu.lto_.jmpfuncs.ab82afd5db6bcaf6,"",%progbits
  18 0000 789CB591 		.ascii	"x\234\265\221\313J\303@\024\206\317$\275\304^\322\253"
  18      CB4AC340 
  18      1486CF24 
  18      BDC45ED2 
  18      AB
  19 0011 96BA1806 		.ascii	"\226\272\030\006A\241\205hl*\225\256,i\013\202\2424"
  19      41A18568 
  19      6C2A95AE 
  19      2C690B82 
  19      A234
  20 0023 2D08AE6C 		.ascii	"-\010\256l\010:P\032hRQ\\\330\027p\343B\272\361\015"
  20      083A501A 
  20      6852515C 
  20      D81770E3 
  20      42BAF10D 
  21 0037 7C189FC7 		.ascii	"|\030\237\307\225q&\265m\360\202\013\207\23193\377\367"
  21      957126B5 
  21      6DF0820B 
  21      87993933 
  21      FFF7
  22 0049 1FE67046 		.ascii	"\037\346pF\000\001\276\032O\236\374\342E\031\270\341"
  22      0001BE1A 
  22      4F9EFCE2 
  22      4519B8E1 
  23 0059 1E20843E 		.ascii	"\036 \204>v\266\200D\" z\350\016\336&\323I\232\"\300"
  23      76B68044 
  23      22207AE8 
  23      0EDE26D3 
  23      499A22C0 
  24 006d 809E27D3 		.ascii	"\200\236'\323\003\212\020\313\027\316\020E\202\300\354"
  24      038A10CB 
  24      17CE1045 
  24      82C0EC
  25 007c 827F1515 		.ascii	"\202\177\025\025v\215\316\005\225\011\022\212\213\011"
  25      768DCE05 
  25      9509128A 
  25      8B09
  26 008a 311995D1 		.ascii	"1\031\225\321\347[)4;\245\321_\336a1\203\262(\207\320"
  26      E75B2934 
  26      3BA5D15F 
ARM GAS  /tmp/cc0yVrlH.s 			page 2


  26      DE613183 
  26      B22887D0 
  27 009e 3C298421 		.ascii	"<)\204!\314\223\302,i\031\311\337\240\010\206\002GQ"
  27      CC93C22C 
  27      6919C9DF 
  27      A0088602 
  27      4751
  28 00b0 08320943 		.ascii	"\0102\011C\221\263\225 \362*\334^\254\020\020\237\254"
  28      91B39520 
  28      F22ADC5E 
  28      AC10109F 
  28      AC
  29 00c1 D2D86B6A 		.ascii	"\322\330kj\311\034\307P\341\346\304\202\367\247*\026"
  29      C91CC750 
  29      E1E6C482 
  29      F7A72A16 
  30 00d1 5012C31E 		.ascii	"P\022\303\036Gr\020\2450\234s\224\016\242\014\2061G"
  30      477210A5 
  30      309C7394 
  30      0EA20C86 
  30      3147
  31 00e3 D920CA61 		.ascii	"\331 \312ax\360\273\233\017\262U\014\217>[\373\255S"
  31      78F0BB9B 
  31      0FB2550C 
  31      8F3E5BFB 
  31      AD53
  32 00f5 B38FF8AF 		.ascii	"\263\217\370\257\010b2\006\222\321\323\365\226a\200"
  32      08623206 
  32      92D1D3F5 
  32      966180
  33 0104 D46E1C1E 		.ascii	"\324n\034\036\365:-\257syEQH\307r\306\003\267Nf\\\334"
  33      F53A2DAF 
  33      73794551 
  33      48C772C6 
  33      03B74E66 
  34 011a 28815082 		.ascii	"(\201P\202M\243{L\315\221m\015,\323\035\331Cj:\304\223"
  34      4DA37B4C 
  34      CD916D0D 
  34      2CD31DD9 
  34      436A3AC4 
  35 012f B44A5B53 		.ascii	"\264J[S\232\3241\355kkt\013E_R\265\033\2354\206\027"
  35      9AD431ED 
  35      6B6B740B 
  35      455F52B5 
  35      1B9D3486 
  36 0144 03FB926C 		.ascii	"\003\373\222l\221\246q\012\205\266\325'D#\025u\267F"
  36      91A6710A 
  36      85B6D527 
  36      44231575 
  36      B746
  37 0156 14A256EB 		.ascii	"\024\242V\353\325Z]\335\207P\271\\\206uo#\372\025\355"
  37      D55A5DDD 
  37      8750B95C 
  37      86756F23 
  37      FA15ED
  38 0169 D31363A7 		.ascii	"\323\023c\247\323%]\313q\2111\246\256\005\357\234\363"
  38      D3255DCB 
ARM GAS  /tmp/cc0yVrlH.s 			page 3


  38      718931A6 
  38      AE05EF9C 
  38      F3
  39 017a 9C70     		.ascii	"\234p"
  40              		.text
  41              		.section	.gnu.lto_.inline.ab82afd5db6bcaf6,"",%progbits
  42 0000 789CAD51 		.ascii	"x\234\255Q=K\003A\020};w\267\367\231\273M\324$B V\332"
  42      3D4B0341 
  42      107D3B77 
  42      B7F799BB 
  42      4DD42442 
  43 0017 054BFF83 		.ascii	"\005K\377\203p\265\340\0170\372+\304JP\341zAR\330\373"
  43      70B5E00F 
  43      30FA2BC4 
  43      4A50E17A 
  43      4152D8FB 
  44 002b 076C6CC5 		.ascii	"\007ll\305B\254,,\202X(iR\244\320F\234\335\\\326#&\235"
  44      42AC2C2C 
  44      82582869 
  44      52A4D046 
  44      9CDD5CD6 
  45 0042 5BCC0EEF 		.ascii	"[\314\016\357\315\316{3K ,:\303\022N\001uB\002\244\206"
  45      CDCE7B33 
  45      4B202C3A 
  45      C3124E01 
  45      754202A4 
  46 0057 5711E4A0 		.ascii	"W\021\344\240kp\257\316H\221\027\271\213\265m\341\240"
  46      6B70AFCE 
  46      489117B9 
  46      8BB56DE1 
  46      A0
  47 0068 BF270E45 		.ascii	"\277'\016E\013p6p\360\233\012\035\335\250\310\021\214"
  47      0B703670 
  47      F09B0A1D 
  47      DDA8C811 
  47      8C
  48 0079 7B04F1EE 		.ascii	"{\004\361\356+\202w\272\245t\013'\253\004\027\220h\215"
  48      2B8277BA 
  48      A5740B27 
  48      AB041790 
  48      688D
  49 008b 6ADCB531 		.ascii	"j\334\2651\271\334\261:\262\3014\277\237\011\302Wq\223"
  49      B9DCB13A 
  49      B2C134BF 
  49      9F09C257 
  49      7193
  50 009d 3339EE55 		.ascii	"39\356U\274\300P\001\2447G\305\010$\2733\226\332\032"
  50      BCC05001 
  50      A43747C5 
  50      0824BB33 
  50      96DA1A
  51 00b0 E8DB8CBD 		.ascii	"\350\333\214\275i\325i\251;\350*\310\207\216\006\220"
  51      69D569A9 
  51      3BE82AC8 
  51      878E0690 
  52 00c0 A0F9C134 		.ascii	"\240\371\3014m~\337'\266S\015q(H\210\331S'=\337\237"
  52      6D7EDF27 
ARM GAS  /tmp/cc0yVrlH.s 			page 4


  52      B6530D71 
  52      284888D9 
  52      53273DDF 
  53 00d5 92F49825 		.ascii	"\222\364\230%fQj\235\367T\212EV,Z,\326\271>K\003CE\232"
  53      66516A9D 
  53      F7548A45 
  53      562C5A2C 
  53      D6B93E4B 
  54 00ed E1F182E9 		.ascii	"\341\361\202\351B3d\237,C\351\353q\370w\335\012\355"
  54      4233649F 
  54      2C43E9EB 
  54      71F877DD 
  54      0AED
  55 00ff 0BFD19AB 		.ascii	"\013\375\031\253O7\341\322%\025y]\273\345/{9\262E\015"
  55      4F37E1D2 
  55      2515795D 
  55      BBE52F7B 
  55      39B2450D 
  56 0113 843E43C9 		.ascii	"\204>C\311\355\256\205V\360,\276&Z\354M\214Gw\276%("
  56      EDAE8556 
  56      F02CBE26 
  56      5AEC4D8C 
  56      4777BE25 
  57 0128 D696ABD1 		.ascii	"\326\226\253\321\214A1\031\200\014@%P\344\325\253Zd"
  57      8C413119 
  57      800C4025 
  57      50E4D5AB 
  57      5A64
  58 013a 99B278BE 		.ascii	"\231\262x\276\351\262h\307\360\352\316?%bY\202\037\364"
  58      E9B268C7 
  58      F0EACE3F 
  58      25625982 
  58      1FF4
  59 014c BB5CFD   		.ascii	"\273\\\375"
  60              		.text
  61              		.section	.gnu.lto_.pureconst.ab82afd5db6bcaf6,"",%progbits
  62 0000 789C6362 		.ascii	"x\234cb`b\220e\200\000>\006K\026I6IvI\016\011n\011\036"
  62      60629065 
  62      80003E06 
  62      4B164936 
  62      4976490E 
  63 0018 4B5E293E 		.ascii	"K^)>K~K\001KA+!)aK\000*\005\003\017"
  63      4B7E4B01 
  63      4B412B21 
  63      29614B00 
  63      2A05030F 
  64              		.text
  65              		.section	.gnu.lto_print_tokens.ab82afd5db6bcaf6,"",%progbits
  66 0000 789C8D92 		.ascii	"x\234\215\222\317k\023Q\020\307g\336\217\335M\223R\005"
  66      CF6B1351 
  66      10C767DE 
  66      8FDD4D93 
  66      5205
  67 0012 2FBD485B 		.ascii	"/\275H[/bqC\365\244\330\223\177\200\007[P/\245Y$Y4\030"
  67      2F627143 
  67      F5A4D893 
  67      7F80075B 
ARM GAS  /tmp/cc0yVrlH.s 			page 5


  67      502FA559 
  68 002a 30370F7D 		.ascii	"07\017}\211\241\024-\032<\2119\264\245\224\212\010\""
  68      89A1142D 
  68      1A3C8939 
  68      B4A5948A 
  68      0822
  69 003c BD144F11 		.ascii	"\275\024O\021\332j\016*\336\364\026\004\203\007\377"
  69      DA6A0E2A 
  69      DEF41604 
  69      8307FF
  70 004b 020FC699 		.ascii	"\002\017\306\231\274\267\333\324\213>\3307\263\273\363"
  70      BCB7DBD4 
  70      8B3ED837 
  70      B3BBF3
  71 005a F9CEBCEF 		.ascii	"\371\316\274\357\256\000\001\177\257Y\272\264\004\270"
  71      AE00017F 
  71      AF59BAB4 
  71      04B8
  72 0068 44113D40 		.ascii	"D\021=@\321\374\010P\013\004*\233H\233\274\015\224\220"
  72      D1FC0850 
  72      0B042A9B 
  72      489BBC0D 
  72      9490
  73 007a ABEF00CC 		.ascii	"\253\357\000\314\210n\370`r\032\221\237\003\302\222"
  73      886EF860 
  73      721A919F 
  73      03C292
  74 0089 904AE3D2 		.ascii	"\220J\343\322ud99\005\033\306<\351\356\367\236\217?"
  74      75643939 
  74      051BC63C 
  74      E9EEF79E 
  74      8F3F
  75 009b 58AF37CD 		.ascii	"X\2577\315\357~\037c\244\306\223\010\021\3025\272\301"
  75      EF7E1F63 
  75      A4C69308 
  75      11C235BA 
  75      C1
  76 00ac 894110EA 		.ascii	"\211A\020\352\350$\226l\357\034<\032&\245\200\263\377"
  76      E824966C 
  76      EF1C3C1A 
  76      26A580B3 
  76      FF
  77 00bd 49AE1DAC 		.ascii	"I\256\035\254\216\233#\344\305\177\221\257D\273\333"
  77      8E9B23E4 
  77      C57F91AF 
  77      44BBDB
  78 00cc EFFF7CBD 		.ascii	"\357\377|\275\376\255\205\307\263\010\213\270\205S\240"
  78      FEAD85C7 
  78      B3088BB8 
  78      8553A0
  79 00db 286E52D4 		.ascii	"(nR\324\0247(z\020\243\362i\323\201\253\310\320\215"
  79      1437287A 
  79      10A3F269 
  79      D381ABC8 
  79      D08D
  80 00ed C7CE41C3 		.ascii	"\307\316A\303\230\346\204}\010\334\214\326\034\355\344"
  80      98E6847D 
ARM GAS  /tmp/cc0yVrlH.s 			page 6


  80      08DC8CD6 
  80      1CEDE4
  81 00fc D13C0A0A 		.ascii	"\321<\012\012\262\003\365\356\343Mo\021\267Q;\372\036"
  81      B203F5EE 
  81      E34D6F11 
  81      B7513BFA 
  81      1E
  82 010d FC322BC6 		.ascii	"\3742+\306\314\306\350\227\361p\230y\224@\026\313\017"
  82      CCC6E897 
  82      F1709879 
  82      944016CB 
  82      0F
  83 011e 50EF7CE9 		.ascii	"P\357|\351\235\266D\021u\013\236\325\2149F.Z\220\262"
  83      9DB64411 
  83      750B9ED5 
  83      8C39462E 
  83      5A90B2
  84 0131 A08C0CF2 		.ascii	"\240\214\014\362\221\002G\023u#A\274i8C#\023H\005\031"
  84      91024713 
  84      752341BC 
  84      69384323 
  84      13480519 
  85 0145 92E0425B 		.ascii	"\222\340B[VH\033\016\003\3764\274`\335\021\213dI\202"
  85      56481B0E 
  85      03FE34BC 
  85      60DD118B 
  85      644982
  86 0158 11E5104C 		.ascii	"\021\345\020L\221\373\017e\302\004E\304\201\247\374"
  86      91FB0F65 
  86      C20445C4 
  86      81A7FC
  87 0167 B60362F8 		.ascii	"\266\003b\370\204E\036\213\032\274\321Iu\306*{\016\222"
  87      84451E8B 
  87      1ABCD149 
  87      75C62A7B 
  87      0E92
  88 0179 4EF113B8 		.ascii	"N\361\023\270\012\340)x\323T\033c.\261D\001\375fl\""
  88      0AE02978 
  88      D3541B63 
  88      2EB14401 
  88      FD666C22 
  89 018d 0926DA38 		.ascii	"\011&\3328\320\356\354\366~`\"\257R\223dj\322h\031\205"
  89      D0EEECF6 
  89      7E6022AF 
  89      5293646A 
  89      D2681985 
  90 01a1 3369D4B5 		.ascii	"3i\324\265{\017{\337k\347\023\010\213\230\376\017_\001"
  90      7B0F7BDF 
  90      6BE71308 
  90      8B98FE0F 
  90      5F01
  91 01b3 2DD85E5B 		.ascii	"-\330^[\036K?\214x*\351(\362\345\316\011\236E\363\367"
  91      1E4B3F8C 
  91      782AE928 
  91      F2E5CE09 
  91      9E45F3F7 
  92 01c7 FC0CB56E 		.ascii	"\374\014\265n\353T2\264]s4R\303\347f'\3030\177\271\024"
ARM GAS  /tmp/cc0yVrlH.s 			page 7


  92      EB5432B4 
  92      5D733452 
  92      C3E76627 
  92      C3307FB9 
  93 01dc 17E22B57 		.ascii	"\027\342+W\363\325\233w\253\371\333q!\037\225\0268\017"
  93      F3D59B77 
  93      ABF9DB71 
  93      211F9516 
  93      380F
  94 01ee 23C8725C 		.ascii	"#\310r\\\210J\225p\346Bn\220W\357\334\252\204\347fD"
  94      884A9570 
  94      E6426E90 
  94      57EFDCAA 
  94      84E76644 
  95 0202 54F903D1 		.ascii	"T\371\003\321\367\276/"
  95      F7BE2F
  96              		.text
  97              		.section	.gnu.lto_execute_test.ab82afd5db6bcaf6,"",%progbits
  98 0000 789C7D51 		.ascii	"x\234}Q;L\002A\020\235\331\273\333\343\243\206\316J"
  98      3B4C0241 
  98      109DD9BB 
  98      DBE3A386 
  98      CE4A
  99 0012 31B134E1 		.ascii	"1\2614\341\254\350\250,-,\204D\033\015\020\003\227H"
  99      ACE8A82C 
  99      2D2C8444 
  99      1B0D1003 
  99      9748
 100 0024 259D058B 		.ascii	"%\235\005\213PX`Be!\225\2413F\032\213\213\025\211\211"
 100      50586042 
 100      652195A1 
 100      33461A8B 
 100      8B158989 
 101 0038 68E1AF23 		.ascii	"h\341\257#T$v`kbhpv\217\0035\204Inwn\346\2757\237e\300"
 101      54247660 
 101      6B626870 
 101      768F0335 
 101      84496E77 
 102 0053 E0BF6DD2 		.ascii	"\340\277m\322\267G\341\025\272\321\004d\325\027\200"
 102      B747E115 
 102      BAD10464 
 102      D51780
 103 0062 A28F31AD 		.ascii	"\242\2171\255\025\005\021\320\237\026A\314i\250\273"
 103      150511D0 
 103      9F1641CC 
 103      69A8BB
 104 0071 619D19B5 		.ascii	"a\235\031\265\030\205\371W\210\302\006r7\314\021\245"
 104      1885F957 
 104      88C20672 
 104      37CC11A5 
 105 0081 030805A6 		.ascii	"\003\010\005\246\351\006\307\302.*\365\006kv\207\303"
 105      E906C7C2 
 105      2E2AF506 
 105      6B7687C3 
 106 0091 9BBB87DB 		.ascii	"\233\273\207\333\012\326\330\002\307\034\202\0116\202"
 106      0AD6D802 
 106      C71C8209 
ARM GAS  /tmp/cc0yVrlH.s 			page 8


 106      3682
 107 009f 5F1E4179 		.ascii	"_\036Ay\220\031P\026\242J\035\244\325o\234N)\227@&o"
 107      90195016 
 107      A24A1DA4 
 107      D56F9C4E 
 107      29974026 
 108 00b4 ED194E06 		.ascii	"\355\031N\006\245Fei\014s\035Q?\013\003$\361\022\015"
 108      A5466569 
 108      0C731D51 
 108      3F0B0324 
 108      F1120D
 109 00c7 222A660D 		.ascii	"\"*f\015.\212B\204l\304c\030\210S\351\261\234J\355 "
 109      2E8A4284 
 109      6CC46318 
 109      8853E9B1 
 109      9C4AED20 
 110 00db B9AA2537 		.ascii	"\271\252%7\323<\3476j9dI\254\023\237\214\2528N\257\315"
 110      D33CE736 
 110      6A396449 
 110      AC139F8C 
 110      AA384EAF 
 111 00f0 5CC1B192 		.ascii	"\\\301\261\222>V2r\250\215\224\024Ay\372\210\332\371"
 111      3E563272 
 111      A88D9414 
 111      4179FA88 
 111      DAF9
 112 0102 EEBDA14B 		.ascii	"\356\275\241K\315\240\271\006W\222\301I\2050f\006\271"
 112      CDA0B906 
 112      5792C149 
 112      85306606 
 112      B9
 113 0113 C4FA142B 		.ascii	"\304\372\024+\205\336\352\037\241\374Y\234\037\223$"
 113      85DEEA1F 
 113      A1FC599C 
 113      1F9324
 114 0122 84FF7E9A 		.ascii	"\204\377~\232\004\325kE\265W(u\257?L\027\007\022\011"
 114      04D56B45 
 114      B5572875 
 114      AF3F4C17 
 114      071209
 115 0135 B437BF87 		.ascii	"\2647\277\207\321\275\035u\234\376\272'\346\237\335"
 115      D1BD1D75 
 115      9CFEBA27 
 115      E69FDD
 116 0144 81D70249 		.ascii	"\201\327\002I7\303\023a\377HX\212\265\373\223y\202\263"
 116      37C31361 
 116      FF48588A 
 116      B5FB9379 
 116      82B3
 117 0156 D5D8D479 		.ascii	"\325\330\324y\202S\346\241\275\306\324<\215\373\300"
 117      8253E6A1 
 117      BDC6D43C 
 117      8DFBC0
 118 0165 A46CF0CF 		.ascii	"\244l\360\317<\\\315\363\016\305\256\263\352a\\\213"
 118      3C5CCDF3 
 118      0EC5AEB3 
 118      EA615C8B 
ARM GAS  /tmp/cc0yVrlH.s 			page 9


 119 0175 53DF9493 		.ascii	"S\337\224\223\345\226#\021k#k\247\354\255m+\177p\224"
 119      E5962311 
 119      6B236BA7 
 119      ECAD6D2B 
 119      7F7094
 120 0188 B70EED94 		.ascii	"\267\016\355\224\225\316\356K?\222\206\037\222?\230"
 120      95CEEE4B 
 120      3F92861F 
 120      923F98
 121 0197 92       		.ascii	"\222"
 122              		.text
 123              		.section	.gnu.lto_print_line.ab82afd5db6bcaf6,"",%progbits
 124 0000 789C9593 		.ascii	"x\234\225\2231h\024A\024\206\3777\263\263w\273\233\323"
 124      31681441 
 124      1486FF37 
 124      B3B377BB 
 124      9BD3
 125 0012 A44B9A10 		.ascii	"\244K\232\020c#\206\334\302U\026\011\010\226\026\026"
 125      632386DC 
 125      C2551609 
 125      08961616 
 126 0022 26A03621 		.ascii	"&\2406!w\210\267\240 \230\316\"s\233\020\016\301pX\211"
 126      7788B7A0 
 126      2098CE22 
 126      739B100E 
 126      C1705889 
 127 0036 22184408 		.ascii	"\"\030D\010\"XZ\011\021\021\356\212\030\354\264;\033"
 127      22585A09 
 127      1111EE8A 
 127      18ECB43B 
 127      1B
 128 0047 DB2B132C 		.ascii	"\333+\023,<\337\333\335Ib\020\202\003\367\336\273}\357"
 128      3CDFDBDD 
 128      49621082 
 128      03F7DEBB 
 128      7DEF
 129 0059 FB67E6DF 		.ascii	"\373g\346\337;\005\205\223k\236?s\032\250q&\037\244"
 129      3B058593 
 129      6B9E3F73 
 129      1AA87126 
 129      1FA4
 130 006b 3A5F8056 		.ascii	":_\200VY\221\227\027:/>\226=\2457w\001\033\232\224`"
 130      59919717 
 130      3A2F3E96 
 130      3DA53777 
 130      011B9A94 
 131 0080 470C913C 		.ascii	"G\014\221<\007aUi\317\320\352M\02295\215-k\237\364?"
 131      07615569 
 131      CFD0EA4D 
 131      1239358D 
 131      2D6B9FF4 
 132 0095 0FB6271E 		.ascii	"\017\266'\036\275L;\366\367pH\011\361\306\347\010\015"
 132      BD4C3BF6 
 132      F7704809 
 132      F1C6E708 
 132      0D
 133 00a6 C20DFE42 		.ascii	"\302\015\376BSYR\336\337'\311\311\235\375\215\315\011"
ARM GAS  /tmp/cc0yVrlH.s 			page 10


 133      535952DE 
 133      DF27C9C9 
 133      9DFD8DCD 
 133      09
 134 00b7 7B446A85 		.ascii	"{Dj\205\331\323\310wj\247?\034\276}\177\360\243Kc\025"
 134      D9D3C877 
 134      6AA73F1C 
 134      BE7D7FF0 
 134      A34B6315 
 135 00cb C232BDA2 		.ascii	"\3022\275\242ix\234\2678\033$\344\371\034L\271\350\004"
 135      69789CB7 
 135      381B24E4 
 135      F91C4CB9 
 135      E804
 136 00dd 4527944E 		.ascii	"E'\224N\304\301g\021\203uk;S\371\004dG^\013\034\371"
 136      C4C16711 
 136      83756B3B 
 136      53F90464 
 136      475E0B1C 
 137 00f2 BA8BA438 		.ascii	"\272\213\2448\351\036\322\376\207O\3762\275&SH\311q"
 137      E91ED2FE 
 137      874FFE32 
 137      BD265348 
 137      C971
 138 0104 B43BC722 		.ascii	"\264;\307\"\227\354\221\336E\332\3736\270\220\317\335"
 138      97EC91DE 
 138      45DAFB36 
 138      B890CFDD 
 139 0114 21EF399E 		.ascii	"!\3579\236\265\254\035e\033\036\342\227mKU\272\227\351"
 139      B5AC1D65 
 139      1B1EE297 
 139      6D4B55BA 
 139      97E9
 140 0126 0B5E2A68 		.ascii	"\013^*h\246n9\304\314\340b\222\201<Pf\011\031\314\307"
 140      A66E39C4 
 140      CCE06292 
 140      813C5066 
 140      0919CCC7 
 141 013a EA847F00 		.ascii	"\352\204\177\000\376\014\336\210n\220#!K\010\342\025"
 141      FE0CDE88 
 141      6E902321 
 141      4B08E215 
 142 014a 8863F660 		.ascii	"\210c\366`r\002\302H\310\224\243Y6aD\024\327\332k\373"
 142      7202C248 
 142      C894A359 
 142      36614414 
 142      D7DA6BFB 
 143 015e 8F2F3955 		.ascii	"\217/9U\336\231\262\033\012\337\203:~s\356\272[{\340"
 143      DE99B21B 
 143      0ADF833A 
 143      7E73EEBA 
 143      5B7BE0
 144 0171 9F82B8C3 		.ascii	"\237\202\270\303O\\\223\211.\326\177\266JN+\027\272"
 144      4F5C9389 
 144      2ED67FB6 
 144      4A4E2B17 
 144      BA
ARM GAS  /tmp/cc0yVrlH.s 			page 11


 145 0182 7AF8D2BE 		.ascii	"z\370\322\276\203\012\363\324\266f1\335.\211\226\021"
 145      830AF3D4 
 145      B66631DD 
 145      2E899611 
 146 0192 A3C5C083 		.ascii	"\243\305\300\203\301\270C\203\37770<a`p\232\201Qa`\345"
 146      C1B84383 
 146      FF37303C 
 146      6160709A 
 146      81516160 
 147 01a7 D0C0F0B8 		.ascii	"\320\300\360\270\201\356\217\263\007\377\310\300HB "
 147      81EE8FB3 
 147      07FFC8C0 
 147      484220
 148 01b6 471A4FE8 		.ascii	"G\032O\350\314$\342\027\366\351\345\204\316\242\030"
 148      CC24E217 
 148      F6E9E584 
 148      CEA218
 149 01c5 118151C5 		.ascii	"\021\201Q\305\326\216\001_\321\352w\317;6_\013\354R"
 149      D68E015F 
 149      D1EA77CF 
 149      3B365F0B 
 149      EC52
 150 01d7 9A494F56 		.ascii	"\232IOV\253\361\225fRO\256]\217Wn?X\211\357&\365\270"
 150      ABF19566 
 150      524FAE5D 
 150      8F576E3F 
 150      5889EF26 
 151 01ed D15C92BA 		.ascii	"\321\\\222\272\332@$y\251\321\274_\255\325(\321\225"
 151      DA402479 
 151      A9D1BC5F 
 151      ADD528D1 
 151      95
 152 01fe 107F0003 		.ascii	"\020\177\000\003\260\2719"
 152      B0B939
 153              		.text
 154              		.section	.gnu.lto_test_printn.part.0.ab82afd5db6bcaf6,"",%progbits
 155 0000 789C8D92 		.ascii	"x\234\215\222\277K#Q\020\307\347\373\336\256\306_h\233"
 155      BF4B2351 
 155      10C7E7FB 
 155      DEAEC65F 
 155      689B
 156 0012 463C0F0B 		.ascii	"F<\017\013\015n\004\205+-\374\003,TP\033I\302\235Y0"
 156      0D6E0485 
 156      2B2DFC03 
 156      2C54501B 
 156      49C29D59 
 157 0027 1238AD2C 		.ascii	"\0228\255,|\011\021D\256\010\001A\357\032\203\210\250"
 157      7C091144 
 157      AE080141 
 157      EF1A8388 
 157      A8
 158 0038 70E2DD3F 		.ascii	"p\342\335?\020\254L\340N\254\257Io\243\245\026\2563"
 158      10AC4CE0 
 158      4EACAF49 
 158      6FA3A516 
 158      AE33
 159 004a BB59CF88 		.ascii	"\273Y\317\210\240\303\356\314\274\367\34633ov\025)z"
ARM GAS  /tmp/cc0yVrlH.s 			page 12


 159      A0C3EECC 
 159      BCF7E633 
 159      336F7615 
 159      297A
 160 005c 29317E0F 		.ascii	")1~\017y\373\023[\330\004\253\370\227\035\013\312\267"
 160      79FB135B 
 160      D804ABF8 
 160      971D0BCA 
 160      B7
 161 006d 0A5A6C2E 		.ascii	"\012Zl.\242\001q\010\264n)\215\3659\010l\367S\331\230"
 161      A2017108 
 161      B46E298D 
 161      F539086C 
 161      F753D998 
 162 0081 527DE3E4 		.ascii	"R}\343\344,j\366\362E\363\340yp\301e>\200R\240Y^\240"
 162      2C6AF6F2 
 162      45F3E079 
 162      70C1653E 
 162      8052A059 
 163 0097 CF37CA6A 		.ascii	"\3177\312j\256\033\220\225\177[\333\317I\255\350\343"
 163      AE1B9095 
 163      7F5BDBCF 
 163      49ADE8E3 
 164 00a7 7BC84AD1 		.ascii	"{\310J\321\234Y\027\246P\361\274q\027\226\242\201\377"
 164      9C5917A6 
 164      50F1BC71 
 164      1796A281 
 164      FF
 165 00b8 9409ACEA 		.ascii	"\224\011\254\352y\265\340]\355[t\253\251\340\340;[\275"
 165      79B5E05D 
 165      ED5B74AB 
 165      A9E0E03B 
 165      5BBD
 166 00ca ADD5CA30 		.ascii	"\255\325\3120%\223\273\361\274n\027\266\242\341\267"
 166      2593BBF1 
 166      BC6E17B6 
 166      A2E1B7
 167 00d9 C85365EA 		.ascii	"\310Se\352\236\267\373\253\255\025\224\300\021\372y"
 167      9EB7FBAB 
 167      AD1594C0 
 167      11FA79
 168 00e8 322E5A34 		.ascii	"2.Z4\253V\031\037\025\214)\366%p\300'\011\354\373\272"
 168      AB56191F 
 168      158C29F6 
 168      2570C027 
 168      09ECFBBA 
 169 00fc CC9A242F 		.ascii	"\314\232$/\3134k\031\373\014,\261\272J\347\021\242\014"
 169      CB346B19 
 169      FB0C2CB1 
 169      BA4AE711 
 169      A20C
 170 010e F8E1932A 		.ascii	"\370\341\223*\345y\025\020\0314J\316@\371\241\177(_"
 170      E5791510 
 170      19344ACE 
 170      40F9A17F 
 170      285F
 171 0120 DDF93998 		.ascii	"\335\3719\230\300\011\177\325E\340\007}\317\031\323"
ARM GAS  /tmp/cc0yVrlH.s 			page 13


 171      C0097FD5 
 171      45E0077D 
 171      CF19D3
 172 012f C37DAFD1 		.ascii	"\303}\257\321\275\331\024/\222\201\374\017\322x\244"
 172      BDD9142F 
 172      9281FC0F 
 172      D278A4
 173 013e 4133351F 		.ascii	"A35\037\"*FC\334\354\023\330\306Y$\326\366#\223a\301"
 173      222A4643 
 173      DCEC13D8 
 173      C65924D6 
 173      F6239361 
 174 0153 2646C7E8 		.ascii	"&F\307\350Xb\333\237\250\016N$TK\203\012\261K\262\003"
 174      5862DB9F 
 174      A80E4E24 
 174      544B830A 
 174      B14BB203 
 175 0167 880413E5 		.ascii	"\210\004\023\345'\357\034\341\331t\205W\321\215\253"
 175      27EF1CE1 
 175      D9748557 
 175      D18DAB
 176 0176 9C5FAB20 		.ascii	"\234_\253 8\030\325\030\3756\233\034,\323\276\242\\"
 176      3818D518 
 176      FD369B1C 
 176      2CD3BEA2 
 176      5C
 177 0187 FD62204C 		.ascii	"\375b L\025\3104WaP.\327\3538\361\211\264\233t'\247"
 177      15C83457 
 177      61502ED7 
 177      EB38F189 
 177      B49B7427 
 178 019c E22B9FBF 		.ascii	"\342+\237\277\256\304\227\334d<\225^\020\337I\021\226"
 178      AEC497DC 
 178      643C955E 
 178      10DF4911 
 178      96
 179 01ad 91D5C9D5 		.ascii	"\221\325\311\325/:\353\214\265\313\336B*\235uF\037\001"
 179      2F3AEB8C 
 179      B5CBDE42 
 179      2A9D7546 
 179      1F01
 180 01bf 5C3FA66C 		.ascii	"\\?\246l"
 181              		.text
 182              		.section	.gnu.lto__test_fail.ab82afd5db6bcaf6,"",%progbits
 183 0000 789C6362 		.ascii	"x\234cb`b@\007\222@\314\311\310\300\240\000\244\031"
 183      60624007 
 183      9240CCC9 
 183      C8C0A000 
 183      A419
 184 0012 99191899 		.ascii	"\231\031\030\231&\234c`h\344`bd\0041\030\030\031\352"
 184      269C6360 
 184      68E46062 
 184      64043118 
 184      1819EA
 185 0025 9918EB23 		.ascii	"\231\030\353#\031\301j\3273\035x\360\377\377\2729\355"
 185      19C16AD7 
 185      331D78F0 
ARM GAS  /tmp/cc0yVrlH.s 			page 14


 185      FFFFBA39 
 185      ED
 186 0036 4BCF30CE 		.ascii	"K\3170\316ebca\314\005\213\2632\26444L\000\032\220\014"
 186      65626361 
 186      CC058BB3 
 186      32B43434 
 186      4C001A90 
 187 004b E6860049 		.ascii	"\346\206\000I\220\336PF&\020\315|\226\241i\307\214o"
 187      90DE5046 
 187      2610CD7C 
 187      96A169C7 
 187      8C6F
 188 005d 07981319 		.ascii	"\007\230\023\031\0272\2622\314f\230\325\330\320 \220"
 188      1732B232 
 188      CC6698D5 
 188      D8D02090 
 189 006d C9C850CD 		.ascii	"\311\310P\315\360\253\241\003\304\002\032\003\322\030"
 189      F0ABA103 
 189      C4021A03 
 189      D218
 190 007b C198C908 		.ascii	"\301\230\311\010\261\007\304b\0001AZW\224\341\323\310"
 190      B107C462 
 190      0031415A 
 190      5794E1D3 
 190      C8
 191 008c 8453E3E9 		.ascii	"\204S\343\351\023\350\032\231\340\032\231s\201^\205"
 191      13E81A99 
 191      E01A9973 
 191      815E85
 192 009b 2867066B 		.ascii	"(g\006kLgda`\270\310\320\370\340v2D\023\334$\210\217"
 192      4C676461 
 192      60B8C8D0 
 192      F8E07632 
 192      4413DC24 
 193 00b1 18413E01 		.ascii	"\030A>\001\331%\247\247\247\357\234\221\231\224\351"
 193      D925A7A7 
 193      A7EF9C91 
 193      9994E9
 194 00c0 1FAC5F92 		.ascii	"\037\254_\222Z\\\242\237\223\231\244\237\234\021\017"
 194      5A5CA29F 
 194      9399A49F 
 194      9C110F
 195 00cf 62EB2533 		.ascii	"b\353%3\000\000\233)LA"
 195      00009B29 
 195      4C41
 196              		.text
 197              		.section	.gnu.lto__test_assert.ab82afd5db6bcaf6,"",%progbits
 198 0000 789C7551 		.ascii	"x\234uQ\261J\003A\024\234\267\357\016BHaa\035b\260\316"
 198      B14A0341 
 198      149CB7EF 
 198      0E424861 
 198      611D62B0 
 199 0015 81BFE007 		.ascii	"\201\277\340\007Xh@+I\016I\016\274*\301\306\"\233\020"
 199      5868402B 
 199      490E490E 
 199      BC2AC1C6 
 199      229B10
ARM GAS  /tmp/cc0yVrlH.s 			page 15


 200 0028 483A8395 		.ascii	"H:\203\225\250\010\021\301F\264\223\024\027\210\225"
 200      A80811C1 
 200      46B49314 
 200      178895
 201 0037 115108A4 		.ascii	"\021Q\010\244\261\363\003\254-l\316}{!b\320\205\335"
 201      B1F303AC 
 201      2D6CCE7D 
 201      7B2162D0 
 201      85DD
 202 0049 F7586666 		.ascii	"\367Xff\347\315*(,\2565\263\207\004\254\232J.H\365^"
 202      E7CD2A28 
 202      2CAE35B3 
 202      8704AC9A 
 202      4A2E48F5 
 203 005e 81664A29 		.ascii	"\201fJ)\236z\320\031'\312B\247\231\234\344\332!\222"
 203      9E7AD019 
 203      27CA42A7 
 203      999CE4DA 
 203      2192
 204 0070 06848662 		.ascii	"\006\204\206b\207\032;dE\356\324\350=\216o\243\316}"
 204      871A3B64 
 204      45EED4E8 
 204      3D8E6FA3 
 204      CE7D
 205 0082 44172A4D 		.ascii	"D\027*M\010\010L!\3015\207@\\\264\265\356\345\000\337"
 205      08084C21 
 205      C1358740 
 205      5CB4B5EE 
 205      E500DF
 206 0095 12B6CC29 		.ascii	"\022\266\314):ERRy\214\366\307\303\244\303%\352\033"
 206      3A455252 
 206      798CF6C7 
 206      C3A4C325 
 206      EA1B
 207 00a7 0F15E26D 		.ascii	"\017\025\342m\012\350\227\315\"1\246\036?\241\225\002"
 207      0AE897CD 
 207      2231A61E 
 207      3FA19502 
 208 00b7 F2E86B7D 		.ascii	"\362\350k}<\212\0363\275fW\307q# #\264B\242.L\225\263"
 208      3C8A1E33 
 208      BD6657C7 
 208      71232023 
 208      B442A22E 
 209 00ce 859DDFA3 		.ascii	"\205\235\337\243V\2146^\320\032\234|\216x\356(i\364"
 209      568C365E 
 209      D01A9C7C 
 209      8E78EE28 
 209      69F4
 210 00e0 F5915BA2 		.ascii	"\365\221[\242K\312\033\\\342\302\267\306q\206\323\246"
 210      4BCA1B5C 
 210      E2C2B7C6 
 210      7186D3A6 
 211 00f0 D64BC6CE 		.ascii	"\326K\306\316!\276tW:'$\311Q\236H^\260n\005-\342\003"
 211      21BE7457 
 211      3A2724C9 
 211      519E485E 
 211      B06E052D 
ARM GAS  /tmp/cc0yVrlH.s 			page 16


 212 0106 235EA22B 		.ascii	"#^\242+\243\3607\225\377\245>\217\017\026\2104'\272"
 212      A3F03795 
 212      FFA53E8F 
 212      0F168834 
 212      27BA
 213 0118 A12508DC 		.ascii	"\241%\010\334\375\031&I\306\261\031N\314\367\310\265"
 213      FD192649 
 213      C6B1194E 
 213      CCF7C8B5 
 214 0128 75FD069A 		.ascii	"u\375\006\232)\363\371py\226\246\272\031f${\022\274"
 214      29F3F970 
 214      7996A6BA 
 214      1966247B 
 214      12BC
 215 013a 4C902D14 		.ascii	"L\220-\024\274\365jP\01666\275\372^\255\356\355\007"
 215      BCF56A50 
 215      0E3636BD 
 215      FA5EADEE 
 215      ED07
 216 014c 65CFAFEE 		.ascii	"e\317\257\356J_\360\301a\255\362\015n-vm"
 216      4A5FF0C1 
 216      61ADF20D 
 216      6E2D766D 
 217              		.text
 218              		.section	.gnu.lto__test_assert_sequence.ab82afd5db6bcaf6,"",%progbits
 219 0000 789CAD54 		.ascii	"x\234\255T\315KTQ\024?\347\336\367=\223F\2640(3\367"
 219      CD4B5451 
 219      143FE7DE 
 219      F73D9346 
 219      B4302833 
 220 0015 CD54AE5B 		.ascii	"\315T\256[D\177@\213\032\250\225\214C\214C\015\011J"
 220      447F408B 
 220      1AA8958C 
 220      438C430D 
 220      094A
 221 0027 1041DEF1 		.ascii	"\020A\336\361\003\005\205\031D\302>\026\212\264\250"
 221      03058519 
 221      44C23E16 
 221      8AB4A8
 222 0036 24970D51 		.ascii	"$\227\015Q8I\240&\012F\033+A\210(H\304\205\024X\370"
 222      3849A026 
 222      0A461B2B 
 222      41882848 
 222      C4851458 
 223 004b 3AF7BE0F 		.ascii	":\367\276\017\307\251\224>.\274w\317=\367w~\347\363"
 223      C7A9943E 
 223      2EBC77CF 
 223      3DF7777E 
 223      E7F3
 224 005d 3D060C2A 		.ascii	"=\006\014*\3275z^\351\000\015\264c\004\220\025\346\001"
 224      D7357A5E 
 224      E9000DB4 
 224      63049015 
 224      E601
 225 006f 721643DD 		.ascii	"r\026C\335\0238\323&9\010\307\231\177\011 \242\032\332"
 225      1338D326 
 225      3908C799 
ARM GAS  /tmp/cc0yVrlH.s 			page 17


 225      7F0920A2 
 225      1ADA
 226 0081 9EDEF100 		.ascii	"\236\336\361\000\247t\306\325\215cHX\324`\346\323Z:"
 226      A774C6D5 
 226      8D634858 
 226      D460E6D3 
 226      5A3A
 227 0093 59AFE374 		.ascii	"Y\257\343t2\003\264\025\0106\242\024\000\241\235q\315"
 227      3203B415 
 227      0836A214 
 227      00A19D71 
 227      CD
 228 00a4 D10D9354 		.ascii	"\321\015\223T\355\027P\206\302\352aD\210\201\345\356"
 228      ED175086 
 228      C2EA6144 
 228      8881E5EE 
 229 00b4 CD4F786B 		.ascii	"\315Oxk\260\3245,\276\273.b\006)\354#\010)\204\363t"
 229      B0D4352C 
 229      BEBB2E62 
 229      0629EC23 
 229      082984F3 
 230 00c9 C03AB531 		.ascii	"\300:\2651m{\036\236mii\252\377\200\030\356(\210M2U"
 230      6D7B1E9E 
 230      6D6969AA 
 230      FF8018EE 
 230      28884D32 
 231 00de 964777B3 		.ascii	"\226Gw\263\034g\245e\327}\367l\375}\037\356\253A\310"
 231      1C67A565 
 231      D77DF76C 
 231      FD7D1FEE 
 231      AB41C8
 232 00f1 4AAB248E 		.ascii	"J\253$\216b=p\310 \327\2214&iFHc\37176\335h\216\304"
 232      623D70C8 
 232      20D79134 
 232      26694648 
 232      63F93736 
 233 0109 46A41425 		.ascii	"F\244\024%\014VI\211\010u\350\022\242P\347\001Az\247"
 233      0C564989 
 233      0875E812 
 233      A250E701 
 233      417AA7
 234 011c 758EDE6B 		.ascii	"u\216\336k\006$\220\321\306g\240cyu\324H\342=\324}\306"
 234      062490D1 
 234      C667A063 
 234      7975D448 
 234      E23DD47D 
 235 0131 EBB0217A 		.ascii	"\353\260!z\2058\231A=\213[}J \007*0\237\203\316\276"
 235      85389941 
 235      3D8B5B7D 
 235      4A20072A 
 235      309F83CE 
 236 0146 CE8FF983 		.ascii	"\316\217\371\203\236I\032\25542\225\215d\237\001VNE"
 236      9E491AAD 
 236      3432958D 
 236      649F0156 
 236      4E45
 237 0158 B70073D0 		.ascii	"\267\000s\320\361\244\373F\000\267\357\300mBk\276U\300"
ARM GAS  /tmp/cc0yVrlH.s 			page 18


 237      F1A4FB46 
 237      00B7EFC0 
 237      6D426BBE 
 237      55C0
 238 016a AE585731 		.ascii	"\256XW1@9i\304\237I)I\272\252d\214\204\214X\3168\015"
 238      403969C4 
 238      9F492949 
 238      BAAA648C 
 238      848C58CE 
 239 0180 5D2BB9E3 		.ascii	"]+\271\343\241[\302AY.\032<\3422y+l\330\333\236Y\024"
 239      A15BC241 
 239      592E1A3C 
 239      E232792B 
 239      6CD8DB9E 
 240 0196 0322B7E6 		.ascii	"\003\"\267\346\272\325\0314\030\034\333\255_i\214\252"
 240      BAD51934 
 240      181CDBAD 
 240      5F698CAA 
 241 01a6 588A435F 		.ascii	"X\212C_J\334\257uPt\3619OE\275\257\352\356\305\220B"
 241      4ADCAF75 
 241      5074F139 
 241      4F45BDAF 
 241      EAEEC590 
 242 01bb 151A059B 		.ascii	"\025\032\005\233\023b/\265\323\2533If\226J\013\312\205"
 242      13622FB5 
 242      D3AB3349 
 242      66964A0B 
 242      CA85
 243 01cd A988A5C4 		.ascii	"\251\210\245\304\021<\362\"\221'\361!1\374\332T\373"
 243      113CF222 
 243      9127F121 
 243      31FCDA54 
 243      FB
 244 01de ADE9ECF4 		.ascii	"\255\351\354\364\325\012C#4\264\262\244\367\340\326"
 244      D50A4323 
 244      34B4B2A4 
 244      F7E0D6
 245 01ed 5632DE7C 		.ascii	"V2\336|80<\005\230 \000}!~\221\202~2\331\016\251P\275"
 245      38303C05 
 245      9820007D 
 245      217E9182 
 245      7E32D90E 
 246 0204 40E56766 		.ascii	"@\345gf\210\276\223\240\320f\350\014Bgv\026\015\337"
 246      88BE93A0 
 246      D066E80C 
 246      42677616 
 246      0DDF
 247 0216 991D76E7 		.ascii	"\231\035v\347\305\207\\C`\304\322~\370\264\026\001\323"
 247      C5875C43 
 247      60C4D27E 
 247      F8B41601 
 247      D3
 248 0227 A8337A39 		.ascii	"\2503z9\316\335\211\025\\\004\346\021\225\226z\252\303"
 248      CEDD8915 
 248      5C04E611 
 248      95967AAA 
 248      C3
ARM GAS  /tmp/cc0yVrlH.s 			page 19


 249 0238 9964439C 		.ascii	"\231dC\234\206\213\000-\262\233\006Lr\256\246\342k\336"
 249      868B002D 
 249      B29B064C 
 249      72AEA6E2 
 249      6BDE
 250 024a 0C48AB76 		.ascii	"\014H\253v\230\213=!H^9\345]MP(\343\270}6\336LE\013"
 250      988B3D21 
 250      485E39E5 
 250      5D4D5028 
 250      E3B87D36 
 251 0262 B95EE1BA 		.ascii	"\271^\341\272\355T\303$>\240\020\376a4\276\345\365$"
 251      ED54C324 
 251      3EA010FE 
 251      6134BEE5 
 251      F524
 252 0274 3EFE6FA3 		.ascii	">\376o\243Q\374\333\321(\376\351h$H1\300d\2417:\307"
 252      51FCDBD1 
 252      28FEE968 
 252      244831C0 
 252      64A1373A 
 253 0289 FB0F55E6 		.ascii	"\373\017U\3465:xx+#\266-\243\035f\301o\356M\303\353"
 253      353A7878 
 253      2B23B62D 
 253      A31D66C1 
 253      6FEE4DC3 
 254 029e 6D129F2B 		.ascii	"m\022\237+\367\276C[\376\244\026\350\177-\303\340\336"
 254      F7BE435B 
 254      FEA416E8 
 254      7F2DC3E0 
 254      DE
 255 02af 7C703F13 		.ascii	"|p?\023ml\242\306\027\315\225\211\375J\004\260\306\026"
 255      6D6CA2C6 
 255      17CD9589 
 255      FD4A04B0 
 255      C616
 256 02c1 A2728A91 		.ascii	"\242r\212\221,e\020\265\261X\374ts\246)s\346l\274\355"
 256      2C6510B5 
 256      B158FC74 
 256      73A62973 
 256      E66CBCED 
 257 02d5 626B5BFC 		.ascii	"bk[\374r\246)\236jn\224r,\005\021\2717\266]\271\324"
 257      72A6299E 
 257      6A6E9472 
 257      2C0511B9 
 257      37B65DB9 
 258 02ea 123BC152 		.ascii	"\022;\301R-<\333\232\376\001\007\220q\250"
 258      2D3CDB9A 
 258      FE010790 
 258      71A8
 259              		.text
 260              		.section	.gnu.lto__test_assert_time_window.ab82afd5db6bcaf6,"",%progbits
 261 0000 789C8D94 		.ascii	"x\234\215\224Kh\023A\030\200\377\177f\323l\242\240P"
 261      4B681341 
 261      1880FF7F 
 261      66D36CA2 
 261      A050
 262 0012 41F420B5 		.ascii	"A\364 \265W\241K\253\036=H\275\010\006\301V\320S\331"
ARM GAS  /tmp/cc0yVrlH.s 			page 20


 262      57A14BAB 
 262      1E3D48BD 
 262      0806C156 
 262      D053D9
 263 0025 6E42B290 		.ascii	"nB\262\220\207$k\021<tREmA,\265\210/DQ\220\326\367\013"
 263      87246B11 
 263      3C745245 
 263      6D412CB5 
 263      882F4451 
 264 003d AAB6105F 		.ascii	"\252\266\020_P\351\003\253\005i\275\004\265T\361\342"
 264      50E903AB 
 264      0569BD04 
 264      B554F1E2 
 265 004d 451151E2 		.ascii	"E\021Q\342?\263\351\332\304\007\2730\377\314\354\374"
 265      3FB3E9DA 
 265      C407BB30 
 265      FFCCECFC 
 266 005d FFF7BF66 		.ascii	"\377\367\277f\227\001\203\352\247\211\306\221\000\300"
 266      970183EA 
 266      A789C691 
 266      00C0
 267 006b 079A3100 		.ascii	"\007\2321\000\310z'\001\362:c|\332\000\261T\033^\003"
 267      C87A2701 
 267      F23A637C 
 267      DA00B154 
 267      1B5E03
 268 007e 22CC5173 		.ascii	"\"\314Qs_k\210r\001\010\235\214k\330\271\033\025\344"
 268      5F6B8872 
 268      01089D8C 
 268      6BD8B91B 
 268      15E4
 269 0090 062B144B 		.ascii	"\006+\024K\245\353\347z\356\016\343\000[\3061\205\240"
 269      A5EBE77A 
 269      EE0EE300 
 269      5BC63185 
 269      A0
 270 00a1 91C00009 		.ascii	"\221\300\000\011\026\004\033A'\201!)\302$d\034\0018"
 270      16041B41 
 270      27812129 
 270      C224641C 
 270      0138
 271 00b3 28446F1D 		.ascii	"(Do\035\200\245 \255$%{'\035\322\314'\340\361\354\360"
 271      80A520AD 
 271      24257B27 
 271      1DD2CC27 
 271      E0F1ECF0 
 272 00c7 CBC9264F 		.ascii	"\313\311&O\315]\024F\216\276\341\336f\256\177&\350m"
 272      CD5D1446 
 272      8EBEE1DE 
 272      66AE7F26 
 272      E86D
 273 00d9 3E9E98AD 		.ascii	">\236\230\255Eo76\376\226\3222\361\002ee!\322`48\015"
 273      456F3736 
 273      FE96D232 
 273      F1026565 
 273      21D26034 
 274 00ef 4DBA8B63 		.ascii	"M\272\213cp\035\014\212\203\371\342\361/\375\253m\344"
ARM GAS  /tmp/cc0yVrlH.s 			page 21


 274      701D0C8A 
 274      83F9E2F1 
 274      2FFDAB6D 
 274      E4
 275 0100 67E074BE 		.ascii	"g\340t\276W,\267Q\333\2056\006\004=\032\250\245J\261"
 275      572CB751 
 275      DB853606 
 275      043D1AA8 
 275      A54AB1
 276 0113 5D0669E2 		.ascii	"]\006i\342Ew\373\034\272>\367\275\032B\027_\017\027"
 276      4577FB1C 
 276      BA3EF7BD 
 276      1A42175F 
 276      0F17
 277 0125 84E82B9C 		.ascii	"\204\350+\234\351\031C\321'\362\237K\245e\2241\203q"
 277      E91943D1 
 277      27F29F4B 
 277      A5659431 
 277      8371
 278 0137 E556416A 		.ascii	"\345VAj\352\324\024\324*\253OQ(X\361\324\263%\377gM"
 278      EAD414D4 
 278      2AAB4F51 
 278      2858F1D4 
 278      B325FF67 
 279 014c F960719F 		.ascii	"\371`q\237\254\327>X\232b\351P\206\024\357\215\375\\"
 279      ACD73E58 
 279      9A62E950 
 279      8614EF8D 
 279      FD5C
 280 015e 75F5B610 		.ascii	"u\365\266\020\335\005\361\255\204%N \023\007UM\375$"
 280      DD05F1AD 
 280      84254E20 
 280      1307554D 
 280      FD24
 281 0170 E8810431 		.ascii	"\350\201\0041B\347\305\217R\031q\325\007\202\377\037"
 281      42E7C58F 
 281      521971D5 
 281      0782FF1F 
 282 0180 71DD0782 		.ascii	"q\335\007\202^L\300\201\356'\363\375\243\003\341\352"
 282      5E4CC081 
 282      EE27F3FD 
 282      A303E1EA 
 283 0190 2BF5E944 		.ascii	"+\365\351D\251\266\321\304[XO\264\233J\336 Yq\225L\274"
 283      A9B6D1C4 
 283      5B584FB4 
 283      9B4ADE20 
 283      5971954C 
 284 01a5 A60EAE28 		.ascii	"\246\016\256(9\240\216\027.\227\0345\256\037\235\022"
 284      39A08E17 
 284      2E971C35 
 284      AE1F9D12 
 285 01b5 56017BDE 		.ascii	"V\001{\336V\232x\2334\342\030\242(\026r\371\333\345"
 285      569A789B 
 285      34E218A2 
 285      281672F9 
 285      DBE5
 286 01c7 7988E2D0 		.ascii	"y\210\342\320B\223\030\2037\213\232\244\273YaeVQxG\227"
ARM GAS  /tmp/cc0yVrlH.s 			page 22


 286      42931883 
 286      378B9AA4 
 286      BB596165 
 286      56517847 
 287 01dc B478A7E7 		.ascii	"\264x\247\347\375\006\262P\276C\2563\1777Tg0\347\343"
 287      FD06B250 
 287      BE43AE33 
 287      7F375467 
 287      30E7E3
 288 01ef 26106E14 		.ascii	"&\020n\024\236\316=z\021\254\252\233\230\357\347&\016"
 288      9ECE3D7A 
 288      11ACAA9B 
 288      98EFE726 
 288      0E
 289 0200 A982DCAB 		.ascii	"\251\202\334\253(H\320+F\3507i'\345>m\360\305\235,\214"
 289      2848D02B 
 289      46E83769 
 289      27E53E6D 
 289      F0C59D2C 
 290 0215 1CAE08C8 		.ascii	"\034\256\010\310\304\373>z\031\220\325\355\032:\371"
 290      C4FB3E7A 
 290      1990D5ED 
 290      1A3AF9
 291 0224 B5C0AB23 		.ascii	"\265\300\253#\272|\214\0325\\\216\345\201\212E\227F"
 291      BA7C8C1A 
 291      355C8EE5 
 291      818A4597 
 291      46
 292 0235 F2E316F2 		.ascii	"\362\343\026\362\343f\373\341\2738\"W\241\224\354\205"
 292      E366FBE1 
 292      BB382257 
 292      A194EC85 
 293 0245 72E10629 		.ascii	"r\341\006)WL\226X\302\207\010n\342\010\021\376n\252"
 293      574C9658 
 293      C287086E 
 293      E20811FE 
 293      6EAA
 294 0257 FDD3746C 		.ascii	"\375\323tl\264\243\312P\367\014\303)\325\034\251\036"
 294      B4A3CA50 
 294      F70CC329 
 294      D51CA91E 
 295 0267 FE9D8C5B 		.ascii	"\376\235\214[\034M\375\365\246 _<\025s\353\030w\225"
 295      1C4DFDF5 
 295      A6205F3C 
 295      1573EB18 
 295      7795
 296 0279 6620ACF8 		.ascii	"f \254\370\000\354\322\246\262'~vd\205\374e\2424\222"
 296      00ECD2A6 
 296      B2277E76 
 296      6485FC65 
 296      A23492
 297 028c 3FD3350D 		.ascii	"?\3235\015\015Fs\302n\267\267\267\030N,\347\030I\273"
 297      0D4673C2 
 297      6EB7B7B7 
 297      184E2CE7 
 297      1849BB
 298 029f DDB0126D 		.ascii	"\335\260\022mr\335`\301\306E\307\231\234\2210\223\306"
ARM GAS  /tmp/cc0yVrlH.s 			page 23


 298      72DD60C1 
 298      C645C799 
 298      9C913093 
 298      C6
 299 02b0 9E4CD6C9 		.ascii	"\236L\326\311\031-\255\221\365M\306\266m[\214\326\255"
 299      192DAD91 
 299      F54DC6B6 
 299      6D5B8CD6 
 299      AD
 300 02c1 918E4679 		.ascii	"\221\216Fy\322\226s\332\222\311hC\002\032+\255\254L"
 300      D29673DA 
 300      92C96843 
 300      021A2BAD 
 300      AC4C
 301 02d3 2A954997 		.ascii	"*\225I\227\0157\357\2104G\366\221\013+\223\215\2659"
 301      0D37EF88 
 301      3447F691 
 301      0B2B938D 
 301      B539
 302 02e5 762A9625 		.ascii	"v*\226%\213\272J\213\254c\330i+\2717\032#\305\016\207"
 302      8BBA4A8B 
 302      AC63D869 
 302      2BB9371A 
 302      23C50E87 
 303 02f9 14D6FE19 		.ascii	"\024\326\376\031H&G\2024\345L\032\232d\005r\216\231"
 303      48264782 
 303      34E54C1A 
 303      9A640572 
 303      8E99
 304 030b 75782C1D 		.ascii	"ux,\035\015Y\231t\324v\354L\232\247r\361_\2649\256\376"
 304      0D599974 
 304      D476EC4C 
 304      9AA772F1 
 304      5FB439AE 
 305              		.text
 306              		.section	.gnu.lto_test_printn.ab82afd5db6bcaf6,"",%progbits
 307 0000 789C8554 		.ascii	"x\234\205TMHTQ\024>\347\336y?\363f\324q\324\021#\302"
 307      4D485451 
 307      143EE7DE 
 307      793FF366 
 307      D471D411 
 308 0016 82361933 		.ascii	"\2026\0313FmZH\213V\255Z\244PmD\247\032\037$H\031\005"
 308      466D5A48 
 308      8B56AD5A 
 308      A4506D44 
 308      A71A1F24 
 309 002d 2DBCCE4C 		.ascii	"-\274\316L j B\364\267\321\242\242\026\271h\327j&\204"
 309      206A2042 
 309      F4B7D1A2 
 309      A216B968 
 309      D76A2684 
 310 0041 46D1A285 		.ascii	"F\321\242\205\330\320\"[D\220\202\213\210\376\240\351"
 310      D8D0225B 
 310      4490828B 
 310      88FEA0E9 
 311 0051 9C77DF1B 		.ascii	"\234w\337\033\315\204.\314=s\317\371\276\363?#@\300"
 311      CD842ECC 
ARM GAS  /tmp/cc0yVrlH.s 			page 24


 311      3D73CFF9 
 311      BEF33F23 
 311      40C0
 312 0063 D673993E 		.ascii	"\326s\231>\237C\000\007Hb\004PL\274\002\030\266\205"
 312      9F430007 
 312      48620450 
 312      4CBC0218 
 312      B685
 313 0075 08DD8C81 		.ascii	"\010\335\214\201r\344\217\016PQ\211&\2531\204\216'\015"
 313      72E48F0E 
 313      50518926 
 313      AB31848E 
 313      270D
 314 0087 FD2EDAA6 		.ascii	"\375.\332\2460\306_\002\341\254\274E8\013\303\236\335"
 314      30C65F02 
 314      E1ACBC45 
 314      380BC39E 
 314      DD
 315 0098 D6B26887 		.ascii	"\326\262h\207\205\255\355\216gw\020Y\017\010CB\206\014"
 315      85ADED8E 
 315      67771059 
 315      0F084342 
 315      860C
 316 00aa D3B2C30E 		.ascii	"\323\262\303\016\016\235BND\356\201i\245&W\256=}\334"
 316      0E9D424E 
 316      44EE8169 
 316      A52657AE 
 316      3D7DDC
 317 00bd 323A959D 		.ascii	"2:\225\235P\277+\025t\221R\336\215\220F8I\017l\365\204"
 317      50BF2B15 
 317      749152DE 
 317      8D904638 
 317      490F6CF5 
 318 00d2 08FD5D03 		.ascii	"\010\375]\0033\013\023\205w\243\343\2506\230R\300\376"
 318      330B1385 
 318      77A3E3A8 
 318      369852C0 
 318      FE
 319 00e3 0DA6D252 		.ascii	"\015\246\322R\304\376\245\252I\265t\246\244\362\205"
 319      C4FEA5AA 
 319      49B574A6 
 319      A4F285
 320 00f2 4AE5888B 		.ascii	"J\345\210\213!\001\355\377\0138#\012+\225\312\302\322"
 320      2101EDFF 
 320      0B38230A 
 320      2B95CAC2 
 320      D2
 321 0103 F70F258C 		.ascii	"\367\017%\214\357@\350\3474{\360\001\356\001\351K\023"
 321      EF40E8E7 
 321      347BF001 
 321      EE01E94B 
 321      13
 322 0114 49E9F88F 		.ascii	"I\351\370\217\010#\242\376\243\006\\4j\3512\353\370"
 322      0823A2FE 
 322      A3065C34 
 322      6AE932EB 
 322      F8
ARM GAS  /tmp/cc0yVrlH.s 			page 25


 323 0125 AA675B9C 		.ascii	"\252g[\234l\323dk \215\325H\227\335\344\243\023\276"
 323      6CD3646B 
 323      208DD548 
 323      97DDE4A3 
 323      13BE
 324 0137 6C662C85 		.ascii	"lf,\2056 \257\324Dk\017\336'\2456\001gK\247\223\356"
 324      3620AFD4 
 324      446B0FDE 
 324      27A53601 
 324      674BA793 
 325 014c 751BBA50 		.ascii	"u\033\272P\220\220%\230\375T|?*{\360\021\032\220A\223"
 325      90902598 
 325      FD547C3F 
 325      2A7BF011 
 325      1A904193 
 326 0160 0B313657 		.ascii	"\01316W\321\205\022\362\226\004(C\204\354\002\313\340"
 326      D18512F2 
 326      96042843 
 326      84EC02CB 
 326      E0
 327 0171 5C859F4A 		.ascii	"\\\205\237J\251\302\327\371\250\213a\035\204\216\270"
 327      A9C2D7F9 
 327      A88B611D 
 327      848EB8
 328 0180 C2E810AC 		.ascii	"\302\350\020\254\242\234\203\254\255]\366#f8\245\327"
 328      A29C83AC 
 328      AD5DF623 
 328      6638A5D7 
 329 0190 90F33500 		.ascii	"\220\3635\000L\037Q1\027\2354z9Q\326\221 \232\001\264"
 329      4C1F5131 
 329      179D347A 
 329      3951D691 
 329      209A01B4 
 330 01a4 0B721172 		.ascii	"\013r\021rc\271/7Z\202\274\242\031\024^\217\031?\007"
 330      63B92F37 
 330      5A82BCA2 
 330      19145E8F 
 330      193F07
 331 01b7 42EB7565 		.ascii	"B\353ued\005 \302\355\334C\014\3605\031D\257\024\007"
 331      640520C2 
 331      EDDC430C 
 331      F0351944 
 331      AF1407
 332 01ca D8965DCD 		.ascii	"\330\226]\315]\010L\265d\365\360#\325\252\353H\313h"
 332      5D084CB5 
 332      64F5F023 
 332      D5AAEB48 
 332      CB68
 333 01dc B35DA38F 		.ascii	"\263]\243\217i\303]\2703Lu\326\221\301\017\257'L\004"
 333      69C35DB8 
 333      334C75D6 
 333      91C10FAF 
 333      274C04
 334 01ef CFC1F5DC 		.ascii	"\317\301\365\334=\021\270\250\337\034\260\232 \015\215"
 334      3D11B8A8 
 334      DF1CB09A 
 334      200D8D
ARM GAS  /tmp/cc0yVrlH.s 			page 26


 335 01fe 4C416926 		.ascii	"LAi&\320^{\275\201j\352\202\321\254\360\240T]\011\362"
 335      D05E7BBD 
 335      816AEA82 
 335      D1ACF0A0 
 335      545D09F2 
 336 0212 6BC56FF3 		.ascii	"k\305o\3635\201c\3342\2212PC#\222\256zcayJ\224Ad\320"
 336      358163DC 
 336      32913250 
 336      432392AE 
 336      7A636179 
 337 022b E177D4B8 		.ascii	"\341w\324\270%9\214\025\314\253\211\334\233\310*\333"
 337      25398C15 
 337      CCAB89DC 
 337      9BC82ADB 
 338 023b 6F6A76EE 		.ascii	"ojv\356\355\314\341\300s\\\327Gs\330\230H\264\2373\362"
 338      EDCCE1C0 
 338      735CD747 
 338      73D89848 
 338      B49F33F2 
 339 024f D639EA07 		.ascii	"\3269\352\007$\326\351\200\322\320\006\373h\367\210"
 339      24D6E980 
 339      D2D006FB 
 339      68F788
 340 025e 4800EA71 		.ascii	"H\000\352q\234\201\032\326\213\260\015\241\261\015\236"
 340      9C811AD6 
 340      8BB00DA1 
 340      B10D9E
 341 026d B0DF5A4D 		.ascii	"\260\337ZM\241F70\305\362)X\245\344\306\252\323HdPz"
 341      A1463730 
 341      C5F22958 
 341      A5E4C6AA 
 341      D3486450 
 342 0282 B3AED0A9 		.ascii	"\263\256\320\251\333n\336\011/\310s#`4k\3574\245\304"
 342      DB6EDE09 
 342      2FC87323 
 342      60346BEF 
 342      34A5C4
 343 0295 C69478E7 		.ascii	"\306\224x\347\214`\345(\023\276\342\204u1\026\014$\274"
 343      8C60E528 
 343      13BEE284 
 343      7531160C 
 343      24BC
 344 02a7 CD40248F 		.ascii	"\315@$\217`\366c\361W0\002\275\354\252c\363\252{\260"
 344      60F663F1 
 344      573002BD 
 344      ECAA63F3 
 344      AA7BB0
 345 02ba 601E3283 		.ascii	"`\0362\203M\026\365?a\257-\357d\267\016\377\262\026"
 345      4D16F53F 
 345      61AF2DEF 
 345      64B70EFF 
 345      B216
 346 02cc E1C56A35 		.ascii	"\341\305j5m\246\035\202gj\204\377q\210\364\006\206W"
 346      6DA61D82 
 346      676A84FF 
 346      7188F406 
 346      8657
ARM GAS  /tmp/cc0yVrlH.s 			page 27


 347 02de 4A7B83E4 		.ascii	"J{\203\344\364\351\244n\254\333\334\375]\311d\352h\237"
 347      F4E9A46E 
 347      ACDBDCFD 
 347      5DC964EA 
 347      689F
 348 02f0 DBEB1E3F 		.ascii	"\333\353\036?\221\032<{q0u\336\355M\245\373\272\371"
 348      911A3C7B 
 348      713075DE 
 348      ED4DA5FB 
 348      BAF9
 349 0302 7B320D0E 		.ascii	"{2\015\016\313\356t\337@\362\240\354\275t\016\007\376"
 349      CBEE74DF 
 349      40F2A0EC 
 349      BD740E07 
 349      FE
 350 0313 001BE923 		.ascii	"\000\033\351#\320"
 350      D0
 351              		.text
 352              		.section	.gnu.lto_test_print.ab82afd5db6bcaf6,"",%progbits
 353 0000 789C6D52 		.ascii	"x\234mR1K[Q\024\376\276{\337}\357%Zh\245\213\016\305"
 353      314B5B51 
 353      14FEBE7B 
 353      DF7DEF25 
 353      5A68A58B 
 354 0016 163AB481 		.ascii	"\026:\264\201d(\216N\376\000\007#T\0271\241$\017*\024"
 354      64288E4E 
 354      FE000723 
 354      541731A1 
 354      240F2A14 
 355 002a EAD6C19B 		.ascii	"\352\326\301\2334BQ\207\320AJ\333A\351\244\024\034\005"
 355      34425187 
 355      D0414ADB 
 355      41E9A414 
 355      1C05
 356 003c 279D34D0 		.ascii	"'\2354\320V\034\213\010\241s\241{\207\246\347\344&\226"
 356      561C8B08 
 356      A173A17B 
 356      87A6E7E4 
 356      2696
 357 004e 961E78E7 		.ascii	"\226\036x\347\234{\316\371\276\363\275w\237\201\301"
 357      9C7BCEF9 
 357      BEF3BD77 
 357      9F81C1
 358 005d BF362DCF 		.ascii	"\2776-\317-)\027$2\006M\373\013\320H\015\243\220\330"
 358      2D291724 
 358      32064DFB 
 358      0BD0480D 
 358      A390D8
 359 0070 909CA491 		.ascii	"\220\234\244\221\261[\247\200\317\273V\002?\352H\255"
 359      B15BA780 
 359      CFBB5602 
 359      3FEA48AD 
 360 0080 83583336 		.ascii	"\203X36r\\[\240\322\361\036v\275\177\335]?\334\033\337"
 360      725C5BA0 
 360      D2F11E76 
 360      BD7FDD5D 
 360      3FDC1BDF 
ARM GAS  /tmp/cc0yVrlH.s 			page 28


 361 0094 D869B6FD 		.ascii	"\330i\266\375\257^\217\031e\361]\242J<\226\003'\373"
 361      AF5E8F19 
 361      65F15DA2 
 361      4A3C9603 
 361      27FB
 362 00a6 C1447F2B 		.ascii	"\301D\177+90\307\335^\357\375\345\307oW\034\033!V\010"
 362      3930C7DD 
 362      5EEFFDE5 
 362      C76F571C 
 362      1B215608 
 363 00ba 4B710E19 		.ascii	"Kq\016\031m\214e\356\012y\"\207(\025\347r: \346\320"
 363      6D8C65EE 
 363      0A792287 
 363      2815E772 
 363      3A20E6D0 
 364 00ce F2BE3D09 		.ascii	"\362\276=\011e\027+\213\027\201e\032\011v\236\026\242"
 364      65172B8B 
 364      1781651A 
 364      09769E16 
 364      A2
 365 00df DA7E46B3 		.ascii	"\332~F\263\363\346\360\3012?\320\241\306\370\035\336"
 365      F3E6F0C1 
 365      323FD0A1 
 365      C6F81DDE 
 366 00ef 36BCBF29 		.ascii	"6\274\277)\302^\340\247\177\245Y\274B%Pe\361@\221\240"
 366      C25EE0A7 
 366      7FA559BC 
 366      42255065 
 366      F14091A0 
 367 0103 168790A4 		.ascii	"\026\207\220\244\200\207\262Z\2002\220\010\205\016\206"
 367      8087B25A 
 367      80329008 
 367      850E86
 368 0112 B10AF11F 		.ascii	"\261\012\361\037@Z\300\276\362\246\001\222\023\012\205"
 368      405AC0BE 
 368      F2A60192 
 368      130A85
 369 0121 440308AF 		.ascii	"D\003\010\257!/7\355\020#C\354\177\032\355v`B]\336S"
 369      212F37ED 
 369      102343EC 
 369      7F1AED76 
 369      60425DDE 
 370 0136 5AC0395C 		.ascii	"Z\3009\\(@\351\325\3055\272\214\371\3004/\334r%\266"
 370      2840E9D5 
 370      C535BA8C 
 370      F9C0342F 
 370      DC7225B6 
 371 014a 83A634FB 		.ascii	"\203\2464\373 \366%\035\255\377\330\236\030\256pA\316"
 371      20F6251D 
 371      ADFFD89E 
 371      18AE7041 
 371      CE
 372 015b C860D3E8 		.ascii	"\310`\323\350@\306\031Z\337\033\217\256\207\264u\343"
 372      40C6195A 
 372      DF1B8FAE 
 372      87B475E3 
 373 016b CFD57C05 		.ascii	"\317\325|\005k\264F\\\316~\272\274\255\273\234~\336"
ARM GAS  /tmp/cc0yVrlH.s 			page 29


 373      6BB4465C 
 373      CE7EBABC 
 373      ADBB9C7E 
 373      DE
 374 017c 0B34BA57 		.ascii	"\0134\272W\367\207\242\202\225ek+\321\037\355N\261X"
 374      F787A282 
 374      95656B2B 
 374      D11FED4E 
 374      B158
 375 018e 9AA96795 		.ascii	"\232\251g\225lv\256\264\372\344\371j\351iV)U\353K\232"
 375      6C76AEB4 
 375      FAE4F96A 
 375      E9695629 
 375      55EB4B9A 
 376 01a2 17ABC86B 		.ascii	"\027\253\310k\\\252\326\237\025\247~\003e\277|g"
 376      5CAAD69F 
 376      15A77E03 
 376      65BF7C67 
 377              		.text
 378              		.section	.gnu.lto_test_println.ab82afd5db6bcaf6,"",%progbits
 379 0000 789C8D53 		.ascii	"x\234\215S\317k\023Q\020\236yo\337f\263Il\254\036\254"
 379      CF6B1351 
 379      109E796F 
 379      DF66B349 
 379      6CAC1EAC 
 380 0014 60A9050F 		.ascii	"`\251\005\017ZI\016\"\275(\012\376\001\036lA{)I\220"
 380      5A490E22 
 380      BD280AFE 
 380      011E6C41 
 380      7B294990 
 381 0028 CD828142 		.ascii	"\315\202\201B{\353\241/1\202X\017\241\007\255\212`\220"
 381      7BEBA12F 
 381      3182580F 
 381      A107AD8A 
 381      6090
 382 003a 8A7AF152 		.ascii	"\212z\361R\360\307\241\324\223\306\252\305\243J!\350"
 382      F0C7A1D4 
 382      93C6AAC5 
 382      A34A21E8 
 383 004a B5A0E71C 		.ascii	"\265\240\347\034\\g\366\355n\177x\250\0172ov\336|3\337"
 383      5C67F6ED 
 383      6E7F78A8 
 383      0F326F76 
 383      DE7C33DF 
 384 005e 7CEF4580 		.ascii	"|\357E\200\200\335\353,\375\226%\3009\332\321\006\024"
 384      80DDEB2C 
 384      FD9625C0 
 384      39DAD106 
 384      14
 385 006f ADCF0075 		.ascii	"\255\317\000uG\240e\034i\234\267\216%\344\355w\000\332"
 385      47A0651C 
 385      699CB78E 
 385      25E4ED77 
 385      00DA
 386 0081 55CD14E8 		.ascii	"U\315\024\350\254B\3448 \314\011i)\234\273\202\\N\014"
 386      AC42E438 
 386      20CC0969 
ARM GAS  /tmp/cc0yVrlH.s 			page 30


 386      299CBB82 
 386      5C4E0C
 387 0094 435BEB85 		.ascii	"C[\353\205\356\322\312\275\201[\217\032-\375'\010\320"
 387      EED2CABD 
 387      815B8F1A 
 387      2DFD2708 
 387      D0
 388 00a5 476A7C14 		.ascii	"Gj|\024\241\202p\231>p(\334\204\265\223\211A\256\276"
 388      A1827099 
 388      3E7028DC 
 388      84B59389 
 388      41AEBE
 389 00b8 5EFBD046 		.ascii	"^\373\320F\275\240\353\277\203\240/D\236\334\013\371"
 389      BDA0EBBF 
 389      83A02F44 
 389      9EDC0BF9 
 390 00c8 42AC7683 		.ascii	"B\254v\203`sc\371G\017\373\363\002k\010\026\224\260"
 390      607363F9 
 390      470FFBF3 
 390      026B0816 
 390      94B0
 391 00da 8DC3A0C0 		.ascii	"\215\303\240\300Gi\223\261\034\212<\246H\232#.\031\225"
 391      476993B1 
 391      1C8A3CA6 
 391      489A232E 
 391      1995
 392 00ec 014ACCB2 		.ascii	"\001J\314\262\311\321\247M\205\0244\265n\015\001\367"
 392      C9D1A74D 
 392      851434B5 
 392      6E0D01F7 
 393 00fc A3354696 		.ascii	"\2435F\226\206\035GA\233\354@\303IXn\314\257m#\231\022"
 393      861D4741 
 393      9BEC40C3 
 393      49586ECC 
 393      AF6D2399 
 394 0111 30BA1749 		.ascii	"0\272\027I\017#\361\307Q\002))?A\243\263\370\362x\322"
 394      0F23F1C7 
 394      51022929 
 394      3F41A3B3 
 394      F8F278D2 
 395 0125 D338FAE7 		.ascii	"\3238\372\347\335#%|BD\201\010/\241\242\262h\360\316"
 395      DD23257C 
 395      42448108 
 395      2FA1A2B2 
 395      68F0CE
 396 0138 03B85FD7 		.ascii	"\003\270_\327:O\242\314BO\337d\317\251\205\247\334\320"
 396      3A4FA2CC 
 396      424FDF64 
 396      CFA985A7 
 396      DCD0
 397 014a 891A51DD 		.ascii	"\211\032Q\335oT\267\204O\011\354az\004N\320\304\011"
 397      6F54B784 
 397      4F09EC61 
 397      7A044ED0 
 397      C409
 398 015c 364D8538 		.ascii	"6M\2058\335$\2271\354\363\214R\015t\"\306\271#\360\234"
 398      DD249731 
ARM GAS  /tmp/cc0yVrlH.s 			page 31


 398      ECF38C52 
 398      0D7422C6 
 398      B923F09C 
 399 0170 F3DD0499 		.ascii	"\363\335\004\231\241b\214\224\021\022w \257\317\313"
 399      A1628C94 
 399      11127720 
 399      AFCFCB
 400 017f 189AF530 		.ascii	"\030\232\3650\023J\300\305; L\334LE\247\000\353\240"
 400      134AC0C5 
 400      3B204CDC 
 400      4C45A700 
 400      EBA0
 401 0191 4C8CC772 		.ascii	"L\214\307r\303\331<\314\371|d\024\262\200\036W\244x"
 401      C3D93CCC 
 401      F97C6414 
 401      B2801E57 
 401      A478
 402 01a3 8CCB84FC 		.ascii	"\214\313\204\374\336\334\370u\347p\334(\227p\313E-S"
 402      DEDCF875 
 402      E770DC28 
 402      9770CB45 
 402      2D53
 403 01b5 9108EFA1 		.ascii	"\221\010\357\241\271Y?\225\344\361\321\276\255\273\370"
 403      B9593F95 
 403      E4F1D1BE 
 403      ADBBF8
 404 01c4 0A348B10 		.ascii	"\0124\213\020Hd\344\307\357\007\271\243\342+\346+y\265"
 404      4864E4C7 
 404      EF07B9A3 
 404      E22BE62B 
 404      79B5
 405 01d6 326074F7 		.ascii	"2`t\367\320\372o\301'b\210J\324\306Pjk\227\324\377\000"
 405      D0FA6FC1 
 405      2762884A 
 405      D4C6506A 
 405      6B97D4FF 
 406 01eb EC48E63E 		.ascii	"\354H\346>\003!^j\273\306\361\037v\035l\203`\261l6\026"
 406      03215E6A 
 406      BBC6F11F 
 406      761D6C83 
 406      60B16C36 
 407 0200 533AE463 		.ascii	"S:\344c~\020\316<\324\213\347}\334\037=\230\220\\\277"
 407      7E10CE3C 
 407      D48BE77D 
 407      DC1F3D98 
 407      905CBF
 408 0213 A0377D00 		.ascii	"\2407}\000\340\013\324\273\275c1\326\2541\032\241\231"
 408      E00BD4BB 
 408      BD6331D6 
 408      AC311AA1 
 408      99
 409 0224 E2D28385 		.ascii	"\342\322\203\205B\361B\325/\373\027/\025g\256N\317\024"
 409      42F142D5 
 409      2FFB172F 
 409      1567AE4E 
 409      CF14
 410 0236 AFF9E562 		.ascii	"\257\371\345b\245:\311~\241\002.\357\223\225\352Tat"
ARM GAS  /tmp/cc0yVrlH.s 			page 32


 410      A53AC97E 
 410      A1022EEF 
 410      9395EA54 
 410      6174
 411 0248 CB3D6DD5 		.ascii	"\313=m\325\246\275)\231s\341/L\017\333\314"
 411      A6BD2999 
 411      73E12F4C 
 411      0FDBCC
 412              		.text
 413              		.section	.gnu.lto_test_emit_token.ab82afd5db6bcaf6,"",%progbits
 414 0000 789C8D52 		.ascii	"x\234\215ROH\024Q\030\377\2767\263\256\370\207\204N"
 414      4F481451 
 414      18FFBE37 
 414      B3AEF887 
 414      844E
 415 0012 45ACAB10 		.ascii	"E\254\253\020u\310\035\253C\035\013O\036\226\300U\252"
 415      75C81DAB 
 415      431D0B4F 
 415      1E96C055 
 415      AA
 416 0023 D3324E83 		.ascii	"\3232N\203;\265\343\310\316*J\007\337\356z\010<$\022"
 416      3BB5E3C8 
 416      CE2A4A07 
 416      DFEE7A08 
 416      3C2412
 417 0036 91A9A844 		.ascii	"\221\251\250DV\020Et\022\2046\250p3\227\"\017]\202%"
 417      56104574 
 417      128436A8 
 417      70339722 
 417      0F5D8225 
 418 004a 090C4F1E 		.ascii	"\011\014O\036\002\013i\373\336\316\356\254\272\222\275"
 418      020B69FB 
 418      DECEEEAC 
 418      BA92BD
 419 0059 E1CDF7BD 		.ascii	"\341\315\367\275\367\276\337\367\375\336\373}\014\030"
 419      F7BEDFF7 
 419      FDDEFB7D 
 419      0C18
 420 0067 EC1D6768 		.ascii	"\354\035ghf$\000\011\001\320\003\310\306\262\000\211"
 420      66240009 
 420      01D003C8 
 420      C6B20089 
 421 0077 6AC6A455 		.ascii	"j\306\244U\005x\215\274\350\003^'\241\354l\313\210\302"
 421      05788DBC 
 421      E8035E27 
 421      A1EC6CCB 
 421      88C2
 422 0089 01846126 		.ascii	"\001\204a&\3118|\025E\016\326\014s\234\217\347\336\256"
 422      C9387C15 
 422      450ED60C 
 422      739C8FE7 
 422      DEAE
 423 009b 65D8C49D 		.ascii	"e\330\304\235\364\310,\337\316\347\021\015\244zM\010"
 423      F4C82CDF 
 423      CEE7110D 
 423      A47A4D08 
 424 00ab 1AC2155A 		.ascii	"\032\302\025Z\240\277`\230\274\233\200\203M\317do\037"
ARM GAS  /tmp/cc0yVrlH.s 			page 33


 424      A0BF6098 
 424      BC9B8083 
 424      4DCF646F 
 424      1F
 425 00bc 793F9B1C 		.ascii	"y?\233\034\343\177\010Z@\266\354\2134\261\014}\316\322"
 425      E37F085A 
 425      40B6EC8B 
 425      34B10C7D 
 425      CED2
 426 00ce B97C7E71 		.ascii	"\271|~q\363\361\267\011<\\'\203\212s\330\014\036\262"
 426      F3F1B709 
 426      3C5C2783 
 426      8A73D80C 
 426      1EB2
 427 00e0 0FC87AD1 		.ascii	"\017\310z\321D\021\354\201\021\316\307\374 \262\321"
 427      4411EC81 
 427      11CEC7FC 
 427      20B2D1
 428 00ef E8A4BFB8 		.ascii	"\350\244\277\270C\0272a\245\014$\253K,r?\237\254\274"
 428      43173261 
 428      A50C24AB 
 428      4B2C723F 
 428      9FACBC
 429 0102 C6F1145F 		.ascii	"\306\361\024_\342#i\342\321h\240\304\340\372AW\020{"
 429      E22369E2 
 429      D168A0C4 
 429      E0FA4157 
 429      107B
 430 0114 1215802C 		.ascii	"\022\025\200,$7\327S\363G\335\222\216\223\336\370<)"
 430      2437D753 
 430      F347DD92 
 430      8E93DEF8 
 430      3C29
 431 0126 9D54719E 		.ascii	"\235Tq\236X\271{/\357n\325\036sW\013S_\017\271\213\345"
 431      58B97B2F 
 431      EF6ED51E 
 431      73570B53 
 431      5F0FB98B 
 432 013b 776BA488 		.ascii	"wk\244\210\212\017I\020\015EuFS\242Y(\214\364\255\323"
 432      8A0F4910 
 432      0D457546 
 432      53A25928 
 432      8CF4ADD3 
 433 014f 92C4941C 		.ascii	"\222\304\224\034E}\360\013\247\371\275\013\206\023\340"
 433      457DF00B 
 433      A7F9BD0B 
 433      8613E0
 434 015e F2299F6F 		.ascii	"\362)\237o\027\317=\016\343\025Hf\276\220ZN\215\036"
 434      17CF3D0E 
 434      E3154866 
 434      BE905A4E 
 434      8D1E
 435 0170 9427E17E 		.ascii	"\224'\341~\202\363\006z\370\233\360\233\337\022^\225"
 435      82F3067A 
 435      F89BF09B 
 435      DF125E95 
 436 0180 F3D42259 		.ascii	"\363\324\"YU\361\242K\360\346{\242\336\0059\241\374"
ARM GAS  /tmp/cc0yVrlH.s 			page 34


 436      55F1A24B 
 436      F0E67BA2 
 436      DE0539A1 
 436      FC
 437 0191 32A15AE0 		.ascii	"2\241Z\340)\2471M\301^\023\231\000U7T4\233\030]\304"
 437      29A7314D 
 437      C15E1399 
 437      00553754 
 437      349B185D 
 438 01a6 7C559156 		.ascii	"|U\221V 5\232z5\325XJ\346\241|\205\267E\207^\273s\360"
 438      20359A7A 
 438      35D5584A 
 438      E6A17C85 
 438      B745875E 
 439 01bd 3FBC7AC4 		.ascii	"?\274z\304\255\010\262\374\261f'\210\327\022\227bV("
 439      AD08B2FC 
 439      B1662788 
 439      D7129762 
 439      5628
 440 01cf 067A4B1C 		.ascii	"\006zK\034\344}\264\377\221\335\253\275\212\217\012"
 440      E47DB4FF 
 440      91DDABBD 
 440      8A8F0A
 441 01de 4F7FA0F8 		.ascii	"O\177\240\370\360/\3617\246\205\370\013\273\305\237"
 441      F02FF137 
 441      A685F80B 
 441      BBC59F
 442 01ed A9F7ED68 		.ascii	"\251\367\355hM\267\013\266\312]0\372!\345)w\201\230"
 442      4DB70BB6 
 442      CA5D30FA 
 442      21E52977 
 442      8198
 443 01ff 85EB6A74 		.ascii	"\205\353jt\211\312FP\361\0319.\227\222\360*\276@\237"
 443      89CA4650 
 443      F119392E 
 443      9792F02A 
 443      BE409F
 444 0212 C3F31324 		.ascii	"\303\363\023$r\023'\234t\245\321I\315E\357 B}\201\200"
 444      7213279C 
 444      74A5D149 
 444      CD45EF20 
 444      427D8180 
 445 0226 D21631BA 		.ascii	"\322\0261\272\215K!%\256\333q%jt+Z$,\374\200\006\265"
 445      8D4B2125 
 445      AEDB7125 
 445      6A742B5A 
 445      242CFC80 
 446 023c C286E3D6 		.ascii	"\302\206\343\326\215\276\300\371\272\262\177\272U\331"
 446      8DBEC0F9 
 446      BAB27FBA 
 446      55D9
 447 024a 81B36C45 		.ascii	"\201\263lE\263L\323\352U\372\254X\334V.v\004\333\202"
 447      B34CD3EA 
 447      55FAAC58 
 447      DC562E76 
 447      04DB82
 448 025d 839445B3 		.ascii	"\203\224E\263bzx\340\234\031\210\200g@\215\366\353g"
ARM GAS  /tmp/cc0yVrlH.s 			page 35


 448      627A78E0 
 448      9C198880 
 448      67408DF6 
 448      EB67
 449 026f F745E983 		.ascii	"\367E\351\203q\245-\030j\017)F\257\026\355\277\246+"
 449      71A52D18 
 449      6A0F2946 
 449      AF16EDBF 
 449      A62B
 450 0281 9A691B76 		.ascii	"\232i\033v\270G\323\010\331\264\033\023\213\227\243"
 450      B847D308 
 450      D9B41B13 
 450      8B97A3
 451 0290 22F6905D 		.ascii	"\"\366\220]\031\021Q\243d\350G\241\302RDC0\324\341\357"
 451      191151A3 
 451      64E847A1 
 451      C2524443 
 451      30D4E1EF 
 452 02a4 566DBD2F 		.ascii	"Vm\275/f\234\362\037o\005\026\003\257\251\233Vl\010"
 452      669CF21F 
 452      6F051603 
 452      AFA99B56 
 452      6C08
 453 02b6 FE02BE9F 		.ascii	"\376\002\276\237?<"
 453      3F3C
 454              		.text
 455              		.section	.gnu.lto_test_emit_token_i.ab82afd5db6bcaf6,"",%progbits
 456 0000 789C8D52 		.ascii	"x\234\215R=HBQ\024>\347\336k\210\031\010M-f.M\275\207"
 456      3D484251 
 456      143EE7DE 
 456      6B881908 
 456      4D2D662E 
 457 0017 B5B53635 		.ascii	"\265\265655\244T\223\250D>J\012rk\360>5\010\032\222"
 457      35A45493 
 457      A8443E4A 
 457      0A726BF0 
 457      3E35081A 
 458 002c 68E80741 		.ascii	"h\350\007A\2116\261\266\226\006\207\206,\222\002\267"
 458      8936B1B6 
 458      96068786 
 458      2C9202B7 
 459 003c 160982A0 		.ascii	"\026\011\202\240\271%\242\327\271\357\251\331\317\320"
 459      B925A2D7 
 459      B9EFA9D9 
 459      CFD0
 460 004a 81F7BE73 		.ascii	"\201\367\276s\337=\337w\276sx\014\030\374\214qz\236"
 460      DF3DDF77 
 460      BE73780C 
 460      18FC8C71 
 460      7A9E
 461 005c 11609210 		.ascii	"\021`\222\020]\200\254\320\0000\335\214\361\246\016"
 461      5D80ACD0 
 461      0030DD8C 
 461      F1A60E
 462 006b D2232EFC 		.ascii	"\322#.\374 \275\034\205\363Y \252\004\0202\214\013\314"
 462      20BD1C85 
 462      F35920AA 
ARM GAS  /tmp/cc0yVrlH.s 			page 36


 462      0410328C 
 462      0BCC
 463 007d 2CA0D260 		.ascii	",\240\322`A(K\271\333\332|\251\263\203\275Z\276$\337"
 463      41284BB9 
 463      DBDA7CA9 
 463      B383BD5A 
 463      BE24DF
 464 0090 2D0BD140 		.ascii	"-\013\321@\3527\202\220@\230\247\003\006l`\342\273\001"
 464      EA378290 
 464      4098A703 
 464      066C60E2 
 464      BB01
 465 00a2 875B7B68 		.ascii	"\207[{h\354\014]\227\262\005\371AT\233\251\375\311L"
 465      EC0C5D97 
 465      B205F941 
 465      549BA9FD 
 465      C94C
 466 00b4 E117F594 		.ascii	"\341\027\365\224\325Z\226Uy={\254\342\240\233C\014\313"
 466      D55A9655 
 466      793D7BAC 
 466      E2A09B43 
 466      0CCB
 467 00c6 18044178 		.ascii	"\030\004AxL\330\207)T\305.\310KY\010\200R\243\010\323"
 467      4CD88729 
 467      54C52EC8 
 467      4B590880 
 467      52A308D3 
 468 00da 5BCD1041 		.ascii	"[\315\020A\246\220\337B\266\276O\306cxB\363/!?\202C"
 468      A690DF42 
 468      B6BE4FC6 
 468      637842F3 
 468      2F213F82 
 469 00ef 534A1F79 		.ascii	"SJ\037y\330\2007\271\2452\356tU&x\273\367\025\\>\231"
 469      D88037B9 
 469      A532EE74 
 469      552678BB 
 469      F7155C3E 
 470 0104 035D9253 		.ascii	"\003]\222S*\347\2105\006\025IQ\244b\221B\246H.\337\257"
 470      2AE78835 
 470      06154951 
 470      A4629142 
 470      A6482EDF 
 471 0119 BDAB8890 		.ascii	"\275\253\210\220ZS'\007\271\355\334yq\270#&H\317\236"
 471      5A532707 
 471      B9EDDC79 
 471      71B82326 
 471      48CF9E
 472 012c 5735257B 		.ascii	"W5%{\323\316\305\177|\021\331\246\334\334yzI\262\337"
 472      D3CEC57F 
 472      7C11D9A6 
 472      DCDC797A 
 472      49B2DF
 473 013f E8AA42BB 		.ascii	"\350\252B\273\260\257\343A\330k\270\007\263U\035uH\235"
 473      B0AFE341 
 473      D86BB807 
 473      B3551D75 
 473      489D
ARM GAS  /tmp/cc0yVrlH.s 			page 37


 474 0151 08D3FEE8 		.ascii	"\010\323\376\350N\3754~M\323\247\222F\334\230\231\325"
 474      4EFD347E 
 474      4DD3A792 
 474      46DC9899 
 474      D5
 475 0162 D38BEB69 		.ascii	"\323\213\353i}\305\210\353\211dT\345Z\002\274\012\243"
 475      7DC588EB 
 475      896454E5 
 475      5A02BC0A 
 475      A3
 476 0173 E9D5E535 		.ascii	"\351\325\3455-\024\352=L|\002U\276\213\212"
 476      2D14EA3D 
 476      4C7C0255 
 476      BE8B8A
 477              		.text
 478              		.section	.gnu.lto_test_execute.ab82afd5db6bcaf6,"",%progbits
 479 0000 789CED9A 		.ascii	"x\234\355\232itTE\026\307\353\276\316\322Y \020\262"
 479      69745445 
 479      16C7EBBE 
 479      CED25920 
 479      10B2
 480 0012 90409A4E 		.ascii	"\220@\232N !\013\351,\240\010\216\3430,\212\202,!\312"
 480      20210BE9 
 480      2CA0088E 
 480      E3302C8A 
 480      822C21CA 
 481 0026 8E4D131E 		.ascii	"\216M\023\036\215\011\301$ \210J\207\20450\"#\213:\243"
 481      8D09C124 
 481      20884A87 
 481      84353022 
 481      238B3AA3 
 482 003a 8220031C 		.ascii	"\202 \003\034EA\005dK\217\343(\003\270\2153#\240g\342"
 482      45410564 
 482      4B8FE328 
 482      03B88D33 
 482      23A067E2 
 483 004e 8A7A3CEA 		.ascii	"\212z<\352\021?\314\350\014\231[u\353\275~\257\337K"
 483      113FCCE8 
 483      0C995B75 
 483      EBBD7EAF 
 483      DF4B
 484 0060 4CF0CB7C 		.ascii	"L\360\313| \037\272\252n\375\357\255WU\277\252W]\035"
 484      201FBAAA 
 484      6EFDEFAD 
 484      5755BFAA 
 484      575D1D
 485 0073 85292CFC 		.ascii	"\205),\374\257\034M}\012\030k\006\306` \003e\343\033"
 485      AF1C4D7D 
 485      0A186B06 
 485      C6602003 
 485      65E31B
 486 0086 8CD53B15 		.ascii	"\214\325;\025\210\240\214\2032Ag\204\342X\377\032c\201"
 486      88A08C83 
 486      32416784 
 486      E258FF1A 
 486      6381
 487 0098 D8C8C668 		.ascii	"\330\310\306h\026\210\217\204h\022DQ&\350\214V\242H"
ARM GAS  /tmp/cc0yVrlH.s 			page 38


 487      16888F84 
 487      68124451 
 487      26E88C56 
 487      A248
 488 00aa E0140227 		.ascii	"\340\024\002'\304\222 \2062Ag\254\022C\2028!\210\203"
 488      C4922086 
 488      324167AC 
 488      12438238 
 488      218883
 489 00bd 7C12C443 		.ascii	"|\022\304CW\312t\241L\320\331U\351B\312\004\241L\200"
 489      57CA74A1 
 489      4CD0D955 
 489      E942CA04 
 489      A14C80
 490 00d0 EE24E846 		.ascii	"\356$\350F\231\240\263\273\322\215\004\211B\220\010"
 490      99A0B3BB 
 490      D28D0489 
 490      429008
 491 00df 4924E841 		.ascii	"I$\350A\231\2403I\351A\202d!H\206T\022\244P&\350LUR"
 491      99A03349 
 491      E9418264 
 491      21488654 
 491      12A45026 
 492 00f7 48D05308 		.ascii	"H\320S\010z*i\307\006c)\347\335\024,\245A/\256\202t"
 492      7A2A69C7 
 492      066329E7 
 492      DD142CA5 
 492      412FAE82 
 493 010c 4A83CE5E 		.ascii	"J\203\316^J:\251{\013uopQ\270\014\312\004\235.%\203"
 493      4A3AA97B 
 493      0B756F70 
 493      51B80CCA 
 493      049D2E25 
 494 0121 047D84A0 		.ascii	"\004}\204\240\017d\222\300M\231\2403Sq\223 K\010\262"
 494      0F6492C0 
 494      4D99A033 
 494      53719320 
 494      4B08B2
 495 0134 A01F09FA 		.ascii	"\240\037\011\372R&\350\354\247\364%A\266\020dC\177\022"
 495      5226E8EC 
 495      A7F42541 
 495      B6106443 
 495      7F12
 496 0146 E46899FE 		.ascii	"\344h\231\376\220K\312\\%\236\224yB\231G\343\030t\346"
 496      904BCA5C 
 496      259E9479 
 496      429947E3 
 496      1874E6
 497 0159 2B05641F 		.ascii	"+\005d\037 \354\005\244\207\001\340\241\000\205\224"
 497      20EC05A4 
 497      8701E0A1 
 497      008594
 498 0168 093A3D4A 		.ascii	"\011:=J!\011\213\204\260H)>\346\302R\311\273EX*\206"
 498      21098B84 
 498      B048293E 
 498      E6C252C9 
 498      BB45582A 
ARM GAS  /tmp/cc0yVrlH.s 			page 39


 499 017d 52929768 		.ascii	"R\222\227h\231R\000\236a\300\226+\216\210\310\250hg"
 499      9952009E 
 499      61C0962B 
 499      8E88C8A8 
 499      6867
 500 018f 4C6C5C7C 		.ascii	"Ll\\|\227\256\011\335\272'\366HJNI\355\231\226\336\253"
 500      97AE09DD 
 500      BA27F648 
 500      4A4E49ED 
 500      9996DEAB 
 501 01a3 7786AB8F 		.ascii	"w\206\253\217;3\253o\277\354\234\376\271y\371\005\003"
 501      3B33AB6F 
 501      BFEC9CFE 
 501      B979F905 
 501      03
 502 01b4 0A3D45C5 		.ascii	"\012=E\305%\245\260|\012p\314\\Yl{ \260\251e\345\323"
 502      25A5B07C 
 502      0A70CC5C 
 502      596C7B20 
 502      B0A965E5 
 503 01c9 3F381E79 		.ascii	"?8\036y\270\271\361\311\300\177Z[\001\374\200Hf\002"
 503      B8B9F1C9 
 503      C07F5A5B 
 503      01FC8048 
 503      6602
 504 01db F3019B8C 		.ascii	"\363\001\233\214\005p\213D\21103J\276\315\3077mH]\327"
 504      05708B44 
 504      8930334A 
 504      BECDC737 
 504      6D485DD7 
 505 01ef 12D818B8 		.ascii	"\022\330\030\270\214\256~p(,'\344\351$O\260\365|{\323"
 505      8CAE7E70 
 505      282C27E4 
 505      E9244FB0 
 505      F57C7BD3 
 506 0203 96B4754F 		.ascii	"\226\264uO\256\320<\261\315!\035l\363\241\337\036\335"
 506      AED03CB1 
 506      CD211D6C 
 506      F3A1DF1E 
 506      DD
 507 0214 0E815581 		.ascii	"\016\201U\201\372o[[\023D\233\243:\324\346\306\346G"
 507      FA6F5B5B 
 507      13449BA3 
 507      3AD4E6C6 
 507      E647
 508 0226 DE3C0D81 		.ascii	"\336<\015\201M\232c\204\302\246v\250\311\215\201\027"
 508      4D9A6384 
 508      C2A676A8 
 508      C98D8117 
 509 0236 E7BC1E68 		.ascii	"\347\274\036hlnm\275QxM\357\340\203n55\027\251\260\231"
 509      6C6E6DBD 
 509      51784DEF 
 509      E0836E35 
 509      3517A9B0 
 510 024b 1D743C72 		.ascii	"\035t<r\372/\333\015\236Q\012w\273\222&\275\360,(W\326"
 510      FA2FDB0D 
 510      9E510A77 
ARM GAS  /tmp/cc0yVrlH.s 			page 40


 510      BB9226BD 
 510      F02C2857 
 511 0260 A6179EEB 		.ascii	"\246\027\236\353\250\353\325F\2576z\265\321\253\215"
 511      A8EBD546 
 511      AF367AB5 
 511      D1AB8D
 512 026f FE1F34BA 		.ascii	"\376\0374\272_inim=\366\357?||\036\222v\0030/\354\201"
 512      5F696E69 
 512      6D3DF6EF 
 512      3F7C7C1E 
 512      92760330 
 513 0286 2C7CB978 		.ascii	",|\271xa\037\246N\250\002\226\314\374\020\235\302?R"
 513      611FA64E 
 513      A80296CC 
 513      FC109DC2 
 513      3F52
 514 0298 D1BC1DCD 		.ascii	"\321\274\035\315=\261\300\322\270%\035?\234\031\370"
 514      3DB1C0D2 
 514      B8251D3F 
 514      9C19F8
 515 02a7 11E1C28F 		.ascii	"\021\341\302\217\230L\236\313\342\271l^\233\203\372"
 515      984C9ECB 
 515      E2B96C5E 
 515      9B83FA
 516 02b6 E3A8EFCF 		.ascii	"\343\250\357\317\013\271\\\232\207\226\243h)\344\026"
 516      0BB95C9A 
 516      8796A368 
 516      29E416
 517 02c5 8F6CA588 		.ascii	"\217l\245\210\027\212yu)Z\236B\313 Lwa:\004\323W0\275"
 517      178A7975 
 517      295A9E42 
 517      CB204C77 
 517      613A04D3 
 518 02dc 413ED730 		.ascii	"A>\3270Lwc:B\246#\321)v\024\026\366c\341&,\304\335\214"
 518      4C77633A 
 518      42A623D1 
 518      29761416 
 518      F663E126 
 519 02f4 1FF1A3D1 		.ascii	"\037\361\243\321\362\014Zn\221\351\255h\3542\006\013"
 519      F20C5A6E 
 519      91E9AD68 
 519      EC32060B 
 520 0304 07B03096 		.ascii	"\007\2600\226\313n\343\262qhy\036-\343e:\201\313&b\341"
 520      CB6EE3B2 
 520      7168791E 
 520      2DE3653A 
 520      81CB2662 
 521 0319 052C9471 		.ascii	"\005,\224q\331$.+G\313A\264\334.\323;\270l2\026^\302"
 521      D9242E2B 
 521      47CB41B4 
 521      DC2ED33B 
 521      B86C3216 
 522 032f C2142E9B 		.ascii	"\302\024.\233\312e\323\320\362\"Z\246\313t\006\227\315"
 522      CA65D3D0 
 522      F2225AA6 
 522      CB740697 
 522      CD
ARM GAS  /tmp/cc0yVrlH.s 			page 41


 523 0340 C4C2612C 		.ascii	"\304\302a,\314\342\262;\271\314\213\226Ch\231-S\037"
 523      CCE2B23B 
 523      B9CC8B96 
 523      4368992D 
 523      531F
 524 0352 97CDC1C2 		.ascii	"\227\315\301\302\313X\250\340\262\271\\\246\242\345"
 524      CB58A8E0 
 524      B2B95CA6 
 524      A2E5
 525 0360 085AE6C9 		.ascii	"\010Z\346\311\324\317e\363\261p\014\013wqY%\227U\311"
 525      D4CF65F3 
 525      B1700C0B 
 525      77715925 
 525      9755C9
 526 0373 F15C20D3 		.ascii	"\361\\ \323j.[\210\205\023X\270\233\313j\270\254VND"
 526      6A2E5B88 
 526      851358B8 
 526      9BCB6AB8 
 526      AC564E44 
 527 0387 9D4C1771 		.ascii	"\235L\027q\331b,4c\341\036.[\302eK\321r\022-\367\312"
 527      D9622C34 
 527      63E11E2E 
 527      5BC2654B 
 527      D172122D 
 528 039d 741997DD 		.ascii	"t\031\227\335\207\205?b\341~.{\200\313\226\243%\210"
 528      87853F62 
 528      E17E2E7B 
 528      80CB96A3 
 528      2588
 529 03af 9600C84C 		.ascii	"\226\000\310L=p\341\012^\374\023\026\033x1\256\221\177"
 529      3D70E10A 
 529      5EFC1316 
 529      1B7831AE 
 529      917F
 530 03c1 C6AF0439 		.ascii	"\306\257\0049\205\253\264\314j!^\303\213\177\306\342"
 530      85ABB4CC 
 530      6A215EC3 
 530      8B7FC6E2 
 531 03d1 5A215E27 		.ascii	"Z!^'\304M\334\370*\032\327k\231\015B\214\240F\262F<"
 531      C44DDCF8 
 531      2A1AD76B 
 531      990D428C 
 531      A046B246 
 532 03e6 58B80903 		.ascii	"X\270\011\003\302\206q\266\361o\022~\306\260rd=\306"
 532      C28671B6 
 532      F16F127E 
 532      C6B07264 
 532      3DC6
 533 03f8 7196AD38 		.ascii	"q\226\2558\375\336\245\017\301\013\257A${\214=Z\037"
 533      FDDEA50F 
 533      C10BAF41 
 533      247B8C3D 
 533      5A1F
 534 040a 0874C3B5 		.ascii	"\010t\303\265\260\214\375\020X\303s]\253\200;\361\265"
 534      B08CFD10 
 534      58C3735D 
 534      AB803BF1 
ARM GAS  /tmp/cc0yVrlH.s 			page 42


 534      B5
 535 041b D055AC00 		.ascii	"\320U\254\000\025\217@\354M\326\330\362\346\305h\362"
 535      158F40EC 
 535      4DD6D8F2 
 535      E6C568F2 
 536 042b 624C5727 		.ascii	"bLW'\370\200NF\334\262-\020\230\340\207n.\266\340\367"
 536      F8804E46 
 536      DCB22D10 
 536      98E0876E 
 536      2EB6E0F7 
 537 043f 816DBFF2 		.ascii	"\201m\277\362Cw&\365~H\244\020\347:\026\242\207\213"
 537      437726F5 
 537      7E48A410 
 537      E73A16A2 
 537      878B
 538 0451 2DA41049 		.ascii	"-\244\020I\226\020\037t,D\262\2135\001\305H1\3058\305"
 538      96101F74 
 538      2C44B28B 
 538      3501C548 
 538      31C538C5 
 539 0465 5634F721 		.ascii	"V4\367!\003\261O>\315\307\037\304-!\325\3056J\257\236"
 539      03B14F3E 
 539      CDC71FC4 
 539      2D21D5C5 
 539      364AAF9E 
 540 0479 9A17FD95 		.ascii	"\232\027\375\225\203\203\235c|\370Nm;\224'\007[\033"
 540      83839D63 
 540      7CF84E6D 
 540      3B942707 
 540      5B1B
 541 048b F5C08F8F 		.ascii	"\365\300\217\217gP0&\275|\240\320\330\215\352\310\020"
 541      67503026 
 541      BD7CA0D0 
 541      D88DEAC8 
 541      10
 542 049c 338671CF 		.ascii	"3\206q\317c\\/\374\015\235U\270\251\200\345\343\244"
 542      635C2FFC 
 542      0D9D55B8 
 542      A980E5E3 
 542      A4
 543 04ad EBBE6918 		.ascii	"\353\276i\030\210\313\243\204x6\210v\376NO\207\256S"
 543      88CBA384 
 543      78368876 
 543      FE4E4F87 
 543      AE53
 544 04bf 35BF9B0B 		.ascii	"5\277\233\013\330^\256O\327={a0\356\031'=\301\344\331"
 544      D85EAE4F 
 544      D73D7B61 
 544      30EE1927 
 544      3DC1E4D9 
 545 04d3 D0E4D05C 		.ascii	"\320\344\320\\oQa\264~\322=\305\024\262S\257\260\226"
 545      6F5161B4 
 545      7ED23DC5 
 545      14B253AF 
 545      B096
 546 04e5 0F7E24D9 		.ascii	"\017~$\331x\267n\026}S\341V?\364\326\006(\202}\304\034"
 546      78B76E16 
ARM GAS  /tmp/cc0yVrlH.s 			page 43


 546      7D53E156 
 546      3FF4D606 
 546      28827DC4 
 547 04fa 38BC4EA6 		.ascii	"8\274N\246\273\215\026\217\367\362\312o\266\244k\355"
 547      BB8D168F 
 547      F7F2CA6F 
 547      B6A46BED 
 548 050a DCAA3F5A 		.ascii	"\334\252?Z\206lQ\033\343\327Y\343W\365\003u\035\257"
 548      866C511B 
 548      E3D759E3 
 548      57F50375 
 548      1DAF
 549 051c 728536E2 		.ascii	"r\2056\342sl\264i\246\274\360.V\3139R\000\037\321q\346"
 549      736CB469 
 549      A6BCF02E 
 549      56CB3952 
 549      001FD171 
 550 0531 42127F8E 		.ascii	"B\022\177\216H\304\234\223\362\317\016\220\342\360C"
 550      48C49C93 
 550      F2CF0E90 
 550      E2F043
 551 0540 1F17DB29 		.ascii	"\037\027\333)\347\334\3356)\317\207H\371\253$\345X["
 551      E7DCDD36 
 551      29CF8748 
 551      F9AB24E5 
 551      585B
 552 0552 A444B543 		.ascii	"\244D\265C\312\356'2(\230\205\2241\235$\345\0231Lc\255"
 552      CAEE2732 
 552      28988594 
 552      319D24E5 
 552      13314C63 
 553 0567 A48CB190 		.ascii	"\244\214\261\220\362\251\221\024\362\273\315\216\224"
 553      F2A99114 
 553      F2BBCD8E 
 553      94
 554 0574 B116523E 		.ascii	"\261\026R>5\221B\256\343U\030g&\345\023}\210\260V\222"
 554      359142AE 
 554      E3551867 
 554      26E5137D 
 554      88B05692 
 555 0588 F28924E5 		.ascii	"\362\211$\3456\3217\025&\030H\2116\222Bn\343\214\244"
 555      36D13715 
 555      26184889 
 555      3692426E 
 555      E38CA4
 556 059b 503B138C 		.ascii	"P;\023\214\244\214\263#E\352,\244\2143\315\224\027>"
 556      A48CB323 
 556      45EA2CA4 
 556      8C33CD94 
 556      173E
 557 05ad 0E911289 		.ascii	"\016\221\022\211\244\214\217\222\2448%)_vlO\311t\261"
 557      A48C8F92 
 557      A4382529 
 557      5F766C4F 
 557      C974B1
 558 05c0 B7E49C67 		.ascii	"\267\344\234g\265M\312\301\020)\027$)_\266EJL;\244\034"
 558      B54DCAC1 
ARM GAS  /tmp/cc0yVrlH.s 			page 44


 558      10291724 
 558      295FB645 
 558      4A4C3BA4 
 559 05d5 E2A41CB4 		.ascii	"\342\244\034\264#eb'I\271$\206\251\314J\312D\013)\337"
 559      23656227 
 559      49B92486 
 559      A9CC4ACA 
 559      440B29DF 
 560 05e9 1B4921BF 		.ascii	"\033I!\277Iv\244\224YH\371\336D\012\271\336\256B\271"
 560      4976A494 
 560      5948F9DE 
 560      440AB9DE 
 560      AE42B9
 561 05fc 99944BFA 		.ascii	"\231\224K\372\020a\255$\345\222$e\222\350\233\012w\030"
 561      1061AD24 
 561      E5922465 
 561      92E89B0A 
 561      7718
 562 060e 48893592 		.ascii	"H\2115\222Bn\345FR\250\235;\214\244\224\333\221\"u\026"
 562      426EE546 
 562      52A89D3B 
 562      8CA494DB 
 562      91227516 
 563 0622 52CA4D33 		.ascii	"R\312M3\345\205\357B\2448\221\224\333c$)q\222\224\257"
 563      E585EF42 
 563      A4389194 
 563      DB632429 
 563      719294AF 
 564 0636 3B464A5F 		.ascii	";FJ_\027\273,\347\274\237\345\015\366\343\317{\217b"
 564      17BB2CE7 
 564      BC9FE50D 
 564      F6E3CF7B 
 564      8F62
 565 0648 E70F1F6E 		.ascii	"\347\017\037n\375P\011{\203;\364X\331U\002\024\336\327"
 565      FD50097B 
 565      833BF458 
 565      D9550214 
 565      DED7
 566 065a 6C1193E7 		.ascii	"l\021\223\347\034LL\301\212\226\313\273A#\225\237\024"
 566      1C4C4CC1 
 566      8A96CBBB 
 566      4123959F 
 566      14
 567 066b 789D7EE4 		.ascii	"x\235~\344-\207x\326\030\215\035mhY\267'\326\362\220"
 567      2D8778D6 
 567      188D1D6D 
 567      6859B727 
 567      D6F290
 568 067e 393E0A83 		.ascii	"9>\012\203\317\321_\316'\005z1\204\374\326M\311~\310"
 568      CFD15FCE 
 568      27057A31 
 568      84FCD64D 
 568      C97EC8
 569 0691 C52D55A1 		.ascii	"\305-U\241g\317\013G\276\013[\377Z\233\314\357\337\231"
 569      67CF0B47 
 569      BE0B5BFF 
 569      5A9BCCEF 
ARM GAS  /tmp/cc0yVrlH.s 			page 45


 569      DF99
 570 06a3 47D12CCC 		.ascii	"G\321,\314O\356$\363k\024>\341S\254\314O\2660\277V1"
 570      4FEE24F3 
 570      6B143EE1 
 570      53ACCC4F 
 570      B630BF56 
 571 06b8 304F7E53 		.ascii	"0O~S\355\230\237ba^\367\024\314\223\353t\025\246\231"
 571      ED989F62 
 571      615EF714 
 571      CC93EB74 
 571      15A699
 572 06cb 99E776EA 		.ascii	"\231\347v\352\025\326J\346\327(\304\374T\3217\025f\030"
 572      15D64AE6 
 572      D728C4FC 
 572      54D13715 
 572      6618
 573 06dd 98EFCA36 		.ascii	"\230\357\3126\276\021\202\236\374\246\031\241\247\206"
 573      BE11829E 
 573      FCA619A1 
 573      A786
 574 06eb 6618A19F 		.ascii	"f\030\241\237f\007\275\324Y\240\237f\232+/\254Vt\350"
 574      6607BDD4 
 574      59A09F66 
 574      9A2B2FAC 
 574      5674E8
 575 06fe E311FAE9 		.ascii	"\343\021\372\351]$\364\011\034\006\354\334\232\206\203"
 575      5D24F409 
 575      1C06ECDC 
 575      9A8683
 576 070d 3B0B49A0 		.ascii	";\013I\240\362\306@@\0034f_7\354\005\255\316\205\325"
 576      F2C64040 
 576      0334665F 
 576      37EC05AD 
 576      CE85D5
 577 0720 BC831116 		.ascii	"\274\203\021\026t\362}\2222\024\371\241\300D\317\241"
 577      74F27D92 
 577      3214F9A1 
 577      C044CFA1 
 578 0730 103D8F26 		.ascii	"\020=\217&\372a\200\213\275 \341)\014\207\247[{\360"
 578      FA61808B 
 578      BD20E129 
 578      0C87A75B 
 578      7BF0
 579 0742 1CE2F01C 		.ascii	"\034\342\360\034\262\203gf'\341\331,\006n\226\025\236"
 579      B2836766 
 579      27E1D92C 
 579      066E9615 
 579      9E
 580 0753 991678B6 		.ascii	"\231\026x\266\030\341!\277;\355\340\231e\201g\213\011"
 580      18E121BF 
 580      3BEDE099 
 580      6581678B 
 580      09
 581 0764 1E729DAD 		.ascii	"\036r\235\255\202\327\014\317fE\033\"\254\225\360l\226"
 581      82D70CCF 
 581      66451B22 
 581      AC95F06C 
ARM GAS  /tmp/cc0yVrlH.s 			page 46


 581      96
 582 0775 F0DC29FA 		.ascii	"\360\334)\372\246\202\317\000Ow\023<\344\3475\302C\015"
 582      A682CF00 
 582      4F77133C 
 582      E4E735C2 
 582      430D
 583 0787 F98CF078 		.ascii	"\371\214\360x\355\340\221:\013<^9U\217qx\006x\341\341"
 583      EDE0913A 
 583      0B3C5E39 
 583      558F7178 
 583      0678E1E1 
 584 079b 103C0908 		.ascii	"\020<\011\010\317\354n\022\236D\035\236\243!x2UP\332"
 584      CFEC6E12 
 584      9E441D9E 
 584      A3217832 
 584      5550DA
 585 07ae 82270BAB 		.ascii	"\202'\013\253\177\022\236\254px\216\204\340y\034\341"
 585      7F129EAC 
 585      70788E84 
 585      E0791CE1 
 586 07be F1B8D821 		.ascii	"\361\270\330!\011OQ8<=\332\203\347$\207\347\210\035"
 586      094F5138 
 586      3C3DDA83 
 586      E72487E7 
 586      881D
 587 07d0 3C733A09 		.ascii	"<s:\011\317\0161p\025Vx\346X\340y\312\010\017\371\315"
 587      CF0E3170 
 587      155678E6 
 587      58E079CA 
 587      080FF9CD 
 588 07e4 B583A7C2 		.ascii	"\265\203\247\302\002\317S&x\310u\236\012\252\031\236"
 588      02CF5326 
 588      78C8759E 
 588      0AAA199E 
 589 07f4 1D8A3644 		.ascii	"\035\2126DX+\341\331!\341\231+\372\246\202\337\000O"
 589      582BE1D9 
 589      21E1992B 
 589      FAA682DF 
 589      004F
 590 0806 92091EF2 		.ascii	"\222\011\036\362S\215\360PC~#<\252\035<Rg\201G\225S"
 590      538DF050 
 590      437E233C 
 590      AA1D3C52 
 590      67814795 
 591 081b F50487C7 		.ascii	"\365\004\207\307\343\205\355!x\022\021\236y=$<\311\004"
 591      E385ED21 
 591      7812119E 
 591      793D243C 
 591      C904
 592 082d CF8AF7B7 		.ascii	"\317\212\367\267=\375\221C\003$\273\220\015\360C\264"
 592      3DFD9143 
 592      0324BB90 
 592      0DF043B4 
 593 083d DE78B13E 		.ascii	"\336x\261>\035%U\342\305\304\233+\221\240\204\356\353"
 593      1D2555E2 
 593      C5C49B2B 
 593      91A084EE 
ARM GAS  /tmp/cc0yVrlH.s 			page 47


 593      EB
 594 084e F918355C 		.ascii	"\371\0305\\\3261\353\217\201T<\211\211^Ej\326\\\214"
 594      D631EB8F 
 594      81543C89 
 594      895E456A 
 594      D65C8C
 595 0861 8ADEA558 		.ascii	"\212\336\245X\317\243D\033&\365\271XM\224'\347f =B`"
 595      CFA3441B 
 595      26F5B958 
 595      4D9427E7 
 595      66203D42 
 596 0876 332A07A1 		.ascii	"3*\007\241/\367(\225\263\243\375\370\306\217\204y\032"
 596      2FF72895 
 596      B3A3FDF8 
 596      C68F8479 
 596      1A
 597 0887 A447C548 		.ascii	"\244G\305H\346i\303\234\322\036\210\037s\020\217\332"
 597      E669C39C 
 597      D21E881F 
 597      73108FDA 
 598 0897 8138BF93 		.ascii	"\2018\277\223 \036\020\223p\227\025\304\371\026\020"
 598      201E1093 
 598      709715C4 
 598      F91610
 599 08a6 0F1A4124 		.ascii	"\017\032A$\277J;\020\357\262\200x\320\004\"\271.P\241"
 599      BF4A3B10 
 599      EFB28078 
 599      D00422B9 
 599      2E50A1
 600 08b9 CA0CE201 		.ascii	"\312\014\342\001%4\014\013$\210\007$\210\225\242o*T"
 600      25340C0B 
 600      24880724 
 600      8895A26F 
 600      2A54
 601 08cb 1B404C35 		.ascii	"\033@L5\201H~UF\020\251\241j#\210Uv J\235\005\304*\234"
 601      81487E55 
 601      4610A9A1 
 601      6A238855 
 601      76204A9D 
 602 08e3 8E64246E 		.ascii	"\216d$nA\212$\256'\035|\032[\036\371\302z\360\011?\235"
 602      418A24AE 
 602      271D7C1A 
 602      5B1EF9C2 
 602      7AF0093F 
 603 08f8 4D116FA9 		.ascii	"M\021o\251\243\341o)\375\273@\001\031l/,\257Q\330\011"
 603      A3E16F29 
 603      FDBB4001 
 603      196C2F2C 
 603      AF51D809 
 604 090c E5A77E7C 		.ascii	"\345\247~|\341\266\230\267\022\23080~\333\264\357\300"
 604      E1B698B7 
 604      12983830 
 604      7EDBB4EF 
 604      C0
 605 091d 868C304E 		.ascii	"\206\2140N\232O\237\255\363\302\011\305\310\211\354"
 605      9A4F9FAD 
 605      F3C209C5 
ARM GAS  /tmp/cc0yVrlH.s 			page 48


 605      C889EC
 606 092c BCFED8D7 		.ascii	"\274\376\330\327\372\370\035g\220fH\013\351\207\301"
 606      FAF81D67 
 606      9066480B 
 606      E987C1
 607 093b 6220DF3F 		.ascii	"b \337?\274\373;}i\025\376\214\245\365\264\242E)\302"
 607      BCFB3B7D 
 607      6915FE8C 
 607      A5F5B4A2 
 607      4529C2
 608 094e 40FAD25A 		.ascii	"@\372\322Z\371\254\276\344\212\365\305Ud\\\\v[\375u"
 608      F9ACBEE4 
 608      8AF5C555 
 608      645C5C76 
 608      5BFD75
 609 0961 3E598D5E 		.ascii	">Y\215^~\030\"B\235zo\367;z\254R\373\003o\0043\036x"
 609      7E182242 
 609      9D7A6FF7 
 609      3B7AAC52 
 609      FB036F04 
 610 0978 69FE433E 		.ascii	"i\376C>\372\001X\373+\2074\326\032\341\340$\344\310"
 610      FA0158FB 
 610      2B8734D6 
 610      1AE1E024 
 610      E4C8
 611 098a 2DE9E4A6 		.ascii	"-\351\344\246\024q\027\360\251\022v\027\320\023\270"
 611      147117F0 
 611      A9127617 
 611      D013B8
 612 0999 3E9D1D2F 		.ascii	">\235\035/mk\311\266\356,\240[C\313\222]\330\311%{F"
 612      6D6BC9B6 
 612      EE2CA05B 
 612      43CB925D 
 612      D8C9257B 
 613 09ae E07AB775 		.ascii	"\340z\267u\311.\264,\331\263\306%K~5vK\366n\313\222"
 613      C92EB42C 
 613      D9B3C625 
 613      4B7E3576 
 613      4BF66ECB 
 614 09c3 3D6B5AB2 		.ascii	"=kZ\262\344Z\247B\255y\311\236\021K\366\270Xzur\311"
 614      E45AA742 
 614      AD79C99E 
 614      114BF6B8 
 614      587A7572 
 615 09d8 9E914BB6 		.ascii	"\236\221K\266F\364M\205E\206%\333\213\035\033\014\332"
 615      46F44D85 
 615      458625DB 
 615      8B1D1B0C 
 615      DA
 616 09e9 8A25B75A 		.ascii	"\212%\267Z\343\212\245v\026\031Wl\255\335\212\225:\313"
 616      E38AA576 
 616      1619576C 
 616      ADDD8A95 
 616      3ACB
 617 09fb 8AAD5521 		.ascii	"\212\255U!'\015Wl]\272\\\261\275\371\014\212\031\331"
 617      270D576C 
 617      5DBA5CB1 
ARM GAS  /tmp/cc0yVrlH.s 			page 49


 617      BDF90C8A 
 617      19D9
 618 0a0d FB918EE0 		.ascii	"\373\221\216\340 =~\210\251\241U\242\021\036qh;\350"
 618      203D7E88 
 618      A9A155A2 
 618      111E7168 
 618      3BE8
 619 0a1f 194E1983 		.ascii	"\031N\031\203\302O\031'C\247\214w\350\224\361\337\266"
 619      C24F1927 
 619      43A78C77 
 619      E894F1DF 
 619      B6
 620 0a30 4E1919ED 		.ascii	"N\031\031\355\200\262{W\001\305\262\200\262\270\223"
 620      80B27B57 
 620      01C5B280 
 620      B2B893
 621 0a3f A09C17A3 		.ascii	"\240\234\027\243t\217\025\224\305\026P.\030A!\277%v"
 621      748F1594 
 621      C516502E 
 621      184121BF 
 621      2576
 622 0a51 A0DC6301 		.ascii	"\240\334c\001\345\202\011\024r\275W\205\245fP\316+\332"
 622      E5820914 
 622      72BD5785 
 622      A56650CE 
 622      2BDA
 623 0a63 0861AD04 		.ascii	"\010a\255\004\345\274\004e\211\350\233\012\313\014\240"
 623      E5BC0465 
 623      89E89B0A 
 623      CB0CA0
 624 0a72 B810147D 		.ascii	"\270\020\024}k'\267\245FP\250\235eFP\226\332\201\"u"
 624      6B27B7A5 
 624      4650A89D 
 624      65465096 
 624      DA812275 
 625 0a86 1650966A 		.ascii	"\026P\226j\227?|A\343\031\343\\\350\214\321\033\371"
 625      973F7C41 
 625      E319E35C 
 625      E88CD11B 
 625      F9
 626 0a97 B93743F2 		.ascii	"\2717C\362\323\207\363\303\277\352\356\335\023g\367"
 626      D387F3C3 
 626      BFEAEEDD 
 626      1367F7
 627 0aa6 55D729E2 		.ascii	"U\327)\342\205\177\325\015\206H\370\007o \331\305\352"
 627      857FD50D 
 627      8648F807 
 627      6F20D9C5 
 627      EA
 628 0ab7 1D61F7CC 		.ascii	"\035a\367\314ZO\335\355\240\260\237\243\020\264C\341"
 628      5A4FDDED 
 628      A0B09FA3 
 628      10B443E1 
 629 0ac7 BE4EA270 		.ascii	"\276N\242pQ\214\303\375V\024\356\263\240\360\271\021"
 629      518CC3FD 
 629      5614EEB3 
 629      A0F0B911 
ARM GAS  /tmp/cc0yVrlH.s 			page 50


 630 0ad7 05F27BC0 		.ascii	"\005\362{\300\016\205\373-(|nB\201\\\0038\232\313\315"
 630      0E85FB2D 
 630      287C6E42 
 630      815C0338 
 630      9ACBCD
 631 0aea 2C5C54B4 		.ascii	",\\T\2641\342\325\022\206\213\022\206\007D\357T\250"
 631      31E2D512 
 631      868B1286 
 631      0744EF54 
 631      A8
 632 0afb 07030D99 		.ascii	"\007\003\015\231F\032\310q\271\221\006j\252\036\214"
 632      461AC871 
 632      B991066A 
 632      AA1E8C
 633 0b0a 382CB7C3 		.ascii	"8,\267\303A\023ZxXn\232./|\026\342\241\017\360\307t"
 633      41135A78 
 633      586E9A2E 
 633      2F7C16E2 
 633      A10FF0C7 
 634 0b1f 4B20B2F4 		.ascii	"K \262\364\015e\337y}C\031\2427\034\251\317\306\365"
 634      0D65DF79 
 634      7D4319A2 
 634      371CA9CF 
 634      C6F5
 635 0b31 55625879 		.ascii	"UbXyK\327\313f\014\204\274\":1D\353`\337v 8\310!x\305"
 635      4BD7CB66 
 635      0C84BC22 
 635      3A3144EB 
 635      60DF7620 
 636 0b4a 0E8215D0 		.ascii	"\016\202\025\320I\012.\211\3567\200\025\203\025`\275"
 636      490A2E89 
 636      EE378015 
 636      831560BD 
 637 0b5a E5337240 		.ascii	"\3453r@\236\215`\007B\003X\357\371L$\220\363*\034\307"
 637      9E8D6007 
 637      420358EF 
 637      F94C2490 
 637      F32A1CC7 
 638 0b6e 951076D3 		.ascii	"\225\020v\323\247\204\006c\225\206\302%\211B#P'UXm\204"
 638      A7840663 
 638      9586C225 
 638      89422350 
 638      2755586D 
 639 0b83 A19F1106 		.ascii	"\241\237\021\006r]\011\246\353>\321\334j\023\015\324"
 639      725D09A6 
 639      EB3ED1DC 
 639      6A130DD4 
 640 0b93 B0E5C24F 		.ascii	"\260\345\302O*-8\254\304F\207d\001\177\250\276r\342"
 640      2A2D38AC 
 640      C4468764 
 640      017FA8BE 
 640      72E2
 641 0ba5 B3692768 		.ascii	"\263i'hly\306f'\010?\373\315\020\333\377*G\330\366/"
 641      6C79C666 
 641      27083FFB 
 641      CD10DBFF 
 641      2A47D8F6 
ARM GAS  /tmp/cc0yVrlH.s 			page 51


 642 0bba CE7ED48B 		.ascii	"\316~\324\213\034\266R\021\341\016w,\334/\\l\235\014"
 642      1CB65211 
 642      E10E772C 
 642      DC2F5C6C 
 642      9D0C
 643 0bcc 77834DB8 		.ascii	"w\203M\270\376\374d\312o\356\216\254\215\322\030\333"
 643      FEFC64CA 
 643      6FEE8EAC 
 643      8DD218DB 
 644 0bdc 27C62653 		.ascii	"'\306&S\223\344\262\017\242\365w/\325)\362\220\267\343"
 644      93E4B20F 
 644      A2F5772F 
 644      D529F290 
 644      B7E3
 645 0bee 3B1DE594 		.ascii	";\035\345\224+=\344\341\327\364\317\364\303T\252\214"
 645      2B3DE4E1 
 645      D7F4CFF4 
 645      C354AA8C 
 646 0bfe DDB04E3F 		.ascii	"\335\260N?=\366D+\367e\021!0\250\006\361K\261~\331J"
 646      3DF6442B 
 646      F7651121 
 646      30A806F1 
 646      4BB17ED9 
 647 0c13 D7CF8369 		.ascii	"\327\317\203i\306\363\240\230\272\301\272(\364\255J"
 647      C6F3A098 
 647      BAC1BA28 
 647      F4AD4A
 648 0c22 CE9CA282 		.ascii	"\316\234\242\202\247\000'.\263\377\357\266zy\267\363"
 648      A700272E 
 648      B3FFEFB6 
 648      7A79B7F3 
 649 0c32 E8F6BC61 		.ascii	"\350\366\274aM\3037\273\2424\277\033\214\367S\206e\271"
 649      4DC337BB 
 649      A234BF1B 
 649      8CF75386 
 649      65B9
 650 0c44 470CCB0D 		.ascii	"G\014\313\015\332\220\345\033/\226\251\216H{\377_\372"
 650      DA90E51B 
 650      2F96A98E 
 650      487BFF5F 
 650      FA
 651 0c55 DDAA0AC9 		.ascii	"\335\252\012\311W6d\032\2042\210\261\223\242' o]\343"
 651      5736641A 
 651      843288B1 
 651      93A22720 
 651      6F5DE3
 652 0c68 BE6A4DC2 		.ascii	"\276jM\302g\312;\2665\215?S\001\357\017\257\367\310"
 652      67CA3BB6 
 652      358D3F53 
 652      01EF0FAF 
 652      F7C8
 653 0c7a FAFCF50F 		.ascii	"\372\374\365\017e\360\212\001\342\366\271\241\345\370"
 653      65F08A01 
 653      E2F6B9A1 
 653      E5F8
 654 0c88 1EEBCDB1 		.ascii	"\036\353\315\261\371R\226cw\342\213\237u\277l\3721\343"
 654      F9529663 
ARM GAS  /tmp/cc0yVrlH.s 			page 52


 654      77E28B9F 
 654      75BF6CFA 
 654      31E3
 655 0c9a D5D0EBAE 		.ascii	"\325\320\353\256uS\202\270\331}\302\321\306\315na;?"
 655      755382B8 
 655      D97DC2D1 
 655      C6CD6E61 
 655      3B3F
 656 0cac 66B4EECA 		.ascii	"f\264\356\312\240`\226\235nMgw\272\007\035|P\327\332"
 656      A060969D 
 656      6E4D6777 
 656      BA071D7C 
 656      50D7DA
 657 0cbf EC746BAC 		.ascii	"\354tk\254;\335F\207a\247#\317u\266;\335Z\353N\247\373"
 657      3BDD4687 
 657      61A723CF 
 657      75B63BDD 
 657      5AEB4EA7 
 658 0cd4 0AA0C979 		.ascii	"\012\240\311y=\362\327\024\266\323\361\032\352\034\257"
 658      3DF2D714 
 658      B6D3F11A 
 658      EA1CAF
 659 0ce3 973BDD83 		.ascii	"\227;\335\203\016\332\351\326\001uR\205\015\306\235"
 659      0EDAE9D6 
 659      01755285 
 659      0DC69D
 660 0cf2 CE63C48F 		.ascii	"\316c\304\217\\\233L;\0355\267\301\264\3235\331\356"
 660      5C9B4C3B 
 660      1D35B7C1 
 660      B4D335D9 
 660      EE
 661 0d03 749AD2B2 		.ascii	"t\232\322\262\3235\201i\346\274\360\033\207\376\346"
 661      D3358169 
 661      E6BCF01B 
 661      87FEE6
 662 0d12 1B00FC59 		.ascii	"\033\000\374Y\013\345\006XD\377\030pj\333\201R\015\332"
 662      0BE50658 
 662      44FF1870 
 662      6ADB8152 
 662      0DDA
 663 0d24 611DF961 		.ascii	"a\035\371a!\354{\3260\233\357Y\305\314!\366\302S6\277"
 663      21EC7BD6 
 663      309BEF59 
 663      C5CC21F6 
 663      C25336BF 
 664 0d38 27844359 		.ascii	"'\204CY\356\207_\272\330~\311\327\2156{a\011\213\024"
 664      EE875FBA 
 664      D87EC9D7 
 664      8D367B61 
 664      098B14
 665 0d4b D14E7738 		.ascii	"\321Nw8\332\341v\242\225\312n\037~)\364\375rD\307\372"
 665      DAE176A2 
 665      95CA6E1F 
 665      7E29F4FD 
 665      7244C7FA 
 666 0d5f 2D36C5AE 		.ascii	"-6\305\256\232\323H\364c\354m\246G\031I\252I\370D1\334"
 666      9AD348F4 
ARM GAS  /tmp/cc0yVrlH.s 			page 53


 666      63EC6DA6 
 666      471949AA 
 666      49F84431 
 667 0d74 D5E5F114 		.ascii	"\325\345\361\024\015\237\347\237\355\037WVTWQ[WT\351"
 667      0D9FE79F 
 667      ED1F5756 
 667      5457515B 
 667      5754E9
 668 0d87 9F5DE49B 		.ascii	"\237]\344\2337\213\347=>\0261\337S2(\221\027fUV\373"
 668      378BE73D 
 668      3E1631DF 
 668      53322891 
 668      17665556 
 669 0d9c BC95B3E6 		.ascii	"\274\225\263\346z\375\225\236\222k\342\205\251\266\256"
 669      7AFD959E 
 669      926BE285 
 669      A9B6AE
 670 0dab 62A1A7E4 		.ascii	"b\241\247\344\332\036\242\240VV\317\326\005\327\341"
 670      DA1EA2A0 
 670      5656CFD6 
 670      05D7E1
 671 0dba 13CD8FA8 		.ascii	"\023\315\217\250\252U\027\306\212J\337\274\205\236k"
 671      AA5517C6 
 671      8A4ADFBC 
 671      859E6B
 672 0dc9 80A5E7E7 		.ascii	"\200\245\347\347\347\273\265\346&NrO\302:w\331\"\177"
 672      E7BBB5E6 
 672      264E724F 
 672      C23A77D9 
 672      227F
 673 0ddb 5D058BC0 		.ascii	"]\005\213\300*\326C\324WW-\364WV\314\031\352\346\177"
 673      2AD643D4 
 673      57572DF4 
 673      5756CC19 
 673      EAE67F
 674 0dee 2C7554C5 		.ascii	",uT\305l\267{\240\273\264\270d\260\273\320]<h\350\240"
 674      6CB77BA0 
 674      BBB4B864 
 674      B0BBD05D 
 674      3C68E8A0 
 675 0e02 C1438BAF 		.ascii	"\301C\213\257#\355\370Jo\335\334\352\232*\251M+\233"
 675      23EDF84A 
 675      6FDDDCEA 
 675      9A2AA94D 
 675      2B9B
 676 0e14 347660E9 		.ascii	"4v`\351\250\201\305\003\227\014w\017[\340\255\254V\335"
 676      A881C503 
 676      970C770F 
 676      5BE0ADAC 
 676      56DD
 677 0e26 39EE1165 		.ascii	"9\356\021e\343I-\232\373u\265\267F\304f\331\250\366"
 677      E3492D9A 
 677      FB75B5B7 
 677      46C466D9 
 677      A8F6
 678 0e38 FB6AAA2B 		.ascii	"\373j\252+*+|u5\325\013\374\276Z\267\014P8\302_\353"
 678      2A2B7C75 
ARM GAS  /tmp/cc0yVrlH.s 			page 54


 678      35D50BFC 
 678      BE5AB70C 
 678      5038C25F 
 679 0e4d AB5E5C51 		.ascii	"\253^\\Q\263\224%\024\026\026\222\347pom\205\233)\036"
 679      B3942514 
 679      161692E7 
 679      706F6D85 
 679      9B291E
 680 0e60 E670E732 		.ascii	"\346p\3472%\217E\324\371\253*2\015\003X][4\317[\211"
 680      258F45D4 
 680      F9AB2A32 
 680      0D03585D 
 680      5B34CF5B 
 681 0e75 097ED4D4 		.ascii	"\011~\324\324\211\3243\217\245\362\000\023+j\027U\326"
 681      89D4338F 
 681      A5F20013 
 681      2B6A1755 
 681      D6
 682 0e86 0D758F1A 		.ascii	"\015u\217\0326zL\371\304\221\356\334\276\030e\032\213"
 682      367A4CF9 
 682      C491EEDC 
 682      BE18651A 
 682      8B
 683 0e97 98E1CE62 		.ascii	"\230\341\316b\216\254<\226d\024\225\225\017\037>\262"
 683      8EAC3C96 
 683      64149595 
 683      0F1F3EB2 
 684 0ea7 AC8C258C 		.ascii	"\254\214%\214\362c\037\3345\322\314\234\322\23395\305"
 684      F2631FDC 
 684      35D2CC9C 
 684      D29B3935 
 684      C5
 685 0eb8 FF00E83A 		.ascii	"\377\000\350:\324\316"
 685      D4CE
 686              		.text
 687              		.section	.gnu.lto_.symbol_nodes.ab82afd5db6bcaf6,"",%progbits
 688 0000 789C4D8E 		.ascii	"x\234M\216\273J\003A\024\206\317\3763\223x]\205\200"
 688      BB4A0341 
 688      1486CFFE 
 688      3393785D 
 688      8580
 689 0012 95E003F8 		.ascii	"\225\340\003\370@b\351#\370\004GRh@\274\256\030\357"
 689      4062E923 
 689      F8044752 
 689      6840BCAE 
 689      18EF
 690 0024 97F50612 		.ascii	"\227\365\006\022\261XD\260rS\330\010ZD\021\261Q\021"
 690      B15844B0 
 690      7253D808 
 690      5A4411B1 
 690      5111
 691 0036 41144505 		.ascii	"A\024E\005-4\342Lf\242\263\315\367\177\373\237\2319"
 691      2D34E24C 
 691      66A2B3CD 
 691      F77FFB9F 
 691      9939
 692 0048 205004B2 		.ascii	" P\004\262\037\246\301D\343'D\314\213\205>5\005\222"
ARM GAS  /tmp/cc0yVrlH.s 			page 55


 692      1FA6C144 
 692      E32744CC 
 692      8B853E35 
 692      0592
 693 005a 2C5484C0 		.ascii	",T\204\300`\022\320@\021\034x3\343\020\346\357\014\030"
 693      6012D040 
 693      111C7833 
 693      E310E6EF 
 693      0C18
 694 006c FF7F5102 		.ascii	"\377\177Q\002\213?\0150\013\226N\227\012\201\032\203"
 694      8B3F0D30 
 694      0B964E97 
 694      0A811A83 
 695 007c 544C6A02 		.ascii	"TLj\002\312\034\235\003\253\377\022\363\340\214\247"
 695      CA1C9D03 
 695      ABFF12F3 
 695      E08CA7
 696 008b 0BE0ACA7 		.ascii	"\013\340\254\247\213\340\006O\227\300\215\236.\203\233"
 696      8BE0064F 
 696      97C08D9E 
 696      2E839B
 697 009a 3C5D0137 		.ascii	"<]\0017{\272\012n\3614\006\267zK\255#Cz\251Qd\365n\301"
 697      7BBA0A6E 
 697      F13406B7 
 697      7A4BAD23 
 697      437AA951 
 698 00b2 0638B4E5 		.ascii	"\0068\264\345\300@ \211\336\253/\335RR\364p\021hTn~"
 698      C0402089 
 698      DEAB2FDD 
 698      5252F470 
 698      1168546E 
 699 00c7 0C92A3D3 		.ascii	"\014\222\243\323N\231\241h\347\274\244\014\207\236\272"
 699      4E99A168 
 699      E7BCA40C 
 699      879EBA
 700 00d6 6496125D 		.ascii	"d\226\022]\2120K\345\357N\031Rt|V\025\262\215\022sA"
 700      8A304BE5 
 700      EF4E1952 
 700      747C5615 
 700      B28D1273 
 701 00eb 3B552C12 		.ascii	";U,\022=*r\355\024_\353Y\315\262\343m\335\353\375\250"
 701      3D2A72ED 
 701      145FEB59 
 701      CDB2E36D 
 701      DDEBFDA8 
 702 00ff 653E725E 		.ascii	"e>r^c\206\362\323w\007\375\"\027R<\357B\371\366\260"
 702      6386F2D3 
 702      7707FD22 
 702      17523CEF 
 702      42F9F6B0 
 703 0113 540C6B77 		.ascii	"T\014kw<\333\324Ak/6I\212\337l\322s\237\207W{M\"G\024"
 703      3CDBD441 
 703      6B2F3649 
 703      8ADF6CD2 
 703      739F8757 
 704 012c FFD8A44F 		.ascii	"\377\330\244Ol\245.\345\267\323\313\327\300\274P\336"
 704      6CA52EE5 
ARM GAS  /tmp/cc0yVrlH.s 			page 56


 704      B7D3CBD7 
 704      C0BC50DE 
 705 013c 4DABA256 		.ascii	"M\253\242V\326C~\377\241\267\266\303\376\345\210\220"
 705      D6437EFF 
 705      A1B7B6C3 
 705      FEE58890 
 706 014c 39AA0CDE 		.ascii	"9\252\014\336\035(\315d\3302\232\264|/\352\225\214/"
 706      1D28CD64 
 706      D8329AB4 
 706      7C2FEA95 
 706      8C2F
 707 015e 5B26F7E6 		.ascii	"[&\367\346mS<\272\220|\324\303\227\013Q\234\272\231"
 707      6D533CBA 
 707      907CD4C3 
 707      970B519C 
 707      BA99
 708 0170 4D172A49 		.ascii	"M\027*IZ\352\241_}\277\336\030"
 708      5AEAA15F 
 708      7DBFDE18 
 709              		.text
 710              		.section	.gnu.lto_.refs.ab82afd5db6bcaf6,"",%progbits
 711 0000 789C2D4B 		.ascii	"x\234-K\011\022\2040\014\202\304\256\266\352z\217O\367"
 711      09128430 
 711      0C82C4AE 
 711      B6EA7A8F 
 711      4FF7
 712 0012 BBE6304C 		.ascii	"\273\3460L d@ x\220\243\000!\242\332\321\230E~\346\311"
 712      20644020 
 712      7890A300 
 712      21A2DAD1 
 712      98457EE6 
 713 0027 1ED48185 		.ascii	"\036\324\201\205\225M\307\3246\245\"r~yC\347\357\376"
 713      954DC7D4 
 713      36A52272 
 713      7E7943E7 
 713      EFFE
 714 0039 5B6B0165 		.ascii	"[k\001e\365\276n\221\022\335S\357\203D\2005\025gl1\276"
 714      F5BE6E91 
 714      12DD53EF 
 714      83448035 
 714      15676C31 
 715 004e C2B7F0FE 		.ascii	"\302\267\360\376\255\206\027\0036\002\336"
 715      AD861703 
 715      3602DE
 716              		.text
 717              		.section	.gnu.lto_.decls.ab82afd5db6bcaf6,"",%progbits
 718 0000 789CBD5B 		.ascii	"x\234\275[\011p\024e\276\357\257{r\221\020N5Z\345#\274"
 718      09701465 
 718      BEEFAF7B 
 718      7291104E 
 718      355AE523 
 719 0015 A7BBFBB0 		.ascii	"\247\273\373\260`\344\260\036\373\312r\221h\011\365"
 719      60E4B01E 
 719      FBCA7291 
 719      6809F5
 720 0024 CC6A2571 		.ascii	"\314j%q\227}\327l3i\310<\223\231\230\231\000n\325>:"
 720      977DD76C 
ARM GAS  /tmp/cc0yVrlH.s 			page 57


 720      3369C83C 
 720      93999899 
 720      006ED53E 
 721 0039 81A02242 		.ascii	"\201\240\"B\010W\344\014 \342.\270.A\0169\007\225\020"
 721      0857E40C 
 721      20E22EB8 
 721      2E410E39 
 721      079510
 722 004c 4039C261 		.ascii	"@9\302a\002+D\236\017\217]4\021X@\320\274\377w\364L"
 722      022B449E 
 722      0F8F5D34 
 722      115840D0 
 722      BCFF77F4 
 723 0061 F737FDCD 		.ascii	"\3677\375\315t\263\345\353\252\177_\371\276\337\377"
 723      74B3E5EB 
 723      AA7F5FF9 
 723      BEDFFF
 724 0070 F73FBEB3 		.ascii	"\367?\276\263'\262$K\235\031\222\324\003\307\275\017"
 724      27B2244B 
 724      9D1992D4 
 724      03C7BD0F 
 725 0080 4BD256B8 		.ascii	"K\322V\270\357#I\322# w\203\254\006Y\003\262\036d\003"
 725      EF2349D2 
 725      23207783 
 725      AC065903 
 725      B21E6403 
 726 0094 C8269066 		.ascii	"\310&\220f\220\267A\266\200l\003\331\016\002\325\244"
 726      90B741B6 
 726      806C03D9 
 726      0E02D5A4 
 727 00a4 1D203B41 		.ascii	"\035 ;Av\203\354\001\211\202\354\003y\017\344}\220\026"
 727      7683EC01 
 727      8982EC03 
 727      790FE47D 
 727      9016
 728 00b6 90032007 		.ascii	"\220\003 \007A\016\201|\000rT\242\007\326\331\006r\012"
 728      410E817C 
 728      007254A2 
 728      07D6D906 
 728      720A
 729 00c8 E4124817 		.ascii	"\344\022H\027\310\025\220\233 \036$I\271 \377\0002\004"
 729      C815909B 
 729      201E2449 
 729      B920FF00 
 729      3204
 730 00da 6438C843 		.ascii	"d8\310C \017\203\214\001y\036$\023\312\375\026\256\323"
 730      200F838C 
 730      01791E24 
 730      13CAFD16 
 730      AED3
 731 00ec 416A40EA 		.ascii	"Aj@\352@^\000y\011\344e\220z$Y\016\254+\027\344ID\257"
 731      405E0079 
 731      09E46590 
 731      7A24590E 
 731      AC2B17E4 
 732 0103 39D806B8 		.ascii	"9\330\006\270/\006\371/\220\265\360\334\000\327\005"
 732      2F06F92F 
ARM GAS  /tmp/cc0yVrlH.s 			page 58


 732      90B5F0DC 
 732      00D705
 733 0112 2085200B 		.ascii	" \205 \013AJ@\236\005Y\004\"\303\337\213\340\032\000"
 733      414A409E 
 733      05590422 
 733      C3DF8BE0 
 733      1A00
 734 0124 410C4F91 		.ascii	"A\014O\221\250n\203\207\371\300v\365\0029\302\364`\014"
 734      A86E8387 
 734      F9C076F5 
 734      0239C2F4 
 734      600C
 735 0136 8C8FED5F 		.ascii	"\214\217\355_\214\250/:@\332A>dX\027@.\202|*Q}\030c"
 735      8CA82F3A 
 735      40DA413E 
 735      64581740 
 735      2E827C2A 
 736 014e 0994F5C0 		.ascii	"\011\224\365\300\365K\311j\253\371\300\376\353\317\331"
 736      F54BC96A 
 736      ABF9C0FE 
 736      EBCFD9
 737 015d 9626C56D 		.ascii	"\226&\305m\373\225\215]8\266\330\266\245\310\032\363"
 737      FB958D5D 
 737      38B6D8B6 
 737      A5C81AF3 
 738 016d 7F45948B 		.ascii	"\177E\224\213a\353\004f/\326\201\230\317\315G\027\363"
 738      61EB0466 
 738      2FD68198 
 738      CFCD4717 
 738      F3
 739 017e EB40CEAF 		.ascii	"\353@\316\257\265\210\36218\210\364\363~\355b\276X\006"
 739      B588F231 
 739      3888F4F3 
 739      7EED62BE 
 739      5806
 740 0190 0F3F4689 		.ascii	"\017?F\211\372p\216x\244\270\037\317\303u9+\203L\177"
 740      FA708E78 
 740      A4B81FCF 
 740      C375392B 
 740      834C7F
 741 01a3 BF2E5973 		.ascii	"\277.Ys\302|\340\034Kg\030\347\2458o\214g`\311\254\334"
 741      C27CE01C 
 741      4B6718E7 
 741      A5386F8C 
 741      6760C9AC 
 742 01b8 15E64B0C 		.ascii	"\025\346K\014.#1&\316\331lf\273\201\207\361\215\274"
 742      2E233126 
 742      CED96C66 
 742      BB8187F1 
 742      8DBC
 743 01ca 3A6FC25F 		.ascii	":o\302_\304l\225\230\255\270\356\025\026k\334\256z\301"
 743      C46C9598 
 743      ADB8EE15 
 743      166BDCAE 
 743      7AC1
 744 01dc 35C726AF 		.ascii	"5\307&\257\371\034\313e:\373\261zX\337\012\270_\211"
 744      F91CCB65 
ARM GAS  /tmp/cc0yVrlH.s 			page 59


 744      3AFBB17A 
 744      58DF0AB8 
 744      5F89
 745 01ee F3CCC4C3 		.ascii	"\363\314\304\303\254\033Cl\201S\026\253\177\014\344"
 745      AC1B436C 
 745      815316AB 
 745      7F0CE4
 746 01fd 24C84720 		.ascii	"$\310G g@>\006\371\034\305m\307~\272\027\236\007\201"
 746      67403E06 
 746      F91CC56D 
 746      C77EBA17 
 746      9E0781
 747 0210 0C4E623F 		.ascii	"\014Nb?n\253\375$k\016\342\034\310`\334\260\037\214"
 747      6EABFD24 
 747      6B0EE21C 
 747      C860DCB0 
 747      1F8C
 748 0222 5CC0FEF8 		.ascii	"\\\300\376\370\012\244[\262oo\346\234\220\031\266\221"
 748      0AA45BB2 
 748      6F6FE69C 
 748      9019B691 
 749 0232 173827BE 		.ascii	"\0278'\276\266\311\213!(\261}\233u\332\351\351d\276"
 749      B6C98B21 
 749      28B17D9B 
 749      75DAE9E9 
 749      64BE
 750 0244 4152621E 		.ascii	"ARb\036\016a\272\207\331\350\302\375\321@NW1kgF_r^`"
 750      0E61BA87 
 750      D9E8C2FD 
 750      D1404E57 
 750      316B6746 
 751 025c 5B27D3E7 		.ascii	"['\323\347\244\335\311L\227\301e\244\015\227\207X,\315"
 751      A4DDC94C 
 751      97C165A4 
 751      0D978758 
 751      2CCD
 752 026e 7987DB22 		.ascii	"y\207\333\"\356\227\273X\256a>\036V>\223\325\371\006"
 752      EE97BB58 
 752      AE613E1E 
 752      563E93D5 
 752      F906
 753 0280 E42AC875 		.ascii	"\344*\310u\034k\214\017\012\322@2e\312\003\347\332O"
 753      1C6B8C0F 
 753      0AD24032 
 753      65CA03E7 
 753      DA4F
 754 0292 590E9A0F 		.ascii	"Y\016\232\017\334\007\247s\372x\035\210\2253p\036\261"
 754      DC07A773 
 754      FA781D88 
 754      9533701E 
 754      B1
 755 02a3 C1C1FDF8 		.ascii	"\301\301\375\370\030\211\266-s{\3610\337a\337\276\202"
 755      1889B62D 
 755      737BF130 
 755      DF61DFBE 
 755      82
 756 02b4 68FF88F3 		.ascii	"h\377\210\363g,\262\366\325\330\267\331r|\\z\000\305"
ARM GAS  /tmp/cc0yVrlH.s 			page 60


 756      672CB2F6 
 756      D5D8B7D9 
 756      727C5C7A 
 756      00C5
 757 02c6 C71963DC 		.ascii	"\307\031c\334\311\201\277\367\226\30510\306\251\250"
 757      C981BFF7 
 757      96C53130 
 757      C6A9A8
 758 02d5 44C72D63 		.ascii	"D\307-c\034\303m\005\367\333\270_\356\003\365\373\202"
 758      1CC36D05 
 758      F7DBB85F 
 758      EE03F5FB 
 758      82
 759 02e6 F407B90F 		.ascii	"\364\007\271\017\305\307<#vs\340\335\000\370\333\\\234"
 759      C5C73C23 
 759      7673E0DD 
 759      00F8DB5C 
 759      9C
 760 02f7 1332EDD3 		.ascii	"\0232\355\323q{\274\003\356\177\003\327;\341z\032\336"
 760      717BBC03 
 760      EE7F03D7 
 760      3BE17A1A 
 760      DE
 761 0308 DD25D3F6 		.ascii	"\335%\323\366g\214\237\306\270j\216\3719\211\306\022"
 761      678C9FC6 
 761      B86A8EF9 
 761      3989C612 
 762 0318 FBC6883B 		.ascii	"\373\306\210;\356wq\376\347\311t\334\303cB\033\363\311"
 762      EE7771FE 
 762      E7C974DC 
 762      C363421B 
 762      F3C9
 763 032a 14960FB8 		.ascii	"\024\226\017\270=\276\314\332f\275M\333\314\226f\353"
 763      3DBECCDA 
 763      66BD4DDB 
 763      CC9666EB 
 764 033a 7AADDE34 		.ascii	"z\255\3364K\037\327\232\333O\252\327\341\310o\314\315"
 764      4B1FD79A 
 764      DB4FAAD7 
 764      E1C86FCC 
 764      CD
 765 034b 925EC4AF 		.ascii	"\222^\304\257;\327\351yy8\341T\004\2572\311MN\026q\320"
 765      3BD7E979 
 765      7938E154 
 765      04AF32C9 
 765      4D4E1671 
 766 0360 FDD26B50 		.ascii	"\375\322kP\024\312\313*Z\213\262 \011e\016\3328\350"
 766      14CACB2A 
 766      5A8BB220 
 766      09650EDA 
 766      38E8
 767 0372 DFF181AB 		.ascii	"\337\361\201\253\323{\343\256\007\305\320\363\014t\205"
 767      D37BE3AE 
 767      07C5D0F3 
 767      0C7485
 768 0381 D55A83FA 		.ascii	"\325Z\203\372\221;\302Eg\024I\011V#\337\250\341a5^7"
 768      913BC245 
ARM GAS  /tmp/cc0yVrlH.s 			page 61


 768      67144909 
 768      5623DFA8 
 768      E161355E 
 769 0396 E9C9C98A 		.ascii	"\351\311\311\212\337\310\214\211\250\336j\224m\220e"
 769      DFC88C89 
 769      A8DE6A94 
 769      6D9065
 770 03a5 865365F6 		.ascii	"\206Se\3665\210\345\365\235\363\376|C\326\365L\025\255"
 770      3588E5F5 
 770      9DF3FE7C 
 770      43D6F54C 
 770      15AD
 771 03b7 27D6CF46 		.ascii	"'\326\317FH\032\"\375\216\372d\315\020C\245\325\021"
 771      481A22FD 
 771      8EFA64CD 
 771      1043A5D5 
 771      11
 772 03c8 695909CF 		.ascii	"iY\011\317*\372=\032\302\270\245e\305o\360$\254O\214"
 772      2AFA3D1A 
 772      C2B8A565 
 772      C56FF024 
 772      AC4F8C
 773 03db 0F0E4463 		.ascii	"\017\016Dcn\222H\324wv\317~\363\001\302g\003\3413\007"
 773      6E9248D4 
 773      7776CF7E 
 773      F301C267 
 773      03E13307 
 774 03ef C261609B 		.ascii	"\302a`\233\014s\000\324\321\260r4\001\372\003\001zU"
 774      0C7300D4 
 774      D1B07234 
 774      01FA0301 
 774      7A55
 775 0401 B102A908 		.ascii	"\261\002\251\010qV \253\025\261\000\263\370\272)k\227"
 775      715620AB 
 775      15B100B3 
 775      F8BA296B 
 775      97
 776 0412 8E4D631A 		.ascii	"\216Mc\032si\2660\322c\014\322\231\014\264\331u\246"
 776      7369B630 
 776      D2630CD2 
 776      990CB4D9 
 776      75A6
 777 0424 6C16644A 		.ascii	"l\026dJF\212L\331\024\317\024;\252\235i\034U\213\177"
 777      468A4CD9 
 777      14CF143B 
 777      AA9D691C 
 777      558B7F
 778 0437 31C016D7 		.ascii	"1\300\026\327T\267\012\250J)\250\276\235\234j>\307\264"
 778      54B70AA8 
 778      4A29A8BE 
 778      9D9C6A3E 
 778      C7B4
 779 0449 09190003 		.ascii	"\011\031\000\003\031\300v\327T\337\021P\035\220\202"
 779      19C076D7 
 779      54DF1150 
 779      1D9082
 780 0458 EAB6E454 		.ascii	"\352\266\344T\023\022\240\257\265a\253h\247k\252\273"
ARM GAS  /tmp/cc0yVrlH.s 			page 62


 780      1312A0AF 
 780      B561AB68 
 780      A76BAABB 
 781 0468 0454510A 		.ascii	"\004TQ\012\252;\334y\365\015\331\000\270\237\001\354"
 781      AA3BDC79 
 781      F50DD900 
 781      B89F01EC 
 782 0478 714D75AF 		.ascii	"qMu\257\200\352})\250\356vG\2655\226\000w3\200}\256"
 782      80EA7D29 
 782      A8EE7647 
 782      B5359600 
 782      7733807D 
 783 048d A9BE2BA0 		.ascii	"\251\276+\240\232\227\202j\324\035\325\3551\252w1\200"
 783      9A97826A 
 783      D41DD5ED 
 783      31AA7731 
 783      80
 784 049e F75D53DD 		.ascii	"\367]S\335/\240zg\012\252\357\271\314\325\004\200\003"
 784      2FA07A67 
 784      0AAAEFB9 
 784      CCD50480 
 784      03
 785 04af AEA9B60A 		.ascii	"\256\251\266\012\250*)\250\266\270\363\352\261\230W"
 785      A82A29A8 
 785      B6B8F3EA 
 785      B19857
 786 04be EF610087 		.ascii	"\357a\000\207\\S=,\240zw\012\252\007m\250FA\331\235"
 786      5C533D2C 
 786      A07A770A 
 786      AA076DA8 
 786      4641D99D 
 787 04d2 D222A659 		.ascii	"\322\"\246YG\021\025=r\207\020\341Ct'\273{FI\246\313"
 787      4711153D 
 787      728710E1 
 787      437427BB 
 787      7B4649A6 
 788 04e7 E2095A4D 		.ascii	"\342\011ZM\004y\004H\231F>\323m\246\364\002\031L\353"
 788      04790448 
 788      99463ED3 
 788      6DA6F402 
 788      194CEB
 789 04fa F41AF45C 		.ascii	"\364\032\364\\\352\371\321Q\224\011]\325ZE8A\302\005"
 789      EAF9D151 
 789      94095DD5 
 789      5A453841 
 789      C205
 790 050c 0CCAF4DE 		.ascii	"\014\312\364\336\270\203*\203\244\225z\264\253s\363"
 790      B8832A83 
 790      A4957AB4 
 790      AB73F3
 791 051b B203C7D1 		.ascii	"\262\003\307\321\374\031z\253\336\205g\006\224\272,"
 791      FC197AAB 
 791      DE856706 
 791      94BA2C
 792 052a B572C3B3 		.ascii	"\265r\303\263$\375HZ\207}\246\277\241+\304cXA\033\032"
 792      24FD485A 
 792      877DA6BF 
ARM GAS  /tmp/cc0yVrlH.s 			page 63


 792      A12BC463 
 792      58411B1A 
 793 053e 64D57802 		.ascii	"d\325x\002Yf(TGtGKN}MgO\317 \347~?\315\374\256\320\316"
 793      59662854 
 793      4774474B 
 793      4E7D4D67 
 793      4FCF20E7 
 794 0559 D8E2DEFE 		.ascii	"\330\342\336\376\322|\202\002 \246\311\224\036\313\263"
 794      D27C8202 
 794      20A6C994 
 794      1ECBB3
 795 0568 BE526CD2 		.ascii	"\276Rl\322qv\345\376\3410\351`5\362\205\305Ut\006\335"
 795      7176E5FE 
 795      E130E960 
 795      35F285C5 
 795      557406DD 
 796 057c 2FA52C86 		.ascii	"/\245,\206\013\376\011\365g\236\241\261\210\336\324"
 796      0BFE09F5 
 796      679EA1B1 
 796      88DED4
 797 058b F2E95B89 		.ascii	"\362\351[\211\363\230\351\030,\001\333\332\350w\337"
 797      F398E918 
 797      2C01DBDA 
 797      E877DF
 798 059a B522BD21 		.ascii	"\265\"\275!\307bMl\006\025\025\316\240T\364\032\260"
 798      C7624D6C 
 798      061515CE 
 798      A054F41A 
 798      B0
 799 05ab 7338E14D 		.ascii	"s8\341Mp\345\371x#\220\245+$\256\230\255]q\313\034\200"
 799      70E5F978 
 799      2390A52B 
 799      24AE98AD 
 799      5D71CB1C 
 800 05c0 15B05AD0 		.ascii	"\025\260Z\320\363\005\261\200f\261,\335p\015\227o\201"
 800      F305B180 
 800      66B12CDD 
 800      700D976F 
 800      81
 801 05d1 AB87CC50 		.ascii	"\253\207\314P\015\260\036'`\231bn\015f\260\027=n\301"
 801      0DB01E27 
 801      6099626E 
 801      0D66B017 
 801      3D6EC1
 802 05e4 F2B998D1 		.ascii	"\362\271\230\321`\252\350c\342\373sh0\234/\220\363\247"
 802      60AAE863 
 802      E2FB7368 
 802      309C2F90 
 802      F3A7
 803 05f6 E47C11CE 		.ascii	"\344|\021\316\261C\226\352=\374\204\226\346\204\011"
 803      B14396EA 
 803      3DFC8496 
 803      E68409
 804 0605 2F9E3A52 		.ascii	"/\236:RjDQ8\333\343\341\214wJ\204\3012\216\301}\322"
 804      6A445138 
 804      DBE3E18C 
 804      774A84C1 
ARM GAS  /tmp/cc0yVrlH.s 			page 64


 804      328EC17D 
 805 061a 5A5D6FE8 		.ascii	"Z]o\350\334|\366\310>\264h\206>\216\326\225\2457H\271"
 805      DC7CF6C8 
 805      3EB46886 
 805      3E8ED695 
 805      A53748B9 
 806 062e 53D076ED 		.ascii	"S\320v\355t\3044\260\006\277S\177:/\326\340O\361\015"
 806      74C434B0 
 806      06BF537F 
 806      3A2FD6E0 
 806      4FF10D
 807 0641 FE0BDB06 		.ascii	"\376\013\333\006\177\305h\360Fw\262\321\343\244;\271"
 807      7FC568F0 
 807      4677B2D1 
 807      E3A43BB9 
 808 0651 C4A37F65 		.ascii	"\304\243\177e\213\3361\373p\015$\241~\253\247G\221\234"
 808      8BDE31FB 
 808      700D24A1 
 808      7EABA747 
 808      919C
 809 0663 7729DD09 		.ascii	"w)\335\011]\271,m\263\347Uo\345\325\305\363\372&\221"
 809      5DB92C6D 
 809      B3E7556F 
 809      E5D5C5F3 
 809      FA2691
 810 0676 57675774 		.ascii	"WgWt\371\001j\365\2521\034)\334\343\212X]\265vt\264"
 810      F9016AF5 
 810      AA311C29 
 810      DCE38A58 
 810      5DB57674 
 811 068b B972813D 		.ascii	"\271r\201=d\033X\375f\3518Z\\\226N\221\022W\204!=o\012"
 811      641B58FD 
 811      66E9385A 
 811      5C964E91 
 811      12578421 
 812 06a2 69AD7EA9 		.ascii	"i\255~\251\256\256olH\260T\343\026\026\344\317\327l"
 812      AEAE6F6C 
 812      48B054E3 
 812      1616E4CF 
 812      D76C
 813 06b4 8DDD753B 		.ascii	"\215\335u;\306\336\342\215\305\205-\226K\011Y\335ao"
 813      C6DEE28D 
 813      C5852D96 
 813      4B0959DD 
 813      616F
 814 06c6 7CF7BFE7 		.ascii	"|\367\277\347\031#\340ER\342\246\300\012f'\253\266W"
 814      1923E045 
 814      52E2A6C0 
 814      0A6627AB 
 814      B657
 815 06d8 1B67B8F8 		.ascii	"\033g\270\370\006\330e\251\346\306g\"m\314\320\236D"
 815      06D865A9 
 815      E6C66722 
 815      6DCCD09E 
 815      44
 816 06e9 9F357546 		.ascii	"\2375uF\317\034\260\037\007\223\271\254N\026\017\204"
 816      CF1CB01F 
ARM GAS  /tmp/cc0yVrlH.s 			page 65


 816      0793B9AC 
 816      4E160F84 
 817 06f9 C967842F 		.ascii	"\311g\204/\310\261\216\"\205\213\273\354]\274\010\373"
 817      C8B18E22 
 817      858BBBEC 
 817      5DBC08FB 
 818 0709 0AA3C8D2 		.ascii	"\012\243\310\322\2544\\b\246,\362\025\321eD\206w\261"
 818      AC345C62 
 818      A62CF215 
 818      D1654486 
 818      77B1
 819 071b B85A5217 		.ascii	"\270ZR\027\233\252\331\271\370%\331\316\305K\017\271"
 819      9BAAD9B9 
 819      F825D9CE 
 819      C54B0FB9 
 820 072b 77F13CAB 		.ascii	"w\361<\253\213\235\357\325\354\375\262\375uT\013\012"
 820      8B9DEFD5 
 820      ECFDB2FD 
 820      75540B0A 
 821 073b 54345FC6 		.ascii	"T4_\306\313\306\255i\266\273#\016\240\272g\357\337\307"
 821      CBC6AD69 
 821      B6BB230E 
 821      A0BA67EF 
 821      DFC7
 822 074d A01612A8 		.ascii	"\240\026\022\250\350mCu4\354\372)\331hYB\200\016\246"
 822      E86D4375 
 822      34ECFA29 
 822      D9685942 
 822      800EA6
 823 0760 F1E35206 		.ascii	"\361\343R\006\267\321\222a\335<\311\310\212\337\260"
 823      B7D19261 
 823      DD3CC9C8 
 823      8ADFB0
 824 076f EDA21FB6 		.ascii	"\355\242\037\266x,;\261\023Sg\353\3114\3010\327\322"
 824      782C3BB1 
 824      135367EB 
 824      C934C130 
 824      D7D2
 825 0781 C086391A 		.ascii	"\300\2069\032\214K\244\334\\a\362\021m\264rt9\244M,"
 825      8C4BA4DC 
 825      5C61F211 
 825      6DB47274 
 825      39A44D2C 
 826 0795 8A975D54 		.ascii	"\212\227]T\\u\350\315\273\365&\331\232\360\342\252\226"
 826      5C75E8CD 
 826      BBF526D9 
 826      9AF0E2AA 
 826      96
 827 07a6 848F2E9B 		.ascii	"\204\217.\233\275s5\322\323\343)?7y\312/OLy\350\211"
 827      BD7335D2 
 827      D3E3293F 
 827      3779CA2F 
 827      4F4C79E8 
 828 07bb DB0F097A 		.ascii	"\333\017\011z\342$c\341k2\327\021\343\244\343\374|\315"
 828      E22463E1 
 828      6B32D711 
 828      E3A4E3FC 
ARM GAS  /tmp/cc0yVrlH.s 			page 66


 828      7CCD
 829 07cd D6CFFA   		.ascii	"\326\317\372"
 830 07d0 353CEAD0 		.ascii	"5<\352\320\034\235\221\216K\254\025Z\273\220\306\223"
 830      1C9D918E 
 830      4BAC155A 
 830      BB90C693 
 831 07e0 0DF5AFE8 		.ascii	"\015\365\257\350\244y\2631\025\327\262\344\311\353\266"
 831      A479B331 
 831      15D7B2E4 
 831      C9EBB6
 832 07ef C6351F76 		.ascii	"\3065\037vo\334\006\3368\233!\265.=\325\220ZOK8\012"
 832      6FDC06DE 
 832      389B21B5 
 832      2E3DD590 
 832      5A4F4B38 
 833 0804 256FDCEF 		.ascii	"%o\334\357y\343\336\2645\356O\207c\323$\314Y\226\026"
 833      79E3DEB4 
 833      35EE4F87 
 833      63D324CC 
 833      599616
 834 0817 D9B3EA29 		.ascii	"\331\263\352)\215\365\250o\3118\3016\335\026\253M<\253"
 834      8DF5A86F 
 834      C938C136 
 834      DD16AB4D 
 834      3CAB
 835 0829 66DB2E74 		.ascii	"f\333.t\361\021\327\253\265\255\274\307\327\242\204"
 835      F111D7AB 
 835      B5ADBCC7 
 835      D7A284
 836 0838 745A636F 		.ascii	"tZco\3335<\216\323\235\376fRb\213\240\015\304\226?\266"
 836      DB353C8E 
 836      D39DFE66 
 836      52628BA0 
 836      0DC4963F 
 837 084d B66DE16D 		.ascii	"\266m\341m\333nk\333\311#1\217o%\036\337.\310\003\203"
 837      DB6E6BDB 
 837      C923318F 
 837      6F251EDF 
 837      2EC80383 
 838 0861 958A7610 		.ascii	"\225\212v\020\217\357\272-V\273xV\273mY-9z\330~>k\331"
 838      8FEFBA2D 
 838      56BB7856 
 838      BB6D592D 
 838      397AD87E 
 839 0878 2149DAE9 		.ascii	"!I\332\351o\371kk\336n]\357\253\242wI\323\254\313\260"
 839      6FF96B6B 
 839      DE6E5DEF 
 839      ABA27749 
 839      D3ACCBB0 
 840 088c 193E9C20 		.ascii	"\031>\234 5u\037\272C\367\250h?\201y\371va:;\332\266"
 840      35751FBA 
 840      43F7A868 
 840      3F8179F9 
 840      76613A3B 
 841 08a2 D1EDFE56 		.ascii	"\321\355\376V\002\264 \203\037\205\322\271Q(\335:N\300"
 841      02B42083 
 841      1F85D2B9 
ARM GAS  /tmp/cc0yVrlH.s 			page 67


 841      5128DD3A 
 841      4EC0
 842 08b4 23D6741D 		.ascii	"#\326t\035\217\021h:{\203\0372\244\377\367z\242\264"
 842      8F11683A 
 842      7B831F32 
 842      A4FFF77A 
 842      A2B4
 843 08c6 DF97646E 		.ascii	"\337\227dnflR\244\247\360\323\315o\333\357\231A\306"
 843      666C52A4 
 843      A7F0D3CD 
 843      6FDBEF99 
 843      41C6
 844 08d8 FD0FE5FE 		.ascii	"\375\017\345\376\200\323\3029*%\016&rL\346\366$\366"
 844      80D3C239 
 844      2A250E26 
 844      724CE6F6 
 844      24F6
 845 08ea B6E4E020 		.ascii	"\266\344\340 \342\367\251w%N\264l\2041\354]\344z\223"
 845      E2F7A977 
 845      254EB46C 
 845      8431EC5D 
 845      E47A93
 846 08fd 4596CE02 		.ascii	"E\226\316\002[\007\233+\247H\033:\315\263\\1\213\260"
 846      5B079B2B 
 846      A7481B3A 
 846      CDB35C31 
 846      8BB0
 847 090f 3CED88E5 		.ascii	"<\355\210\345\252\226\203\011{'\\\017\265>\311l\370"
 847      AA968309 
 847      7B275C0F 
 847      B53EC96C 
 847      F8
 848 0920 0CDF45FD 		.ascii	"\014\337E\375,\3336n\216\266c6\222-\201\024\037\235"
 848      2CDB366E 
 848      8EB66336 
 848      922D8114 
 848      1F9D
 849 0932 444C3E8E 		.ascii	"DL>\216\317\313\315|\326\323~\304\322k\212 :d\323\226"
 849      CFCBCD7C 
 849      D6D37EC4 
 849      D26B8A20 
 849      3A64D396 
 850 0946 CE659231 		.ascii	"\316e\2221\330\211\267\265\245\2437\353zV\372\355\272"
 850      D889B7B5 
 850      A5A337EB 
 850      7A56FAED 
 850      BA
 851 0957 F57F1CBA 		.ascii	"\365\177\034\272\225~?\024\241\\\374\333]r\301\354\222"
 851      957E3F14 
 851      A15CFCDB 
 851      5D72C1EC 
 851      92
 852 0968 1BAE5D92 		.ascii	"\033\256]\222\357\316%\270\223\0251\371\263\330%\324"
 852      EFCE25B8 
 852      931531F9 
 852      B3D825D4 
 853 0978 0B4E4DFA 		.ascii	"\013NM\372\322l\322\367NL\022o\216\375m&u\333\230\344"
ARM GAS  /tmp/cc0yVrlH.s 			page 68


 853      D26CD2F7 
 853      4E4C126F 
 853      8EFD6D26 
 853      75DB98E4 
 854 098c C8842EB3 		.ascii	"\310\204.\263\011\265\231nM\310\227\254G|\363\254]\306"
 854      09B5996E 
 854      4DC897AC 
 854      477CF3AC 
 854      5DC6
 855 099e 1B669F90 		.ascii	"\033f\237\220\363\027\344\374\265\354`\363\354\204\231"
 855      F317E4FC 
 855      B5EC60F3 
 855      EC8499
 856 09ad CF2CC2E7 		.ascii	"\317,\302\347\230\373\206cw\230;a\025\035\227q\007\321"
 856      98FB8663 
 856      77983B61 
 856      151D9771 
 856      07D1
 857 09bf E684D207 		.ascii	"\346\204\322\007\262h?ov\246`\241\363\277k\331B\347"
 857      B2683F6F 
 857      76A660A1 
 857      F3BF6BD9 
 857      42E7
 858 09d1 03B2385F 		.ascii	"\003\2628_B\312E\205sB\246\201\315P\336\232U\327\327"
 858      42CA4585 
 858      7342A681 
 858      CD50DE9A 
 858      55D7D7
 859 09e4 43C32D25 		.ascii	"C\303-%\251\306\010]\265\231\270\326w~\267f\337\270"
 859      A9C6085D 
 859      B599B8D6 
 859      777EB766 
 859      DFB8
 860 09f6 C6667DE6 		.ascii	"\306f}\346K\372\367=\323\221\363y\342\267|\036\315O"
 860      4BFAF73D 
 860      D391F379 
 860      E2B77C1E 
 860      CD4F
 861 0a08 5C76BCCF 		.ascii	"\\v\274\317Ym0\271ee\362\367\322j]o\003g\354~\344U="
 861      596D30B9 
 861      6565F2F7 
 861      D26A5D6F 
 861      0367EC7E 
 862 0a1f 3A53C7B3 		.ascii	":S\307\263'\204\014\227\034\215\201\210\250|\037\207"
 862      27840C97 
 862      1C8D8188 
 862      A87C1F87 
 863 0a2f A350D1AB 		.ascii	"\243P\321\2537\360\326\266N\276\203\030\373\036\355"
 863      37F0D6B6 
 863      4EBE8318 
 863      FB1EED
 864 0a3e 297174C5 		.ascii	")qt\305\202\023=\026\275|5\323\200\021|\022K\374\250"
 864      82133D16 
 864      BD7C35D3 
 864      80117C12 
 864      4BFCA8
 865 0a51 50ABB8FD 		.ascii	"P\253\270\375$6C\261\377$f,\277e\351\002\317=Q\355L"
ARM GAS  /tmp/cc0yVrlH.s 			page 69


 865      243643B1 
 865      FF24662C 
 865      BF65E902 
 865      CF3D51ED 
 866 0a66 8577C2B9 		.ascii	"\205w\302\271\377h\204\201\271\247\347g\306\346\332"
 866      FF688481 
 866      B9A7E767 
 866      C6E6DA
 867 0a75 551E25E1 		.ascii	"U\036%\341\267\007\263\254 Mm\321\235\035\331\177\004"
 867      B707B3AC 
 867      204D6DD1 
 867      9D1DD97F 
 867      04
 868 0a86 2B7A7AA6 		.ascii	"+zz\246\033(uY\251P^L\240\322\275\351\240)\036tQ\266"
 868      1B287559 
 868      A9505E4C 
 868      A0D2BDE9 
 868      A0291E74 
 869 0a9c 98C749F0 		.ascii	"\230\307I\360\313l+\016$\353\266\015\237\254C\013\365"
 869      CB6C2B0E 
 869      24EBB60D 
 869      9FAC430B 
 869      F5
 870 0aad A6566218 		.ascii	"\246Vb\030\032d\004\2455\327\322\035Z>\020\302\020+"
 870      1A6404A5 
 870      35D7D21D 
 870      5A3E10C2 
 870      102B
 871 0abf F872C06D 		.ascii	"\370r\300m\301\213\212\274\242\230G4\366r\016\213r,"
 871      C18B8ABC 
 871      A2984734 
 871      F6720E8B 
 871      722C
 872 0ad1 441F65F1 		.ascii	"D\037e\361\271\256\242y\274;;7/\333x\217%\307\323\360"
 872      B9AEA279 
 872      BC3B3B37 
 872      2FDB788F 
 872      25C7D3F0 
 873 0ae5 8CFA424A 		.ascii	"\214\372BJW\314\217#qc1N7Q\255\006\305\376\363.mZ\242"
 873      57CC8F23 
 873      7163314E 
 873      3751AD06 
 873      C5FEF32E 
 874 0afc 5A0B6C6A 		.ascii	"Z\013ljQG\342\341\320\301\010\307\351z!\211\256EB\206"
 874      5147E2E1 
 874      D0C108C7 
 874      E97A2189 
 874      AE454286 
 875 0b10 C976F916 		.ascii	"\311v\371\026\307k\261\357\010\013Z\346\302\274\267"
 875      C76BB1EF 
 875      080B5AE6 
 875      C2BCB7
 876 0b1f 169262AF 		.ascii	"\026\222b\257\216}I?U\374%!&v\237*\226(\334\312\256"
 876      8E7D493F 
 876      55FC2521 
 876      26769F2A 
 876      9628DCCA 
ARM GAS  /tmp/cc0yVrlH.s 			page 70


 877 0b34 51B1744F 		.ascii	"Q\261tO\234\023\316$q\202i2\367c\351u</\336r\242\265"
 877      9C13CE24 
 877      71826932 
 877      F763E975 
 877      3C2FDE72 
 878 0b4a 06E5C7F6 		.ascii	"\006\345\307\366OlP\251\271\270M\210P\227\307\315%\235"
 878      4F6C50A9 
 878      B9B84D88 
 878      5097C7CD 
 878      259D
 879 0b5c CA8CA48B 		.ascii	"\312\214\244\2136p*\031\261Ro\326\331\315\366\323\015"
 879      36702A19 
 879      B1526FD6 
 879      D9CDF6D3 
 879      0D
 880 0b6d A85F4BB1 		.ascii	"\250_K\261u\315\345\267\272\203t]\263R\301\353\232?"
 880      75CDE5B7 
 880      BA83745D 
 880      B352C1EB 
 880      9A3F
 881 0b7f F4B25DD7 		.ascii	"\364\262]\327\210q0\251\325\012\267bXp\226\254\030\360"
 881      887130A9 
 881      D50AB762 
 881      587096AC 
 881      18F0
 882 0b91 FB142B86 		.ascii	"\373\024+\206\2313\242\213\316.'\353\032\025\255Pp\213"
 882      9933A28B 
 882      CE2E27EB 
 882      1A15AD50 
 882      708B
 883 0ba3 D94128E0 		.ascii	"\331A(\340\272\2671Q\006\274\305g\311\367E\012\266\307"
 883      BAB73151 
 883      06BCC567 
 883      C9F7450A 
 883      B6C7
 884 0bb5 3558BE05 		.ascii	"5X\276\005\254\321\014\366\256\0230\321\344\016\300"
 884      ACD10CF6 
 884      AE1330D1 
 884      E40EC0
 885 0bc4 969AC10E 		.ascii	"\226\232\301\016\270\006\2632[n\006\373\300\011X_1\263"
 885      B806B332 
 885      5B6E06FB 
 885      C009585F 
 885      31B3
 886 0bd6 9566B0A3 		.ascii	"\225f\260\243\256\301\254\314\376h\006;\341\004,O\314"
 886      AEC1ACCC 
 886      FE68063B 
 886      E1042C4F 
 886      CC
 887 0be7 ACD90CD6 		.ascii	"\254\331\014\326\341\032\314\312\354m3\330y'`\371bf"
 887      E11ACCCA 
 887      EC6D33D8 
 887      792760F9 
 887      6266
 888 0bf9 5BCD609F 		.ascii	"[\315`\237\272\006\2632\333n\006\373\334\011\330O\304"
 888      BA06B332 
 888      DB6E06FB 
ARM GAS  /tmp/cc0yVrlH.s 			page 71


 888      DC09D84F 
 888      C4
 889 0c0a CC7698C1 		.ascii	"\314v\230\301\376\342\032\314\312l\227\031\254\313\011"
 889      FEE21ACC 
 889      CA6C9719 
 889      ACCB09
 890 0c19 D8832266 		.ascii	"\330\203\"f5\321=\377V\257\306\007v\212*\230\366\230"
 890      35D13DFF 
 890      56AFC607 
 890      768A2A98 
 890      F698
 891 0c2b 8B2D9493 		.ascii	"\213-\224\223L\312\366\262\341:\376S)\376Q\226\256\360"
 891      4CCAF6B2 
 891      E13AFE53 
 891      29FE5196 
 891      AEF0
 892 0c3d BCAD3076 		.ascii	"\274\2550v\304\255^8f\366\302u'^\030#\006k3\203}\347"
 892      C4AD5E38 
 892      66F6C275 
 892      275E1823 
 892      066B3383 
 893 0c53 046C9C38 		.ascii	"\004l\2348\330'\315`5\331n\301\254\314N\233\301f9\001"
 893      D827CD60 
 893      35D96EC1 
 893      ACCC4E9B 
 893      C1663901 
 894 0c67 7B5ACCAC 		.ascii	"{Z\314\254\335\014\366\222k03\263\232\350\231x\3464"
 894      DD0CF692 
 894      6B3033B3 
 894      9AE89978 
 894      E634
 895 0c79 8DE15267 		.ascii	"\215\341Rg\214\265\273\264\0243\245\016W\014f\022\261"
 895      8CB5BBB4 
 895      1433A50E 
 895      570C6612 
 895      B1
 896 0c8a CCD965CD 		.ascii	"\314\331e\315\234]\361\314\231\307\363\266\240\260\333"
 896      9C5DF1CC 
 896      99C7F3B6 
 896      A0B0DB
 897 0c99 09364EB0 		.ascii	"\0116N\260;\314C\245\212\326(\344\327B\012^\026\257"
 897      3BCC43A5 
 897      8AD628E4 
 897      D7420A5E 
 897      16AF
 898 0cab 23E7F5E4 		.ascii	"#\347\365\344\374;r\336@\316o\222\363[\344\274\211\234"
 898      FC3B72DE 
 898      40CE6F92 
 898      F35BE4BC 
 898      899C
 899 0cbd 3793F316 		.ascii	"7\223\363\026r\336F\316\357\220\363Nr\336M\316\373\310"
 899      72DE46CE 
 899      EF90F34E 
 899      72DE4DCE 
 899      FBC8
 900 0ccf F93D72DE 		.ascii	"\371=r\336O\316\007\310\371 9\037VL\353]n\256\262R\020"
 900      4FCE07C8 
ARM GAS  /tmp/cc0yVrlH.s 			page 72


 900      F920391F 
 900      564CEB5D 
 900      6EAEB252 
 901 0ce4 20F2819E 		.ascii	" \362\201\236\237\232u\266\357\330\267\"\376\253\264"
 901      9F9A75B6 
 901      EFD8B722 
 901      FEABB4
 902 0cf3 A64C6E89 		.ascii	"\246Ln\2119?\311^\305q%\361g\036[\263m\347t\265z\363"
 902      393FC95E 
 902      C57125F1 
 902      671E5BB3 
 902      6DE774B5 
 903 0d09 1B7A96F1 		.ascii	"\033z\226\361\335\021V\360J\322\265p\233\222\260\026"
 903      DD1156F0 
 903      4AD2B570 
 903      9B92B016 
 904 0d19 06AA5BF7 		.ascii	"\006\252[\367|\3620\231\235\303rg0U\017}\2433\205'\223"
 904      7CF23099 
 904      9DC37267 
 904      30550F7D 
 904      A3338527 
 905 0d2e 2B3C65AB 		.ascii	"+<e\253\360\373\275\007\357MP\270)\307\221\302\217\222"
 905      F0FBBD07 
 905      EF4D50B8 
 905      29C791C2 
 905      8F92
 906 0d40 2B6CB755 		.ascii	"+l\267U\270\364b\307?&(\274\351L\341\231\344\012\317"
 906      B8F462C7 
 906      3F2628BC 
 906      E94CE199 
 906      E40ACF
 907 0d53 262A3CD6 		.ascii	"&*<\326\325\331\261\243c\025\332\267n\226\216\277\325"
 907      D5D9B1A3 
 907      6315DAB7 
 907      6E968EBF 
 907      D5
 908 0d64 4C5F15ED 		.ascii	"L_\025\355\353\342c\3769\305f\213A\370\205\231=s[\020"
 908      EBE263FE 
 908      39C5668B 
 908      41F88599 
 908      3D735B10 
 909 0d78 737BDB7E 		.ascii	"s{\333~\024:\245\305\276-\257!%>\026\030g\375D|\375"
 909      143AA5C5 
 909      BE2DAF21 
 909      253E1618 
 909      67FD447C 
 910 0d8d B356A4F7 		.ascii	"\263V\244\3677\366:V\222\255pg5\277\265\324lrR3\366"
 910      37F63A56 
 910      92AD7067 
 910      35BFB5D4 
 910      6C725233 
 911 0da2 6DF9DA67 		.ascii	"m\371\332g\235\362\222\205Q\024\377\270l\252i\367q\371"
 911      9DF29285 
 911      5114FFB8 
 911      6CAA69F7 
 911      71F9
 912 0db4 826D2820 		.ascii	"\202m( \273\377\305\024\373s$\366\353\355\375s\334\360"
ARM GAS  /tmp/cc0yVrlH.s 			page 73


 912      BBFFC514 
 912      FB7324F6 
 912      EBEDFD73 
 912      DCF0
 913 0dc6 8F8A3E55 		.ascii	"\217\212>U0\327\317\235Y\331\026\373\366n\270\307Y\305"
 913      30D7CF9D 
 913      59D916FB 
 913      F66EB8C7 
 913      59C5
 914 0dd8 5BE68A4D 		.ascii	"[\346\212MN*\306\274s\243a\361]\263\177\035\367\315"
 914      4E2AC6BC 
 914      73A361F1 
 914      5DB37F1D 
 914      F7CD
 915 0dea E7C97DF3 		.ascii	"\347\311}\363\205`qG\273\266\356$?\366\375J\341\026"
 915      85607147 
 915      BBB6EE24 
 915      3FF6FD4A 
 915      E116
 916 0dfc 77B09ABF 		.ascii	"w\260\232\2774\360\325\372L\233\325\235`\267h\264\201"
 916      34F0D5FA 
 916      4C9BD59D 
 916      60B768B4 
 916      81
 917 0e0d 99C130BB 		.ascii	"\231\3010\273\\o\026u\0136\213\322M\301\216\222v\367"
 917      5C6F1675 
 917      0B368BD2 
 917      4DC18E92 
 917      76F7
 918 0e1f DB8DCDBA 		.ascii	"\333\215\315\272N\266\365jf\"cI\374No\333\266\316-\211"
 918      4EB6F56A 
 918      66226349 
 918      FC4E6FDB 
 918      B6CE2D89 
 919 0e33 BFE197C4 		.ascii	"\277\341\227\304\227\355{\223\257\272\377\323\224QT"
 919      97ED7B93 
 919      AFBAFFD3 
 919      945154
 920 0e42 C3678E34 		.ascii	"\303g\2164\\\3455\374\325VC\333\327\307\227\232\007"
 920      5CE535FC 
 920      D55643DB 
 920      D7C7979A 
 920      07
 921 0e53 0F43C9EA 		.ascii	"\017C\311\352\\'J\256\363Jn\330*\331v\271{\334\215\270"
 921      5C274AAE 
 921      F34A6ED8 
 921      2AD976B9 
 921      7BDC8DB8 
 922 0e67 AF06D3DF 		.ascii	"\257\006\323\337T\300\344\337\242\204t4\262t)\227%\223"
 922      54C0E4DF 
 922      A2847434 
 922      B2742997 
 922      2593
 923 0e79 D1525A48 		.ascii	"\321RZH\346\322_Q\334$5n\0123\327\372+\212\3135\246"
 923      E6D25F51 
 923      DC24356E 
 923      0A33D7FA 
ARM GAS  /tmp/cc0yVrlH.s 			page 74


 923      2B8ACB35 
 924 0e8e 9F63DEE4 		.ascii	"\237c\336\344\271\336\262\345\332\261\243\373\277\355"
 924      B9DEB2E5 
 924      DAB1A3FB 
 924      BFED
 925 0e9c E25AD3C7 		.ascii	"\342Z\323\307\211Cj=\234\222\031\036\373\270\036/K\210"
 925      89436A3D 
 925      9C92191E 
 925      FBB81E2F 
 925      4B88
 926 0eae EB3C471A 		.ascii	"\353<G\032\352x\015\263l5@\\W\330\305u\231#%/\362J^"
 926      EA780DB3 
 926      6C35405C 
 926      57D8C575 
 926      9923252F 
 927 0ec5 F2246BD4 		.ascii	"\362$k\324\033\222\354\330\274\354q\365\037\020\215"
 927      1B92ECD8 
 927      BCEC71F5 
 927      1F108D
 928 0ed4 B125C100 		.ascii	"\261%\301\000\006\360\212\307m\013\236\353\261o\301"
 928      06F08AC7 
 928      6D0B9EEB 
 928      B16FC1
 929 0ee3 C62F8C45 		.ascii	"\306/\214E\365\346\270\243:\315\250\337\207\325\257"
 929      F5E6B8A3 
 929      3ACDA8DF 
 929      87D5AF
 930 0ef2 77CD74BE 		.ascii	"w\315t\276\200in\012\246\363\004Li\303\022\325j\020"
 930      80696E0A 
 930      A6F3044C 
 930      69C312D5 
 930      6A10
 931 0f04 D69A9364 		.ascii	"\326\232\223d\217s\201M-\272Q\327\231\344+\345y\301"
 931      8F73814D 
 931      2DBA51D7 
 931      99E42BE5 
 931      79C1
 932 0f16 3FBED0EF 		.ascii	"?\276\320\357\032\242Z\213\204\014O'\0317\026\013k\245"
 932      1AA25A8B 
 932      840C4F27 
 932      1937160B 
 932      6BA5
 933 0f28 89092EF1 		.ascii	"\211\011.\361$\316\243ol\2606\231oI/\265\276\217\355"
 933      24CEA36F 
 933      6CB03699 
 933      6F492FB5 
 933      BE8FED
 934 0f3b 08BE9B1F 		.ascii	"\010\276\233\037\301\033=N\306S]\3570\377H\274\221o"
 934      C11B3D4E 
 934      C6535DEF 
 934      30FF48BC 
 934      916F
 935 0f4d 69AF5A5B 		.ascii	"i\257Z[\232\344\361\227\251U5\310\033\234\024\306\362"
 935      9AE4F197 
 935      A95535C8 
 935      1B9C14C6 
 935      F2
ARM GAS  /tmp/cc0yVrlH.s 			page 75


 936 0f5e 90B72C54 		.ascii	"\220\267,T\241y\253\264\260\246V\371\313\274\360\307"
 936      A179ABB4 
 936      B0A656F9 
 936      CBBCF0C7 
 937 0f6e D2A96A95 		.ascii	"\322\251j\225\346U\253*Fx'\373\375C\341f\250V1Q+-\325"
 937      E655AB2A 
 937      467827FB 
 937      FD43E166 
 937      A8563151 
 938 0f85 4A632F82 		.ascii	"Jc/\202\241\2406TS'\006\206\216\362\215\036:\342\301"
 938      A1A03654 
 938      53270686 
 938      8EF28D1E 
 938      3AE2C1
 939 0f98 E1A39E1B 		.ascii	"\341\243\236\033\341-\017L"
 939      E12D0F4C 
 940 0fa0 C405BC96 		.ascii	"\304\005\274\226\002\336Q\303F\017\033\345\015\004\375"
 940      02DE51C3 
 940      460F1BE5 
 940      0D04FD
 941 0faf E5D5A59A 		.ascii	"\345\325\245\2327\034\001\234I\303\312\244\364p\340"
 941      371C019C 
 941      49C3CAA4 
 941      F470E0
 942 0fbe 379A2F92 		.ascii	"7\232/\222\376\304\317\237\311/\220\302?\004\037+\017"
 942      FEC4CF9F 
 942      C92F90C2 
 942      3F041F2B 
 942      0F
 943 0fcf 13834030 		.ascii	"\023\203@0\002\0142\252\341:\332\027\231\361\2038\303"
 943      020C32AA 
 943      E13ADA17 
 943      99F18338 
 943      C3
 944 0fe0 5E7985EA 		.ascii	"^y\205\352/\013\0045\257\017\234\240V\227G|\221\347"
 944      2F0B0435 
 944      AF0F9CA0 
 944      5697477C 
 944      91E7
 945 0ff2 2BB53090 		.ascii	"+\2650\220\311\362\371\030\2354\337\330P\250"
 945      C9F2F918 
 945      9D34DFD8 
 945      50A8
 946 1000 FCEF860D 		.ascii	"\374\357\206\015\363\026\224\005&\006\236*\366F\264"
 946      F3169405 
 946      26069E2A 
 946      F646B4
 947 100f 708438D7 		.ascii	"p\2048\327_\346\303\367\303\374RNe\025\224\366EB\317"
 947      5FE6C3F7 
 947      C3FC524E 
 947      651594F6 
 947      4542CF
 948 1022 6AC170D2 		.ascii	"j\301p\322\262e\222'\250Vhia-R]\231\031\001\303JCS\203"
 948      B2659227 
 948      A8566869 
 948      612D525D 
 948      991901C3 
ARM GAS  /tmp/cc0yVrlH.s 			page 76


 949 103a 19DA34CD 		.ascii	"\031\3324\315_\035\321z\3412~5\014\221\310a\257H5%\342"
 949      5F1DD17A 
 949      E1327E35 
 949      0C91C861 
 949      AF483525 
 950 104f AFEC4575 		.ascii	"\257\354Eu\224\003\337\376\370\235\217<\007\207U\252"
 950      9403DFFE 
 950      F89D8F3C 
 950      078755AA 
 951 105f 5591610F 		.ascii	"U\221a\017\366\"\345|\223\324@\271R\021\236\234C\037"
 951      F622E57C 
 951      93D440B9 
 951      52119E9C 
 951      431F
 952 1071 D57058AB 		.ascii	"\325pX\253\212d\371C\301\322@$\020\012\336a~\355\013"
 952      8A64F943 
 952      C1D24024 
 952      100ADE61 
 952      7EED0B
 953 1084 6BCF556B 		.ascii	"k\317UkA\277\226\251M\253\324\374\021\255\364G&\346"
 953      41BF96A9 
 953      4DABD4FC 
 953      11ADF447 
 953      26E6
 954 1096 A1B0B72A 		.ascii	"\241\260\267*\022s\224\277,\374|8\346\034|\037\250\000"
 954      127394BF 
 954      2CFC7C38 
 954      E61C7C1F 
 954      A800
 955 10a8 6A99D849 		.ascii	"j\231\330I#G\370\"\275\250\277\360m\236E\007)75\020"
 955      2347F822 
 955      BDA8BFF0 
 955      6D9E4507 
 955      29373510 
 956 10bc 042BD3C2 		.ascii	"\004+\323\302\021\240\252h\301\322l\023\177\024\354"
 956      11A0AA68 
 956      C1D26C13 
 956      7F14EC
 957 10cb 157FF200 		.ascii	"\025\177\362\000\365\312\234\370sy\260\017y\320*\002"
 957      F5CA9CF8 
 957      7379B00F 
 957      79D02A02 
 958 10db CCBB69E4 		.ascii	"\314\273i\344\334\217{\353\013\374\263\225\272?TQ\021"
 958      DC8F7BEB 
 958      0BFCB395 
 958      BA3F5451 
 958      11
 959 10ec 0A7A2B43 		.ascii	"\012z+CU\221\260\367\321\242\302\202\302i\370]e\240"
 959      5591B0F7 
 959      D1A2C282 
 959      C269F85D 
 959      65A0
 960 10fe 5CAB0A7B 		.ascii	"\\\253\012{\237((\000\213\014s\322@\251/\222\301\350"
 960      9F282800 
 960      8B0C73D2 
 960      40A92F92 
 960      C1E8
ARM GAS  /tmp/cc0yVrlH.s 			page 77


 961 1110 43E4D9DD 		.ascii	"C\344\331\335O\254\220ejy\314\035p\357\013G\2524\265"
 961      4FAC9065 
 961      6A79CC1D 
 961      70EF0B47 
 961      AA34B5
 962 1123 02030C1C 		.ascii	"\002\003\014\034\013\021+&\316\214\004\324\362b\362"
 962      0B112B26 
 962      CE8C04D4 
 962      F262F2
 963 1132 87BBEC5E 		.ascii	"\207\273\354^\376\242\260$mjU \242y\340\251T\251\254"
 963      FEA2B024 
 963      6D6A5520 
 963      A279E0A9 
 963      54A9AC
 964 1145 8E2893B5 		.ascii	"\216(\223\265\2102\245\"B\215f1O\247\330\367'\011G\244"
 964      8832A522 
 964      428D6631 
 964      4FA7D8F7 
 964      270947A4 
 965 1159 0C2360ED 		.ascii	"\014#`\355\275\374e%e\245\305\345\232\206\363\011@\374"
 965      BDFC6525 
 965      65A5C5E5 
 965      9A86F309 
 965      40FC
 966 116b 659559E4 		.ascii	"e\225Y\344\006\\S\331\337\270\203\304\364M\254\2364"
 966      065C53D9 
 966      DFB883C4 
 966      F44DAC9E 
 966      34
 967 117c 49ABA22E 		.ascii	"I\253\242.-\017\371\301\010\234/}\311\363\344\362\320"
 967      2D0FF9C1 
 967      089C2F7D 
 967      C9F3E4F2 
 967      D0
 968 118d 44F66260 		.ascii	"D\366b`,\225\252\2534_\205\026\016\253\223\265\007\370"
 968      2C95AAAB 
 968      345F8516 
 968      0EAB93B5 
 968      07F8
 969 119f AC063AE1 		.ascii	"\254\006:\341Pu\225_\243\217\244NU(\204S\234F4\\\015"
 969      5075955F 
 969      A38FA44E 
 969      55288453 
 969      9C46345C 
 970 11b4 865226E1 		.ascii	"\206R&\341\210V\231\343/\207lgTF%\372\226\306\252\270"
 970      885699E3 
 970      2F876C67 
 970      544625FA 
 970      96C6AAB8 
 971 11c8 A470E408 		.ascii	"\244p\344\010\357\223O>\346-\031_8e8t\017\0258\026\201"
 971      EF934F3E 
 971      E62D195F 
 971      38653874 
 971      0F153816 
 972 11dd 0A80CD8E 		.ascii	"\012\200\315\216=\370\"JA\321p\220\021\236\342\302\202"
 972      3DF8224A 
 972      41D17090 
ARM GAS  /tmp/cc0yVrlH.s 			page 78


 972      119EE2C2 
 972      82
 973 11ee 22CF63E3 		.ascii	"\"\317c\343\037/\222\213\213\224\307\237(J+((,\032N"
 973      1F2F928B 
 973      8B94C79F 
 973      284A2B28 
 973      282C1A4E 
 974 1202 CE233C05 		.ascii	"\316#<\005\005\217\027)\005?/Q\236..P\036-*R\212\012"
 974      058F1729 
 974      053F2F51 
 974      9E2E2E50 
 974      1E2D2A52 
 975 1218 E0192A8C 		.ascii	"\340\031*\214}\254\244Hy\014\327,|\264H~\212\326\032"
 975      7DACA448 
 975      790CD72C 
 975      7CB4487E 
 975      8AD61A
 976 122b 09E52714 		.ascii	"\011\345'\024\015N\244\026\012\303\011\354\305W\034"
 976      0D4EA416 
 976      0AC309EC 
 976      C5571C
 977 123a 6F7C7D2A 		.ascii	"o|}*\374\204\026)\206\206\240U\224@\216O\310O\022\254"
 977      FC841629 
 977      8686A055 
 977      94408E4F 
 977      C84F12AC 
 978 124e 29D829FD 		.ascii	")\330)\375\375e\277(\261\326\031\356 i\313\374!\010"
 978      FD65BF28 
 978      B1D619EE 
 978      2069CBFC 
 978      2108
 979 1260 026E4655 		.ascii	"\002nFU\0002\000\377\221>\371 s\310\335CN}I\263\326"
 979      003200FF 
 979      913EF920 
 979      73C8DD43 
 979      4E7D49B3 
 980 1275 575E5E8A 		.ascii	"W^^\212\351\320;\202\342\017U\007#Z\325\000j\327\370"
 980      E9D03B82 
 980      E20F5507 
 980      235AD500 
 980      6AD7F8
 981 1288 3026F7CB 		.ascii	"0&\367\313@\004\272\306\011\036\254\241\037\246ny\235"
 981      4004BAC6 
 981      091EACA1 
 981      1FA66E79 
 981      9D
 982 1299 8D8B8225 		.ascii	"\215\213\202%O\206\374\317\016N\336k\340\016\303_\306"
 982      4F86FCCF 
 982      0E4EDE6B 
 982      E00EC35F 
 982      C6
 983 12aa CA7A1D5B 		.ascii	"\312z\035[<\345\237p\310\263\210\275\220\253\317\216"
 983      3CE59F70 
 983      C8B388BD 
 983      90ABCF8E 
 984 12ba B4ADA94D 		.ascii	"\264\255\251M\213x\013\012\213\307\027\307uV\204\003"
 984      8B780B0A 
ARM GAS  /tmp/cc0yVrlH.s 			page 79


 984      8BC717C7 
 984      75568403 
 985 12ca 611F8C05 		.ascii	"a\037\214\005P\273\267\017\372\270\210o\354\243\305"
 985      50BBB70F 
 985      FAB8886F 
 985      ECA3C5
 986 12d9 8F3F5D34 		.ascii	"\217?]4\276\267Z>U}>\014\315\033\367\241iS\324\362j"
 986      BEB75A3E 
 986      557D3E0C 
 986      CD1BF7A1 
 986      6953D4F2 
 987 12ee AD37B3E3 		.ascii	"\2557\263\343\231 \326\221Mx\262{\242\271\232\334\367"
 987      9920D691 
 987      4D78B27B 
 987      A2B99ADC 
 987      F7
 988 12ff C1A54A48 		.ascii	"\301\245JH\213#\355\354\377\000U ~\376"
 988      8B23EDEC 
 988      FF005520 
 988      7EFE
 989              		.text
 990              		.section	.gnu.lto_.symtab.ab82afd5db6bcaf6,"",%progbits
 991 0000 5F746573 		.ascii	"_test_fail\000\000\000\000\000\000\000\000\000\000\000"
 991      745F6661 
 991      696C0000 
 991      00000000 
 991      00000000 
 992 0015 00F40000 		.ascii	"\000\364\000\000\000test_global_fail\000\000\000\000"
 992      00746573 
 992      745F676C 
 992      6F62616C 
 992      5F666169 
 993 002e 00000000 		.ascii	"\000\000\000\000\000\000\000\000\207\001\000\000_te"
 993      00000000 
 993      87010000 
 993      5F7465
 994 003d 73745F61 		.ascii	"st_assert\000\000\000\000\000\000\000\000\000\000\000"
 994      73736572 
 994      74000000 
 994      00000000 
 994      00000000 
 995 0051 00FB0000 		.ascii	"\000\373\000\000\000_test_assert_sequence\000\000\000"
 995      005F7465 
 995      73745F61 
 995      73736572 
 995      745F7365 
 996 006e 00000000 		.ascii	"\000\000\000\000\000\000\000\000\000\004\001\000\000"
 996      00000000 
 996      00040100 
 996      00
 997 007b 5F746573 		.ascii	"_test_assert_time_window\000\000\000\000\000\000\000"
 997      745F6173 
 997      73657274 
 997      5F74696D 
 997      655F7769 
 998 009a 00000000 		.ascii	"\000\000\000\000\000\016\001\000\000test_printn\000"
 998      000E0100 
ARM GAS  /tmp/cc0yVrlH.s 			page 80


 998      00746573 
 998      745F7072 
 998      696E746E 
 999 00af 00000000 		.ascii	"\000\000\000\000\000\000\000\000\000\000\000#\001\000"
 999      00000000 
 999      00000023 
 999      0100
 1000 00bd 00746573 		.ascii	"\000test_print\000\000\000\000\000\000\000\000\000\000"
 1000      745F7072 
 1000      696E7400 
 1000      00000000 
 1000      00000000 
 1001 00d2 00002A01 		.ascii	"\000\000*\001\000\000test_println\000\000\000\000\000"
 1001      00007465 
 1001      73745F70 
 1001      72696E74 
 1001      6C6E0000 
 1002 00e9 00000000 		.ascii	"\000\000\000\000\000\000\0001\001\000\000test_emit_"
 1002      00000031 
 1002      01000074 
 1002      6573745F 
 1002      656D6974 
 1003 00fe 746F6B65 		.ascii	"token\000\000\000\000\000\000\000\000\000\000\000\000"
 1003      6E000000 
 1003      00000000 
 1003      00000000 
 1003      00
 1004 010f 35010000 		.ascii	"5\001\000\000test_emit_token_i\000\000\000\000\000\000"
 1004      74657374 
 1004      5F656D69 
 1004      745F746F 
 1004      6B656E5F 
 1005 012a 00000000 		.ascii	"\000\000\000\000\000\000<\001\000\000test_execute\000"
 1005      00003C01 
 1005      00007465 
 1005      73745F65 
 1005      78656375 
 1006 0141 00000000 		.ascii	"\000\000\000\000\000\000\000\000\000\000\000@\001\000"
 1006      00000000 
 1006      00000040 
 1006      0100
 1007 014f 00746573 		.ascii	"\000test_step\000\000\000\000\000\000\000\000\000\000"
 1007      745F7374 
 1007      65700000 
 1007      00000000 
 1007      00000000 
 1008 0163 00009001 		.ascii	"\000\000\220\001\000\000test_suite\000\000\002\000\000"
 1008      00007465 
 1008      73745F73 
 1008      75697465 
 1008      00000200 
 1009 0178 00000000 		.ascii	"\000\000\000\000\000\000\000\213\001\000\000chThdSl"
 1009      0000008B 
 1009      01000063 
 1009      68546864 
 1009      536C
 1010 018a 65657000 		.ascii	"eep\000\000\002\000\000\000\000\000\000\000\000\000"
ARM GAS  /tmp/cc0yVrlH.s 			page 81


 1010      00020000 
 1010      00000000 
 1010      000000
 1011 0199 79010000 		.ascii	"y\001\000\000"
 1012              		.text
 1013              		.section	.gnu.lto_.opts,"",%progbits
 1014 0000 272D6D63 		.ascii	"'-mcpu=cortex-m4' '-mno-thumb-interwork' '-mthumb' "
 1014      70753D63 
 1014      6F727465 
 1014      782D6D34 
 1014      2720272D 
 1015 0033 272D6767 		.ascii	"'-ggdb' '-O2' '-fomit-frame-pointer' '-falign-funct"
 1015      64622720 
 1015      272D4F32 
 1015      2720272D 
 1015      666F6D69 
 1016 0066 696F6E73 		.ascii	"ions=16' '-ffunction-sections' '-fdata-sections' '-"
 1016      3D313627 
 1016      20272D66 
 1016      66756E63 
 1016      74696F6E 
 1017 0099 666E6F2D 		.ascii	"fno-common' '-flto'\000"
 1017      636F6D6D 
 1017      6F6E2720 
 1017      272D666C 
 1017      746F2700 
 1018              		.text
 1019              		.cfi_sections	.debug_frame
 1020              		.section	.text.print_line,"ax",%progbits
 1021              		.align	2
 1022              		.p2align 4,,15
 1023              		.thumb
 1024              		.thumb_func
 1025              		.type	print_line, %function
 1026              	print_line:
 1027              	.LFB273:
 1028              		.file 1 "../ChibiOS/test/lib/ch_test.c"
 1029              		.loc 1 90 0
 1030              		.cfi_startproc
 1031              		@ args = 0, pretend = 0, frame = 0
 1032              		@ frame_needed = 0, uses_anonymous_args = 0
 1033              	.LVL0:
 1034 0000 70B5     		push	{r4, r5, r6, lr}
 1035              		.cfi_def_cfa_offset 16
 1036              		.cfi_offset 4, -16
 1037              		.cfi_offset 5, -12
 1038              		.cfi_offset 6, -8
 1039              		.cfi_offset 14, -4
 1040 0002 084E     		ldr	r6, .L5
 1041              		.loc 1 90 0
 1042 0004 4C24     		movs	r4, #76
 1043              	.LVL1:
 1044              	.L3:
 1045              		.loc 1 94 0 discriminator 2
 1046 0006 3068     		ldr	r0, [r6]
 1047 0008 064D     		ldr	r5, .L5
 1048 000a 0368     		ldr	r3, [r0]
ARM GAS  /tmp/cc0yVrlH.s 			page 82


 1049 000c 2D21     		movs	r1, #45
 1050 000e 9B68     		ldr	r3, [r3, #8]
 1051 0010 9847     		blx	r3
 1052              	.LVL2:
 1053              		.loc 1 93 0 discriminator 2
 1054 0012 013C     		subs	r4, r4, #1
 1055              	.LVL3:
 1056 0014 F7D1     		bne	.L3
 1057              		.loc 1 95 0
 1058 0016 2868     		ldr	r0, [r5]
 1059 0018 0349     		ldr	r1, .L5+4
 1060 001a 0368     		ldr	r3, [r0]
 1061 001c 0222     		movs	r2, #2
 1062 001e 1B68     		ldr	r3, [r3]
 1063 0020 9847     		blx	r3
 1064              	.LVL4:
 1065 0022 70BD     		pop	{r4, r5, r6, pc}
 1066              	.LVL5:
 1067              	.L6:
 1068              		.align	2
 1069              	.L5:
 1070 0024 00000000 		.word	.LANCHOR0
 1071 0028 00000000 		.word	.LC0
 1072              		.cfi_endproc
 1073              	.LFE273:
 1074              		.size	print_line, .-print_line
 1075 002c AFF30080 		.section	.text._test_fail,"ax",%progbits
 1076              		.align	2
 1077              		.p2align 4,,15
 1078              		.global	_test_fail
 1079              		.thumb
 1080              		.thumb_func
 1081              		.type	_test_fail, %function
 1082              	_test_fail:
 1083              	.LFB274:
 1084              		.loc 1 102 0
 1085              		.cfi_startproc
 1086              		@ args = 0, pretend = 0, frame = 0
 1087              		@ frame_needed = 0, uses_anonymous_args = 0
 1088              		@ link register save eliminated.
 1089              	.LVL6:
 1090              		.loc 1 106 0
 1091 0000 0349     		ldr	r1, .L8
 1092              		.loc 1 104 0
 1093 0002 044A     		ldr	r2, .L8+4
 1094              		.loc 1 105 0
 1095 0004 044B     		ldr	r3, .L8+8
 1096              		.loc 1 106 0
 1097 0006 0860     		str	r0, [r1]
 1098              		.loc 1 104 0
 1099 0008 0120     		movs	r0, #1
 1100              	.LVL7:
 1101 000a 1070     		strb	r0, [r2]
 1102              		.loc 1 105 0
 1103 000c 1870     		strb	r0, [r3]
 1104              		.loc 1 108 0
 1105 000e 7047     		bx	lr
ARM GAS  /tmp/cc0yVrlH.s 			page 83


 1106              	.L9:
 1107              		.align	2
 1108              	.L8:
 1109 0010 00000000 		.word	.LANCHOR3
 1110 0014 00000000 		.word	.LANCHOR1
 1111 0018 00000000 		.word	.LANCHOR2
 1112              		.cfi_endproc
 1113              	.LFE274:
 1114              		.size	_test_fail, .-_test_fail
 1115 001c AFF30080 		.section	.text._test_assert,"ax",%progbits
 1116              		.align	2
 1117              		.p2align 4,,15
 1118              		.global	_test_assert
 1119              		.thumb
 1120              		.thumb_func
 1121              		.type	_test_assert, %function
 1122              	_test_assert:
 1123              	.LFB275:
 1124              		.loc 1 110 0
 1125              		.cfi_startproc
 1126              		@ args = 0, pretend = 0, frame = 0
 1127              		@ frame_needed = 0, uses_anonymous_args = 0
 1128              		@ link register save eliminated.
 1129              	.LVL8:
 1130 0000 10B4     		push	{r4}
 1131              		.cfi_def_cfa_offset 4
 1132              		.cfi_offset 4, -4
 1133              		.loc 1 112 0
 1134 0002 48B9     		cbnz	r0, .L12
 1135              	.LVL9:
 1136              	.LBB102:
 1137              	.LBB103:
 1138              		.loc 1 104 0
 1139 0004 064C     		ldr	r4, .L13
 1140              		.loc 1 105 0
 1141 0006 074A     		ldr	r2, .L13+4
 1142              		.loc 1 106 0
 1143 0008 074B     		ldr	r3, .L13+8
 1144              		.loc 1 104 0
 1145 000a 0120     		movs	r0, #1
 1146              	.LVL10:
 1147 000c 2070     		strb	r0, [r4]
 1148              		.loc 1 105 0
 1149 000e 1070     		strb	r0, [r2]
 1150              		.loc 1 106 0
 1151 0010 1960     		str	r1, [r3]
 1152              	.LBE103:
 1153              	.LBE102:
 1154              		.loc 1 115 0
 1155 0012 5DF8044B 		ldr	r4, [sp], #4
 1156 0016 7047     		bx	lr
 1157              	.LVL11:
 1158              	.L12:
 1159              		.loc 1 114 0
 1160 0018 0020     		movs	r0, #0
 1161              	.LVL12:
 1162              		.loc 1 115 0
ARM GAS  /tmp/cc0yVrlH.s 			page 84


 1163 001a 5DF8044B 		ldr	r4, [sp], #4
 1164 001e 7047     		bx	lr
 1165              	.L14:
 1166              		.align	2
 1167              	.L13:
 1168 0020 00000000 		.word	.LANCHOR1
 1169 0024 00000000 		.word	.LANCHOR2
 1170 0028 00000000 		.word	.LANCHOR3
 1171              		.cfi_endproc
 1172              	.LFE275:
 1173              		.size	_test_assert, .-_test_assert
 1174 002c AFF30080 		.section	.text._test_assert_sequence,"ax",%progbits
 1175              		.align	2
 1176              		.p2align 4,,15
 1177              		.global	_test_assert_sequence
 1178              		.thumb
 1179              		.thumb_func
 1180              		.type	_test_assert_sequence, %function
 1181              	_test_assert_sequence:
 1182              	.LFB276:
 1183              		.loc 1 117 0
 1184              		.cfi_startproc
 1185              		@ args = 0, pretend = 0, frame = 0
 1186              		@ frame_needed = 0, uses_anonymous_args = 0
 1187              		@ link register save eliminated.
 1188              	.LVL13:
 1189 0000 F0B4     		push	{r4, r5, r6, r7}
 1190              		.cfi_def_cfa_offset 16
 1191              		.cfi_offset 4, -16
 1192              		.cfi_offset 5, -12
 1193              		.cfi_offset 6, -8
 1194              		.cfi_offset 7, -4
 1195 0002 0D4E     		ldr	r6, .L21
 1196              		.loc 1 118 0
 1197 0004 0D4F     		ldr	r7, .L21+4
 1198 0006 3568     		ldr	r5, [r6]
 1199 0008 3B46     		mov	r3, r7
 1200              		.loc 1 120 0
 1201 000a 05E0     		b	.L16
 1202              	.LVL14:
 1203              	.L19:
 1204              		.loc 1 121 0
 1205 000c 13F8014B 		ldrb	r4, [r3], #1	@ zero_extendqisi2
 1206              	.LVL15:
 1207 0010 10F8012B 		ldrb	r2, [r0], #1	@ zero_extendqisi2
 1208              	.LVL16:
 1209 0014 9442     		cmp	r4, r2
 1210 0016 06D1     		bne	.L20
 1211              	.LVL17:
 1212              	.L16:
 1213              		.loc 1 120 0 discriminator 1
 1214 0018 AB42     		cmp	r3, r5
 1215 001a F7D3     		bcc	.L19
 1216              		.loc 1 125 0
 1217 001c 0078     		ldrb	r0, [r0]	@ zero_extendqisi2
 1218              	.LVL18:
 1219 001e 10B9     		cbnz	r0, .L20
ARM GAS  /tmp/cc0yVrlH.s 			page 85


 1220              	.LBB104:
 1221              	.LBB105:
 1222              		.loc 1 67 0
 1223 0020 3760     		str	r7, [r6]
 1224              	.LBE105:
 1225              	.LBE104:
 1226              		.loc 1 131 0
 1227 0022 F0BC     		pop	{r4, r5, r6, r7}
 1228 0024 7047     		bx	lr
 1229              	.LVL19:
 1230              	.L20:
 1231              	.LBB106:
 1232              	.LBB107:
 1233              		.loc 1 104 0
 1234 0026 064C     		ldr	r4, .L21+8
 1235              		.loc 1 105 0
 1236 0028 064A     		ldr	r2, .L21+12
 1237              		.loc 1 106 0
 1238 002a 074B     		ldr	r3, .L21+16
 1239              		.loc 1 104 0
 1240 002c 0120     		movs	r0, #1
 1241 002e 2070     		strb	r0, [r4]
 1242              		.loc 1 105 0
 1243 0030 1070     		strb	r0, [r2]
 1244              		.loc 1 106 0
 1245 0032 1960     		str	r1, [r3]
 1246              	.LBE107:
 1247              	.LBE106:
 1248              		.loc 1 131 0
 1249 0034 F0BC     		pop	{r4, r5, r6, r7}
 1250 0036 7047     		bx	lr
 1251              	.L22:
 1252              		.align	2
 1253              	.L21:
 1254 0038 00000000 		.word	.LANCHOR5
 1255 003c 00000000 		.word	.LANCHOR4
 1256 0040 00000000 		.word	.LANCHOR1
 1257 0044 00000000 		.word	.LANCHOR2
 1258 0048 00000000 		.word	.LANCHOR3
 1259              		.cfi_endproc
 1260              	.LFE276:
 1261              		.size	_test_assert_sequence, .-_test_assert_sequence
 1262 004c AFF30080 		.section	.text._test_assert_time_window,"ax",%progbits
 1263              		.align	2
 1264              		.p2align 4,,15
 1265              		.global	_test_assert_time_window
 1266              		.thumb
 1267              		.thumb_func
 1268              		.type	_test_assert_time_window, %function
 1269              	_test_assert_time_window:
 1270              	.LFB277:
 1271              		.loc 1 135 0
 1272              		.cfi_startproc
 1273              		@ args = 0, pretend = 0, frame = 0
 1274              		@ frame_needed = 0, uses_anonymous_args = 0
 1275              		@ link register save eliminated.
 1276              	.LVL20:
ARM GAS  /tmp/cc0yVrlH.s 			page 86


 1277              	.LBB108:
 1278              	.LBB109:
 1279              	.LBB110:
 1280              	.LBB111:
 1281              	.LBB112:
 1282              		.file 2 "../ChibiOS/os/hal/ports/STM32/LLD/TIMv1/hal_st_lld.h"
 1283              		.loc 2 141 0
 1284 0000 4FF08043 		mov	r3, #1073741824
 1285              	.LBE112:
 1286              	.LBE111:
 1287              	.LBE110:
 1288              	.LBE109:
 1289              	.LBE108:
 1290              	.LBB117:
 1291              	.LBB118:
 1292              	.LBB119:
 1293              		.file 3 "../ChibiOS/os/rt/include/chvt.h"
 1294              		.loc 3 288 0
 1295 0004 091A     		subs	r1, r1, r0
 1296              	.LVL21:
 1297              	.LBE119:
 1298              	.LBE118:
 1299              	.LBE117:
 1300              	.LBB122:
 1301              	.LBB116:
 1302              	.LBB115:
 1303              	.LBB114:
 1304              	.LBB113:
 1305              		.loc 2 141 0
 1306 0006 5B6A     		ldr	r3, [r3, #36]
 1307              	.LVL22:
 1308              	.LBE113:
 1309              	.LBE114:
 1310              	.LBE115:
 1311              	.LBE116:
 1312              	.LBE122:
 1313              	.LBB123:
 1314              	.LBB121:
 1315              	.LBB120:
 1316              		.loc 3 288 0
 1317 0008 181A     		subs	r0, r3, r0
 1318              	.LVL23:
 1319              	.LBE120:
 1320              	.LBE121:
 1321              	.LBE123:
 1322              	.LBB124:
 1323              	.LBB125:
 1324              		.loc 1 112 0
 1325 000a 8842     		cmp	r0, r1
 1326              	.LBE125:
 1327              	.LBE124:
 1328              		.loc 1 135 0
 1329 000c 10B4     		push	{r4}
 1330              		.cfi_def_cfa_offset 4
 1331              		.cfi_offset 4, -4
 1332              	.LBB130:
 1333              	.LBB128:
ARM GAS  /tmp/cc0yVrlH.s 			page 87


 1334              		.loc 1 112 0
 1335 000e 09D3     		bcc	.L25
 1336              	.LVL24:
 1337              	.LBB126:
 1338              	.LBB127:
 1339              		.loc 1 104 0
 1340 0010 064C     		ldr	r4, .L26
 1341              		.loc 1 105 0
 1342 0012 0749     		ldr	r1, .L26+4
 1343              		.loc 1 106 0
 1344 0014 074B     		ldr	r3, .L26+8
 1345              	.LVL25:
 1346              		.loc 1 104 0
 1347 0016 0120     		movs	r0, #1
 1348 0018 2070     		strb	r0, [r4]
 1349              		.loc 1 105 0
 1350 001a 0870     		strb	r0, [r1]
 1351              		.loc 1 106 0
 1352 001c 1A60     		str	r2, [r3]
 1353              	.LBE127:
 1354              	.LBE126:
 1355              	.LBE128:
 1356              	.LBE130:
 1357              		.loc 1 139 0
 1358 001e 5DF8044B 		ldr	r4, [sp], #4
 1359 0022 7047     		bx	lr
 1360              	.LVL26:
 1361              	.L25:
 1362              	.LBB131:
 1363              	.LBB129:
 1364              		.loc 1 114 0
 1365 0024 0020     		movs	r0, #0
 1366              	.LBE129:
 1367              	.LBE131:
 1368              		.loc 1 139 0
 1369 0026 5DF8044B 		ldr	r4, [sp], #4
 1370 002a 7047     		bx	lr
 1371              	.L27:
 1372              		.align	2
 1373              	.L26:
 1374 002c 00000000 		.word	.LANCHOR1
 1375 0030 00000000 		.word	.LANCHOR2
 1376 0034 00000000 		.word	.LANCHOR3
 1377              		.cfi_endproc
 1378              	.LFE277:
 1379              		.size	_test_assert_time_window, .-_test_assert_time_window
 1380 0038 AFF30080 		.section	.text.test_printn,"ax",%progbits
 1380      AFF30080 
 1381              		.align	2
 1382              		.p2align 4,,15
 1383              		.global	test_printn
 1384              		.thumb
 1385              		.thumb_func
 1386              		.type	test_printn, %function
 1387              	test_printn:
 1388              	.LFB278:
 1389              		.loc 1 148 0
ARM GAS  /tmp/cc0yVrlH.s 			page 88


 1390              		.cfi_startproc
 1391              		@ args = 0, pretend = 0, frame = 16
 1392              		@ frame_needed = 0, uses_anonymous_args = 0
 1393              	.LVL27:
 1394 0000 70B5     		push	{r4, r5, r6, lr}
 1395              		.cfi_def_cfa_offset 16
 1396              		.cfi_offset 4, -16
 1397              		.cfi_offset 5, -12
 1398              		.cfi_offset 6, -8
 1399              		.cfi_offset 14, -4
 1400 0002 84B0     		sub	sp, sp, #16
 1401              		.cfi_def_cfa_offset 32
 1402              		.loc 1 151 0
 1403 0004 18B3     		cbz	r0, .L36
 1404 0006 0DF10105 		add	r5, sp, #1
 1405              		.loc 1 156 0
 1406 000a 154E     		ldr	r6, .L38
 1407 000c 2B46     		mov	r3, r5
 1408              	.LVL28:
 1409              	.L32:
 1410 000e A6FB0012 		umull	r1, r2, r6, r0
 1411 0012 D208     		lsrs	r2, r2, #3
 1412 0014 02EB8201 		add	r1, r2, r2, lsl #2
 1413 0018 A0EB4101 		sub	r1, r0, r1, lsl #1
 1414 001c 3031     		adds	r1, r1, #48
 1415 001e C9B2     		uxtb	r1, r1
 1416 0020 03F8011C 		strb	r1, [r3, #-1]
 1417 0024 1C46     		mov	r4, r3
 1418              	.LVL29:
 1419              		.loc 1 155 0
 1420 0026 1046     		mov	r0, r2
 1421 0028 0133     		adds	r3, r3, #1
 1422              	.LVL30:
 1423 002a 002A     		cmp	r2, #0
 1424 002c EFD1     		bne	.L32
 1425              		.loc 1 157 0 discriminator 1
 1426 002e 6B46     		mov	r3, sp
 1427 0030 9C42     		cmp	r4, r3
 1428 0032 0AD9     		bls	.L28
 1429 0034 0B4E     		ldr	r6, .L38+4
 1430 0036 02E0     		b	.L35
 1431              	.LVL31:
 1432              	.L37:
 1433 0038 14F8021C 		ldrb	r1, [r4, #-2]	@ zero_extendqisi2
 1434 003c 013C     		subs	r4, r4, #1
 1435              	.LVL32:
 1436              	.L35:
 1437              		.loc 1 158 0
 1438 003e 3068     		ldr	r0, [r6]
 1439              	.LVL33:
 1440 0040 0368     		ldr	r3, [r0]
 1441 0042 9B68     		ldr	r3, [r3, #8]
 1442 0044 9847     		blx	r3
 1443              	.LVL34:
 1444              		.loc 1 157 0
 1445 0046 AC42     		cmp	r4, r5
 1446 0048 F6D1     		bne	.L37
ARM GAS  /tmp/cc0yVrlH.s 			page 89


 1447              	.LVL35:
 1448              	.L28:
 1449              		.loc 1 160 0
 1450 004a 04B0     		add	sp, sp, #16
 1451              		@ sp needed
 1452 004c 70BD     		pop	{r4, r5, r6, pc}
 1453              	.LVL36:
 1454              	.L36:
 1455              	.LBB134:
 1456              	.LBB135:
 1457              		.loc 1 152 0
 1458 004e 054B     		ldr	r3, .L38+4
 1459 0050 1868     		ldr	r0, [r3]
 1460              	.LVL37:
 1461 0052 0368     		ldr	r3, [r0]
 1462 0054 3021     		movs	r1, #48
 1463 0056 9B68     		ldr	r3, [r3, #8]
 1464 0058 9847     		blx	r3
 1465              	.LVL38:
 1466              	.LBE135:
 1467              	.LBE134:
 1468              		.loc 1 160 0
 1469 005a 04B0     		add	sp, sp, #16
 1470              		@ sp needed
 1471 005c 70BD     		pop	{r4, r5, r6, pc}
 1472              	.L39:
 1473 005e 00BF     		.align	2
 1474              	.L38:
 1475 0060 CDCCCCCC 		.word	-858993459
 1476 0064 00000000 		.word	.LANCHOR0
 1477              		.cfi_endproc
 1478              	.LFE278:
 1479              		.size	test_printn, .-test_printn
 1480 0068 AFF30080 		.section	.text.test_print,"ax",%progbits
 1480      AFF30080 
 1481              		.align	2
 1482              		.p2align 4,,15
 1483              		.global	test_print
 1484              		.thumb
 1485              		.thumb_func
 1486              		.type	test_print, %function
 1487              	test_print:
 1488              	.LFB279:
 1489              		.loc 1 169 0
 1490              		.cfi_startproc
 1491              		@ args = 0, pretend = 0, frame = 0
 1492              		@ frame_needed = 0, uses_anonymous_args = 0
 1493              	.LVL39:
 1494 0000 38B5     		push	{r3, r4, r5, lr}
 1495              		.cfi_def_cfa_offset 16
 1496              		.cfi_offset 3, -16
 1497              		.cfi_offset 4, -12
 1498              		.cfi_offset 5, -8
 1499              		.cfi_offset 14, -4
 1500              		.loc 1 171 0
 1501 0002 0178     		ldrb	r1, [r0]	@ zero_extendqisi2
 1502 0004 49B1     		cbz	r1, .L40
ARM GAS  /tmp/cc0yVrlH.s 			page 90


 1503 0006 054D     		ldr	r5, .L47
 1504 0008 0446     		mov	r4, r0
 1505              	.LVL40:
 1506              	.L43:
 1507              		.loc 1 172 0
 1508 000a 2868     		ldr	r0, [r5]
 1509              	.LVL41:
 1510 000c 0368     		ldr	r3, [r0]
 1511 000e 9B68     		ldr	r3, [r3, #8]
 1512 0010 9847     		blx	r3
 1513              	.LVL42:
 1514              		.loc 1 171 0
 1515 0012 14F8011F 		ldrb	r1, [r4, #1]!	@ zero_extendqisi2
 1516              	.LVL43:
 1517 0016 0029     		cmp	r1, #0
 1518 0018 F7D1     		bne	.L43
 1519              	.LVL44:
 1520              	.L40:
 1521 001a 38BD     		pop	{r3, r4, r5, pc}
 1522              	.L48:
 1523              		.align	2
 1524              	.L47:
 1525 001c 00000000 		.word	.LANCHOR0
 1526              		.cfi_endproc
 1527              	.LFE279:
 1528              		.size	test_print, .-test_print
 1529              		.section	.text.test_println,"ax",%progbits
 1530              		.align	2
 1531              		.p2align 4,,15
 1532              		.global	test_println
 1533              		.thumb
 1534              		.thumb_func
 1535              		.type	test_println, %function
 1536              	test_println:
 1537              	.LFB280:
 1538              		.loc 1 182 0
 1539              		.cfi_startproc
 1540              		@ args = 0, pretend = 0, frame = 0
 1541              		@ frame_needed = 0, uses_anonymous_args = 0
 1542              	.LVL45:
 1543 0000 38B5     		push	{r3, r4, r5, lr}
 1544              		.cfi_def_cfa_offset 16
 1545              		.cfi_offset 3, -16
 1546              		.cfi_offset 4, -12
 1547              		.cfi_offset 5, -8
 1548              		.cfi_offset 14, -4
 1549              	.LBB136:
 1550              	.LBB137:
 1551              		.loc 1 171 0
 1552 0002 0178     		ldrb	r1, [r0]	@ zero_extendqisi2
 1553 0004 084D     		ldr	r5, .L57
 1554 0006 0446     		mov	r4, r0
 1555 0008 39B1     		cbz	r1, .L51
 1556              	.LVL46:
 1557              	.L52:
 1558              		.loc 1 172 0
 1559 000a 2868     		ldr	r0, [r5]
ARM GAS  /tmp/cc0yVrlH.s 			page 91


 1560              	.LVL47:
 1561 000c 0368     		ldr	r3, [r0]
 1562 000e 9B68     		ldr	r3, [r3, #8]
 1563 0010 9847     		blx	r3
 1564              	.LVL48:
 1565              		.loc 1 171 0
 1566 0012 14F8011F 		ldrb	r1, [r4, #1]!	@ zero_extendqisi2
 1567              	.LVL49:
 1568 0016 0029     		cmp	r1, #0
 1569 0018 F7D1     		bne	.L52
 1570              	.LVL50:
 1571              	.L51:
 1572              	.LBE137:
 1573              	.LBE136:
 1574              		.loc 1 185 0
 1575 001a 2868     		ldr	r0, [r5]
 1576 001c 0349     		ldr	r1, .L57+4
 1577 001e 0368     		ldr	r3, [r0]
 1578 0020 0222     		movs	r2, #2
 1579 0022 1B68     		ldr	r3, [r3]
 1580 0024 9847     		blx	r3
 1581              	.LVL51:
 1582 0026 38BD     		pop	{r3, r4, r5, pc}
 1583              	.L58:
 1584              		.align	2
 1585              	.L57:
 1586 0028 00000000 		.word	.LANCHOR0
 1587 002c 00000000 		.word	.LC0
 1588              		.cfi_endproc
 1589              	.LFE280:
 1590              		.size	test_println, .-test_println
 1591              		.section	.text.test_emit_token,"ax",%progbits
 1592              		.align	2
 1593              		.p2align 4,,15
 1594              		.global	test_emit_token
 1595              		.thumb
 1596              		.thumb_func
 1597              		.type	test_emit_token, %function
 1598              	test_emit_token:
 1599              	.LFB281:
 1600              		.loc 1 195 0
 1601              		.cfi_startproc
 1602              		@ args = 0, pretend = 0, frame = 0
 1603              		@ frame_needed = 0, uses_anonymous_args = 0
 1604              		@ link register save eliminated.
 1605              	.LVL52:
 1606              	.LBB138:
 1607              	.LBB139:
 1608              	.LBB140:
 1609              	.LBB141:
 1610              	.LBB142:
 1611              		.file 4 "../ChibiOS/os/common/ext/CMSIS/include/cmsis_gcc.h"
 1612              		.loc 4 264 0
 1613 0000 2023     		movs	r3, #32
 1614              	@ 264 "../ChibiOS/os/common/ext/CMSIS/include/cmsis_gcc.h" 1
 1615 0002 83F31188 		MSR basepri, r3
 1616              	@ 0 "" 2
ARM GAS  /tmp/cc0yVrlH.s 			page 92


 1617              		.thumb
 1618              	.LBE142:
 1619              	.LBE141:
 1620              	.LBE140:
 1621              	.LBE139:
 1622              	.LBE138:
 1623              		.loc 1 198 0
 1624 0006 064A     		ldr	r2, .L61
 1625 0008 0649     		ldr	r1, .L61+4
 1626 000a 1368     		ldr	r3, [r2]
 1627 000c 8B42     		cmp	r3, r1
 1628 000e 02D2     		bcs	.L60
 1629              		.loc 1 199 0
 1630 0010 591C     		adds	r1, r3, #1
 1631 0012 1870     		strb	r0, [r3]
 1632 0014 1160     		str	r1, [r2]
 1633              	.L60:
 1634              	.LVL53:
 1635              	.LBB143:
 1636              	.LBB144:
 1637              	.LBB145:
 1638              	.LBB146:
 1639              	.LBB147:
 1640              	.LBB148:
 1641              		.loc 4 264 0
 1642 0016 0023     		movs	r3, #0
 1643              	@ 264 "../ChibiOS/os/common/ext/CMSIS/include/cmsis_gcc.h" 1
 1644 0018 83F31188 		MSR basepri, r3
 1645              	@ 0 "" 2
 1646              		.thumb
 1647 001c 7047     		bx	lr
 1648              	.L62:
 1649 001e 00BF     		.align	2
 1650              	.L61:
 1651 0020 00000000 		.word	.LANCHOR5
 1652 0024 10000000 		.word	.LANCHOR4+16
 1653              	.LBE148:
 1654              	.LBE147:
 1655              	.LBE146:
 1656              	.LBE145:
 1657              	.LBE144:
 1658              	.LBE143:
 1659              		.cfi_endproc
 1660              	.LFE281:
 1661              		.size	test_emit_token, .-test_emit_token
 1662 0028 AFF30080 		.section	.text.test_emit_token_i,"ax",%progbits
 1662      AFF30080 
 1663              		.align	2
 1664              		.p2align 4,,15
 1665              		.global	test_emit_token_i
 1666              		.thumb
 1667              		.thumb_func
 1668              		.type	test_emit_token_i, %function
 1669              	test_emit_token_i:
 1670              	.LFB282:
 1671              		.loc 1 210 0
 1672              		.cfi_startproc
ARM GAS  /tmp/cc0yVrlH.s 			page 93


 1673              		@ args = 0, pretend = 0, frame = 0
 1674              		@ frame_needed = 0, uses_anonymous_args = 0
 1675              		@ link register save eliminated.
 1676              	.LVL54:
 1677              		.loc 1 212 0
 1678 0000 044A     		ldr	r2, .L65
 1679 0002 0549     		ldr	r1, .L65+4
 1680 0004 1368     		ldr	r3, [r2]
 1681 0006 8B42     		cmp	r3, r1
 1682 0008 02D2     		bcs	.L63
 1683              		.loc 1 213 0
 1684 000a 591C     		adds	r1, r3, #1
 1685 000c 1870     		strb	r0, [r3]
 1686 000e 1160     		str	r1, [r2]
 1687              	.L63:
 1688 0010 7047     		bx	lr
 1689              	.L66:
 1690 0012 00BF     		.align	2
 1691              	.L65:
 1692 0014 00000000 		.word	.LANCHOR5
 1693 0018 10000000 		.word	.LANCHOR4+16
 1694              		.cfi_endproc
 1695              	.LFE282:
 1696              		.size	test_emit_token_i, .-test_emit_token_i
 1697 001c AFF30080 		.section	.text.test_execute,"ax",%progbits
 1698              		.align	2
 1699              		.p2align 4,,15
 1700              		.global	test_execute
 1701              		.thumb
 1702              		.thumb_func
 1703              		.type	test_execute, %function
 1704              	test_execute:
 1705              	.LFB283:
 1706              		.loc 1 227 0
 1707              		.cfi_startproc
 1708              		@ args = 0, pretend = 0, frame = 8
 1709              		@ frame_needed = 0, uses_anonymous_args = 0
 1710              	.LVL55:
 1711 0000 2DE9F04F 		push	{r4, r5, r6, r7, r8, r9, r10, fp, lr}
 1712              		.cfi_def_cfa_offset 36
 1713              		.cfi_offset 4, -36
 1714              		.cfi_offset 5, -32
 1715              		.cfi_offset 6, -28
 1716              		.cfi_offset 7, -24
 1717              		.cfi_offset 8, -20
 1718              		.cfi_offset 9, -16
 1719              		.cfi_offset 10, -12
 1720              		.cfi_offset 11, -8
 1721              		.cfi_offset 14, -4
 1722              		.loc 1 230 0
 1723 0004 8D4C     		ldr	r4, .L126
 1724 0006 8E4D     		ldr	r5, .L126+4
 1725 0008 2060     		str	r0, [r4]
 1726              		.loc 1 227 0
 1727 000a 83B0     		sub	sp, sp, #12
 1728              		.cfi_def_cfa_offset 48
 1729              		.loc 1 231 0
ARM GAS  /tmp/cc0yVrlH.s 			page 94


 1730 000c 8D48     		ldr	r0, .L126+8
 1731              	.LVL56:
 1732 000e FFF7FEFF 		bl	test_println
 1733              	.LVL57:
 1734              		.loc 1 233 0
 1735 0012 8D48     		ldr	r0, .L126+12
 1736 0014 FFF7FEFF 		bl	test_println
 1737              	.LVL58:
 1738              		.loc 1 237 0
 1739 0018 8C48     		ldr	r0, .L126+16
 1740 001a FFF7FEFF 		bl	test_println
 1741              	.LVL59:
 1742              	.LBB181:
 1743              	.LBB182:
 1744              		.loc 1 171 0
 1745 001e 2A21     		movs	r1, #42
 1746              	.LVL60:
 1747              	.L69:
 1748              		.loc 1 172 0
 1749 0020 2068     		ldr	r0, [r4]
 1750              	.LVL61:
 1751 0022 0368     		ldr	r3, [r0]
 1752 0024 9B68     		ldr	r3, [r3, #8]
 1753 0026 9847     		blx	r3
 1754              	.LVL62:
 1755              		.loc 1 171 0
 1756 0028 15F8011F 		ldrb	r1, [r5, #1]!	@ zero_extendqisi2
 1757              	.LVL63:
 1758 002c 0029     		cmp	r1, #0
 1759 002e F7D1     		bne	.L69
 1760              	.LBE182:
 1761              	.LBE181:
 1762              		.loc 1 239 0
 1763 0030 8748     		ldr	r0, .L126+20
 1764 0032 884D     		ldr	r5, .L126+24
 1765              	.LVL64:
 1766 0034 FFF7FEFF 		bl	test_println
 1767              	.LVL65:
 1768              	.LBB183:
 1769              	.LBB184:
 1770              		.loc 1 171 0
 1771 0038 2A21     		movs	r1, #42
 1772              	.LVL66:
 1773              	.L102:
 1774              		.loc 1 172 0
 1775 003a 2068     		ldr	r0, [r4]
 1776              	.LVL67:
 1777 003c 0368     		ldr	r3, [r0]
 1778 003e 9B68     		ldr	r3, [r3, #8]
 1779 0040 9847     		blx	r3
 1780              	.LVL68:
 1781              		.loc 1 171 0
 1782 0042 15F8011F 		ldrb	r1, [r5, #1]!	@ zero_extendqisi2
 1783              	.LVL69:
 1784 0046 0029     		cmp	r1, #0
 1785 0048 F7D1     		bne	.L102
 1786              	.LBE184:
ARM GAS  /tmp/cc0yVrlH.s 			page 95


 1787              	.LBE183:
 1788              		.loc 1 242 0
 1789 004a 8348     		ldr	r0, .L126+28
 1790 004c 834D     		ldr	r5, .L126+32
 1791              	.LVL70:
 1792 004e FFF7FEFF 		bl	test_println
 1793              	.LVL71:
 1794              	.LBB185:
 1795              	.LBB186:
 1796              		.loc 1 171 0
 1797 0052 2A21     		movs	r1, #42
 1798              	.LVL72:
 1799              	.L103:
 1800              		.loc 1 172 0
 1801 0054 2068     		ldr	r0, [r4]
 1802              	.LVL73:
 1803 0056 0368     		ldr	r3, [r0]
 1804 0058 9B68     		ldr	r3, [r3, #8]
 1805 005a 9847     		blx	r3
 1806              	.LVL74:
 1807              		.loc 1 171 0
 1808 005c 15F8011F 		ldrb	r1, [r5, #1]!	@ zero_extendqisi2
 1809              	.LVL75:
 1810 0060 0029     		cmp	r1, #0
 1811 0062 F7D1     		bne	.L103
 1812              	.LBE186:
 1813              	.LBE185:
 1814              		.loc 1 246 0
 1815 0064 7E48     		ldr	r0, .L126+36
 1816              		.loc 1 255 0
 1817 0066 7F4F     		ldr	r7, .L126+40
 1818              		.loc 1 246 0
 1819 0068 0091     		str	r1, [sp]
 1820 006a FFF7FEFF 		bl	test_println
 1821              	.LVL76:
 1822              		.loc 1 251 0
 1823 006e 7548     		ldr	r0, .L126+8
 1824 0070 FFF7FEFF 		bl	test_println
 1825              	.LVL77:
 1826              		.loc 1 253 0
 1827 0074 7C4A     		ldr	r2, .L126+44
 1828              		.loc 1 255 0
 1829 0076 3B68     		ldr	r3, [r7]
 1830              		.loc 1 253 0
 1831 0078 0099     		ldr	r1, [sp]
 1832 007a 1170     		strb	r1, [r2]
 1833              	.LVL78:
 1834              		.loc 1 255 0
 1835 007c 002B     		cmp	r3, #0
 1836 007e 00F0B680 		beq	.L73
 1837              	.LBB187:
 1838              	.LBB188:
 1839              		.loc 1 172 0
 1840 0082 DFF8B8B1 		ldr	fp, .L126
 1841              	.LBE188:
 1842              	.LBE187:
 1843              		.loc 1 254 0
ARM GAS  /tmp/cc0yVrlH.s 			page 96


 1844 0086 0191     		str	r1, [sp, #4]
 1845 0088 0437     		adds	r7, r7, #4
 1846              	.LVL79:
 1847              	.L74:
 1848              	.LBB190:
 1849              	.LBB191:
 1850              		.loc 1 171 0 discriminator 1
 1851 008a 0026     		movs	r6, #0
 1852              	.LVL80:
 1853 008c 019A     		ldr	r2, [sp, #4]
 1854              	.LBE191:
 1855              	.LBE190:
 1856              		.loc 1 257 0 discriminator 1
 1857 008e 53F82630 		ldr	r3, [r3, r6, lsl #2]
 1858 0092 0132     		adds	r2, r2, #1
 1859 0094 0192     		str	r2, [sp, #4]
 1860              	.LVL81:
 1861 0096 4FEA8608 		lsl	r8, r6, #2
 1862 009a 002B     		cmp	r3, #0
 1863 009c 00F0A280 		beq	.L124
 1864              	.LVL82:
 1865              	.L97:
 1866 00a0 724D     		ldr	r5, .L126+48
 1867              		.loc 1 258 0
 1868 00a2 FFF7FEFF 		bl	print_line
 1869              	.LVL83:
 1870              	.LBB194:
 1871              	.LBB189:
 1872              		.loc 1 171 0
 1873 00a6 2D21     		movs	r1, #45
 1874              	.LVL84:
 1875              	.L76:
 1876              		.loc 1 172 0
 1877 00a8 2068     		ldr	r0, [r4]
 1878              	.LVL85:
 1879 00aa 0368     		ldr	r3, [r0]
 1880 00ac 9B68     		ldr	r3, [r3, #8]
 1881 00ae 9847     		blx	r3
 1882              	.LVL86:
 1883              		.loc 1 171 0
 1884 00b0 15F8011F 		ldrb	r1, [r5, #1]!	@ zero_extendqisi2
 1885              	.LVL87:
 1886 00b4 0029     		cmp	r1, #0
 1887 00b6 F7D1     		bne	.L76
 1888              	.LBE189:
 1889              	.LBE194:
 1890              		.loc 1 260 0
 1891 00b8 0198     		ldr	r0, [sp, #4]
 1892 00ba 6D4D     		ldr	r5, .L126+52
 1893              	.LVL88:
 1894 00bc FFF7FEFF 		bl	test_printn
 1895              	.LVL89:
 1896              	.LBB195:
 1897              	.LBB196:
 1898              		.loc 1 172 0
 1899 00c0 DBF80000 		ldr	r0, [fp]
 1900              	.LVL90:
ARM GAS  /tmp/cc0yVrlH.s 			page 97


 1901 00c4 0368     		ldr	r3, [r0]
 1902 00c6 2E21     		movs	r1, #46
 1903 00c8 9B68     		ldr	r3, [r3, #8]
 1904              	.LBE196:
 1905              	.LBE195:
 1906              		.loc 1 262 0
 1907 00ca 0136     		adds	r6, r6, #1
 1908              	.LVL91:
 1909              	.LBB198:
 1910              	.LBB197:
 1911              		.loc 1 172 0
 1912 00cc 9847     		blx	r3
 1913              	.LVL92:
 1914              	.LBE197:
 1915              	.LBE198:
 1916              		.loc 1 262 0
 1917 00ce 3046     		mov	r0, r6
 1918 00d0 FFF7FEFF 		bl	test_printn
 1919              	.LVL93:
 1920              	.LBB199:
 1921              	.LBB200:
 1922              		.loc 1 171 0
 1923 00d4 2021     		movs	r1, #32
 1924              	.LVL94:
 1925              	.L104:
 1926              		.loc 1 172 0
 1927 00d6 2068     		ldr	r0, [r4]
 1928              	.LVL95:
 1929 00d8 0368     		ldr	r3, [r0]
 1930 00da 9B68     		ldr	r3, [r3, #8]
 1931 00dc 9847     		blx	r3
 1932              	.LVL96:
 1933              		.loc 1 171 0
 1934 00de 15F8011F 		ldrb	r1, [r5, #1]!	@ zero_extendqisi2
 1935              	.LVL97:
 1936 00e2 0029     		cmp	r1, #0
 1937 00e4 F7D1     		bne	.L104
 1938              	.LBE200:
 1939              	.LBE199:
 1940              		.loc 1 264 0
 1941 00e6 57F8043C 		ldr	r3, [r7, #-4]
 1942 00ea 53F80830 		ldr	r3, [r3, r8]
 1943 00ee 1D68     		ldr	r5, [r3]
 1944              	.LVL98:
 1945              	.LBB201:
 1946              	.LBB202:
 1947              		.loc 1 171 0
 1948 00f0 2978     		ldrb	r1, [r5]	@ zero_extendqisi2
 1949 00f2 39B1     		cbz	r1, .L81
 1950              	.LVL99:
 1951              	.L82:
 1952              		.loc 1 172 0
 1953 00f4 2068     		ldr	r0, [r4]
 1954              	.LVL100:
 1955 00f6 0368     		ldr	r3, [r0]
 1956 00f8 9B68     		ldr	r3, [r3, #8]
 1957 00fa 9847     		blx	r3
ARM GAS  /tmp/cc0yVrlH.s 			page 98


 1958              	.LVL101:
 1959              		.loc 1 171 0
 1960 00fc 15F8011F 		ldrb	r1, [r5, #1]!	@ zero_extendqisi2
 1961              	.LVL102:
 1962 0100 0029     		cmp	r1, #0
 1963 0102 F7D1     		bne	.L82
 1964              	.LVL103:
 1965              	.L81:
 1966              	.LBE202:
 1967              	.LBE201:
 1968              		.loc 1 265 0
 1969 0104 5B48     		ldr	r0, .L126+56
 1970              	.LBB203:
 1971              	.LBB204:
 1972              	.LBB205:
 1973              	.LBB206:
 1974              		.loc 1 67 0
 1975 0106 5C4D     		ldr	r5, .L126+60
 1976              	.LBE206:
 1977              	.LBE205:
 1978              		.loc 1 81 0
 1979 0108 DFF89091 		ldr	r9, .L126+96
 1980              	.LBB209:
 1981              	.LBB207:
 1982              		.loc 1 67 0
 1983 010c DFF890A1 		ldr	r10, .L126+100
 1984              	.LBE207:
 1985              	.LBE209:
 1986              	.LBE204:
 1987              	.LBE203:
 1988              		.loc 1 265 0
 1989 0110 FFF7FEFF 		bl	test_println
 1990              	.LVL104:
 1991              	.LBB213:
 1992              	.LBB214:
 1993              		.file 5 "../ChibiOS/os/hal/osal/rt/osal.h"
 1994              		.loc 5 673 0
 1995 0114 4FF4FA60 		mov	r0, #2000
 1996 0118 FFF7FEFF 		bl	chThdSleep
 1997              	.LVL105:
 1998              	.LBE214:
 1999              	.LBE213:
 2000              		.loc 1 269 0
 2001 011c 57F8043C 		ldr	r3, [r7, #-4]
 2002              	.LBB215:
 2003              	.LBB211:
 2004              	.LBB210:
 2005              	.LBB208:
 2006              		.loc 1 67 0
 2007 0120 C5F800A0 		str	r10, [r5]
 2008              	.LBE208:
 2009              	.LBE210:
 2010              	.LBE211:
 2011              	.LBE215:
 2012              		.loc 1 269 0
 2013 0124 53F80880 		ldr	r8, [r3, r8]
 2014              	.LVL106:
ARM GAS  /tmp/cc0yVrlH.s 			page 99


 2015              	.LBB216:
 2016              	.LBB212:
 2017              		.loc 1 83 0
 2018 0128 D8F80430 		ldr	r3, [r8, #4]
 2019              		.loc 1 81 0
 2020 012c 0022     		movs	r2, #0
 2021 012e 89F80020 		strb	r2, [r9]
 2022              		.loc 1 83 0
 2023 0132 03B1     		cbz	r3, .L80
 2024              		.loc 1 84 0
 2025 0134 9847     		blx	r3
 2026              	.LVL107:
 2027              	.L80:
 2028              		.loc 1 85 0
 2029 0136 D8F80C30 		ldr	r3, [r8, #12]
 2030 013a 9847     		blx	r3
 2031              	.LVL108:
 2032              		.loc 1 86 0
 2033 013c D8F80830 		ldr	r3, [r8, #8]
 2034 0140 03B1     		cbz	r3, .L83
 2035              		.loc 1 87 0
 2036 0142 9847     		blx	r3
 2037              	.LVL109:
 2038              	.L83:
 2039              	.LBE212:
 2040              	.LBE216:
 2041              		.loc 1 270 0
 2042 0144 99F80030 		ldrb	r3, [r9]	@ zero_extendqisi2
 2043 0148 002B     		cmp	r3, #0
 2044 014a 6AD0     		beq	.L84
 2045 014c DFF85481 		ldr	r8, .L126+104
 2046              	.LVL110:
 2047              	.LBB217:
 2048              	.LBB218:
 2049              		.loc 1 171 0
 2050 0150 2D21     		movs	r1, #45
 2051              	.L86:
 2052              	.LVL111:
 2053              		.loc 1 172 0
 2054 0152 2068     		ldr	r0, [r4]
 2055              	.LVL112:
 2056 0154 0368     		ldr	r3, [r0]
 2057 0156 9B68     		ldr	r3, [r3, #8]
 2058 0158 9847     		blx	r3
 2059              	.LVL113:
 2060              		.loc 1 171 0
 2061 015a 18F8011F 		ldrb	r1, [r8, #1]!	@ zero_extendqisi2
 2062              	.LVL114:
 2063 015e 0029     		cmp	r1, #0
 2064 0160 F7D1     		bne	.L86
 2065              	.LBE218:
 2066              	.LBE217:
 2067              		.loc 1 272 0
 2068 0162 464B     		ldr	r3, .L126+64
 2069 0164 DFF84081 		ldr	r8, .L126+108
 2070              	.LVL115:
 2071 0168 1868     		ldr	r0, [r3]
ARM GAS  /tmp/cc0yVrlH.s 			page 100


 2072 016a FFF7FEFF 		bl	test_printn
 2073              	.LVL116:
 2074              	.LBB219:
 2075              	.LBB192:
 2076              		.loc 1 171 0
 2077 016e 2021     		movs	r1, #32
 2078              	.LVL117:
 2079              	.L105:
 2080              		.loc 1 172 0
 2081 0170 2068     		ldr	r0, [r4]
 2082              	.LVL118:
 2083 0172 0368     		ldr	r3, [r0]
 2084 0174 9B68     		ldr	r3, [r3, #8]
 2085 0176 9847     		blx	r3
 2086              	.LVL119:
 2087              		.loc 1 171 0
 2088 0178 18F8011F 		ldrb	r1, [r8, #1]!	@ zero_extendqisi2
 2089              	.LVL120:
 2090 017c 0029     		cmp	r1, #0
 2091 017e F7D1     		bne	.L105
 2092              	.LVL121:
 2093              	.LBE192:
 2094              	.LBE219:
 2095              	.LBB220:
 2096              	.LBB221:
 2097              		.loc 1 73 0
 2098 0180 2B68     		ldr	r3, [r5]
 2099 0182 5345     		cmp	r3, r10
 2100 0184 0CD9     		bls	.L90
 2101 0186 DFF82481 		ldr	r8, .L126+112
 2102              	.LVL122:
 2103              	.L91:
 2104              		.loc 1 74 0
 2105 018a 2068     		ldr	r0, [r4]
 2106 018c 18F8011C 		ldrb	r1, [r8, #-1]	@ zero_extendqisi2
 2107 0190 0368     		ldr	r3, [r0]
 2108 0192 9B68     		ldr	r3, [r3, #8]
 2109 0194 9847     		blx	r3
 2110              	.LVL123:
 2111              		.loc 1 73 0
 2112 0196 2B68     		ldr	r3, [r5]
 2113              	.LVL124:
 2114 0198 9845     		cmp	r8, r3
 2115 019a 08F10108 		add	r8, r8, #1
 2116              	.LVL125:
 2117 019e F4D3     		bcc	.L91
 2118              	.LVL126:
 2119              	.L90:
 2120 01a0 374D     		ldr	r5, .L126+68
 2121              	.LBE221:
 2122              	.LBE220:
 2123              	.LBB222:
 2124              	.LBB193:
 2125              		.loc 1 171 0
 2126 01a2 5D21     		movs	r1, #93
 2127              	.L89:
 2128              	.LVL127:
ARM GAS  /tmp/cc0yVrlH.s 			page 101


 2129              	.LBE193:
 2130              	.LBE222:
 2131              	.LBB223:
 2132              	.LBB224:
 2133              		.loc 1 172 0
 2134 01a4 2068     		ldr	r0, [r4]
 2135              	.LVL128:
 2136 01a6 0368     		ldr	r3, [r0]
 2137 01a8 9B68     		ldr	r3, [r3, #8]
 2138 01aa 9847     		blx	r3
 2139              	.LVL129:
 2140              		.loc 1 171 0
 2141 01ac 15F8011F 		ldrb	r1, [r5, #1]!	@ zero_extendqisi2
 2142              	.LVL130:
 2143 01b0 0029     		cmp	r1, #0
 2144 01b2 F7D1     		bne	.L89
 2145              	.LBE224:
 2146              	.LBE223:
 2147              		.loc 1 276 0
 2148 01b4 334B     		ldr	r3, .L126+72
 2149 01b6 1D68     		ldr	r5, [r3]
 2150              	.LVL131:
 2151              	.LBB225:
 2152              	.LBB226:
 2153              		.loc 1 171 0
 2154 01b8 2978     		ldrb	r1, [r5]	@ zero_extendqisi2
 2155 01ba 39B1     		cbz	r1, .L95
 2156              	.LVL132:
 2157              	.L96:
 2158              		.loc 1 172 0
 2159 01bc 2068     		ldr	r0, [r4]
 2160              	.LVL133:
 2161 01be 0368     		ldr	r3, [r0]
 2162 01c0 9B68     		ldr	r3, [r3, #8]
 2163 01c2 9847     		blx	r3
 2164              	.LVL134:
 2165              		.loc 1 171 0
 2166 01c4 15F8011F 		ldrb	r1, [r5, #1]!	@ zero_extendqisi2
 2167              	.LVL135:
 2168 01c8 0029     		cmp	r1, #0
 2169 01ca F7D1     		bne	.L96
 2170              	.LVL136:
 2171              	.L95:
 2172              	.LBE226:
 2173              	.LBE225:
 2174              		.loc 1 277 0
 2175 01cc 2E48     		ldr	r0, .L126+76
 2176 01ce FFF7FEFF 		bl	test_println
 2177              	.LVL137:
 2178              	.L94:
 2179 01d2 57F8043C 		ldr	r3, [r7, #-4]
 2180              	.LVL138:
 2181              		.loc 1 257 0 discriminator 1
 2182 01d6 53F82630 		ldr	r3, [r3, r6, lsl #2]
 2183 01da 4FEA8608 		lsl	r8, r6, #2
 2184 01de 002B     		cmp	r3, #0
 2185 01e0 7FF45EAF 		bne	.L97
ARM GAS  /tmp/cc0yVrlH.s 			page 102


 2186              	.LVL139:
 2187              	.L124:
 2188              		.loc 1 255 0
 2189 01e4 57F8043B 		ldr	r3, [r7], #4
 2190 01e8 002B     		cmp	r3, #0
 2191 01ea 7FF44EAF 		bne	.L74
 2192              	.LVL140:
 2193              	.L73:
 2194              		.loc 1 285 0
 2195 01ee FFF7FEFF 		bl	print_line
 2196              	.LVL141:
 2197 01f2 264D     		ldr	r5, .L126+80
 2198              		.loc 1 286 0
 2199 01f4 1348     		ldr	r0, .L126+8
 2200 01f6 FFF7FEFF 		bl	test_println
 2201              	.LVL142:
 2202              	.LBB227:
 2203              	.LBB228:
 2204              		.loc 1 171 0
 2205 01fa 4621     		movs	r1, #70
 2206              	.LVL143:
 2207              	.L106:
 2208              		.loc 1 172 0
 2209 01fc 2068     		ldr	r0, [r4]
 2210              	.LVL144:
 2211 01fe 0368     		ldr	r3, [r0]
 2212 0200 9B68     		ldr	r3, [r3, #8]
 2213 0202 9847     		blx	r3
 2214              	.LVL145:
 2215              		.loc 1 171 0
 2216 0204 15F8011F 		ldrb	r1, [r5, #1]!	@ zero_extendqisi2
 2217              	.LVL146:
 2218 0208 0029     		cmp	r1, #0
 2219 020a F7D1     		bne	.L106
 2220              	.LBE228:
 2221              	.LBE227:
 2222              		.loc 1 288 0
 2223 020c 164A     		ldr	r2, .L126+44
 2224 020e 1378     		ldrb	r3, [r2]	@ zero_extendqisi2
 2225 0210 5BB9     		cbnz	r3, .L125
 2226              		.loc 1 291 0
 2227 0212 1F48     		ldr	r0, .L126+84
 2228 0214 FFF7FEFF 		bl	test_println
 2229              	.LVL147:
 2230              		.loc 1 297 0
 2231 0218 134B     		ldr	r3, .L126+44
 2232 021a 1878     		ldrb	r0, [r3]	@ zero_extendqisi2
 2233              		.loc 1 298 0
 2234 021c 03B0     		add	sp, sp, #12
 2235              		@ sp needed
 2236 021e BDE8F08F 		pop	{r4, r5, r6, r7, r8, r9, r10, fp, pc}
 2237              	.LVL148:
 2238              	.L84:
 2239              		.loc 1 280 0
 2240 0222 1C48     		ldr	r0, .L126+88
 2241 0224 FFF7FEFF 		bl	test_println
 2242              	.LVL149:
ARM GAS  /tmp/cc0yVrlH.s 			page 103


 2243 0228 D3E7     		b	.L94
 2244              	.LVL150:
 2245              	.L125:
 2246              		.loc 1 289 0
 2247 022a 1B48     		ldr	r0, .L126+92
 2248 022c FFF7FEFF 		bl	test_println
 2249              	.LVL151:
 2250              		.loc 1 297 0
 2251 0230 0D4B     		ldr	r3, .L126+44
 2252 0232 1878     		ldrb	r0, [r3]	@ zero_extendqisi2
 2253              		.loc 1 298 0
 2254 0234 03B0     		add	sp, sp, #12
 2255              		@ sp needed
 2256 0236 BDE8F08F 		pop	{r4, r5, r6, r7, r8, r9, r10, fp, pc}
 2257              	.LVL152:
 2258              	.L127:
 2259 023a 00BF     		.align	2
 2260              	.L126:
 2261 023c 00000000 		.word	.LANCHOR0
 2262 0240 28000000 		.word	.LC4
 2263 0244 04000000 		.word	.LC1
 2264 0248 08000000 		.word	.LC2
 2265 024c 24000000 		.word	.LC3
 2266 0250 BC000000 		.word	.LC14
 2267 0254 D4000000 		.word	.LC15
 2268 0258 E8000000 		.word	.LC16
 2269 025c 04010000 		.word	.LC17
 2270 0260 3C000000 		.word	.LC5
 2271 0264 00000000 		.word	test_suite
 2272 0268 00000000 		.word	.LANCHOR2
 2273 026c 64000000 		.word	.LC6
 2274 0270 18010000 		.word	.LC18
 2275 0274 74000000 		.word	.LC7
 2276 0278 00000000 		.word	.LANCHOR5
 2277 027c 00000000 		.word	.LANCHOR6
 2278 0280 90000000 		.word	.LC9
 2279 0284 00000000 		.word	.LANCHOR3
 2280 0288 94000000 		.word	.LC10
 2281 028c 20010000 		.word	.LC20
 2282 0290 B4000000 		.word	.LC13
 2283 0294 98000000 		.word	.LC11
 2284 0298 AC000000 		.word	.LC12
 2285 029c 00000000 		.word	.LANCHOR1
 2286 02a0 00000000 		.word	.LANCHOR4
 2287 02a4 78000000 		.word	.LC8
 2288 02a8 1C010000 		.word	.LC19
 2289 02ac 01000000 		.word	.LANCHOR4+1
 2290              		.cfi_endproc
 2291              	.LFE283:
 2292              		.size	test_execute, .-test_execute
 2293              		.global	test_global_fail
 2294              		.global	test_step
 2295              		.section	.bss.test_failure_message,"aw",%nobits
 2296              		.align	2
 2297              		.set	.LANCHOR3,. + 0
 2298              		.type	test_failure_message, %object
 2299              		.size	test_failure_message, 4
ARM GAS  /tmp/cc0yVrlH.s 			page 104


 2300              	test_failure_message:
 2301 0000 00000000 		.space	4
 2302              		.section	.bss.test_local_fail,"aw",%nobits
 2303              		.set	.LANCHOR1,. + 0
 2304              		.type	test_local_fail, %object
 2305              		.size	test_local_fail, 1
 2306              	test_local_fail:
 2307 0000 00       		.space	1
 2308              		.section	.rodata.str1.4,"aMS",%progbits,1
 2309              		.align	2
 2310              	.LC0:
 2311 0000 0D0A00   		.ascii	"\015\012\000"
 2312 0003 00       		.space	1
 2313              	.LC1:
 2314 0004 00       		.ascii	"\000"
 2315 0005 000000   		.space	3
 2316              	.LC2:
 2317 0008 2A2A2A20 		.ascii	"*** ChibiOS/RT Test Suite\000"
 2317      43686962 
 2317      694F532F 
 2317      52542054 
 2317      65737420 
 2318 0022 0000     		.space	2
 2319              	.LC3:
 2320 0024 2A2A2A00 		.ascii	"***\000"
 2321              	.LC4:
 2322 0028 2A2A2A20 		.ascii	"*** Compiled:     \000"
 2322      436F6D70 
 2322      696C6564 
 2322      3A202020 
 2322      202000
 2323 003b 00       		.space	1
 2324              	.LC5:
 2325 003c 53544D69 		.ascii	"STMicroelectronics STM32F3-Discovery\000"
 2325      63726F65 
 2325      6C656374 
 2325      726F6E69 
 2325      63732053 
 2326 0061 000000   		.space	3
 2327              	.LC6:
 2328 0064 2D2D2D20 		.ascii	"--- Test Case \000"
 2328      54657374 
 2328      20436173 
 2328      652000
 2329 0073 00       		.space	1
 2330              	.LC7:
 2331 0074 2900     		.ascii	")\000"
 2332 0076 0000     		.space	2
 2333              	.LC8:
 2334 0078 2D2D2D20 		.ascii	"--- Result: FAILURE (#\000"
 2334      52657375 
 2334      6C743A20 
 2334      4641494C 
 2334      55524520 
 2335 008f 00       		.space	1
 2336              	.LC9:
 2337 0090 5D202200 		.ascii	"] \"\000"
ARM GAS  /tmp/cc0yVrlH.s 			page 105


 2338              	.LC10:
 2339 0094 222900   		.ascii	"\")\000"
 2340 0097 00       		.space	1
 2341              	.LC11:
 2342 0098 2D2D2D20 		.ascii	"--- Result: SUCCESS\000"
 2342      52657375 
 2342      6C743A20 
 2342      53554343 
 2342      45535300 
 2343              	.LC12:
 2344 00ac 4641494C 		.ascii	"FAILURE\000"
 2344      55524500 
 2345              	.LC13:
 2346 00b4 53554343 		.ascii	"SUCCESS\000"
 2346      45535300 
 2347              	.LC14:
 2348 00bc 46656220 		.ascii	"Feb  3 2017 - 04:47:08\000"
 2348      20332032 
 2348      30313720 
 2348      2D203034 
 2348      3A34373A 
 2349 00d3 00       		.space	1
 2350              	.LC15:
 2351 00d4 2A2A2A20 		.ascii	"*** Platform:     \000"
 2351      506C6174 
 2351      666F726D 
 2351      3A202020 
 2351      202000
 2352 00e7 00       		.space	1
 2353              	.LC16:
 2354 00e8 53544D33 		.ascii	"STM32F303xC Analog & DSP\000"
 2354      32463330 
 2354      33784320 
 2354      416E616C 
 2354      6F672026 
 2355 0101 000000   		.space	3
 2356              	.LC17:
 2357 0104 2A2A2A20 		.ascii	"*** Test Board:   \000"
 2357      54657374 
 2357      20426F61 
 2357      72643A20 
 2357      202000
 2358 0117 00       		.space	1
 2359              	.LC18:
 2360 0118 202800   		.ascii	" (\000"
 2361 011b 00       		.space	1
 2362              	.LC19:
 2363 011c 205B00   		.ascii	" [\000"
 2364 011f 00       		.space	1
 2365              	.LC20:
 2366 0120 46696E61 		.ascii	"Final result: \000"
 2366      6C207265 
 2366      73756C74 
 2366      3A2000
 2367 012f 00       		.section	.bss.test_chp,"aw",%nobits
 2368              		.align	2
 2369              		.set	.LANCHOR0,. + 0
ARM GAS  /tmp/cc0yVrlH.s 			page 106


 2370              		.type	test_chp, %object
 2371              		.size	test_chp, 4
 2372              	test_chp:
 2373 0000 00000000 		.space	4
 2374              		.section	.bss.test_tokp,"aw",%nobits
 2375              		.align	2
 2376              		.set	.LANCHOR5,. + 0
 2377              		.type	test_tokp, %object
 2378              		.size	test_tokp, 4
 2379              	test_tokp:
 2380 0000 00000000 		.space	4
 2381              		.section	.bss.test_step,"aw",%nobits
 2382              		.align	2
 2383              		.set	.LANCHOR6,. + 0
 2384              		.type	test_step, %object
 2385              		.size	test_step, 4
 2386              	test_step:
 2387 0000 00000000 		.space	4
 2388              		.section	.bss.test_tokens_buffer,"aw",%nobits
 2389              		.align	2
 2390              		.set	.LANCHOR4,. + 0
 2391              		.type	test_tokens_buffer, %object
 2392              		.size	test_tokens_buffer, 16
 2393              	test_tokens_buffer:
 2394 0000 00000000 		.space	16
 2394      00000000 
 2394      00000000 
 2394      00000000 
 2395              		.section	.bss.test_global_fail,"aw",%nobits
 2396              		.set	.LANCHOR2,. + 0
 2397              		.type	test_global_fail, %object
 2398              		.size	test_global_fail, 1
 2399              	test_global_fail:
 2400 0000 00       		.space	1
 2401              		.text
 2402              	.Letext0:
 2403              		.file 6 "/nfs/nfs5/home/research/hardware/arm2/gcc-arm-embedded/gcc-arm-none-eabi-4_8-2014q2/lib/g
 2404              		.file 7 "/nfs/nfs5/home/research/hardware/arm2/gcc-arm-embedded/gcc-arm-none-eabi-4_8-2014q2/arm-n
 2405              		.file 8 "/nfs/nfs5/home/research/hardware/arm2/gcc-arm-embedded/gcc-arm-none-eabi-4_8-2014q2/arm-n
 2406              		.file 9 "../ChibiOS/os/common/ports/ARMCMx/compilers/GCC/chtypes.h"
 2407              		.file 10 "../ChibiOS/os/rt/include/chsystypes.h"
 2408              		.file 11 "../ChibiOS/os/rt/include/chschd.h"
 2409              		.file 12 "../ChibiOS/os/common/ports/ARMCMx/chcore.h"
 2410              		.file 13 "../ChibiOS/os/common/ports/ARMCMx/chcore_v7m.h"
 2411              		.file 14 "../ChibiOS/os/hal/ports/STM32/LLD/TIMv1/stm32_tim.h"
 2412              		.file 15 "../ChibiOS/os/rt/include/chtm.h"
 2413              		.file 16 "../ChibiOS/os/rt/include/chsem.h"
 2414              		.file 17 "../ChibiOS/os/rt/include/chmtx.h"
 2415              		.file 18 "../ChibiOS/os/hal/include/hal_streams.h"
 2416              		.file 19 "../ChibiOS/test/lib/ch_test.h"
 2417              		.file 20 "../ChibiOS/os/common/ports/ARMCMx/chcore_timer.h"
 2418              		.file 21 "../ChibiOS/os/rt/include/chsys.h"
 2419              		.file 22 "../ChibiOS/os/common/ext/CMSIS/include/core_cm4.h"
 2420              		.file 23 "../ChibiOS/test/rt/source/test/test_root.h"
 2421              		.file 24 "../ChibiOS/os/rt/include/chthreads.h"
 2422              		.section	.debug_info,"",%progbits
 2423              	.Ldebug_info0:
ARM GAS  /tmp/cc0yVrlH.s 			page 107


 2424 0000 C6120000 		.4byte	0x12c6
 2425 0004 0400     		.2byte	0x4
 2426 0006 00000000 		.4byte	.Ldebug_abbrev0
 2427 000a 04       		.byte	0x4
 2428 000b 01       		.uleb128 0x1
 2429 000c 7B060000 		.4byte	.LASF154
 2430 0010 01       		.byte	0x1
 2431 0011 AD050000 		.4byte	.LASF155
 2432 0015 D9030000 		.4byte	.LASF156
 2433 0019 E0000000 		.4byte	.Ldebug_ranges0+0xe0
 2434 001d 00000000 		.4byte	0
 2435 0021 00000000 		.4byte	.Ldebug_line0
 2436 0025 02       		.uleb128 0x2
 2437 0026 04       		.byte	0x4
 2438 0027 05       		.byte	0x5
 2439 0028 696E7400 		.ascii	"int\000"
 2440 002c 03       		.uleb128 0x3
 2441 002d 12000000 		.4byte	.LASF2
 2442 0031 06       		.byte	0x6
 2443 0032 D4       		.byte	0xd4
 2444 0033 37000000 		.4byte	0x37
 2445 0037 04       		.uleb128 0x4
 2446 0038 04       		.byte	0x4
 2447 0039 07       		.byte	0x7
 2448 003a 21020000 		.4byte	.LASF0
 2449 003e 04       		.uleb128 0x4
 2450 003f 01       		.byte	0x1
 2451 0040 06       		.byte	0x6
 2452 0041 1F010000 		.4byte	.LASF1
 2453 0045 03       		.uleb128 0x3
 2454 0046 34000000 		.4byte	.LASF3
 2455 004a 07       		.byte	0x7
 2456 004b 1C       		.byte	0x1c
 2457 004c 50000000 		.4byte	0x50
 2458 0050 04       		.uleb128 0x4
 2459 0051 01       		.byte	0x1
 2460 0052 08       		.byte	0x8
 2461 0053 25040000 		.4byte	.LASF4
 2462 0057 04       		.uleb128 0x4
 2463 0058 02       		.byte	0x2
 2464 0059 05       		.byte	0x5
 2465 005a 3B040000 		.4byte	.LASF5
 2466 005e 04       		.uleb128 0x4
 2467 005f 02       		.byte	0x2
 2468 0060 07       		.byte	0x7
 2469 0061 CB050000 		.4byte	.LASF6
 2470 0065 03       		.uleb128 0x3
 2471 0066 C7020000 		.4byte	.LASF7
 2472 006a 07       		.byte	0x7
 2473 006b 37       		.byte	0x37
 2474 006c 70000000 		.4byte	0x70
 2475 0070 04       		.uleb128 0x4
 2476 0071 04       		.byte	0x4
 2477 0072 05       		.byte	0x5
 2478 0073 6B010000 		.4byte	.LASF8
 2479 0077 03       		.uleb128 0x3
 2480 0078 79050000 		.4byte	.LASF9
ARM GAS  /tmp/cc0yVrlH.s 			page 108


 2481 007c 07       		.byte	0x7
 2482 007d 38       		.byte	0x38
 2483 007e 82000000 		.4byte	0x82
 2484 0082 04       		.uleb128 0x4
 2485 0083 04       		.byte	0x4
 2486 0084 07       		.byte	0x7
 2487 0085 02050000 		.4byte	.LASF10
 2488 0089 04       		.uleb128 0x4
 2489 008a 08       		.byte	0x8
 2490 008b 05       		.byte	0x5
 2491 008c A0010000 		.4byte	.LASF11
 2492 0090 03       		.uleb128 0x3
 2493 0091 F7020000 		.4byte	.LASF12
 2494 0095 07       		.byte	0x7
 2495 0096 4E       		.byte	0x4e
 2496 0097 9B000000 		.4byte	0x9b
 2497 009b 04       		.uleb128 0x4
 2498 009c 08       		.byte	0x8
 2499 009d 07       		.byte	0x7
 2500 009e 6F000000 		.4byte	.LASF13
 2501 00a2 03       		.uleb128 0x3
 2502 00a3 4B060000 		.4byte	.LASF14
 2503 00a7 08       		.byte	0x8
 2504 00a8 2A       		.byte	0x2a
 2505 00a9 45000000 		.4byte	0x45
 2506 00ad 03       		.uleb128 0x3
 2507 00ae 1D040000 		.4byte	.LASF15
 2508 00b2 08       		.byte	0x8
 2509 00b3 41       		.byte	0x41
 2510 00b4 65000000 		.4byte	0x65
 2511 00b8 03       		.uleb128 0x3
 2512 00b9 D0040000 		.4byte	.LASF16
 2513 00bd 08       		.byte	0x8
 2514 00be 42       		.byte	0x42
 2515 00bf 77000000 		.4byte	0x77
 2516 00c3 03       		.uleb128 0x3
 2517 00c4 2B000000 		.4byte	.LASF17
 2518 00c8 08       		.byte	0x8
 2519 00c9 4E       		.byte	0x4e
 2520 00ca 90000000 		.4byte	0x90
 2521 00ce 03       		.uleb128 0x3
 2522 00cf 48010000 		.4byte	.LASF18
 2523 00d3 09       		.byte	0x9
 2524 00d4 39       		.byte	0x39
 2525 00d5 B8000000 		.4byte	0xb8
 2526 00d9 03       		.uleb128 0x3
 2527 00da 90070000 		.4byte	.LASF19
 2528 00de 09       		.byte	0x9
 2529 00df 3C       		.byte	0x3c
 2530 00e0 A2000000 		.4byte	0xa2
 2531 00e4 03       		.uleb128 0x3
 2532 00e5 74010000 		.4byte	.LASF20
 2533 00e9 09       		.byte	0x9
 2534 00ea 3D       		.byte	0x3d
 2535 00eb A2000000 		.4byte	0xa2
 2536 00ef 03       		.uleb128 0x3
 2537 00f0 B4030000 		.4byte	.LASF21
ARM GAS  /tmp/cc0yVrlH.s 			page 109


 2538 00f4 09       		.byte	0x9
 2539 00f5 3E       		.byte	0x3e
 2540 00f6 A2000000 		.4byte	0xa2
 2541 00fa 03       		.uleb128 0x3
 2542 00fb D1030000 		.4byte	.LASF22
 2543 00ff 09       		.byte	0x9
 2544 0100 40       		.byte	0x40
 2545 0101 B8000000 		.4byte	0xb8
 2546 0105 03       		.uleb128 0x3
 2547 0106 7B020000 		.4byte	.LASF23
 2548 010a 09       		.byte	0x9
 2549 010b 41       		.byte	0x41
 2550 010c AD000000 		.4byte	0xad
 2551 0110 03       		.uleb128 0x3
 2552 0111 BB020000 		.4byte	.LASF24
 2553 0115 09       		.byte	0x9
 2554 0116 43       		.byte	0x43
 2555 0117 B8000000 		.4byte	0xb8
 2556 011b 03       		.uleb128 0x3
 2557 011c 08020000 		.4byte	.LASF25
 2558 0120 09       		.byte	0x9
 2559 0121 45       		.byte	0x45
 2560 0122 AD000000 		.4byte	0xad
 2561 0126 03       		.uleb128 0x3
 2562 0127 66050000 		.4byte	.LASF26
 2563 012b 0A       		.byte	0xa
 2564 012c 33       		.byte	0x33
 2565 012d B8000000 		.4byte	0xb8
 2566 0131 03       		.uleb128 0x3
 2567 0132 40050000 		.4byte	.LASF27
 2568 0136 0A       		.byte	0xa
 2569 0137 3F       		.byte	0x3f
 2570 0138 3C010000 		.4byte	0x13c
 2571 013c 05       		.uleb128 0x5
 2572 013d 5F020000 		.4byte	.LASF45
 2573 0141 44       		.byte	0x44
 2574 0142 0B       		.byte	0xb
 2575 0143 9A       		.byte	0x9a
 2576 0144 1A020000 		.4byte	0x21a
 2577 0148 06       		.uleb128 0x6
 2578 0149 AE010000 		.4byte	.LASF28
 2579 014d 0B       		.byte	0xb
 2580 014e 9B       		.byte	0x9b
 2581 014f 4F020000 		.4byte	0x24f
 2582 0153 00       		.byte	0
 2583 0154 06       		.uleb128 0x6
 2584 0155 8D030000 		.4byte	.LASF29
 2585 0159 0B       		.byte	0xb
 2586 015a 9C       		.byte	0x9c
 2587 015b FA000000 		.4byte	0xfa
 2588 015f 08       		.byte	0x8
 2589 0160 07       		.uleb128 0x7
 2590 0161 63747800 		.ascii	"ctx\000"
 2591 0165 0B       		.byte	0xb
 2592 0166 9D       		.byte	0x9d
 2593 0167 6C040000 		.4byte	0x46c
 2594 016b 0C       		.byte	0xc
ARM GAS  /tmp/cc0yVrlH.s 			page 110


 2595 016c 06       		.uleb128 0x6
 2596 016d 19060000 		.4byte	.LASF30
 2597 0171 0B       		.byte	0xb
 2598 0172 9F       		.byte	0x9f
 2599 0173 25020000 		.4byte	0x225
 2600 0177 10       		.byte	0x10
 2601 0178 06       		.uleb128 0x6
 2602 0179 25050000 		.4byte	.LASF31
 2603 017d 0B       		.byte	0xb
 2604 017e A0       		.byte	0xa0
 2605 017f 25020000 		.4byte	0x225
 2606 0183 14       		.byte	0x14
 2607 0184 06       		.uleb128 0x6
 2608 0185 4F020000 		.4byte	.LASF32
 2609 0189 0B       		.byte	0xb
 2610 018a A7       		.byte	0xa7
 2611 018b 13070000 		.4byte	0x713
 2612 018f 18       		.byte	0x18
 2613 0190 06       		.uleb128 0x6
 2614 0191 14050000 		.4byte	.LASF33
 2615 0195 0B       		.byte	0xb
 2616 0196 B0       		.byte	0xb0
 2617 0197 25070000 		.4byte	0x725
 2618 019b 1C       		.byte	0x1c
 2619 019c 06       		.uleb128 0x6
 2620 019d 65010000 		.4byte	.LASF34
 2621 01a1 0B       		.byte	0xb
 2622 01a2 B5       		.byte	0xb5
 2623 01a3 E4000000 		.4byte	0xe4
 2624 01a7 20       		.byte	0x20
 2625 01a8 06       		.uleb128 0x6
 2626 01a9 68060000 		.4byte	.LASF35
 2627 01ad 0B       		.byte	0xb
 2628 01ae B9       		.byte	0xb9
 2629 01af D9000000 		.4byte	0xd9
 2630 01b3 21       		.byte	0x21
 2631 01b4 06       		.uleb128 0x6
 2632 01b5 BC030000 		.4byte	.LASF36
 2633 01b9 0B       		.byte	0xb
 2634 01ba BE       		.byte	0xbe
 2635 01bb EF000000 		.4byte	0xef
 2636 01bf 22       		.byte	0x22
 2637 01c0 08       		.uleb128 0x8
 2638 01c1 7500     		.ascii	"u\000"
 2639 01c3 0B       		.byte	0xb
 2640 01c4 0F01     		.2byte	0x10f
 2641 01c6 48060000 		.4byte	0x648
 2642 01ca 24       		.byte	0x24
 2643 01cb 09       		.uleb128 0x9
 2644 01cc D1010000 		.4byte	.LASF37
 2645 01d0 0B       		.byte	0xb
 2646 01d1 1401     		.2byte	0x114
 2647 01d3 2B020000 		.4byte	0x22b
 2648 01d7 28       		.byte	0x28
 2649 01d8 09       		.uleb128 0x9
 2650 01d9 5C010000 		.4byte	.LASF38
 2651 01dd 0B       		.byte	0xb
ARM GAS  /tmp/cc0yVrlH.s 			page 111


 2652 01de 1A01     		.2byte	0x11a
 2653 01e0 4F020000 		.4byte	0x24f
 2654 01e4 2C       		.byte	0x2c
 2655 01e5 09       		.uleb128 0x9
 2656 01e6 81020000 		.4byte	.LASF39
 2657 01ea 0B       		.byte	0xb
 2658 01eb 2001     		.2byte	0x120
 2659 01ed 10010000 		.4byte	0x110
 2660 01f1 34       		.byte	0x34
 2661 01f2 09       		.uleb128 0x9
 2662 01f3 BF070000 		.4byte	.LASF40
 2663 01f7 0B       		.byte	0xb
 2664 01f8 2701     		.2byte	0x127
 2665 01fa 0D070000 		.4byte	0x70d
 2666 01fe 38       		.byte	0x38
 2667 01ff 09       		.uleb128 0x9
 2668 0200 08030000 		.4byte	.LASF41
 2669 0204 0B       		.byte	0xb
 2670 0205 2B01     		.2byte	0x12b
 2671 0207 FA000000 		.4byte	0xfa
 2672 020b 3C       		.byte	0x3c
 2673 020c 09       		.uleb128 0x9
 2674 020d 54020000 		.4byte	.LASF42
 2675 0211 0B       		.byte	0xb
 2676 0212 3201     		.2byte	0x132
 2677 0214 02030000 		.4byte	0x302
 2678 0218 40       		.byte	0x40
 2679 0219 00       		.byte	0
 2680 021a 03       		.uleb128 0x3
 2681 021b 1A030000 		.4byte	.LASF43
 2682 021f 0A       		.byte	0xa
 2683 0220 44       		.byte	0x44
 2684 0221 25020000 		.4byte	0x225
 2685 0225 0A       		.uleb128 0xa
 2686 0226 04       		.byte	0x4
 2687 0227 31010000 		.4byte	0x131
 2688 022b 03       		.uleb128 0x3
 2689 022c 6F070000 		.4byte	.LASF44
 2690 0230 0A       		.byte	0xa
 2691 0231 49       		.byte	0x49
 2692 0232 36020000 		.4byte	0x236
 2693 0236 05       		.uleb128 0x5
 2694 0237 EC040000 		.4byte	.LASF46
 2695 023b 04       		.byte	0x4
 2696 023c 0B       		.byte	0xb
 2697 023d 88       		.byte	0x88
 2698 023e 4F020000 		.4byte	0x24f
 2699 0242 06       		.uleb128 0x6
 2700 0243 19000000 		.4byte	.LASF47
 2701 0247 0B       		.byte	0xb
 2702 0248 89       		.byte	0x89
 2703 0249 25020000 		.4byte	0x225
 2704 024d 00       		.byte	0
 2705 024e 00       		.byte	0
 2706 024f 03       		.uleb128 0x3
 2707 0250 1F060000 		.4byte	.LASF48
 2708 0254 0A       		.byte	0xa
ARM GAS  /tmp/cc0yVrlH.s 			page 112


 2709 0255 50       		.byte	0x50
 2710 0256 5A020000 		.4byte	0x25a
 2711 025a 05       		.uleb128 0x5
 2712 025b E6000000 		.4byte	.LASF49
 2713 025f 08       		.byte	0x8
 2714 0260 0B       		.byte	0xb
 2715 0261 8F       		.byte	0x8f
 2716 0262 7F020000 		.4byte	0x27f
 2717 0266 06       		.uleb128 0x6
 2718 0267 19000000 		.4byte	.LASF47
 2719 026b 0B       		.byte	0xb
 2720 026c 90       		.byte	0x90
 2721 026d 25020000 		.4byte	0x225
 2722 0271 00       		.byte	0
 2723 0272 06       		.uleb128 0x6
 2724 0273 3E000000 		.4byte	.LASF50
 2725 0277 0B       		.byte	0xb
 2726 0278 91       		.byte	0x91
 2727 0279 25020000 		.4byte	0x225
 2728 027d 04       		.byte	0x4
 2729 027e 00       		.byte	0
 2730 027f 03       		.uleb128 0x3
 2731 0280 00000000 		.4byte	.LASF51
 2732 0284 0A       		.byte	0xa
 2733 0285 57       		.byte	0x57
 2734 0286 8A020000 		.4byte	0x28a
 2735 028a 0B       		.uleb128 0xb
 2736 028b AD020000 		.4byte	.LASF52
 2737 028f 1C       		.byte	0x1c
 2738 0290 0B       		.byte	0xb
 2739 0291 6A01     		.2byte	0x16a
 2740 0293 E6020000 		.4byte	0x2e6
 2741 0297 09       		.uleb128 0x9
 2742 0298 AE010000 		.4byte	.LASF28
 2743 029c 0B       		.byte	0xb
 2744 029d 6B01     		.2byte	0x16b
 2745 029f 4F020000 		.4byte	0x24f
 2746 02a3 00       		.byte	0
 2747 02a4 09       		.uleb128 0x9
 2748 02a5 8D030000 		.4byte	.LASF29
 2749 02a9 0B       		.byte	0xb
 2750 02aa 6C01     		.2byte	0x16c
 2751 02ac FA000000 		.4byte	0xfa
 2752 02b0 08       		.byte	0x8
 2753 02b1 08       		.uleb128 0x8
 2754 02b2 63747800 		.ascii	"ctx\000"
 2755 02b6 0B       		.byte	0xb
 2756 02b7 6E01     		.2byte	0x16e
 2757 02b9 6C040000 		.4byte	0x46c
 2758 02bd 0C       		.byte	0xc
 2759 02be 09       		.uleb128 0x9
 2760 02bf 19060000 		.4byte	.LASF30
 2761 02c3 0B       		.byte	0xb
 2762 02c4 7101     		.2byte	0x171
 2763 02c6 25020000 		.4byte	0x225
 2764 02ca 10       		.byte	0x10
 2765 02cb 09       		.uleb128 0x9
ARM GAS  /tmp/cc0yVrlH.s 			page 113


 2766 02cc 25050000 		.4byte	.LASF31
 2767 02d0 0B       		.byte	0xb
 2768 02d1 7201     		.2byte	0x172
 2769 02d3 25020000 		.4byte	0x225
 2770 02d7 14       		.byte	0x14
 2771 02d8 09       		.uleb128 0x9
 2772 02d9 92030000 		.4byte	.LASF53
 2773 02dd 0B       		.byte	0xb
 2774 02de 7501     		.2byte	0x175
 2775 02e0 25020000 		.4byte	0x225
 2776 02e4 18       		.byte	0x18
 2777 02e5 00       		.byte	0
 2778 02e6 03       		.uleb128 0x3
 2779 02e7 70050000 		.4byte	.LASF54
 2780 02eb 0A       		.byte	0xa
 2781 02ec 5C       		.byte	0x5c
 2782 02ed F1020000 		.4byte	0x2f1
 2783 02f1 0A       		.uleb128 0xa
 2784 02f2 04       		.byte	0x4
 2785 02f3 F7020000 		.4byte	0x2f7
 2786 02f7 0C       		.uleb128 0xc
 2787 02f8 02030000 		.4byte	0x302
 2788 02fc 0D       		.uleb128 0xd
 2789 02fd 02030000 		.4byte	0x302
 2790 0301 00       		.byte	0
 2791 0302 0E       		.uleb128 0xe
 2792 0303 04       		.byte	0x4
 2793 0304 03       		.uleb128 0x3
 2794 0305 C1030000 		.4byte	.LASF55
 2795 0309 0A       		.byte	0xa
 2796 030a 61       		.byte	0x61
 2797 030b 0F030000 		.4byte	0x30f
 2798 030f 0B       		.uleb128 0xb
 2799 0310 8F040000 		.4byte	.LASF56
 2800 0314 14       		.byte	0x14
 2801 0315 0B       		.byte	0xb
 2802 0316 4501     		.2byte	0x145
 2803 0318 5E030000 		.4byte	0x35e
 2804 031c 09       		.uleb128 0x9
 2805 031d 19000000 		.4byte	.LASF47
 2806 0321 0B       		.byte	0xb
 2807 0322 4601     		.2byte	0x146
 2808 0324 2B070000 		.4byte	0x72b
 2809 0328 00       		.byte	0
 2810 0329 09       		.uleb128 0x9
 2811 032a 3E000000 		.4byte	.LASF50
 2812 032e 0B       		.byte	0xb
 2813 032f 4701     		.2byte	0x147
 2814 0331 2B070000 		.4byte	0x72b
 2815 0335 04       		.byte	0x4
 2816 0336 09       		.uleb128 0x9
 2817 0337 1E000000 		.4byte	.LASF57
 2818 033b 0B       		.byte	0xb
 2819 033c 4801     		.2byte	0x148
 2820 033e 26010000 		.4byte	0x126
 2821 0342 08       		.byte	0x8
 2822 0343 09       		.uleb128 0x9
ARM GAS  /tmp/cc0yVrlH.s 			page 114


 2823 0344 96010000 		.4byte	.LASF58
 2824 0348 0B       		.byte	0xb
 2825 0349 4901     		.2byte	0x149
 2826 034b E6020000 		.4byte	0x2e6
 2827 034f 0C       		.byte	0xc
 2828 0350 08       		.uleb128 0x8
 2829 0351 70617200 		.ascii	"par\000"
 2830 0355 0B       		.byte	0xb
 2831 0356 4B01     		.2byte	0x14b
 2832 0358 02030000 		.4byte	0x302
 2833 035c 10       		.byte	0x10
 2834 035d 00       		.byte	0
 2835 035e 03       		.uleb128 0x3
 2836 035f BE000000 		.4byte	.LASF59
 2837 0363 0A       		.byte	0xa
 2838 0364 66       		.byte	0x66
 2839 0365 69030000 		.4byte	0x369
 2840 0369 0B       		.uleb128 0xb
 2841 036a 2D030000 		.4byte	.LASF60
 2842 036e 10       		.byte	0x10
 2843 036f 0B       		.byte	0xb
 2844 0370 5501     		.2byte	0x155
 2845 0372 AB030000 		.4byte	0x3ab
 2846 0376 09       		.uleb128 0x9
 2847 0377 19000000 		.4byte	.LASF47
 2848 037b 0B       		.byte	0xb
 2849 037c 5601     		.2byte	0x156
 2850 037e 2B070000 		.4byte	0x72b
 2851 0382 00       		.byte	0
 2852 0383 09       		.uleb128 0x9
 2853 0384 3E000000 		.4byte	.LASF50
 2854 0388 0B       		.byte	0xb
 2855 0389 5801     		.2byte	0x158
 2856 038b 2B070000 		.4byte	0x72b
 2857 038f 04       		.byte	0x4
 2858 0390 09       		.uleb128 0x9
 2859 0391 1E000000 		.4byte	.LASF57
 2860 0395 0B       		.byte	0xb
 2861 0396 5A01     		.2byte	0x15a
 2862 0398 26010000 		.4byte	0x126
 2863 039c 08       		.byte	0x8
 2864 039d 09       		.uleb128 0x9
 2865 039e 45040000 		.4byte	.LASF61
 2866 03a2 0B       		.byte	0xb
 2867 03a3 6201     		.2byte	0x162
 2868 03a5 26010000 		.4byte	0x126
 2869 03a9 0C       		.byte	0xc
 2870 03aa 00       		.byte	0
 2871 03ab 03       		.uleb128 0x3
 2872 03ac 4F000000 		.4byte	.LASF62
 2873 03b0 0A       		.byte	0xa
 2874 03b1 6B       		.byte	0x6b
 2875 03b2 B6030000 		.4byte	0x3b6
 2876 03b6 0B       		.uleb128 0xb
 2877 03b7 07040000 		.4byte	.LASF63
 2878 03bb 04       		.byte	0x4
 2879 03bc 0B       		.byte	0xb
ARM GAS  /tmp/cc0yVrlH.s 			page 115


 2880 03bd 7C01     		.2byte	0x17c
 2881 03bf D1030000 		.4byte	0x3d1
 2882 03c3 09       		.uleb128 0x9
 2883 03c4 92050000 		.4byte	.LASF64
 2884 03c8 0B       		.byte	0xb
 2885 03c9 8401     		.2byte	0x184
 2886 03cb 31070000 		.4byte	0x731
 2887 03cf 00       		.byte	0
 2888 03d0 00       		.byte	0
 2889 03d1 03       		.uleb128 0x3
 2890 03d2 8A020000 		.4byte	.LASF65
 2891 03d6 0A       		.byte	0xa
 2892 03d7 70       		.byte	0x70
 2893 03d8 DC030000 		.4byte	0x3dc
 2894 03dc 0B       		.uleb128 0xb
 2895 03dd 55040000 		.4byte	.LASF66
 2896 03e1 78       		.byte	0x78
 2897 03e2 0B       		.byte	0xb
 2898 03e3 9C01     		.2byte	0x19c
 2899 03e5 2A040000 		.4byte	0x42a
 2900 03e9 09       		.uleb128 0x9
 2901 03ea 45060000 		.4byte	.LASF67
 2902 03ee 0B       		.byte	0xb
 2903 03ef A001     		.2byte	0x1a0
 2904 03f1 7F020000 		.4byte	0x27f
 2905 03f5 00       		.byte	0
 2906 03f6 09       		.uleb128 0x9
 2907 03f7 69020000 		.4byte	.LASF68
 2908 03fb 0B       		.byte	0xb
 2909 03fc A401     		.2byte	0x1a4
 2910 03fe 5E030000 		.4byte	0x35e
 2911 0402 1C       		.byte	0x1c
 2912 0403 08       		.uleb128 0x8
 2913 0404 64626700 		.ascii	"dbg\000"
 2914 0408 0B       		.byte	0xb
 2915 0409 A801     		.2byte	0x1a8
 2916 040b AB030000 		.4byte	0x3ab
 2917 040f 2C       		.byte	0x2c
 2918 0410 09       		.uleb128 0x9
 2919 0411 70020000 		.4byte	.LASF69
 2920 0415 0B       		.byte	0xb
 2921 0416 AC01     		.2byte	0x1ac
 2922 0418 31010000 		.4byte	0x131
 2923 041c 30       		.byte	0x30
 2924 041d 08       		.uleb128 0x8
 2925 041e 746D00   		.ascii	"tm\000"
 2926 0421 0B       		.byte	0xb
 2927 0422 B101     		.2byte	0x1b1
 2928 0424 3D060000 		.4byte	0x63d
 2929 0428 74       		.byte	0x74
 2930 0429 00       		.byte	0
 2931 042a 04       		.uleb128 0x4
 2932 042b 04       		.byte	0x4
 2933 042c 07       		.byte	0x7
 2934 042d 11030000 		.4byte	.LASF70
 2935 0431 0F       		.uleb128 0xf
 2936 0432 B8000000 		.4byte	0xb8
ARM GAS  /tmp/cc0yVrlH.s 			page 116


 2937 0436 10       		.uleb128 0x10
 2938 0437 B8000000 		.4byte	0xb8
 2939 043b 46040000 		.4byte	0x446
 2940 043f 11       		.uleb128 0x11
 2941 0440 2A040000 		.4byte	0x42a
 2942 0444 01       		.byte	0x1
 2943 0445 00       		.byte	0
 2944 0446 10       		.uleb128 0x10
 2945 0447 B8000000 		.4byte	0xb8
 2946 044b 56040000 		.4byte	0x456
 2947 044f 11       		.uleb128 0x11
 2948 0450 2A040000 		.4byte	0x42a
 2949 0454 03       		.byte	0x3
 2950 0455 00       		.byte	0
 2951 0456 03       		.uleb128 0x3
 2952 0457 C1010000 		.4byte	.LASF71
 2953 045b 0C       		.byte	0xc
 2954 045c 65       		.byte	0x65
 2955 045d 02030000 		.4byte	0x302
 2956 0461 03       		.uleb128 0x3
 2957 0462 D6020000 		.4byte	.LASF72
 2958 0466 0C       		.byte	0xc
 2959 0467 6D       		.byte	0x6d
 2960 0468 C3000000 		.4byte	0xc3
 2961 046c 05       		.uleb128 0x5
 2962 046d 5F030000 		.4byte	.LASF73
 2963 0471 04       		.byte	0x4
 2964 0472 0C       		.byte	0xc
 2965 0473 89       		.byte	0x89
 2966 0474 84040000 		.4byte	0x484
 2967 0478 07       		.uleb128 0x7
 2968 0479 737000   		.ascii	"sp\000"
 2969 047c 0C       		.byte	0xc
 2970 047d 8A       		.byte	0x8a
 2971 047e 00050000 		.4byte	0x500
 2972 0482 00       		.byte	0
 2973 0483 00       		.byte	0
 2974 0484 0B       		.uleb128 0xb
 2975 0485 43000000 		.4byte	.LASF74
 2976 0489 24       		.byte	0x24
 2977 048a 0D       		.byte	0xd
 2978 048b 5901     		.2byte	0x159
 2979 048d 00050000 		.4byte	0x500
 2980 0491 08       		.uleb128 0x8
 2981 0492 723400   		.ascii	"r4\000"
 2982 0495 0D       		.byte	0xd
 2983 0496 6C01     		.2byte	0x16c
 2984 0498 56040000 		.4byte	0x456
 2985 049c 00       		.byte	0
 2986 049d 08       		.uleb128 0x8
 2987 049e 723500   		.ascii	"r5\000"
 2988 04a1 0D       		.byte	0xd
 2989 04a2 6D01     		.2byte	0x16d
 2990 04a4 56040000 		.4byte	0x456
 2991 04a8 04       		.byte	0x4
 2992 04a9 08       		.uleb128 0x8
 2993 04aa 723600   		.ascii	"r6\000"
ARM GAS  /tmp/cc0yVrlH.s 			page 117


 2994 04ad 0D       		.byte	0xd
 2995 04ae 6E01     		.2byte	0x16e
 2996 04b0 56040000 		.4byte	0x456
 2997 04b4 08       		.byte	0x8
 2998 04b5 08       		.uleb128 0x8
 2999 04b6 723700   		.ascii	"r7\000"
 3000 04b9 0D       		.byte	0xd
 3001 04ba 6F01     		.2byte	0x16f
 3002 04bc 56040000 		.4byte	0x456
 3003 04c0 0C       		.byte	0xc
 3004 04c1 08       		.uleb128 0x8
 3005 04c2 723800   		.ascii	"r8\000"
 3006 04c5 0D       		.byte	0xd
 3007 04c6 7001     		.2byte	0x170
 3008 04c8 56040000 		.4byte	0x456
 3009 04cc 10       		.byte	0x10
 3010 04cd 08       		.uleb128 0x8
 3011 04ce 723900   		.ascii	"r9\000"
 3012 04d1 0D       		.byte	0xd
 3013 04d2 7101     		.2byte	0x171
 3014 04d4 56040000 		.4byte	0x456
 3015 04d8 14       		.byte	0x14
 3016 04d9 08       		.uleb128 0x8
 3017 04da 72313000 		.ascii	"r10\000"
 3018 04de 0D       		.byte	0xd
 3019 04df 7201     		.2byte	0x172
 3020 04e1 56040000 		.4byte	0x456
 3021 04e5 18       		.byte	0x18
 3022 04e6 08       		.uleb128 0x8
 3023 04e7 72313100 		.ascii	"r11\000"
 3024 04eb 0D       		.byte	0xd
 3025 04ec 7301     		.2byte	0x173
 3026 04ee 56040000 		.4byte	0x456
 3027 04f2 1C       		.byte	0x1c
 3028 04f3 08       		.uleb128 0x8
 3029 04f4 6C7200   		.ascii	"lr\000"
 3030 04f7 0D       		.byte	0xd
 3031 04f8 7401     		.2byte	0x174
 3032 04fa 56040000 		.4byte	0x456
 3033 04fe 20       		.byte	0x20
 3034 04ff 00       		.byte	0
 3035 0500 0A       		.uleb128 0xa
 3036 0501 04       		.byte	0x4
 3037 0502 84040000 		.4byte	0x484
 3038 0506 12       		.uleb128 0x12
 3039 0507 60       		.byte	0x60
 3040 0508 0E       		.byte	0xe
 3041 0509 A101     		.2byte	0x1a1
 3042 050b 12060000 		.4byte	0x612
 3043 050f 08       		.uleb128 0x8
 3044 0510 43523100 		.ascii	"CR1\000"
 3045 0514 0E       		.byte	0xe
 3046 0515 A201     		.2byte	0x1a2
 3047 0517 31040000 		.4byte	0x431
 3048 051b 00       		.byte	0
 3049 051c 08       		.uleb128 0x8
 3050 051d 43523200 		.ascii	"CR2\000"
ARM GAS  /tmp/cc0yVrlH.s 			page 118


 3051 0521 0E       		.byte	0xe
 3052 0522 A301     		.2byte	0x1a3
 3053 0524 31040000 		.4byte	0x431
 3054 0528 04       		.byte	0x4
 3055 0529 09       		.uleb128 0x9
 3056 052a 5A020000 		.4byte	.LASF75
 3057 052e 0E       		.byte	0xe
 3058 052f A401     		.2byte	0x1a4
 3059 0531 31040000 		.4byte	0x431
 3060 0535 08       		.byte	0x8
 3061 0536 09       		.uleb128 0x9
 3062 0537 0D000000 		.4byte	.LASF76
 3063 053b 0E       		.byte	0xe
 3064 053c A501     		.2byte	0x1a5
 3065 053e 31040000 		.4byte	0x431
 3066 0542 0C       		.byte	0xc
 3067 0543 08       		.uleb128 0x8
 3068 0544 535200   		.ascii	"SR\000"
 3069 0547 0E       		.byte	0xe
 3070 0548 A601     		.2byte	0x1a6
 3071 054a 31040000 		.4byte	0x431
 3072 054e 10       		.byte	0x10
 3073 054f 08       		.uleb128 0x8
 3074 0550 45475200 		.ascii	"EGR\000"
 3075 0554 0E       		.byte	0xe
 3076 0555 A701     		.2byte	0x1a7
 3077 0557 31040000 		.4byte	0x431
 3078 055b 14       		.byte	0x14
 3079 055c 09       		.uleb128 0x9
 3080 055d 0D010000 		.4byte	.LASF77
 3081 0561 0E       		.byte	0xe
 3082 0562 A801     		.2byte	0x1a8
 3083 0564 31040000 		.4byte	0x431
 3084 0568 18       		.byte	0x18
 3085 0569 09       		.uleb128 0x9
 3086 056a 13010000 		.4byte	.LASF78
 3087 056e 0E       		.byte	0xe
 3088 056f A901     		.2byte	0x1a9
 3089 0571 31040000 		.4byte	0x431
 3090 0575 1C       		.byte	0x1c
 3091 0576 09       		.uleb128 0x9
 3092 0577 9B010000 		.4byte	.LASF79
 3093 057b 0E       		.byte	0xe
 3094 057c AA01     		.2byte	0x1aa
 3095 057e 31040000 		.4byte	0x431
 3096 0582 20       		.byte	0x20
 3097 0583 08       		.uleb128 0x8
 3098 0584 434E5400 		.ascii	"CNT\000"
 3099 0588 0E       		.byte	0xe
 3100 0589 AB01     		.2byte	0x1ab
 3101 058b 31040000 		.4byte	0x431
 3102 058f 24       		.byte	0x24
 3103 0590 08       		.uleb128 0x8
 3104 0591 50534300 		.ascii	"PSC\000"
 3105 0595 0E       		.byte	0xe
 3106 0596 AC01     		.2byte	0x1ac
 3107 0598 31040000 		.4byte	0x431
ARM GAS  /tmp/cc0yVrlH.s 			page 119


 3108 059c 28       		.byte	0x28
 3109 059d 08       		.uleb128 0x8
 3110 059e 41525200 		.ascii	"ARR\000"
 3111 05a2 0E       		.byte	0xe
 3112 05a3 AD01     		.2byte	0x1ad
 3113 05a5 31040000 		.4byte	0x431
 3114 05a9 2C       		.byte	0x2c
 3115 05aa 08       		.uleb128 0x8
 3116 05ab 52435200 		.ascii	"RCR\000"
 3117 05af 0E       		.byte	0xe
 3118 05b0 AE01     		.2byte	0x1ae
 3119 05b2 31040000 		.4byte	0x431
 3120 05b6 30       		.byte	0x30
 3121 05b7 08       		.uleb128 0x8
 3122 05b8 43435200 		.ascii	"CCR\000"
 3123 05bc 0E       		.byte	0xe
 3124 05bd AF01     		.2byte	0x1af
 3125 05bf 12060000 		.4byte	0x612
 3126 05c3 34       		.byte	0x34
 3127 05c4 09       		.uleb128 0x9
 3128 05c5 E1000000 		.4byte	.LASF80
 3129 05c9 0E       		.byte	0xe
 3130 05ca B001     		.2byte	0x1b0
 3131 05cc 31040000 		.4byte	0x431
 3132 05d0 44       		.byte	0x44
 3133 05d1 08       		.uleb128 0x8
 3134 05d2 44435200 		.ascii	"DCR\000"
 3135 05d6 0E       		.byte	0xe
 3136 05d7 B101     		.2byte	0x1b1
 3137 05d9 31040000 		.4byte	0x431
 3138 05dd 48       		.byte	0x48
 3139 05de 09       		.uleb128 0x9
 3140 05df 3B050000 		.4byte	.LASF81
 3141 05e3 0E       		.byte	0xe
 3142 05e4 B201     		.2byte	0x1b2
 3143 05e6 31040000 		.4byte	0x431
 3144 05ea 4C       		.byte	0x4c
 3145 05eb 08       		.uleb128 0x8
 3146 05ec 4F5200   		.ascii	"OR\000"
 3147 05ef 0E       		.byte	0xe
 3148 05f0 B301     		.2byte	0x1b3
 3149 05f2 31040000 		.4byte	0x431
 3150 05f6 50       		.byte	0x50
 3151 05f7 09       		.uleb128 0x9
 3152 05f8 19010000 		.4byte	.LASF82
 3153 05fc 0E       		.byte	0xe
 3154 05fd B401     		.2byte	0x1b4
 3155 05ff 31040000 		.4byte	0x431
 3156 0603 54       		.byte	0x54
 3157 0604 09       		.uleb128 0x9
 3158 0605 AD040000 		.4byte	.LASF83
 3159 0609 0E       		.byte	0xe
 3160 060a B501     		.2byte	0x1b5
 3161 060c 17060000 		.4byte	0x617
 3162 0610 58       		.byte	0x58
 3163 0611 00       		.byte	0
 3164 0612 0F       		.uleb128 0xf
ARM GAS  /tmp/cc0yVrlH.s 			page 120


 3165 0613 46040000 		.4byte	0x446
 3166 0617 0F       		.uleb128 0xf
 3167 0618 36040000 		.4byte	0x436
 3168 061c 13       		.uleb128 0x13
 3169 061d A1020000 		.4byte	.LASF84
 3170 0621 0E       		.byte	0xe
 3171 0622 B601     		.2byte	0x1b6
 3172 0624 06050000 		.4byte	0x506
 3173 0628 14       		.uleb128 0x14
 3174 0629 04       		.byte	0x4
 3175 062a 0F       		.byte	0xf
 3176 062b 38       		.byte	0x38
 3177 062c 3D060000 		.4byte	0x63d
 3178 0630 06       		.uleb128 0x6
 3179 0631 CA010000 		.4byte	.LASF85
 3180 0635 0F       		.byte	0xf
 3181 0636 3C       		.byte	0x3c
 3182 0637 CE000000 		.4byte	0xce
 3183 063b 00       		.byte	0
 3184 063c 00       		.byte	0
 3185 063d 03       		.uleb128 0x3
 3186 063e 4E030000 		.4byte	.LASF86
 3187 0642 0F       		.byte	0xf
 3188 0643 3D       		.byte	0x3d
 3189 0644 28060000 		.4byte	0x628
 3190 0648 15       		.uleb128 0x15
 3191 0649 04       		.byte	0x4
 3192 064a 0B       		.byte	0xb
 3193 064b D2       		.byte	0xd2
 3194 064c AB060000 		.4byte	0x6ab
 3195 0650 16       		.uleb128 0x16
 3196 0651 24000000 		.4byte	.LASF87
 3197 0655 0B       		.byte	0xb
 3198 0656 D9       		.byte	0xd9
 3199 0657 05010000 		.4byte	0x105
 3200 065b 16       		.uleb128 0x16
 3201 065c 9A000000 		.4byte	.LASF88
 3202 0660 0B       		.byte	0xb
 3203 0661 E0       		.byte	0xe0
 3204 0662 05010000 		.4byte	0x105
 3205 0666 16       		.uleb128 0x16
 3206 0667 5B070000 		.4byte	.LASF89
 3207 066b 0B       		.byte	0xb
 3208 066c E7       		.byte	0xe7
 3209 066d 02030000 		.4byte	0x302
 3210 0671 16       		.uleb128 0x16
 3211 0672 40020000 		.4byte	.LASF90
 3212 0676 0B       		.byte	0xb
 3213 0677 EE       		.byte	0xee
 3214 0678 AB060000 		.4byte	0x6ab
 3215 067c 16       		.uleb128 0x16
 3216 067d B6000000 		.4byte	.LASF91
 3217 0681 0B       		.byte	0xb
 3218 0682 F3       		.byte	0xf3
 3219 0683 05010000 		.4byte	0x105
 3220 0687 16       		.uleb128 0x16
 3221 0688 2E020000 		.4byte	.LASF92
ARM GAS  /tmp/cc0yVrlH.s 			page 121


 3222 068c 0B       		.byte	0xb
 3223 068d FC       		.byte	0xfc
 3224 068e D6060000 		.4byte	0x6d6
 3225 0692 17       		.uleb128 0x17
 3226 0693 D9040000 		.4byte	.LASF93
 3227 0697 0B       		.byte	0xb
 3228 0698 0501     		.2byte	0x105
 3229 069a 0D070000 		.4byte	0x70d
 3230 069e 17       		.uleb128 0x17
 3231 069f 4E040000 		.4byte	.LASF94
 3232 06a3 0B       		.byte	0xb
 3233 06a4 0D01     		.2byte	0x10d
 3234 06a6 10010000 		.4byte	0x110
 3235 06aa 00       		.byte	0
 3236 06ab 0A       		.uleb128 0xa
 3237 06ac 04       		.byte	0x4
 3238 06ad 1A020000 		.4byte	0x21a
 3239 06b1 05       		.uleb128 0x5
 3240 06b2 A0040000 		.4byte	.LASF95
 3241 06b6 0C       		.byte	0xc
 3242 06b7 10       		.byte	0x10
 3243 06b8 34       		.byte	0x34
 3244 06b9 D6060000 		.4byte	0x6d6
 3245 06bd 06       		.uleb128 0x6
 3246 06be AE010000 		.4byte	.LASF28
 3247 06c2 10       		.byte	0x10
 3248 06c3 35       		.byte	0x35
 3249 06c4 4F020000 		.4byte	0x24f
 3250 06c8 00       		.byte	0
 3251 06c9 07       		.uleb128 0x7
 3252 06ca 636E7400 		.ascii	"cnt\000"
 3253 06ce 10       		.byte	0x10
 3254 06cf 37       		.byte	0x37
 3255 06d0 1B010000 		.4byte	0x11b
 3256 06d4 08       		.byte	0x8
 3257 06d5 00       		.byte	0
 3258 06d6 0A       		.uleb128 0xa
 3259 06d7 04       		.byte	0x4
 3260 06d8 B1060000 		.4byte	0x6b1
 3261 06dc 05       		.uleb128 0x5
 3262 06dd 2F060000 		.4byte	.LASF96
 3263 06e1 10       		.byte	0x10
 3264 06e2 11       		.byte	0x11
 3265 06e3 39       		.byte	0x39
 3266 06e4 0D070000 		.4byte	0x70d
 3267 06e8 06       		.uleb128 0x6
 3268 06e9 AE010000 		.4byte	.LASF28
 3269 06ed 11       		.byte	0x11
 3270 06ee 3A       		.byte	0x3a
 3271 06ef 4F020000 		.4byte	0x24f
 3272 06f3 00       		.byte	0
 3273 06f4 06       		.uleb128 0x6
 3274 06f5 FC040000 		.4byte	.LASF97
 3275 06f9 11       		.byte	0x11
 3276 06fa 3C       		.byte	0x3c
 3277 06fb 25020000 		.4byte	0x225
 3278 06ff 08       		.byte	0x8
ARM GAS  /tmp/cc0yVrlH.s 			page 122


 3279 0700 06       		.uleb128 0x6
 3280 0701 19000000 		.4byte	.LASF47
 3281 0705 11       		.byte	0x11
 3282 0706 3E       		.byte	0x3e
 3283 0707 41070000 		.4byte	0x741
 3284 070b 0C       		.byte	0xc
 3285 070c 00       		.byte	0
 3286 070d 0A       		.uleb128 0xa
 3287 070e 04       		.byte	0x4
 3288 070f DC060000 		.4byte	0x6dc
 3289 0713 0A       		.uleb128 0xa
 3290 0714 04       		.byte	0x4
 3291 0715 19070000 		.4byte	0x719
 3292 0719 18       		.uleb128 0x18
 3293 071a 1E070000 		.4byte	0x71e
 3294 071e 04       		.uleb128 0x4
 3295 071f 01       		.byte	0x1
 3296 0720 08       		.byte	0x8
 3297 0721 20050000 		.4byte	.LASF98
 3298 0725 0A       		.uleb128 0xa
 3299 0726 04       		.byte	0x4
 3300 0727 61040000 		.4byte	0x461
 3301 072b 0A       		.uleb128 0xa
 3302 072c 04       		.byte	0x4
 3303 072d 04030000 		.4byte	0x304
 3304 0731 0F       		.uleb128 0xf
 3305 0732 13070000 		.4byte	0x713
 3306 0736 03       		.uleb128 0x3
 3307 0737 E5010000 		.4byte	.LASF99
 3308 073b 11       		.byte	0x11
 3309 073c 34       		.byte	0x34
 3310 073d DC060000 		.4byte	0x6dc
 3311 0741 0A       		.uleb128 0xa
 3312 0742 04       		.byte	0x4
 3313 0743 36070000 		.4byte	0x736
 3314 0747 05       		.uleb128 0x5
 3315 0748 5F040000 		.4byte	.LASF100
 3316 074c 10       		.byte	0x10
 3317 074d 12       		.byte	0x12
 3318 074e 46       		.byte	0x46
 3319 074f 84070000 		.4byte	0x784
 3320 0753 06       		.uleb128 0x6
 3321 0754 02030000 		.4byte	.LASF101
 3322 0758 12       		.byte	0x12
 3323 0759 47       		.byte	0x47
 3324 075a A8070000 		.4byte	0x7a8
 3325 075e 00       		.byte	0
 3326 075f 06       		.uleb128 0x6
 3327 0760 1B050000 		.4byte	.LASF102
 3328 0764 12       		.byte	0x12
 3329 0765 47       		.byte	0x47
 3330 0766 CD070000 		.4byte	0x7cd
 3331 076a 04       		.byte	0x4
 3332 076b 07       		.uleb128 0x7
 3333 076c 70757400 		.ascii	"put\000"
 3334 0770 12       		.byte	0x12
 3335 0771 47       		.byte	0x47
ARM GAS  /tmp/cc0yVrlH.s 			page 123


 3336 0772 E7070000 		.4byte	0x7e7
 3337 0776 08       		.byte	0x8
 3338 0777 07       		.uleb128 0x7
 3339 0778 67657400 		.ascii	"get\000"
 3340 077c 12       		.byte	0x12
 3341 077d 47       		.byte	0x47
 3342 077e FC070000 		.4byte	0x7fc
 3343 0782 0C       		.byte	0xc
 3344 0783 00       		.byte	0
 3345 0784 19       		.uleb128 0x19
 3346 0785 2C000000 		.4byte	0x2c
 3347 0789 9D070000 		.4byte	0x79d
 3348 078d 0D       		.uleb128 0xd
 3349 078e 02030000 		.4byte	0x302
 3350 0792 0D       		.uleb128 0xd
 3351 0793 9D070000 		.4byte	0x79d
 3352 0797 0D       		.uleb128 0xd
 3353 0798 2C000000 		.4byte	0x2c
 3354 079c 00       		.byte	0
 3355 079d 0A       		.uleb128 0xa
 3356 079e 04       		.byte	0x4
 3357 079f A3070000 		.4byte	0x7a3
 3358 07a3 18       		.uleb128 0x18
 3359 07a4 A2000000 		.4byte	0xa2
 3360 07a8 0A       		.uleb128 0xa
 3361 07a9 04       		.byte	0x4
 3362 07aa 84070000 		.4byte	0x784
 3363 07ae 19       		.uleb128 0x19
 3364 07af 2C000000 		.4byte	0x2c
 3365 07b3 C7070000 		.4byte	0x7c7
 3366 07b7 0D       		.uleb128 0xd
 3367 07b8 02030000 		.4byte	0x302
 3368 07bc 0D       		.uleb128 0xd
 3369 07bd C7070000 		.4byte	0x7c7
 3370 07c1 0D       		.uleb128 0xd
 3371 07c2 2C000000 		.4byte	0x2c
 3372 07c6 00       		.byte	0
 3373 07c7 0A       		.uleb128 0xa
 3374 07c8 04       		.byte	0x4
 3375 07c9 A2000000 		.4byte	0xa2
 3376 07cd 0A       		.uleb128 0xa
 3377 07ce 04       		.byte	0x4
 3378 07cf AE070000 		.4byte	0x7ae
 3379 07d3 19       		.uleb128 0x19
 3380 07d4 05010000 		.4byte	0x105
 3381 07d8 E7070000 		.4byte	0x7e7
 3382 07dc 0D       		.uleb128 0xd
 3383 07dd 02030000 		.4byte	0x302
 3384 07e1 0D       		.uleb128 0xd
 3385 07e2 A2000000 		.4byte	0xa2
 3386 07e6 00       		.byte	0
 3387 07e7 0A       		.uleb128 0xa
 3388 07e8 04       		.byte	0x4
 3389 07e9 D3070000 		.4byte	0x7d3
 3390 07ed 19       		.uleb128 0x19
 3391 07ee 05010000 		.4byte	0x105
 3392 07f2 FC070000 		.4byte	0x7fc
ARM GAS  /tmp/cc0yVrlH.s 			page 124


 3393 07f6 0D       		.uleb128 0xd
 3394 07f7 02030000 		.4byte	0x302
 3395 07fb 00       		.byte	0
 3396 07fc 0A       		.uleb128 0xa
 3397 07fd 04       		.byte	0x4
 3398 07fe ED070000 		.4byte	0x7ed
 3399 0802 14       		.uleb128 0x14
 3400 0803 04       		.byte	0x4
 3401 0804 12       		.byte	0x12
 3402 0805 4F       		.byte	0x4f
 3403 0806 17080000 		.4byte	0x817
 3404 080a 07       		.uleb128 0x7
 3405 080b 766D7400 		.ascii	"vmt\000"
 3406 080f 12       		.byte	0x12
 3407 0810 51       		.byte	0x51
 3408 0811 17080000 		.4byte	0x817
 3409 0815 00       		.byte	0
 3410 0816 00       		.byte	0
 3411 0817 0A       		.uleb128 0xa
 3412 0818 04       		.byte	0x4
 3413 0819 1D080000 		.4byte	0x81d
 3414 081d 18       		.uleb128 0x18
 3415 081e 47070000 		.4byte	0x747
 3416 0822 03       		.uleb128 0x3
 3417 0823 F3010000 		.4byte	.LASF103
 3418 0827 12       		.byte	0x12
 3419 0828 53       		.byte	0x53
 3420 0829 02080000 		.4byte	0x802
 3421 082d 04       		.uleb128 0x4
 3422 082e 01       		.byte	0x1
 3423 082f 02       		.byte	0x2
 3424 0830 17040000 		.4byte	.LASF104
 3425 0834 0A       		.uleb128 0xa
 3426 0835 04       		.byte	0x4
 3427 0836 3A080000 		.4byte	0x83a
 3428 083a 1A       		.uleb128 0x1a
 3429 083b 14       		.uleb128 0x14
 3430 083c 10       		.byte	0x10
 3431 083d 13       		.byte	0x13
 3432 083e 3D       		.byte	0x3d
 3433 083f 74080000 		.4byte	0x874
 3434 0843 06       		.uleb128 0x6
 3435 0844 4F020000 		.4byte	.LASF32
 3436 0848 13       		.byte	0x13
 3437 0849 3E       		.byte	0x3e
 3438 084a 13070000 		.4byte	0x713
 3439 084e 00       		.byte	0
 3440 084f 06       		.uleb128 0x6
 3441 0850 6C030000 		.4byte	.LASF105
 3442 0854 13       		.byte	0x13
 3443 0855 3F       		.byte	0x3f
 3444 0856 34080000 		.4byte	0x834
 3445 085a 04       		.byte	0x4
 3446 085b 06       		.uleb128 0x6
 3447 085c 04010000 		.4byte	.LASF106
 3448 0860 13       		.byte	0x13
 3449 0861 40       		.byte	0x40
ARM GAS  /tmp/cc0yVrlH.s 			page 125


 3450 0862 34080000 		.4byte	0x834
 3451 0866 08       		.byte	0x8
 3452 0867 06       		.uleb128 0x6
 3453 0868 33040000 		.4byte	.LASF107
 3454 086c 13       		.byte	0x13
 3455 086d 41       		.byte	0x41
 3456 086e 34080000 		.4byte	0x834
 3457 0872 0C       		.byte	0xc
 3458 0873 00       		.byte	0
 3459 0874 03       		.uleb128 0x3
 3460 0875 E1020000 		.4byte	.LASF108
 3461 0879 13       		.byte	0x13
 3462 087a 42       		.byte	0x42
 3463 087b 3B080000 		.4byte	0x83b
 3464 087f 1B       		.uleb128 0x1b
 3465 0880 84050000 		.4byte	.LASF114
 3466 0884 04       		.byte	0x4
 3467 0885 0601     		.2byte	0x106
 3468 0887 03       		.byte	0x3
 3469 0888 99080000 		.4byte	0x899
 3470 088c 1C       		.uleb128 0x1c
 3471 088d ED010000 		.4byte	.LASF117
 3472 0891 04       		.byte	0x4
 3473 0892 0601     		.2byte	0x106
 3474 0894 B8000000 		.4byte	0xb8
 3475 0898 00       		.byte	0
 3476 0899 1D       		.uleb128 0x1d
 3477 089a BD040000 		.4byte	.LASF111
 3478 089e 02       		.byte	0x2
 3479 089f 8B       		.byte	0x8b
 3480 08a0 26010000 		.4byte	0x126
 3481 08a4 03       		.byte	0x3
 3482 08a5 1E       		.uleb128 0x1e
 3483 08a6 65000000 		.4byte	.LASF109
 3484 08aa 0D       		.byte	0xd
 3485 08ab 5202     		.2byte	0x252
 3486 08ad 03       		.byte	0x3
 3487 08ae 1E       		.uleb128 0x1e
 3488 08af 50010000 		.4byte	.LASF110
 3489 08b3 0D       		.byte	0xd
 3490 08b4 6A02     		.2byte	0x26a
 3491 08b6 03       		.byte	0x3
 3492 08b7 1D       		.uleb128 0x1d
 3493 08b8 EC050000 		.4byte	.LASF112
 3494 08bc 14       		.byte	0x14
 3495 08bd 69       		.byte	0x69
 3496 08be 26010000 		.4byte	0x126
 3497 08c2 03       		.byte	0x3
 3498 08c3 1E       		.uleb128 0x1e
 3499 08c4 77040000 		.4byte	.LASF113
 3500 08c8 15       		.byte	0x15
 3501 08c9 7601     		.2byte	0x176
 3502 08cb 03       		.byte	0x3
 3503 08cc 1B       		.uleb128 0x1b
 3504 08cd 98070000 		.4byte	.LASF115
 3505 08d1 15       		.byte	0x15
 3506 08d2 8201     		.2byte	0x182
ARM GAS  /tmp/cc0yVrlH.s 			page 126


 3507 08d4 03       		.byte	0x3
 3508 08d5 E7080000 		.4byte	0x8e7
 3509 08d9 1F       		.uleb128 0x1f
 3510 08da DE050000 		.4byte	.LASF127
 3511 08de F7080000 		.4byte	0x8f7
 3512 08e2 98070000 		.4byte	.LASF115
 3513 08e6 00       		.byte	0
 3514 08e7 10       		.uleb128 0x10
 3515 08e8 1E070000 		.4byte	0x71e
 3516 08ec F7080000 		.4byte	0x8f7
 3517 08f0 11       		.uleb128 0x11
 3518 08f1 2A040000 		.4byte	0x42a
 3519 08f5 0B       		.byte	0xb
 3520 08f6 00       		.byte	0
 3521 08f7 18       		.uleb128 0x18
 3522 08f8 E7080000 		.4byte	0x8e7
 3523 08fc 1D       		.uleb128 0x1d
 3524 08fd 0E020000 		.4byte	.LASF116
 3525 0901 03       		.byte	0x3
 3526 0902 E4       		.byte	0xe4
 3527 0903 26010000 		.4byte	0x126
 3528 0907 03       		.byte	0x3
 3529 0908 20       		.uleb128 0x20
 3530 0909 7E070000 		.4byte	.LASF122
 3531 090d 03       		.byte	0x3
 3532 090e 1C01     		.2byte	0x11c
 3533 0910 2D080000 		.4byte	0x82d
 3534 0914 03       		.byte	0x3
 3535 0915 3E090000 		.4byte	0x93e
 3536 0919 1C       		.uleb128 0x1c
 3537 091a 88030000 		.4byte	.LASF118
 3538 091e 03       		.byte	0x3
 3539 091f 1C01     		.2byte	0x11c
 3540 0921 26010000 		.4byte	0x126
 3541 0925 1C       		.uleb128 0x1c
 3542 0926 A4070000 		.4byte	.LASF119
 3543 092a 03       		.byte	0x3
 3544 092b 1D01     		.2byte	0x11d
 3545 092d 26010000 		.4byte	0x126
 3546 0931 21       		.uleb128 0x21
 3547 0932 656E6400 		.ascii	"end\000"
 3548 0936 03       		.byte	0x3
 3549 0937 1E01     		.2byte	0x11e
 3550 0939 26010000 		.4byte	0x126
 3551 093d 00       		.byte	0
 3552 093e 22       		.uleb128 0x22
 3553 093f 6E060000 		.4byte	.LASF120
 3554 0943 01       		.byte	0x1
 3555 0944 41       		.byte	0x41
 3556 0945 01       		.byte	0x1
 3557 0946 23       		.uleb128 0x23
 3558 0947 96020000 		.4byte	.LASF124
 3559 094b 01       		.byte	0x1
 3560 094c 66       		.byte	0x66
 3561 094d 2D080000 		.4byte	0x82d
 3562 0951 01       		.byte	0x1
 3563 0952 62090000 		.4byte	0x962
ARM GAS  /tmp/cc0yVrlH.s 			page 127


 3564 0956 24       		.uleb128 0x24
 3565 0957 6D736700 		.ascii	"msg\000"
 3566 095b 01       		.byte	0x1
 3567 095c 66       		.byte	0x66
 3568 095d 13070000 		.4byte	0x713
 3569 0961 00       		.byte	0
 3570 0962 25       		.uleb128 0x25
 3571 0963 AA070000 		.4byte	.LASF121
 3572 0967 05       		.byte	0x5
 3573 0968 6802     		.2byte	0x268
 3574 096a 26010000 		.4byte	0x126
 3575 096e 03       		.byte	0x3
 3576 096f 20       		.uleb128 0x20
 3577 0970 9A030000 		.4byte	.LASF123
 3578 0974 05       		.byte	0x5
 3579 0975 7B02     		.2byte	0x27b
 3580 0977 2D080000 		.4byte	0x82d
 3581 097b 03       		.byte	0x3
 3582 097c A5090000 		.4byte	0x9a5
 3583 0980 1C       		.uleb128 0x1c
 3584 0981 88030000 		.4byte	.LASF118
 3585 0985 05       		.byte	0x5
 3586 0986 7B02     		.2byte	0x27b
 3587 0988 26010000 		.4byte	0x126
 3588 098c 1C       		.uleb128 0x1c
 3589 098d A4070000 		.4byte	.LASF119
 3590 0991 05       		.byte	0x5
 3591 0992 7C02     		.2byte	0x27c
 3592 0994 26010000 		.4byte	0x126
 3593 0998 21       		.uleb128 0x21
 3594 0999 656E6400 		.ascii	"end\000"
 3595 099d 05       		.byte	0x5
 3596 099e 7D02     		.2byte	0x27d
 3597 09a0 26010000 		.4byte	0x126
 3598 09a4 00       		.byte	0
 3599 09a5 23       		.uleb128 0x23
 3600 09a6 62070000 		.4byte	.LASF125
 3601 09aa 01       		.byte	0x1
 3602 09ab 6E       		.byte	0x6e
 3603 09ac 2D080000 		.4byte	0x82d
 3604 09b0 01       		.byte	0x1
 3605 09b1 CC090000 		.4byte	0x9cc
 3606 09b5 26       		.uleb128 0x26
 3607 09b6 90000000 		.4byte	.LASF126
 3608 09ba 01       		.byte	0x1
 3609 09bb 6E       		.byte	0x6e
 3610 09bc 2D080000 		.4byte	0x82d
 3611 09c0 24       		.uleb128 0x24
 3612 09c1 6D736700 		.ascii	"msg\000"
 3613 09c5 01       		.byte	0x1
 3614 09c6 6E       		.byte	0x6e
 3615 09c7 13070000 		.4byte	0x713
 3616 09cb 00       		.byte	0
 3617 09cc 27       		.uleb128 0x27
 3618 09cd E0040000 		.4byte	.LASF128
 3619 09d1 01       		.byte	0x1
 3620 09d2 94       		.byte	0x94
ARM GAS  /tmp/cc0yVrlH.s 			page 128


 3621 09d3 01       		.byte	0x1
 3622 09d4 F6090000 		.4byte	0x9f6
 3623 09d8 24       		.uleb128 0x24
 3624 09d9 6E00     		.ascii	"n\000"
 3625 09db 01       		.byte	0x1
 3626 09dc 94       		.byte	0x94
 3627 09dd B8000000 		.4byte	0xb8
 3628 09e1 28       		.uleb128 0x28
 3629 09e2 62756600 		.ascii	"buf\000"
 3630 09e6 01       		.byte	0x1
 3631 09e7 95       		.byte	0x95
 3632 09e8 F6090000 		.4byte	0x9f6
 3633 09ec 28       		.uleb128 0x28
 3634 09ed 7000     		.ascii	"p\000"
 3635 09ef 01       		.byte	0x1
 3636 09f0 95       		.byte	0x95
 3637 09f1 060A0000 		.4byte	0xa06
 3638 09f5 00       		.byte	0
 3639 09f6 10       		.uleb128 0x10
 3640 09f7 1E070000 		.4byte	0x71e
 3641 09fb 060A0000 		.4byte	0xa06
 3642 09ff 11       		.uleb128 0x11
 3643 0a00 2A040000 		.4byte	0x42a
 3644 0a04 0F       		.byte	0xf
 3645 0a05 00       		.byte	0
 3646 0a06 0A       		.uleb128 0xa
 3647 0a07 04       		.byte	0x4
 3648 0a08 1E070000 		.4byte	0x71e
 3649 0a0c 27       		.uleb128 0x27
 3650 0a0d EC020000 		.4byte	.LASF129
 3651 0a11 01       		.byte	0x1
 3652 0a12 A9       		.byte	0xa9
 3653 0a13 01       		.byte	0x1
 3654 0a14 240A0000 		.4byte	0xa24
 3655 0a18 26       		.uleb128 0x26
 3656 0a19 D1020000 		.4byte	.LASF130
 3657 0a1d 01       		.byte	0x1
 3658 0a1e A9       		.byte	0xa9
 3659 0a1f 13070000 		.4byte	0x713
 3660 0a23 00       		.byte	0
 3661 0a24 1E       		.uleb128 0x1e
 3662 0a25 D9010000 		.4byte	.LASF131
 3663 0a29 05       		.byte	0x5
 3664 0a2a EB01     		.2byte	0x1eb
 3665 0a2c 03       		.byte	0x3
 3666 0a2d 1E       		.uleb128 0x1e
 3667 0a2e 81040000 		.4byte	.LASF132
 3668 0a32 05       		.byte	0x5
 3669 0a33 F601     		.2byte	0x1f6
 3670 0a35 03       		.byte	0x3
 3671 0a36 1B       		.uleb128 0x1b
 3672 0a37 2B050000 		.4byte	.LASF133
 3673 0a3b 05       		.byte	0x5
 3674 0a3c 9F02     		.2byte	0x29f
 3675 0a3e 03       		.byte	0x3
 3676 0a3f 500A0000 		.4byte	0xa50
 3677 0a43 1C       		.uleb128 0x1c
ARM GAS  /tmp/cc0yVrlH.s 			page 129


 3678 0a44 88030000 		.4byte	.LASF118
 3679 0a48 05       		.byte	0x5
 3680 0a49 9F02     		.2byte	0x29f
 3681 0a4b 26010000 		.4byte	0x126
 3682 0a4f 00       		.byte	0
 3683 0a50 29       		.uleb128 0x29
 3684 0a51 35020000 		.4byte	.LASF157
 3685 0a55 01       		.byte	0x1
 3686 0a56 5A       		.byte	0x5a
 3687 0a57 00000000 		.4byte	.LFB273
 3688 0a5b 2C000000 		.4byte	.LFE273-.LFB273
 3689 0a5f 01       		.uleb128 0x1
 3690 0a60 9C       		.byte	0x9c
 3691 0a61 970A0000 		.4byte	0xa97
 3692 0a65 2A       		.uleb128 0x2a
 3693 0a66 6900     		.ascii	"i\000"
 3694 0a68 01       		.byte	0x1
 3695 0a69 5B       		.byte	0x5b
 3696 0a6a 37000000 		.4byte	0x37
 3697 0a6e 00000000 		.4byte	.LLST0
 3698 0a72 2B       		.uleb128 0x2b
 3699 0a73 12000000 		.4byte	.LVL2
 3700 0a77 820A0000 		.4byte	0xa82
 3701 0a7b 2C       		.uleb128 0x2c
 3702 0a7c 01       		.uleb128 0x1
 3703 0a7d 51       		.byte	0x51
 3704 0a7e 02       		.uleb128 0x2
 3705 0a7f 08       		.byte	0x8
 3706 0a80 2D       		.byte	0x2d
 3707 0a81 00       		.byte	0
 3708 0a82 2D       		.uleb128 0x2d
 3709 0a83 22000000 		.4byte	.LVL4
 3710 0a87 2C       		.uleb128 0x2c
 3711 0a88 01       		.uleb128 0x1
 3712 0a89 52       		.byte	0x52
 3713 0a8a 01       		.uleb128 0x1
 3714 0a8b 32       		.byte	0x32
 3715 0a8c 2C       		.uleb128 0x2c
 3716 0a8d 01       		.uleb128 0x1
 3717 0a8e 51       		.byte	0x51
 3718 0a8f 05       		.uleb128 0x5
 3719 0a90 03       		.byte	0x3
 3720 0a91 00000000 		.4byte	.LC0
 3721 0a95 00       		.byte	0
 3722 0a96 00       		.byte	0
 3723 0a97 2E       		.uleb128 0x2e
 3724 0a98 46090000 		.4byte	0x946
 3725 0a9c 00000000 		.4byte	.LFB274
 3726 0aa0 1C000000 		.4byte	.LFE274-.LFB274
 3727 0aa4 01       		.uleb128 0x1
 3728 0aa5 9C       		.byte	0x9c
 3729 0aa6 B40A0000 		.4byte	0xab4
 3730 0aaa 2F       		.uleb128 0x2f
 3731 0aab 56090000 		.4byte	0x956
 3732 0aaf 44000000 		.4byte	.LLST1
 3733 0ab3 00       		.byte	0
 3734 0ab4 2E       		.uleb128 0x2e
ARM GAS  /tmp/cc0yVrlH.s 			page 130


 3735 0ab5 A5090000 		.4byte	0x9a5
 3736 0ab9 00000000 		.4byte	.LFB275
 3737 0abd 2C000000 		.4byte	.LFE275-.LFB275
 3738 0ac1 01       		.uleb128 0x1
 3739 0ac2 9C       		.byte	0x9c
 3740 0ac3 F10A0000 		.4byte	0xaf1
 3741 0ac7 2F       		.uleb128 0x2f
 3742 0ac8 B5090000 		.4byte	0x9b5
 3743 0acc 66000000 		.4byte	.LLST2
 3744 0ad0 30       		.uleb128 0x30
 3745 0ad1 C0090000 		.4byte	0x9c0
 3746 0ad5 01       		.uleb128 0x1
 3747 0ad6 51       		.byte	0x51
 3748 0ad7 31       		.uleb128 0x31
 3749 0ad8 46090000 		.4byte	0x946
 3750 0adc 04000000 		.4byte	.LBB102
 3751 0ae0 0E000000 		.4byte	.LBE102-.LBB102
 3752 0ae4 01       		.byte	0x1
 3753 0ae5 71       		.byte	0x71
 3754 0ae6 2F       		.uleb128 0x2f
 3755 0ae7 56090000 		.4byte	0x956
 3756 0aeb A0000000 		.4byte	.LLST3
 3757 0aef 00       		.byte	0
 3758 0af0 00       		.byte	0
 3759 0af1 32       		.uleb128 0x32
 3760 0af2 72030000 		.4byte	.LASF135
 3761 0af6 01       		.byte	0x1
 3762 0af7 75       		.byte	0x75
 3763 0af8 2D080000 		.4byte	0x82d
 3764 0afc 00000000 		.4byte	.LFB276
 3765 0b00 4C000000 		.4byte	.LFE276-.LFB276
 3766 0b04 01       		.uleb128 0x1
 3767 0b05 9C       		.byte	0x9c
 3768 0b06 5B0B0000 		.4byte	0xb5b
 3769 0b0a 33       		.uleb128 0x33
 3770 0b0b 46020000 		.4byte	.LASF134
 3771 0b0f 01       		.byte	0x1
 3772 0b10 75       		.byte	0x75
 3773 0b11 060A0000 		.4byte	0xa06
 3774 0b15 B3000000 		.4byte	.LLST4
 3775 0b19 34       		.uleb128 0x34
 3776 0b1a 6D736700 		.ascii	"msg\000"
 3777 0b1e 01       		.byte	0x1
 3778 0b1f 75       		.byte	0x75
 3779 0b20 13070000 		.4byte	0x713
 3780 0b24 01       		.uleb128 0x1
 3781 0b25 51       		.byte	0x51
 3782 0b26 2A       		.uleb128 0x2a
 3783 0b27 637000   		.ascii	"cp\000"
 3784 0b2a 01       		.byte	0x1
 3785 0b2b 76       		.byte	0x76
 3786 0b2c 060A0000 		.4byte	0xa06
 3787 0b30 DE000000 		.4byte	.LLST5
 3788 0b34 35       		.uleb128 0x35
 3789 0b35 3E090000 		.4byte	0x93e
 3790 0b39 20000000 		.4byte	.LBB104
 3791 0b3d 02000000 		.4byte	.LBE104-.LBB104
ARM GAS  /tmp/cc0yVrlH.s 			page 131


 3792 0b41 01       		.byte	0x1
 3793 0b42 80       		.byte	0x80
 3794 0b43 31       		.uleb128 0x31
 3795 0b44 46090000 		.4byte	0x946
 3796 0b48 26000000 		.4byte	.LBB106
 3797 0b4c 0E000000 		.4byte	.LBE106-.LBB106
 3798 0b50 01       		.byte	0x1
 3799 0b51 7A       		.byte	0x7a
 3800 0b52 30       		.uleb128 0x30
 3801 0b53 56090000 		.4byte	0x956
 3802 0b57 01       		.uleb128 0x1
 3803 0b58 51       		.byte	0x51
 3804 0b59 00       		.byte	0
 3805 0b5a 00       		.byte	0
 3806 0b5b 32       		.uleb128 0x32
 3807 0b5c 7D010000 		.4byte	.LASF136
 3808 0b60 01       		.byte	0x1
 3809 0b61 85       		.byte	0x85
 3810 0b62 2D080000 		.4byte	0x82d
 3811 0b66 00000000 		.4byte	.LFB277
 3812 0b6a 38000000 		.4byte	.LFE277-.LFB277
 3813 0b6e 01       		.uleb128 0x1
 3814 0b6f 9C       		.byte	0x9c
 3815 0b70 6C0C0000 		.4byte	0xc6c
 3816 0b74 33       		.uleb128 0x33
 3817 0b75 A4070000 		.4byte	.LASF119
 3818 0b79 01       		.byte	0x1
 3819 0b7a 85       		.byte	0x85
 3820 0b7b 26010000 		.4byte	0x126
 3821 0b7f 19010000 		.4byte	.LLST6
 3822 0b83 36       		.uleb128 0x36
 3823 0b84 656E6400 		.ascii	"end\000"
 3824 0b88 01       		.byte	0x1
 3825 0b89 86       		.byte	0x86
 3826 0b8a 26010000 		.4byte	0x126
 3827 0b8e 3A010000 		.4byte	.LLST7
 3828 0b92 34       		.uleb128 0x34
 3829 0b93 6D736700 		.ascii	"msg\000"
 3830 0b97 01       		.byte	0x1
 3831 0b98 87       		.byte	0x87
 3832 0b99 13070000 		.4byte	0x713
 3833 0b9d 01       		.uleb128 0x1
 3834 0b9e 52       		.byte	0x52
 3835 0b9f 37       		.uleb128 0x37
 3836 0ba0 62090000 		.4byte	0x962
 3837 0ba4 00000000 		.4byte	.LBB108
 3838 0ba8 00000000 		.4byte	.Ldebug_ranges0+0
 3839 0bac 01       		.byte	0x1
 3840 0bad 89       		.byte	0x89
 3841 0bae E30B0000 		.4byte	0xbe3
 3842 0bb2 38       		.uleb128 0x38
 3843 0bb3 FC080000 		.4byte	0x8fc
 3844 0bb7 00000000 		.4byte	.LBB109
 3845 0bbb 00000000 		.4byte	.Ldebug_ranges0+0
 3846 0bbf 05       		.byte	0x5
 3847 0bc0 6A02     		.2byte	0x26a
 3848 0bc2 39       		.uleb128 0x39
ARM GAS  /tmp/cc0yVrlH.s 			page 132


 3849 0bc3 B7080000 		.4byte	0x8b7
 3850 0bc7 00000000 		.4byte	.LBB110
 3851 0bcb 00000000 		.4byte	.Ldebug_ranges0+0
 3852 0bcf 03       		.byte	0x3
 3853 0bd0 E9       		.byte	0xe9
 3854 0bd1 3A       		.uleb128 0x3a
 3855 0bd2 99080000 		.4byte	0x899
 3856 0bd6 00000000 		.4byte	.LBB111
 3857 0bda 00000000 		.4byte	.Ldebug_ranges0+0
 3858 0bde 14       		.byte	0x14
 3859 0bdf 6B       		.byte	0x6b
 3860 0be0 00       		.byte	0
 3861 0be1 00       		.byte	0
 3862 0be2 00       		.byte	0
 3863 0be3 37       		.uleb128 0x37
 3864 0be4 6F090000 		.4byte	0x96f
 3865 0be8 04000000 		.4byte	.LBB117
 3866 0bec 18000000 		.4byte	.Ldebug_ranges0+0x18
 3867 0bf0 01       		.byte	0x1
 3868 0bf1 89       		.byte	0x89
 3869 0bf2 360C0000 		.4byte	0xc36
 3870 0bf6 3B       		.uleb128 0x3b
 3871 0bf7 98090000 		.4byte	0x998
 3872 0bfb 2F       		.uleb128 0x2f
 3873 0bfc 8C090000 		.4byte	0x98c
 3874 0c00 5B010000 		.4byte	.LLST8
 3875 0c04 2F       		.uleb128 0x2f
 3876 0c05 80090000 		.4byte	0x980
 3877 0c09 7C010000 		.4byte	.LLST9
 3878 0c0d 38       		.uleb128 0x38
 3879 0c0e 08090000 		.4byte	0x908
 3880 0c12 04000000 		.4byte	.LBB118
 3881 0c16 18000000 		.4byte	.Ldebug_ranges0+0x18
 3882 0c1a 05       		.byte	0x5
 3883 0c1b 7F02     		.2byte	0x27f
 3884 0c1d 3B       		.uleb128 0x3b
 3885 0c1e 31090000 		.4byte	0x931
 3886 0c22 2F       		.uleb128 0x2f
 3887 0c23 25090000 		.4byte	0x925
 3888 0c27 5B010000 		.4byte	.LLST8
 3889 0c2b 2F       		.uleb128 0x2f
 3890 0c2c 19090000 		.4byte	0x919
 3891 0c30 7C010000 		.4byte	.LLST9
 3892 0c34 00       		.byte	0
 3893 0c35 00       		.byte	0
 3894 0c36 39       		.uleb128 0x39
 3895 0c37 A5090000 		.4byte	0x9a5
 3896 0c3b 0A000000 		.4byte	.LBB124
 3897 0c3f 30000000 		.4byte	.Ldebug_ranges0+0x30
 3898 0c43 01       		.byte	0x1
 3899 0c44 89       		.byte	0x89
 3900 0c45 30       		.uleb128 0x30
 3901 0c46 C0090000 		.4byte	0x9c0
 3902 0c4a 01       		.uleb128 0x1
 3903 0c4b 52       		.byte	0x52
 3904 0c4c 3B       		.uleb128 0x3b
 3905 0c4d B5090000 		.4byte	0x9b5
ARM GAS  /tmp/cc0yVrlH.s 			page 133


 3906 0c51 31       		.uleb128 0x31
 3907 0c52 46090000 		.4byte	0x946
 3908 0c56 10000000 		.4byte	.LBB126
 3909 0c5a 0E000000 		.4byte	.LBE126-.LBB126
 3910 0c5e 01       		.byte	0x1
 3911 0c5f 71       		.byte	0x71
 3912 0c60 2F       		.uleb128 0x2f
 3913 0c61 56090000 		.4byte	0x956
 3914 0c65 9A010000 		.4byte	.LLST12
 3915 0c69 00       		.byte	0
 3916 0c6a 00       		.byte	0
 3917 0c6b 00       		.byte	0
 3918 0c6c 3C       		.uleb128 0x3c
 3919 0c6d CC090000 		.4byte	0x9cc
 3920 0c71 00000000 		.4byte	.LFB278
 3921 0c75 68000000 		.4byte	.LFE278-.LFB278
 3922 0c79 01       		.uleb128 0x1
 3923 0c7a 9C       		.byte	0x9c
 3924 0c7b CA0C0000 		.4byte	0xcca
 3925 0c7f 2F       		.uleb128 0x2f
 3926 0c80 D8090000 		.4byte	0x9d8
 3927 0c84 AD010000 		.4byte	.LLST13
 3928 0c88 3D       		.uleb128 0x3d
 3929 0c89 E1090000 		.4byte	0x9e1
 3930 0c8d 02       		.uleb128 0x2
 3931 0c8e 91       		.byte	0x91
 3932 0c8f 60       		.sleb128 -32
 3933 0c90 3E       		.uleb128 0x3e
 3934 0c91 EC090000 		.4byte	0x9ec
 3935 0c95 EF010000 		.4byte	.LLST14
 3936 0c99 3F       		.uleb128 0x3f
 3937 0c9a 4E000000 		.4byte	.LBB134
 3938 0c9e 0C000000 		.4byte	.LBE134-.LBB134
 3939 0ca2 40       		.uleb128 0x40
 3940 0ca3 D8090000 		.4byte	0x9d8
 3941 0ca7 00       		.byte	0
 3942 0ca8 3F       		.uleb128 0x3f
 3943 0ca9 4E000000 		.4byte	.LBB135
 3944 0cad 0C000000 		.4byte	.LBE135-.LBB135
 3945 0cb1 41       		.uleb128 0x41
 3946 0cb2 E1090000 		.4byte	0x9e1
 3947 0cb6 41       		.uleb128 0x41
 3948 0cb7 EC090000 		.4byte	0x9ec
 3949 0cbb 2D       		.uleb128 0x2d
 3950 0cbc 5A000000 		.4byte	.LVL38
 3951 0cc0 2C       		.uleb128 0x2c
 3952 0cc1 01       		.uleb128 0x1
 3953 0cc2 51       		.byte	0x51
 3954 0cc3 02       		.uleb128 0x2
 3955 0cc4 08       		.byte	0x8
 3956 0cc5 30       		.byte	0x30
 3957 0cc6 00       		.byte	0
 3958 0cc7 00       		.byte	0
 3959 0cc8 00       		.byte	0
 3960 0cc9 00       		.byte	0
 3961 0cca 3C       		.uleb128 0x3c
 3962 0ccb 0C0A0000 		.4byte	0xa0c
ARM GAS  /tmp/cc0yVrlH.s 			page 134


 3963 0ccf 00000000 		.4byte	.LFB279
 3964 0cd3 20000000 		.4byte	.LFE279-.LFB279
 3965 0cd7 01       		.uleb128 0x1
 3966 0cd8 9C       		.byte	0x9c
 3967 0cd9 E70C0000 		.4byte	0xce7
 3968 0cdd 2F       		.uleb128 0x2f
 3969 0cde 180A0000 		.4byte	0xa18
 3970 0ce2 3F020000 		.4byte	.LLST15
 3971 0ce6 00       		.byte	0
 3972 0ce7 42       		.uleb128 0x42
 3973 0ce8 3B010000 		.4byte	.LASF137
 3974 0cec 01       		.byte	0x1
 3975 0ced B6       		.byte	0xb6
 3976 0cee 00000000 		.4byte	.LFB280
 3977 0cf2 30000000 		.4byte	.LFE280-.LFB280
 3978 0cf6 01       		.uleb128 0x1
 3979 0cf7 9C       		.byte	0x9c
 3980 0cf8 3D0D0000 		.4byte	0xd3d
 3981 0cfc 33       		.uleb128 0x33
 3982 0cfd D1020000 		.4byte	.LASF130
 3983 0d01 01       		.byte	0x1
 3984 0d02 B6       		.byte	0xb6
 3985 0d03 13070000 		.4byte	0x713
 3986 0d07 75020000 		.4byte	.LLST16
 3987 0d0b 43       		.uleb128 0x43
 3988 0d0c 0C0A0000 		.4byte	0xa0c
 3989 0d10 02000000 		.4byte	.LBB136
 3990 0d14 18000000 		.4byte	.LBE136-.LBB136
 3991 0d18 01       		.byte	0x1
 3992 0d19 B8       		.byte	0xb8
 3993 0d1a 280D0000 		.4byte	0xd28
 3994 0d1e 2F       		.uleb128 0x2f
 3995 0d1f 180A0000 		.4byte	0xa18
 3996 0d23 96020000 		.4byte	.LLST17
 3997 0d27 00       		.byte	0
 3998 0d28 2D       		.uleb128 0x2d
 3999 0d29 26000000 		.4byte	.LVL51
 4000 0d2d 2C       		.uleb128 0x2c
 4001 0d2e 01       		.uleb128 0x1
 4002 0d2f 52       		.byte	0x52
 4003 0d30 01       		.uleb128 0x1
 4004 0d31 32       		.byte	0x32
 4005 0d32 2C       		.uleb128 0x2c
 4006 0d33 01       		.uleb128 0x1
 4007 0d34 51       		.byte	0x51
 4008 0d35 05       		.uleb128 0x5
 4009 0d36 03       		.byte	0x3
 4010 0d37 00000000 		.4byte	.LC0
 4011 0d3b 00       		.byte	0
 4012 0d3c 00       		.byte	0
 4013 0d3d 44       		.uleb128 0x44
 4014 0d3e 2B010000 		.4byte	.LASF138
 4015 0d42 01       		.byte	0x1
 4016 0d43 C3       		.byte	0xc3
 4017 0d44 00000000 		.4byte	.LFB281
 4018 0d48 28000000 		.4byte	.LFE281-.LFB281
 4019 0d4c 01       		.uleb128 0x1
ARM GAS  /tmp/cc0yVrlH.s 			page 135


 4020 0d4d 9C       		.byte	0x9c
 4021 0d4e 050E0000 		.4byte	0xe05
 4022 0d52 45       		.uleb128 0x45
 4023 0d53 AE030000 		.4byte	.LASF139
 4024 0d57 01       		.byte	0x1
 4025 0d58 C3       		.byte	0xc3
 4026 0d59 1E070000 		.4byte	0x71e
 4027 0d5d 01       		.uleb128 0x1
 4028 0d5e 50       		.byte	0x50
 4029 0d5f 43       		.uleb128 0x43
 4030 0d60 240A0000 		.4byte	0xa24
 4031 0d64 00000000 		.4byte	.LBB138
 4032 0d68 06000000 		.4byte	.LBE138-.LBB138
 4033 0d6c 01       		.byte	0x1
 4034 0d6d C5       		.byte	0xc5
 4035 0d6e AC0D0000 		.4byte	0xdac
 4036 0d72 46       		.uleb128 0x46
 4037 0d73 C3080000 		.4byte	0x8c3
 4038 0d77 00000000 		.4byte	.LBB139
 4039 0d7b 06000000 		.4byte	.LBE139-.LBB139
 4040 0d7f 05       		.byte	0x5
 4041 0d80 ED01     		.2byte	0x1ed
 4042 0d82 46       		.uleb128 0x46
 4043 0d83 A5080000 		.4byte	0x8a5
 4044 0d87 00000000 		.4byte	.LBB140
 4045 0d8b 06000000 		.4byte	.LBE140-.LBB140
 4046 0d8f 15       		.byte	0x15
 4047 0d90 7801     		.2byte	0x178
 4048 0d92 46       		.uleb128 0x46
 4049 0d93 7F080000 		.4byte	0x87f
 4050 0d97 00000000 		.4byte	.LBB141
 4051 0d9b 06000000 		.4byte	.LBE141-.LBB141
 4052 0d9f 0D       		.byte	0xd
 4053 0da0 5A02     		.2byte	0x25a
 4054 0da2 40       		.uleb128 0x40
 4055 0da3 8C080000 		.4byte	0x88c
 4056 0da7 20       		.byte	0x20
 4057 0da8 00       		.byte	0
 4058 0da9 00       		.byte	0
 4059 0daa 00       		.byte	0
 4060 0dab 00       		.byte	0
 4061 0dac 31       		.uleb128 0x31
 4062 0dad 2D0A0000 		.4byte	0xa2d
 4063 0db1 16000000 		.4byte	.LBB143
 4064 0db5 12000000 		.4byte	.LBE143-.LBB143
 4065 0db9 01       		.byte	0x1
 4066 0dba C8       		.byte	0xc8
 4067 0dbb 46       		.uleb128 0x46
 4068 0dbc CC080000 		.4byte	0x8cc
 4069 0dc0 16000000 		.4byte	.LBB144
 4070 0dc4 12000000 		.4byte	.LBE144-.LBB144
 4071 0dc8 05       		.byte	0x5
 4072 0dc9 F801     		.2byte	0x1f8
 4073 0dcb 3F       		.uleb128 0x3f
 4074 0dcc 16000000 		.4byte	.LBB145
 4075 0dd0 12000000 		.4byte	.LBE145-.LBB145
 4076 0dd4 41       		.uleb128 0x41
ARM GAS  /tmp/cc0yVrlH.s 			page 136


 4077 0dd5 D9080000 		.4byte	0x8d9
 4078 0dd9 46       		.uleb128 0x46
 4079 0dda AE080000 		.4byte	0x8ae
 4080 0dde 16000000 		.4byte	.LBB146
 4081 0de2 12000000 		.4byte	.LBE146-.LBB146
 4082 0de6 15       		.byte	0x15
 4083 0de7 8F01     		.2byte	0x18f
 4084 0de9 46       		.uleb128 0x46
 4085 0dea 7F080000 		.4byte	0x87f
 4086 0dee 16000000 		.4byte	.LBB147
 4087 0df2 12000000 		.4byte	.LBE147-.LBB147
 4088 0df6 0D       		.byte	0xd
 4089 0df7 6D02     		.2byte	0x26d
 4090 0df9 40       		.uleb128 0x40
 4091 0dfa 8C080000 		.4byte	0x88c
 4092 0dfe 00       		.byte	0
 4093 0dff 00       		.byte	0
 4094 0e00 00       		.byte	0
 4095 0e01 00       		.byte	0
 4096 0e02 00       		.byte	0
 4097 0e03 00       		.byte	0
 4098 0e04 00       		.byte	0
 4099 0e05 44       		.uleb128 0x44
 4100 0e06 54050000 		.4byte	.LASF140
 4101 0e0a 01       		.byte	0x1
 4102 0e0b D2       		.byte	0xd2
 4103 0e0c 00000000 		.4byte	.LFB282
 4104 0e10 1C000000 		.4byte	.LFE282-.LFB282
 4105 0e14 01       		.uleb128 0x1
 4106 0e15 9C       		.byte	0x9c
 4107 0e16 280E0000 		.4byte	0xe28
 4108 0e1a 45       		.uleb128 0x45
 4109 0e1b AE030000 		.4byte	.LASF139
 4110 0e1f 01       		.byte	0x1
 4111 0e20 D2       		.byte	0xd2
 4112 0e21 1E070000 		.4byte	0x71e
 4113 0e25 01       		.uleb128 0x1
 4114 0e26 50       		.byte	0x50
 4115 0e27 00       		.byte	0
 4116 0e28 47       		.uleb128 0x47
 4117 0e29 38060000 		.4byte	.LASF141
 4118 0e2d 01       		.byte	0x1
 4119 0e2e 4D       		.byte	0x4d
 4120 0e2f 01       		.byte	0x1
 4121 0e30 400E0000 		.4byte	0xe40
 4122 0e34 24       		.uleb128 0x24
 4123 0e35 74637000 		.ascii	"tcp\000"
 4124 0e39 01       		.byte	0x1
 4125 0e3a 4D       		.byte	0x4d
 4126 0e3b 400E0000 		.4byte	0xe40
 4127 0e3f 00       		.byte	0
 4128 0e40 0A       		.uleb128 0xa
 4129 0e41 04       		.byte	0x4
 4130 0e42 460E0000 		.4byte	0xe46
 4131 0e46 18       		.uleb128 0x18
 4132 0e47 74080000 		.4byte	0x874
 4133 0e4b 47       		.uleb128 0x47
ARM GAS  /tmp/cc0yVrlH.s 			page 137


 4134 0e4c B4010000 		.4byte	.LASF142
 4135 0e50 01       		.byte	0x1
 4136 0e51 46       		.byte	0x46
 4137 0e52 01       		.byte	0x1
 4138 0e53 620E0000 		.4byte	0xe62
 4139 0e57 28       		.uleb128 0x28
 4140 0e58 637000   		.ascii	"cp\000"
 4141 0e5b 01       		.byte	0x1
 4142 0e5c 47       		.byte	0x47
 4143 0e5d 060A0000 		.4byte	0xa06
 4144 0e61 00       		.byte	0
 4145 0e62 48       		.uleb128 0x48
 4146 0e63 F7000000 		.4byte	.LASF143
 4147 0e67 01       		.byte	0x1
 4148 0e68 E3       		.byte	0xe3
 4149 0e69 05010000 		.4byte	0x105
 4150 0e6d 00000000 		.4byte	.LFB283
 4151 0e71 B0020000 		.4byte	.LFE283-.LFB283
 4152 0e75 01       		.uleb128 0x1
 4153 0e76 9C       		.byte	0x9c
 4154 0e77 01120000 		.4byte	0x1201
 4155 0e7b 33       		.uleb128 0x33
 4156 0e7c 5E000000 		.4byte	.LASF144
 4157 0e80 01       		.byte	0x1
 4158 0e81 E3       		.byte	0xe3
 4159 0e82 01120000 		.4byte	0x1201
 4160 0e86 CC020000 		.4byte	.LLST18
 4161 0e8a 2A       		.uleb128 0x2a
 4162 0e8b 6900     		.ascii	"i\000"
 4163 0e8d 01       		.byte	0x1
 4164 0e8e E4       		.byte	0xe4
 4165 0e8f 25000000 		.4byte	0x25
 4166 0e93 FC020000 		.4byte	.LLST19
 4167 0e97 2A       		.uleb128 0x2a
 4168 0e98 6A00     		.ascii	"j\000"
 4169 0e9a 01       		.byte	0x1
 4170 0e9b E4       		.byte	0xe4
 4171 0e9c 25000000 		.4byte	0x25
 4172 0ea0 55030000 		.4byte	.LLST20
 4173 0ea4 43       		.uleb128 0x43
 4174 0ea5 0C0A0000 		.4byte	0xa0c
 4175 0ea9 1E000000 		.4byte	.LBB181
 4176 0ead 12000000 		.4byte	.LBE181-.LBB181
 4177 0eb1 01       		.byte	0x1
 4178 0eb2 EE       		.byte	0xee
 4179 0eb3 C10E0000 		.4byte	0xec1
 4180 0eb7 2F       		.uleb128 0x2f
 4181 0eb8 180A0000 		.4byte	0xa18
 4182 0ebc 8D030000 		.4byte	.LLST21
 4183 0ec0 00       		.byte	0
 4184 0ec1 43       		.uleb128 0x43
 4185 0ec2 0C0A0000 		.4byte	0xa0c
 4186 0ec6 38000000 		.4byte	.LBB183
 4187 0eca 12000000 		.4byte	.LBE183-.LBB183
 4188 0ece 01       		.byte	0x1
 4189 0ecf F1       		.byte	0xf1
 4190 0ed0 DE0E0000 		.4byte	0xede
ARM GAS  /tmp/cc0yVrlH.s 			page 138


 4191 0ed4 2F       		.uleb128 0x2f
 4192 0ed5 180A0000 		.4byte	0xa18
 4193 0ed9 C8030000 		.4byte	.LLST22
 4194 0edd 00       		.byte	0
 4195 0ede 43       		.uleb128 0x43
 4196 0edf 0C0A0000 		.4byte	0xa0c
 4197 0ee3 52000000 		.4byte	.LBB185
 4198 0ee7 12000000 		.4byte	.LBE185-.LBB185
 4199 0eeb 01       		.byte	0x1
 4200 0eec F5       		.byte	0xf5
 4201 0eed FB0E0000 		.4byte	0xefb
 4202 0ef1 2F       		.uleb128 0x2f
 4203 0ef2 180A0000 		.4byte	0xa18
 4204 0ef6 03040000 		.4byte	.LLST23
 4205 0efa 00       		.byte	0
 4206 0efb 49       		.uleb128 0x49
 4207 0efc 0C0A0000 		.4byte	0xa0c
 4208 0f00 82000000 		.4byte	.LBB187
 4209 0f04 50000000 		.4byte	.Ldebug_ranges0+0x50
 4210 0f08 01       		.byte	0x1
 4211 0f09 0301     		.2byte	0x103
 4212 0f0b 190F0000 		.4byte	0xf19
 4213 0f0f 2F       		.uleb128 0x2f
 4214 0f10 180A0000 		.4byte	0xa18
 4215 0f14 3E040000 		.4byte	.LLST24
 4216 0f18 00       		.byte	0
 4217 0f19 49       		.uleb128 0x49
 4218 0f1a 0C0A0000 		.4byte	0xa0c
 4219 0f1e 8A000000 		.4byte	.LBB190
 4220 0f22 68000000 		.4byte	.Ldebug_ranges0+0x68
 4221 0f26 01       		.byte	0x1
 4222 0f27 1101     		.2byte	0x111
 4223 0f29 370F0000 		.4byte	0xf37
 4224 0f2d 2F       		.uleb128 0x2f
 4225 0f2e 180A0000 		.4byte	0xa18
 4226 0f32 79040000 		.4byte	.LLST25
 4227 0f36 00       		.byte	0
 4228 0f37 49       		.uleb128 0x49
 4229 0f38 0C0A0000 		.4byte	0xa0c
 4230 0f3c C0000000 		.4byte	.LBB195
 4231 0f40 88000000 		.4byte	.Ldebug_ranges0+0x88
 4232 0f44 01       		.byte	0x1
 4233 0f45 0501     		.2byte	0x105
 4234 0f47 5D0F0000 		.4byte	0xf5d
 4235 0f4b 3B       		.uleb128 0x3b
 4236 0f4c 180A0000 		.4byte	0xa18
 4237 0f50 2D       		.uleb128 0x2d
 4238 0f51 CE000000 		.4byte	.LVL92
 4239 0f55 2C       		.uleb128 0x2c
 4240 0f56 01       		.uleb128 0x1
 4241 0f57 51       		.byte	0x51
 4242 0f58 02       		.uleb128 0x2
 4243 0f59 08       		.byte	0x8
 4244 0f5a 2E       		.byte	0x2e
 4245 0f5b 00       		.byte	0
 4246 0f5c 00       		.byte	0
 4247 0f5d 4A       		.uleb128 0x4a
ARM GAS  /tmp/cc0yVrlH.s 			page 139


 4248 0f5e 0C0A0000 		.4byte	0xa0c
 4249 0f62 D4000000 		.4byte	.LBB199
 4250 0f66 12000000 		.4byte	.LBE199-.LBB199
 4251 0f6a 01       		.byte	0x1
 4252 0f6b 0701     		.2byte	0x107
 4253 0f6d 7B0F0000 		.4byte	0xf7b
 4254 0f71 2F       		.uleb128 0x2f
 4255 0f72 180A0000 		.4byte	0xa18
 4256 0f76 B4040000 		.4byte	.LLST27
 4257 0f7a 00       		.byte	0
 4258 0f7b 4A       		.uleb128 0x4a
 4259 0f7c 0C0A0000 		.4byte	0xa0c
 4260 0f80 F0000000 		.4byte	.LBB201
 4261 0f84 14000000 		.4byte	.LBE201-.LBB201
 4262 0f88 01       		.byte	0x1
 4263 0f89 0801     		.2byte	0x108
 4264 0f8b 990F0000 		.4byte	0xf99
 4265 0f8f 2F       		.uleb128 0x2f
 4266 0f90 180A0000 		.4byte	0xa18
 4267 0f94 EF040000 		.4byte	.LLST28
 4268 0f98 00       		.byte	0
 4269 0f99 49       		.uleb128 0x49
 4270 0f9a 280E0000 		.4byte	0xe28
 4271 0f9e 06010000 		.4byte	.LBB203
 4272 0fa2 A0000000 		.4byte	.Ldebug_ranges0+0xa0
 4273 0fa6 01       		.byte	0x1
 4274 0fa7 0D01     		.2byte	0x10d
 4275 0fa9 C60F0000 		.4byte	0xfc6
 4276 0fad 2F       		.uleb128 0x2f
 4277 0fae 340E0000 		.4byte	0xe34
 4278 0fb2 1A050000 		.4byte	.LLST29
 4279 0fb6 3A       		.uleb128 0x3a
 4280 0fb7 3E090000 		.4byte	0x93e
 4281 0fbb 06010000 		.4byte	.LBB205
 4282 0fbf C0000000 		.4byte	.Ldebug_ranges0+0xc0
 4283 0fc3 01       		.byte	0x1
 4284 0fc4 50       		.byte	0x50
 4285 0fc5 00       		.byte	0
 4286 0fc6 4A       		.uleb128 0x4a
 4287 0fc7 360A0000 		.4byte	0xa36
 4288 0fcb 14010000 		.4byte	.LBB213
 4289 0fcf 08000000 		.4byte	.LBE213-.LBB213
 4290 0fd3 01       		.byte	0x1
 4291 0fd4 0B01     		.2byte	0x10b
 4292 0fd6 F50F0000 		.4byte	0xff5
 4293 0fda 2F       		.uleb128 0x2f
 4294 0fdb 430A0000 		.4byte	0xa43
 4295 0fdf 38050000 		.4byte	.LLST30
 4296 0fe3 4B       		.uleb128 0x4b
 4297 0fe4 1C010000 		.4byte	.LVL105
 4298 0fe8 BB120000 		.4byte	0x12bb
 4299 0fec 2C       		.uleb128 0x2c
 4300 0fed 01       		.uleb128 0x1
 4301 0fee 50       		.byte	0x50
 4302 0fef 03       		.uleb128 0x3
 4303 0ff0 0A       		.byte	0xa
 4304 0ff1 D007     		.2byte	0x7d0
ARM GAS  /tmp/cc0yVrlH.s 			page 140


 4305 0ff3 00       		.byte	0
 4306 0ff4 00       		.byte	0
 4307 0ff5 4A       		.uleb128 0x4a
 4308 0ff6 0C0A0000 		.4byte	0xa0c
 4309 0ffa 50010000 		.4byte	.LBB217
 4310 0ffe 12000000 		.4byte	.LBE217-.LBB217
 4311 1002 01       		.byte	0x1
 4312 1003 0F01     		.2byte	0x10f
 4313 1005 13100000 		.4byte	0x1013
 4314 1009 2F       		.uleb128 0x2f
 4315 100a 180A0000 		.4byte	0xa18
 4316 100e 5C050000 		.4byte	.LLST31
 4317 1012 00       		.byte	0
 4318 1013 4A       		.uleb128 0x4a
 4319 1014 4B0E0000 		.4byte	0xe4b
 4320 1018 80010000 		.4byte	.LBB220
 4321 101c 22000000 		.4byte	.LBE220-.LBB220
 4322 1020 01       		.byte	0x1
 4323 1021 1201     		.2byte	0x112
 4324 1023 3B100000 		.4byte	0x103b
 4325 1027 3F       		.uleb128 0x3f
 4326 1028 80010000 		.4byte	.LBB221
 4327 102c 22000000 		.4byte	.LBE221-.LBB221
 4328 1030 3E       		.uleb128 0x3e
 4329 1031 570E0000 		.4byte	0xe57
 4330 1035 87050000 		.4byte	.LLST32
 4331 1039 00       		.byte	0
 4332 103a 00       		.byte	0
 4333 103b 4A       		.uleb128 0x4a
 4334 103c 0C0A0000 		.4byte	0xa0c
 4335 1040 A4010000 		.4byte	.LBB223
 4336 1044 10000000 		.4byte	.LBE223-.LBB223
 4337 1048 01       		.byte	0x1
 4338 1049 1301     		.2byte	0x113
 4339 104b 59100000 		.4byte	0x1059
 4340 104f 2F       		.uleb128 0x2f
 4341 1050 180A0000 		.4byte	0xa18
 4342 1054 C4050000 		.4byte	.LLST33
 4343 1058 00       		.byte	0
 4344 1059 4A       		.uleb128 0x4a
 4345 105a 0C0A0000 		.4byte	0xa0c
 4346 105e B8010000 		.4byte	.LBB225
 4347 1062 14000000 		.4byte	.LBE225-.LBB225
 4348 1066 01       		.byte	0x1
 4349 1067 1401     		.2byte	0x114
 4350 1069 77100000 		.4byte	0x1077
 4351 106d 2F       		.uleb128 0x2f
 4352 106e 180A0000 		.4byte	0xa18
 4353 1072 EF050000 		.4byte	.LLST34
 4354 1076 00       		.byte	0
 4355 1077 4A       		.uleb128 0x4a
 4356 1078 0C0A0000 		.4byte	0xa0c
 4357 107c FA010000 		.4byte	.LBB227
 4358 1080 12000000 		.4byte	.LBE227-.LBB227
 4359 1084 01       		.byte	0x1
 4360 1085 1F01     		.2byte	0x11f
 4361 1087 95100000 		.4byte	0x1095
ARM GAS  /tmp/cc0yVrlH.s 			page 141


 4362 108b 2F       		.uleb128 0x2f
 4363 108c 180A0000 		.4byte	0xa18
 4364 1090 1A060000 		.4byte	.LLST35
 4365 1094 00       		.byte	0
 4366 1095 4C       		.uleb128 0x4c
 4367 1096 12000000 		.4byte	.LVL57
 4368 109a E70C0000 		.4byte	0xce7
 4369 109e AC100000 		.4byte	0x10ac
 4370 10a2 2C       		.uleb128 0x2c
 4371 10a3 01       		.uleb128 0x1
 4372 10a4 50       		.byte	0x50
 4373 10a5 05       		.uleb128 0x5
 4374 10a6 03       		.byte	0x3
 4375 10a7 04000000 		.4byte	.LC1
 4376 10ab 00       		.byte	0
 4377 10ac 4C       		.uleb128 0x4c
 4378 10ad 18000000 		.4byte	.LVL58
 4379 10b1 E70C0000 		.4byte	0xce7
 4380 10b5 C3100000 		.4byte	0x10c3
 4381 10b9 2C       		.uleb128 0x2c
 4382 10ba 01       		.uleb128 0x1
 4383 10bb 50       		.byte	0x50
 4384 10bc 05       		.uleb128 0x5
 4385 10bd 03       		.byte	0x3
 4386 10be 08000000 		.4byte	.LC2
 4387 10c2 00       		.byte	0
 4388 10c3 4C       		.uleb128 0x4c
 4389 10c4 1E000000 		.4byte	.LVL59
 4390 10c8 E70C0000 		.4byte	0xce7
 4391 10cc DA100000 		.4byte	0x10da
 4392 10d0 2C       		.uleb128 0x2c
 4393 10d1 01       		.uleb128 0x1
 4394 10d2 50       		.byte	0x50
 4395 10d3 05       		.uleb128 0x5
 4396 10d4 03       		.byte	0x3
 4397 10d5 24000000 		.4byte	.LC3
 4398 10d9 00       		.byte	0
 4399 10da 4C       		.uleb128 0x4c
 4400 10db 38000000 		.4byte	.LVL65
 4401 10df E70C0000 		.4byte	0xce7
 4402 10e3 F1100000 		.4byte	0x10f1
 4403 10e7 2C       		.uleb128 0x2c
 4404 10e8 01       		.uleb128 0x1
 4405 10e9 50       		.byte	0x50
 4406 10ea 05       		.uleb128 0x5
 4407 10eb 03       		.byte	0x3
 4408 10ec BC000000 		.4byte	.LC14
 4409 10f0 00       		.byte	0
 4410 10f1 4C       		.uleb128 0x4c
 4411 10f2 52000000 		.4byte	.LVL71
 4412 10f6 E70C0000 		.4byte	0xce7
 4413 10fa 08110000 		.4byte	0x1108
 4414 10fe 2C       		.uleb128 0x2c
 4415 10ff 01       		.uleb128 0x1
 4416 1100 50       		.byte	0x50
 4417 1101 05       		.uleb128 0x5
 4418 1102 03       		.byte	0x3
ARM GAS  /tmp/cc0yVrlH.s 			page 142


 4419 1103 E8000000 		.4byte	.LC16
 4420 1107 00       		.byte	0
 4421 1108 4C       		.uleb128 0x4c
 4422 1109 6E000000 		.4byte	.LVL76
 4423 110d E70C0000 		.4byte	0xce7
 4424 1111 1F110000 		.4byte	0x111f
 4425 1115 2C       		.uleb128 0x2c
 4426 1116 01       		.uleb128 0x1
 4427 1117 50       		.byte	0x50
 4428 1118 05       		.uleb128 0x5
 4429 1119 03       		.byte	0x3
 4430 111a 3C000000 		.4byte	.LC5
 4431 111e 00       		.byte	0
 4432 111f 4C       		.uleb128 0x4c
 4433 1120 74000000 		.4byte	.LVL77
 4434 1124 E70C0000 		.4byte	0xce7
 4435 1128 36110000 		.4byte	0x1136
 4436 112c 2C       		.uleb128 0x2c
 4437 112d 01       		.uleb128 0x1
 4438 112e 50       		.byte	0x50
 4439 112f 05       		.uleb128 0x5
 4440 1130 03       		.byte	0x3
 4441 1131 04000000 		.4byte	.LC1
 4442 1135 00       		.byte	0
 4443 1136 4D       		.uleb128 0x4d
 4444 1137 A6000000 		.4byte	.LVL83
 4445 113b 500A0000 		.4byte	0xa50
 4446 113f 4C       		.uleb128 0x4c
 4447 1140 C0000000 		.4byte	.LVL89
 4448 1144 CC090000 		.4byte	0x9cc
 4449 1148 54110000 		.4byte	0x1154
 4450 114c 2C       		.uleb128 0x2c
 4451 114d 01       		.uleb128 0x1
 4452 114e 50       		.byte	0x50
 4453 114f 03       		.uleb128 0x3
 4454 1150 91       		.byte	0x91
 4455 1151 54       		.sleb128 -44
 4456 1152 06       		.byte	0x6
 4457 1153 00       		.byte	0
 4458 1154 4C       		.uleb128 0x4c
 4459 1155 D4000000 		.4byte	.LVL93
 4460 1159 CC090000 		.4byte	0x9cc
 4461 115d 68110000 		.4byte	0x1168
 4462 1161 2C       		.uleb128 0x2c
 4463 1162 01       		.uleb128 0x1
 4464 1163 50       		.byte	0x50
 4465 1164 02       		.uleb128 0x2
 4466 1165 76       		.byte	0x76
 4467 1166 00       		.sleb128 0
 4468 1167 00       		.byte	0
 4469 1168 4C       		.uleb128 0x4c
 4470 1169 14010000 		.4byte	.LVL104
 4471 116d E70C0000 		.4byte	0xce7
 4472 1171 7F110000 		.4byte	0x117f
 4473 1175 2C       		.uleb128 0x2c
 4474 1176 01       		.uleb128 0x1
 4475 1177 50       		.byte	0x50
ARM GAS  /tmp/cc0yVrlH.s 			page 143


 4476 1178 05       		.uleb128 0x5
 4477 1179 03       		.byte	0x3
 4478 117a 74000000 		.4byte	.LC7
 4479 117e 00       		.byte	0
 4480 117f 4D       		.uleb128 0x4d
 4481 1180 6E010000 		.4byte	.LVL116
 4482 1184 CC090000 		.4byte	0x9cc
 4483 1188 4C       		.uleb128 0x4c
 4484 1189 D2010000 		.4byte	.LVL137
 4485 118d E70C0000 		.4byte	0xce7
 4486 1191 9F110000 		.4byte	0x119f
 4487 1195 2C       		.uleb128 0x2c
 4488 1196 01       		.uleb128 0x1
 4489 1197 50       		.byte	0x50
 4490 1198 05       		.uleb128 0x5
 4491 1199 03       		.byte	0x3
 4492 119a 94000000 		.4byte	.LC10
 4493 119e 00       		.byte	0
 4494 119f 4D       		.uleb128 0x4d
 4495 11a0 F2010000 		.4byte	.LVL141
 4496 11a4 500A0000 		.4byte	0xa50
 4497 11a8 4C       		.uleb128 0x4c
 4498 11a9 FA010000 		.4byte	.LVL142
 4499 11ad E70C0000 		.4byte	0xce7
 4500 11b1 BF110000 		.4byte	0x11bf
 4501 11b5 2C       		.uleb128 0x2c
 4502 11b6 01       		.uleb128 0x1
 4503 11b7 50       		.byte	0x50
 4504 11b8 05       		.uleb128 0x5
 4505 11b9 03       		.byte	0x3
 4506 11ba 04000000 		.4byte	.LC1
 4507 11be 00       		.byte	0
 4508 11bf 4C       		.uleb128 0x4c
 4509 11c0 18020000 		.4byte	.LVL147
 4510 11c4 E70C0000 		.4byte	0xce7
 4511 11c8 D6110000 		.4byte	0x11d6
 4512 11cc 2C       		.uleb128 0x2c
 4513 11cd 01       		.uleb128 0x1
 4514 11ce 50       		.byte	0x50
 4515 11cf 05       		.uleb128 0x5
 4516 11d0 03       		.byte	0x3
 4517 11d1 B4000000 		.4byte	.LC13
 4518 11d5 00       		.byte	0
 4519 11d6 4C       		.uleb128 0x4c
 4520 11d7 28020000 		.4byte	.LVL149
 4521 11db E70C0000 		.4byte	0xce7
 4522 11df ED110000 		.4byte	0x11ed
 4523 11e3 2C       		.uleb128 0x2c
 4524 11e4 01       		.uleb128 0x1
 4525 11e5 50       		.byte	0x50
 4526 11e6 05       		.uleb128 0x5
 4527 11e7 03       		.byte	0x3
 4528 11e8 98000000 		.4byte	.LC11
 4529 11ec 00       		.byte	0
 4530 11ed 4B       		.uleb128 0x4b
 4531 11ee 30020000 		.4byte	.LVL151
 4532 11f2 E70C0000 		.4byte	0xce7
ARM GAS  /tmp/cc0yVrlH.s 			page 144


 4533 11f6 2C       		.uleb128 0x2c
 4534 11f7 01       		.uleb128 0x1
 4535 11f8 50       		.byte	0x50
 4536 11f9 05       		.uleb128 0x5
 4537 11fa 03       		.byte	0x3
 4538 11fb AC000000 		.4byte	.LC12
 4539 11ff 00       		.byte	0
 4540 1200 00       		.byte	0
 4541 1201 0A       		.uleb128 0xa
 4542 1202 04       		.byte	0x4
 4543 1203 22080000 		.4byte	0x822
 4544 1207 4E       		.uleb128 0x4e
 4545 1208 09060000 		.4byte	.LASF145
 4546 120c 01       		.byte	0x1
 4547 120d 37       		.byte	0x37
 4548 120e 2D080000 		.4byte	0x82d
 4549 1212 05       		.uleb128 0x5
 4550 1213 03       		.byte	0x3
 4551 1214 00000000 		.4byte	test_local_fail
 4552 1218 4E       		.uleb128 0x4e
 4553 1219 53060000 		.4byte	.LASF146
 4554 121d 01       		.byte	0x1
 4555 121e 38       		.byte	0x38
 4556 121f 13070000 		.4byte	0x713
 4557 1223 05       		.uleb128 0x5
 4558 1224 03       		.byte	0x3
 4559 1225 00000000 		.4byte	test_failure_message
 4560 1229 4E       		.uleb128 0x4e
 4561 122a A3000000 		.4byte	.LASF147
 4562 122e 01       		.byte	0x1
 4563 122f 39       		.byte	0x39
 4564 1230 F6090000 		.4byte	0x9f6
 4565 1234 05       		.uleb128 0x5
 4566 1235 03       		.byte	0x3
 4567 1236 00000000 		.4byte	test_tokens_buffer
 4568 123a 4E       		.uleb128 0x4e
 4569 123b 86000000 		.4byte	.LASF148
 4570 123f 01       		.byte	0x1
 4571 1240 3A       		.byte	0x3a
 4572 1241 060A0000 		.4byte	0xa06
 4573 1245 05       		.uleb128 0x5
 4574 1246 03       		.byte	0x3
 4575 1247 00000000 		.4byte	test_tokp
 4576 124b 4E       		.uleb128 0x4e
 4577 124c 00060000 		.4byte	.LASF149
 4578 1250 01       		.byte	0x1
 4579 1251 3B       		.byte	0x3b
 4580 1252 01120000 		.4byte	0x1201
 4581 1256 05       		.uleb128 0x5
 4582 1257 03       		.byte	0x3
 4583 1258 00000000 		.4byte	test_chp
 4584 125c 4F       		.uleb128 0x4f
 4585 125d D4000000 		.4byte	.LASF150
 4586 1261 16       		.byte	0x16
 4587 1262 4407     		.2byte	0x744
 4588 1264 68120000 		.4byte	0x1268
 4589 1268 0F       		.uleb128 0xf
ARM GAS  /tmp/cc0yVrlH.s 			page 145


 4590 1269 AD000000 		.4byte	0xad
 4591 126d 50       		.uleb128 0x50
 4592 126e 636800   		.ascii	"ch\000"
 4593 1271 0B       		.byte	0xb
 4594 1272 D201     		.2byte	0x1d2
 4595 1274 D1030000 		.4byte	0x3d1
 4596 1278 51       		.uleb128 0x51
 4597 1279 44030000 		.4byte	.LASF151
 4598 127d 01       		.byte	0x1
 4599 127e 28       		.byte	0x28
 4600 127f 37000000 		.4byte	0x37
 4601 1283 05       		.uleb128 0x5
 4602 1284 03       		.byte	0x3
 4603 1285 00000000 		.4byte	test_step
 4604 1289 51       		.uleb128 0x51
 4605 128a 9C050000 		.4byte	.LASF152
 4606 128e 01       		.byte	0x1
 4607 128f 2D       		.byte	0x2d
 4608 1290 2D080000 		.4byte	0x82d
 4609 1294 05       		.uleb128 0x5
 4610 1295 03       		.byte	0x3
 4611 1296 00000000 		.4byte	test_global_fail
 4612 129a 10       		.uleb128 0x10
 4613 129b A5120000 		.4byte	0x12a5
 4614 129f A5120000 		.4byte	0x12a5
 4615 12a3 52       		.uleb128 0x52
 4616 12a4 00       		.byte	0
 4617 12a5 0A       		.uleb128 0xa
 4618 12a6 04       		.byte	0x4
 4619 12a7 AB120000 		.4byte	0x12ab
 4620 12ab 18       		.uleb128 0x18
 4621 12ac 400E0000 		.4byte	0xe40
 4622 12b0 53       		.uleb128 0x53
 4623 12b1 49050000 		.4byte	.LASF153
 4624 12b5 17       		.byte	0x17
 4625 12b6 2C       		.byte	0x2c
 4626 12b7 9A120000 		.4byte	0x129a
 4627 12bb 54       		.uleb128 0x54
 4628 12bc B2040000 		.4byte	.LASF158
 4629 12c0 18       		.byte	0x18
 4630 12c1 0001     		.2byte	0x100
 4631 12c3 0D       		.uleb128 0xd
 4632 12c4 26010000 		.4byte	0x126
 4633 12c8 00       		.byte	0
 4634 12c9 00       		.byte	0
 4635              		.section	.debug_abbrev,"",%progbits
 4636              	.Ldebug_abbrev0:
 4637 0000 01       		.uleb128 0x1
 4638 0001 11       		.uleb128 0x11
 4639 0002 01       		.byte	0x1
 4640 0003 25       		.uleb128 0x25
 4641 0004 0E       		.uleb128 0xe
 4642 0005 13       		.uleb128 0x13
 4643 0006 0B       		.uleb128 0xb
 4644 0007 03       		.uleb128 0x3
 4645 0008 0E       		.uleb128 0xe
 4646 0009 1B       		.uleb128 0x1b
ARM GAS  /tmp/cc0yVrlH.s 			page 146


 4647 000a 0E       		.uleb128 0xe
 4648 000b 55       		.uleb128 0x55
 4649 000c 17       		.uleb128 0x17
 4650 000d 11       		.uleb128 0x11
 4651 000e 01       		.uleb128 0x1
 4652 000f 10       		.uleb128 0x10
 4653 0010 17       		.uleb128 0x17
 4654 0011 00       		.byte	0
 4655 0012 00       		.byte	0
 4656 0013 02       		.uleb128 0x2
 4657 0014 24       		.uleb128 0x24
 4658 0015 00       		.byte	0
 4659 0016 0B       		.uleb128 0xb
 4660 0017 0B       		.uleb128 0xb
 4661 0018 3E       		.uleb128 0x3e
 4662 0019 0B       		.uleb128 0xb
 4663 001a 03       		.uleb128 0x3
 4664 001b 08       		.uleb128 0x8
 4665 001c 00       		.byte	0
 4666 001d 00       		.byte	0
 4667 001e 03       		.uleb128 0x3
 4668 001f 16       		.uleb128 0x16
 4669 0020 00       		.byte	0
 4670 0021 03       		.uleb128 0x3
 4671 0022 0E       		.uleb128 0xe
 4672 0023 3A       		.uleb128 0x3a
 4673 0024 0B       		.uleb128 0xb
 4674 0025 3B       		.uleb128 0x3b
 4675 0026 0B       		.uleb128 0xb
 4676 0027 49       		.uleb128 0x49
 4677 0028 13       		.uleb128 0x13
 4678 0029 00       		.byte	0
 4679 002a 00       		.byte	0
 4680 002b 04       		.uleb128 0x4
 4681 002c 24       		.uleb128 0x24
 4682 002d 00       		.byte	0
 4683 002e 0B       		.uleb128 0xb
 4684 002f 0B       		.uleb128 0xb
 4685 0030 3E       		.uleb128 0x3e
 4686 0031 0B       		.uleb128 0xb
 4687 0032 03       		.uleb128 0x3
 4688 0033 0E       		.uleb128 0xe
 4689 0034 00       		.byte	0
 4690 0035 00       		.byte	0
 4691 0036 05       		.uleb128 0x5
 4692 0037 13       		.uleb128 0x13
 4693 0038 01       		.byte	0x1
 4694 0039 03       		.uleb128 0x3
 4695 003a 0E       		.uleb128 0xe
 4696 003b 0B       		.uleb128 0xb
 4697 003c 0B       		.uleb128 0xb
 4698 003d 3A       		.uleb128 0x3a
 4699 003e 0B       		.uleb128 0xb
 4700 003f 3B       		.uleb128 0x3b
 4701 0040 0B       		.uleb128 0xb
 4702 0041 01       		.uleb128 0x1
 4703 0042 13       		.uleb128 0x13
ARM GAS  /tmp/cc0yVrlH.s 			page 147


 4704 0043 00       		.byte	0
 4705 0044 00       		.byte	0
 4706 0045 06       		.uleb128 0x6
 4707 0046 0D       		.uleb128 0xd
 4708 0047 00       		.byte	0
 4709 0048 03       		.uleb128 0x3
 4710 0049 0E       		.uleb128 0xe
 4711 004a 3A       		.uleb128 0x3a
 4712 004b 0B       		.uleb128 0xb
 4713 004c 3B       		.uleb128 0x3b
 4714 004d 0B       		.uleb128 0xb
 4715 004e 49       		.uleb128 0x49
 4716 004f 13       		.uleb128 0x13
 4717 0050 38       		.uleb128 0x38
 4718 0051 0B       		.uleb128 0xb
 4719 0052 00       		.byte	0
 4720 0053 00       		.byte	0
 4721 0054 07       		.uleb128 0x7
 4722 0055 0D       		.uleb128 0xd
 4723 0056 00       		.byte	0
 4724 0057 03       		.uleb128 0x3
 4725 0058 08       		.uleb128 0x8
 4726 0059 3A       		.uleb128 0x3a
 4727 005a 0B       		.uleb128 0xb
 4728 005b 3B       		.uleb128 0x3b
 4729 005c 0B       		.uleb128 0xb
 4730 005d 49       		.uleb128 0x49
 4731 005e 13       		.uleb128 0x13
 4732 005f 38       		.uleb128 0x38
 4733 0060 0B       		.uleb128 0xb
 4734 0061 00       		.byte	0
 4735 0062 00       		.byte	0
 4736 0063 08       		.uleb128 0x8
 4737 0064 0D       		.uleb128 0xd
 4738 0065 00       		.byte	0
 4739 0066 03       		.uleb128 0x3
 4740 0067 08       		.uleb128 0x8
 4741 0068 3A       		.uleb128 0x3a
 4742 0069 0B       		.uleb128 0xb
 4743 006a 3B       		.uleb128 0x3b
 4744 006b 05       		.uleb128 0x5
 4745 006c 49       		.uleb128 0x49
 4746 006d 13       		.uleb128 0x13
 4747 006e 38       		.uleb128 0x38
 4748 006f 0B       		.uleb128 0xb
 4749 0070 00       		.byte	0
 4750 0071 00       		.byte	0
 4751 0072 09       		.uleb128 0x9
 4752 0073 0D       		.uleb128 0xd
 4753 0074 00       		.byte	0
 4754 0075 03       		.uleb128 0x3
 4755 0076 0E       		.uleb128 0xe
 4756 0077 3A       		.uleb128 0x3a
 4757 0078 0B       		.uleb128 0xb
 4758 0079 3B       		.uleb128 0x3b
 4759 007a 05       		.uleb128 0x5
 4760 007b 49       		.uleb128 0x49
ARM GAS  /tmp/cc0yVrlH.s 			page 148


 4761 007c 13       		.uleb128 0x13
 4762 007d 38       		.uleb128 0x38
 4763 007e 0B       		.uleb128 0xb
 4764 007f 00       		.byte	0
 4765 0080 00       		.byte	0
 4766 0081 0A       		.uleb128 0xa
 4767 0082 0F       		.uleb128 0xf
 4768 0083 00       		.byte	0
 4769 0084 0B       		.uleb128 0xb
 4770 0085 0B       		.uleb128 0xb
 4771 0086 49       		.uleb128 0x49
 4772 0087 13       		.uleb128 0x13
 4773 0088 00       		.byte	0
 4774 0089 00       		.byte	0
 4775 008a 0B       		.uleb128 0xb
 4776 008b 13       		.uleb128 0x13
 4777 008c 01       		.byte	0x1
 4778 008d 03       		.uleb128 0x3
 4779 008e 0E       		.uleb128 0xe
 4780 008f 0B       		.uleb128 0xb
 4781 0090 0B       		.uleb128 0xb
 4782 0091 3A       		.uleb128 0x3a
 4783 0092 0B       		.uleb128 0xb
 4784 0093 3B       		.uleb128 0x3b
 4785 0094 05       		.uleb128 0x5
 4786 0095 01       		.uleb128 0x1
 4787 0096 13       		.uleb128 0x13
 4788 0097 00       		.byte	0
 4789 0098 00       		.byte	0
 4790 0099 0C       		.uleb128 0xc
 4791 009a 15       		.uleb128 0x15
 4792 009b 01       		.byte	0x1
 4793 009c 27       		.uleb128 0x27
 4794 009d 19       		.uleb128 0x19
 4795 009e 01       		.uleb128 0x1
 4796 009f 13       		.uleb128 0x13
 4797 00a0 00       		.byte	0
 4798 00a1 00       		.byte	0
 4799 00a2 0D       		.uleb128 0xd
 4800 00a3 05       		.uleb128 0x5
 4801 00a4 00       		.byte	0
 4802 00a5 49       		.uleb128 0x49
 4803 00a6 13       		.uleb128 0x13
 4804 00a7 00       		.byte	0
 4805 00a8 00       		.byte	0
 4806 00a9 0E       		.uleb128 0xe
 4807 00aa 0F       		.uleb128 0xf
 4808 00ab 00       		.byte	0
 4809 00ac 0B       		.uleb128 0xb
 4810 00ad 0B       		.uleb128 0xb
 4811 00ae 00       		.byte	0
 4812 00af 00       		.byte	0
 4813 00b0 0F       		.uleb128 0xf
 4814 00b1 35       		.uleb128 0x35
 4815 00b2 00       		.byte	0
 4816 00b3 49       		.uleb128 0x49
 4817 00b4 13       		.uleb128 0x13
ARM GAS  /tmp/cc0yVrlH.s 			page 149


 4818 00b5 00       		.byte	0
 4819 00b6 00       		.byte	0
 4820 00b7 10       		.uleb128 0x10
 4821 00b8 01       		.uleb128 0x1
 4822 00b9 01       		.byte	0x1
 4823 00ba 49       		.uleb128 0x49
 4824 00bb 13       		.uleb128 0x13
 4825 00bc 01       		.uleb128 0x1
 4826 00bd 13       		.uleb128 0x13
 4827 00be 00       		.byte	0
 4828 00bf 00       		.byte	0
 4829 00c0 11       		.uleb128 0x11
 4830 00c1 21       		.uleb128 0x21
 4831 00c2 00       		.byte	0
 4832 00c3 49       		.uleb128 0x49
 4833 00c4 13       		.uleb128 0x13
 4834 00c5 2F       		.uleb128 0x2f
 4835 00c6 0B       		.uleb128 0xb
 4836 00c7 00       		.byte	0
 4837 00c8 00       		.byte	0
 4838 00c9 12       		.uleb128 0x12
 4839 00ca 13       		.uleb128 0x13
 4840 00cb 01       		.byte	0x1
 4841 00cc 0B       		.uleb128 0xb
 4842 00cd 0B       		.uleb128 0xb
 4843 00ce 3A       		.uleb128 0x3a
 4844 00cf 0B       		.uleb128 0xb
 4845 00d0 3B       		.uleb128 0x3b
 4846 00d1 05       		.uleb128 0x5
 4847 00d2 01       		.uleb128 0x1
 4848 00d3 13       		.uleb128 0x13
 4849 00d4 00       		.byte	0
 4850 00d5 00       		.byte	0
 4851 00d6 13       		.uleb128 0x13
 4852 00d7 16       		.uleb128 0x16
 4853 00d8 00       		.byte	0
 4854 00d9 03       		.uleb128 0x3
 4855 00da 0E       		.uleb128 0xe
 4856 00db 3A       		.uleb128 0x3a
 4857 00dc 0B       		.uleb128 0xb
 4858 00dd 3B       		.uleb128 0x3b
 4859 00de 05       		.uleb128 0x5
 4860 00df 49       		.uleb128 0x49
 4861 00e0 13       		.uleb128 0x13
 4862 00e1 00       		.byte	0
 4863 00e2 00       		.byte	0
 4864 00e3 14       		.uleb128 0x14
 4865 00e4 13       		.uleb128 0x13
 4866 00e5 01       		.byte	0x1
 4867 00e6 0B       		.uleb128 0xb
 4868 00e7 0B       		.uleb128 0xb
 4869 00e8 3A       		.uleb128 0x3a
 4870 00e9 0B       		.uleb128 0xb
 4871 00ea 3B       		.uleb128 0x3b
 4872 00eb 0B       		.uleb128 0xb
 4873 00ec 01       		.uleb128 0x1
 4874 00ed 13       		.uleb128 0x13
ARM GAS  /tmp/cc0yVrlH.s 			page 150


 4875 00ee 00       		.byte	0
 4876 00ef 00       		.byte	0
 4877 00f0 15       		.uleb128 0x15
 4878 00f1 17       		.uleb128 0x17
 4879 00f2 01       		.byte	0x1
 4880 00f3 0B       		.uleb128 0xb
 4881 00f4 0B       		.uleb128 0xb
 4882 00f5 3A       		.uleb128 0x3a
 4883 00f6 0B       		.uleb128 0xb
 4884 00f7 3B       		.uleb128 0x3b
 4885 00f8 0B       		.uleb128 0xb
 4886 00f9 01       		.uleb128 0x1
 4887 00fa 13       		.uleb128 0x13
 4888 00fb 00       		.byte	0
 4889 00fc 00       		.byte	0
 4890 00fd 16       		.uleb128 0x16
 4891 00fe 0D       		.uleb128 0xd
 4892 00ff 00       		.byte	0
 4893 0100 03       		.uleb128 0x3
 4894 0101 0E       		.uleb128 0xe
 4895 0102 3A       		.uleb128 0x3a
 4896 0103 0B       		.uleb128 0xb
 4897 0104 3B       		.uleb128 0x3b
 4898 0105 0B       		.uleb128 0xb
 4899 0106 49       		.uleb128 0x49
 4900 0107 13       		.uleb128 0x13
 4901 0108 00       		.byte	0
 4902 0109 00       		.byte	0
 4903 010a 17       		.uleb128 0x17
 4904 010b 0D       		.uleb128 0xd
 4905 010c 00       		.byte	0
 4906 010d 03       		.uleb128 0x3
 4907 010e 0E       		.uleb128 0xe
 4908 010f 3A       		.uleb128 0x3a
 4909 0110 0B       		.uleb128 0xb
 4910 0111 3B       		.uleb128 0x3b
 4911 0112 05       		.uleb128 0x5
 4912 0113 49       		.uleb128 0x49
 4913 0114 13       		.uleb128 0x13
 4914 0115 00       		.byte	0
 4915 0116 00       		.byte	0
 4916 0117 18       		.uleb128 0x18
 4917 0118 26       		.uleb128 0x26
 4918 0119 00       		.byte	0
 4919 011a 49       		.uleb128 0x49
 4920 011b 13       		.uleb128 0x13
 4921 011c 00       		.byte	0
 4922 011d 00       		.byte	0
 4923 011e 19       		.uleb128 0x19
 4924 011f 15       		.uleb128 0x15
 4925 0120 01       		.byte	0x1
 4926 0121 27       		.uleb128 0x27
 4927 0122 19       		.uleb128 0x19
 4928 0123 49       		.uleb128 0x49
 4929 0124 13       		.uleb128 0x13
 4930 0125 01       		.uleb128 0x1
 4931 0126 13       		.uleb128 0x13
ARM GAS  /tmp/cc0yVrlH.s 			page 151


 4932 0127 00       		.byte	0
 4933 0128 00       		.byte	0
 4934 0129 1A       		.uleb128 0x1a
 4935 012a 15       		.uleb128 0x15
 4936 012b 00       		.byte	0
 4937 012c 27       		.uleb128 0x27
 4938 012d 19       		.uleb128 0x19
 4939 012e 00       		.byte	0
 4940 012f 00       		.byte	0
 4941 0130 1B       		.uleb128 0x1b
 4942 0131 2E       		.uleb128 0x2e
 4943 0132 01       		.byte	0x1
 4944 0133 03       		.uleb128 0x3
 4945 0134 0E       		.uleb128 0xe
 4946 0135 3A       		.uleb128 0x3a
 4947 0136 0B       		.uleb128 0xb
 4948 0137 3B       		.uleb128 0x3b
 4949 0138 05       		.uleb128 0x5
 4950 0139 27       		.uleb128 0x27
 4951 013a 19       		.uleb128 0x19
 4952 013b 20       		.uleb128 0x20
 4953 013c 0B       		.uleb128 0xb
 4954 013d 01       		.uleb128 0x1
 4955 013e 13       		.uleb128 0x13
 4956 013f 00       		.byte	0
 4957 0140 00       		.byte	0
 4958 0141 1C       		.uleb128 0x1c
 4959 0142 05       		.uleb128 0x5
 4960 0143 00       		.byte	0
 4961 0144 03       		.uleb128 0x3
 4962 0145 0E       		.uleb128 0xe
 4963 0146 3A       		.uleb128 0x3a
 4964 0147 0B       		.uleb128 0xb
 4965 0148 3B       		.uleb128 0x3b
 4966 0149 05       		.uleb128 0x5
 4967 014a 49       		.uleb128 0x49
 4968 014b 13       		.uleb128 0x13
 4969 014c 00       		.byte	0
 4970 014d 00       		.byte	0
 4971 014e 1D       		.uleb128 0x1d
 4972 014f 2E       		.uleb128 0x2e
 4973 0150 00       		.byte	0
 4974 0151 03       		.uleb128 0x3
 4975 0152 0E       		.uleb128 0xe
 4976 0153 3A       		.uleb128 0x3a
 4977 0154 0B       		.uleb128 0xb
 4978 0155 3B       		.uleb128 0x3b
 4979 0156 0B       		.uleb128 0xb
 4980 0157 27       		.uleb128 0x27
 4981 0158 19       		.uleb128 0x19
 4982 0159 49       		.uleb128 0x49
 4983 015a 13       		.uleb128 0x13
 4984 015b 20       		.uleb128 0x20
 4985 015c 0B       		.uleb128 0xb
 4986 015d 00       		.byte	0
 4987 015e 00       		.byte	0
 4988 015f 1E       		.uleb128 0x1e
ARM GAS  /tmp/cc0yVrlH.s 			page 152


 4989 0160 2E       		.uleb128 0x2e
 4990 0161 00       		.byte	0
 4991 0162 03       		.uleb128 0x3
 4992 0163 0E       		.uleb128 0xe
 4993 0164 3A       		.uleb128 0x3a
 4994 0165 0B       		.uleb128 0xb
 4995 0166 3B       		.uleb128 0x3b
 4996 0167 05       		.uleb128 0x5
 4997 0168 27       		.uleb128 0x27
 4998 0169 19       		.uleb128 0x19
 4999 016a 20       		.uleb128 0x20
 5000 016b 0B       		.uleb128 0xb
 5001 016c 00       		.byte	0
 5002 016d 00       		.byte	0
 5003 016e 1F       		.uleb128 0x1f
 5004 016f 34       		.uleb128 0x34
 5005 0170 00       		.byte	0
 5006 0171 03       		.uleb128 0x3
 5007 0172 0E       		.uleb128 0xe
 5008 0173 49       		.uleb128 0x49
 5009 0174 13       		.uleb128 0x13
 5010 0175 34       		.uleb128 0x34
 5011 0176 19       		.uleb128 0x19
 5012 0177 1C       		.uleb128 0x1c
 5013 0178 0E       		.uleb128 0xe
 5014 0179 00       		.byte	0
 5015 017a 00       		.byte	0
 5016 017b 20       		.uleb128 0x20
 5017 017c 2E       		.uleb128 0x2e
 5018 017d 01       		.byte	0x1
 5019 017e 03       		.uleb128 0x3
 5020 017f 0E       		.uleb128 0xe
 5021 0180 3A       		.uleb128 0x3a
 5022 0181 0B       		.uleb128 0xb
 5023 0182 3B       		.uleb128 0x3b
 5024 0183 05       		.uleb128 0x5
 5025 0184 27       		.uleb128 0x27
 5026 0185 19       		.uleb128 0x19
 5027 0186 49       		.uleb128 0x49
 5028 0187 13       		.uleb128 0x13
 5029 0188 20       		.uleb128 0x20
 5030 0189 0B       		.uleb128 0xb
 5031 018a 01       		.uleb128 0x1
 5032 018b 13       		.uleb128 0x13
 5033 018c 00       		.byte	0
 5034 018d 00       		.byte	0
 5035 018e 21       		.uleb128 0x21
 5036 018f 05       		.uleb128 0x5
 5037 0190 00       		.byte	0
 5038 0191 03       		.uleb128 0x3
 5039 0192 08       		.uleb128 0x8
 5040 0193 3A       		.uleb128 0x3a
 5041 0194 0B       		.uleb128 0xb
 5042 0195 3B       		.uleb128 0x3b
 5043 0196 05       		.uleb128 0x5
 5044 0197 49       		.uleb128 0x49
 5045 0198 13       		.uleb128 0x13
ARM GAS  /tmp/cc0yVrlH.s 			page 153


 5046 0199 00       		.byte	0
 5047 019a 00       		.byte	0
 5048 019b 22       		.uleb128 0x22
 5049 019c 2E       		.uleb128 0x2e
 5050 019d 00       		.byte	0
 5051 019e 03       		.uleb128 0x3
 5052 019f 0E       		.uleb128 0xe
 5053 01a0 3A       		.uleb128 0x3a
 5054 01a1 0B       		.uleb128 0xb
 5055 01a2 3B       		.uleb128 0x3b
 5056 01a3 0B       		.uleb128 0xb
 5057 01a4 27       		.uleb128 0x27
 5058 01a5 19       		.uleb128 0x19
 5059 01a6 20       		.uleb128 0x20
 5060 01a7 0B       		.uleb128 0xb
 5061 01a8 00       		.byte	0
 5062 01a9 00       		.byte	0
 5063 01aa 23       		.uleb128 0x23
 5064 01ab 2E       		.uleb128 0x2e
 5065 01ac 01       		.byte	0x1
 5066 01ad 3F       		.uleb128 0x3f
 5067 01ae 19       		.uleb128 0x19
 5068 01af 03       		.uleb128 0x3
 5069 01b0 0E       		.uleb128 0xe
 5070 01b1 3A       		.uleb128 0x3a
 5071 01b2 0B       		.uleb128 0xb
 5072 01b3 3B       		.uleb128 0x3b
 5073 01b4 0B       		.uleb128 0xb
 5074 01b5 27       		.uleb128 0x27
 5075 01b6 19       		.uleb128 0x19
 5076 01b7 49       		.uleb128 0x49
 5077 01b8 13       		.uleb128 0x13
 5078 01b9 20       		.uleb128 0x20
 5079 01ba 0B       		.uleb128 0xb
 5080 01bb 01       		.uleb128 0x1
 5081 01bc 13       		.uleb128 0x13
 5082 01bd 00       		.byte	0
 5083 01be 00       		.byte	0
 5084 01bf 24       		.uleb128 0x24
 5085 01c0 05       		.uleb128 0x5
 5086 01c1 00       		.byte	0
 5087 01c2 03       		.uleb128 0x3
 5088 01c3 08       		.uleb128 0x8
 5089 01c4 3A       		.uleb128 0x3a
 5090 01c5 0B       		.uleb128 0xb
 5091 01c6 3B       		.uleb128 0x3b
 5092 01c7 0B       		.uleb128 0xb
 5093 01c8 49       		.uleb128 0x49
 5094 01c9 13       		.uleb128 0x13
 5095 01ca 00       		.byte	0
 5096 01cb 00       		.byte	0
 5097 01cc 25       		.uleb128 0x25
 5098 01cd 2E       		.uleb128 0x2e
 5099 01ce 00       		.byte	0
 5100 01cf 03       		.uleb128 0x3
 5101 01d0 0E       		.uleb128 0xe
 5102 01d1 3A       		.uleb128 0x3a
ARM GAS  /tmp/cc0yVrlH.s 			page 154


 5103 01d2 0B       		.uleb128 0xb
 5104 01d3 3B       		.uleb128 0x3b
 5105 01d4 05       		.uleb128 0x5
 5106 01d5 27       		.uleb128 0x27
 5107 01d6 19       		.uleb128 0x19
 5108 01d7 49       		.uleb128 0x49
 5109 01d8 13       		.uleb128 0x13
 5110 01d9 20       		.uleb128 0x20
 5111 01da 0B       		.uleb128 0xb
 5112 01db 00       		.byte	0
 5113 01dc 00       		.byte	0
 5114 01dd 26       		.uleb128 0x26
 5115 01de 05       		.uleb128 0x5
 5116 01df 00       		.byte	0
 5117 01e0 03       		.uleb128 0x3
 5118 01e1 0E       		.uleb128 0xe
 5119 01e2 3A       		.uleb128 0x3a
 5120 01e3 0B       		.uleb128 0xb
 5121 01e4 3B       		.uleb128 0x3b
 5122 01e5 0B       		.uleb128 0xb
 5123 01e6 49       		.uleb128 0x49
 5124 01e7 13       		.uleb128 0x13
 5125 01e8 00       		.byte	0
 5126 01e9 00       		.byte	0
 5127 01ea 27       		.uleb128 0x27
 5128 01eb 2E       		.uleb128 0x2e
 5129 01ec 01       		.byte	0x1
 5130 01ed 3F       		.uleb128 0x3f
 5131 01ee 19       		.uleb128 0x19
 5132 01ef 03       		.uleb128 0x3
 5133 01f0 0E       		.uleb128 0xe
 5134 01f1 3A       		.uleb128 0x3a
 5135 01f2 0B       		.uleb128 0xb
 5136 01f3 3B       		.uleb128 0x3b
 5137 01f4 0B       		.uleb128 0xb
 5138 01f5 27       		.uleb128 0x27
 5139 01f6 19       		.uleb128 0x19
 5140 01f7 20       		.uleb128 0x20
 5141 01f8 0B       		.uleb128 0xb
 5142 01f9 01       		.uleb128 0x1
 5143 01fa 13       		.uleb128 0x13
 5144 01fb 00       		.byte	0
 5145 01fc 00       		.byte	0
 5146 01fd 28       		.uleb128 0x28
 5147 01fe 34       		.uleb128 0x34
 5148 01ff 00       		.byte	0
 5149 0200 03       		.uleb128 0x3
 5150 0201 08       		.uleb128 0x8
 5151 0202 3A       		.uleb128 0x3a
 5152 0203 0B       		.uleb128 0xb
 5153 0204 3B       		.uleb128 0x3b
 5154 0205 0B       		.uleb128 0xb
 5155 0206 49       		.uleb128 0x49
 5156 0207 13       		.uleb128 0x13
 5157 0208 00       		.byte	0
 5158 0209 00       		.byte	0
 5159 020a 29       		.uleb128 0x29
ARM GAS  /tmp/cc0yVrlH.s 			page 155


 5160 020b 2E       		.uleb128 0x2e
 5161 020c 01       		.byte	0x1
 5162 020d 03       		.uleb128 0x3
 5163 020e 0E       		.uleb128 0xe
 5164 020f 3A       		.uleb128 0x3a
 5165 0210 0B       		.uleb128 0xb
 5166 0211 3B       		.uleb128 0x3b
 5167 0212 0B       		.uleb128 0xb
 5168 0213 27       		.uleb128 0x27
 5169 0214 19       		.uleb128 0x19
 5170 0215 11       		.uleb128 0x11
 5171 0216 01       		.uleb128 0x1
 5172 0217 12       		.uleb128 0x12
 5173 0218 06       		.uleb128 0x6
 5174 0219 40       		.uleb128 0x40
 5175 021a 18       		.uleb128 0x18
 5176 021b 9742     		.uleb128 0x2117
 5177 021d 19       		.uleb128 0x19
 5178 021e 01       		.uleb128 0x1
 5179 021f 13       		.uleb128 0x13
 5180 0220 00       		.byte	0
 5181 0221 00       		.byte	0
 5182 0222 2A       		.uleb128 0x2a
 5183 0223 34       		.uleb128 0x34
 5184 0224 00       		.byte	0
 5185 0225 03       		.uleb128 0x3
 5186 0226 08       		.uleb128 0x8
 5187 0227 3A       		.uleb128 0x3a
 5188 0228 0B       		.uleb128 0xb
 5189 0229 3B       		.uleb128 0x3b
 5190 022a 0B       		.uleb128 0xb
 5191 022b 49       		.uleb128 0x49
 5192 022c 13       		.uleb128 0x13
 5193 022d 02       		.uleb128 0x2
 5194 022e 17       		.uleb128 0x17
 5195 022f 00       		.byte	0
 5196 0230 00       		.byte	0
 5197 0231 2B       		.uleb128 0x2b
 5198 0232 898201   		.uleb128 0x4109
 5199 0235 01       		.byte	0x1
 5200 0236 11       		.uleb128 0x11
 5201 0237 01       		.uleb128 0x1
 5202 0238 01       		.uleb128 0x1
 5203 0239 13       		.uleb128 0x13
 5204 023a 00       		.byte	0
 5205 023b 00       		.byte	0
 5206 023c 2C       		.uleb128 0x2c
 5207 023d 8A8201   		.uleb128 0x410a
 5208 0240 00       		.byte	0
 5209 0241 02       		.uleb128 0x2
 5210 0242 18       		.uleb128 0x18
 5211 0243 9142     		.uleb128 0x2111
 5212 0245 18       		.uleb128 0x18
 5213 0246 00       		.byte	0
 5214 0247 00       		.byte	0
 5215 0248 2D       		.uleb128 0x2d
 5216 0249 898201   		.uleb128 0x4109
ARM GAS  /tmp/cc0yVrlH.s 			page 156


 5217 024c 01       		.byte	0x1
 5218 024d 11       		.uleb128 0x11
 5219 024e 01       		.uleb128 0x1
 5220 024f 00       		.byte	0
 5221 0250 00       		.byte	0
 5222 0251 2E       		.uleb128 0x2e
 5223 0252 2E       		.uleb128 0x2e
 5224 0253 01       		.byte	0x1
 5225 0254 31       		.uleb128 0x31
 5226 0255 13       		.uleb128 0x13
 5227 0256 11       		.uleb128 0x11
 5228 0257 01       		.uleb128 0x1
 5229 0258 12       		.uleb128 0x12
 5230 0259 06       		.uleb128 0x6
 5231 025a 40       		.uleb128 0x40
 5232 025b 18       		.uleb128 0x18
 5233 025c 9742     		.uleb128 0x2117
 5234 025e 19       		.uleb128 0x19
 5235 025f 01       		.uleb128 0x1
 5236 0260 13       		.uleb128 0x13
 5237 0261 00       		.byte	0
 5238 0262 00       		.byte	0
 5239 0263 2F       		.uleb128 0x2f
 5240 0264 05       		.uleb128 0x5
 5241 0265 00       		.byte	0
 5242 0266 31       		.uleb128 0x31
 5243 0267 13       		.uleb128 0x13
 5244 0268 02       		.uleb128 0x2
 5245 0269 17       		.uleb128 0x17
 5246 026a 00       		.byte	0
 5247 026b 00       		.byte	0
 5248 026c 30       		.uleb128 0x30
 5249 026d 05       		.uleb128 0x5
 5250 026e 00       		.byte	0
 5251 026f 31       		.uleb128 0x31
 5252 0270 13       		.uleb128 0x13
 5253 0271 02       		.uleb128 0x2
 5254 0272 18       		.uleb128 0x18
 5255 0273 00       		.byte	0
 5256 0274 00       		.byte	0
 5257 0275 31       		.uleb128 0x31
 5258 0276 1D       		.uleb128 0x1d
 5259 0277 01       		.byte	0x1
 5260 0278 31       		.uleb128 0x31
 5261 0279 13       		.uleb128 0x13
 5262 027a 11       		.uleb128 0x11
 5263 027b 01       		.uleb128 0x1
 5264 027c 12       		.uleb128 0x12
 5265 027d 06       		.uleb128 0x6
 5266 027e 58       		.uleb128 0x58
 5267 027f 0B       		.uleb128 0xb
 5268 0280 59       		.uleb128 0x59
 5269 0281 0B       		.uleb128 0xb
 5270 0282 00       		.byte	0
 5271 0283 00       		.byte	0
 5272 0284 32       		.uleb128 0x32
 5273 0285 2E       		.uleb128 0x2e
ARM GAS  /tmp/cc0yVrlH.s 			page 157


 5274 0286 01       		.byte	0x1
 5275 0287 3F       		.uleb128 0x3f
 5276 0288 19       		.uleb128 0x19
 5277 0289 03       		.uleb128 0x3
 5278 028a 0E       		.uleb128 0xe
 5279 028b 3A       		.uleb128 0x3a
 5280 028c 0B       		.uleb128 0xb
 5281 028d 3B       		.uleb128 0x3b
 5282 028e 0B       		.uleb128 0xb
 5283 028f 27       		.uleb128 0x27
 5284 0290 19       		.uleb128 0x19
 5285 0291 49       		.uleb128 0x49
 5286 0292 13       		.uleb128 0x13
 5287 0293 11       		.uleb128 0x11
 5288 0294 01       		.uleb128 0x1
 5289 0295 12       		.uleb128 0x12
 5290 0296 06       		.uleb128 0x6
 5291 0297 40       		.uleb128 0x40
 5292 0298 18       		.uleb128 0x18
 5293 0299 9742     		.uleb128 0x2117
 5294 029b 19       		.uleb128 0x19
 5295 029c 01       		.uleb128 0x1
 5296 029d 13       		.uleb128 0x13
 5297 029e 00       		.byte	0
 5298 029f 00       		.byte	0
 5299 02a0 33       		.uleb128 0x33
 5300 02a1 05       		.uleb128 0x5
 5301 02a2 00       		.byte	0
 5302 02a3 03       		.uleb128 0x3
 5303 02a4 0E       		.uleb128 0xe
 5304 02a5 3A       		.uleb128 0x3a
 5305 02a6 0B       		.uleb128 0xb
 5306 02a7 3B       		.uleb128 0x3b
 5307 02a8 0B       		.uleb128 0xb
 5308 02a9 49       		.uleb128 0x49
 5309 02aa 13       		.uleb128 0x13
 5310 02ab 02       		.uleb128 0x2
 5311 02ac 17       		.uleb128 0x17
 5312 02ad 00       		.byte	0
 5313 02ae 00       		.byte	0
 5314 02af 34       		.uleb128 0x34
 5315 02b0 05       		.uleb128 0x5
 5316 02b1 00       		.byte	0
 5317 02b2 03       		.uleb128 0x3
 5318 02b3 08       		.uleb128 0x8
 5319 02b4 3A       		.uleb128 0x3a
 5320 02b5 0B       		.uleb128 0xb
 5321 02b6 3B       		.uleb128 0x3b
 5322 02b7 0B       		.uleb128 0xb
 5323 02b8 49       		.uleb128 0x49
 5324 02b9 13       		.uleb128 0x13
 5325 02ba 02       		.uleb128 0x2
 5326 02bb 18       		.uleb128 0x18
 5327 02bc 00       		.byte	0
 5328 02bd 00       		.byte	0
 5329 02be 35       		.uleb128 0x35
 5330 02bf 1D       		.uleb128 0x1d
ARM GAS  /tmp/cc0yVrlH.s 			page 158


 5331 02c0 00       		.byte	0
 5332 02c1 31       		.uleb128 0x31
 5333 02c2 13       		.uleb128 0x13
 5334 02c3 11       		.uleb128 0x11
 5335 02c4 01       		.uleb128 0x1
 5336 02c5 12       		.uleb128 0x12
 5337 02c6 06       		.uleb128 0x6
 5338 02c7 58       		.uleb128 0x58
 5339 02c8 0B       		.uleb128 0xb
 5340 02c9 59       		.uleb128 0x59
 5341 02ca 0B       		.uleb128 0xb
 5342 02cb 00       		.byte	0
 5343 02cc 00       		.byte	0
 5344 02cd 36       		.uleb128 0x36
 5345 02ce 05       		.uleb128 0x5
 5346 02cf 00       		.byte	0
 5347 02d0 03       		.uleb128 0x3
 5348 02d1 08       		.uleb128 0x8
 5349 02d2 3A       		.uleb128 0x3a
 5350 02d3 0B       		.uleb128 0xb
 5351 02d4 3B       		.uleb128 0x3b
 5352 02d5 0B       		.uleb128 0xb
 5353 02d6 49       		.uleb128 0x49
 5354 02d7 13       		.uleb128 0x13
 5355 02d8 02       		.uleb128 0x2
 5356 02d9 17       		.uleb128 0x17
 5357 02da 00       		.byte	0
 5358 02db 00       		.byte	0
 5359 02dc 37       		.uleb128 0x37
 5360 02dd 1D       		.uleb128 0x1d
 5361 02de 01       		.byte	0x1
 5362 02df 31       		.uleb128 0x31
 5363 02e0 13       		.uleb128 0x13
 5364 02e1 52       		.uleb128 0x52
 5365 02e2 01       		.uleb128 0x1
 5366 02e3 55       		.uleb128 0x55
 5367 02e4 17       		.uleb128 0x17
 5368 02e5 58       		.uleb128 0x58
 5369 02e6 0B       		.uleb128 0xb
 5370 02e7 59       		.uleb128 0x59
 5371 02e8 0B       		.uleb128 0xb
 5372 02e9 01       		.uleb128 0x1
 5373 02ea 13       		.uleb128 0x13
 5374 02eb 00       		.byte	0
 5375 02ec 00       		.byte	0
 5376 02ed 38       		.uleb128 0x38
 5377 02ee 1D       		.uleb128 0x1d
 5378 02ef 01       		.byte	0x1
 5379 02f0 31       		.uleb128 0x31
 5380 02f1 13       		.uleb128 0x13
 5381 02f2 52       		.uleb128 0x52
 5382 02f3 01       		.uleb128 0x1
 5383 02f4 55       		.uleb128 0x55
 5384 02f5 17       		.uleb128 0x17
 5385 02f6 58       		.uleb128 0x58
 5386 02f7 0B       		.uleb128 0xb
 5387 02f8 59       		.uleb128 0x59
ARM GAS  /tmp/cc0yVrlH.s 			page 159


 5388 02f9 05       		.uleb128 0x5
 5389 02fa 00       		.byte	0
 5390 02fb 00       		.byte	0
 5391 02fc 39       		.uleb128 0x39
 5392 02fd 1D       		.uleb128 0x1d
 5393 02fe 01       		.byte	0x1
 5394 02ff 31       		.uleb128 0x31
 5395 0300 13       		.uleb128 0x13
 5396 0301 52       		.uleb128 0x52
 5397 0302 01       		.uleb128 0x1
 5398 0303 55       		.uleb128 0x55
 5399 0304 17       		.uleb128 0x17
 5400 0305 58       		.uleb128 0x58
 5401 0306 0B       		.uleb128 0xb
 5402 0307 59       		.uleb128 0x59
 5403 0308 0B       		.uleb128 0xb
 5404 0309 00       		.byte	0
 5405 030a 00       		.byte	0
 5406 030b 3A       		.uleb128 0x3a
 5407 030c 1D       		.uleb128 0x1d
 5408 030d 00       		.byte	0
 5409 030e 31       		.uleb128 0x31
 5410 030f 13       		.uleb128 0x13
 5411 0310 52       		.uleb128 0x52
 5412 0311 01       		.uleb128 0x1
 5413 0312 55       		.uleb128 0x55
 5414 0313 17       		.uleb128 0x17
 5415 0314 58       		.uleb128 0x58
 5416 0315 0B       		.uleb128 0xb
 5417 0316 59       		.uleb128 0x59
 5418 0317 0B       		.uleb128 0xb
 5419 0318 00       		.byte	0
 5420 0319 00       		.byte	0
 5421 031a 3B       		.uleb128 0x3b
 5422 031b 05       		.uleb128 0x5
 5423 031c 00       		.byte	0
 5424 031d 31       		.uleb128 0x31
 5425 031e 13       		.uleb128 0x13
 5426 031f 00       		.byte	0
 5427 0320 00       		.byte	0
 5428 0321 3C       		.uleb128 0x3c
 5429 0322 2E       		.uleb128 0x2e
 5430 0323 01       		.byte	0x1
 5431 0324 31       		.uleb128 0x31
 5432 0325 13       		.uleb128 0x13
 5433 0326 11       		.uleb128 0x11
 5434 0327 01       		.uleb128 0x1
 5435 0328 12       		.uleb128 0x12
 5436 0329 06       		.uleb128 0x6
 5437 032a 40       		.uleb128 0x40
 5438 032b 18       		.uleb128 0x18
 5439 032c 9642     		.uleb128 0x2116
 5440 032e 19       		.uleb128 0x19
 5441 032f 01       		.uleb128 0x1
 5442 0330 13       		.uleb128 0x13
 5443 0331 00       		.byte	0
 5444 0332 00       		.byte	0
ARM GAS  /tmp/cc0yVrlH.s 			page 160


 5445 0333 3D       		.uleb128 0x3d
 5446 0334 34       		.uleb128 0x34
 5447 0335 00       		.byte	0
 5448 0336 31       		.uleb128 0x31
 5449 0337 13       		.uleb128 0x13
 5450 0338 02       		.uleb128 0x2
 5451 0339 18       		.uleb128 0x18
 5452 033a 00       		.byte	0
 5453 033b 00       		.byte	0
 5454 033c 3E       		.uleb128 0x3e
 5455 033d 34       		.uleb128 0x34
 5456 033e 00       		.byte	0
 5457 033f 31       		.uleb128 0x31
 5458 0340 13       		.uleb128 0x13
 5459 0341 02       		.uleb128 0x2
 5460 0342 17       		.uleb128 0x17
 5461 0343 00       		.byte	0
 5462 0344 00       		.byte	0
 5463 0345 3F       		.uleb128 0x3f
 5464 0346 0B       		.uleb128 0xb
 5465 0347 01       		.byte	0x1
 5466 0348 11       		.uleb128 0x11
 5467 0349 01       		.uleb128 0x1
 5468 034a 12       		.uleb128 0x12
 5469 034b 06       		.uleb128 0x6
 5470 034c 00       		.byte	0
 5471 034d 00       		.byte	0
 5472 034e 40       		.uleb128 0x40
 5473 034f 05       		.uleb128 0x5
 5474 0350 00       		.byte	0
 5475 0351 31       		.uleb128 0x31
 5476 0352 13       		.uleb128 0x13
 5477 0353 1C       		.uleb128 0x1c
 5478 0354 0B       		.uleb128 0xb
 5479 0355 00       		.byte	0
 5480 0356 00       		.byte	0
 5481 0357 41       		.uleb128 0x41
 5482 0358 34       		.uleb128 0x34
 5483 0359 00       		.byte	0
 5484 035a 31       		.uleb128 0x31
 5485 035b 13       		.uleb128 0x13
 5486 035c 00       		.byte	0
 5487 035d 00       		.byte	0
 5488 035e 42       		.uleb128 0x42
 5489 035f 2E       		.uleb128 0x2e
 5490 0360 01       		.byte	0x1
 5491 0361 3F       		.uleb128 0x3f
 5492 0362 19       		.uleb128 0x19
 5493 0363 03       		.uleb128 0x3
 5494 0364 0E       		.uleb128 0xe
 5495 0365 3A       		.uleb128 0x3a
 5496 0366 0B       		.uleb128 0xb
 5497 0367 3B       		.uleb128 0x3b
 5498 0368 0B       		.uleb128 0xb
 5499 0369 27       		.uleb128 0x27
 5500 036a 19       		.uleb128 0x19
 5501 036b 11       		.uleb128 0x11
ARM GAS  /tmp/cc0yVrlH.s 			page 161


 5502 036c 01       		.uleb128 0x1
 5503 036d 12       		.uleb128 0x12
 5504 036e 06       		.uleb128 0x6
 5505 036f 40       		.uleb128 0x40
 5506 0370 18       		.uleb128 0x18
 5507 0371 9642     		.uleb128 0x2116
 5508 0373 19       		.uleb128 0x19
 5509 0374 01       		.uleb128 0x1
 5510 0375 13       		.uleb128 0x13
 5511 0376 00       		.byte	0
 5512 0377 00       		.byte	0
 5513 0378 43       		.uleb128 0x43
 5514 0379 1D       		.uleb128 0x1d
 5515 037a 01       		.byte	0x1
 5516 037b 31       		.uleb128 0x31
 5517 037c 13       		.uleb128 0x13
 5518 037d 11       		.uleb128 0x11
 5519 037e 01       		.uleb128 0x1
 5520 037f 12       		.uleb128 0x12
 5521 0380 06       		.uleb128 0x6
 5522 0381 58       		.uleb128 0x58
 5523 0382 0B       		.uleb128 0xb
 5524 0383 59       		.uleb128 0x59
 5525 0384 0B       		.uleb128 0xb
 5526 0385 01       		.uleb128 0x1
 5527 0386 13       		.uleb128 0x13
 5528 0387 00       		.byte	0
 5529 0388 00       		.byte	0
 5530 0389 44       		.uleb128 0x44
 5531 038a 2E       		.uleb128 0x2e
 5532 038b 01       		.byte	0x1
 5533 038c 3F       		.uleb128 0x3f
 5534 038d 19       		.uleb128 0x19
 5535 038e 03       		.uleb128 0x3
 5536 038f 0E       		.uleb128 0xe
 5537 0390 3A       		.uleb128 0x3a
 5538 0391 0B       		.uleb128 0xb
 5539 0392 3B       		.uleb128 0x3b
 5540 0393 0B       		.uleb128 0xb
 5541 0394 27       		.uleb128 0x27
 5542 0395 19       		.uleb128 0x19
 5543 0396 11       		.uleb128 0x11
 5544 0397 01       		.uleb128 0x1
 5545 0398 12       		.uleb128 0x12
 5546 0399 06       		.uleb128 0x6
 5547 039a 40       		.uleb128 0x40
 5548 039b 18       		.uleb128 0x18
 5549 039c 9742     		.uleb128 0x2117
 5550 039e 19       		.uleb128 0x19
 5551 039f 01       		.uleb128 0x1
 5552 03a0 13       		.uleb128 0x13
 5553 03a1 00       		.byte	0
 5554 03a2 00       		.byte	0
 5555 03a3 45       		.uleb128 0x45
 5556 03a4 05       		.uleb128 0x5
 5557 03a5 00       		.byte	0
 5558 03a6 03       		.uleb128 0x3
ARM GAS  /tmp/cc0yVrlH.s 			page 162


 5559 03a7 0E       		.uleb128 0xe
 5560 03a8 3A       		.uleb128 0x3a
 5561 03a9 0B       		.uleb128 0xb
 5562 03aa 3B       		.uleb128 0x3b
 5563 03ab 0B       		.uleb128 0xb
 5564 03ac 49       		.uleb128 0x49
 5565 03ad 13       		.uleb128 0x13
 5566 03ae 02       		.uleb128 0x2
 5567 03af 18       		.uleb128 0x18
 5568 03b0 00       		.byte	0
 5569 03b1 00       		.byte	0
 5570 03b2 46       		.uleb128 0x46
 5571 03b3 1D       		.uleb128 0x1d
 5572 03b4 01       		.byte	0x1
 5573 03b5 31       		.uleb128 0x31
 5574 03b6 13       		.uleb128 0x13
 5575 03b7 11       		.uleb128 0x11
 5576 03b8 01       		.uleb128 0x1
 5577 03b9 12       		.uleb128 0x12
 5578 03ba 06       		.uleb128 0x6
 5579 03bb 58       		.uleb128 0x58
 5580 03bc 0B       		.uleb128 0xb
 5581 03bd 59       		.uleb128 0x59
 5582 03be 05       		.uleb128 0x5
 5583 03bf 00       		.byte	0
 5584 03c0 00       		.byte	0
 5585 03c1 47       		.uleb128 0x47
 5586 03c2 2E       		.uleb128 0x2e
 5587 03c3 01       		.byte	0x1
 5588 03c4 03       		.uleb128 0x3
 5589 03c5 0E       		.uleb128 0xe
 5590 03c6 3A       		.uleb128 0x3a
 5591 03c7 0B       		.uleb128 0xb
 5592 03c8 3B       		.uleb128 0x3b
 5593 03c9 0B       		.uleb128 0xb
 5594 03ca 27       		.uleb128 0x27
 5595 03cb 19       		.uleb128 0x19
 5596 03cc 20       		.uleb128 0x20
 5597 03cd 0B       		.uleb128 0xb
 5598 03ce 01       		.uleb128 0x1
 5599 03cf 13       		.uleb128 0x13
 5600 03d0 00       		.byte	0
 5601 03d1 00       		.byte	0
 5602 03d2 48       		.uleb128 0x48
 5603 03d3 2E       		.uleb128 0x2e
 5604 03d4 01       		.byte	0x1
 5605 03d5 3F       		.uleb128 0x3f
 5606 03d6 19       		.uleb128 0x19
 5607 03d7 03       		.uleb128 0x3
 5608 03d8 0E       		.uleb128 0xe
 5609 03d9 3A       		.uleb128 0x3a
 5610 03da 0B       		.uleb128 0xb
 5611 03db 3B       		.uleb128 0x3b
 5612 03dc 0B       		.uleb128 0xb
 5613 03dd 27       		.uleb128 0x27
 5614 03de 19       		.uleb128 0x19
 5615 03df 49       		.uleb128 0x49
ARM GAS  /tmp/cc0yVrlH.s 			page 163


 5616 03e0 13       		.uleb128 0x13
 5617 03e1 11       		.uleb128 0x11
 5618 03e2 01       		.uleb128 0x1
 5619 03e3 12       		.uleb128 0x12
 5620 03e4 06       		.uleb128 0x6
 5621 03e5 40       		.uleb128 0x40
 5622 03e6 18       		.uleb128 0x18
 5623 03e7 9642     		.uleb128 0x2116
 5624 03e9 19       		.uleb128 0x19
 5625 03ea 01       		.uleb128 0x1
 5626 03eb 13       		.uleb128 0x13
 5627 03ec 00       		.byte	0
 5628 03ed 00       		.byte	0
 5629 03ee 49       		.uleb128 0x49
 5630 03ef 1D       		.uleb128 0x1d
 5631 03f0 01       		.byte	0x1
 5632 03f1 31       		.uleb128 0x31
 5633 03f2 13       		.uleb128 0x13
 5634 03f3 52       		.uleb128 0x52
 5635 03f4 01       		.uleb128 0x1
 5636 03f5 55       		.uleb128 0x55
 5637 03f6 17       		.uleb128 0x17
 5638 03f7 58       		.uleb128 0x58
 5639 03f8 0B       		.uleb128 0xb
 5640 03f9 59       		.uleb128 0x59
 5641 03fa 05       		.uleb128 0x5
 5642 03fb 01       		.uleb128 0x1
 5643 03fc 13       		.uleb128 0x13
 5644 03fd 00       		.byte	0
 5645 03fe 00       		.byte	0
 5646 03ff 4A       		.uleb128 0x4a
 5647 0400 1D       		.uleb128 0x1d
 5648 0401 01       		.byte	0x1
 5649 0402 31       		.uleb128 0x31
 5650 0403 13       		.uleb128 0x13
 5651 0404 11       		.uleb128 0x11
 5652 0405 01       		.uleb128 0x1
 5653 0406 12       		.uleb128 0x12
 5654 0407 06       		.uleb128 0x6
 5655 0408 58       		.uleb128 0x58
 5656 0409 0B       		.uleb128 0xb
 5657 040a 59       		.uleb128 0x59
 5658 040b 05       		.uleb128 0x5
 5659 040c 01       		.uleb128 0x1
 5660 040d 13       		.uleb128 0x13
 5661 040e 00       		.byte	0
 5662 040f 00       		.byte	0
 5663 0410 4B       		.uleb128 0x4b
 5664 0411 898201   		.uleb128 0x4109
 5665 0414 01       		.byte	0x1
 5666 0415 11       		.uleb128 0x11
 5667 0416 01       		.uleb128 0x1
 5668 0417 31       		.uleb128 0x31
 5669 0418 13       		.uleb128 0x13
 5670 0419 00       		.byte	0
 5671 041a 00       		.byte	0
 5672 041b 4C       		.uleb128 0x4c
ARM GAS  /tmp/cc0yVrlH.s 			page 164


 5673 041c 898201   		.uleb128 0x4109
 5674 041f 01       		.byte	0x1
 5675 0420 11       		.uleb128 0x11
 5676 0421 01       		.uleb128 0x1
 5677 0422 31       		.uleb128 0x31
 5678 0423 13       		.uleb128 0x13
 5679 0424 01       		.uleb128 0x1
 5680 0425 13       		.uleb128 0x13
 5681 0426 00       		.byte	0
 5682 0427 00       		.byte	0
 5683 0428 4D       		.uleb128 0x4d
 5684 0429 898201   		.uleb128 0x4109
 5685 042c 00       		.byte	0
 5686 042d 11       		.uleb128 0x11
 5687 042e 01       		.uleb128 0x1
 5688 042f 31       		.uleb128 0x31
 5689 0430 13       		.uleb128 0x13
 5690 0431 00       		.byte	0
 5691 0432 00       		.byte	0
 5692 0433 4E       		.uleb128 0x4e
 5693 0434 34       		.uleb128 0x34
 5694 0435 00       		.byte	0
 5695 0436 03       		.uleb128 0x3
 5696 0437 0E       		.uleb128 0xe
 5697 0438 3A       		.uleb128 0x3a
 5698 0439 0B       		.uleb128 0xb
 5699 043a 3B       		.uleb128 0x3b
 5700 043b 0B       		.uleb128 0xb
 5701 043c 49       		.uleb128 0x49
 5702 043d 13       		.uleb128 0x13
 5703 043e 02       		.uleb128 0x2
 5704 043f 18       		.uleb128 0x18
 5705 0440 00       		.byte	0
 5706 0441 00       		.byte	0
 5707 0442 4F       		.uleb128 0x4f
 5708 0443 34       		.uleb128 0x34
 5709 0444 00       		.byte	0
 5710 0445 03       		.uleb128 0x3
 5711 0446 0E       		.uleb128 0xe
 5712 0447 3A       		.uleb128 0x3a
 5713 0448 0B       		.uleb128 0xb
 5714 0449 3B       		.uleb128 0x3b
 5715 044a 05       		.uleb128 0x5
 5716 044b 49       		.uleb128 0x49
 5717 044c 13       		.uleb128 0x13
 5718 044d 3F       		.uleb128 0x3f
 5719 044e 19       		.uleb128 0x19
 5720 044f 3C       		.uleb128 0x3c
 5721 0450 19       		.uleb128 0x19
 5722 0451 00       		.byte	0
 5723 0452 00       		.byte	0
 5724 0453 50       		.uleb128 0x50
 5725 0454 34       		.uleb128 0x34
 5726 0455 00       		.byte	0
 5727 0456 03       		.uleb128 0x3
 5728 0457 08       		.uleb128 0x8
 5729 0458 3A       		.uleb128 0x3a
ARM GAS  /tmp/cc0yVrlH.s 			page 165


 5730 0459 0B       		.uleb128 0xb
 5731 045a 3B       		.uleb128 0x3b
 5732 045b 05       		.uleb128 0x5
 5733 045c 49       		.uleb128 0x49
 5734 045d 13       		.uleb128 0x13
 5735 045e 3F       		.uleb128 0x3f
 5736 045f 19       		.uleb128 0x19
 5737 0460 3C       		.uleb128 0x3c
 5738 0461 19       		.uleb128 0x19
 5739 0462 00       		.byte	0
 5740 0463 00       		.byte	0
 5741 0464 51       		.uleb128 0x51
 5742 0465 34       		.uleb128 0x34
 5743 0466 00       		.byte	0
 5744 0467 03       		.uleb128 0x3
 5745 0468 0E       		.uleb128 0xe
 5746 0469 3A       		.uleb128 0x3a
 5747 046a 0B       		.uleb128 0xb
 5748 046b 3B       		.uleb128 0x3b
 5749 046c 0B       		.uleb128 0xb
 5750 046d 49       		.uleb128 0x49
 5751 046e 13       		.uleb128 0x13
 5752 046f 3F       		.uleb128 0x3f
 5753 0470 19       		.uleb128 0x19
 5754 0471 02       		.uleb128 0x2
 5755 0472 18       		.uleb128 0x18
 5756 0473 00       		.byte	0
 5757 0474 00       		.byte	0
 5758 0475 52       		.uleb128 0x52
 5759 0476 21       		.uleb128 0x21
 5760 0477 00       		.byte	0
 5761 0478 00       		.byte	0
 5762 0479 00       		.byte	0
 5763 047a 53       		.uleb128 0x53
 5764 047b 34       		.uleb128 0x34
 5765 047c 00       		.byte	0
 5766 047d 03       		.uleb128 0x3
 5767 047e 0E       		.uleb128 0xe
 5768 047f 3A       		.uleb128 0x3a
 5769 0480 0B       		.uleb128 0xb
 5770 0481 3B       		.uleb128 0x3b
 5771 0482 0B       		.uleb128 0xb
 5772 0483 49       		.uleb128 0x49
 5773 0484 13       		.uleb128 0x13
 5774 0485 3F       		.uleb128 0x3f
 5775 0486 19       		.uleb128 0x19
 5776 0487 3C       		.uleb128 0x3c
 5777 0488 19       		.uleb128 0x19
 5778 0489 00       		.byte	0
 5779 048a 00       		.byte	0
 5780 048b 54       		.uleb128 0x54
 5781 048c 2E       		.uleb128 0x2e
 5782 048d 01       		.byte	0x1
 5783 048e 3F       		.uleb128 0x3f
 5784 048f 19       		.uleb128 0x19
 5785 0490 03       		.uleb128 0x3
 5786 0491 0E       		.uleb128 0xe
ARM GAS  /tmp/cc0yVrlH.s 			page 166


 5787 0492 3A       		.uleb128 0x3a
 5788 0493 0B       		.uleb128 0xb
 5789 0494 3B       		.uleb128 0x3b
 5790 0495 05       		.uleb128 0x5
 5791 0496 27       		.uleb128 0x27
 5792 0497 19       		.uleb128 0x19
 5793 0498 3C       		.uleb128 0x3c
 5794 0499 19       		.uleb128 0x19
 5795 049a 00       		.byte	0
 5796 049b 00       		.byte	0
 5797 049c 00       		.byte	0
 5798              		.section	.debug_loc,"",%progbits
 5799              	.Ldebug_loc0:
 5800              	.LLST0:
 5801 0000 00000000 		.4byte	.LVL0
 5802 0004 06000000 		.4byte	.LVL1
 5803 0008 0200     		.2byte	0x2
 5804 000a 30       		.byte	0x30
 5805 000b 9F       		.byte	0x9f
 5806 000c 06000000 		.4byte	.LVL1
 5807 0010 12000000 		.4byte	.LVL2
 5808 0014 0600     		.2byte	0x6
 5809 0016 08       		.byte	0x8
 5810 0017 4C       		.byte	0x4c
 5811 0018 74       		.byte	0x74
 5812 0019 00       		.sleb128 0
 5813 001a 1C       		.byte	0x1c
 5814 001b 9F       		.byte	0x9f
 5815 001c 12000000 		.4byte	.LVL2
 5816 0020 14000000 		.4byte	.LVL3
 5817 0024 0600     		.2byte	0x6
 5818 0026 08       		.byte	0x8
 5819 0027 4D       		.byte	0x4d
 5820 0028 74       		.byte	0x74
 5821 0029 00       		.sleb128 0
 5822 002a 1C       		.byte	0x1c
 5823 002b 9F       		.byte	0x9f
 5824 002c 14000000 		.4byte	.LVL3
 5825 0030 24000000 		.4byte	.LVL5
 5826 0034 0600     		.2byte	0x6
 5827 0036 08       		.byte	0x8
 5828 0037 4C       		.byte	0x4c
 5829 0038 74       		.byte	0x74
 5830 0039 00       		.sleb128 0
 5831 003a 1C       		.byte	0x1c
 5832 003b 9F       		.byte	0x9f
 5833 003c 00000000 		.4byte	0
 5834 0040 00000000 		.4byte	0
 5835              	.LLST1:
 5836 0044 00000000 		.4byte	.LVL6
 5837 0048 0A000000 		.4byte	.LVL7
 5838 004c 0100     		.2byte	0x1
 5839 004e 50       		.byte	0x50
 5840 004f 0A000000 		.4byte	.LVL7
 5841 0053 1C000000 		.4byte	.LFE274
 5842 0057 0500     		.2byte	0x5
 5843 0059 03       		.byte	0x3
ARM GAS  /tmp/cc0yVrlH.s 			page 167


 5844 005a 00000000 		.4byte	test_failure_message
 5845 005e 00000000 		.4byte	0
 5846 0062 00000000 		.4byte	0
 5847              	.LLST2:
 5848 0066 00000000 		.4byte	.LVL8
 5849 006a 0C000000 		.4byte	.LVL10
 5850 006e 0100     		.2byte	0x1
 5851 0070 50       		.byte	0x50
 5852 0071 0C000000 		.4byte	.LVL10
 5853 0075 18000000 		.4byte	.LVL11
 5854 0079 0400     		.2byte	0x4
 5855 007b F3       		.byte	0xf3
 5856 007c 01       		.uleb128 0x1
 5857 007d 50       		.byte	0x50
 5858 007e 9F       		.byte	0x9f
 5859 007f 18000000 		.4byte	.LVL11
 5860 0083 1A000000 		.4byte	.LVL12
 5861 0087 0100     		.2byte	0x1
 5862 0089 50       		.byte	0x50
 5863 008a 1A000000 		.4byte	.LVL12
 5864 008e 2C000000 		.4byte	.LFE275
 5865 0092 0400     		.2byte	0x4
 5866 0094 F3       		.byte	0xf3
 5867 0095 01       		.uleb128 0x1
 5868 0096 50       		.byte	0x50
 5869 0097 9F       		.byte	0x9f
 5870 0098 00000000 		.4byte	0
 5871 009c 00000000 		.4byte	0
 5872              	.LLST3:
 5873 00a0 04000000 		.4byte	.LVL9
 5874 00a4 18000000 		.4byte	.LVL11
 5875 00a8 0100     		.2byte	0x1
 5876 00aa 51       		.byte	0x51
 5877 00ab 00000000 		.4byte	0
 5878 00af 00000000 		.4byte	0
 5879              	.LLST4:
 5880 00b3 00000000 		.4byte	.LVL13
 5881 00b7 14000000 		.4byte	.LVL16
 5882 00bb 0100     		.2byte	0x1
 5883 00bd 50       		.byte	0x50
 5884 00be 14000000 		.4byte	.LVL16
 5885 00c2 18000000 		.4byte	.LVL17
 5886 00c6 0300     		.2byte	0x3
 5887 00c8 70       		.byte	0x70
 5888 00c9 7F       		.sleb128 -1
 5889 00ca 9F       		.byte	0x9f
 5890 00cb 18000000 		.4byte	.LVL17
 5891 00cf 1E000000 		.4byte	.LVL18
 5892 00d3 0100     		.2byte	0x1
 5893 00d5 50       		.byte	0x50
 5894 00d6 00000000 		.4byte	0
 5895 00da 00000000 		.4byte	0
 5896              	.LLST5:
 5897 00de 00000000 		.4byte	.LVL13
 5898 00e2 0C000000 		.4byte	.LVL14
 5899 00e6 0600     		.2byte	0x6
 5900 00e8 03       		.byte	0x3
ARM GAS  /tmp/cc0yVrlH.s 			page 168


 5901 00e9 00000000 		.4byte	test_tokens_buffer
 5902 00ed 9F       		.byte	0x9f
 5903 00ee 0C000000 		.4byte	.LVL14
 5904 00f2 10000000 		.4byte	.LVL15
 5905 00f6 0100     		.2byte	0x1
 5906 00f8 53       		.byte	0x53
 5907 00f9 10000000 		.4byte	.LVL15
 5908 00fd 18000000 		.4byte	.LVL17
 5909 0101 0300     		.2byte	0x3
 5910 0103 73       		.byte	0x73
 5911 0104 7F       		.sleb128 -1
 5912 0105 9F       		.byte	0x9f
 5913 0106 18000000 		.4byte	.LVL17
 5914 010a 26000000 		.4byte	.LVL19
 5915 010e 0100     		.2byte	0x1
 5916 0110 53       		.byte	0x53
 5917 0111 00000000 		.4byte	0
 5918 0115 00000000 		.4byte	0
 5919              	.LLST6:
 5920 0119 00000000 		.4byte	.LVL20
 5921 011d 0A000000 		.4byte	.LVL23
 5922 0121 0100     		.2byte	0x1
 5923 0123 50       		.byte	0x50
 5924 0124 0A000000 		.4byte	.LVL23
 5925 0128 38000000 		.4byte	.LFE277
 5926 012c 0400     		.2byte	0x4
 5927 012e F3       		.byte	0xf3
 5928 012f 01       		.uleb128 0x1
 5929 0130 50       		.byte	0x50
 5930 0131 9F       		.byte	0x9f
 5931 0132 00000000 		.4byte	0
 5932 0136 00000000 		.4byte	0
 5933              	.LLST7:
 5934 013a 00000000 		.4byte	.LVL20
 5935 013e 06000000 		.4byte	.LVL21
 5936 0142 0100     		.2byte	0x1
 5937 0144 51       		.byte	0x51
 5938 0145 06000000 		.4byte	.LVL21
 5939 0149 38000000 		.4byte	.LFE277
 5940 014d 0400     		.2byte	0x4
 5941 014f F3       		.byte	0xf3
 5942 0150 01       		.uleb128 0x1
 5943 0151 51       		.byte	0x51
 5944 0152 9F       		.byte	0x9f
 5945 0153 00000000 		.4byte	0
 5946 0157 00000000 		.4byte	0
 5947              	.LLST8:
 5948 015b 08000000 		.4byte	.LVL22
 5949 015f 0A000000 		.4byte	.LVL23
 5950 0163 0100     		.2byte	0x1
 5951 0165 50       		.byte	0x50
 5952 0166 0A000000 		.4byte	.LVL23
 5953 016a 38000000 		.4byte	.LFE277
 5954 016e 0400     		.2byte	0x4
 5955 0170 F3       		.byte	0xf3
 5956 0171 01       		.uleb128 0x1
 5957 0172 50       		.byte	0x50
ARM GAS  /tmp/cc0yVrlH.s 			page 169


 5958 0173 9F       		.byte	0x9f
 5959 0174 00000000 		.4byte	0
 5960 0178 00000000 		.4byte	0
 5961              	.LLST9:
 5962 017c 08000000 		.4byte	.LVL22
 5963 0180 16000000 		.4byte	.LVL25
 5964 0184 0100     		.2byte	0x1
 5965 0186 53       		.byte	0x53
 5966 0187 24000000 		.4byte	.LVL26
 5967 018b 38000000 		.4byte	.LFE277
 5968 018f 0100     		.2byte	0x1
 5969 0191 53       		.byte	0x53
 5970 0192 00000000 		.4byte	0
 5971 0196 00000000 		.4byte	0
 5972              	.LLST12:
 5973 019a 10000000 		.4byte	.LVL24
 5974 019e 24000000 		.4byte	.LVL26
 5975 01a2 0100     		.2byte	0x1
 5976 01a4 52       		.byte	0x52
 5977 01a5 00000000 		.4byte	0
 5978 01a9 00000000 		.4byte	0
 5979              	.LLST13:
 5980 01ad 00000000 		.4byte	.LVL27
 5981 01b1 0E000000 		.4byte	.LVL28
 5982 01b5 0100     		.2byte	0x1
 5983 01b7 50       		.byte	0x50
 5984 01b8 0E000000 		.4byte	.LVL28
 5985 01bc 26000000 		.4byte	.LVL29
 5986 01c0 0100     		.2byte	0x1
 5987 01c2 50       		.byte	0x50
 5988 01c3 26000000 		.4byte	.LVL29
 5989 01c7 38000000 		.4byte	.LVL31
 5990 01cb 0100     		.2byte	0x1
 5991 01cd 52       		.byte	0x52
 5992 01ce 4E000000 		.4byte	.LVL36
 5993 01d2 52000000 		.4byte	.LVL37
 5994 01d6 0100     		.2byte	0x1
 5995 01d8 50       		.byte	0x50
 5996 01d9 52000000 		.4byte	.LVL37
 5997 01dd 68000000 		.4byte	.LFE278
 5998 01e1 0400     		.2byte	0x4
 5999 01e3 F3       		.byte	0xf3
 6000 01e4 01       		.uleb128 0x1
 6001 01e5 50       		.byte	0x50
 6002 01e6 9F       		.byte	0x9f
 6003 01e7 00000000 		.4byte	0
 6004 01eb 00000000 		.4byte	0
 6005              	.LLST14:
 6006 01ef 0E000000 		.4byte	.LVL28
 6007 01f3 26000000 		.4byte	.LVL29
 6008 01f7 0300     		.2byte	0x3
 6009 01f9 73       		.byte	0x73
 6010 01fa 7F       		.sleb128 -1
 6011 01fb 9F       		.byte	0x9f
 6012 01fc 26000000 		.4byte	.LVL29
 6013 0200 2A000000 		.4byte	.LVL30
 6014 0204 0100     		.2byte	0x1
ARM GAS  /tmp/cc0yVrlH.s 			page 170


 6015 0206 53       		.byte	0x53
 6016 0207 2A000000 		.4byte	.LVL30
 6017 020b 38000000 		.4byte	.LVL31
 6018 020f 0100     		.2byte	0x1
 6019 0211 54       		.byte	0x54
 6020 0212 38000000 		.4byte	.LVL31
 6021 0216 3E000000 		.4byte	.LVL32
 6022 021a 0300     		.2byte	0x3
 6023 021c 74       		.byte	0x74
 6024 021d 7F       		.sleb128 -1
 6025 021e 9F       		.byte	0x9f
 6026 021f 3E000000 		.4byte	.LVL32
 6027 0223 40000000 		.4byte	.LVL33
 6028 0227 0100     		.2byte	0x1
 6029 0229 54       		.byte	0x54
 6030 022a 40000000 		.4byte	.LVL33
 6031 022e 4A000000 		.4byte	.LVL35
 6032 0232 0300     		.2byte	0x3
 6033 0234 74       		.byte	0x74
 6034 0235 7F       		.sleb128 -1
 6035 0236 9F       		.byte	0x9f
 6036 0237 00000000 		.4byte	0
 6037 023b 00000000 		.4byte	0
 6038              	.LLST15:
 6039 023f 00000000 		.4byte	.LVL39
 6040 0243 0A000000 		.4byte	.LVL40
 6041 0247 0100     		.2byte	0x1
 6042 0249 50       		.byte	0x50
 6043 024a 0A000000 		.4byte	.LVL40
 6044 024e 0C000000 		.4byte	.LVL41
 6045 0252 0100     		.2byte	0x1
 6046 0254 54       		.byte	0x54
 6047 0255 0C000000 		.4byte	.LVL41
 6048 0259 16000000 		.4byte	.LVL43
 6049 025d 0300     		.2byte	0x3
 6050 025f 74       		.byte	0x74
 6051 0260 01       		.sleb128 1
 6052 0261 9F       		.byte	0x9f
 6053 0262 16000000 		.4byte	.LVL43
 6054 0266 1A000000 		.4byte	.LVL44
 6055 026a 0100     		.2byte	0x1
 6056 026c 54       		.byte	0x54
 6057 026d 00000000 		.4byte	0
 6058 0271 00000000 		.4byte	0
 6059              	.LLST16:
 6060 0275 00000000 		.4byte	.LVL45
 6061 0279 0A000000 		.4byte	.LVL46
 6062 027d 0100     		.2byte	0x1
 6063 027f 50       		.byte	0x50
 6064 0280 0A000000 		.4byte	.LVL46
 6065 0284 30000000 		.4byte	.LFE280
 6066 0288 0400     		.2byte	0x4
 6067 028a F3       		.byte	0xf3
 6068 028b 01       		.uleb128 0x1
 6069 028c 50       		.byte	0x50
 6070 028d 9F       		.byte	0x9f
 6071 028e 00000000 		.4byte	0
ARM GAS  /tmp/cc0yVrlH.s 			page 171


 6072 0292 00000000 		.4byte	0
 6073              	.LLST17:
 6074 0296 00000000 		.4byte	.LVL45
 6075 029a 0A000000 		.4byte	.LVL46
 6076 029e 0100     		.2byte	0x1
 6077 02a0 50       		.byte	0x50
 6078 02a1 0A000000 		.4byte	.LVL46
 6079 02a5 0C000000 		.4byte	.LVL47
 6080 02a9 0100     		.2byte	0x1
 6081 02ab 54       		.byte	0x54
 6082 02ac 0C000000 		.4byte	.LVL47
 6083 02b0 16000000 		.4byte	.LVL49
 6084 02b4 0300     		.2byte	0x3
 6085 02b6 74       		.byte	0x74
 6086 02b7 01       		.sleb128 1
 6087 02b8 9F       		.byte	0x9f
 6088 02b9 16000000 		.4byte	.LVL49
 6089 02bd 1A000000 		.4byte	.LVL50
 6090 02c1 0100     		.2byte	0x1
 6091 02c3 54       		.byte	0x54
 6092 02c4 00000000 		.4byte	0
 6093 02c8 00000000 		.4byte	0
 6094              	.LLST18:
 6095 02cc 00000000 		.4byte	.LVL55
 6096 02d0 0E000000 		.4byte	.LVL56
 6097 02d4 0100     		.2byte	0x1
 6098 02d6 50       		.byte	0x50
 6099 02d7 0E000000 		.4byte	.LVL56
 6100 02db 11000000 		.4byte	.LVL57-1
 6101 02df 0500     		.2byte	0x5
 6102 02e1 03       		.byte	0x3
 6103 02e2 00000000 		.4byte	test_chp
 6104 02e6 11000000 		.4byte	.LVL57-1
 6105 02ea B0020000 		.4byte	.LFE283
 6106 02ee 0400     		.2byte	0x4
 6107 02f0 F3       		.byte	0xf3
 6108 02f1 01       		.uleb128 0x1
 6109 02f2 50       		.byte	0x50
 6110 02f3 9F       		.byte	0x9f
 6111 02f4 00000000 		.4byte	0
 6112 02f8 00000000 		.4byte	0
 6113              	.LLST19:
 6114 02fc 7C000000 		.4byte	.LVL78
 6115 0300 8A000000 		.4byte	.LVL79
 6116 0304 0200     		.2byte	0x2
 6117 0306 30       		.byte	0x30
 6118 0307 9F       		.byte	0x9f
 6119 0308 8A000000 		.4byte	.LVL79
 6120 030c 96000000 		.4byte	.LVL81
 6121 0310 0200     		.2byte	0x2
 6122 0312 91       		.byte	0x91
 6123 0313 54       		.sleb128 -44
 6124 0314 96000000 		.4byte	.LVL81
 6125 0318 A0000000 		.4byte	.LVL82
 6126 031c 0300     		.2byte	0x3
 6127 031e 72       		.byte	0x72
 6128 031f 7F       		.sleb128 -1
ARM GAS  /tmp/cc0yVrlH.s 			page 172


 6129 0320 9F       		.byte	0x9f
 6130 0321 A0000000 		.4byte	.LVL82
 6131 0325 E4010000 		.4byte	.LVL139
 6132 0329 0600     		.2byte	0x6
 6133 032b 91       		.byte	0x91
 6134 032c 54       		.sleb128 -44
 6135 032d 06       		.byte	0x6
 6136 032e 31       		.byte	0x31
 6137 032f 1C       		.byte	0x1c
 6138 0330 9F       		.byte	0x9f
 6139 0331 E4010000 		.4byte	.LVL139
 6140 0335 EE010000 		.4byte	.LVL140
 6141 0339 0200     		.2byte	0x2
 6142 033b 91       		.byte	0x91
 6143 033c 54       		.sleb128 -44
 6144 033d 22020000 		.4byte	.LVL148
 6145 0341 2A020000 		.4byte	.LVL150
 6146 0345 0600     		.2byte	0x6
 6147 0347 91       		.byte	0x91
 6148 0348 54       		.sleb128 -44
 6149 0349 06       		.byte	0x6
 6150 034a 31       		.byte	0x31
 6151 034b 1C       		.byte	0x1c
 6152 034c 9F       		.byte	0x9f
 6153 034d 00000000 		.4byte	0
 6154 0351 00000000 		.4byte	0
 6155              	.LLST20:
 6156 0355 8C000000 		.4byte	.LVL80
 6157 0359 CC000000 		.4byte	.LVL91
 6158 035d 0100     		.2byte	0x1
 6159 035f 56       		.byte	0x56
 6160 0360 CC000000 		.4byte	.LVL91
 6161 0364 D6010000 		.4byte	.LVL138
 6162 0368 0300     		.2byte	0x3
 6163 036a 76       		.byte	0x76
 6164 036b 7F       		.sleb128 -1
 6165 036c 9F       		.byte	0x9f
 6166 036d D6010000 		.4byte	.LVL138
 6167 0371 EE010000 		.4byte	.LVL140
 6168 0375 0100     		.2byte	0x1
 6169 0377 56       		.byte	0x56
 6170 0378 22020000 		.4byte	.LVL148
 6171 037c 2A020000 		.4byte	.LVL150
 6172 0380 0300     		.2byte	0x3
 6173 0382 76       		.byte	0x76
 6174 0383 7F       		.sleb128 -1
 6175 0384 9F       		.byte	0x9f
 6176 0385 00000000 		.4byte	0
 6177 0389 00000000 		.4byte	0
 6178              	.LLST21:
 6179 038d 1E000000 		.4byte	.LVL59
 6180 0391 20000000 		.4byte	.LVL60
 6181 0395 0600     		.2byte	0x6
 6182 0397 03       		.byte	0x3
 6183 0398 28000000 		.4byte	.LC4
 6184 039c 9F       		.byte	0x9f
 6185 039d 20000000 		.4byte	.LVL60
ARM GAS  /tmp/cc0yVrlH.s 			page 173


 6186 03a1 22000000 		.4byte	.LVL61
 6187 03a5 0100     		.2byte	0x1
 6188 03a7 55       		.byte	0x55
 6189 03a8 22000000 		.4byte	.LVL61
 6190 03ac 2C000000 		.4byte	.LVL63
 6191 03b0 0300     		.2byte	0x3
 6192 03b2 75       		.byte	0x75
 6193 03b3 01       		.sleb128 1
 6194 03b4 9F       		.byte	0x9f
 6195 03b5 2C000000 		.4byte	.LVL63
 6196 03b9 34000000 		.4byte	.LVL64
 6197 03bd 0100     		.2byte	0x1
 6198 03bf 55       		.byte	0x55
 6199 03c0 00000000 		.4byte	0
 6200 03c4 00000000 		.4byte	0
 6201              	.LLST22:
 6202 03c8 38000000 		.4byte	.LVL65
 6203 03cc 3A000000 		.4byte	.LVL66
 6204 03d0 0600     		.2byte	0x6
 6205 03d2 03       		.byte	0x3
 6206 03d3 D4000000 		.4byte	.LC15
 6207 03d7 9F       		.byte	0x9f
 6208 03d8 3A000000 		.4byte	.LVL66
 6209 03dc 3C000000 		.4byte	.LVL67
 6210 03e0 0100     		.2byte	0x1
 6211 03e2 55       		.byte	0x55
 6212 03e3 3C000000 		.4byte	.LVL67
 6213 03e7 46000000 		.4byte	.LVL69
 6214 03eb 0300     		.2byte	0x3
 6215 03ed 75       		.byte	0x75
 6216 03ee 01       		.sleb128 1
 6217 03ef 9F       		.byte	0x9f
 6218 03f0 46000000 		.4byte	.LVL69
 6219 03f4 4E000000 		.4byte	.LVL70
 6220 03f8 0100     		.2byte	0x1
 6221 03fa 55       		.byte	0x55
 6222 03fb 00000000 		.4byte	0
 6223 03ff 00000000 		.4byte	0
 6224              	.LLST23:
 6225 0403 52000000 		.4byte	.LVL71
 6226 0407 54000000 		.4byte	.LVL72
 6227 040b 0600     		.2byte	0x6
 6228 040d 03       		.byte	0x3
 6229 040e 04010000 		.4byte	.LC17
 6230 0412 9F       		.byte	0x9f
 6231 0413 54000000 		.4byte	.LVL72
 6232 0417 56000000 		.4byte	.LVL73
 6233 041b 0100     		.2byte	0x1
 6234 041d 55       		.byte	0x55
 6235 041e 56000000 		.4byte	.LVL73
 6236 0422 60000000 		.4byte	.LVL75
 6237 0426 0300     		.2byte	0x3
 6238 0428 75       		.byte	0x75
 6239 0429 01       		.sleb128 1
 6240 042a 9F       		.byte	0x9f
 6241 042b 60000000 		.4byte	.LVL75
 6242 042f 8A000000 		.4byte	.LVL79
ARM GAS  /tmp/cc0yVrlH.s 			page 174


 6243 0433 0100     		.2byte	0x1
 6244 0435 55       		.byte	0x55
 6245 0436 00000000 		.4byte	0
 6246 043a 00000000 		.4byte	0
 6247              	.LLST24:
 6248 043e A6000000 		.4byte	.LVL83
 6249 0442 A8000000 		.4byte	.LVL84
 6250 0446 0600     		.2byte	0x6
 6251 0448 03       		.byte	0x3
 6252 0449 64000000 		.4byte	.LC6
 6253 044d 9F       		.byte	0x9f
 6254 044e A8000000 		.4byte	.LVL84
 6255 0452 AA000000 		.4byte	.LVL85
 6256 0456 0100     		.2byte	0x1
 6257 0458 55       		.byte	0x55
 6258 0459 AA000000 		.4byte	.LVL85
 6259 045d B4000000 		.4byte	.LVL87
 6260 0461 0300     		.2byte	0x3
 6261 0463 75       		.byte	0x75
 6262 0464 01       		.sleb128 1
 6263 0465 9F       		.byte	0x9f
 6264 0466 B4000000 		.4byte	.LVL87
 6265 046a BC000000 		.4byte	.LVL88
 6266 046e 0100     		.2byte	0x1
 6267 0470 55       		.byte	0x55
 6268 0471 00000000 		.4byte	0
 6269 0475 00000000 		.4byte	0
 6270              	.LLST25:
 6271 0479 6E010000 		.4byte	.LVL116
 6272 047d 70010000 		.4byte	.LVL117
 6273 0481 0600     		.2byte	0x6
 6274 0483 03       		.byte	0x3
 6275 0484 1C010000 		.4byte	.LC19
 6276 0488 9F       		.byte	0x9f
 6277 0489 70010000 		.4byte	.LVL117
 6278 048d 72010000 		.4byte	.LVL118
 6279 0491 0100     		.2byte	0x1
 6280 0493 58       		.byte	0x58
 6281 0494 72010000 		.4byte	.LVL118
 6282 0498 7C010000 		.4byte	.LVL120
 6283 049c 0300     		.2byte	0x3
 6284 049e 78       		.byte	0x78
 6285 049f 01       		.sleb128 1
 6286 04a0 9F       		.byte	0x9f
 6287 04a1 7C010000 		.4byte	.LVL120
 6288 04a5 8A010000 		.4byte	.LVL122
 6289 04a9 0100     		.2byte	0x1
 6290 04ab 58       		.byte	0x58
 6291 04ac 00000000 		.4byte	0
 6292 04b0 00000000 		.4byte	0
 6293              	.LLST27:
 6294 04b4 D4000000 		.4byte	.LVL93
 6295 04b8 D6000000 		.4byte	.LVL94
 6296 04bc 0600     		.2byte	0x6
 6297 04be 03       		.byte	0x3
 6298 04bf 18010000 		.4byte	.LC18
 6299 04c3 9F       		.byte	0x9f
ARM GAS  /tmp/cc0yVrlH.s 			page 175


 6300 04c4 D6000000 		.4byte	.LVL94
 6301 04c8 D8000000 		.4byte	.LVL95
 6302 04cc 0100     		.2byte	0x1
 6303 04ce 55       		.byte	0x55
 6304 04cf D8000000 		.4byte	.LVL95
 6305 04d3 E2000000 		.4byte	.LVL97
 6306 04d7 0300     		.2byte	0x3
 6307 04d9 75       		.byte	0x75
 6308 04da 01       		.sleb128 1
 6309 04db 9F       		.byte	0x9f
 6310 04dc E2000000 		.4byte	.LVL97
 6311 04e0 F0000000 		.4byte	.LVL98
 6312 04e4 0100     		.2byte	0x1
 6313 04e6 55       		.byte	0x55
 6314 04e7 00000000 		.4byte	0
 6315 04eb 00000000 		.4byte	0
 6316              	.LLST28:
 6317 04ef F0000000 		.4byte	.LVL98
 6318 04f3 F6000000 		.4byte	.LVL100
 6319 04f7 0100     		.2byte	0x1
 6320 04f9 55       		.byte	0x55
 6321 04fa F6000000 		.4byte	.LVL100
 6322 04fe 00010000 		.4byte	.LVL102
 6323 0502 0300     		.2byte	0x3
 6324 0504 75       		.byte	0x75
 6325 0505 01       		.sleb128 1
 6326 0506 9F       		.byte	0x9f
 6327 0507 00010000 		.4byte	.LVL102
 6328 050b 04010000 		.4byte	.LVL103
 6329 050f 0100     		.2byte	0x1
 6330 0511 55       		.byte	0x55
 6331 0512 00000000 		.4byte	0
 6332 0516 00000000 		.4byte	0
 6333              	.LLST29:
 6334 051a 28010000 		.4byte	.LVL106
 6335 051e 50010000 		.4byte	.LVL110
 6336 0522 0100     		.2byte	0x1
 6337 0524 58       		.byte	0x58
 6338 0525 22020000 		.4byte	.LVL148
 6339 0529 2A020000 		.4byte	.LVL150
 6340 052d 0100     		.2byte	0x1
 6341 052f 58       		.byte	0x58
 6342 0530 00000000 		.4byte	0
 6343 0534 00000000 		.4byte	0
 6344              	.LLST30:
 6345 0538 14010000 		.4byte	.LVL104
 6346 053c E4010000 		.4byte	.LVL139
 6347 0540 0400     		.2byte	0x4
 6348 0542 0A       		.byte	0xa
 6349 0543 D007     		.2byte	0x7d0
 6350 0545 9F       		.byte	0x9f
 6351 0546 22020000 		.4byte	.LVL148
 6352 054a 2A020000 		.4byte	.LVL150
 6353 054e 0400     		.2byte	0x4
 6354 0550 0A       		.byte	0xa
 6355 0551 D007     		.2byte	0x7d0
 6356 0553 9F       		.byte	0x9f
ARM GAS  /tmp/cc0yVrlH.s 			page 176


 6357 0554 00000000 		.4byte	0
 6358 0558 00000000 		.4byte	0
 6359              	.LLST31:
 6360 055c 52010000 		.4byte	.LVL111
 6361 0560 54010000 		.4byte	.LVL112
 6362 0564 0100     		.2byte	0x1
 6363 0566 58       		.byte	0x58
 6364 0567 54010000 		.4byte	.LVL112
 6365 056b 5E010000 		.4byte	.LVL114
 6366 056f 0300     		.2byte	0x3
 6367 0571 78       		.byte	0x78
 6368 0572 01       		.sleb128 1
 6369 0573 9F       		.byte	0x9f
 6370 0574 5E010000 		.4byte	.LVL114
 6371 0578 68010000 		.4byte	.LVL115
 6372 057c 0100     		.2byte	0x1
 6373 057e 58       		.byte	0x58
 6374 057f 00000000 		.4byte	0
 6375 0583 00000000 		.4byte	0
 6376              	.LLST32:
 6377 0587 80010000 		.4byte	.LVL121
 6378 058b 8A010000 		.4byte	.LVL122
 6379 058f 0600     		.2byte	0x6
 6380 0591 03       		.byte	0x3
 6381 0592 00000000 		.4byte	test_tokens_buffer
 6382 0596 9F       		.byte	0x9f
 6383 0597 8A010000 		.4byte	.LVL122
 6384 059b 98010000 		.4byte	.LVL124
 6385 059f 0300     		.2byte	0x3
 6386 05a1 78       		.byte	0x78
 6387 05a2 7F       		.sleb128 -1
 6388 05a3 9F       		.byte	0x9f
 6389 05a4 98010000 		.4byte	.LVL124
 6390 05a8 9E010000 		.4byte	.LVL125
 6391 05ac 0100     		.2byte	0x1
 6392 05ae 58       		.byte	0x58
 6393 05af 9E010000 		.4byte	.LVL125
 6394 05b3 A0010000 		.4byte	.LVL126
 6395 05b7 0300     		.2byte	0x3
 6396 05b9 78       		.byte	0x78
 6397 05ba 7F       		.sleb128 -1
 6398 05bb 9F       		.byte	0x9f
 6399 05bc 00000000 		.4byte	0
 6400 05c0 00000000 		.4byte	0
 6401              	.LLST33:
 6402 05c4 A4010000 		.4byte	.LVL127
 6403 05c8 A6010000 		.4byte	.LVL128
 6404 05cc 0100     		.2byte	0x1
 6405 05ce 55       		.byte	0x55
 6406 05cf A6010000 		.4byte	.LVL128
 6407 05d3 B0010000 		.4byte	.LVL130
 6408 05d7 0300     		.2byte	0x3
 6409 05d9 75       		.byte	0x75
 6410 05da 01       		.sleb128 1
 6411 05db 9F       		.byte	0x9f
 6412 05dc B0010000 		.4byte	.LVL130
 6413 05e0 B8010000 		.4byte	.LVL131
ARM GAS  /tmp/cc0yVrlH.s 			page 177


 6414 05e4 0100     		.2byte	0x1
 6415 05e6 55       		.byte	0x55
 6416 05e7 00000000 		.4byte	0
 6417 05eb 00000000 		.4byte	0
 6418              	.LLST34:
 6419 05ef B8010000 		.4byte	.LVL131
 6420 05f3 BE010000 		.4byte	.LVL133
 6421 05f7 0100     		.2byte	0x1
 6422 05f9 55       		.byte	0x55
 6423 05fa BE010000 		.4byte	.LVL133
 6424 05fe C8010000 		.4byte	.LVL135
 6425 0602 0300     		.2byte	0x3
 6426 0604 75       		.byte	0x75
 6427 0605 01       		.sleb128 1
 6428 0606 9F       		.byte	0x9f
 6429 0607 C8010000 		.4byte	.LVL135
 6430 060b CC010000 		.4byte	.LVL136
 6431 060f 0100     		.2byte	0x1
 6432 0611 55       		.byte	0x55
 6433 0612 00000000 		.4byte	0
 6434 0616 00000000 		.4byte	0
 6435              	.LLST35:
 6436 061a FA010000 		.4byte	.LVL142
 6437 061e FC010000 		.4byte	.LVL143
 6438 0622 0600     		.2byte	0x6
 6439 0624 03       		.byte	0x3
 6440 0625 20010000 		.4byte	.LC20
 6441 0629 9F       		.byte	0x9f
 6442 062a FC010000 		.4byte	.LVL143
 6443 062e FE010000 		.4byte	.LVL144
 6444 0632 0100     		.2byte	0x1
 6445 0634 55       		.byte	0x55
 6446 0635 FE010000 		.4byte	.LVL144
 6447 0639 08020000 		.4byte	.LVL146
 6448 063d 0300     		.2byte	0x3
 6449 063f 75       		.byte	0x75
 6450 0640 01       		.sleb128 1
 6451 0641 9F       		.byte	0x9f
 6452 0642 08020000 		.4byte	.LVL146
 6453 0646 22020000 		.4byte	.LVL148
 6454 064a 0100     		.2byte	0x1
 6455 064c 55       		.byte	0x55
 6456 064d 2A020000 		.4byte	.LVL150
 6457 0651 3A020000 		.4byte	.LVL152
 6458 0655 0100     		.2byte	0x1
 6459 0657 55       		.byte	0x55
 6460 0658 00000000 		.4byte	0
 6461 065c 00000000 		.4byte	0
 6462              		.section	.debug_aranges,"",%progbits
 6463 0000 6C000000 		.4byte	0x6c
 6464 0004 0200     		.2byte	0x2
 6465 0006 00000000 		.4byte	.Ldebug_info0
 6466 000a 04       		.byte	0x4
 6467 000b 00       		.byte	0
 6468 000c 0000     		.2byte	0
 6469 000e 0000     		.2byte	0
 6470 0010 00000000 		.4byte	.LFB273
ARM GAS  /tmp/cc0yVrlH.s 			page 178


 6471 0014 2C000000 		.4byte	.LFE273-.LFB273
 6472 0018 00000000 		.4byte	.LFB274
 6473 001c 1C000000 		.4byte	.LFE274-.LFB274
 6474 0020 00000000 		.4byte	.LFB275
 6475 0024 2C000000 		.4byte	.LFE275-.LFB275
 6476 0028 00000000 		.4byte	.LFB276
 6477 002c 4C000000 		.4byte	.LFE276-.LFB276
 6478 0030 00000000 		.4byte	.LFB277
 6479 0034 38000000 		.4byte	.LFE277-.LFB277
 6480 0038 00000000 		.4byte	.LFB278
 6481 003c 68000000 		.4byte	.LFE278-.LFB278
 6482 0040 00000000 		.4byte	.LFB279
 6483 0044 20000000 		.4byte	.LFE279-.LFB279
 6484 0048 00000000 		.4byte	.LFB280
 6485 004c 30000000 		.4byte	.LFE280-.LFB280
 6486 0050 00000000 		.4byte	.LFB281
 6487 0054 28000000 		.4byte	.LFE281-.LFB281
 6488 0058 00000000 		.4byte	.LFB282
 6489 005c 1C000000 		.4byte	.LFE282-.LFB282
 6490 0060 00000000 		.4byte	.LFB283
 6491 0064 B0020000 		.4byte	.LFE283-.LFB283
 6492 0068 00000000 		.4byte	0
 6493 006c 00000000 		.4byte	0
 6494              		.section	.debug_ranges,"",%progbits
 6495              	.Ldebug_ranges0:
 6496 0000 00000000 		.4byte	.LBB108
 6497 0004 04000000 		.4byte	.LBE108
 6498 0008 06000000 		.4byte	.LBB122
 6499 000c 08000000 		.4byte	.LBE122
 6500 0010 00000000 		.4byte	0
 6501 0014 00000000 		.4byte	0
 6502 0018 04000000 		.4byte	.LBB117
 6503 001c 06000000 		.4byte	.LBE117
 6504 0020 08000000 		.4byte	.LBB123
 6505 0024 0A000000 		.4byte	.LBE123
 6506 0028 00000000 		.4byte	0
 6507 002c 00000000 		.4byte	0
 6508 0030 0A000000 		.4byte	.LBB124
 6509 0034 0C000000 		.4byte	.LBE124
 6510 0038 0E000000 		.4byte	.LBB130
 6511 003c 1E000000 		.4byte	.LBE130
 6512 0040 24000000 		.4byte	.LBB131
 6513 0044 26000000 		.4byte	.LBE131
 6514 0048 00000000 		.4byte	0
 6515 004c 00000000 		.4byte	0
 6516 0050 82000000 		.4byte	.LBB187
 6517 0054 86000000 		.4byte	.LBE187
 6518 0058 A6000000 		.4byte	.LBB194
 6519 005c B8000000 		.4byte	.LBE194
 6520 0060 00000000 		.4byte	0
 6521 0064 00000000 		.4byte	0
 6522 0068 8A000000 		.4byte	.LBB190
 6523 006c 8E000000 		.4byte	.LBE190
 6524 0070 6E010000 		.4byte	.LBB219
 6525 0074 80010000 		.4byte	.LBE219
 6526 0078 A2010000 		.4byte	.LBB222
 6527 007c A4010000 		.4byte	.LBE222
ARM GAS  /tmp/cc0yVrlH.s 			page 179


 6528 0080 00000000 		.4byte	0
 6529 0084 00000000 		.4byte	0
 6530 0088 C0000000 		.4byte	.LBB195
 6531 008c CA000000 		.4byte	.LBE195
 6532 0090 CC000000 		.4byte	.LBB198
 6533 0094 CE000000 		.4byte	.LBE198
 6534 0098 00000000 		.4byte	0
 6535 009c 00000000 		.4byte	0
 6536 00a0 06010000 		.4byte	.LBB203
 6537 00a4 10010000 		.4byte	.LBE203
 6538 00a8 20010000 		.4byte	.LBB215
 6539 00ac 24010000 		.4byte	.LBE215
 6540 00b0 28010000 		.4byte	.LBB216
 6541 00b4 44010000 		.4byte	.LBE216
 6542 00b8 00000000 		.4byte	0
 6543 00bc 00000000 		.4byte	0
 6544 00c0 06010000 		.4byte	.LBB205
 6545 00c4 08010000 		.4byte	.LBE205
 6546 00c8 0C010000 		.4byte	.LBB209
 6547 00cc 10010000 		.4byte	.LBE209
 6548 00d0 20010000 		.4byte	.LBB210
 6549 00d4 24010000 		.4byte	.LBE210
 6550 00d8 00000000 		.4byte	0
 6551 00dc 00000000 		.4byte	0
 6552 00e0 00000000 		.4byte	.LFB273
 6553 00e4 2C000000 		.4byte	.LFE273
 6554 00e8 00000000 		.4byte	.LFB274
 6555 00ec 1C000000 		.4byte	.LFE274
 6556 00f0 00000000 		.4byte	.LFB275
 6557 00f4 2C000000 		.4byte	.LFE275
 6558 00f8 00000000 		.4byte	.LFB276
 6559 00fc 4C000000 		.4byte	.LFE276
 6560 0100 00000000 		.4byte	.LFB277
 6561 0104 38000000 		.4byte	.LFE277
 6562 0108 00000000 		.4byte	.LFB278
 6563 010c 68000000 		.4byte	.LFE278
 6564 0110 00000000 		.4byte	.LFB279
 6565 0114 20000000 		.4byte	.LFE279
 6566 0118 00000000 		.4byte	.LFB280
 6567 011c 30000000 		.4byte	.LFE280
 6568 0120 00000000 		.4byte	.LFB281
 6569 0124 28000000 		.4byte	.LFE281
 6570 0128 00000000 		.4byte	.LFB282
 6571 012c 1C000000 		.4byte	.LFE282
 6572 0130 00000000 		.4byte	.LFB283
 6573 0134 B0020000 		.4byte	.LFE283
 6574 0138 00000000 		.4byte	0
 6575 013c 00000000 		.4byte	0
 6576              		.section	.debug_line,"",%progbits
 6577              	.Ldebug_line0:
 6578 0000 12060000 		.section	.debug_str,"MS",%progbits,1
 6578      0200CF03 
 6578      00000201 
 6578      FB0E0D00 
 6578      01010101 
 6579              	.LASF51:
 6580 0000 72656164 		.ascii	"ready_list_t\000"
ARM GAS  /tmp/cc0yVrlH.s 			page 180


 6580      795F6C69 
 6580      73745F74 
 6580      00
 6581              	.LASF76:
 6582 000d 44494552 		.ascii	"DIER\000"
 6582      00
 6583              	.LASF2:
 6584 0012 73697A65 		.ascii	"size_t\000"
 6584      5F7400
 6585              	.LASF47:
 6586 0019 6E657874 		.ascii	"next\000"
 6586      00
 6587              	.LASF57:
 6588 001e 64656C74 		.ascii	"delta\000"
 6588      6100
 6589              	.LASF87:
 6590 0024 7264796D 		.ascii	"rdymsg\000"
 6590      736700
 6591              	.LASF17:
 6592 002b 75696E74 		.ascii	"uint64_t\000"
 6592      36345F74 
 6592      00
 6593              	.LASF3:
 6594 0034 5F5F7569 		.ascii	"__uint8_t\000"
 6594      6E74385F 
 6594      7400
 6595              	.LASF50:
 6596 003e 70726576 		.ascii	"prev\000"
 6596      00
 6597              	.LASF74:
 6598 0043 706F7274 		.ascii	"port_intctx\000"
 6598      5F696E74 
 6598      63747800 
 6599              	.LASF62:
 6600 004f 73797374 		.ascii	"system_debug_t\000"
 6600      656D5F64 
 6600      65627567 
 6600      5F7400
 6601              	.LASF144:
 6602 005e 73747265 		.ascii	"stream\000"
 6602      616D00
 6603              	.LASF109:
 6604 0065 706F7274 		.ascii	"port_lock\000"
 6604      5F6C6F63 
 6604      6B00
 6605              	.LASF13:
 6606 006f 6C6F6E67 		.ascii	"long long unsigned int\000"
 6606      206C6F6E 
 6606      6720756E 
 6606      7369676E 
 6606      65642069 
 6607              	.LASF148:
 6608 0086 74657374 		.ascii	"test_tokp\000"
 6608      5F746F6B 
 6608      7000
 6609              	.LASF126:
 6610 0090 636F6E64 		.ascii	"condition\000"
ARM GAS  /tmp/cc0yVrlH.s 			page 181


 6610      6974696F 
 6610      6E00
 6611              	.LASF88:
 6612 009a 65786974 		.ascii	"exitcode\000"
 6612      636F6465 
 6612      00
 6613              	.LASF147:
 6614 00a3 74657374 		.ascii	"test_tokens_buffer\000"
 6614      5F746F6B 
 6614      656E735F 
 6614      62756666 
 6614      657200
 6615              	.LASF91:
 6616 00b6 73656E74 		.ascii	"sentmsg\000"
 6616      6D736700 
 6617              	.LASF59:
 6618 00be 76697274 		.ascii	"virtual_timers_list_t\000"
 6618      75616C5F 
 6618      74696D65 
 6618      72735F6C 
 6618      6973745F 
 6619              	.LASF150:
 6620 00d4 49544D5F 		.ascii	"ITM_RxBuffer\000"
 6620      52784275 
 6620      66666572 
 6620      00
 6621              	.LASF80:
 6622 00e1 42445452 		.ascii	"BDTR\000"
 6622      00
 6623              	.LASF49:
 6624 00e6 63685F74 		.ascii	"ch_threads_queue\000"
 6624      68726561 
 6624      64735F71 
 6624      75657565 
 6624      00
 6625              	.LASF143:
 6626 00f7 74657374 		.ascii	"test_execute\000"
 6626      5F657865 
 6626      63757465 
 6626      00
 6627              	.LASF106:
 6628 0104 74656172 		.ascii	"teardown\000"
 6628      646F776E 
 6628      00
 6629              	.LASF77:
 6630 010d 43434D52 		.ascii	"CCMR1\000"
 6630      3100
 6631              	.LASF78:
 6632 0113 43434D52 		.ascii	"CCMR2\000"
 6632      3200
 6633              	.LASF82:
 6634 0119 43434D52 		.ascii	"CCMR3\000"
 6634      3300
 6635              	.LASF1:
 6636 011f 7369676E 		.ascii	"signed char\000"
 6636      65642063 
 6636      68617200 
ARM GAS  /tmp/cc0yVrlH.s 			page 182


 6637              	.LASF138:
 6638 012b 74657374 		.ascii	"test_emit_token\000"
 6638      5F656D69 
 6638      745F746F 
 6638      6B656E00 
 6639              	.LASF137:
 6640 013b 74657374 		.ascii	"test_println\000"
 6640      5F707269 
 6640      6E746C6E 
 6640      00
 6641              	.LASF18:
 6642 0148 7274636E 		.ascii	"rtcnt_t\000"
 6642      745F7400 
 6643              	.LASF110:
 6644 0150 706F7274 		.ascii	"port_unlock\000"
 6644      5F756E6C 
 6644      6F636B00 
 6645              	.LASF38:
 6646 015c 6D736771 		.ascii	"msgqueue\000"
 6646      75657565 
 6646      00
 6647              	.LASF34:
 6648 0165 73746174 		.ascii	"state\000"
 6648      6500
 6649              	.LASF8:
 6650 016b 6C6F6E67 		.ascii	"long int\000"
 6650      20696E74 
 6650      00
 6651              	.LASF20:
 6652 0174 74737461 		.ascii	"tstate_t\000"
 6652      74655F74 
 6652      00
 6653              	.LASF136:
 6654 017d 5F746573 		.ascii	"_test_assert_time_window\000"
 6654      745F6173 
 6654      73657274 
 6654      5F74696D 
 6654      655F7769 
 6655              	.LASF58:
 6656 0196 66756E63 		.ascii	"func\000"
 6656      00
 6657              	.LASF79:
 6658 019b 43434552 		.ascii	"CCER\000"
 6658      00
 6659              	.LASF11:
 6660 01a0 6C6F6E67 		.ascii	"long long int\000"
 6660      206C6F6E 
 6660      6720696E 
 6660      7400
 6661              	.LASF28:
 6662 01ae 71756575 		.ascii	"queue\000"
 6662      6500
 6663              	.LASF142:
 6664 01b4 7072696E 		.ascii	"print_tokens\000"
 6664      745F746F 
 6664      6B656E73 
 6664      00
ARM GAS  /tmp/cc0yVrlH.s 			page 183


 6665              	.LASF71:
 6666 01c1 72656761 		.ascii	"regarm_t\000"
 6666      726D5F74 
 6666      00
 6667              	.LASF85:
 6668 01ca 6F666673 		.ascii	"offset\000"
 6668      657400
 6669              	.LASF37:
 6670 01d1 77616974 		.ascii	"waiting\000"
 6670      696E6700 
 6671              	.LASF131:
 6672 01d9 6F73616C 		.ascii	"osalSysLock\000"
 6672      5379734C 
 6672      6F636B00 
 6673              	.LASF99:
 6674 01e5 6D757465 		.ascii	"mutex_t\000"
 6674      785F7400 
 6675              	.LASF117:
 6676 01ed 76616C75 		.ascii	"value\000"
 6676      6500
 6677              	.LASF103:
 6678 01f3 42617365 		.ascii	"BaseSequentialStream\000"
 6678      53657175 
 6678      656E7469 
 6678      616C5374 
 6678      7265616D 
 6679              	.LASF25:
 6680 0208 636E745F 		.ascii	"cnt_t\000"
 6680      7400
 6681              	.LASF116:
 6682 020e 63685654 		.ascii	"chVTGetSystemTimeX\000"
 6682      47657453 
 6682      79737465 
 6682      6D54696D 
 6682      655800
 6683              	.LASF0:
 6684 0221 756E7369 		.ascii	"unsigned int\000"
 6684      676E6564 
 6684      20696E74 
 6684      00
 6685              	.LASF92:
 6686 022e 77747365 		.ascii	"wtsemp\000"
 6686      6D7000
 6687              	.LASF157:
 6688 0235 7072696E 		.ascii	"print_line\000"
 6688      745F6C69 
 6688      6E6500
 6689              	.LASF90:
 6690 0240 77747472 		.ascii	"wttrp\000"
 6690      7000
 6691              	.LASF134:
 6692 0246 65787065 		.ascii	"expected\000"
 6692      63746564 
 6692      00
 6693              	.LASF32:
 6694 024f 6E616D65 		.ascii	"name\000"
 6694      00
ARM GAS  /tmp/cc0yVrlH.s 			page 184


 6695              	.LASF42:
 6696 0254 6D706F6F 		.ascii	"mpool\000"
 6696      6C00
 6697              	.LASF75:
 6698 025a 534D4352 		.ascii	"SMCR\000"
 6698      00
 6699              	.LASF45:
 6700 025f 63685F74 		.ascii	"ch_thread\000"
 6700      68726561 
 6700      6400
 6701              	.LASF68:
 6702 0269 76746C69 		.ascii	"vtlist\000"
 6702      737400
 6703              	.LASF69:
 6704 0270 6D61696E 		.ascii	"mainthread\000"
 6704      74687265 
 6704      616400
 6705              	.LASF23:
 6706 027b 6D73675F 		.ascii	"msg_t\000"
 6706      7400
 6707              	.LASF39:
 6708 0281 6570656E 		.ascii	"epending\000"
 6708      64696E67 
 6708      00
 6709              	.LASF65:
 6710 028a 63685F73 		.ascii	"ch_system_t\000"
 6710      79737465 
 6710      6D5F7400 
 6711              	.LASF124:
 6712 0296 5F746573 		.ascii	"_test_fail\000"
 6712      745F6661 
 6712      696C00
 6713              	.LASF84:
 6714 02a1 73746D33 		.ascii	"stm32_tim_t\000"
 6714      325F7469 
 6714      6D5F7400 
 6715              	.LASF52:
 6716 02ad 63685F72 		.ascii	"ch_ready_list\000"
 6716      65616479 
 6716      5F6C6973 
 6716      7400
 6717              	.LASF24:
 6718 02bb 6576656E 		.ascii	"eventmask_t\000"
 6718      746D6173 
 6718      6B5F7400 
 6719              	.LASF7:
 6720 02c7 5F5F696E 		.ascii	"__int32_t\000"
 6720      7433325F 
 6720      7400
 6721              	.LASF130:
 6722 02d1 6D736770 		.ascii	"msgp\000"
 6722      00
 6723              	.LASF72:
 6724 02d6 73746B61 		.ascii	"stkalign_t\000"
 6724      6C69676E 
 6724      5F7400
 6725              	.LASF108:
ARM GAS  /tmp/cc0yVrlH.s 			page 185


 6726 02e1 74657374 		.ascii	"testcase_t\000"
 6726      63617365 
 6726      5F7400
 6727              	.LASF129:
 6728 02ec 74657374 		.ascii	"test_print\000"
 6728      5F707269 
 6728      6E7400
 6729              	.LASF12:
 6730 02f7 5F5F7569 		.ascii	"__uint64_t\000"
 6730      6E743634 
 6730      5F7400
 6731              	.LASF101:
 6732 0302 77726974 		.ascii	"write\000"
 6732      6500
 6733              	.LASF41:
 6734 0308 7265616C 		.ascii	"realprio\000"
 6734      7072696F 
 6734      00
 6735              	.LASF70:
 6736 0311 73697A65 		.ascii	"sizetype\000"
 6736      74797065 
 6736      00
 6737              	.LASF43:
 6738 031a 74687265 		.ascii	"thread_reference_t\000"
 6738      61645F72 
 6738      65666572 
 6738      656E6365 
 6738      5F7400
 6739              	.LASF60:
 6740 032d 63685F76 		.ascii	"ch_virtual_timers_list\000"
 6740      69727475 
 6740      616C5F74 
 6740      696D6572 
 6740      735F6C69 
 6741              	.LASF151:
 6742 0344 74657374 		.ascii	"test_step\000"
 6742      5F737465 
 6742      7000
 6743              	.LASF86:
 6744 034e 746D5F63 		.ascii	"tm_calibration_t\000"
 6744      616C6962 
 6744      72617469 
 6744      6F6E5F74 
 6744      00
 6745              	.LASF73:
 6746 035f 706F7274 		.ascii	"port_context\000"
 6746      5F636F6E 
 6746      74657874 
 6746      00
 6747              	.LASF105:
 6748 036c 73657475 		.ascii	"setup\000"
 6748      7000
 6749              	.LASF135:
 6750 0372 5F746573 		.ascii	"_test_assert_sequence\000"
 6750      745F6173 
 6750      73657274 
 6750      5F736571 
ARM GAS  /tmp/cc0yVrlH.s 			page 186


 6750      75656E63 
 6751              	.LASF118:
 6752 0388 74696D65 		.ascii	"time\000"
 6752      00
 6753              	.LASF29:
 6754 038d 7072696F 		.ascii	"prio\000"
 6754      00
 6755              	.LASF53:
 6756 0392 63757272 		.ascii	"current\000"
 6756      656E7400 
 6757              	.LASF123:
 6758 039a 6F73616C 		.ascii	"osalOsIsTimeWithinX\000"
 6758      4F734973 
 6758      54696D65 
 6758      57697468 
 6758      696E5800 
 6759              	.LASF139:
 6760 03ae 746F6B65 		.ascii	"token\000"
 6760      6E00
 6761              	.LASF21:
 6762 03b4 74726566 		.ascii	"trefs_t\000"
 6762      735F7400 
 6763              	.LASF36:
 6764 03bc 72656673 		.ascii	"refs\000"
 6764      00
 6765              	.LASF55:
 6766 03c1 76697274 		.ascii	"virtual_timer_t\000"
 6766      75616C5F 
 6766      74696D65 
 6766      725F7400 
 6767              	.LASF22:
 6768 03d1 74707269 		.ascii	"tprio_t\000"
 6768      6F5F7400 
 6769              	.LASF156:
 6770 03d9 2F6E6673 		.ascii	"/nfs/nfs7/home/npalumbo/p442-submissions/lab3\000"
 6770      2F6E6673 
 6770      372F686F 
 6770      6D652F6E 
 6770      70616C75 
 6771              	.LASF63:
 6772 0407 63685F73 		.ascii	"ch_system_debug\000"
 6772      79737465 
 6772      6D5F6465 
 6772      62756700 
 6773              	.LASF104:
 6774 0417 5F426F6F 		.ascii	"_Bool\000"
 6774      6C00
 6775              	.LASF15:
 6776 041d 696E7433 		.ascii	"int32_t\000"
 6776      325F7400 
 6777              	.LASF4:
 6778 0425 756E7369 		.ascii	"unsigned char\000"
 6778      676E6564 
 6778      20636861 
 6778      7200
 6779              	.LASF107:
 6780 0433 65786563 		.ascii	"execute\000"
ARM GAS  /tmp/cc0yVrlH.s 			page 187


 6780      75746500 
 6781              	.LASF5:
 6782 043b 73686F72 		.ascii	"short int\000"
 6782      7420696E 
 6782      7400
 6783              	.LASF61:
 6784 0445 6C617374 		.ascii	"lasttime\000"
 6784      74696D65 
 6784      00
 6785              	.LASF94:
 6786 044e 65776D61 		.ascii	"ewmask\000"
 6786      736B00
 6787              	.LASF66:
 6788 0455 63685F73 		.ascii	"ch_system\000"
 6788      79737465 
 6788      6D00
 6789              	.LASF100:
 6790 045f 42617365 		.ascii	"BaseSequentialStreamVMT\000"
 6790      53657175 
 6790      656E7469 
 6790      616C5374 
 6790      7265616D 
 6791              	.LASF113:
 6792 0477 63685379 		.ascii	"chSysLock\000"
 6792      734C6F63 
 6792      6B00
 6793              	.LASF132:
 6794 0481 6F73616C 		.ascii	"osalSysUnlock\000"
 6794      53797355 
 6794      6E6C6F63 
 6794      6B00
 6795              	.LASF56:
 6796 048f 63685F76 		.ascii	"ch_virtual_timer\000"
 6796      69727475 
 6796      616C5F74 
 6796      696D6572 
 6796      00
 6797              	.LASF95:
 6798 04a0 63685F73 		.ascii	"ch_semaphore\000"
 6798      656D6170 
 6798      686F7265 
 6798      00
 6799              	.LASF83:
 6800 04ad 43435852 		.ascii	"CCXR\000"
 6800      00
 6801              	.LASF158:
 6802 04b2 63685468 		.ascii	"chThdSleep\000"
 6802      64536C65 
 6802      657000
 6803              	.LASF111:
 6804 04bd 73745F6C 		.ascii	"st_lld_get_counter\000"
 6804      6C645F67 
 6804      65745F63 
 6804      6F756E74 
 6804      657200
 6805              	.LASF16:
 6806 04d0 75696E74 		.ascii	"uint32_t\000"
ARM GAS  /tmp/cc0yVrlH.s 			page 188


 6806      33325F74 
 6806      00
 6807              	.LASF93:
 6808 04d9 77746D74 		.ascii	"wtmtxp\000"
 6808      787000
 6809              	.LASF128:
 6810 04e0 74657374 		.ascii	"test_printn\000"
 6810      5F707269 
 6810      6E746E00 
 6811              	.LASF46:
 6812 04ec 63685F74 		.ascii	"ch_threads_list\000"
 6812      68726561 
 6812      64735F6C 
 6812      69737400 
 6813              	.LASF97:
 6814 04fc 6F776E65 		.ascii	"owner\000"
 6814      7200
 6815              	.LASF10:
 6816 0502 6C6F6E67 		.ascii	"long unsigned int\000"
 6816      20756E73 
 6816      69676E65 
 6816      6420696E 
 6816      7400
 6817              	.LASF33:
 6818 0514 77616261 		.ascii	"wabase\000"
 6818      736500
 6819              	.LASF102:
 6820 051b 72656164 		.ascii	"read\000"
 6820      00
 6821              	.LASF98:
 6822 0520 63686172 		.ascii	"char\000"
 6822      00
 6823              	.LASF31:
 6824 0525 6F6C6465 		.ascii	"older\000"
 6824      7200
 6825              	.LASF133:
 6826 052b 6F73616C 		.ascii	"osalThreadSleep\000"
 6826      54687265 
 6826      6164536C 
 6826      65657000 
 6827              	.LASF81:
 6828 053b 444D4152 		.ascii	"DMAR\000"
 6828      00
 6829              	.LASF27:
 6830 0540 74687265 		.ascii	"thread_t\000"
 6830      61645F74 
 6830      00
 6831              	.LASF153:
 6832 0549 74657374 		.ascii	"test_suite\000"
 6832      5F737569 
 6832      746500
 6833              	.LASF140:
 6834 0554 74657374 		.ascii	"test_emit_token_i\000"
 6834      5F656D69 
 6834      745F746F 
 6834      6B656E5F 
 6834      6900
ARM GAS  /tmp/cc0yVrlH.s 			page 189


 6835              	.LASF26:
 6836 0566 73797374 		.ascii	"systime_t\000"
 6836      696D655F 
 6836      7400
 6837              	.LASF54:
 6838 0570 76746675 		.ascii	"vtfunc_t\000"
 6838      6E635F74 
 6838      00
 6839              	.LASF9:
 6840 0579 5F5F7569 		.ascii	"__uint32_t\000"
 6840      6E743332 
 6840      5F7400
 6841              	.LASF114:
 6842 0584 5F5F7365 		.ascii	"__set_BASEPRI\000"
 6842      745F4241 
 6842      53455052 
 6842      4900
 6843              	.LASF64:
 6844 0592 70616E69 		.ascii	"panic_msg\000"
 6844      635F6D73 
 6844      6700
 6845              	.LASF152:
 6846 059c 74657374 		.ascii	"test_global_fail\000"
 6846      5F676C6F 
 6846      62616C5F 
 6846      6661696C 
 6846      00
 6847              	.LASF155:
 6848 05ad 2E2E2F43 		.ascii	"../ChibiOS/test/lib/ch_test.c\000"
 6848      68696269 
 6848      4F532F74 
 6848      6573742F 
 6848      6C69622F 
 6849              	.LASF6:
 6850 05cb 73686F72 		.ascii	"short unsigned int\000"
 6850      7420756E 
 6850      7369676E 
 6850      65642069 
 6850      6E7400
 6851              	.LASF127:
 6852 05de 5F5F6675 		.ascii	"__func__.5702\000"
 6852      6E635F5F 
 6852      2E353730 
 6852      3200
 6853              	.LASF112:
 6854 05ec 706F7274 		.ascii	"port_timer_get_time\000"
 6854      5F74696D 
 6854      65725F67 
 6854      65745F74 
 6854      696D6500 
 6855              	.LASF149:
 6856 0600 74657374 		.ascii	"test_chp\000"
 6856      5F636870 
 6856      00
 6857              	.LASF145:
 6858 0609 74657374 		.ascii	"test_local_fail\000"
 6858      5F6C6F63 
ARM GAS  /tmp/cc0yVrlH.s 			page 190


 6858      616C5F66 
 6858      61696C00 
 6859              	.LASF30:
 6860 0619 6E657765 		.ascii	"newer\000"
 6860      7200
 6861              	.LASF48:
 6862 061f 74687265 		.ascii	"threads_queue_t\000"
 6862      6164735F 
 6862      71756575 
 6862      655F7400 
 6863              	.LASF96:
 6864 062f 63685F6D 		.ascii	"ch_mutex\000"
 6864      75746578 
 6864      00
 6865              	.LASF141:
 6866 0638 65786563 		.ascii	"execute_test\000"
 6866      7574655F 
 6866      74657374 
 6866      00
 6867              	.LASF67:
 6868 0645 726C6973 		.ascii	"rlist\000"
 6868      7400
 6869              	.LASF14:
 6870 064b 75696E74 		.ascii	"uint8_t\000"
 6870      385F7400 
 6871              	.LASF146:
 6872 0653 74657374 		.ascii	"test_failure_message\000"
 6872      5F666169 
 6872      6C757265 
 6872      5F6D6573 
 6872      73616765 
 6873              	.LASF35:
 6874 0668 666C6167 		.ascii	"flags\000"
 6874      7300
 6875              	.LASF120:
 6876 066e 636C6561 		.ascii	"clear_tokens\000"
 6876      725F746F 
 6876      6B656E73 
 6876      00
 6877              	.LASF154:
 6878 067b 474E5520 		.ascii	"GNU C 4.8.4 20140526 (release) [ARM/embedded-4_8-br"
 6878      4320342E 
 6878      382E3420 
 6878      32303134 
 6878      30353236 
 6879 06ae 616E6368 		.ascii	"anch revision 211358] -mcpu=cortex-m4 -mno-thumb-in"
 6879      20726576 
 6879      6973696F 
 6879      6E203231 
 6879      31333538 
 6880 06e1 74657277 		.ascii	"terwork -mthumb -ggdb -O2 -fomit-frame-pointer -fal"
 6880      6F726B20 
 6880      2D6D7468 
 6880      756D6220 
 6880      2D676764 
 6881 0714 69676E2D 		.ascii	"ign-functions=16 -ffunction-sections -fdata-section"
 6881      66756E63 
ARM GAS  /tmp/cc0yVrlH.s 			page 191


 6881      74696F6E 
 6881      733D3136 
 6881      202D6666 
 6882 0747 73202D66 		.ascii	"s -fno-common -flto\000"
 6882      6E6F2D63 
 6882      6F6D6D6F 
 6882      6E202D66 
 6882      6C746F00 
 6883              	.LASF89:
 6884 075b 77746F62 		.ascii	"wtobjp\000"
 6884      6A7000
 6885              	.LASF125:
 6886 0762 5F746573 		.ascii	"_test_assert\000"
 6886      745F6173 
 6886      73657274 
 6886      00
 6887              	.LASF44:
 6888 076f 74687265 		.ascii	"threads_list_t\000"
 6888      6164735F 
 6888      6C697374 
 6888      5F7400
 6889              	.LASF122:
 6890 077e 63685654 		.ascii	"chVTIsTimeWithinX\000"
 6890      49735469 
 6890      6D655769 
 6890      7468696E 
 6890      5800
 6891              	.LASF19:
 6892 0790 746D6F64 		.ascii	"tmode_t\000"
 6892      655F7400 
 6893              	.LASF115:
 6894 0798 63685379 		.ascii	"chSysUnlock\000"
 6894      73556E6C 
 6894      6F636B00 
 6895              	.LASF119:
 6896 07a4 73746172 		.ascii	"start\000"
 6896      7400
 6897              	.LASF121:
 6898 07aa 6F73616C 		.ascii	"osalOsGetSystemTimeX\000"
 6898      4F734765 
 6898      74537973 
 6898      74656D54 
 6898      696D6558 
 6899              	.LASF40:
 6900 07bf 6D74786C 		.ascii	"mtxlist\000"
 6900      69737400 
 6901              		.comm	__gnu_lto_v1,1,1
 6902              		.ident	"GCC: (GNU Tools for ARM Embedded Processors) 4.8.4 20140526 (release) [ARM/embedded-4_8-br
ARM GAS  /tmp/cc0yVrlH.s 			page 192


DEFINED SYMBOLS
                            *ABS*:00000000 ch_test.c
     /tmp/cc0yVrlH.s:1021   .text.print_line:00000000 $t
     /tmp/cc0yVrlH.s:1026   .text.print_line:00000000 print_line
     /tmp/cc0yVrlH.s:1070   .text.print_line:00000024 $d
     /tmp/cc0yVrlH.s:1076   .text._test_fail:00000000 $t
     /tmp/cc0yVrlH.s:1082   .text._test_fail:00000000 _test_fail
     /tmp/cc0yVrlH.s:1109   .text._test_fail:00000010 $d
     /tmp/cc0yVrlH.s:1116   .text._test_assert:00000000 $t
     /tmp/cc0yVrlH.s:1122   .text._test_assert:00000000 _test_assert
     /tmp/cc0yVrlH.s:1168   .text._test_assert:00000020 $d
     /tmp/cc0yVrlH.s:1175   .text._test_assert_sequence:00000000 $t
     /tmp/cc0yVrlH.s:1181   .text._test_assert_sequence:00000000 _test_assert_sequence
     /tmp/cc0yVrlH.s:1254   .text._test_assert_sequence:00000038 $d
     /tmp/cc0yVrlH.s:1263   .text._test_assert_time_window:00000000 $t
     /tmp/cc0yVrlH.s:1269   .text._test_assert_time_window:00000000 _test_assert_time_window
     /tmp/cc0yVrlH.s:1374   .text._test_assert_time_window:0000002c $d
     /tmp/cc0yVrlH.s:1381   .text.test_printn:00000000 $t
     /tmp/cc0yVrlH.s:1387   .text.test_printn:00000000 test_printn
     /tmp/cc0yVrlH.s:1475   .text.test_printn:00000060 $d
     /tmp/cc0yVrlH.s:1481   .text.test_print:00000000 $t
     /tmp/cc0yVrlH.s:1487   .text.test_print:00000000 test_print
     /tmp/cc0yVrlH.s:1525   .text.test_print:0000001c $d
     /tmp/cc0yVrlH.s:1530   .text.test_println:00000000 $t
     /tmp/cc0yVrlH.s:1536   .text.test_println:00000000 test_println
     /tmp/cc0yVrlH.s:1586   .text.test_println:00000028 $d
     /tmp/cc0yVrlH.s:1592   .text.test_emit_token:00000000 $t
     /tmp/cc0yVrlH.s:1598   .text.test_emit_token:00000000 test_emit_token
     /tmp/cc0yVrlH.s:1651   .text.test_emit_token:00000020 $d
     /tmp/cc0yVrlH.s:1663   .text.test_emit_token_i:00000000 $t
     /tmp/cc0yVrlH.s:1669   .text.test_emit_token_i:00000000 test_emit_token_i
     /tmp/cc0yVrlH.s:1692   .text.test_emit_token_i:00000014 $d
     /tmp/cc0yVrlH.s:1698   .text.test_execute:00000000 $t
     /tmp/cc0yVrlH.s:1704   .text.test_execute:00000000 test_execute
     /tmp/cc0yVrlH.s:2261   .text.test_execute:0000023c $d
     /tmp/cc0yVrlH.s:2399   .bss.test_global_fail:00000000 test_global_fail
     /tmp/cc0yVrlH.s:2386   .bss.test_step:00000000 test_step
     /tmp/cc0yVrlH.s:2296   .bss.test_failure_message:00000000 $d
     /tmp/cc0yVrlH.s:2300   .bss.test_failure_message:00000000 test_failure_message
     /tmp/cc0yVrlH.s:2306   .bss.test_local_fail:00000000 test_local_fail
     /tmp/cc0yVrlH.s:2307   .bss.test_local_fail:00000000 $d
     /tmp/cc0yVrlH.s:2309   .rodata.str1.4:00000000 $d
     /tmp/cc0yVrlH.s:2368   .bss.test_chp:00000000 $d
     /tmp/cc0yVrlH.s:2372   .bss.test_chp:00000000 test_chp
     /tmp/cc0yVrlH.s:2375   .bss.test_tokp:00000000 $d
     /tmp/cc0yVrlH.s:2379   .bss.test_tokp:00000000 test_tokp
     /tmp/cc0yVrlH.s:2382   .bss.test_step:00000000 $d
     /tmp/cc0yVrlH.s:2389   .bss.test_tokens_buffer:00000000 $d
     /tmp/cc0yVrlH.s:2393   .bss.test_tokens_buffer:00000000 test_tokens_buffer
     /tmp/cc0yVrlH.s:2400   .bss.test_global_fail:00000000 $d
                            *COM*:00000001 __gnu_lto_v1
                     .debug_frame:00000010 $d
     /tmp/cc0yVrlH.s:1075   .text.print_line:0000002c $t
     /tmp/cc0yVrlH.s:1115   .text._test_fail:0000001c $t
     /tmp/cc0yVrlH.s:1174   .text._test_assert:0000002c $t
     /tmp/cc0yVrlH.s:1262   .text._test_assert_sequence:0000004c $t
     /tmp/cc0yVrlH.s:1380   .text._test_assert_time_window:00000038 $t
ARM GAS  /tmp/cc0yVrlH.s 			page 193


     /tmp/cc0yVrlH.s:1480   .text.test_printn:00000068 $t
     /tmp/cc0yVrlH.s:1662   .text.test_emit_token:00000028 $t
     /tmp/cc0yVrlH.s:1697   .text.test_emit_token_i:0000001c $t

UNDEFINED SYMBOLS
chThdSleep
test_suite
