ARM GAS  /tmp/ccCbDWNk.s 			page 1


   1              		.syntax unified
   2              		.cpu cortex-m4
   3              		.fpu softvfp
   4              		.eabi_attribute 20, 1
   5              		.eabi_attribute 21, 1
   6              		.eabi_attribute 23, 3
   7              		.eabi_attribute 24, 1
   8              		.eabi_attribute 25, 1
   9              		.eabi_attribute 26, 1
  10              		.eabi_attribute 30, 2
  11              		.eabi_attribute 34, 1
  12              		.eabi_attribute 18, 4
  13              		.thumb
  14              		.file	"chmsg.c"
  15              		.text
  16              	.Ltext0:
  17              		.section	.gnu.lto_.jmpfuncs.571d765b2782f2f,"",%progbits
  18 0000 789C6362 		.ascii	"x\234cb`b\300\0064\24143\0033#S\004c&#\003\017\003\003"
  18      6062C006 
  18      34A13433 
  18      03332353 
  18      04632623 
  19 0018 23035035 		.ascii	"#\003P5\224\313\007\224cf\002)``,\003*\004\0009\234"
  19      94CB0794 
  19      63660229 
  19      60602C03 
  19      2A040039 
  20 002d 025F     		.ascii	"\002_"
  21              		.text
  22              		.section	.gnu.lto_.inline.571d765b2782f2f,"",%progbits
  23 0000 789C6362 		.ascii	"x\234cb`b\300\006\342\24043\003\203\210\014##\003#\220"
  23      6062C006 
  23      E2A03433 
  23      0383880C 
  23      23230323 
  24 0015 CD247E63 		.ascii	"\315$~c3#\003\347\0153\260\026&n\006\240(\230\234\340"
  24      332303E7 
  24      0D33B016 
  24      266E06A0 
  24      28989CE0 
  25 0029 C7C420C8 		.ascii	"\307\304 \310\017\344H\034\330\315\310\300\266@\036"
  25      0FE4481C 
  25      D8CDC8C0 
  25      B6401E
  26 0038 49013303 		.ascii	"I\0013\003\207\000P\206e\201<\\\202\231\007(9\301o\202"
  26      87005086 
  26      65813C5C 
  26      82990728 
  26      39C16F82 
  27 004c 1F0300E2 		.ascii	"\037\003\000\342\275\012T"
  27      BD0A54
  28              		.text
  29              		.section	.gnu.lto_.pureconst.571d765b2782f2f,"",%progbits
  30 0000 789C6362 		.ascii	"x\234cb`b`g\200\000f\006+&+f+\000\002\361\000\302"
  30      60626067 
  30      80006606 
  30      2B262B66 
ARM GAS  /tmp/ccCbDWNk.s 			page 2


  30      2B0002F1 
  31              		.text
  32              		.section	.gnu.lto_chMsgSend.571d765b2782f2f,"",%progbits
  33 0000 789C9D54 		.ascii	"x\234\235T_\210TU\030\377\276{\356\354\035gw\366\256"
  33      5F885455 
  33      18FFBE7B 
  33      EEEC1D67 
  33      77F6AE
  34 0013 0581A1DB 		.ascii	"\005\201\241\333$\004\221\262\267\364\241|\261b\237"
  34      240491B2 
  34      B7F4A17C 
  34      B1629F
  35 0022 2296C051 		.ascii	"\"\226\300Q\252'\271{\034v.x\235q\356(\376y\360\314"
  35      AA27B97B 
  35      1C762E78 
  35      9D71EE28 
  35      FE79F0CC 
  36 0036 EE0A460A 		.ascii	"\356\012F\012\262\364\260fR\"D\366b\024A\177HF\222e"
  36      B2F4B066 
  36      522244F6 
  36      6214417F 
  36      48469265 
  37 004a 5773D6EA 		.ascii	"Ws\326\352![\"\007\3012\037\264\024Ata\372\3169\367"
  37      215B2207 
  37      C1321FB4 
  37      14417461 
  37      FACE39F7 
  38 005e DE9D99B5 		.ascii	"\336\235\231\265\335\245\031\346\236o\276{\276\337\371"
  38      DDA519E6 
  38      9E6FBE7B 
  38      BEDFF9
  39 006d 9DDF77CE 		.ascii	"\235\337w\316\317\000\003\332?\353\350w\245\003\340"
  39      CF0003DA 
  39      3FEBE877 
  39      A503E0
  40 007c 1E8D9800 		.ascii	"\036\215\230\0004\216\326\000*I\303`\0236\210\224ya"
  40      348ED600 
  40      2A49C360 
  40      13368894 
  40      7961
  41 008e 23882E86 		.ascii	"#\210.\206\246N\233\2102\000\204\003\0063\361\300\333"
  41      A64E9B88 
  41      32008403 
  41      0633F1C0 
  41      DB
  42 009f 28317035 		.ascii	"(1p5\234\024b\254~\360\326\015<&\252\243\037\211\331"
  42      9C1462AC 
  42      7EF0D60D 
  42      3C26AAA3 
  42      1F89D9
  43 00b2 4603D143 		.ascii	"F\003\321CZ/\203\300\021\336\242?\230Q\203a\266\022"
  43      5A2F83C0 
  43      11DEA23F 
  43      98518361 
  43      B612
  44 00c4 386354EB 		.ascii	"8cT\353\215\306\354\2277\256M\343\362'\030\270x\222"
  44      8DC6EC97 
ARM GAS  /tmp/ccCbDWNk.s 			page 3


  44      37AE4DE3 
  44      F22718B8 
  44      7892
  45 00d6 F012E823 		.ascii	"\360\022\350#X\364\300$x\310R\3640\323@9\233\"Y\226"
  45      58F4C024 
  45      78C852F4 
  45      30D34039 
  45      9B225996 
  46 00ea 8051218E 		.ascii	"\200Q!\216f\364l\037ic\\\3457\323SR\334B)\032\331%\030"
  46      66F46C1F 
  46      69635CE5 
  46      37D35352 
  46      DC42291A 
  47 0101 9E19275E 		.ascii	"\236\031'^.\236\242\355\015![\003\237\012\372\274I0"
  47      2E9EA2ED 
  47      0D215B03 
  47      9F0AFABC 
  47      4930
  48 0113 6BE0390F 		.ascii	"k\3409\017\023\307\341\375\212\020=\036v\354\207\007"
  48      13C7E1FD 
  48      8A103D1E 
  48      76EC8707 
  49 0123 E2908C2C 		.ascii	"\342\220\214,\037\031aI\272\226\"9\210\020\216a\000"
  49      1F196149 
  49      BA962239 
  49      88108E61 
  49      00
  50 0134 53305C5D 		.ascii	"S0\\]\245A5\207!YB\331$@(\307\261\323\227\316\341\330"
  50      A5413587 
  50      215942D9 
  50      244028C7 
  50      B1D397CE 
  51 014a 889814A3 		.ascii	"\210\230\024\243U\322\343)\017\223\206\344\267\260\036"
  51      55D2E329 
  51      0F9386E4 
  51      B7B01E
  52 0159 3297CC50 		.ascii	"2\227\314PP\203\341\177\276\031\371\370\311p\247\321"
  52      5083E17F 
  52      BE19F9F8 
  52      C970A7D1 
  53 0169 96AB5FFC 		.ascii	"\226\253_\374t\234=\353\342'\264f\234{\370\336\375\316"
  53      749C3DEB 
  53      E227B466 
  53      9C7BF8DE 
  53      FDCE
  54 017b 95F1BF77 		.ascii	"\225\361\277w~'\226\232\033G\271\236A?\246:E\337\317"
  54      7E27969A 
  54      1B47B99E 
  54      413FA63A 
  54      45DFCF
  55 018e 2824B998 		.ascii	"($\271\230>\014\275p\016O\210\361W<\\\326\262\372\334"
  55      3E0CBD70 
  55      0E4F88F1 
  55      573C5CD6 
  55      B2FADC
  56 01a1 FBF3E1FB 		.ascii	"\373\363\341\373\224\346G\202^\374\352\366eC\343\207"
  56      94E64782 
ARM GAS  /tmp/ccCbDWNk.s 			page 4


  56      5EFCEAF6 
  56      6543E387 
  57 01b1 6AAEF7B0 		.ascii	"j\256\367\2603\014\323\036v\221\244\204\223&I$^$\235"
  57      330CD31E 
  57      7691A484 
  57      93264924 
  57      5E249D
  58 01c4 118E8A09 		.ascii	"\021\216\212\011\351\225P`\017F\036\036aQw\222\373a"
  58      E9955060 
  58      0F461E1E 
  58      61517792 
  58      FB61
  59 01d6 9F277B44 		.ascii	"\237'{D\215\351\216Q\254f\224&\271\246 d\241\005\257"
  59      8DE98E51 
  59      AC669426 
  59      B9A62064 
  59      A105AF
  60 01e9 5E9DB888 		.ascii	"^\235\270\210bLT\376n4lu\370~\300\305\324\216\272V?"
  60      624C54FE 
  60      6E346C75 
  60      F87EC0C5 
  60      D48EBA56 
  61 01fe CB178062 		.ascii	"\313\027\200b\006L/\001*\251\325\231\275\371\353\007"
  61      064C2F01 
  61      2AA9D599 
  61      BDF9EB07 
  62 020e DFDBED6D 		.ascii	"\337\333\355m{\367\352\013.~KMs\361k\325\272\250A\012"
  62      7BF7EA0B 
  62      2E7E4B4D 
  62      73F16BD5 
  62      BAA8410A 
  63 0222 468B57FF 		.ascii	"F\213W\377\245v}\305Ju2\225\226\235Z\005}<\333\345L"
  63      A5767DC5 
  63      4A753295 
  63      969D5A05 
  63      7D3CDBE5 
  64 0237 4888B372 		.ascii	"H\210\263r\030\304\2168\216X\314\214\337=\374\272\213"
  64      18C48E38 
  64      8E58CC8C 
  64      DF3DFCBA 
  64      8B
  65 0248 DF29596D 		.ascii	"\337)Ym%(\304P\335\241\246l\255\206\262\342rU;u\331"
  65      2528C450 
  65      DDA1A66C 
  65      AD86B2E2 
  65      72553B75 
  66 025d D695218D 		.ascii	"\326\225!\215\015\377\203\221\325\304\310\016O\315\335"
  66      0DFF8391 
  66      D5C4C80E 
  66      4FCDDD
  67 026c C31B5B70 		.ascii	"\303\033[pw\316\341f\333p\355\245\354\224i\334+\355"
  67      77CEE166 
  67      DB70EDA5 
  67      EC9469DC 
  67      2BED
  68 027e B8E9A5ED 		.ascii	"\270\351\245\3555\002\230\371m\366\310\212\350\004\246"
  68      350298F9 
ARM GAS  /tmp/ccCbDWNk.s 			page 5


  68      6DF6C88A 
  68      E804A6
  69 028d 9454F6A3 		.ascii	"\224T\366\243\317^2l\365$\234\377\263\222\216K\344\024"
  69      CF5E326C 
  69      F5249CFF 
  69      B3928E4B 
  69      E414
  70 029f B3BBE928 		.ascii	"\263\273\351(l!\344\011\233M\303h}\362Th=\000\261\275"
  70      6C21E409 
  70      9B4DC368 
  70      7DF25468 
  70      3D00B1BD 
  71 02b3 F4702D35 		.ascii	"\364p-5\325Z\036.\217jLeX\262\350\302Hj^\321c\\\356"
  71      D55A1E2E 
  71      8F6A4C65 
  71      58B2E8C2 
  71      486A5ED1 
  72 02ca 3DBCA266 		.ascii	"=\274\242f\027\331\340\343\232\375\375;/EL\322\241\000"
  72      17D9E0E3 
  72      9AFDFD3B 
  72      2F454CD2 
  72      A100
  73 02dc 2FCF5DC7 		.ascii	"/\317]\307\015\213^\307e\361m\032\256Z\032\211|\226"
  73      0D8B5EC7 
  73      65F16D1A 
  73      AE5A1A89 
  73      7C96
  74 02ee C0DAEDEC 		.ascii	"\300\332\355\354\257Z\273\235\271xZy\313\242~&\203\377"
  74      AF5ABB9D 
  74      B9785A79 
  74      CBA27E26 
  74      83FF
  75 0300 F4B39B27 		.ascii	"\364\263\233'\244\237\375\334\352g\037\246{c\223\237"
  75      A49FFDDC 
  75      EA671FA6 
  75      7B63939F 
  76 0310 33B63F9A 		.ascii	"3\266?\232\214M93'\354\371\336\346\342\031\012\342\225"
  76      8C4D3933 
  76      27ECF9DE 
  76      E6E2190A 
  76      E295
  77 0322 232F73F1 		.ascii	"#/s\361s\354\325\254~\204J\275\306c\335tr3\335qj\201"
  77      73ECD5AC 
  77      7E844ABD 
  77      C663DD74 
  77      7233DD71 
  78 0338 9CBBAAAF 		.ascii	"\234\273\252\257\317\351\317{\203\336\033Y\247\0208"
  78      CFE9CF7B 
  78      83DE1B59 
  78      A71038
  79 0347 A5B21394 		.ascii	"\245\262\023\224\270\303\363~0\324\307\201\361r\321"
  79      B8C3F37E 
  79      30D4C781 
  79      F172D1
  80 0356 699DC10B 		.ascii	"i\235\301\013\276_\330\341\024\013\245r\340\274\272"
  80      BE5FD8E1 
  80      140BA572 
ARM GAS  /tmp/ccCbDWNk.s 			page 6


  80      E0BCBA
  81 0365 69A07F60 		.ascii	"i\240\177`\017M\347\205Rn\353\356\027\375\276<$v\273"
  81      0F4DE785 
  81      526EEBEE 
  81      17FDBE3C 
  81      2476BB
  82 0378 DB77E5D6 		.ascii	"\333w\345\326?\262*\267\247\354\364\017d_\313:\336\016"
  82      3FB22AB7 
  82      A7ECF40F 
  82      645FCB3A 
  82      DE0E
  83 038a BE7DD7B6 		.ascii	"\276}\327\266\234\303\375\300\013\266\016qN\225O\317"
  83      9CC3FDC0 
  83      0BB60E71 
  83      4E954FCF 
  84 039a E312CFCA 		.ascii	"\343\022\317\312\007{\003\232\3213\220\335\224\031t"
  84      077B039A 
  84      D13390DD 
  84      941974
  85 03a9 835CB1E4 		.ascii	"\203\\\261\344\255\315<\363<\030%\260\374\234_(\355"
  85      ADCD3CF3 
  85      3C1825B0 
  85      FC9C5F28 
  85      ED
  86 03ba 05A35C64 		.ascii	"\005\243\\d\345\235\305\325\013\201\360\3746B\371\027"
  86      E59DC5D5 
  86      0B81F0FC 
  86      3642F917 
  87 03ca A61EE0D3 		.ascii	"\246\036\340\323"
  88              		.text
  89              		.section	.gnu.lto_chMsgWait.571d765b2782f2f,"",%progbits
  90 0000 789C9D55 		.ascii	"x\234\235U]h\024W\024>\347\316\354N\222\375Q\352\213"
  90      5D681457 
  90      143EE7CE 
  90      EC4E92FD 
  90      51EA8B
  91 0013 969A6E03 		.ascii	"\226\232n\003\205\342OF\360A\362\326\222\247BC\301U"
  91      85E24F46 
  91      F041F2D6 
  91      92A74243 
  91      C155
  92 0025 B44F3219 		.ascii	"\264O2\031\227\335\001\327\215;\253\250y\360\346\247"
  92      97DD01D7 
  92      8D3BABA8 
  92      79F0E6A7 
  93 0035 D0564B53 		.ascii	"\320VKS)\324\032\202\177\265\240BS\332\212\026\224\256"
  93      29D41A82 
  93      7FB5A042 
  93      53DA8A16 
  93      94AE
  94 0047 18342246 		.ascii	"\0304\"F\242\010\266}\350Z\250UQ\320\007I\0101\333s"
  94      A208B67D 
  94      E85AA855 
  94      51D00749 
  94      0831DB73 
  95 005b EF9D99CD 		.ascii	"\357\235\231\315l5\011\235\2603g\356\334\373\235\357"
  95      6C35099D 
ARM GAS  /tmp/ccCbDWNk.s 			page 7


  95      B03367EE 
  95      DCFB9DEF 
  96 006b 7CF7BB27 		.ascii	"|\367\273'\014\030\324_k\351\327b\000,A\000\214\000"
  96      0C18D45F 
  96      6BE9D762 
  96      002C4100 
  96      8C00
  97 007d B2813180 		.ascii	"\262\2011\200\236\006\306\264\347\006\360&}\360\012"
  97      9E06C6B4 
  97      E706F026 
  97      7DF00A
  98 008c 008F6BA8 		.ascii	"\000\217k\250\253q\035Q\004\200\260\217i:\356\373\010"
  98      AB711D51 
  98      0480B08F 
  98      693AEEFB 
  98      08
  99 009d 0508B6C0 		.ascii	"\005\010\266\3001\316\017V>\236y\200\337\360r\377Q>"
  99      31CE0F56 
  99      3E9E7980 
  99      DFF072FF 
  99      513E
 100 00af 5DAD223A 		.ascii	"]\255\":H\011S\0106\302fz\301\224|0=\314`\230\225+\325"
 100      48095308 
 100      36C2667A 
 100      C1947C30 
 100      3DCC6098 
 101 00c6 EAF4C5C7 		.ascii	"\352\364\305\307\367\366\343kKt\240UQq3\350\246\305"
 101      F7F6E36B 
 101      4B74A055 
 101      517133E8 
 101      A6C5
 102 00d8 44141751 		.ascii	"D\024\027Q\002,<F\211\222b\204\256\010\364s>\220R\203"
 102      022C3C46 
 102      89926284 
 102      AE08F473 
 102      3E905283 
 103 00ec 2072D0B5 		.ascii	" r\320\265\201\356\202\337Fd\342\251]\203\336\006\252"
 103      81EE82DF 
 103      4664E2A9 
 103      5D83DE06 
 103      AA
 104 00fd 4FB1FBFA 		.ascii	"O\261\373\372\324\215Kx\260\217\217\362\3762\321{\323"
 104      D48D4B78 
 104      B08F8FF2 
 104      FE32D17B 
 104      D3
 105 010e 419D417A 		.ascii	"A\235Az>zbLOQ0\006\275\317~\351\373\356u/\261\317\240"
 105      3E7A624C 
 105      4F513006 
 105      BDCF7EE9 
 105      FBEE752F 
 106 0125 3C7C6B50 		.ascii	"<|kP{\307\302o%\015ol\342\253\311\330\033\301\333\247"
 106      7BC7C26F 
 106      250D6F6C 
 106      E2ABC9D8 
 106      1BC1DBA7 
 107 0139 2F889685 		.ascii	"/\210\226\205'H_\033E>F?M\012G\177\303\024\322\276h"
ARM GAS  /tmp/ccCbDWNk.s 			page 8


 107      27485F1B 
 107      453E463F 
 107      4D0A477F 
 107      C314D2BE 
 108 014e 6A739AA1 		.ascii	"js\232\241\214C\374\320\273\016M\236\235\275\366\375"
 108      8C43FCD0 
 108      BB0E4D9E 
 108      9DBDF6FD 
 109 015e B2F73DAA 		.ascii	"\262\367=\252\370\335\200\336\337'g&\231\302\317\242"
 109      F8DD80DE 
 109      DF276726 
 109      99C2CFA2 
 110 016e BE125690 		.ascii	"\276\022V\220B+\3414\247k\207\203\306 \034\356\341|"
 110      422BE134 
 110      A76B8783 
 110      C6201CEE 
 110      E17C
 111 0180 B1830DDD 		.ascii	"\261\203\015\3350\305?\021Qc\036}\364F\211\322\211\340"
 111      30C53F11 
 111      51631E7D 
 111      F44689D2 
 111      89E0
 112 0192 3DBD0048 		.ascii	"=\275\000H\272\262\251@\225~\345?\257~\276\214\037\355"
 112      BAB2A940 
 112      957EE53F 
 112      AF7EBE8C 
 112      1FED
 113 01a4 1DE033A4 		.ascii	"\035\3403\244\036\245\260\360\270\254d.\365\210\217"
 113      1EA5B0F0 
 113      B8AC642E 
 113      F5888F
 114 01b3 A2387DFF 		.ascii	"\2428}\377\267\303{\353\245\273\376\342Y\304\302\237"
 114      B7C37BEB 
 114      A5BBFEE2 
 114      59C4C29F 
 115 01c3 A472BE3E 		.ascii	"\244r\276>\272Z\026S\005T\316\215\335\031G\255V\320"
 115      BA5A1653 
 115      0554CE8D 
 115      DD1947AD 
 115      56D0
 116 01d5 26079B82 		.ascii	"&\007\233\202\202b\004/\262\372\334\231\2009+\224\353"
 116      8262042F 
 116      B2FADC99 
 116      80392B94 
 116      EB
 117 01e6 14FA7AB1 		.ascii	"\024\372z\261$0\325wZ\263\360g)Q\274\033\366\222\243"
 117      2430D577 
 117      5AB3F067 
 117      2951BC1B 
 117      F692A3
 118 01f9 3CC43F70 		.ascii	"<\304?pa\220\001\332(\214\374s\357\357\2315\276\342"
 118      619001DA 
 118      288CFC73 
 118      EFEF9935 
 118      BEE2
 119 020b B4245EAB 		.ascii	"\264$^\253x#e~nh7\241\2772}\271I\315\001\010\224\217"
 119      7823657E 
ARM GAS  /tmp/ccCbDWNk.s 			page 9


 119      6E6837A1 
 119      BF327DB9 
 119      49CD0108 
 120 0221 DB0A44AA 		.ascii	"\333\012D\252\225\020fN\372\353tiY!\326\335\352]\315"
 120      9510664E 
 120      FAEB7469 
 120      5921D6DD 
 120      EA5DCD
 121 0234 478FFAFB 		.ascii	"G\217\372\373\271\342\177o\245,\377>\372\210F\250\374"
 121      B9E27F6F 
 121      A52CFF3E 
 121      FA8846A8 
 121      FC
 122 0245 2FBDF251 		.ascii	"/\275\362Q\326\036\255\253\335\277\204\033\332\346r"
 122      D61EADAB 
 122      DDBF841B 
 122      DAE672
 123 0254 83C6E009 		.ascii	"\203\306\340\011\316w\226(\267r\303\205\251\361\241"
 123      CE779628 
 123      B772C385 
 123      A9F1A1
 124 0263 13866707 		.ascii	"\023\206g\007\005\310\177\344\274Q6\016m\201\336\012"
 124      05C87FE4 
 124      BC51360E 
 124      6D81DE0A 
 125 0273 6CB4BF6A 		.ascii	"l\264\277jY8\022rQT\245Kx.\272\375\305\223e\253\011"
 125      59381272 
 125      5154A54B 
 125      782EBAFD 
 125      C59365AB 
 126 0288 36D0AFC9 		.ascii	"6\320\257\311+U[\245J\225n\031U[#j]n\341\025z\263\360"
 126      2B555BA5 
 126      4A956E19 
 126      555B236A 
 126      5D6EE115 
 127 029f 2AC1128E 		.ascii	"*\301\022\216\242}h\342\300\007\352C\026\223\241s\326"
 127      A27D68E2 
 127      C007EA43 
 127      1693A173 
 127      D6
 128 02b0 5DE7A1C4 		.ascii	"]\347\241\304l\035\365\000<\234\210 \257\375\220T\200"
 128      6C1DF500 
 128      3C9C8820 
 128      AFFD9054 
 128      80
 129 02c1 1E4E6261 		.ascii	"\036Nba$\263\3025\264\374\372\371\211\003m!\200M5Nm"
 129      24B3C235 
 129      B4FCFAF9 
 129      89036D21 
 129      804D354E 
 130 02d6 759C92AF 		.ascii	"u\234\222\257\342\024\231\205k\310\372\237\376\365\353"
 130      E2149985 
 130      6BC8FA9F 
 130      FEF5EB
 131 02e5 5225A5DF 		.ascii	"R%\245\337_e\272\363\223\325\007\236\215\274\0341\007"
 131      5F65BAF3 
 131      93D5079E 
ARM GAS  /tmp/ccCbDWNk.s 			page 10


 131      8DBC1C31 
 131      07
 132 02f6 1705E609 		.ascii	"\027\005\346\011\025\035\255\271<\241D\235\325\211\037"
 132      151DADB9 
 132      3CA1449D 
 132      D5891F
 133 0305 8ED57762 		.ascii	"\216\325wb\013O\316\273\341\262\031\212\340\225\255"
 133      0B4FCEBB 
 133      E1B2198A 
 133      E095AD
 134 0314 F8D19068 		.ascii	"\370\321\220h\305w\302\255\370H\2429\370wQ\353\311#"
 134      C577C2AD 
 134      F848A239 
 134      F87751EB 
 134      C923
 135 0326 ACE61643 		.ascii	"\254\346\026C\200\332\330\360\222\266l\341\031\012\202"
 135      80DAD8F0 
 135      92B66CE1 
 135      190A82
 136 0335 CC7E1BB6 		.ascii	"\314~\033\266\360{lV\254\306\241\247\362Y\306?\\\011"
 136      F07B6C56 
 136      ACC6A1A7 
 136      F259C63F 
 136      5C09
 137 0347 35B881CE 		.ascii	"5\270\201\316\002\235f1wyk\253\331\236s:\235\017\323"
 137      029D6631 
 137      77796BAB 
 137      D99E733A 
 137      9D0FD3
 138 035a 66C1358B 		.ascii	"f\3015\213%\323-\332\246\235\313\273\331V\033X\251\313"
 138      25D32DDA 
 138      A69DCBBB 
 138      D9561B58 
 138      A9CB
 139 036c 0C4FB00B 		.ascii	"\014O\260\013\371|a\273\331U(\226\\\363\275\365\035"
 139      F97C61BB 
 139      D9552896 
 139      5CF3BDF5 
 139      1D
 140 037d ED1DBB69 		.ascii	"\355\035\273i\266](f\266\354Z\227o\315Ad\227\265mgf"
 140      B65D2866 
 140      B6EC5A97 
 140      6FCD4164 
 140      97B56D67 
 141 0392 ED4B5765 		.ascii	"\355KWev\227\314\366\216\364\373i\323\331no\333\271"
 141      7697CCF6 
 141      8EF4FB69 
 141      D3D96E6F 
 141      DBB9
 142 03a4 3563DA79 		.ascii	"5c\332y\327q\267dm\233V\276\365\037*\301\254\234\273"
 142      D771B764 
 142      6D9B56BE 
 142      F51F2AC1 
 142      AC9CBB
 143 03b7 C7A5198B 		.ascii	"\307\245\031\213;\322\353S\235\226\233\351*:\253Ro\257"
 143      3BD2EB53 
 143      9D969BE9 
ARM GAS  /tmp/ccCbDWNk.s 			page 11


 143      2A3AAB52 
 143      6FAF
 144 03c9 01560423 		.ascii	"\001V\004#\237\311\027\212{\346\\-\212\311\201V\332"
 144      9FC9178A 
 144      7BE65C2D 
 144      8AC98156 
 144      DA
 145 03da D1D53257 		.ascii	"\321\3252W\016;\267\225\246\375\013\321\234\006\215"
 145      0E3BB795 
 145      A6FD0BD1 
 145      9C068D
 146              		.text
 147              		.section	.gnu.lto_chMsgRelease.571d765b2782f2f,"",%progbits
 148 0000 789C8D52 		.ascii	"x\234\215RAh\023Q\020\235\371\333m\242\"\366\252h\214"
 148      41681351 
 148      109DF9DB 
 148      6DA222F6 
 148      AA688C
 149 0013 858207C9 		.ascii	"\205\202\007\311\012\036\274*9y\010JSAOe\373]\222\017"
 149      0A1EBC2A 
 149      3979084A 
 149      53414F65 
 149      FB5D920F 
 150 0027 DD6ED84D 		.ascii	"\335n\330MK\213\207\376\244\025\264\2474x\020\244\324"
 150      4B8B87FE 
 150      A415B4A7 
 150      347810A4 
 150      D4
 151 0038 5A502A6D 		.ascii	"ZP*m\012\305\253\272\336Z\202\021E=y\310U\275\304[Q"
 151      0AC5ABBA 
 151      DE5A8211 
 151      453D79C8 
 151      55BDC45B 
 152 004d 613BBB49 		.ascii	"a;\273I\326$\226\326\205\377\377\354\314\374yo\346}"
 152      D62496D6 
 152      85FFFFEC 
 152      CCFC796F 
 152      E67D
 153 005f 060C7ABF 		.ascii	"\006\014z\277\223\264\024\005\240A'*\200\254T\003(D"
 153      93B41405 
 153      A041272A 
 153      80AC5403 
 153      2844
 154 0071 19A26F00 		.ascii	"\031\242o\000\302,\303\331\333\030\344n2\267\356y\225"
 154      C22CC3D9 
 154      DB18E46E 
 154      32B7EE79 
 154      95
 155 0082 D70B95AF 		.ascii	"\327\013\225\257\370\202\035U\320D\350\243\315\217\252"
 155      F8821D55 
 155      D044E8A3 
 155      CD8FAA
 156 0091 302F6529 		.ascii	"0/e)n\"A\360 }\204v\277\306Mr\321\251\354@1\0120\010"
 156      6E2241F0 
 156      207D8476 
 156      BFC64D72 
 156      D1A9EC40 
ARM GAS  /tmp/ccCbDWNk.s 			page 12


 157 00a9 2B5296EB 		.ascii	"+R\226\353\213k\357\336byNn\313y\327\363\360\254@\342"
 157      8B6BEFDE 
 157      62794E6E 
 157      CB79D7F3 
 157      F0AC40E2 
 158 00bd 7603FDAB 		.ascii	"v\003\375\253\267P \306\203\203\365u\223\365}\020'\243"
 158      B75020C6 
 158      8383F575 
 158      93F57D10 
 158      27A3
 159 00cf 06C59F95 		.ascii	"\006\305\237\225\271g\247Z\250mxw\365\343c\345\274\216"
 159      B967A75A 
 159      A86D7877 
 159      F5E363E5 
 159      BC8E
 160 00e1 4F7130A4 		.ascii	"Oq0\244\344\376x\270{\354t\370\267\363\211\010\352\270"
 160      E4FE78B8 
 160      7BEC74F8 
 160      B7F38908 
 160      EAB8
 161 00f3 822A61F9 		.ascii	"\202*a\371x\214\226\002A\253\010\353dR\\i\016*\006\257"
 161      788C9602 
 161      41AB08EB 
 161      64525C69 
 161      0E2A06AF 
 162 0107 70493EBA 		.ascii	"pI>\272\"\232\011!\372\337\270\333\212\267xv\266\350"
 162      229A0921 
 162      FADFB8DB 
 162      8AB77876 
 162      B6E8
 163 0119 BE59A8A2 		.ascii	"\276Y\250\242,\313B\303\363N\010T\031l\343a\375e|\240"
 163      2CCB42C3 
 163      F34E0854 
 163      196CE361 
 163      FD657CA0 
 164 012d 8E2225B9 		.ascii	"\216\"%\271%\345\221'\362\217\347)\002\373\031T\377"
 164      25E59127 
 164      F28FE729 
 164      02FB1954 
 164      FF
 165 013e A30439DE 		.ascii	"\243\0049\336\303\275\306\362\363\337\273\330;\237\352"
 165      C3BDC6F2 
 165      F3DFBBD8 
 165      3B9FEA
 166 014d E7A2AAE3 		.ascii	"\347\242\252\343&\215G\307\215`H\355Q\264\312\334\205"
 166      268D47C7 
 166      8D6048ED 
 166      51B4CADC 
 166      85
 167 015e 5FF2BE1C 		.ascii	"_\362\276\034\020\030\341H\231[\024k\362\242\272\002"
 167      1018E148 
 167      995B146B 
 167      F2A2BA02 
 168 016e A3DD2DD6 		.ascii	"\243\335-\326\027\277\325zU\324q5\030\351\2412\302A"
 168      17BFD57A 
 168      55D47135 
 168      18E9A132 
ARM GAS  /tmp/ccCbDWNk.s 			page 13


 168      C241
 169 0180 327E5FF2 		.ascii	"2~_\362e|\331-\343\362\361X\370\316B\367\203/\035z\366"
 169      657CD92D 
 169      E3F2F158 
 169      F8CE42F7 
 169      832F1D7A 
 170 0195 FB453946 		.ascii	"\373E9F\366\221T\30752B\344\266\204:\256c\254\351\371"
 170      F69154C7 
 170      353242E4 
 170      B6843AAE 
 170      63ACE9F9 
 171 01a9 0085FAC6 		.ascii	"\000\205\372\306P\263T\373\033\241y\323\333\365S\317"
 171      50B354FB 
 171      1BA179D3 
 171      DBF553CF 
 172 01b9 24125A32 		.ascii	"$\022Z2+\306\304\365\264f9\232\235\327\034\233k<k:\231"
 172      2BC6C4F5 
 172      B466399A 
 172      9DD71C9B 
 172      6B3C6B3A 
 173 01ce 0407AD3B 		.ascii	"\004\007\255;\312-\323\264&\264\234e\347\035\355\352"
 173      CA2DD3B4 
 173      26B49C65 
 173      E71DEDEA 
 174 01de 702A999A 		.ascii	"p*\231\232\246Tn\331\306\350\324e3\221\005uJ\037\237"
 174      A6546ED9 
 174      C6E8D465 
 174      33910575 
 174      4A1F9F
 175 01f1 342EED7B 		.ascii	"4.\355{\313\230\316k\311T\372ZZ\023\023||\362\216\241"
 175      CB98CE6B 
 175      C954FA5A 
 175      5A13137C 
 175      7CF28EA1 
 176 0205 71D311CE 		.ascii	"q\323\021\316h\206s\272y\356\037\036aV\326\231q(c \225"
 176      688673BA 
 176      79EE1F1E 
 176      6156D699 
 176      71286320 
 177 021a 1E8E8FE9 		.ascii	"\036\216\217\351\216\221\263\305\205\370\320E`6DL\303"
 177      8E91B3C5 
 177      85F8D045 
 177      6036444C 
 177      C3
 178 022b B4EC1960 		.ascii	"\264\354\031`\371\234B\214\017*\3427\224\205=\032\007"
 178      F99C428C 
 178      0F2AE237 
 178      94853D1A 
 178      07
 179 023c 0020     		.ascii	"\000 "
 180              		.text
 181              		.section	.gnu.lto_.symbol_nodes.571d765b2782f2f,"",%progbits
 182 0000 789C45C8 		.ascii	"x\234E\310\273\011\200@\020\204\341\231\335;C[\260\324"
 182      BB098040 
 182      1084E199 
 182      DD3B435B 
 182      B0D4
ARM GAS  /tmp/ccCbDWNk.s 			page 14


 183 0012 3DB8448C 		.ascii	"=\270D\214\254\300.\254\301\314\036\304T\360\031\030"
 183      ACC02EAC 
 183      C1CC1EC4 
 183      54F01918 
 184 0022 8982E24D 		.ascii	"\211\202\342M\364\177#\020\030\276\311\314\247\353\036"
 184      F47F2310 
 184      18BEC9CC 
 184      A7EB1E
 185 0031 306B4AFA 		.ascii	"0kJ\372\215OA\026\032\323++M\022y\320\364e\010\344N"
 185      8D4F4116 
 185      1AD32B2B 
 185      4D1279D0 
 185      F46508E4 
 186 0046 734927CD 		.ascii	"sI'\315\377Rx\214]\247\012\207XM\205\212\303\330\346"
 186      FF52788C 
 186      5DA70A87 
 186      584D858A 
 186      C3D8E6
 187 0059 AA19E270 		.ascii	"\252\031\342p\0217\350F&\236"
 187      1137E846 
 187      269E
 188              		.text
 189              		.section	.gnu.lto_.refs.571d765b2782f2f,"",%progbits
 190 0000 789C6362 		.ascii	"x\234cb`b\340f\200\000F bb\002R\214\014\000\001s\000"
 190      6062E066 
 190      80004620 
 190      62620252 
 190      8C0C0001 
 191 0016 18       		.ascii	"\030"
 192              		.text
 193              		.section	.gnu.lto_.decls.571d765b2782f2f,"",%progbits
 194 0000 789CBD3A 		.ascii	"x\234\275:kp\024\307\231\3233+\355\256\036\200\235\330"
 194      6B7014C7 
 194      99D3332B 
 194      EDAE1E80 
 194      9DD8
 195 0012 0775CE45 		.ascii	"\007u\316E\244\234\\\316)X\214\035Cru\261\035\356\312"
 195      A49C5CCE 
 195      29588C1D 
 195      437275B1 
 195      1DEECA
 196 0025 5015E728 		.ascii	"P\025\347(T\256\244*u\331\014\253\221v\317\373\362\356"
 196      54AEA42A 
 196      75D90CAB 
 196      9176CFFB 
 196      F2EE
 197 0037 08A1FB71 		.ascii	"\010\241\373q\036\211\207\200\220 !l\3002 ^~%6\306g"
 197      1E898780 
 197      9020216C 
 197      C032205E 
 197      7E2536C6 
 198 004c DE18AD7D 		.ascii	"\336\030\255}\021\2261 !\220dP\000\371\260\3006\306"
 198      11963120 
 198      21906450 
 198      00F9B0C0 
 198      36C6
 199 005e E6695B06 		.ascii	"\346i[\006[\367\36573\2733\2633\2733\302\316TuO\317"
ARM GAS  /tmp/ccCbDWNk.s 			page 15


 199      5BF7F537 
 199      33BB33B3 
 199      33BB33C2 
 199      CE54754F 
 200 0073 4C7F5F7F 		.ascii	"L\177_\177\357\356\376zX\206e\356d\031f\030\256\377"
 200      EFEEFE7A 
 200      588665EE 
 200      64196618 
 200      AEFF
 201 0085 FE6786F9 		.ascii	"\376g\206\371;7\303\270\030\206\371\031\024\242\024"
 201      3B37C3B8 
 201      1886F919 
 201      14A214
 202 0094 7A154259 		.ascii	"z\025BY\017%\000/\252\240\304\240$\241\324\020\271O"
 202      0F25002F 
 202      AAA0C4A0 
 202      24A1D410 
 202      B94F
 203 00a6 ADDA51B9 		.ascii	"\255\332Q\271h\337oCy\011\312((%P\016+}\353\240\372"
 203      68DF6F43 
 203      7909CA28 
 203      2825500E 
 203      2B7DEBA0 
 204 00bb 2F289D50 		.ascii	"/(\235P\332\341\271\013\356\335P6B{\034\334\267\300"
 204      DAE1B90B 
 204      EEDD5036 
 204      427B1CDC 
 204      B7C0
 205 00cd 7D3B1417 		.ascii	"};\024\027\264\217A\021\241\364@\211C)\202\367\022\334"
 205      B48F4111 
 205      A1F44089 
 205      432982F7 
 205      12DC
 206 00df 9742190B 		.ascii	"\227B\031\013\345\037\241\314\202\262\015\336\357\205"
 206      E51FA1CC 
 206      82B20DDE 
 206      EF85
 207 00ed B20F0A07 		.ascii	"\262\017\012\007\317\177\017\305\253\320\321\013\355"
 207      CF7F0FC5 
 207      ABD0D10B 
 207      ED
 208 00fa 13504E42 		.ascii	"\023PNB9\253\320M\351\377\004\312e\"\363\373;\270\377"
 208      39ABD04D 
 208      E9FF04CA 
 208      6522F3FB 
 208      3BB8FF
 209 010d 16CA3592 		.ascii	"\026\3125\222\315\013\345y\214\011/Z\332\265<Q\332)"
 209      CD0BE579 
 209      8C092F5A 
 209      DAB53C51 
 209      DA29
 210 011f 0F3D0ABF 		.ascii	"\017=\012\277\224n\312\213[C;\245\231\322\273MC\263"
 210      946ECA8B 
 210      5B433BA5 
 210      99D2BB4D 
 210      43B3
 211 0131 57194B4B 		.ascii	"W\031KK\357u\205V\027\233\241\327L\336U\012|\273\206"
ARM GAS  /tmp/ccCbDWNk.s 			page 16


 211      EF758556 
 211      179BA1D7 
 211      4CDE550A 
 211      7CBB86
 212 0144 4695364A 		.ascii	"F\2256J7\225m\021\340\010*p\036\005F;V1+\353S\035\207"
 212      37956D11 
 212      E0082A70 
 212      1E05463B 
 212      56312BEB 
 213 015b 833E61B8 		.ascii	"\203>a\270G(\377\254~\274\3572k\245\326\201\201\301"
 213      4728FFAC 
 213      7EBCEF32 
 213      6BA5D681 
 213      81C1
 214 016d F33BC749 		.ascii	"\363;\307I\255\365\251\341\341\373\231\333\231'$\270"
 214      ADF5A9E1 
 214      E1FB99DB 
 214      992724B8 
 215 017d 5A174A12 		.ascii	"Z\027J\022\021\275\314\"\345az\007\320\363k\302\223"
 215      11BDCC22 
 215      E5617A07 
 215      D0F36BC2 
 215      93
 216 018e 515EA60C 		.ascii	"Q^\246\014\033%^\024\371\367\231M\222\3248\320\264y"
 216      1B255E14 
 216      F9F7994D 
 216      92D438D0 
 216      B479
 217 01a0 E9BF4892 		.ascii	"\351\277H\222\207'\033\211\027\214\3617\204\271\213"
 217      87271B89 
 217      178CF137 
 217      84B98B
 218 01af 791E401B 		.ascii	"y\036@\033%i\303d\003\227x\331F\335\272\365\315\333"
 218      2569C364 
 218      039778D9 
 218      46DDBAF5 
 218      CDDB
 219 01c1 24174F9E 		.ascii	"$\027O\236E\304\177%\204\341\3113\344.\247h\006Vw\356"
 219      45C47F25 
 219      84E1C933 
 219      E42EA768 
 219      065677EE 
 220 01d5 988A14BE 		.ascii	"\230\212\024\276\200\210>`\365\210xR\350\325\322\207"
 220      80883E60 
 220      F5887852 
 220      E8D5D287 
 221 01e5 CF6A078A 		.ascii	"\317j\007\212\015\036\351H\237S\037#\217+o\350\203\233"
 221      0D1EE948 
 221      9F531F23 
 221      8F2B6FE8 
 221      839B
 222 01f7 F99BC399 		.ascii	"\371\233\303\231\261IQl \267c\213cP\321\305\314\022"
 222      B149516C 
 222      20B7638B 
 222      6350D1C5 
 222      CC12
 223 0209 49AA5784 		.ascii	"I\252W\204s+\323D\361\225i\304\324\352R\021\374kFN}"
ARM GAS  /tmp/ccCbDWNk.s 			page 17


 223      732BD344 
 223      F19569C4 
 223      D4EA5211 
 223      FC6B464E 
 224 021e 7D6D3F45 		.ascii	"}m?E9m!\267\002\232\2478\275\234\362\242a\231\215\010"
 224      396D21B7 
 224      029AA738 
 224      BD9CF2A2 
 224      61998D08 
 225 0232 F20A80CB 		.ascii	"\362\012\200\313\200\210X\032\330\323r\262\236\324\201"
 225      8088581A 
 225      D8D372B2 
 225      9ED481
 226 0241 59C9DF18 		.ascii	"Y\311\337\030\035Z\3355\236i\005\200\324g\007\236&R"
 226      1D5ADD35 
 226      9E690580 
 226      D467079E 
 226      2652
 227 0253 EB1BC464 		.ascii	"\353\033\304d\310\007\324\021=\032\302W\036k\"\363\021"
 227      C807D411 
 227      3D1AC257 
 227      1E6B22F3 
 227      11
 228 0264 FF7624BD 		.ascii	"\377v$\275\313\234\364\326\007\254\020\261\314\000\202"
 228      CB9CF4D6 
 228      07AC10B1 
 228      CC0082
 229 0273 ECCA22BD 		.ascii	"\354\312\"\275\277S%}\227\015\322\353SG\226\254\031"
 229      BF53257D 
 229      970DD2EB 
 229      534796AC 
 229      19
 230 0284 4749E7C9 		.ascii	"GI\347\311K\244\030\360^J\3435S\235\322\224/\245\203"
 230      4BA418F0 
 230      5E4AE335 
 230      539DD294 
 230      2FA583
 231 0297 1E5FF781 		.ascii	"\036_\367\201\222F^E\366\251cdef\244\252v\227\341\226"
 231      92465E45 
 231      F6A96364 
 231      6566A4AA 
 231      7697E196 
 232 02ab 277BC8F7 		.ascii	"'{\310\367\241\336K\306C\275\017\352\364\3052\327\323"
 232      A1DE4BC6 
 232      43BD0FEA 
 232      F4C532D7 
 232      D3
 233 02bc 5A35135D 		.ascii	"Z5\023]~\026\206\016<\215\"A\217\255\267\025S\326+1"
 233      7E16860E 
 233      3C8D2241 
 233      8FADB715 
 233      53D62B31 
 234 02d0 E50DF4D8 		.ascii	"\345\015\364\330:\227\211\353\333B\264\265\241\375u"
 234      3A9789EB 
 234      DB42B4B5 
 234      A1FD75
 235 02df 528FEA6B 		.ascii	"R\217\352kGT\213G\214j\365\262\275?A\232:\020\321r\227"
ARM GAS  /tmp/ccCbDWNk.s 			page 18


 235      47548B47 
 235      8C6AF5B2 
 235      BD3F419A 
 235      3A10D172 
 236 02f4 318AB80D 		.ascii	"1\212\270\015Q\304\255\367j\374\2544\2503\217f\276\341"
 236      51C4ADF7 
 236      6AFCAC34 
 236      A8338F66 
 236      BEE1
 237 0306 EE2CB3C6 		.ascii	"\356,\263\306eP\234\231\271x\254\024'\015\354\356?\305"
 237      65509C99 
 237      B978AC14 
 237      270DECEE 
 237      3FC5
 238 0318 AE9652F3 		.ascii	"\256\226R\3639\325\177\012\255d\3042\033p\254CF\377"
 238      39D57F0A 
 238      AD64C432 
 238      1B70AC43 
 238      46FF
 239 032a 693BD3F1 		.ascii	"i;\323\361O\253$i\214\374)\277\373l;\260\022m%o\000"
 239      4FAB2469 
 239      8CFC29BF 
 239      FB6C3BB0 
 239      126D256F 
 240 033f 63D5E1EF 		.ascii	"c\325\341\357\304\341\373q\370n\343\360\353\316u\374"
 240      C4E1FB71 
 240      F86EE3F0 
 240      EBCE75FC 
 241 034f 461EBEDB 		.ascii	"F\036\276\333\326\360\273\372Vd\017\317\223\237\335"
 241      D6F0BBFA 
 241      56640FCF 
 241      939FDD
 242 035e 96CB32DA 		.ascii	"\226\3132\332\316\274\177\307:\034\244\027\275te\201"
 242      CEBC7FC7 
 242      3A1CA417 
 242      BD746581 
 243 036e D134EE2F 		.ascii	"\3214\356/\326+\017\2365\035X\246\265@\245~DA\002\330"
 243      D62B0F9E 
 243      351D58A6 
 243      B540A57E 
 243      444102D8 
 244 0382 7CFF3F9E 		.ascii	"|\377?\236\177E\222\026\027\2524lt\214\261L'\210\275"
 244      7F459216 
 244      17AA346C 
 244      748CB14C 
 244      2788BD
 245 0395 7D187664 		.ascii	"}\030vdd\317\330AfiG\365\251}Zd\317;F\246\247\254K\213"
 245      64CFD841 
 245      666947F5 
 245      A97D5A64 
 245      CF3B46A6 
 246 03ad ECCF7690 		.ascii	"\354\317v\220\215\261\246\254[\213l\213cdz\312\216i"
 246      8DB1A6AC 
 246      5B8B6C8B 
 246      63647ACA 
 246      8E69
 247 03bf 91BD6207 		.ascii	"\221\275b\007\331Xk\312z\265\310\266;F\246\247\354\035"
ARM GAS  /tmp/ccCbDWNk.s 			page 19


 247      D9586BCA 
 247      7AB5C8B6 
 247      3B46A6A7 
 247      EC1D
 248 03d1 2DB2DD76 		.ascii	"-\262\335v\220\225\231P\226\276\254\026!GH\332\316Y"
 248      90959950 
 248      96BEAC16 
 248      214748DA 
 248      CE59
 249 03e3 E6B50235 		.ascii	"\346\265\0025 8\264i&\203#U\3404\200\351\370\206\331"
 249      2038B469 
 249      26832355 
 249      E03480E9 
 249      F886D9
 250 03f6 FBF406D2 		.ascii	"\373\364\006\322<O\352\230\244\316\240\177\261\2031"
 250      3C4FEA98 
 250      A4CEA07F 
 250      B18331
 251 0405 87C134BE 		.ascii	"\207\3014\276\255\231\216\0178F\246W\313Z\212L\027j"
 251      AD998E0F 
 251      3846A657 
 251      CB5A8A4C 
 251      176A
 252 0417 94E96860 		.ascii	"\224\351h`sj\354\252L\260\363\250\270\350rZ\216l\260"
 252      736AECAA 
 252      4CB0F3A8 
 252      B8E8725A 
 252      8E6CB0
 253 042a BA66D39D 		.ascii	"\272f\323\235\245\261c\315\373\362\344\012N\353W\211"
 253      A5B163CD 
 253      FBF2E40A 
 253      4EEB5789 
 254 043a 374D85DC 		.ascii	"7M\205\334V[\303\204\312\271\253\300l\241\216\010r\203"
 254      565BC384 
 254      CAB9ABC0 
 254      6CA18E08 
 254      7283
 255 044c 5A59C225 		.ascii	"ZY\302%\255%\364\330\021S\016W\350\262\022Sj\241\264"
 255      AD25F4D8 
 255      11530E57 
 255      E8B21253 
 255      6AA1B4
 256 045f 88D46DBD 		.ascii	"\210\324m\275#\347\342\020\242\363w^\300\350<\204\023"
 256      23E7E210 
 256      A2F3775E 
 256      C0E83C84 
 256      13
 257 0470 F78902D3 		.ascii	"\367\211\002\323\025\200-\\[\033:\325\345\304\015D6"
 257      15802D5C 
 257      5B1B3AD5 
 257      E5C40D44 
 257      36
 258 0481 387264AD 		.ascii	"8rd\255\253;\357\240\273\233aD\364q\326\234\3415,'\274"
 258      AB3BEFA0 
 258      BB9B6144 
 258      F471D69C 
 258      E1352C27 
ARM GAS  /tmp/ccCbDWNk.s 			page 20


 259 0496 FA09DFEB 		.ascii	"\372\011\337\353\3154\206\325K\257\305o\024\306J\363"
 259      CD3486D5 
 259      4BAFC56F 
 259      14C64AF3 
 260 04a6 9F6B353F 		.ascii	"\237k5?\344X\363:\007\201\005\310\247\354J)U\307iL="
 260      E458F33A 
 260      078105C8 
 260      A7EC4A29 
 260      55C7694C 
 261 04bb A75FC0D2 		.ascii	"\247_\300\322\361\332y\016\227i\363Y*W\251\320TA6\020"
 261      F1DA790E 
 261      9769F359 
 261      2A57A9D0 
 261      54413610 
 262 04cf 6D6D78F1 		.ascii	"mmx\361G\210\250\001\021-\0361\242\325\313\326\312\333"
 262      4788A801 
 262      112D1E31 
 262      A2D5CBD6 
 262      CADB
 263 04e1 CF2588A8 		.ascii	"\317%\210\250\251\320\250ib\3204\321k \355t\212\317"
 263      A9D0A869 
 263      62D034D1 
 263      6B20ED74 
 263      8ACF
 264 04f3 7D537D59 		.ascii	"}S}Y\246\245\320\240.\035;9f\206t\270\275\261\234\\"
 264      A6A5D0A0 
 264      2E1D3B39 
 264      668674B8 
 264      BDB19C5C 
 265 0507 A997564D 		.ascii	"\251\227VMr\240\257K\212\276\226\241t\326gI\207\212"
 265      72A0AF4B 
 265      8ABE96A1 
 265      74D66749 
 265      878A
 266 0519 DF191BCF 		.ascii	"\337\031\033\317;f\303\243g\243e\3309\033C\012\033+"
 266      3B66C3A3 
 266      67A365D8 
 266      391B430A 
 266      1B2B
 267 052b 908D2D5F 		.ascii	"\220\215-_\003\033;\034\2631F\303\006n]W\310\223\337"
 267      031B3B1C 
 267      B33146C3 
 267      066E5D57 
 267      C893DF
 268 053e B798E5B9 		.ascii	"\267\230\345\271\227\357\224\236\325\354\267tk\347T"
 268      97EF949E 
 268      D5ECB774 
 268      6BE754
 269 054d CF615226 		.ascii	"\317aR&\277\316\277a\277r\370ie\327+g\201\366\"\355"
 269      BFCEBF61 
 269      BF72F869 
 269      65D72B67 
 269      81F622ED 
 270 0561 1476240B 		.ascii	"\024v$\013Z)\325\330\211\323\254\214\354\177o\012Y}"
 270      5A29D5D8 
 270      89D3AC8C 
 270      EC7F6F0A 
ARM GAS  /tmp/ccCbDWNk.s 			page 21


 270      597D
 271 0573 6ADD3275 		.ascii	"j\3352uK~?\235\265\017\336$\272\275\235\306\351\310"
 271      4B7E3F9D 
 271      B50FDE24 
 271      BABD9DC6 
 271      E9C8
 272 0585 B05BD862 		.ascii	"\260[\330b\021\357\322\331\212\375\352$\262\221\245"
 272      11EFD2D9 
 272      8AFDEA24 
 272      B291A5
 273 0594 041DCD32 		.ascii	"\004\035\3152\226\227\210a\303@_h\272X\351p\003\253"
 273      96978861 
 273      C3405F68 
 273      BA58E970 
 273      03AB
 274 05a6 09BE676F 		.ascii	"\011\276goN\007`?\327\232\325\305\223\254\210\217nR"
 274      4E07603F 
 274      D79AD5C5 
 274      93AC888F 
 274      6E52
 275 05b8 72438A22 		.ascii	"rC\212\"\362m\356~\247\342*AF\256\342\260\177b\015{"
 275      F26DEE7E 
 275      A7E22A41 
 275      46AEE2B0 
 275      7F620D7B 
 276 05cc BBE62F06 		.ascii	"\273\346/\006\026*r\244\337\362\033i\377\240WZ^\"\347"
 276      162A72A4 
 276      DFF21B69 
 276      FFA0575A 
 276      5E22E7
 277 05df 88789222 		.ascii	"\210x\222\"\254\202\325l\216\316o\242\247\204\216I\016"
 277      AC82D56C 
 277      8ECE6FA2 
 277      A7848E49 
 277      0E
 278 05f0 B2A4DB94 		.ascii	"\262\244\333\224\214\306\313\030\0376\272\215*\177\326"
 278      8CC6CB18 
 278      1F36BA8D 
 278      2A7FD6
 279 05ff 380B3848 		.ascii	"8\0138H\012B\310s\023=3vwh\351\313\312\244^\320\232"
 279      0A42C873 
 279      133D3376 
 279      7768E9CB 
 279      CAA45ED0 
 280 0614 D48BEE9B 		.ascii	"\324\213\356\2332\0000\251\375\233d\223\312g\002\022"
 280      320030A9 
 280      FD9B6493 
 280      CA670212 
 281 0624 D1AE9F59 		.ascii	"\321\256\237Y\346U\034y\207\321\006\256_\357hP\322s"
 281      E6551C79 
 281      87D106AE 
 281      5FEF6850 
 281      D273
 282 0636 3B6CD9C0 		.ascii	";l\331\3005\023\033\3301B\033\000\203\376\340-\202\350"
 282      35131BD8 
 282      31421B00 
 282      83FEE02D 
ARM GAS  /tmp/ccCbDWNk.s 			page 22


 282      82E8
 283 0648 E4FDC0E9 		.ascii	"\344\375\300\3514\221\016\265\240\240\273!8\025\214"
 283      34910EB5 
 283      A0A0BB21 
 283      38158C
 284 0657 6C5DA9E3 		.ascii	"l]\251\343\2034T\267\2614\3679\230eZ\262d4\246\225\021"
 284      833454B7 
 284      B134F739 
 284      98655AB2 
 284      6434A695 
 285 066c 234F76B1 		.ascii	"#Ov\261t\203\260\233\245y\277=X\277\306j\262\177Vf\261"
 285      7483B09B 
 285      A579BF3D 
 285      58BFC66A 
 285      B27F5666 
 286 0681 2F631600 		.ascii	"/c\026\000a\024\243\335mZ\336a\266k\255\357\302MZ\337"
 286      6114A3DD 
 286      6D5ADE61 
 286      B66BADEF 
 286      C24D5ADF 
 287 0695 EEFEC32E 		.ascii	"\356\376\303.Lg9HD\276\250\270\355_\320m\257f\311\266"
 287      4C673948 
 287      44BEA8B8 
 287      ED5FD06D 
 287      AF66C9B6 
 288 06a9 DDE8B676 		.ascii	"\335\350\266v\362r\222g\204\214\244/\226i\360\330XZ"
 288      F2729267 
 288      848CA42F 
 288      9669F0D8 
 288      585A
 289 06bb 9799C85C 		.ascii	"\227\231\310\\\215\356-\275\312\352 or/}<p\260N\311"
 289      8DEE2DBD 
 289      CAEA206F 
 289      722F7D3C 
 289      70B04EC9 
 290 06cf B21F404B 		.ascii	"\262\037@K[\3541\317\262\347\310\022\256B\220CF7\336"
 290      5BEC31CF 
 290      B2E7C812 
 290      AE429043 
 290      4637DE
 291 06e2 D37250CD 		.ascii	"\323rP\315\262\037\262\341\306\365\251\377\321e\331"
 291      B21FB2E1 
 291      C6F5A9FF 
 291      D165D9
 292 06f1 550B3C94 		.ascii	"U\013<\224\333\002sJT\247\304C\032\007\351D\007\351"
 292      DB02734A 
 292      54A7C443 
 292      1A07E944 
 292      07E9
 293 0703 D23A05CB 		.ascii	"\322:\005\313<gG\372?\2642E\010C\335\362\001\207z`\361"
 293      3C6747FA 
 293      3FB43245 
 293      0843DDF2 
 293      01877A60 
 294 0718 B2119F59 		.ascii	"\262\021\237Y \322\341\323j\263>\325x\024\327K\262\225"
 294      20D2E1D3 
 294      6AB33ED5 
ARM GAS  /tmp/ccCbDWNk.s 			page 23


 294      7814D74B 
 294      B295
 295 072a EEB243DC 		.ascii	"\356\262C\334$kd\353\232U\341n\307\365\311\033v\360"
 295      246B64EB 
 295      9A55E16E 
 295      C7F5C91B 
 295      76F0
 296 073c 4DB562B6 		.ascii	"M\265b\266>\265\343\250\2728\224\323\371\007\034\343"
 296      3EB5E3A8 
 296      BA3894D3 
 296      F9071CE3 
 297 074c D3D3D7D3 		.ascii	"\323\323\327\323\254[\317\035\265\203\356\001\333\272"
 297      AC5BCF1D 
 297      B583EE01 
 297      DBBA
 298 075a CF9C5EF1 		.ascii	"\317\234^\361\344U\314\236l\303C\221\327\261>\210\365"
 298      E455CC9E 
 298      6CC34391 
 298      D7B13E88 
 298      F5
 299 076b 47587F8C 		.ascii	"GX\177\214\365E\254?\303z\036\006\320?b\335\214\365"
 299      F545AC3F 
 299      C37A1E06 
 299      D03F62DD 
 299      8CF5
 300 077d 2AACDFC2 		.ascii	"*\254\337\302\272\033\353cX\367b\375\016\326'\354\004"
 300      BA1BEB63 
 300      58F762FD 
 300      0ED627EC 
 300      04
 301 078e 5CC30A50 		.ascii	"\\\303\012P9\347\223Wf\330x\204\323\330\347q\203k\336"
 301      39E79357 
 301      66D87884 
 301      D3D8E771 
 301      836BDE
 302 07a1 C96C94A4 		.ascii	"\311l\224\244\345\003\203\347\337\341 \002\272\324\011"
 302      E50383E7 
 302      DFE12002 
 302      BAD409
 303 07b0 EB0C765B 		.ascii	"\353\014v[O\276k:\254\262\016E\330F\251E\230\256\256"
 303      4FBE6B3A 
 303      ACB20E45 
 303      D846A945 
 303      98AEAE
 304 07c3 03CFE601 		.ascii	"\003\317\346\001Sh\372\001\263\231\306\203-"
 304      5368FA01 
 304      B399C683 
 304      2D
 305 07d0 0B178C71 		.ascii	"\013\027\214q\251/\255\301\024>O\262\272\223j\371\234"
 305      A92FADC1 
 305      143E4FB2 
 305      BA936AF9 
 305      9C
 306 07e1 3A75FACD 		.ascii	":u\372\315?\230\237S\3134Z\011\355=\366vF/\035\226\371"
 306      3F989F53 
 306      CB345A09 
 306      ED3DF676 
ARM GAS  /tmp/ccCbDWNk.s 			page 24


 306      462F1D96 
 307 07f6 D0201A85 		.ascii	"\320 \032\205\316z\351\225\347$\257\272\364\346\311"
 307      CE7AE995 
 307      E724AFBA 
 307      F4E6C9
 308 0805 19362799 		.ascii	"\0316'\231\203\246d\266-y\033\326\003\322\215\341a\316"
 308      83A664B6 
 308      2D791BD6 
 308      03D28DE1 
 308      61CE
 309 0817 48A6C511 		.ascii	"H\246\305\021\002\305\365>\253;\273\225i\310\243\340"
 309      02C5F53E 
 309      AB3BBB95 
 309      69C8A3E0 
 310 0827 ABA60A96 		.ascii	"\253\246\012\226\256WLWM\3454KC\3429\0136\364\272]\247"
 310      AE574C57 
 310      4DE5344B 
 310      43E2390B 
 310      36F4BA5D 
 311 083c EA9627EF 		.ascii	"\352\226'\357\346\001\323\353\366\017\322\2021\004\231"
 311      E601D3EB 
 311      F60FD282 
 311      310499
 312 084b 6314289D 		.ascii	"c\024(\235/\235\317\226\322@#D\373\323\015\244i^k\207"
 312      2F9DCF96 
 312      D2402344 
 312      FBD30DA4 
 312      695E6B87 
 313 085f 74914E88 		.ascii	"t\221N\210\366\005u\321((\232\3431\010\246\316kT\257"
 313      F60575D1 
 313      28289AE3 
 313      3108A6CE 
 313      6B54AF
 314 0872 DCF5B219 		.ascii	"\334\365\262\031)\251\241S\177\034'\255wlWW\3154f d"
 314      29A9A153 
 314      7F1C27AD 
 314      776C5757 
 314      CD346620 
 315 0887 9905219F 		.ascii	"\231\005!\237\232\022\322\264ni\232\020\331\"X\246\305"
 315      9A12D2B4 
 315      6E699A10 
 315      D92258A6 
 315      C5
 316 0898 02C3E77A 		.ascii	"\002\303\347z\014\337c\326S\014=k\237$\200A\222\276"
 316      0CDF63D6 
 316      530C3D6B 
 316      9F248041 
 316      92BE
 317 08aa 820D82C9 		.ascii	"\202\015\202\311\3021\345V\271\230\313h\366\242W\327"
 317      C231E556 
 317      B998CB68 
 317      F6A257D7 
 318 08ba 937938F1 		.ascii	"\223y8\361~\201s\372s^\3239\335\032\021,\315\021\344"
 318      7E8173FA 
 318      735ED339 
 318      DD1A112C 
 318      CD11E4
ARM GAS  /tmp/ccCbDWNk.s 			page 25


 319 08cd CBEC39FD 		.ascii	"\313\3549\375\324BeN\377\322\326\322\274\251\337\362"
 319      D442654E 
 319      FFD2D6D2 
 319      BCA9DFF2 
 320 08dd D07F20BD 		.ascii	"\320\177 \275\350\275CC{_\337\273\012\355u\034\245}"
 320      E8BD4343 
 320      7B5FDFBB 
 320      0AED751C 
 320      A57D
 321 08ef 5F7EDAF5 		.ascii	"_~\332\365\210X\346m\004\241\007\234\006\332/,Ph\247"
 321      8858E66D 
 321      04A1079C 
 321      06DA2F2C 
 321      5068A7
 322 0902 DFF2D3BE 		.ascii	"\337\362\323\276\243O;\237\253\033\013\012;\262\215"
 322      A34F3B9F 
 322      AB1B0B0A 
 322      3BB28D
 323 0911 C54EF9C0 		.ascii	"\305N\371\300\346\015t\311\267\215\310\034m+$\365,O"
 323      E60D74C9 
 323      B78DC81C 
 323      6D2B24F5 
 323      2C4F
 324 0923 3E9B3DEF 		.ascii	">\233=\357\030Y\231\216\262\243+\365+\257\013v\360\345"
 324      1859998E 
 324      B2A32BF5 
 324      2BAF0B76 
 324      F0E5
 325 0935 3850510E 		.ascii	"8PQ\016\315dd\2378F\246'\356D\237\346t\346xZ\2679\220"
 325      CD64649F 
 325      3846A627 
 325      EE449FE6 
 325      74E6785A 
 326 094c 991D3B98 		.ascii	"\231\035;\230]Z#\341\311B\216\256\013\0328:{/\302z1"
 326      5D5A23E1 
 326      C9428EAE 
 326      0B1A383A 
 326      7B2FC27A 
 327 0961 D64BB0FE 		.ascii	"\326K\260\376=\326K9\335\212\361\335\264\227\230\232"
 327      3DD64B39 
 327      DD8AF1DD 
 327      B497989A 
 328 0971 623E9390 		.ascii	"b>\223\220R\253\255\335\303lO\010\256}\256\216,@\033"
 328      52ABADDD 
 328      C36C4F08 
 328      AE7DAE8E 
 328      2C401B
 329 0984 6E44F738 		.ascii	"nD\3678\227\337=\214\273\356/\021\2449\313=\372{U\367"
 329      97DF3D8C 
 329      BBEE2F11 
 329      A439CB3D 
 329      FA7B55F7 
 330 0998 68B6E11E 		.ascii	"h\266\341\036\365\251\223O\332K\374\264\246\307\377"
 330      F5A9934F 
 330      DA4BFCB4 
 330      A6C7FF
 331 09a7 B68691BE 		.ascii	"\266\206\221\276\367\324\277{V!#+\212\362\377\230\244"
ARM GAS  /tmp/ccCbDWNk.s 			page 26


 331      F7D4BF7B 
 331      5621232B 
 331      8AF2FF98 
 331      A4
 332 09b8 43C4329B 		.ascii	"C\3042\233\020\244%\233\221\375*#-\266\030Y\363\244"
 332      10A4259B 
 332      91FD2A23 
 332      2DB61859 
 332      F3A4
 333 09ca 6AFD2BB9 		.ascii	"j\375+\271\314\276\243%\267\215Y*\265>\265\266\027\015"
 333      CCBEA325 
 333      B78D592A 
 333      B53EB5B6 
 333      170D
 334 09dc 5646D6E6 		.ascii	"VF\326\346\030\231\336\372\267\366:\375\317\246\257"
 334      1899DEFA 
 334      B7F63AFD 
 334      CFA6AF
 335 09eb 6FDB5DB8 		.ascii	"o\333]\270\275]\317\321u\3356\203`G\270\275mK\013{$"
 335      BD5DCFD1 
 335      75DD3683 
 335      6047B8BD 
 335      6D4B0B7B 
 336 0a00 F18A6689 		.ascii	"\361\212f\211\016>a\222%\262\277Nx\2263L\317\367\033"
 336      0E3E6192 
 336      25B2BF4E 
 336      7896334C 
 336      CFF71B
 337 0a13 66E75C22 		.ascii	"f\347\\\"Yy\252N\311*>\303\3210\322n\020\212!\331K\307"
 337      5979AA4E 
 337      C92A3EC3 
 337      D130D26E 
 337      108A21D9 
 338 0a29 B2A2E34F 		.ascii	"\262\242\343O\\\261\205Ee}c\231\303\216\245\246\323"
 338      5CB18545 
 338      657D6399 
 338      C38EA5A6 
 338      D3
 339 0a3a 3E48EDD0 		.ascii	">H\355\320f5]+\357\213\354 4\213\314f\227\326yx\262"
 339      66355D2B 
 339      EF8BEC20 
 339      348BCC66 
 339      97D67978 
 340 0a4f 06E3DF5A 		.ascii	"\006\343\337Z\214s\353\260n\305z3\326/r6\3663\324\344"
 340      8C73EBB0 
 340      6EC57A33 
 340      D62F7236 
 340      F633D4E4 
 341 0a63 D3B86537 		.ascii	"\323\270e7j\036\261\033]\314v#'\310t\202L]\353U\267"
 341      6A1EB11B 
 341      5DCC7623 
 341      27C87482 
 341      4C5DEB55 
 342 0a78 ABD42B78 		.ascii	"\253\324+x\262\211\263\201/GVo\205<)\311.\326WD\034"
 342      B289B381 
 342      2F47566F 
 342      853C29C9 
ARM GAS  /tmp/ccCbDWNk.s 			page 27


 342      2ED65744 
 343 0a8d 222BCBA5 		.ascii	"\"+\313\245\224f\215R\236@\245<\211*\330\202\365\313"
 343      94668D52 
 343      9E40A53C 
 343      892AD882 
 343      F5CB
 344 0a9f 586FD54F 		.ascii	"Xo\325OD\003E\206\211H\037\364\315\346E\255|\244\324"
 344      44034586 
 344      89481FF4 
 344      CDE645AD 
 344      7CA4D4
 345 0ab2 CBFDC08F 		.ascii	"\313\375\300\217\375\244\321\0055i\264M\236\205\314"
 345      FDA4D105 
 345      3569B44D 
 345      9E85CC
 346 0ac1 8377AEA4 		.ascii	"\203w\256\244\321\247\010\2623{\221\366\225\032\274"
 346      D1A708B2 
 346      337B91F6 
 346      951ABC
 347 0ad0 77E60FDE 		.ascii	"w\346\017\336\363\347\245V?\365Lf\026\232\227\366\340"
 347      F3E7A556 
 347      3FF54C66 
 347      169A97F6 
 347      E0
 348 0ae1 CB10E3AC 		.ascii	"\313\020\343\254\254T\367\037\303\302b\225\016\207V"
 348      AC54F71F 
 348      C3C26295 
 348      0E8756
 349 0af0 6AAEBB9D 		.ascii	"j\256\273\235\032\335\355F\335\355\321k\252\261\330"
 349      1ADDED46 
 349      DDEDD16B 
 349      AAB1D8
 350 0aff A0A9BC49 		.ascii	"\240\251\274I&\275\242v\365\253\213R\371\207\336\025"
 350      26BDA276 
 350      F5AB8B52 
 350      F987DE15 
 351 0b0f 467CADBA 		.ascii	"F|\255\272\337w\225\246.1\304\350\020v;\321\374\360"
 351      DF7795A6 
 351      2E31C4E8 
 351      10763BD1 
 351      FCF0
 352 0b21 EE0FA6C8 		.ascii	"\356\017\246\310\377p\242\336S\305\016\365\216\323\217"
 352      FF70A2DE 
 352      53C50EF5 
 352      8ED38F
 353 0b30 41E7A94B 		.ascii	"A\347\251KB\231\3746\377T=4\210\271y\007\271\336A\345"
 353      4299FC36 
 353      FF543D34 
 353      88B97907 
 353      B9DE41E5 
 354 0b44 08B7033D 		.ascii	"\010\267\003=\365H\361\3272\031\036G4\355_\227\321\264"
 354      F548F1D7 
 354      32191E47 
 354      34ED5F97 
 354      D1B4
 355 0b56 6B8C663F 		.ascii	"k\214f?\032\315\233\006\367\266c4q\023\2431\037\357"
 355      1ACD9B06 
ARM GAS  /tmp/ccCbDWNk.s 			page 28


 355      F7B66334 
 355      7113A331 
 355      1FEF
 356 0b68 4B4D2674 		.ascii	"KM&t\0303\241\022\006\225eX\277\212u\033\326\257\353"
 356      1833A112 
 356      06956558 
 356      BF8A751B 
 356      D6AFEB
 357 0b7b E9389316 		.ascii	"\3518\223\026\237\351\266\021\263\254\\z\037k\230T\267"
 357      9FE9B611 
 357      B3AC5C7A 
 357      1F6B9854 
 357      B7
 358 0b8c 5B24F328 		.ascii	"[$\363(\324\341\314\304a\200\372\302\202i\012\325\231"
 358      D4E1CCC4 
 358      6180FAC2 
 358      82690AD5 
 358      99
 359 0b9d 81BA8569 		.ascii	"\201\272\205iD\313{`\325(\371G&\005f\214\012\303*0]"
 359      44CB7B60 
 359      D528F947 
 359      2605668C 
 359      0AC32A30 
 360 0bb2 DC2DD8D2 		.ascii	"\334-\330\322\235\362a\017\253Q\216p\231\237\245J\274"
 360      9DF2610F 
 360      AB518E70 
 360      999FA54A 
 360      BC
 361 0bc3 9906D10F 		.ascii	"\231\006\321\017]f\030y\252\332\317\255\340\351v<\362"
 361      5D661879 
 361      AADACFAD 
 361      E0E9763C 
 361      F2
 362 0bd4 518B910B 		.ascii	"Q\213\221\013\315EE\023\030V\250\216Y\012\370b\016\250"
 362      CD454513 
 362      1856A88E 
 362      590AF862 
 362      0EA8
 363 0be6 9E0C144D 		.ascii	"\236\014\024Mi\244.\016\254i\273\364\333?\323\237R\245"
 363      69A42E0E 
 363      AC69BBF4 
 363      DB3FD39F 
 363      52A5
 364 0bf8 AF861FAF 		.ascii	"\257\206\037\257\233O\354\257\337\372\270\354\264\335"
 364      9B4FECAF 
 364      DFFAB8EC 
 364      B4DD
 365 0c06 A212D3B4 		.ascii	"\242\022\323\264\035\\\317I\\:\003\325\313\0312P\357"
 365      1D5CCF49 
 365      5C3A03D5 
 365      CB193250 
 365      EF
 366 0c17 7059D916 		.ascii	"pY\331\026 m\355\271\256\247H\023\254\2250\003\325\352"
 366      206DEDB9 
 366      AEA74813 
 366      AC953003 
 366      D5EA
ARM GAS  /tmp/ccCbDWNk.s 			page 29


 367 0c29 91876499 		.ascii	"\221\207d\231\345\266\0069a\034\244\337t\220\241\377"
 367      E5B60639 
 367      611CA4DF 
 367      7490A1FF 
 368 0c39 BB347D28 		.ascii	"\2734}(\303\377x\373\374\2372\256_\333IV\236\253KG*"
 368      C3FF78FB 
 368      FC9F32AE 
 368      5FDB4956 
 368      9EAB4B47 
 369 0c4e F6649953 		.ascii	"\366d\231S%\212\245)\351\300#\373K\032\211\372\353\373"
 369      258AA529 
 369      E9C023FB 
 369      4B1A89FA 
 369      EBFB
 370 0c60 47087192 		.ascii	"G\010q\222\263\312\354\265\3532{W\352f\216Ms|\322\310"
 370      B3CAECB5 
 370      EB327B57 
 370      EA668E4D 
 370      737CD2C8 
 371 0c74 F18029C7 		.ascii	"\361\200)\307{\372\337\03372\215\2373r\254K\201*.o\220"
 371      7BFADF1B 
 371      37328D9F 
 371      3372AC4B 
 371      812A2E6F 
 372 0c89 C06583B2 		.ascii	"\300e\203\262\024\236w\010\206\024\350YK\2163)\320\345"
 372      149E7708 
 372      8614E859 
 372      4B8E3329 
 372      D0E5
 373 0c9b 52932CAA 		.ascii	"R\223,\252\303\270\346\037F\324\326\200\012A\212\250"
 373      C3B8E61F 
 373      46D4D680 
 373      0A418AA8 
 374 0cab 8E4B1A51 		.ascii	"\216K\032Q\2355\212\352CSQ=\335v$H\317\"\245\341\341"
 374      9D358AEA 
 374      4353513D 
 374      DD762448 
 374      CF22A5E1 
 375 0cc0 C7C7ABE6 		.ascii	"\307\307\253\3467\257\324\216\371}b\034\341\242\225"
 375      37AFD48E 
 375      F97D621C 
 375      E1A295
 376 0ccf 8DAF31B3 		.ascii	"\215\2571\263\361e\266\006\271l\034\344\012\227\225"
 376      F165B606 
 376      B96C1CE4 
 376      0A9795
 377 0cde 74ECEA1A 		.ascii	"t\354\352\032h\377x\025Y4 5b\322Q\033\3354\213\252\231"
 377      68FF7815 
 377      59342035 
 377      62D2511B 
 377      DD348BAA 
 378 0cf3 AAEC8A10 		.ascii	"\252\354\212\020\322\"\006\032z\361\3443\3071\360s\213"
 378      D222061A 
 378      7AF1E433 
 378      C731F073 
 378      8B
 379 0d04 18A89D52 		.ascii	"\030\250\235R3\275h\202\265\324p\216a \202e6\225\022"
ARM GAS  /tmp/ccCbDWNk.s 			page 30


 379      33BD6882 
 379      B5D4708E 
 379      61208265 
 379      369512
 380 0d17 050CD6A0 		.ascii	"\005\014\326\240\252d{\316\017i\315\374A\235\231{\230"
 380      AA647BCE 
 380      0F69CDFC 
 380      419D997B 
 380      98
 381 0d28 06FC656C 		.ascii	"\006\374el\201TG\036K\317\261\026\177\360\302\374\312"
 381      8154471E 
 381      4BCFB116 
 381      7FF0C2FC 
 381      CA
 382 0d39 79609863 		.ascii	"y`\230c\245\372\177\3654\344\322\016*Sr[m\021\353u\323"
 382      A5FA7FF5 
 382      34E4D20E 
 382      2A53725B 
 382      6D11EB75 
 383 0d4e 0D337732 		.ascii	"\0153w2\270\317\211RS\367y\315\350>\327s\273O\372\370"
 383      B8CF8952 
 383      53F779CD 
 383      E83ED773 
 383      BB4FFAF8 
 384 0d62 E4F85FA9 		.ascii	"\344\370_\251\027\310$\352\240t\274+\004\326\271\314"
 384      17C824EA 
 384      A074BC2B 
 384      04D6B9CC 
 385 0d72 E3C747E3 		.ascii	"\343\307G\343vY\307\217\\\031\371\005.\003\307\207\271"
 385      7659C78F 
 385      5C19F905 
 385      2E03C787 
 385      B9
 386 0d83 2C8E3F34 		.ascii	",\216?4\347x\210r,w\277\200[\275\371.;~_/]yo\346\364"
 386      E7788872 
 386      2C77BF80 
 386      5BBDF92E 
 386      3B7E5F2F 
 387 0d9c CC819115 		.ascii	"\314\201\221\025\224B`\203\236c\303\314\372~\216\231"
 387      94426083 
 387      9E63C3CC 
 387      FA7E8E99 
 388 0dac 7589CB38 		.ascii	"u\211\3138\263\366\234\177\353\037\264qV=0\270a\316"
 388      B3F69C7F 
 388      EB1FB471 
 388      563D30B8 
 388      61CE
 389 0dbe E02EA34A 		.ascii	"\340.\243J\177o\311\240\366P\350\244\361P\310\032L\177"
 389      7F6FC9A0 
 389      F650E8A4 
 389      F150C81A 
 389      4C7F
 390 0dd0 28A48B87 		.ascii	"(\244\213\207\024Hg\320K]\246\201\344\205\325y\003I"
 390      144867D0 
 390      4B5DA681 
 390      E485D579 
 390      0349
ARM GAS  /tmp/ccCbDWNk.s 			page 31


 391 0de2 501DB414 		.ascii	"P\035\264\024!-\002\211\241\027O\226\273\234\006\222"
 391      212D0289 
 391      A1174F96 
 391      BB9C0692 
 392 0df2 66977920 		.ascii	"f\227y )\3211\242\366\202\346\020g843\020\3012KFi\003"
 392      29D131A2 
 392      F682E610 
 392      67383433 
 392      10C1324B 
 393 0e09 09F39D89 		.ascii	"\011\363\235\211\023}\323\202\241\331\241\177/\367\305"
 393      137DD382 
 393      A1D9A17F 
 393      2FF7C5
 394 0e18 92BE84E8 		.ascii	"\222\276\204\350K&\002\276@0\222\254\232\030`~\252\377"
 394      4B2602BE 
 394      403092AC 
 394      9A18607E 
 394      AAFF
 395 0e2a 1A884522 		.ascii	"\032\210E\"\261\250/\036K\210I\337\203\263\036\236\366"
 395      B1A82F1E 
 395      4B8849DF 
 395      83B31E9E 
 395      F6
 396 0e3b F05CFA2E 		.ascii	"\360\\\372.\036\012\013\211\244\357\241i\323\000P\254"
 396      1E0A0B89 
 396      A4EFA169 
 396      D30050AC 
 397 0e4b 8D0BC989 		.ascii	"\215\013\311\211A\246\0000\370\305\302\207~\371H\331"
 397      41A60030 
 397      F8C5C287 
 397      7EF948D9 
 398 0e5b 3426E98B 		.ascii	"4&\351\213Vb\371\261/\030\213\010\276\204\220\024\370"
 398      5662F9B1 
 398      2F188B08 
 398      BE849014 
 398      F8
 399 0e6c 4420E80B 		.ascii	"D \350\013\362\211\212\032>!\370\370Dd\262\257*\020"
 399      F2898A1A 
 399      3E21F8F8 
 399      4464B2AF 
 399      2A10
 400 0e7e 98008D09 		.ascii	"\230\000\215\011Bd\266PQ!T\244_DcQa\202\300\317\016"
 400      4264B650 
 400      512154A4 
 400      5F446351 
 400      6182C0CF 
 401 0e93 4DB8D73F 		.ascii	"M\270\327?u\302\344Iw\337\373\330d\237\356\203/\024"
 401      75C2E449 
 401      77DFFBD8 
 401      649FEE83 
 401      2F14
 402 0ea5 0D84AB2B 		.ascii	"\015\204\253+\004_R\254\010EE \300\015\267{&\373\305"
 402      045F52AC 
 402      08454520 
 402      C00DB77B 
 402      26FBC5
 403 0eb8 79E46F37 		.ascii	"y\344o7x\204\017\004CQ\301\347\257\020*\371\352\260"
ARM GAS  /tmp/ccCbDWNk.s 			page 32


 403      78840F04 
 403      4351C1E7 
 403      AF102AF9 
 403      EAB0
 404 0eca E857A5E1 		.ascii	"\350W\245\341\365\373\025r~\220%p\0258\020L\326&U\000"
 404      F5FB1572 
 404      7E902570 
 404      1538104C 
 404      D6265500 
 405 0ede 8F184C08 		.ascii	"\217\030L\010|\205_\364\006\202~\271\375\275\\\220\201"
 405      7C855FF4 
 405      06827EB9 
 405      FDBD5C90 
 405      81
 406 0eef 6005408D 		.ascii	"`\005@\215\226{&\375\217U\013\325\202_\034\223\006V"
 406      967B26FD 
 406      8F550BD5 
 406      825F1C93 
 406      0656
 407 0f01 5EB9A2C2 		.ascii	"^\271\242\302\\\321\025O\010s\012\360\331-\306\023\241"
 407      5CD1154F 
 407      08730AF0 
 407      D92DC613 
 407      A1
 408 0f12 985FF454 		.ascii	"\230_\364T+\344\025\371\375j\323E?\225Pe\373\003\261"
 408      2BE415F9 
 408      FD6AD345 
 408      3F955065 
 408      FB03B1
 409 0f25 A808803F 		.ascii	"\250\010\200?\262a\016\301@,!\000)\305\010\010\250\002"
 409      B2610EC1 
 409      402C2100 
 409      29C50808 
 409      A802
 410 0f37 E25C9F5D 		.ascii	"\342\\\237]8\377\234)\021\312|B\250\002\001\373E6q/"
 410      38FF9C29 
 410      11CA7C42 
 410      A80201FB 
 410      4536712F 
 411 0f4b 9BF8319B 		.ascii	"\233\3701\233\270\217MLa\023S\331\304O\270\304\335\223"
 411      B88F4D4C 
 411      611353D9 
 411      C44FB8C4 
 411      DD93
 412 0f5d A0DCCD86 		.ascii	"\240\334\315\206\023l2\316\001\362\202\250P#$\012b\341"
 412      136C32CE 
 412      01F282A8 
 412      5023240A 
 412      62E1
 413 0f6f 0A21E10A 		.ascii	"\012!\341\012\200N]Q>\"\024%\305G\371p\250*\252\360"
 413      804E5D51 
 413      3E221425 
 413      C547F970 
 413      A82AAAF0 
 414 0f83 76DFBD69 		.ascii	"v\337\275i\336h\263\260\206\237\315'\005\217\230\024"
 414      DE68B3B0 
 414      869FCD27 
ARM GAS  /tmp/ccCbDWNk.s 			page 33


 414      058F9814 
 415 0f93 791104E5 		.ascii	"y\021\004\345\246\037\246\202\264\345.\320*"
 415      A61FA682 
 415      B4E52ED0 
 415      2A
 416 0fa0 C02F6E31 		.ascii	"\300/n1\022\253\200\357\005\225a\276*\351\026\023Be"
 416      12AB80EF 
 416      059561BE 
 416      2AE91613 
 416      4265
 417 0fb2 1224436F 		.ascii	"\022$Co\205\211\212Z\260q\21707$\006\240Sa\215\030\233"
 417      85898A5A 
 417      B0718F30 
 417      372406A0 
 417      53618D18 
 418 0fc7 FD9FF15B 		.ascii	"\375\237\361[\025\305A\027!!D\003\024\270F\024\023q"
 418      15C54117 
 418      21214403 
 418      14B84614 
 418      1371
 419 0fd9 7752888A 		.ascii	"wR\210\212\000P\002:I\012\021>\036\004\206\307\347\322"
 419      0050023A 
 419      490A113E 
 419      1E0486C7 
 419      E7D2
 420 0feb A9406551 		.ascii	"\251@eQ\020\210\202\031qP\303\000\360*\356\001\370H"
 420      10888219 
 420      7150C300 
 420      F02AEE01 
 420      F848
 421 0ffd 35A823   		.ascii	"5\250#"
 422 1000 176C449C 		.ascii	"\027lD\234Kac5Q!\341\306\336\224g\021^\307\213\2059"
 422      4B616335 
 422      5121E1C6 
 422      DE946711 
 422      5EC78B85 
 423 1015 94103EF9 		.ascii	"\224\020>\371(\274\022jh\203T\217R\255$\034J\302p\243"
 423      28BC126A 
 423      6883548F 
 423      52AD241C 
 423      4AC270A3 
 424 1029 357643DF 		.ascii	"5vC\337\270k\370\220\030\212Vy\200~\264\033\217\020"
 424      B86BF890 
 424      188A5679 
 424      807EB41B 
 424      8F10
 425 103b 17A2E068 		.ascii	"\027\242\340hUn@I{\200\312\37005\230\202H<\026\013\203"
 425      556E4049 
 425      7B80CAF8 
 425      30359882 
 425      483C160B 
 426 1050 D53E9CAC 		.ascii	"\325>\234\254*\207>\254\030\347\000J~\361+@S\202\255"
 426      2A873EAC 
 426      18E7004A 
 426      7EF12B40 
 426      5382AD
 427 1063 59425800 		.ascii	"YBX\000\005\224\006\202\345\201\340C\261\362\260 \304"
ARM GAS  /tmp/ccCbDWNk.s 			page 34


 427      05940682 
 427      E581E043 
 427      B1F2B020 
 427      C4
 428 1074 CB8BF169 		.ascii	"\313\213\361i\026\014[;\243\004\333\277\342\037\025"
 428      160C5B3B 
 428      A304DBBF 
 428      E21F15
 429 1083 AAF1839F 		.ascii	"\252\361\203\237:\207\020\221\035Bn\227P\002k\025\222"
 429      3A871091 
 429      1D426E97 
 429      50026B15 
 429      92
 430 1094 01933FF3 		.ascii	"\001\223?\363\354\016T'@\372bA\202>\3356'\224\020\253"
 430      EC0E5427 
 430      40FA6241 
 430      823EDD36 
 430      279410AB 
 431 10a8 F9B05F0C 		.ascii	"\371\260_\014E R)\020\267\003\204\311\207\321\272w\262"
 431      45205229 
 431      10B70384 
 431      C987D1BA 
 431      77B2
 432 10ba 0FE95E79 		.ascii	"\017\351^y\351\350\320\000\305V\010a\221\367\314\021"
 432      E9E8D000 
 432      C5560861 
 432      91F7CC11 
 433 10ca 2BABA301 		.ascii	"+\253\243\0010\013z\343\342|\302\023\346\223\"\355R"
 433      300B7AE3 
 433      E27CC213 
 433      E69322ED 
 433      52
 434 10db 3847A428 		.ascii	"8G\244(G)\264W\010\263\253\253d\351j\337x\343|4\024"
 434      4729B457 
 434      08B3ABAB 
 434      64E96ADF 
 434      78E37C34 
 435 10f0 F08394B8 		.ascii	"\360\203\224\270\212\331UE\021\036,\020\205_\226C\303"
 435      8AD95545 
 435      111E2C10 
 435      855F9643 
 435      C3
 436 1101 22358E31 		.ascii	"\"5\2161b\304\037\0003\237\235\340\305P\014l\335\235"
 436      62C41F00 
 436      339F9DE0 
 436      C5500C6C 
 436      DD9D
 437 1113 10D15E0A 		.ascii	"\020\321^\012c\225\225IAd\305\010\033\010\3464\262Z"
 437      63959549 
 437      4164C508 
 437      1B08E634 
 437      B25A
 438 1125 0C4F20EC 		.ascii	"\014O \354\332\344/b\201G\275\350\266ah\335c\352\264"
 438      DAE42F62 
 438      8147BDE8 
 438      B66168DD 
 438      63EAB4
ARM GAS  /tmp/ccCbDWNk.s 			page 35


 439 1138 10057CD3 		.ascii	"\020\005|\323\036.\237Q\236\301\021I\206\222~\010\226"
 439      1E2E9F51 
 439      9EC11149 
 439      86927E08 
 439      96
 440 1149 80A7D40F 		.ascii	"\200\247\324\017\246-\372\177\376`\371\277\315\2345"
 440      A62DFA7F 
 440      FE60F9BF 
 440      CD9C35
 441 1158 A3940FD7 		.ascii	"\243\224\017\327\360\265I\010\002a\010\212\005s\370"
 441      F0B54908 
 441      0261088A 
 441      0573F8
 442 1167 70B55022 		.ascii	"p\265P\"G\246P4)$DN|,^\214C?\022\245C\3121\243\032\333"
 442      47A65034 
 442      2924444E 
 442      7C2C5E8C 
 442      433F12A5 
 443 1181 1EBF1FA5 		.ascii	"\036\277\037\245\352/U\033\023\357\273g\312\224\234"
 443      EA2F551B 
 443      13EFBB67 
 443      CA949C
 444 1190 460F7316 		.ascii	"F\017s\026\030\275\377\347`\200\243\321\312f$g\312f"
 444      18BDFFE7 
 444      6080A3D1 
 444      CA662467 
 444      CA66
 445 11a2 3AE31679 		.ascii	":\343\026y\334\312Pe\014\314$\022\233CM/c\207\345\332"
 445      DCCA5065 
 445      0CCC2412 
 445      9B434D2F 
 445      6387E5DA 
 446 11b6 51A6DEF7 		.ascii	"Q\246\336\367\377H\\\271\243"
 446      FF485CB9 
 446      A3
 447              		.text
 448              		.section	.gnu.lto_.symtab.571d765b2782f2f,"",%progbits
 449 0000 63684D73 		.ascii	"chMsgSend\000\000\000\000\000\000\000\000\000\000\000"
 449      6753656E 
 449      64000000 
 449      00000000 
 449      00000000 
 450 0014 00A10000 		.ascii	"\000\241\000\000\000chMsgWait\000\000\000\000\000\000"
 450      0063684D 
 450      73675761 
 450      69740000 
 450      00000000 
 451 0028 00000000 		.ascii	"\000\000\000\000\000\000c\001\000\000chMsgRelease\000"
 451      00006301 
 451      00006368 
 451      4D736752 
 451      656C6561 
 452 003f 00000000 		.ascii	"\000\000\000\000\000\000\000\000\000\000\000g\001\000"
 452      00000000 
 452      00000067 
 452      0100
 453 004d 00636800 		.ascii	"\000ch\000\000\002\000\000\000\000\000\000\000\000\000"
ARM GAS  /tmp/ccCbDWNk.s 			page 36


 453      00020000 
 453      00000000 
 453      000000
 454 005c 79010000 		.ascii	"y\001\000\000chSchGoSleepS\000\000\002\000\000\000\000"
 454      63685363 
 454      68476F53 
 454      6C656570 
 454      53000002 
 455 0074 00000000 		.ascii	"\000\000\000\000\000o\001\000\000chSchReadyI\000\000"
 455      006F0100 
 455      00636853 
 455      63685265 
 455      61647949 
 456 008a 02000000 		.ascii	"\002\000\000\000\000\000\000\000\000\000s\001\000\000"
 456      00000000 
 456      00007301 
 456      0000
 457 0098 63685363 		.ascii	"chSchWakeupS\000\000\002\000\000\000\000\000\000\000"
 457      6857616B 
 457      65757053 
 457      00000200 
 457      00000000 
 458 00ae 00007701 		.ascii	"\000\000w\001\000\000"
 458      0000
 459              		.text
 460              		.section	.gnu.lto_.opts,"",%progbits
 461 0000 272D6D63 		.ascii	"'-mcpu=cortex-m4' '-mno-thumb-interwork' '-mthumb' "
 461      70753D63 
 461      6F727465 
 461      782D6D34 
 461      2720272D 
 462 0033 272D6767 		.ascii	"'-ggdb' '-O2' '-fomit-frame-pointer' '-falign-funct"
 462      64622720 
 462      272D4F32 
 462      2720272D 
 462      666F6D69 
 463 0066 696F6E73 		.ascii	"ions=16' '-ffunction-sections' '-fdata-sections' '-"
 463      3D313627 
 463      20272D66 
 463      66756E63 
 463      74696F6E 
 464 0099 666E6F2D 		.ascii	"fno-common' '-flto'\000"
 464      636F6D6D 
 464      6F6E2720 
 464      272D666C 
 464      746F2700 
 465              		.text
 466              		.cfi_sections	.debug_frame
 467              		.section	.text.chMsgSend,"ax",%progbits
 468              		.align	2
 469              		.p2align 4,,15
 470              		.global	chMsgSend
 471              		.thumb
 472              		.thumb_func
 473              		.type	chMsgSend, %function
 474              	chMsgSend:
 475              	.LFB239:
ARM GAS  /tmp/ccCbDWNk.s 			page 37


 476              		.file 1 "../ChibiOS/os/rt/src/chmsg.c"
 477              		.loc 1 87 0
 478              		.cfi_startproc
 479              		@ args = 0, pretend = 0, frame = 0
 480              		@ frame_needed = 0, uses_anonymous_args = 0
 481              	.LVL0:
 482 0000 38B5     		push	{r3, r4, r5, lr}
 483              		.cfi_def_cfa_offset 16
 484              		.cfi_offset 3, -16
 485              		.cfi_offset 4, -12
 486              		.cfi_offset 5, -8
 487              		.cfi_offset 14, -4
 488              		.loc 1 88 0
 489 0002 0E4B     		ldr	r3, .L5
 490              	.LBB52:
 491              	.LBB53:
 492              	.LBB54:
 493              	.LBB55:
 494              		.file 2 "../ChibiOS/os/common/ext/CMSIS/include/cmsis_gcc.h"
 495              		.loc 2 264 0
 496 0004 2022     		movs	r2, #32
 497              	.LBE55:
 498              	.LBE54:
 499              	.LBE53:
 500              	.LBE52:
 501              		.loc 1 88 0
 502 0006 9C69     		ldr	r4, [r3, #24]
 503              	.LVL1:
 504              	.LBB59:
 505              	.LBB58:
 506              	.LBB57:
 507              	.LBB56:
 508              		.loc 2 264 0
 509              	@ 264 "../ChibiOS/os/common/ext/CMSIS/include/cmsis_gcc.h" 1
 510 0008 82F31188 		MSR basepri, r2
 511              	@ 0 "" 2
 512              		.thumb
 513              	.LBE56:
 514              	.LBE57:
 515              	.LBE58:
 516              	.LBE59:
 517              		.loc 1 93 0
 518 000c 6162     		str	r1, [r4, #36]
 519              	.LVL2:
 520              		.loc 1 95 0
 521 000e 90F82010 		ldrb	r1, [r0, #32]	@ zero_extendqisi2
 522              	.LVL3:
 523              	.LBB60:
 524              	.LBB61:
 525              		.file 3 "../ChibiOS/os/rt/include/chschd.h"
 526              		.loc 3 612 0
 527 0012 026B     		ldr	r2, [r0, #48]
 528 0014 6260     		str	r2, [r4, #4]
 529              	.LBE61:
 530              	.LBE60:
 531              		.loc 1 94 0
 532 0016 00F12C05 		add	r5, r0, #44
ARM GAS  /tmp/ccCbDWNk.s 			page 38


 533              	.LVL4:
 534              		.loc 1 95 0
 535 001a 0E29     		cmp	r1, #14
 536              	.LBB63:
 537              	.LBB62:
 538              		.loc 3 611 0
 539 001c 2560     		str	r5, [r4]
 540              		.loc 3 613 0
 541 001e 1460     		str	r4, [r2]
 542              		.loc 3 614 0
 543 0020 0463     		str	r4, [r0, #48]
 544              	.LVL5:
 545              	.LBE62:
 546              	.LBE63:
 547              		.loc 1 95 0
 548 0022 07D0     		beq	.L4
 549              	.LVL6:
 550              	.L2:
 551              		.loc 1 98 0
 552 0024 0C20     		movs	r0, #12
 553 0026 FFF7FEFF 		bl	chSchGoSleepS
 554              	.LVL7:
 555              		.loc 1 99 0
 556 002a 606A     		ldr	r0, [r4, #36]
 557              	.LVL8:
 558              	.LBB64:
 559              	.LBB65:
 560              	.LBB66:
 561              	.LBB67:
 562              	.LBB68:
 563              		.loc 2 264 0
 564 002c 0023     		movs	r3, #0
 565              	@ 264 "../ChibiOS/os/common/ext/CMSIS/include/cmsis_gcc.h" 1
 566 002e 83F31188 		MSR basepri, r3
 567              	@ 0 "" 2
 568              		.thumb
 569              	.LBE68:
 570              	.LBE67:
 571              	.LBE66:
 572              	.LBE65:
 573              	.LBE64:
 574              		.loc 1 103 0
 575 0032 38BD     		pop	{r3, r4, r5, pc}
 576              	.LVL9:
 577              	.L4:
 578              		.loc 1 96 0
 579 0034 FFF7FEFF 		bl	chSchReadyI
 580              	.LVL10:
 581 0038 F4E7     		b	.L2
 582              	.L6:
 583 003a 00BF     		.align	2
 584              	.L5:
 585 003c 00000000 		.word	ch
 586              		.cfi_endproc
 587              	.LFE239:
 588              		.size	chMsgSend, .-chMsgSend
 589              		.section	.text.chMsgWait,"ax",%progbits
ARM GAS  /tmp/ccCbDWNk.s 			page 39


 590              		.align	2
 591              		.p2align 4,,15
 592              		.global	chMsgWait
 593              		.thumb
 594              		.thumb_func
 595              		.type	chMsgWait, %function
 596              	chMsgWait:
 597              	.LFB240:
 598              		.loc 1 119 0
 599              		.cfi_startproc
 600              		@ args = 0, pretend = 0, frame = 0
 601              		@ frame_needed = 0, uses_anonymous_args = 0
 602              	.LVL11:
 603 0000 10B5     		push	{r4, lr}
 604              		.cfi_def_cfa_offset 8
 605              		.cfi_offset 4, -8
 606              		.cfi_offset 14, -4
 607              	.LBB69:
 608              	.LBB70:
 609              	.LBB71:
 610              	.LBB72:
 611              		.loc 2 264 0
 612 0002 2023     		movs	r3, #32
 613              	@ 264 "../ChibiOS/os/common/ext/CMSIS/include/cmsis_gcc.h" 1
 614 0004 83F31188 		MSR basepri, r3
 615              	@ 0 "" 2
 616              		.thumb
 617              	.LBE72:
 618              	.LBE71:
 619              	.LBE70:
 620              	.LBE69:
 621              		.loc 1 123 0
 622 0008 0C4C     		ldr	r4, .L10
 623 000a A269     		ldr	r2, [r4, #24]
 624              	.LVL12:
 625              	.LBB73:
 626              	.LBB74:
 627              		.file 4 "../ChibiOS/os/rt/include/chmsg.h"
 628              		.loc 4 83 0
 629 000c 1346     		mov	r3, r2
 630 000e 53F82C0F 		ldr	r0, [r3, #44]!
 631              	.LBE74:
 632              	.LBE73:
 633              		.loc 1 123 0
 634 0012 9842     		cmp	r0, r3
 635 0014 09D0     		beq	.L9
 636              	.LVL13:
 637              	.L8:
 638              	.LBB75:
 639              	.LBB76:
 640              		.loc 3 620 0
 641 0016 0168     		ldr	r1, [r0]
 642 0018 D162     		str	r1, [r2, #44]
 643              	.LBE76:
 644              	.LBE75:
 645              		.loc 1 127 0
 646 001a 0D22     		movs	r2, #13
ARM GAS  /tmp/ccCbDWNk.s 			page 40


 647              	.LBB78:
 648              	.LBB77:
 649              		.loc 3 621 0
 650 001c 4B60     		str	r3, [r1, #4]
 651              	.LBE77:
 652              	.LBE78:
 653              	.LBB79:
 654              	.LBB80:
 655              	.LBB81:
 656              	.LBB82:
 657              	.LBB83:
 658              		.loc 2 264 0
 659 001e 0023     		movs	r3, #0
 660              	.LVL14:
 661              	.LBE83:
 662              	.LBE82:
 663              	.LBE81:
 664              	.LBE80:
 665              	.LBE79:
 666              		.loc 1 127 0
 667 0020 80F82020 		strb	r2, [r0, #32]
 668              	.LVL15:
 669              	.LBB88:
 670              	.LBB87:
 671              	.LBB86:
 672              	.LBB85:
 673              	.LBB84:
 674              		.loc 2 264 0
 675              	@ 264 "../ChibiOS/os/common/ext/CMSIS/include/cmsis_gcc.h" 1
 676 0024 83F31188 		MSR basepri, r3
 677              	@ 0 "" 2
 678              		.thumb
 679              	.LBE84:
 680              	.LBE85:
 681              	.LBE86:
 682              	.LBE87:
 683              	.LBE88:
 684              		.loc 1 131 0
 685 0028 10BD     		pop	{r4, pc}
 686              	.LVL16:
 687              	.L9:
 688              		.loc 1 124 0
 689 002a 0E20     		movs	r0, #14
 690 002c FFF7FEFF 		bl	chSchGoSleepS
 691              	.LVL17:
 692 0030 A269     		ldr	r2, [r4, #24]
 693 0032 D06A     		ldr	r0, [r2, #44]
 694 0034 02F12C03 		add	r3, r2, #44
 695 0038 EDE7     		b	.L8
 696              	.L11:
 697 003a 00BF     		.align	2
 698              	.L10:
 699 003c 00000000 		.word	ch
 700              		.cfi_endproc
 701              	.LFE240:
 702              		.size	chMsgWait, .-chMsgWait
 703              		.section	.text.chMsgRelease,"ax",%progbits
ARM GAS  /tmp/ccCbDWNk.s 			page 41


 704              		.align	2
 705              		.p2align 4,,15
 706              		.global	chMsgRelease
 707              		.thumb
 708              		.thumb_func
 709              		.type	chMsgRelease, %function
 710              	chMsgRelease:
 711              	.LFB241:
 712              		.loc 1 143 0
 713              		.cfi_startproc
 714              		@ args = 0, pretend = 0, frame = 0
 715              		@ frame_needed = 0, uses_anonymous_args = 0
 716              	.LVL18:
 717 0000 08B5     		push	{r3, lr}
 718              		.cfi_def_cfa_offset 8
 719              		.cfi_offset 3, -8
 720              		.cfi_offset 14, -4
 721              	.LBB89:
 722              	.LBB90:
 723              	.LBB91:
 724              	.LBB92:
 725              		.loc 2 264 0
 726 0002 2023     		movs	r3, #32
 727              	@ 264 "../ChibiOS/os/common/ext/CMSIS/include/cmsis_gcc.h" 1
 728 0004 83F31188 		MSR basepri, r3
 729              	@ 0 "" 2
 730              	.LVL19:
 731              		.thumb
 732              	.LBE92:
 733              	.LBE91:
 734              	.LBE90:
 735              	.LBE89:
 736              	.LBB93:
 737              	.LBB94:
 738              		.loc 4 117 0
 739 0008 FFF7FEFF 		bl	chSchWakeupS
 740              	.LVL20:
 741              	.LBE94:
 742              	.LBE93:
 743              	.LBB95:
 744              	.LBB96:
 745              	.LBB97:
 746              	.LBB98:
 747              	.LBB99:
 748              		.loc 2 264 0
 749 000c 0023     		movs	r3, #0
 750              	@ 264 "../ChibiOS/os/common/ext/CMSIS/include/cmsis_gcc.h" 1
 751 000e 83F31188 		MSR basepri, r3
 752              	@ 0 "" 2
 753              		.thumb
 754 0012 08BD     		pop	{r3, pc}
 755              	.LBE99:
 756              	.LBE98:
 757              	.LBE97:
 758              	.LBE96:
 759              	.LBE95:
 760              		.cfi_endproc
ARM GAS  /tmp/ccCbDWNk.s 			page 42


 761              	.LFE241:
 762              		.size	chMsgRelease, .-chMsgRelease
 763 0014 AFF30080 		.text
 763      AFF30080 
 763      AFF30080 
 764              	.Letext0:
 765              		.file 5 "/nfs/nfs5/home/research/hardware/arm2/gcc-arm-embedded/gcc-arm-none-eabi-4_8-2014q2/arm-n
 766              		.file 6 "/nfs/nfs5/home/research/hardware/arm2/gcc-arm-embedded/gcc-arm-none-eabi-4_8-2014q2/arm-n
 767              		.file 7 "../ChibiOS/os/common/ports/ARMCMx/compilers/GCC/chtypes.h"
 768              		.file 8 "../ChibiOS/os/rt/include/chsystypes.h"
 769              		.file 9 "../ChibiOS/os/common/ports/ARMCMx/chcore.h"
 770              		.file 10 "../ChibiOS/os/common/ports/ARMCMx/chcore_v7m.h"
 771              		.file 11 "../ChibiOS/os/rt/include/chtm.h"
 772              		.file 12 "../ChibiOS/os/rt/include/chsem.h"
 773              		.file 13 "../ChibiOS/os/rt/include/chmtx.h"
 774              		.file 14 "../ChibiOS/os/rt/include/chsys.h"
 775              		.file 15 "../ChibiOS/os/common/ext/CMSIS/include/core_cm4.h"
 776              		.section	.debug_info,"",%progbits
 777              	.Ldebug_info0:
 778 0000 860A0000 		.4byte	0xa86
 779 0004 0400     		.2byte	0x4
 780 0006 00000000 		.4byte	.Ldebug_abbrev0
 781 000a 04       		.byte	0x4
 782 000b 01       		.uleb128 0x1
 783 000c A2030000 		.4byte	.LASF106
 784 0010 01       		.byte	0x1
 785 0011 A7020000 		.4byte	.LASF107
 786 0015 08020000 		.4byte	.LASF108
 787 0019 60000000 		.4byte	.Ldebug_ranges0+0x60
 788 001d 00000000 		.4byte	0
 789 0021 00000000 		.4byte	.Ldebug_line0
 790 0025 02       		.uleb128 0x2
 791 0026 04       		.byte	0x4
 792 0027 05       		.byte	0x5
 793 0028 696E7400 		.ascii	"int\000"
 794 002c 03       		.uleb128 0x3
 795 002d 04       		.byte	0x4
 796 002e 07       		.byte	0x7
 797 002f 53000000 		.4byte	.LASF0
 798 0033 03       		.uleb128 0x3
 799 0034 01       		.byte	0x1
 800 0035 06       		.byte	0x6
 801 0036 4D050000 		.4byte	.LASF1
 802 003a 04       		.uleb128 0x4
 803 003b 85030000 		.4byte	.LASF5
 804 003f 05       		.byte	0x5
 805 0040 1C       		.byte	0x1c
 806 0041 45000000 		.4byte	0x45
 807 0045 03       		.uleb128 0x3
 808 0046 01       		.byte	0x1
 809 0047 08       		.byte	0x8
 810 0048 D5040000 		.4byte	.LASF2
 811 004c 03       		.uleb128 0x3
 812 004d 02       		.byte	0x2
 813 004e 05       		.byte	0x5
 814 004f 29030000 		.4byte	.LASF3
 815 0053 03       		.uleb128 0x3
ARM GAS  /tmp/ccCbDWNk.s 			page 43


 816 0054 02       		.byte	0x2
 817 0055 07       		.byte	0x7
 818 0056 5F050000 		.4byte	.LASF4
 819 005a 04       		.uleb128 0x4
 820 005b 74000000 		.4byte	.LASF6
 821 005f 05       		.byte	0x5
 822 0060 37       		.byte	0x37
 823 0061 65000000 		.4byte	0x65
 824 0065 03       		.uleb128 0x3
 825 0066 04       		.byte	0x4
 826 0067 05       		.byte	0x5
 827 0068 33030000 		.4byte	.LASF7
 828 006c 04       		.uleb128 0x4
 829 006d E3040000 		.4byte	.LASF8
 830 0071 05       		.byte	0x5
 831 0072 38       		.byte	0x38
 832 0073 77000000 		.4byte	0x77
 833 0077 03       		.uleb128 0x3
 834 0078 04       		.byte	0x4
 835 0079 07       		.byte	0x7
 836 007a 93040000 		.4byte	.LASF9
 837 007e 03       		.uleb128 0x3
 838 007f 08       		.byte	0x8
 839 0080 05       		.byte	0x5
 840 0081 C4020000 		.4byte	.LASF10
 841 0085 04       		.uleb128 0x4
 842 0086 FD010000 		.4byte	.LASF11
 843 008a 05       		.byte	0x5
 844 008b 4E       		.byte	0x4e
 845 008c 90000000 		.4byte	0x90
 846 0090 03       		.uleb128 0x3
 847 0091 08       		.byte	0x8
 848 0092 07       		.byte	0x7
 849 0093 57010000 		.4byte	.LASF12
 850 0097 04       		.uleb128 0x4
 851 0098 7D020000 		.4byte	.LASF13
 852 009c 06       		.byte	0x6
 853 009d 2A       		.byte	0x2a
 854 009e 3A000000 		.4byte	0x3a
 855 00a2 04       		.uleb128 0x4
 856 00a3 B8040000 		.4byte	.LASF14
 857 00a7 06       		.byte	0x6
 858 00a8 41       		.byte	0x41
 859 00a9 5A000000 		.4byte	0x5a
 860 00ad 04       		.uleb128 0x4
 861 00ae 14010000 		.4byte	.LASF15
 862 00b2 06       		.byte	0x6
 863 00b3 42       		.byte	0x42
 864 00b4 6C000000 		.4byte	0x6c
 865 00b8 04       		.uleb128 0x4
 866 00b9 76030000 		.4byte	.LASF16
 867 00bd 06       		.byte	0x6
 868 00be 4E       		.byte	0x4e
 869 00bf 85000000 		.4byte	0x85
 870 00c3 04       		.uleb128 0x4
 871 00c4 21030000 		.4byte	.LASF17
 872 00c8 07       		.byte	0x7
ARM GAS  /tmp/ccCbDWNk.s 			page 44


 873 00c9 39       		.byte	0x39
 874 00ca AD000000 		.4byte	0xad
 875 00ce 04       		.uleb128 0x4
 876 00cf 0E030000 		.4byte	.LASF18
 877 00d3 07       		.byte	0x7
 878 00d4 3C       		.byte	0x3c
 879 00d5 97000000 		.4byte	0x97
 880 00d9 04       		.uleb128 0x4
 881 00da 74020000 		.4byte	.LASF19
 882 00de 07       		.byte	0x7
 883 00df 3D       		.byte	0x3d
 884 00e0 97000000 		.4byte	0x97
 885 00e4 04       		.uleb128 0x4
 886 00e5 8B040000 		.4byte	.LASF20
 887 00e9 07       		.byte	0x7
 888 00ea 3E       		.byte	0x3e
 889 00eb 97000000 		.4byte	0x97
 890 00ef 04       		.uleb128 0x4
 891 00f0 3E010000 		.4byte	.LASF21
 892 00f4 07       		.byte	0x7
 893 00f5 40       		.byte	0x40
 894 00f6 AD000000 		.4byte	0xad
 895 00fa 04       		.uleb128 0x4
 896 00fb D2020000 		.4byte	.LASF22
 897 00ff 07       		.byte	0x7
 898 0100 41       		.byte	0x41
 899 0101 A2000000 		.4byte	0xa2
 900 0105 04       		.uleb128 0x4
 901 0106 25010000 		.4byte	.LASF23
 902 010a 07       		.byte	0x7
 903 010b 43       		.byte	0x43
 904 010c AD000000 		.4byte	0xad
 905 0110 04       		.uleb128 0x4
 906 0111 6E010000 		.4byte	.LASF24
 907 0115 07       		.byte	0x7
 908 0116 45       		.byte	0x45
 909 0117 A2000000 		.4byte	0xa2
 910 011b 04       		.uleb128 0x4
 911 011c 37000000 		.4byte	.LASF25
 912 0120 08       		.byte	0x8
 913 0121 33       		.byte	0x33
 914 0122 AD000000 		.4byte	0xad
 915 0126 04       		.uleb128 0x4
 916 0127 C9010000 		.4byte	.LASF26
 917 012b 08       		.byte	0x8
 918 012c 3F       		.byte	0x3f
 919 012d 31010000 		.4byte	0x131
 920 0131 05       		.uleb128 0x5
 921 0132 8E020000 		.4byte	.LASF44
 922 0136 44       		.byte	0x44
 923 0137 03       		.byte	0x3
 924 0138 9A       		.byte	0x9a
 925 0139 0F020000 		.4byte	0x20f
 926 013d 06       		.uleb128 0x6
 927 013e B2040000 		.4byte	.LASF27
 928 0142 03       		.byte	0x3
 929 0143 9B       		.byte	0x9b
ARM GAS  /tmp/ccCbDWNk.s 			page 45


 930 0144 44020000 		.4byte	0x244
 931 0148 00       		.byte	0
 932 0149 06       		.uleb128 0x6
 933 014a 50020000 		.4byte	.LASF28
 934 014e 03       		.byte	0x3
 935 014f 9C       		.byte	0x9c
 936 0150 EF000000 		.4byte	0xef
 937 0154 08       		.byte	0x8
 938 0155 07       		.uleb128 0x7
 939 0156 63747800 		.ascii	"ctx\000"
 940 015a 03       		.byte	0x3
 941 015b 9D       		.byte	0x9d
 942 015c 3C040000 		.4byte	0x43c
 943 0160 0C       		.byte	0xc
 944 0161 06       		.uleb128 0x6
 945 0162 CF040000 		.4byte	.LASF29
 946 0166 03       		.byte	0x3
 947 0167 9F       		.byte	0x9f
 948 0168 1A020000 		.4byte	0x21a
 949 016c 10       		.byte	0x10
 950 016d 06       		.uleb128 0x6
 951 016e 9E050000 		.4byte	.LASF30
 952 0172 03       		.byte	0x3
 953 0173 A0       		.byte	0xa0
 954 0174 1A020000 		.4byte	0x21a
 955 0178 14       		.byte	0x14
 956 0179 06       		.uleb128 0x6
 957 017a 8F030000 		.4byte	.LASF31
 958 017e 03       		.byte	0x3
 959 017f A7       		.byte	0xa7
 960 0180 C1050000 		.4byte	0x5c1
 961 0184 18       		.byte	0x18
 962 0185 06       		.uleb128 0x6
 963 0186 6D020000 		.4byte	.LASF32
 964 018a 03       		.byte	0x3
 965 018b B0       		.byte	0xb0
 966 018c D3050000 		.4byte	0x5d3
 967 0190 1C       		.byte	0x1c
 968 0191 06       		.uleb128 0x6
 969 0192 35050000 		.4byte	.LASF33
 970 0196 03       		.byte	0x3
 971 0197 B5       		.byte	0xb5
 972 0198 D9000000 		.4byte	0xd9
 973 019c 20       		.byte	0x20
 974 019d 06       		.uleb128 0x6
 975 019e 31000000 		.4byte	.LASF34
 976 01a2 03       		.byte	0x3
 977 01a3 B9       		.byte	0xb9
 978 01a4 CE000000 		.4byte	0xce
 979 01a8 21       		.byte	0x21
 980 01a9 06       		.uleb128 0x6
 981 01aa 7E000000 		.4byte	.LASF35
 982 01ae 03       		.byte	0x3
 983 01af BE       		.byte	0xbe
 984 01b0 E4000000 		.4byte	0xe4
 985 01b4 22       		.byte	0x22
 986 01b5 08       		.uleb128 0x8
ARM GAS  /tmp/ccCbDWNk.s 			page 46


 987 01b6 7500     		.ascii	"u\000"
 988 01b8 03       		.byte	0x3
 989 01b9 0F01     		.2byte	0x10f
 990 01bb F6040000 		.4byte	0x4f6
 991 01bf 24       		.byte	0x24
 992 01c0 09       		.uleb128 0x9
 993 01c1 EE040000 		.4byte	.LASF36
 994 01c5 03       		.byte	0x3
 995 01c6 1401     		.2byte	0x114
 996 01c8 20020000 		.4byte	0x220
 997 01cc 28       		.byte	0x28
 998 01cd 09       		.uleb128 0x9
 999 01ce 85020000 		.4byte	.LASF37
 1000 01d2 03       		.byte	0x3
 1001 01d3 1A01     		.2byte	0x11a
 1002 01d5 44020000 		.4byte	0x244
 1003 01d9 2C       		.byte	0x2c
 1004 01da 09       		.uleb128 0x9
 1005 01db 4A000000 		.4byte	.LASF38
 1006 01df 03       		.byte	0x3
 1007 01e0 2001     		.2byte	0x120
 1008 01e2 05010000 		.4byte	0x105
 1009 01e6 34       		.byte	0x34
 1010 01e7 09       		.uleb128 0x9
 1011 01e8 9C010000 		.4byte	.LASF39
 1012 01ec 03       		.byte	0x3
 1013 01ed 2701     		.2byte	0x127
 1014 01ef BB050000 		.4byte	0x5bb
 1015 01f3 38       		.byte	0x38
 1016 01f4 09       		.uleb128 0x9
 1017 01f5 41000000 		.4byte	.LASF40
 1018 01f9 03       		.byte	0x3
 1019 01fa 2B01     		.2byte	0x12b
 1020 01fc EF000000 		.4byte	0xef
 1021 0200 3C       		.byte	0x3c
 1022 0201 09       		.uleb128 0x9
 1023 0202 AD050000 		.4byte	.LASF41
 1024 0206 03       		.byte	0x3
 1025 0207 3201     		.2byte	0x132
 1026 0209 F7020000 		.4byte	0x2f7
 1027 020d 40       		.byte	0x40
 1028 020e 00       		.byte	0
 1029 020f 04       		.uleb128 0x4
 1030 0210 5A020000 		.4byte	.LASF42
 1031 0214 08       		.byte	0x8
 1032 0215 44       		.byte	0x44
 1033 0216 1A020000 		.4byte	0x21a
 1034 021a 0A       		.uleb128 0xa
 1035 021b 04       		.byte	0x4
 1036 021c 26010000 		.4byte	0x126
 1037 0220 04       		.uleb128 0x4
 1038 0221 65000000 		.4byte	.LASF43
 1039 0225 08       		.byte	0x8
 1040 0226 49       		.byte	0x49
 1041 0227 2B020000 		.4byte	0x22b
 1042 022b 05       		.uleb128 0x5
 1043 022c 00000000 		.4byte	.LASF45
ARM GAS  /tmp/ccCbDWNk.s 			page 47


 1044 0230 04       		.byte	0x4
 1045 0231 03       		.byte	0x3
 1046 0232 88       		.byte	0x88
 1047 0233 44020000 		.4byte	0x244
 1048 0237 06       		.uleb128 0x6
 1049 0238 60000000 		.4byte	.LASF46
 1050 023c 03       		.byte	0x3
 1051 023d 89       		.byte	0x89
 1052 023e 1A020000 		.4byte	0x21a
 1053 0242 00       		.byte	0
 1054 0243 00       		.byte	0
 1055 0244 04       		.uleb128 0x4
 1056 0245 86010000 		.4byte	.LASF47
 1057 0249 08       		.byte	0x8
 1058 024a 50       		.byte	0x50
 1059 024b 4F020000 		.4byte	0x24f
 1060 024f 05       		.uleb128 0x5
 1061 0250 D1000000 		.4byte	.LASF48
 1062 0254 08       		.byte	0x8
 1063 0255 03       		.byte	0x3
 1064 0256 8F       		.byte	0x8f
 1065 0257 74020000 		.4byte	0x274
 1066 025b 06       		.uleb128 0x6
 1067 025c 60000000 		.4byte	.LASF46
 1068 0260 03       		.byte	0x3
 1069 0261 90       		.byte	0x90
 1070 0262 1A020000 		.4byte	0x21a
 1071 0266 00       		.byte	0
 1072 0267 06       		.uleb128 0x6
 1073 0268 CC000000 		.4byte	.LASF49
 1074 026c 03       		.byte	0x3
 1075 026d 91       		.byte	0x91
 1076 026e 1A020000 		.4byte	0x21a
 1077 0272 04       		.byte	0x4
 1078 0273 00       		.byte	0
 1079 0274 04       		.uleb128 0x4
 1080 0275 A5040000 		.4byte	.LASF50
 1081 0279 08       		.byte	0x8
 1082 027a 57       		.byte	0x57
 1083 027b 7F020000 		.4byte	0x27f
 1084 027f 0B       		.uleb128 0xb
 1085 0280 B2000000 		.4byte	.LASF51
 1086 0284 1C       		.byte	0x1c
 1087 0285 03       		.byte	0x3
 1088 0286 6A01     		.2byte	0x16a
 1089 0288 DB020000 		.4byte	0x2db
 1090 028c 09       		.uleb128 0x9
 1091 028d B2040000 		.4byte	.LASF27
 1092 0291 03       		.byte	0x3
 1093 0292 6B01     		.2byte	0x16b
 1094 0294 44020000 		.4byte	0x244
 1095 0298 00       		.byte	0
 1096 0299 09       		.uleb128 0x9
 1097 029a 50020000 		.4byte	.LASF28
 1098 029e 03       		.byte	0x3
 1099 029f 6C01     		.2byte	0x16c
 1100 02a1 EF000000 		.4byte	0xef
ARM GAS  /tmp/ccCbDWNk.s 			page 48


 1101 02a5 08       		.byte	0x8
 1102 02a6 08       		.uleb128 0x8
 1103 02a7 63747800 		.ascii	"ctx\000"
 1104 02ab 03       		.byte	0x3
 1105 02ac 6E01     		.2byte	0x16e
 1106 02ae 3C040000 		.4byte	0x43c
 1107 02b2 0C       		.byte	0xc
 1108 02b3 09       		.uleb128 0x9
 1109 02b4 CF040000 		.4byte	.LASF29
 1110 02b8 03       		.byte	0x3
 1111 02b9 7101     		.2byte	0x171
 1112 02bb 1A020000 		.4byte	0x21a
 1113 02bf 10       		.byte	0x10
 1114 02c0 09       		.uleb128 0x9
 1115 02c1 9E050000 		.4byte	.LASF30
 1116 02c5 03       		.byte	0x3
 1117 02c6 7201     		.2byte	0x172
 1118 02c8 1A020000 		.4byte	0x21a
 1119 02cc 14       		.byte	0x14
 1120 02cd 09       		.uleb128 0x9
 1121 02ce 8A050000 		.4byte	.LASF52
 1122 02d2 03       		.byte	0x3
 1123 02d3 7501     		.2byte	0x175
 1124 02d5 1A020000 		.4byte	0x21a
 1125 02d9 18       		.byte	0x18
 1126 02da 00       		.byte	0
 1127 02db 04       		.uleb128 0x4
 1128 02dc E2000000 		.4byte	.LASF53
 1129 02e0 08       		.byte	0x8
 1130 02e1 5C       		.byte	0x5c
 1131 02e2 E6020000 		.4byte	0x2e6
 1132 02e6 0A       		.uleb128 0xa
 1133 02e7 04       		.byte	0x4
 1134 02e8 EC020000 		.4byte	0x2ec
 1135 02ec 0C       		.uleb128 0xc
 1136 02ed F7020000 		.4byte	0x2f7
 1137 02f1 0D       		.uleb128 0xd
 1138 02f2 F7020000 		.4byte	0x2f7
 1139 02f6 00       		.byte	0
 1140 02f7 0E       		.uleb128 0xe
 1141 02f8 04       		.byte	0x4
 1142 02f9 04       		.uleb128 0x4
 1143 02fa E2020000 		.4byte	.LASF54
 1144 02fe 08       		.byte	0x8
 1145 02ff 61       		.byte	0x61
 1146 0300 04030000 		.4byte	0x304
 1147 0304 0B       		.uleb128 0xb
 1148 0305 46010000 		.4byte	.LASF55
 1149 0309 14       		.byte	0x14
 1150 030a 03       		.byte	0x3
 1151 030b 4501     		.2byte	0x145
 1152 030d 53030000 		.4byte	0x353
 1153 0311 09       		.uleb128 0x9
 1154 0312 60000000 		.4byte	.LASF46
 1155 0316 03       		.byte	0x3
 1156 0317 4601     		.2byte	0x146
 1157 0319 D9050000 		.4byte	0x5d9
ARM GAS  /tmp/ccCbDWNk.s 			page 49


 1158 031d 00       		.byte	0
 1159 031e 09       		.uleb128 0x9
 1160 031f CC000000 		.4byte	.LASF49
 1161 0323 03       		.byte	0x3
 1162 0324 4701     		.2byte	0x147
 1163 0326 D9050000 		.4byte	0x5d9
 1164 032a 04       		.byte	0x4
 1165 032b 09       		.uleb128 0x9
 1166 032c 59050000 		.4byte	.LASF56
 1167 0330 03       		.byte	0x3
 1168 0331 4801     		.2byte	0x148
 1169 0333 1B010000 		.4byte	0x11b
 1170 0337 08       		.byte	0x8
 1171 0338 09       		.uleb128 0x9
 1172 0339 C0000000 		.4byte	.LASF57
 1173 033d 03       		.byte	0x3
 1174 033e 4901     		.2byte	0x149
 1175 0340 DB020000 		.4byte	0x2db
 1176 0344 0C       		.byte	0xc
 1177 0345 08       		.uleb128 0x8
 1178 0346 70617200 		.ascii	"par\000"
 1179 034a 03       		.byte	0x3
 1180 034b 4B01     		.2byte	0x14b
 1181 034d F7020000 		.4byte	0x2f7
 1182 0351 10       		.byte	0x10
 1183 0352 00       		.byte	0
 1184 0353 04       		.uleb128 0x4
 1185 0354 F6040000 		.4byte	.LASF58
 1186 0358 08       		.byte	0x8
 1187 0359 66       		.byte	0x66
 1188 035a 5E030000 		.4byte	0x35e
 1189 035e 0B       		.uleb128 0xb
 1190 035f A4010000 		.4byte	.LASF59
 1191 0363 10       		.byte	0x10
 1192 0364 03       		.byte	0x3
 1193 0365 5501     		.2byte	0x155
 1194 0367 A0030000 		.4byte	0x3a0
 1195 036b 09       		.uleb128 0x9
 1196 036c 60000000 		.4byte	.LASF46
 1197 0370 03       		.byte	0x3
 1198 0371 5601     		.2byte	0x156
 1199 0373 D9050000 		.4byte	0x5d9
 1200 0377 00       		.byte	0
 1201 0378 09       		.uleb128 0x9
 1202 0379 CC000000 		.4byte	.LASF49
 1203 037d 03       		.byte	0x3
 1204 037e 5801     		.2byte	0x158
 1205 0380 D9050000 		.4byte	0x5d9
 1206 0384 04       		.byte	0x4
 1207 0385 09       		.uleb128 0x9
 1208 0386 59050000 		.4byte	.LASF56
 1209 038a 03       		.byte	0x3
 1210 038b 5A01     		.2byte	0x15a
 1211 038d 1B010000 		.4byte	0x11b
 1212 0391 08       		.byte	0x8
 1213 0392 09       		.uleb128 0x9
 1214 0393 6D030000 		.4byte	.LASF60
ARM GAS  /tmp/ccCbDWNk.s 			page 50


 1215 0397 03       		.byte	0x3
 1216 0398 6201     		.2byte	0x162
 1217 039a 1B010000 		.4byte	0x11b
 1218 039e 0C       		.byte	0xc
 1219 039f 00       		.byte	0
 1220 03a0 04       		.uleb128 0x4
 1221 03a1 98020000 		.4byte	.LASF61
 1222 03a5 08       		.byte	0x8
 1223 03a6 6B       		.byte	0x6b
 1224 03a7 AB030000 		.4byte	0x3ab
 1225 03ab 0B       		.uleb128 0xb
 1226 03ac 04010000 		.4byte	.LASF62
 1227 03b0 04       		.byte	0x4
 1228 03b1 03       		.byte	0x3
 1229 03b2 7C01     		.2byte	0x17c
 1230 03b4 C6030000 		.4byte	0x3c6
 1231 03b8 09       		.uleb128 0x9
 1232 03b9 04030000 		.4byte	.LASF63
 1233 03bd 03       		.byte	0x3
 1234 03be 8401     		.2byte	0x184
 1235 03c0 DF050000 		.4byte	0x5df
 1236 03c4 00       		.byte	0
 1237 03c5 00       		.byte	0
 1238 03c6 04       		.uleb128 0x4
 1239 03c7 3B050000 		.4byte	.LASF64
 1240 03cb 08       		.byte	0x8
 1241 03cc 70       		.byte	0x70
 1242 03cd D1030000 		.4byte	0x3d1
 1243 03d1 0B       		.uleb128 0xb
 1244 03d2 55030000 		.4byte	.LASF65
 1245 03d6 78       		.byte	0x78
 1246 03d7 03       		.byte	0x3
 1247 03d8 9C01     		.2byte	0x19c
 1248 03da 1F040000 		.4byte	0x41f
 1249 03de 09       		.uleb128 0x9
 1250 03df 7F030000 		.4byte	.LASF66
 1251 03e3 03       		.byte	0x3
 1252 03e4 A001     		.2byte	0x1a0
 1253 03e6 74020000 		.4byte	0x274
 1254 03ea 00       		.byte	0
 1255 03eb 09       		.uleb128 0x9
 1256 03ec 9E000000 		.4byte	.LASF67
 1257 03f0 03       		.byte	0x3
 1258 03f1 A401     		.2byte	0x1a4
 1259 03f3 53030000 		.4byte	0x353
 1260 03f7 1C       		.byte	0x1c
 1261 03f8 08       		.uleb128 0x8
 1262 03f9 64626700 		.ascii	"dbg\000"
 1263 03fd 03       		.byte	0x3
 1264 03fe A801     		.2byte	0x1a8
 1265 0400 A0030000 		.4byte	0x3a0
 1266 0404 2C       		.byte	0x2c
 1267 0405 09       		.uleb128 0x9
 1268 0406 16030000 		.4byte	.LASF68
 1269 040a 03       		.byte	0x3
 1270 040b AC01     		.2byte	0x1ac
 1271 040d 26010000 		.4byte	0x126
ARM GAS  /tmp/ccCbDWNk.s 			page 51


 1272 0411 30       		.byte	0x30
 1273 0412 08       		.uleb128 0x8
 1274 0413 746D00   		.ascii	"tm\000"
 1275 0416 03       		.byte	0x3
 1276 0417 B101     		.2byte	0x1b1
 1277 0419 EB040000 		.4byte	0x4eb
 1278 041d 74       		.byte	0x74
 1279 041e 00       		.byte	0
 1280 041f 03       		.uleb128 0x3
 1281 0420 04       		.byte	0x4
 1282 0421 07       		.byte	0x7
 1283 0422 82040000 		.4byte	.LASF69
 1284 0426 04       		.uleb128 0x4
 1285 0427 28000000 		.4byte	.LASF70
 1286 042b 09       		.byte	0x9
 1287 042c 65       		.byte	0x65
 1288 042d F7020000 		.4byte	0x2f7
 1289 0431 04       		.uleb128 0x4
 1290 0432 7F050000 		.4byte	.LASF71
 1291 0436 09       		.byte	0x9
 1292 0437 6D       		.byte	0x6d
 1293 0438 B8000000 		.4byte	0xb8
 1294 043c 05       		.uleb128 0x5
 1295 043d A5000000 		.4byte	.LASF72
 1296 0441 04       		.byte	0x4
 1297 0442 09       		.byte	0x9
 1298 0443 89       		.byte	0x89
 1299 0444 54040000 		.4byte	0x454
 1300 0448 07       		.uleb128 0x7
 1301 0449 737000   		.ascii	"sp\000"
 1302 044c 09       		.byte	0x9
 1303 044d 8A       		.byte	0x8a
 1304 044e D0040000 		.4byte	0x4d0
 1305 0452 00       		.byte	0
 1306 0453 00       		.byte	0
 1307 0454 0B       		.uleb128 0xb
 1308 0455 3C030000 		.4byte	.LASF73
 1309 0459 24       		.byte	0x24
 1310 045a 0A       		.byte	0xa
 1311 045b 5901     		.2byte	0x159
 1312 045d D0040000 		.4byte	0x4d0
 1313 0461 08       		.uleb128 0x8
 1314 0462 723400   		.ascii	"r4\000"
 1315 0465 0A       		.byte	0xa
 1316 0466 6C01     		.2byte	0x16c
 1317 0468 26040000 		.4byte	0x426
 1318 046c 00       		.byte	0
 1319 046d 08       		.uleb128 0x8
 1320 046e 723500   		.ascii	"r5\000"
 1321 0471 0A       		.byte	0xa
 1322 0472 6D01     		.2byte	0x16d
 1323 0474 26040000 		.4byte	0x426
 1324 0478 04       		.byte	0x4
 1325 0479 08       		.uleb128 0x8
 1326 047a 723600   		.ascii	"r6\000"
 1327 047d 0A       		.byte	0xa
 1328 047e 6E01     		.2byte	0x16e
ARM GAS  /tmp/ccCbDWNk.s 			page 52


 1329 0480 26040000 		.4byte	0x426
 1330 0484 08       		.byte	0x8
 1331 0485 08       		.uleb128 0x8
 1332 0486 723700   		.ascii	"r7\000"
 1333 0489 0A       		.byte	0xa
 1334 048a 6F01     		.2byte	0x16f
 1335 048c 26040000 		.4byte	0x426
 1336 0490 0C       		.byte	0xc
 1337 0491 08       		.uleb128 0x8
 1338 0492 723800   		.ascii	"r8\000"
 1339 0495 0A       		.byte	0xa
 1340 0496 7001     		.2byte	0x170
 1341 0498 26040000 		.4byte	0x426
 1342 049c 10       		.byte	0x10
 1343 049d 08       		.uleb128 0x8
 1344 049e 723900   		.ascii	"r9\000"
 1345 04a1 0A       		.byte	0xa
 1346 04a2 7101     		.2byte	0x171
 1347 04a4 26040000 		.4byte	0x426
 1348 04a8 14       		.byte	0x14
 1349 04a9 08       		.uleb128 0x8
 1350 04aa 72313000 		.ascii	"r10\000"
 1351 04ae 0A       		.byte	0xa
 1352 04af 7201     		.2byte	0x172
 1353 04b1 26040000 		.4byte	0x426
 1354 04b5 18       		.byte	0x18
 1355 04b6 08       		.uleb128 0x8
 1356 04b7 72313100 		.ascii	"r11\000"
 1357 04bb 0A       		.byte	0xa
 1358 04bc 7301     		.2byte	0x173
 1359 04be 26040000 		.4byte	0x426
 1360 04c2 1C       		.byte	0x1c
 1361 04c3 08       		.uleb128 0x8
 1362 04c4 6C7200   		.ascii	"lr\000"
 1363 04c7 0A       		.byte	0xa
 1364 04c8 7401     		.2byte	0x174
 1365 04ca 26040000 		.4byte	0x426
 1366 04ce 20       		.byte	0x20
 1367 04cf 00       		.byte	0
 1368 04d0 0A       		.uleb128 0xa
 1369 04d1 04       		.byte	0x4
 1370 04d2 54040000 		.4byte	0x454
 1371 04d6 0F       		.uleb128 0xf
 1372 04d7 04       		.byte	0x4
 1373 04d8 0B       		.byte	0xb
 1374 04d9 38       		.byte	0x38
 1375 04da EB040000 		.4byte	0x4eb
 1376 04de 06       		.uleb128 0x6
 1377 04df D9010000 		.4byte	.LASF74
 1378 04e3 0B       		.byte	0xb
 1379 04e4 3C       		.byte	0x3c
 1380 04e5 C3000000 		.4byte	0xc3
 1381 04e9 00       		.byte	0
 1382 04ea 00       		.byte	0
 1383 04eb 04       		.uleb128 0x4
 1384 04ec 17000000 		.4byte	.LASF75
 1385 04f0 0B       		.byte	0xb
ARM GAS  /tmp/ccCbDWNk.s 			page 53


 1386 04f1 3D       		.byte	0x3d
 1387 04f2 D6040000 		.4byte	0x4d6
 1388 04f6 10       		.uleb128 0x10
 1389 04f7 04       		.byte	0x4
 1390 04f8 03       		.byte	0x3
 1391 04f9 D2       		.byte	0xd2
 1392 04fa 59050000 		.4byte	0x559
 1393 04fe 11       		.uleb128 0x11
 1394 04ff D2010000 		.4byte	.LASF76
 1395 0503 03       		.byte	0x3
 1396 0504 D9       		.byte	0xd9
 1397 0505 FA000000 		.4byte	0xfa
 1398 0509 11       		.uleb128 0x11
 1399 050a A4050000 		.4byte	.LASF77
 1400 050e 03       		.byte	0x3
 1401 050f E0       		.byte	0xe0
 1402 0510 FA000000 		.4byte	0xfa
 1403 0514 11       		.uleb128 0x11
 1404 0515 8D000000 		.4byte	.LASF78
 1405 0519 03       		.byte	0x3
 1406 051a E7       		.byte	0xe7
 1407 051b F7020000 		.4byte	0x2f7
 1408 051f 11       		.uleb128 0x11
 1409 0520 47050000 		.4byte	.LASF79
 1410 0524 03       		.byte	0x3
 1411 0525 EE       		.byte	0xee
 1412 0526 59050000 		.4byte	0x559
 1413 052a 11       		.uleb128 0x11
 1414 052b 1D010000 		.4byte	.LASF80
 1415 052f 03       		.byte	0x3
 1416 0530 F3       		.byte	0xf3
 1417 0531 FA000000 		.4byte	0xfa
 1418 0535 11       		.uleb128 0x11
 1419 0536 C0040000 		.4byte	.LASF81
 1420 053a 03       		.byte	0x3
 1421 053b FC       		.byte	0xfc
 1422 053c 84050000 		.4byte	0x584
 1423 0540 12       		.uleb128 0x12
 1424 0541 10000000 		.4byte	.LASF82
 1425 0545 03       		.byte	0x3
 1426 0546 0501     		.2byte	0x105
 1427 0548 BB050000 		.4byte	0x5bb
 1428 054c 12       		.uleb128 0x12
 1429 054d C5000000 		.4byte	.LASF83
 1430 0551 03       		.byte	0x3
 1431 0552 0D01     		.2byte	0x10d
 1432 0554 05010000 		.4byte	0x105
 1433 0558 00       		.byte	0
 1434 0559 0A       		.uleb128 0xa
 1435 055a 04       		.byte	0x4
 1436 055b 0F020000 		.4byte	0x20f
 1437 055f 05       		.uleb128 0x5
 1438 0560 31010000 		.4byte	.LASF84
 1439 0564 0C       		.byte	0xc
 1440 0565 0C       		.byte	0xc
 1441 0566 34       		.byte	0x34
 1442 0567 84050000 		.4byte	0x584
ARM GAS  /tmp/ccCbDWNk.s 			page 54


 1443 056b 06       		.uleb128 0x6
 1444 056c B2040000 		.4byte	.LASF27
 1445 0570 0C       		.byte	0xc
 1446 0571 35       		.byte	0x35
 1447 0572 44020000 		.4byte	0x244
 1448 0576 00       		.byte	0
 1449 0577 07       		.uleb128 0x7
 1450 0578 636E7400 		.ascii	"cnt\000"
 1451 057c 0C       		.byte	0xc
 1452 057d 37       		.byte	0x37
 1453 057e 10010000 		.4byte	0x110
 1454 0582 08       		.byte	0x8
 1455 0583 00       		.byte	0
 1456 0584 0A       		.uleb128 0xa
 1457 0585 04       		.byte	0x4
 1458 0586 5F050000 		.4byte	0x55f
 1459 058a 05       		.uleb128 0x5
 1460 058b F4010000 		.4byte	.LASF85
 1461 058f 10       		.byte	0x10
 1462 0590 0D       		.byte	0xd
 1463 0591 39       		.byte	0x39
 1464 0592 BB050000 		.4byte	0x5bb
 1465 0596 06       		.uleb128 0x6
 1466 0597 B2040000 		.4byte	.LASF27
 1467 059b 0D       		.byte	0xd
 1468 059c 3A       		.byte	0x3a
 1469 059d 44020000 		.4byte	0x244
 1470 05a1 00       		.byte	0
 1471 05a2 06       		.uleb128 0x6
 1472 05a3 80010000 		.4byte	.LASF86
 1473 05a7 0D       		.byte	0xd
 1474 05a8 3C       		.byte	0x3c
 1475 05a9 1A020000 		.4byte	0x21a
 1476 05ad 08       		.byte	0x8
 1477 05ae 06       		.uleb128 0x6
 1478 05af 60000000 		.4byte	.LASF46
 1479 05b3 0D       		.byte	0xd
 1480 05b4 3E       		.byte	0x3e
 1481 05b5 EF050000 		.4byte	0x5ef
 1482 05b9 0C       		.byte	0xc
 1483 05ba 00       		.byte	0
 1484 05bb 0A       		.uleb128 0xa
 1485 05bc 04       		.byte	0x4
 1486 05bd 8A050000 		.4byte	0x58a
 1487 05c1 0A       		.uleb128 0xa
 1488 05c2 04       		.byte	0x4
 1489 05c3 C7050000 		.4byte	0x5c7
 1490 05c7 13       		.uleb128 0x13
 1491 05c8 CC050000 		.4byte	0x5cc
 1492 05cc 03       		.uleb128 0x3
 1493 05cd 01       		.byte	0x1
 1494 05ce 08       		.byte	0x8
 1495 05cf 55020000 		.4byte	.LASF87
 1496 05d3 0A       		.uleb128 0xa
 1497 05d4 04       		.byte	0x4
 1498 05d5 31040000 		.4byte	0x431
 1499 05d9 0A       		.uleb128 0xa
ARM GAS  /tmp/ccCbDWNk.s 			page 55


 1500 05da 04       		.byte	0x4
 1501 05db F9020000 		.4byte	0x2f9
 1502 05df 14       		.uleb128 0x14
 1503 05e0 C1050000 		.4byte	0x5c1
 1504 05e4 04       		.uleb128 0x4
 1505 05e5 C7040000 		.4byte	.LASF88
 1506 05e9 0D       		.byte	0xd
 1507 05ea 34       		.byte	0x34
 1508 05eb 8A050000 		.4byte	0x58a
 1509 05ef 0A       		.uleb128 0xa
 1510 05f0 04       		.byte	0x4
 1511 05f1 E4050000 		.4byte	0x5e4
 1512 05f5 15       		.uleb128 0x15
 1513 05f6 5F030000 		.4byte	.LASF92
 1514 05fa 02       		.byte	0x2
 1515 05fb 0601     		.2byte	0x106
 1516 05fd 03       		.byte	0x3
 1517 05fe 0F060000 		.4byte	0x60f
 1518 0602 16       		.uleb128 0x16
 1519 0603 96010000 		.4byte	.LASF94
 1520 0607 02       		.byte	0x2
 1521 0608 0601     		.2byte	0x106
 1522 060a AD000000 		.4byte	0xad
 1523 060e 00       		.byte	0
 1524 060f 17       		.uleb128 0x17
 1525 0610 94000000 		.4byte	.LASF89
 1526 0614 0A       		.byte	0xa
 1527 0615 5202     		.2byte	0x252
 1528 0617 03       		.byte	0x3
 1529 0618 17       		.uleb128 0x17
 1530 0619 92050000 		.4byte	.LASF90
 1531 061d 0A       		.byte	0xa
 1532 061e 6A02     		.2byte	0x26a
 1533 0620 03       		.byte	0x3
 1534 0621 17       		.uleb128 0x17
 1535 0622 36020000 		.4byte	.LASF91
 1536 0626 0E       		.byte	0xe
 1537 0627 7601     		.2byte	0x176
 1538 0629 03       		.byte	0x3
 1539 062a 15       		.uleb128 0x15
 1540 062b 72050000 		.4byte	.LASF93
 1541 062f 03       		.byte	0x3
 1542 0630 6102     		.2byte	0x261
 1543 0632 03       		.byte	0x3
 1544 0633 4F060000 		.4byte	0x64f
 1545 0637 18       		.uleb128 0x18
 1546 0638 747000   		.ascii	"tp\000"
 1547 063b 03       		.byte	0x3
 1548 063c 6102     		.2byte	0x261
 1549 063e 1A020000 		.4byte	0x21a
 1550 0642 18       		.uleb128 0x18
 1551 0643 74717000 		.ascii	"tqp\000"
 1552 0647 03       		.byte	0x3
 1553 0648 6102     		.2byte	0x261
 1554 064a 4F060000 		.4byte	0x64f
 1555 064e 00       		.byte	0
 1556 064f 0A       		.uleb128 0xa
ARM GAS  /tmp/ccCbDWNk.s 			page 56


 1557 0650 04       		.byte	0x4
 1558 0651 44020000 		.4byte	0x244
 1559 0655 15       		.uleb128 0x15
 1560 0656 74010000 		.4byte	.LASF95
 1561 065a 0E       		.byte	0xe
 1562 065b 8201     		.2byte	0x182
 1563 065d 03       		.byte	0x3
 1564 065e 70060000 		.4byte	0x670
 1565 0662 19       		.uleb128 0x19
 1566 0663 E6010000 		.4byte	.LASF99
 1567 0667 80060000 		.4byte	0x680
 1568 066b 74010000 		.4byte	.LASF95
 1569 066f 00       		.byte	0
 1570 0670 1A       		.uleb128 0x1a
 1571 0671 CC050000 		.4byte	0x5cc
 1572 0675 80060000 		.4byte	0x680
 1573 0679 1B       		.uleb128 0x1b
 1574 067a 1F040000 		.4byte	0x41f
 1575 067e 0B       		.byte	0xb
 1576 067f 00       		.byte	0
 1577 0680 13       		.uleb128 0x13
 1578 0681 70060000 		.4byte	0x670
 1579 0685 1C       		.uleb128 0x1c
 1580 0686 40020000 		.4byte	.LASF97
 1581 068a 04       		.byte	0x4
 1582 068b 4F       		.byte	0x4f
 1583 068c A0060000 		.4byte	0x6a0
 1584 0690 03       		.byte	0x3
 1585 0691 A0060000 		.4byte	0x6a0
 1586 0695 1D       		.uleb128 0x1d
 1587 0696 747000   		.ascii	"tp\000"
 1588 0699 04       		.byte	0x4
 1589 069a 4F       		.byte	0x4f
 1590 069b 1A020000 		.4byte	0x21a
 1591 069f 00       		.byte	0
 1592 06a0 03       		.uleb128 0x3
 1593 06a1 01       		.byte	0x1
 1594 06a2 02       		.byte	0x2
 1595 06a3 E0010000 		.4byte	.LASF96
 1596 06a7 1E       		.uleb128 0x1e
 1597 06a8 F2020000 		.4byte	.LASF98
 1598 06ac 03       		.byte	0x3
 1599 06ad 6902     		.2byte	0x269
 1600 06af 1A020000 		.4byte	0x21a
 1601 06b3 03       		.byte	0x3
 1602 06b4 D0060000 		.4byte	0x6d0
 1603 06b8 18       		.uleb128 0x18
 1604 06b9 74717000 		.ascii	"tqp\000"
 1605 06bd 03       		.byte	0x3
 1606 06be 6902     		.2byte	0x269
 1607 06c0 4F060000 		.4byte	0x64f
 1608 06c4 1F       		.uleb128 0x1f
 1609 06c5 747000   		.ascii	"tp\000"
 1610 06c8 03       		.byte	0x3
 1611 06c9 6A02     		.2byte	0x26a
 1612 06cb 1A020000 		.4byte	0x21a
 1613 06cf 00       		.byte	0
ARM GAS  /tmp/ccCbDWNk.s 			page 57


 1614 06d0 20       		.uleb128 0x20
 1615 06d1 0C050000 		.4byte	.LASF100
 1616 06d5 04       		.byte	0x4
 1617 06d6 71       		.byte	0x71
 1618 06d7 03       		.byte	0x3
 1619 06d8 F2060000 		.4byte	0x6f2
 1620 06dc 1D       		.uleb128 0x1d
 1621 06dd 747000   		.ascii	"tp\000"
 1622 06e0 04       		.byte	0x4
 1623 06e1 71       		.byte	0x71
 1624 06e2 1A020000 		.4byte	0x21a
 1625 06e6 1D       		.uleb128 0x1d
 1626 06e7 6D736700 		.ascii	"msg\000"
 1627 06eb 04       		.byte	0x4
 1628 06ec 71       		.byte	0x71
 1629 06ed FA000000 		.4byte	0xfa
 1630 06f1 00       		.byte	0
 1631 06f2 21       		.uleb128 0x21
 1632 06f3 83000000 		.4byte	.LASF101
 1633 06f7 01       		.byte	0x1
 1634 06f8 57       		.byte	0x57
 1635 06f9 FA000000 		.4byte	0xfa
 1636 06fd 00000000 		.4byte	.LFB239
 1637 0701 40000000 		.4byte	.LFE239-.LFB239
 1638 0705 01       		.uleb128 0x1
 1639 0706 9C       		.byte	0x9c
 1640 0707 09080000 		.4byte	0x809
 1641 070b 22       		.uleb128 0x22
 1642 070c 747000   		.ascii	"tp\000"
 1643 070f 01       		.byte	0x1
 1644 0710 57       		.byte	0x57
 1645 0711 1A020000 		.4byte	0x21a
 1646 0715 00000000 		.4byte	.LLST0
 1647 0719 22       		.uleb128 0x22
 1648 071a 6D736700 		.ascii	"msg\000"
 1649 071e 01       		.byte	0x1
 1650 071f 57       		.byte	0x57
 1651 0720 FA000000 		.4byte	0xfa
 1652 0724 38000000 		.4byte	.LLST1
 1653 0728 23       		.uleb128 0x23
 1654 0729 63747000 		.ascii	"ctp\000"
 1655 072d 01       		.byte	0x1
 1656 072e 58       		.byte	0x58
 1657 072f 1A020000 		.4byte	0x21a
 1658 0733 01       		.uleb128 0x1
 1659 0734 54       		.byte	0x54
 1660 0735 24       		.uleb128 0x24
 1661 0736 BB010000 		.4byte	.LASF103
 1662 073a 19080000 		.4byte	0x819
 1663 073e 25       		.uleb128 0x25
 1664 073f 21060000 		.4byte	0x621
 1665 0743 04000000 		.4byte	.LBB52
 1666 0747 00000000 		.4byte	.Ldebug_ranges0+0
 1667 074b 01       		.byte	0x1
 1668 074c 5C       		.byte	0x5c
 1669 074d 7A070000 		.4byte	0x77a
 1670 0751 26       		.uleb128 0x26
ARM GAS  /tmp/ccCbDWNk.s 			page 58


 1671 0752 0F060000 		.4byte	0x60f
 1672 0756 04000000 		.4byte	.LBB53
 1673 075a 00000000 		.4byte	.Ldebug_ranges0+0
 1674 075e 0E       		.byte	0xe
 1675 075f 7801     		.2byte	0x178
 1676 0761 26       		.uleb128 0x26
 1677 0762 F5050000 		.4byte	0x5f5
 1678 0766 04000000 		.4byte	.LBB54
 1679 076a 00000000 		.4byte	.Ldebug_ranges0+0
 1680 076e 0A       		.byte	0xa
 1681 076f 5A02     		.2byte	0x25a
 1682 0771 27       		.uleb128 0x27
 1683 0772 02060000 		.4byte	0x602
 1684 0776 20       		.byte	0x20
 1685 0777 00       		.byte	0
 1686 0778 00       		.byte	0
 1687 0779 00       		.byte	0
 1688 077a 25       		.uleb128 0x25
 1689 077b 2A060000 		.4byte	0x62a
 1690 077f 12000000 		.4byte	.LBB60
 1691 0783 18000000 		.4byte	.Ldebug_ranges0+0x18
 1692 0787 01       		.byte	0x1
 1693 0788 5E       		.byte	0x5e
 1694 0789 9E070000 		.4byte	0x79e
 1695 078d 28       		.uleb128 0x28
 1696 078e 42060000 		.4byte	0x642
 1697 0792 7E000000 		.4byte	.LLST2
 1698 0796 29       		.uleb128 0x29
 1699 0797 37060000 		.4byte	0x637
 1700 079b 01       		.uleb128 0x1
 1701 079c 54       		.byte	0x54
 1702 079d 00       		.byte	0
 1703 079e 2A       		.uleb128 0x2a
 1704 079f 55060000 		.4byte	0x655
 1705 07a3 2C000000 		.4byte	.LBB64
 1706 07a7 06000000 		.4byte	.LBE64-.LBB64
 1707 07ab 01       		.byte	0x1
 1708 07ac 64       		.byte	0x64
 1709 07ad EC070000 		.4byte	0x7ec
 1710 07b1 2B       		.uleb128 0x2b
 1711 07b2 2C000000 		.4byte	.LBB65
 1712 07b6 06000000 		.4byte	.LBE65-.LBB65
 1713 07ba 2C       		.uleb128 0x2c
 1714 07bb 62060000 		.4byte	0x662
 1715 07bf 2D       		.uleb128 0x2d
 1716 07c0 18060000 		.4byte	0x618
 1717 07c4 2C000000 		.4byte	.LBB66
 1718 07c8 06000000 		.4byte	.LBE66-.LBB66
 1719 07cc 0E       		.byte	0xe
 1720 07cd 8F01     		.2byte	0x18f
 1721 07cf 2D       		.uleb128 0x2d
 1722 07d0 F5050000 		.4byte	0x5f5
 1723 07d4 2C000000 		.4byte	.LBB67
 1724 07d8 06000000 		.4byte	.LBE67-.LBB67
 1725 07dc 0A       		.byte	0xa
 1726 07dd 6D02     		.2byte	0x26d
 1727 07df 28       		.uleb128 0x28
ARM GAS  /tmp/ccCbDWNk.s 			page 59


 1728 07e0 02060000 		.4byte	0x602
 1729 07e4 9E000000 		.4byte	.LLST3
 1730 07e8 00       		.byte	0
 1731 07e9 00       		.byte	0
 1732 07ea 00       		.byte	0
 1733 07eb 00       		.byte	0
 1734 07ec 2E       		.uleb128 0x2e
 1735 07ed 2A000000 		.4byte	.LVL7
 1736 07f1 4E0A0000 		.4byte	0xa4e
 1737 07f5 FF070000 		.4byte	0x7ff
 1738 07f9 2F       		.uleb128 0x2f
 1739 07fa 01       		.uleb128 0x1
 1740 07fb 50       		.byte	0x50
 1741 07fc 01       		.uleb128 0x1
 1742 07fd 3C       		.byte	0x3c
 1743 07fe 00       		.byte	0
 1744 07ff 30       		.uleb128 0x30
 1745 0800 38000000 		.4byte	.LVL10
 1746 0804 600A0000 		.4byte	0xa60
 1747 0808 00       		.byte	0
 1748 0809 1A       		.uleb128 0x1a
 1749 080a CC050000 		.4byte	0x5cc
 1750 080e 19080000 		.4byte	0x819
 1751 0812 1B       		.uleb128 0x1b
 1752 0813 1F040000 		.4byte	0x41f
 1753 0817 09       		.byte	0x9
 1754 0818 00       		.byte	0
 1755 0819 13       		.uleb128 0x13
 1756 081a 09080000 		.4byte	0x809
 1757 081e 21       		.uleb128 0x21
 1758 081f D8020000 		.4byte	.LASF102
 1759 0823 01       		.byte	0x1
 1760 0824 77       		.byte	0x77
 1761 0825 1A020000 		.4byte	0x21a
 1762 0829 00000000 		.4byte	.LFB240
 1763 082d 40000000 		.4byte	.LFE240-.LFB240
 1764 0831 01       		.uleb128 0x1
 1765 0832 9C       		.byte	0x9c
 1766 0833 20090000 		.4byte	0x920
 1767 0837 31       		.uleb128 0x31
 1768 0838 747000   		.ascii	"tp\000"
 1769 083b 01       		.byte	0x1
 1770 083c 78       		.byte	0x78
 1771 083d 1A020000 		.4byte	0x21a
 1772 0841 2A       		.uleb128 0x2a
 1773 0842 21060000 		.4byte	0x621
 1774 0846 02000000 		.4byte	.LBB69
 1775 084a 06000000 		.4byte	.LBE69-.LBB69
 1776 084e 01       		.byte	0x1
 1777 084f 7A       		.byte	0x7a
 1778 0850 7D080000 		.4byte	0x87d
 1779 0854 2D       		.uleb128 0x2d
 1780 0855 0F060000 		.4byte	0x60f
 1781 0859 02000000 		.4byte	.LBB70
 1782 085d 06000000 		.4byte	.LBE70-.LBB70
 1783 0861 0E       		.byte	0xe
 1784 0862 7801     		.2byte	0x178
ARM GAS  /tmp/ccCbDWNk.s 			page 60


 1785 0864 2D       		.uleb128 0x2d
 1786 0865 F5050000 		.4byte	0x5f5
 1787 0869 02000000 		.4byte	.LBB71
 1788 086d 06000000 		.4byte	.LBE71-.LBB71
 1789 0871 0A       		.byte	0xa
 1790 0872 5A02     		.2byte	0x25a
 1791 0874 27       		.uleb128 0x27
 1792 0875 02060000 		.4byte	0x602
 1793 0879 20       		.byte	0x20
 1794 087a 00       		.byte	0
 1795 087b 00       		.byte	0
 1796 087c 00       		.byte	0
 1797 087d 2A       		.uleb128 0x2a
 1798 087e 85060000 		.4byte	0x685
 1799 0882 0C000000 		.4byte	.LBB73
 1800 0886 06000000 		.4byte	.LBE73-.LBB73
 1801 088a 01       		.byte	0x1
 1802 088b 7B       		.byte	0x7b
 1803 088c 9A080000 		.4byte	0x89a
 1804 0890 28       		.uleb128 0x28
 1805 0891 95060000 		.4byte	0x695
 1806 0895 B2000000 		.4byte	.LLST4
 1807 0899 00       		.byte	0
 1808 089a 25       		.uleb128 0x25
 1809 089b A7060000 		.4byte	0x6a7
 1810 089f 16000000 		.4byte	.LBB75
 1811 08a3 30000000 		.4byte	.Ldebug_ranges0+0x30
 1812 08a7 01       		.byte	0x1
 1813 08a8 7E       		.byte	0x7e
 1814 08a9 C6080000 		.4byte	0x8c6
 1815 08ad 28       		.uleb128 0x28
 1816 08ae B8060000 		.4byte	0x6b8
 1817 08b2 D0000000 		.4byte	.LLST5
 1818 08b6 32       		.uleb128 0x32
 1819 08b7 30000000 		.4byte	.Ldebug_ranges0+0x30
 1820 08bb 33       		.uleb128 0x33
 1821 08bc C4060000 		.4byte	0x6c4
 1822 08c0 EF000000 		.4byte	.LLST6
 1823 08c4 00       		.byte	0
 1824 08c5 00       		.byte	0
 1825 08c6 25       		.uleb128 0x25
 1826 08c7 55060000 		.4byte	0x655
 1827 08cb 1E000000 		.4byte	.LBB79
 1828 08cf 48000000 		.4byte	.Ldebug_ranges0+0x48
 1829 08d3 01       		.byte	0x1
 1830 08d4 80       		.byte	0x80
 1831 08d5 10090000 		.4byte	0x910
 1832 08d9 32       		.uleb128 0x32
 1833 08da 48000000 		.4byte	.Ldebug_ranges0+0x48
 1834 08de 2C       		.uleb128 0x2c
 1835 08df 62060000 		.4byte	0x662
 1836 08e3 26       		.uleb128 0x26
 1837 08e4 18060000 		.4byte	0x618
 1838 08e8 1E000000 		.4byte	.LBB81
 1839 08ec 48000000 		.4byte	.Ldebug_ranges0+0x48
 1840 08f0 0E       		.byte	0xe
 1841 08f1 8F01     		.2byte	0x18f
ARM GAS  /tmp/ccCbDWNk.s 			page 61


 1842 08f3 26       		.uleb128 0x26
 1843 08f4 F5050000 		.4byte	0x5f5
 1844 08f8 1E000000 		.4byte	.LBB82
 1845 08fc 48000000 		.4byte	.Ldebug_ranges0+0x48
 1846 0900 0A       		.byte	0xa
 1847 0901 6D02     		.2byte	0x26d
 1848 0903 28       		.uleb128 0x28
 1849 0904 02060000 		.4byte	0x602
 1850 0908 02010000 		.4byte	.LLST7
 1851 090c 00       		.byte	0
 1852 090d 00       		.byte	0
 1853 090e 00       		.byte	0
 1854 090f 00       		.byte	0
 1855 0910 34       		.uleb128 0x34
 1856 0911 30000000 		.4byte	.LVL17
 1857 0915 4E0A0000 		.4byte	0xa4e
 1858 0919 2F       		.uleb128 0x2f
 1859 091a 01       		.uleb128 0x1
 1860 091b 50       		.byte	0x50
 1861 091c 01       		.uleb128 0x1
 1862 091d 3E       		.byte	0x3e
 1863 091e 00       		.byte	0
 1864 091f 00       		.byte	0
 1865 0920 35       		.uleb128 0x35
 1866 0921 EB000000 		.4byte	.LASF109
 1867 0925 01       		.byte	0x1
 1868 0926 8F       		.byte	0x8f
 1869 0927 00000000 		.4byte	.LFB241
 1870 092b 14000000 		.4byte	.LFE241-.LFB241
 1871 092f 01       		.uleb128 0x1
 1872 0930 9C       		.byte	0x9c
 1873 0931 1D0A0000 		.4byte	0xa1d
 1874 0935 22       		.uleb128 0x22
 1875 0936 747000   		.ascii	"tp\000"
 1876 0939 01       		.byte	0x1
 1877 093a 8F       		.byte	0x8f
 1878 093b 1A020000 		.4byte	0x21a
 1879 093f 16010000 		.4byte	.LLST8
 1880 0943 22       		.uleb128 0x22
 1881 0944 6D736700 		.ascii	"msg\000"
 1882 0948 01       		.byte	0x1
 1883 0949 8F       		.byte	0x8f
 1884 094a FA000000 		.4byte	0xfa
 1885 094e 37010000 		.4byte	.LLST9
 1886 0952 24       		.uleb128 0x24
 1887 0953 27050000 		.4byte	.LASF104
 1888 0957 2D0A0000 		.4byte	0xa2d
 1889 095b 2A       		.uleb128 0x2a
 1890 095c 21060000 		.4byte	0x621
 1891 0960 02000000 		.4byte	.LBB89
 1892 0964 06000000 		.4byte	.LBE89-.LBB89
 1893 0968 01       		.byte	0x1
 1894 0969 91       		.byte	0x91
 1895 096a 97090000 		.4byte	0x997
 1896 096e 2D       		.uleb128 0x2d
 1897 096f 0F060000 		.4byte	0x60f
 1898 0973 02000000 		.4byte	.LBB90
ARM GAS  /tmp/ccCbDWNk.s 			page 62


 1899 0977 06000000 		.4byte	.LBE90-.LBB90
 1900 097b 0E       		.byte	0xe
 1901 097c 7801     		.2byte	0x178
 1902 097e 2D       		.uleb128 0x2d
 1903 097f F5050000 		.4byte	0x5f5
 1904 0983 02000000 		.4byte	.LBB91
 1905 0987 06000000 		.4byte	.LBE91-.LBB91
 1906 098b 0A       		.byte	0xa
 1907 098c 5A02     		.2byte	0x25a
 1908 098e 27       		.uleb128 0x27
 1909 098f 02060000 		.4byte	0x602
 1910 0993 20       		.byte	0x20
 1911 0994 00       		.byte	0
 1912 0995 00       		.byte	0
 1913 0996 00       		.byte	0
 1914 0997 2A       		.uleb128 0x2a
 1915 0998 D0060000 		.4byte	0x6d0
 1916 099c 08000000 		.4byte	.LBB93
 1917 09a0 04000000 		.4byte	.LBE93-.LBB93
 1918 09a4 01       		.byte	0x1
 1919 09a5 93       		.byte	0x93
 1920 09a6 D5090000 		.4byte	0x9d5
 1921 09aa 28       		.uleb128 0x28
 1922 09ab E6060000 		.4byte	0x6e6
 1923 09af 58010000 		.4byte	.LLST10
 1924 09b3 28       		.uleb128 0x28
 1925 09b4 DC060000 		.4byte	0x6dc
 1926 09b8 79010000 		.4byte	.LLST11
 1927 09bc 34       		.uleb128 0x34
 1928 09bd 0C000000 		.4byte	.LVL20
 1929 09c1 760A0000 		.4byte	0xa76
 1930 09c5 2F       		.uleb128 0x2f
 1931 09c6 01       		.uleb128 0x1
 1932 09c7 51       		.byte	0x51
 1933 09c8 03       		.uleb128 0x3
 1934 09c9 F3       		.byte	0xf3
 1935 09ca 01       		.uleb128 0x1
 1936 09cb 51       		.byte	0x51
 1937 09cc 2F       		.uleb128 0x2f
 1938 09cd 01       		.uleb128 0x1
 1939 09ce 50       		.byte	0x50
 1940 09cf 03       		.uleb128 0x3
 1941 09d0 F3       		.byte	0xf3
 1942 09d1 01       		.uleb128 0x1
 1943 09d2 50       		.byte	0x50
 1944 09d3 00       		.byte	0
 1945 09d4 00       		.byte	0
 1946 09d5 36       		.uleb128 0x36
 1947 09d6 55060000 		.4byte	0x655
 1948 09da 0C000000 		.4byte	.LBB95
 1949 09de 08000000 		.4byte	.LBE95-.LBB95
 1950 09e2 01       		.byte	0x1
 1951 09e3 94       		.byte	0x94
 1952 09e4 2B       		.uleb128 0x2b
 1953 09e5 0C000000 		.4byte	.LBB96
 1954 09e9 08000000 		.4byte	.LBE96-.LBB96
 1955 09ed 2C       		.uleb128 0x2c
ARM GAS  /tmp/ccCbDWNk.s 			page 63


 1956 09ee 62060000 		.4byte	0x662
 1957 09f2 2D       		.uleb128 0x2d
 1958 09f3 18060000 		.4byte	0x618
 1959 09f7 0C000000 		.4byte	.LBB97
 1960 09fb 08000000 		.4byte	.LBE97-.LBB97
 1961 09ff 0E       		.byte	0xe
 1962 0a00 8F01     		.2byte	0x18f
 1963 0a02 2D       		.uleb128 0x2d
 1964 0a03 F5050000 		.4byte	0x5f5
 1965 0a07 0C000000 		.4byte	.LBB98
 1966 0a0b 08000000 		.4byte	.LBE98-.LBB98
 1967 0a0f 0A       		.byte	0xa
 1968 0a10 6D02     		.2byte	0x26d
 1969 0a12 27       		.uleb128 0x27
 1970 0a13 02060000 		.4byte	0x602
 1971 0a17 00       		.byte	0
 1972 0a18 00       		.byte	0
 1973 0a19 00       		.byte	0
 1974 0a1a 00       		.byte	0
 1975 0a1b 00       		.byte	0
 1976 0a1c 00       		.byte	0
 1977 0a1d 1A       		.uleb128 0x1a
 1978 0a1e CC050000 		.4byte	0x5cc
 1979 0a22 2D0A0000 		.4byte	0xa2d
 1980 0a26 1B       		.uleb128 0x1b
 1981 0a27 1F040000 		.4byte	0x41f
 1982 0a2b 0C       		.byte	0xc
 1983 0a2c 00       		.byte	0
 1984 0a2d 13       		.uleb128 0x13
 1985 0a2e 1D0A0000 		.4byte	0xa1d
 1986 0a32 37       		.uleb128 0x37
 1987 0a33 48030000 		.4byte	.LASF105
 1988 0a37 0F       		.byte	0xf
 1989 0a38 4407     		.2byte	0x744
 1990 0a3a 3E0A0000 		.4byte	0xa3e
 1991 0a3e 14       		.uleb128 0x14
 1992 0a3f A2000000 		.4byte	0xa2
 1993 0a43 38       		.uleb128 0x38
 1994 0a44 636800   		.ascii	"ch\000"
 1995 0a47 03       		.byte	0x3
 1996 0a48 D201     		.2byte	0x1d2
 1997 0a4a C6030000 		.4byte	0x3c6
 1998 0a4e 39       		.uleb128 0x39
 1999 0a4f 94030000 		.4byte	.LASF110
 2000 0a53 03       		.byte	0x3
 2001 0a54 DE01     		.2byte	0x1de
 2002 0a56 600A0000 		.4byte	0xa60
 2003 0a5a 0D       		.uleb128 0xd
 2004 0a5b D9000000 		.4byte	0xd9
 2005 0a5f 00       		.byte	0
 2006 0a60 3A       		.uleb128 0x3a
 2007 0a61 F8000000 		.4byte	.LASF111
 2008 0a65 03       		.byte	0x3
 2009 0a66 DC01     		.2byte	0x1dc
 2010 0a68 1A020000 		.4byte	0x21a
 2011 0a6c 760A0000 		.4byte	0xa76
 2012 0a70 0D       		.uleb128 0xd
ARM GAS  /tmp/ccCbDWNk.s 			page 64


 2013 0a71 1A020000 		.4byte	0x21a
 2014 0a75 00       		.byte	0
 2015 0a76 3B       		.uleb128 0x3b
 2016 0a77 1A050000 		.4byte	.LASF112
 2017 0a7b 03       		.byte	0x3
 2018 0a7c E001     		.2byte	0x1e0
 2019 0a7e 0D       		.uleb128 0xd
 2020 0a7f 1A020000 		.4byte	0x21a
 2021 0a83 0D       		.uleb128 0xd
 2022 0a84 FA000000 		.4byte	0xfa
 2023 0a88 00       		.byte	0
 2024 0a89 00       		.byte	0
 2025              		.section	.debug_abbrev,"",%progbits
 2026              	.Ldebug_abbrev0:
 2027 0000 01       		.uleb128 0x1
 2028 0001 11       		.uleb128 0x11
 2029 0002 01       		.byte	0x1
 2030 0003 25       		.uleb128 0x25
 2031 0004 0E       		.uleb128 0xe
 2032 0005 13       		.uleb128 0x13
 2033 0006 0B       		.uleb128 0xb
 2034 0007 03       		.uleb128 0x3
 2035 0008 0E       		.uleb128 0xe
 2036 0009 1B       		.uleb128 0x1b
 2037 000a 0E       		.uleb128 0xe
 2038 000b 55       		.uleb128 0x55
 2039 000c 17       		.uleb128 0x17
 2040 000d 11       		.uleb128 0x11
 2041 000e 01       		.uleb128 0x1
 2042 000f 10       		.uleb128 0x10
 2043 0010 17       		.uleb128 0x17
 2044 0011 00       		.byte	0
 2045 0012 00       		.byte	0
 2046 0013 02       		.uleb128 0x2
 2047 0014 24       		.uleb128 0x24
 2048 0015 00       		.byte	0
 2049 0016 0B       		.uleb128 0xb
 2050 0017 0B       		.uleb128 0xb
 2051 0018 3E       		.uleb128 0x3e
 2052 0019 0B       		.uleb128 0xb
 2053 001a 03       		.uleb128 0x3
 2054 001b 08       		.uleb128 0x8
 2055 001c 00       		.byte	0
 2056 001d 00       		.byte	0
 2057 001e 03       		.uleb128 0x3
 2058 001f 24       		.uleb128 0x24
 2059 0020 00       		.byte	0
 2060 0021 0B       		.uleb128 0xb
 2061 0022 0B       		.uleb128 0xb
 2062 0023 3E       		.uleb128 0x3e
 2063 0024 0B       		.uleb128 0xb
 2064 0025 03       		.uleb128 0x3
 2065 0026 0E       		.uleb128 0xe
 2066 0027 00       		.byte	0
 2067 0028 00       		.byte	0
 2068 0029 04       		.uleb128 0x4
 2069 002a 16       		.uleb128 0x16
ARM GAS  /tmp/ccCbDWNk.s 			page 65


 2070 002b 00       		.byte	0
 2071 002c 03       		.uleb128 0x3
 2072 002d 0E       		.uleb128 0xe
 2073 002e 3A       		.uleb128 0x3a
 2074 002f 0B       		.uleb128 0xb
 2075 0030 3B       		.uleb128 0x3b
 2076 0031 0B       		.uleb128 0xb
 2077 0032 49       		.uleb128 0x49
 2078 0033 13       		.uleb128 0x13
 2079 0034 00       		.byte	0
 2080 0035 00       		.byte	0
 2081 0036 05       		.uleb128 0x5
 2082 0037 13       		.uleb128 0x13
 2083 0038 01       		.byte	0x1
 2084 0039 03       		.uleb128 0x3
 2085 003a 0E       		.uleb128 0xe
 2086 003b 0B       		.uleb128 0xb
 2087 003c 0B       		.uleb128 0xb
 2088 003d 3A       		.uleb128 0x3a
 2089 003e 0B       		.uleb128 0xb
 2090 003f 3B       		.uleb128 0x3b
 2091 0040 0B       		.uleb128 0xb
 2092 0041 01       		.uleb128 0x1
 2093 0042 13       		.uleb128 0x13
 2094 0043 00       		.byte	0
 2095 0044 00       		.byte	0
 2096 0045 06       		.uleb128 0x6
 2097 0046 0D       		.uleb128 0xd
 2098 0047 00       		.byte	0
 2099 0048 03       		.uleb128 0x3
 2100 0049 0E       		.uleb128 0xe
 2101 004a 3A       		.uleb128 0x3a
 2102 004b 0B       		.uleb128 0xb
 2103 004c 3B       		.uleb128 0x3b
 2104 004d 0B       		.uleb128 0xb
 2105 004e 49       		.uleb128 0x49
 2106 004f 13       		.uleb128 0x13
 2107 0050 38       		.uleb128 0x38
 2108 0051 0B       		.uleb128 0xb
 2109 0052 00       		.byte	0
 2110 0053 00       		.byte	0
 2111 0054 07       		.uleb128 0x7
 2112 0055 0D       		.uleb128 0xd
 2113 0056 00       		.byte	0
 2114 0057 03       		.uleb128 0x3
 2115 0058 08       		.uleb128 0x8
 2116 0059 3A       		.uleb128 0x3a
 2117 005a 0B       		.uleb128 0xb
 2118 005b 3B       		.uleb128 0x3b
 2119 005c 0B       		.uleb128 0xb
 2120 005d 49       		.uleb128 0x49
 2121 005e 13       		.uleb128 0x13
 2122 005f 38       		.uleb128 0x38
 2123 0060 0B       		.uleb128 0xb
 2124 0061 00       		.byte	0
 2125 0062 00       		.byte	0
 2126 0063 08       		.uleb128 0x8
ARM GAS  /tmp/ccCbDWNk.s 			page 66


 2127 0064 0D       		.uleb128 0xd
 2128 0065 00       		.byte	0
 2129 0066 03       		.uleb128 0x3
 2130 0067 08       		.uleb128 0x8
 2131 0068 3A       		.uleb128 0x3a
 2132 0069 0B       		.uleb128 0xb
 2133 006a 3B       		.uleb128 0x3b
 2134 006b 05       		.uleb128 0x5
 2135 006c 49       		.uleb128 0x49
 2136 006d 13       		.uleb128 0x13
 2137 006e 38       		.uleb128 0x38
 2138 006f 0B       		.uleb128 0xb
 2139 0070 00       		.byte	0
 2140 0071 00       		.byte	0
 2141 0072 09       		.uleb128 0x9
 2142 0073 0D       		.uleb128 0xd
 2143 0074 00       		.byte	0
 2144 0075 03       		.uleb128 0x3
 2145 0076 0E       		.uleb128 0xe
 2146 0077 3A       		.uleb128 0x3a
 2147 0078 0B       		.uleb128 0xb
 2148 0079 3B       		.uleb128 0x3b
 2149 007a 05       		.uleb128 0x5
 2150 007b 49       		.uleb128 0x49
 2151 007c 13       		.uleb128 0x13
 2152 007d 38       		.uleb128 0x38
 2153 007e 0B       		.uleb128 0xb
 2154 007f 00       		.byte	0
 2155 0080 00       		.byte	0
 2156 0081 0A       		.uleb128 0xa
 2157 0082 0F       		.uleb128 0xf
 2158 0083 00       		.byte	0
 2159 0084 0B       		.uleb128 0xb
 2160 0085 0B       		.uleb128 0xb
 2161 0086 49       		.uleb128 0x49
 2162 0087 13       		.uleb128 0x13
 2163 0088 00       		.byte	0
 2164 0089 00       		.byte	0
 2165 008a 0B       		.uleb128 0xb
 2166 008b 13       		.uleb128 0x13
 2167 008c 01       		.byte	0x1
 2168 008d 03       		.uleb128 0x3
 2169 008e 0E       		.uleb128 0xe
 2170 008f 0B       		.uleb128 0xb
 2171 0090 0B       		.uleb128 0xb
 2172 0091 3A       		.uleb128 0x3a
 2173 0092 0B       		.uleb128 0xb
 2174 0093 3B       		.uleb128 0x3b
 2175 0094 05       		.uleb128 0x5
 2176 0095 01       		.uleb128 0x1
 2177 0096 13       		.uleb128 0x13
 2178 0097 00       		.byte	0
 2179 0098 00       		.byte	0
 2180 0099 0C       		.uleb128 0xc
 2181 009a 15       		.uleb128 0x15
 2182 009b 01       		.byte	0x1
 2183 009c 27       		.uleb128 0x27
ARM GAS  /tmp/ccCbDWNk.s 			page 67


 2184 009d 19       		.uleb128 0x19
 2185 009e 01       		.uleb128 0x1
 2186 009f 13       		.uleb128 0x13
 2187 00a0 00       		.byte	0
 2188 00a1 00       		.byte	0
 2189 00a2 0D       		.uleb128 0xd
 2190 00a3 05       		.uleb128 0x5
 2191 00a4 00       		.byte	0
 2192 00a5 49       		.uleb128 0x49
 2193 00a6 13       		.uleb128 0x13
 2194 00a7 00       		.byte	0
 2195 00a8 00       		.byte	0
 2196 00a9 0E       		.uleb128 0xe
 2197 00aa 0F       		.uleb128 0xf
 2198 00ab 00       		.byte	0
 2199 00ac 0B       		.uleb128 0xb
 2200 00ad 0B       		.uleb128 0xb
 2201 00ae 00       		.byte	0
 2202 00af 00       		.byte	0
 2203 00b0 0F       		.uleb128 0xf
 2204 00b1 13       		.uleb128 0x13
 2205 00b2 01       		.byte	0x1
 2206 00b3 0B       		.uleb128 0xb
 2207 00b4 0B       		.uleb128 0xb
 2208 00b5 3A       		.uleb128 0x3a
 2209 00b6 0B       		.uleb128 0xb
 2210 00b7 3B       		.uleb128 0x3b
 2211 00b8 0B       		.uleb128 0xb
 2212 00b9 01       		.uleb128 0x1
 2213 00ba 13       		.uleb128 0x13
 2214 00bb 00       		.byte	0
 2215 00bc 00       		.byte	0
 2216 00bd 10       		.uleb128 0x10
 2217 00be 17       		.uleb128 0x17
 2218 00bf 01       		.byte	0x1
 2219 00c0 0B       		.uleb128 0xb
 2220 00c1 0B       		.uleb128 0xb
 2221 00c2 3A       		.uleb128 0x3a
 2222 00c3 0B       		.uleb128 0xb
 2223 00c4 3B       		.uleb128 0x3b
 2224 00c5 0B       		.uleb128 0xb
 2225 00c6 01       		.uleb128 0x1
 2226 00c7 13       		.uleb128 0x13
 2227 00c8 00       		.byte	0
 2228 00c9 00       		.byte	0
 2229 00ca 11       		.uleb128 0x11
 2230 00cb 0D       		.uleb128 0xd
 2231 00cc 00       		.byte	0
 2232 00cd 03       		.uleb128 0x3
 2233 00ce 0E       		.uleb128 0xe
 2234 00cf 3A       		.uleb128 0x3a
 2235 00d0 0B       		.uleb128 0xb
 2236 00d1 3B       		.uleb128 0x3b
 2237 00d2 0B       		.uleb128 0xb
 2238 00d3 49       		.uleb128 0x49
 2239 00d4 13       		.uleb128 0x13
 2240 00d5 00       		.byte	0
ARM GAS  /tmp/ccCbDWNk.s 			page 68


 2241 00d6 00       		.byte	0
 2242 00d7 12       		.uleb128 0x12
 2243 00d8 0D       		.uleb128 0xd
 2244 00d9 00       		.byte	0
 2245 00da 03       		.uleb128 0x3
 2246 00db 0E       		.uleb128 0xe
 2247 00dc 3A       		.uleb128 0x3a
 2248 00dd 0B       		.uleb128 0xb
 2249 00de 3B       		.uleb128 0x3b
 2250 00df 05       		.uleb128 0x5
 2251 00e0 49       		.uleb128 0x49
 2252 00e1 13       		.uleb128 0x13
 2253 00e2 00       		.byte	0
 2254 00e3 00       		.byte	0
 2255 00e4 13       		.uleb128 0x13
 2256 00e5 26       		.uleb128 0x26
 2257 00e6 00       		.byte	0
 2258 00e7 49       		.uleb128 0x49
 2259 00e8 13       		.uleb128 0x13
 2260 00e9 00       		.byte	0
 2261 00ea 00       		.byte	0
 2262 00eb 14       		.uleb128 0x14
 2263 00ec 35       		.uleb128 0x35
 2264 00ed 00       		.byte	0
 2265 00ee 49       		.uleb128 0x49
 2266 00ef 13       		.uleb128 0x13
 2267 00f0 00       		.byte	0
 2268 00f1 00       		.byte	0
 2269 00f2 15       		.uleb128 0x15
 2270 00f3 2E       		.uleb128 0x2e
 2271 00f4 01       		.byte	0x1
 2272 00f5 03       		.uleb128 0x3
 2273 00f6 0E       		.uleb128 0xe
 2274 00f7 3A       		.uleb128 0x3a
 2275 00f8 0B       		.uleb128 0xb
 2276 00f9 3B       		.uleb128 0x3b
 2277 00fa 05       		.uleb128 0x5
 2278 00fb 27       		.uleb128 0x27
 2279 00fc 19       		.uleb128 0x19
 2280 00fd 20       		.uleb128 0x20
 2281 00fe 0B       		.uleb128 0xb
 2282 00ff 01       		.uleb128 0x1
 2283 0100 13       		.uleb128 0x13
 2284 0101 00       		.byte	0
 2285 0102 00       		.byte	0
 2286 0103 16       		.uleb128 0x16
 2287 0104 05       		.uleb128 0x5
 2288 0105 00       		.byte	0
 2289 0106 03       		.uleb128 0x3
 2290 0107 0E       		.uleb128 0xe
 2291 0108 3A       		.uleb128 0x3a
 2292 0109 0B       		.uleb128 0xb
 2293 010a 3B       		.uleb128 0x3b
 2294 010b 05       		.uleb128 0x5
 2295 010c 49       		.uleb128 0x49
 2296 010d 13       		.uleb128 0x13
 2297 010e 00       		.byte	0
ARM GAS  /tmp/ccCbDWNk.s 			page 69


 2298 010f 00       		.byte	0
 2299 0110 17       		.uleb128 0x17
 2300 0111 2E       		.uleb128 0x2e
 2301 0112 00       		.byte	0
 2302 0113 03       		.uleb128 0x3
 2303 0114 0E       		.uleb128 0xe
 2304 0115 3A       		.uleb128 0x3a
 2305 0116 0B       		.uleb128 0xb
 2306 0117 3B       		.uleb128 0x3b
 2307 0118 05       		.uleb128 0x5
 2308 0119 27       		.uleb128 0x27
 2309 011a 19       		.uleb128 0x19
 2310 011b 20       		.uleb128 0x20
 2311 011c 0B       		.uleb128 0xb
 2312 011d 00       		.byte	0
 2313 011e 00       		.byte	0
 2314 011f 18       		.uleb128 0x18
 2315 0120 05       		.uleb128 0x5
 2316 0121 00       		.byte	0
 2317 0122 03       		.uleb128 0x3
 2318 0123 08       		.uleb128 0x8
 2319 0124 3A       		.uleb128 0x3a
 2320 0125 0B       		.uleb128 0xb
 2321 0126 3B       		.uleb128 0x3b
 2322 0127 05       		.uleb128 0x5
 2323 0128 49       		.uleb128 0x49
 2324 0129 13       		.uleb128 0x13
 2325 012a 00       		.byte	0
 2326 012b 00       		.byte	0
 2327 012c 19       		.uleb128 0x19
 2328 012d 34       		.uleb128 0x34
 2329 012e 00       		.byte	0
 2330 012f 03       		.uleb128 0x3
 2331 0130 0E       		.uleb128 0xe
 2332 0131 49       		.uleb128 0x49
 2333 0132 13       		.uleb128 0x13
 2334 0133 34       		.uleb128 0x34
 2335 0134 19       		.uleb128 0x19
 2336 0135 1C       		.uleb128 0x1c
 2337 0136 0E       		.uleb128 0xe
 2338 0137 00       		.byte	0
 2339 0138 00       		.byte	0
 2340 0139 1A       		.uleb128 0x1a
 2341 013a 01       		.uleb128 0x1
 2342 013b 01       		.byte	0x1
 2343 013c 49       		.uleb128 0x49
 2344 013d 13       		.uleb128 0x13
 2345 013e 01       		.uleb128 0x1
 2346 013f 13       		.uleb128 0x13
 2347 0140 00       		.byte	0
 2348 0141 00       		.byte	0
 2349 0142 1B       		.uleb128 0x1b
 2350 0143 21       		.uleb128 0x21
 2351 0144 00       		.byte	0
 2352 0145 49       		.uleb128 0x49
 2353 0146 13       		.uleb128 0x13
 2354 0147 2F       		.uleb128 0x2f
ARM GAS  /tmp/ccCbDWNk.s 			page 70


 2355 0148 0B       		.uleb128 0xb
 2356 0149 00       		.byte	0
 2357 014a 00       		.byte	0
 2358 014b 1C       		.uleb128 0x1c
 2359 014c 2E       		.uleb128 0x2e
 2360 014d 01       		.byte	0x1
 2361 014e 03       		.uleb128 0x3
 2362 014f 0E       		.uleb128 0xe
 2363 0150 3A       		.uleb128 0x3a
 2364 0151 0B       		.uleb128 0xb
 2365 0152 3B       		.uleb128 0x3b
 2366 0153 0B       		.uleb128 0xb
 2367 0154 27       		.uleb128 0x27
 2368 0155 19       		.uleb128 0x19
 2369 0156 49       		.uleb128 0x49
 2370 0157 13       		.uleb128 0x13
 2371 0158 20       		.uleb128 0x20
 2372 0159 0B       		.uleb128 0xb
 2373 015a 01       		.uleb128 0x1
 2374 015b 13       		.uleb128 0x13
 2375 015c 00       		.byte	0
 2376 015d 00       		.byte	0
 2377 015e 1D       		.uleb128 0x1d
 2378 015f 05       		.uleb128 0x5
 2379 0160 00       		.byte	0
 2380 0161 03       		.uleb128 0x3
 2381 0162 08       		.uleb128 0x8
 2382 0163 3A       		.uleb128 0x3a
 2383 0164 0B       		.uleb128 0xb
 2384 0165 3B       		.uleb128 0x3b
 2385 0166 0B       		.uleb128 0xb
 2386 0167 49       		.uleb128 0x49
 2387 0168 13       		.uleb128 0x13
 2388 0169 00       		.byte	0
 2389 016a 00       		.byte	0
 2390 016b 1E       		.uleb128 0x1e
 2391 016c 2E       		.uleb128 0x2e
 2392 016d 01       		.byte	0x1
 2393 016e 03       		.uleb128 0x3
 2394 016f 0E       		.uleb128 0xe
 2395 0170 3A       		.uleb128 0x3a
 2396 0171 0B       		.uleb128 0xb
 2397 0172 3B       		.uleb128 0x3b
 2398 0173 05       		.uleb128 0x5
 2399 0174 27       		.uleb128 0x27
 2400 0175 19       		.uleb128 0x19
 2401 0176 49       		.uleb128 0x49
 2402 0177 13       		.uleb128 0x13
 2403 0178 20       		.uleb128 0x20
 2404 0179 0B       		.uleb128 0xb
 2405 017a 01       		.uleb128 0x1
 2406 017b 13       		.uleb128 0x13
 2407 017c 00       		.byte	0
 2408 017d 00       		.byte	0
 2409 017e 1F       		.uleb128 0x1f
 2410 017f 34       		.uleb128 0x34
 2411 0180 00       		.byte	0
ARM GAS  /tmp/ccCbDWNk.s 			page 71


 2412 0181 03       		.uleb128 0x3
 2413 0182 08       		.uleb128 0x8
 2414 0183 3A       		.uleb128 0x3a
 2415 0184 0B       		.uleb128 0xb
 2416 0185 3B       		.uleb128 0x3b
 2417 0186 05       		.uleb128 0x5
 2418 0187 49       		.uleb128 0x49
 2419 0188 13       		.uleb128 0x13
 2420 0189 00       		.byte	0
 2421 018a 00       		.byte	0
 2422 018b 20       		.uleb128 0x20
 2423 018c 2E       		.uleb128 0x2e
 2424 018d 01       		.byte	0x1
 2425 018e 03       		.uleb128 0x3
 2426 018f 0E       		.uleb128 0xe
 2427 0190 3A       		.uleb128 0x3a
 2428 0191 0B       		.uleb128 0xb
 2429 0192 3B       		.uleb128 0x3b
 2430 0193 0B       		.uleb128 0xb
 2431 0194 27       		.uleb128 0x27
 2432 0195 19       		.uleb128 0x19
 2433 0196 20       		.uleb128 0x20
 2434 0197 0B       		.uleb128 0xb
 2435 0198 01       		.uleb128 0x1
 2436 0199 13       		.uleb128 0x13
 2437 019a 00       		.byte	0
 2438 019b 00       		.byte	0
 2439 019c 21       		.uleb128 0x21
 2440 019d 2E       		.uleb128 0x2e
 2441 019e 01       		.byte	0x1
 2442 019f 3F       		.uleb128 0x3f
 2443 01a0 19       		.uleb128 0x19
 2444 01a1 03       		.uleb128 0x3
 2445 01a2 0E       		.uleb128 0xe
 2446 01a3 3A       		.uleb128 0x3a
 2447 01a4 0B       		.uleb128 0xb
 2448 01a5 3B       		.uleb128 0x3b
 2449 01a6 0B       		.uleb128 0xb
 2450 01a7 27       		.uleb128 0x27
 2451 01a8 19       		.uleb128 0x19
 2452 01a9 49       		.uleb128 0x49
 2453 01aa 13       		.uleb128 0x13
 2454 01ab 11       		.uleb128 0x11
 2455 01ac 01       		.uleb128 0x1
 2456 01ad 12       		.uleb128 0x12
 2457 01ae 06       		.uleb128 0x6
 2458 01af 40       		.uleb128 0x40
 2459 01b0 18       		.uleb128 0x18
 2460 01b1 9742     		.uleb128 0x2117
 2461 01b3 19       		.uleb128 0x19
 2462 01b4 01       		.uleb128 0x1
 2463 01b5 13       		.uleb128 0x13
 2464 01b6 00       		.byte	0
 2465 01b7 00       		.byte	0
 2466 01b8 22       		.uleb128 0x22
 2467 01b9 05       		.uleb128 0x5
 2468 01ba 00       		.byte	0
ARM GAS  /tmp/ccCbDWNk.s 			page 72


 2469 01bb 03       		.uleb128 0x3
 2470 01bc 08       		.uleb128 0x8
 2471 01bd 3A       		.uleb128 0x3a
 2472 01be 0B       		.uleb128 0xb
 2473 01bf 3B       		.uleb128 0x3b
 2474 01c0 0B       		.uleb128 0xb
 2475 01c1 49       		.uleb128 0x49
 2476 01c2 13       		.uleb128 0x13
 2477 01c3 02       		.uleb128 0x2
 2478 01c4 17       		.uleb128 0x17
 2479 01c5 00       		.byte	0
 2480 01c6 00       		.byte	0
 2481 01c7 23       		.uleb128 0x23
 2482 01c8 34       		.uleb128 0x34
 2483 01c9 00       		.byte	0
 2484 01ca 03       		.uleb128 0x3
 2485 01cb 08       		.uleb128 0x8
 2486 01cc 3A       		.uleb128 0x3a
 2487 01cd 0B       		.uleb128 0xb
 2488 01ce 3B       		.uleb128 0x3b
 2489 01cf 0B       		.uleb128 0xb
 2490 01d0 49       		.uleb128 0x49
 2491 01d1 13       		.uleb128 0x13
 2492 01d2 02       		.uleb128 0x2
 2493 01d3 18       		.uleb128 0x18
 2494 01d4 00       		.byte	0
 2495 01d5 00       		.byte	0
 2496 01d6 24       		.uleb128 0x24
 2497 01d7 34       		.uleb128 0x34
 2498 01d8 00       		.byte	0
 2499 01d9 03       		.uleb128 0x3
 2500 01da 0E       		.uleb128 0xe
 2501 01db 49       		.uleb128 0x49
 2502 01dc 13       		.uleb128 0x13
 2503 01dd 34       		.uleb128 0x34
 2504 01de 19       		.uleb128 0x19
 2505 01df 00       		.byte	0
 2506 01e0 00       		.byte	0
 2507 01e1 25       		.uleb128 0x25
 2508 01e2 1D       		.uleb128 0x1d
 2509 01e3 01       		.byte	0x1
 2510 01e4 31       		.uleb128 0x31
 2511 01e5 13       		.uleb128 0x13
 2512 01e6 52       		.uleb128 0x52
 2513 01e7 01       		.uleb128 0x1
 2514 01e8 55       		.uleb128 0x55
 2515 01e9 17       		.uleb128 0x17
 2516 01ea 58       		.uleb128 0x58
 2517 01eb 0B       		.uleb128 0xb
 2518 01ec 59       		.uleb128 0x59
 2519 01ed 0B       		.uleb128 0xb
 2520 01ee 01       		.uleb128 0x1
 2521 01ef 13       		.uleb128 0x13
 2522 01f0 00       		.byte	0
 2523 01f1 00       		.byte	0
 2524 01f2 26       		.uleb128 0x26
 2525 01f3 1D       		.uleb128 0x1d
ARM GAS  /tmp/ccCbDWNk.s 			page 73


 2526 01f4 01       		.byte	0x1
 2527 01f5 31       		.uleb128 0x31
 2528 01f6 13       		.uleb128 0x13
 2529 01f7 52       		.uleb128 0x52
 2530 01f8 01       		.uleb128 0x1
 2531 01f9 55       		.uleb128 0x55
 2532 01fa 17       		.uleb128 0x17
 2533 01fb 58       		.uleb128 0x58
 2534 01fc 0B       		.uleb128 0xb
 2535 01fd 59       		.uleb128 0x59
 2536 01fe 05       		.uleb128 0x5
 2537 01ff 00       		.byte	0
 2538 0200 00       		.byte	0
 2539 0201 27       		.uleb128 0x27
 2540 0202 05       		.uleb128 0x5
 2541 0203 00       		.byte	0
 2542 0204 31       		.uleb128 0x31
 2543 0205 13       		.uleb128 0x13
 2544 0206 1C       		.uleb128 0x1c
 2545 0207 0B       		.uleb128 0xb
 2546 0208 00       		.byte	0
 2547 0209 00       		.byte	0
 2548 020a 28       		.uleb128 0x28
 2549 020b 05       		.uleb128 0x5
 2550 020c 00       		.byte	0
 2551 020d 31       		.uleb128 0x31
 2552 020e 13       		.uleb128 0x13
 2553 020f 02       		.uleb128 0x2
 2554 0210 17       		.uleb128 0x17
 2555 0211 00       		.byte	0
 2556 0212 00       		.byte	0
 2557 0213 29       		.uleb128 0x29
 2558 0214 05       		.uleb128 0x5
 2559 0215 00       		.byte	0
 2560 0216 31       		.uleb128 0x31
 2561 0217 13       		.uleb128 0x13
 2562 0218 02       		.uleb128 0x2
 2563 0219 18       		.uleb128 0x18
 2564 021a 00       		.byte	0
 2565 021b 00       		.byte	0
 2566 021c 2A       		.uleb128 0x2a
 2567 021d 1D       		.uleb128 0x1d
 2568 021e 01       		.byte	0x1
 2569 021f 31       		.uleb128 0x31
 2570 0220 13       		.uleb128 0x13
 2571 0221 11       		.uleb128 0x11
 2572 0222 01       		.uleb128 0x1
 2573 0223 12       		.uleb128 0x12
 2574 0224 06       		.uleb128 0x6
 2575 0225 58       		.uleb128 0x58
 2576 0226 0B       		.uleb128 0xb
 2577 0227 59       		.uleb128 0x59
 2578 0228 0B       		.uleb128 0xb
 2579 0229 01       		.uleb128 0x1
 2580 022a 13       		.uleb128 0x13
 2581 022b 00       		.byte	0
 2582 022c 00       		.byte	0
ARM GAS  /tmp/ccCbDWNk.s 			page 74


 2583 022d 2B       		.uleb128 0x2b
 2584 022e 0B       		.uleb128 0xb
 2585 022f 01       		.byte	0x1
 2586 0230 11       		.uleb128 0x11
 2587 0231 01       		.uleb128 0x1
 2588 0232 12       		.uleb128 0x12
 2589 0233 06       		.uleb128 0x6
 2590 0234 00       		.byte	0
 2591 0235 00       		.byte	0
 2592 0236 2C       		.uleb128 0x2c
 2593 0237 34       		.uleb128 0x34
 2594 0238 00       		.byte	0
 2595 0239 31       		.uleb128 0x31
 2596 023a 13       		.uleb128 0x13
 2597 023b 00       		.byte	0
 2598 023c 00       		.byte	0
 2599 023d 2D       		.uleb128 0x2d
 2600 023e 1D       		.uleb128 0x1d
 2601 023f 01       		.byte	0x1
 2602 0240 31       		.uleb128 0x31
 2603 0241 13       		.uleb128 0x13
 2604 0242 11       		.uleb128 0x11
 2605 0243 01       		.uleb128 0x1
 2606 0244 12       		.uleb128 0x12
 2607 0245 06       		.uleb128 0x6
 2608 0246 58       		.uleb128 0x58
 2609 0247 0B       		.uleb128 0xb
 2610 0248 59       		.uleb128 0x59
 2611 0249 05       		.uleb128 0x5
 2612 024a 00       		.byte	0
 2613 024b 00       		.byte	0
 2614 024c 2E       		.uleb128 0x2e
 2615 024d 898201   		.uleb128 0x4109
 2616 0250 01       		.byte	0x1
 2617 0251 11       		.uleb128 0x11
 2618 0252 01       		.uleb128 0x1
 2619 0253 31       		.uleb128 0x31
 2620 0254 13       		.uleb128 0x13
 2621 0255 01       		.uleb128 0x1
 2622 0256 13       		.uleb128 0x13
 2623 0257 00       		.byte	0
 2624 0258 00       		.byte	0
 2625 0259 2F       		.uleb128 0x2f
 2626 025a 8A8201   		.uleb128 0x410a
 2627 025d 00       		.byte	0
 2628 025e 02       		.uleb128 0x2
 2629 025f 18       		.uleb128 0x18
 2630 0260 9142     		.uleb128 0x2111
 2631 0262 18       		.uleb128 0x18
 2632 0263 00       		.byte	0
 2633 0264 00       		.byte	0
 2634 0265 30       		.uleb128 0x30
 2635 0266 898201   		.uleb128 0x4109
 2636 0269 00       		.byte	0
 2637 026a 11       		.uleb128 0x11
 2638 026b 01       		.uleb128 0x1
 2639 026c 31       		.uleb128 0x31
ARM GAS  /tmp/ccCbDWNk.s 			page 75


 2640 026d 13       		.uleb128 0x13
 2641 026e 00       		.byte	0
 2642 026f 00       		.byte	0
 2643 0270 31       		.uleb128 0x31
 2644 0271 34       		.uleb128 0x34
 2645 0272 00       		.byte	0
 2646 0273 03       		.uleb128 0x3
 2647 0274 08       		.uleb128 0x8
 2648 0275 3A       		.uleb128 0x3a
 2649 0276 0B       		.uleb128 0xb
 2650 0277 3B       		.uleb128 0x3b
 2651 0278 0B       		.uleb128 0xb
 2652 0279 49       		.uleb128 0x49
 2653 027a 13       		.uleb128 0x13
 2654 027b 00       		.byte	0
 2655 027c 00       		.byte	0
 2656 027d 32       		.uleb128 0x32
 2657 027e 0B       		.uleb128 0xb
 2658 027f 01       		.byte	0x1
 2659 0280 55       		.uleb128 0x55
 2660 0281 17       		.uleb128 0x17
 2661 0282 00       		.byte	0
 2662 0283 00       		.byte	0
 2663 0284 33       		.uleb128 0x33
 2664 0285 34       		.uleb128 0x34
 2665 0286 00       		.byte	0
 2666 0287 31       		.uleb128 0x31
 2667 0288 13       		.uleb128 0x13
 2668 0289 02       		.uleb128 0x2
 2669 028a 17       		.uleb128 0x17
 2670 028b 00       		.byte	0
 2671 028c 00       		.byte	0
 2672 028d 34       		.uleb128 0x34
 2673 028e 898201   		.uleb128 0x4109
 2674 0291 01       		.byte	0x1
 2675 0292 11       		.uleb128 0x11
 2676 0293 01       		.uleb128 0x1
 2677 0294 31       		.uleb128 0x31
 2678 0295 13       		.uleb128 0x13
 2679 0296 00       		.byte	0
 2680 0297 00       		.byte	0
 2681 0298 35       		.uleb128 0x35
 2682 0299 2E       		.uleb128 0x2e
 2683 029a 01       		.byte	0x1
 2684 029b 3F       		.uleb128 0x3f
 2685 029c 19       		.uleb128 0x19
 2686 029d 03       		.uleb128 0x3
 2687 029e 0E       		.uleb128 0xe
 2688 029f 3A       		.uleb128 0x3a
 2689 02a0 0B       		.uleb128 0xb
 2690 02a1 3B       		.uleb128 0x3b
 2691 02a2 0B       		.uleb128 0xb
 2692 02a3 27       		.uleb128 0x27
 2693 02a4 19       		.uleb128 0x19
 2694 02a5 11       		.uleb128 0x11
 2695 02a6 01       		.uleb128 0x1
 2696 02a7 12       		.uleb128 0x12
ARM GAS  /tmp/ccCbDWNk.s 			page 76


 2697 02a8 06       		.uleb128 0x6
 2698 02a9 40       		.uleb128 0x40
 2699 02aa 18       		.uleb128 0x18
 2700 02ab 9742     		.uleb128 0x2117
 2701 02ad 19       		.uleb128 0x19
 2702 02ae 01       		.uleb128 0x1
 2703 02af 13       		.uleb128 0x13
 2704 02b0 00       		.byte	0
 2705 02b1 00       		.byte	0
 2706 02b2 36       		.uleb128 0x36
 2707 02b3 1D       		.uleb128 0x1d
 2708 02b4 01       		.byte	0x1
 2709 02b5 31       		.uleb128 0x31
 2710 02b6 13       		.uleb128 0x13
 2711 02b7 11       		.uleb128 0x11
 2712 02b8 01       		.uleb128 0x1
 2713 02b9 12       		.uleb128 0x12
 2714 02ba 06       		.uleb128 0x6
 2715 02bb 58       		.uleb128 0x58
 2716 02bc 0B       		.uleb128 0xb
 2717 02bd 59       		.uleb128 0x59
 2718 02be 0B       		.uleb128 0xb
 2719 02bf 00       		.byte	0
 2720 02c0 00       		.byte	0
 2721 02c1 37       		.uleb128 0x37
 2722 02c2 34       		.uleb128 0x34
 2723 02c3 00       		.byte	0
 2724 02c4 03       		.uleb128 0x3
 2725 02c5 0E       		.uleb128 0xe
 2726 02c6 3A       		.uleb128 0x3a
 2727 02c7 0B       		.uleb128 0xb
 2728 02c8 3B       		.uleb128 0x3b
 2729 02c9 05       		.uleb128 0x5
 2730 02ca 49       		.uleb128 0x49
 2731 02cb 13       		.uleb128 0x13
 2732 02cc 3F       		.uleb128 0x3f
 2733 02cd 19       		.uleb128 0x19
 2734 02ce 3C       		.uleb128 0x3c
 2735 02cf 19       		.uleb128 0x19
 2736 02d0 00       		.byte	0
 2737 02d1 00       		.byte	0
 2738 02d2 38       		.uleb128 0x38
 2739 02d3 34       		.uleb128 0x34
 2740 02d4 00       		.byte	0
 2741 02d5 03       		.uleb128 0x3
 2742 02d6 08       		.uleb128 0x8
 2743 02d7 3A       		.uleb128 0x3a
 2744 02d8 0B       		.uleb128 0xb
 2745 02d9 3B       		.uleb128 0x3b
 2746 02da 05       		.uleb128 0x5
 2747 02db 49       		.uleb128 0x49
 2748 02dc 13       		.uleb128 0x13
 2749 02dd 3F       		.uleb128 0x3f
 2750 02de 19       		.uleb128 0x19
 2751 02df 3C       		.uleb128 0x3c
 2752 02e0 19       		.uleb128 0x19
 2753 02e1 00       		.byte	0
ARM GAS  /tmp/ccCbDWNk.s 			page 77


 2754 02e2 00       		.byte	0
 2755 02e3 39       		.uleb128 0x39
 2756 02e4 2E       		.uleb128 0x2e
 2757 02e5 01       		.byte	0x1
 2758 02e6 3F       		.uleb128 0x3f
 2759 02e7 19       		.uleb128 0x19
 2760 02e8 03       		.uleb128 0x3
 2761 02e9 0E       		.uleb128 0xe
 2762 02ea 3A       		.uleb128 0x3a
 2763 02eb 0B       		.uleb128 0xb
 2764 02ec 3B       		.uleb128 0x3b
 2765 02ed 05       		.uleb128 0x5
 2766 02ee 27       		.uleb128 0x27
 2767 02ef 19       		.uleb128 0x19
 2768 02f0 3C       		.uleb128 0x3c
 2769 02f1 19       		.uleb128 0x19
 2770 02f2 01       		.uleb128 0x1
 2771 02f3 13       		.uleb128 0x13
 2772 02f4 00       		.byte	0
 2773 02f5 00       		.byte	0
 2774 02f6 3A       		.uleb128 0x3a
 2775 02f7 2E       		.uleb128 0x2e
 2776 02f8 01       		.byte	0x1
 2777 02f9 3F       		.uleb128 0x3f
 2778 02fa 19       		.uleb128 0x19
 2779 02fb 03       		.uleb128 0x3
 2780 02fc 0E       		.uleb128 0xe
 2781 02fd 3A       		.uleb128 0x3a
 2782 02fe 0B       		.uleb128 0xb
 2783 02ff 3B       		.uleb128 0x3b
 2784 0300 05       		.uleb128 0x5
 2785 0301 27       		.uleb128 0x27
 2786 0302 19       		.uleb128 0x19
 2787 0303 49       		.uleb128 0x49
 2788 0304 13       		.uleb128 0x13
 2789 0305 3C       		.uleb128 0x3c
 2790 0306 19       		.uleb128 0x19
 2791 0307 01       		.uleb128 0x1
 2792 0308 13       		.uleb128 0x13
 2793 0309 00       		.byte	0
 2794 030a 00       		.byte	0
 2795 030b 3B       		.uleb128 0x3b
 2796 030c 2E       		.uleb128 0x2e
 2797 030d 01       		.byte	0x1
 2798 030e 3F       		.uleb128 0x3f
 2799 030f 19       		.uleb128 0x19
 2800 0310 03       		.uleb128 0x3
 2801 0311 0E       		.uleb128 0xe
 2802 0312 3A       		.uleb128 0x3a
 2803 0313 0B       		.uleb128 0xb
 2804 0314 3B       		.uleb128 0x3b
 2805 0315 05       		.uleb128 0x5
 2806 0316 27       		.uleb128 0x27
 2807 0317 19       		.uleb128 0x19
 2808 0318 3C       		.uleb128 0x3c
 2809 0319 19       		.uleb128 0x19
 2810 031a 00       		.byte	0
ARM GAS  /tmp/ccCbDWNk.s 			page 78


 2811 031b 00       		.byte	0
 2812 031c 00       		.byte	0
 2813              		.section	.debug_loc,"",%progbits
 2814              	.Ldebug_loc0:
 2815              	.LLST0:
 2816 0000 00000000 		.4byte	.LVL0
 2817 0004 24000000 		.4byte	.LVL6
 2818 0008 0100     		.2byte	0x1
 2819 000a 50       		.byte	0x50
 2820 000b 24000000 		.4byte	.LVL6
 2821 000f 34000000 		.4byte	.LVL9
 2822 0013 0300     		.2byte	0x3
 2823 0015 75       		.byte	0x75
 2824 0016 54       		.sleb128 -44
 2825 0017 9F       		.byte	0x9f
 2826 0018 34000000 		.4byte	.LVL9
 2827 001c 37000000 		.4byte	.LVL10-1
 2828 0020 0100     		.2byte	0x1
 2829 0022 50       		.byte	0x50
 2830 0023 37000000 		.4byte	.LVL10-1
 2831 0027 40000000 		.4byte	.LFE239
 2832 002b 0300     		.2byte	0x3
 2833 002d 75       		.byte	0x75
 2834 002e 54       		.sleb128 -44
 2835 002f 9F       		.byte	0x9f
 2836 0030 00000000 		.4byte	0
 2837 0034 00000000 		.4byte	0
 2838              	.LLST1:
 2839 0038 00000000 		.4byte	.LVL0
 2840 003c 12000000 		.4byte	.LVL3
 2841 0040 0100     		.2byte	0x1
 2842 0042 51       		.byte	0x51
 2843 0043 12000000 		.4byte	.LVL3
 2844 0047 22000000 		.4byte	.LVL5
 2845 004b 0200     		.2byte	0x2
 2846 004d 74       		.byte	0x74
 2847 004e 24       		.sleb128 36
 2848 004f 22000000 		.4byte	.LVL5
 2849 0053 2C000000 		.4byte	.LVL8
 2850 0057 0400     		.2byte	0x4
 2851 0059 F3       		.byte	0xf3
 2852 005a 01       		.uleb128 0x1
 2853 005b 51       		.byte	0x51
 2854 005c 9F       		.byte	0x9f
 2855 005d 2C000000 		.4byte	.LVL8
 2856 0061 34000000 		.4byte	.LVL9
 2857 0065 0100     		.2byte	0x1
 2858 0067 50       		.byte	0x50
 2859 0068 34000000 		.4byte	.LVL9
 2860 006c 40000000 		.4byte	.LFE239
 2861 0070 0400     		.2byte	0x4
 2862 0072 F3       		.byte	0xf3
 2863 0073 01       		.uleb128 0x1
 2864 0074 51       		.byte	0x51
 2865 0075 9F       		.byte	0x9f
 2866 0076 00000000 		.4byte	0
 2867 007a 00000000 		.4byte	0
ARM GAS  /tmp/ccCbDWNk.s 			page 79


 2868              	.LLST2:
 2869 007e 0E000000 		.4byte	.LVL2
 2870 0082 1A000000 		.4byte	.LVL4
 2871 0086 0300     		.2byte	0x3
 2872 0088 70       		.byte	0x70
 2873 0089 2C       		.sleb128 44
 2874 008a 9F       		.byte	0x9f
 2875 008b 1A000000 		.4byte	.LVL4
 2876 008f 40000000 		.4byte	.LFE239
 2877 0093 0100     		.2byte	0x1
 2878 0095 55       		.byte	0x55
 2879 0096 00000000 		.4byte	0
 2880 009a 00000000 		.4byte	0
 2881              	.LLST3:
 2882 009e 2C000000 		.4byte	.LVL8
 2883 00a2 34000000 		.4byte	.LVL9
 2884 00a6 0200     		.2byte	0x2
 2885 00a8 30       		.byte	0x30
 2886 00a9 9F       		.byte	0x9f
 2887 00aa 00000000 		.4byte	0
 2888 00ae 00000000 		.4byte	0
 2889              	.LLST4:
 2890 00b2 0C000000 		.4byte	.LVL12
 2891 00b6 16000000 		.4byte	.LVL13
 2892 00ba 0100     		.2byte	0x1
 2893 00bc 52       		.byte	0x52
 2894 00bd 2A000000 		.4byte	.LVL16
 2895 00c1 2F000000 		.4byte	.LVL17-1
 2896 00c5 0100     		.2byte	0x1
 2897 00c7 52       		.byte	0x52
 2898 00c8 00000000 		.4byte	0
 2899 00cc 00000000 		.4byte	0
 2900              	.LLST5:
 2901 00d0 16000000 		.4byte	.LVL13
 2902 00d4 20000000 		.4byte	.LVL14
 2903 00d8 0100     		.2byte	0x1
 2904 00da 53       		.byte	0x53
 2905 00db 20000000 		.4byte	.LVL14
 2906 00df 2A000000 		.4byte	.LVL16
 2907 00e3 0200     		.2byte	0x2
 2908 00e5 71       		.byte	0x71
 2909 00e6 04       		.sleb128 4
 2910 00e7 00000000 		.4byte	0
 2911 00eb 00000000 		.4byte	0
 2912              	.LLST6:
 2913 00ef 16000000 		.4byte	.LVL13
 2914 00f3 2A000000 		.4byte	.LVL16
 2915 00f7 0100     		.2byte	0x1
 2916 00f9 50       		.byte	0x50
 2917 00fa 00000000 		.4byte	0
 2918 00fe 00000000 		.4byte	0
 2919              	.LLST7:
 2920 0102 24000000 		.4byte	.LVL15
 2921 0106 2A000000 		.4byte	.LVL16
 2922 010a 0200     		.2byte	0x2
 2923 010c 30       		.byte	0x30
 2924 010d 9F       		.byte	0x9f
ARM GAS  /tmp/ccCbDWNk.s 			page 80


 2925 010e 00000000 		.4byte	0
 2926 0112 00000000 		.4byte	0
 2927              	.LLST8:
 2928 0116 00000000 		.4byte	.LVL18
 2929 011a 0B000000 		.4byte	.LVL20-1
 2930 011e 0100     		.2byte	0x1
 2931 0120 50       		.byte	0x50
 2932 0121 0B000000 		.4byte	.LVL20-1
 2933 0125 14000000 		.4byte	.LFE241
 2934 0129 0400     		.2byte	0x4
 2935 012b F3       		.byte	0xf3
 2936 012c 01       		.uleb128 0x1
 2937 012d 50       		.byte	0x50
 2938 012e 9F       		.byte	0x9f
 2939 012f 00000000 		.4byte	0
 2940 0133 00000000 		.4byte	0
 2941              	.LLST9:
 2942 0137 00000000 		.4byte	.LVL18
 2943 013b 0B000000 		.4byte	.LVL20-1
 2944 013f 0100     		.2byte	0x1
 2945 0141 51       		.byte	0x51
 2946 0142 0B000000 		.4byte	.LVL20-1
 2947 0146 14000000 		.4byte	.LFE241
 2948 014a 0400     		.2byte	0x4
 2949 014c F3       		.byte	0xf3
 2950 014d 01       		.uleb128 0x1
 2951 014e 51       		.byte	0x51
 2952 014f 9F       		.byte	0x9f
 2953 0150 00000000 		.4byte	0
 2954 0154 00000000 		.4byte	0
 2955              	.LLST10:
 2956 0158 08000000 		.4byte	.LVL19
 2957 015c 0B000000 		.4byte	.LVL20-1
 2958 0160 0100     		.2byte	0x1
 2959 0162 51       		.byte	0x51
 2960 0163 0B000000 		.4byte	.LVL20-1
 2961 0167 14000000 		.4byte	.LFE241
 2962 016b 0400     		.2byte	0x4
 2963 016d F3       		.byte	0xf3
 2964 016e 01       		.uleb128 0x1
 2965 016f 51       		.byte	0x51
 2966 0170 9F       		.byte	0x9f
 2967 0171 00000000 		.4byte	0
 2968 0175 00000000 		.4byte	0
 2969              	.LLST11:
 2970 0179 08000000 		.4byte	.LVL19
 2971 017d 0B000000 		.4byte	.LVL20-1
 2972 0181 0100     		.2byte	0x1
 2973 0183 50       		.byte	0x50
 2974 0184 0B000000 		.4byte	.LVL20-1
 2975 0188 14000000 		.4byte	.LFE241
 2976 018c 0400     		.2byte	0x4
 2977 018e F3       		.byte	0xf3
 2978 018f 01       		.uleb128 0x1
 2979 0190 50       		.byte	0x50
 2980 0191 9F       		.byte	0x9f
 2981 0192 00000000 		.4byte	0
ARM GAS  /tmp/ccCbDWNk.s 			page 81


 2982 0196 00000000 		.4byte	0
 2983              		.section	.debug_aranges,"",%progbits
 2984 0000 2C000000 		.4byte	0x2c
 2985 0004 0200     		.2byte	0x2
 2986 0006 00000000 		.4byte	.Ldebug_info0
 2987 000a 04       		.byte	0x4
 2988 000b 00       		.byte	0
 2989 000c 0000     		.2byte	0
 2990 000e 0000     		.2byte	0
 2991 0010 00000000 		.4byte	.LFB239
 2992 0014 40000000 		.4byte	.LFE239-.LFB239
 2993 0018 00000000 		.4byte	.LFB240
 2994 001c 40000000 		.4byte	.LFE240-.LFB240
 2995 0020 00000000 		.4byte	.LFB241
 2996 0024 14000000 		.4byte	.LFE241-.LFB241
 2997 0028 00000000 		.4byte	0
 2998 002c 00000000 		.4byte	0
 2999              		.section	.debug_ranges,"",%progbits
 3000              	.Ldebug_ranges0:
 3001 0000 04000000 		.4byte	.LBB52
 3002 0004 06000000 		.4byte	.LBE52
 3003 0008 08000000 		.4byte	.LBB59
 3004 000c 0C000000 		.4byte	.LBE59
 3005 0010 00000000 		.4byte	0
 3006 0014 00000000 		.4byte	0
 3007 0018 12000000 		.4byte	.LBB60
 3008 001c 16000000 		.4byte	.LBE60
 3009 0020 1C000000 		.4byte	.LBB63
 3010 0024 22000000 		.4byte	.LBE63
 3011 0028 00000000 		.4byte	0
 3012 002c 00000000 		.4byte	0
 3013 0030 16000000 		.4byte	.LBB75
 3014 0034 1A000000 		.4byte	.LBE75
 3015 0038 1C000000 		.4byte	.LBB78
 3016 003c 1E000000 		.4byte	.LBE78
 3017 0040 00000000 		.4byte	0
 3018 0044 00000000 		.4byte	0
 3019 0048 1E000000 		.4byte	.LBB79
 3020 004c 20000000 		.4byte	.LBE79
 3021 0050 24000000 		.4byte	.LBB88
 3022 0054 28000000 		.4byte	.LBE88
 3023 0058 00000000 		.4byte	0
 3024 005c 00000000 		.4byte	0
 3025 0060 00000000 		.4byte	.LFB239
 3026 0064 40000000 		.4byte	.LFE239
 3027 0068 00000000 		.4byte	.LFB240
 3028 006c 40000000 		.4byte	.LFE240
 3029 0070 00000000 		.4byte	.LFB241
 3030 0074 14000000 		.4byte	.LFE241
 3031 0078 00000000 		.4byte	0
 3032 007c 00000000 		.4byte	0
 3033              		.section	.debug_line,"",%progbits
 3034              	.Ldebug_line0:
 3035 0000 2A030000 		.section	.debug_str,"MS",%progbits,1
 3035      02005902 
 3035      00000201 
 3035      FB0E0D00 
ARM GAS  /tmp/ccCbDWNk.s 			page 82


 3035      01010101 
 3036              	.LASF45:
 3037 0000 63685F74 		.ascii	"ch_threads_list\000"
 3037      68726561 
 3037      64735F6C 
 3037      69737400 
 3038              	.LASF82:
 3039 0010 77746D74 		.ascii	"wtmtxp\000"
 3039      787000
 3040              	.LASF75:
 3041 0017 746D5F63 		.ascii	"tm_calibration_t\000"
 3041      616C6962 
 3041      72617469 
 3041      6F6E5F74 
 3041      00
 3042              	.LASF70:
 3043 0028 72656761 		.ascii	"regarm_t\000"
 3043      726D5F74 
 3043      00
 3044              	.LASF34:
 3045 0031 666C6167 		.ascii	"flags\000"
 3045      7300
 3046              	.LASF25:
 3047 0037 73797374 		.ascii	"systime_t\000"
 3047      696D655F 
 3047      7400
 3048              	.LASF40:
 3049 0041 7265616C 		.ascii	"realprio\000"
 3049      7072696F 
 3049      00
 3050              	.LASF38:
 3051 004a 6570656E 		.ascii	"epending\000"
 3051      64696E67 
 3051      00
 3052              	.LASF0:
 3053 0053 756E7369 		.ascii	"unsigned int\000"
 3053      676E6564 
 3053      20696E74 
 3053      00
 3054              	.LASF46:
 3055 0060 6E657874 		.ascii	"next\000"
 3055      00
 3056              	.LASF43:
 3057 0065 74687265 		.ascii	"threads_list_t\000"
 3057      6164735F 
 3057      6C697374 
 3057      5F7400
 3058              	.LASF6:
 3059 0074 5F5F696E 		.ascii	"__int32_t\000"
 3059      7433325F 
 3059      7400
 3060              	.LASF35:
 3061 007e 72656673 		.ascii	"refs\000"
 3061      00
 3062              	.LASF101:
 3063 0083 63684D73 		.ascii	"chMsgSend\000"
 3063      6753656E 
ARM GAS  /tmp/ccCbDWNk.s 			page 83


 3063      6400
 3064              	.LASF78:
 3065 008d 77746F62 		.ascii	"wtobjp\000"
 3065      6A7000
 3066              	.LASF89:
 3067 0094 706F7274 		.ascii	"port_lock\000"
 3067      5F6C6F63 
 3067      6B00
 3068              	.LASF67:
 3069 009e 76746C69 		.ascii	"vtlist\000"
 3069      737400
 3070              	.LASF72:
 3071 00a5 706F7274 		.ascii	"port_context\000"
 3071      5F636F6E 
 3071      74657874 
 3071      00
 3072              	.LASF51:
 3073 00b2 63685F72 		.ascii	"ch_ready_list\000"
 3073      65616479 
 3073      5F6C6973 
 3073      7400
 3074              	.LASF57:
 3075 00c0 66756E63 		.ascii	"func\000"
 3075      00
 3076              	.LASF83:
 3077 00c5 65776D61 		.ascii	"ewmask\000"
 3077      736B00
 3078              	.LASF49:
 3079 00cc 70726576 		.ascii	"prev\000"
 3079      00
 3080              	.LASF48:
 3081 00d1 63685F74 		.ascii	"ch_threads_queue\000"
 3081      68726561 
 3081      64735F71 
 3081      75657565 
 3081      00
 3082              	.LASF53:
 3083 00e2 76746675 		.ascii	"vtfunc_t\000"
 3083      6E635F74 
 3083      00
 3084              	.LASF109:
 3085 00eb 63684D73 		.ascii	"chMsgRelease\000"
 3085      6752656C 
 3085      65617365 
 3085      00
 3086              	.LASF111:
 3087 00f8 63685363 		.ascii	"chSchReadyI\000"
 3087      68526561 
 3087      64794900 
 3088              	.LASF62:
 3089 0104 63685F73 		.ascii	"ch_system_debug\000"
 3089      79737465 
 3089      6D5F6465 
 3089      62756700 
 3090              	.LASF15:
 3091 0114 75696E74 		.ascii	"uint32_t\000"
 3091      33325F74 
ARM GAS  /tmp/ccCbDWNk.s 			page 84


 3091      00
 3092              	.LASF80:
 3093 011d 73656E74 		.ascii	"sentmsg\000"
 3093      6D736700 
 3094              	.LASF23:
 3095 0125 6576656E 		.ascii	"eventmask_t\000"
 3095      746D6173 
 3095      6B5F7400 
 3096              	.LASF84:
 3097 0131 63685F73 		.ascii	"ch_semaphore\000"
 3097      656D6170 
 3097      686F7265 
 3097      00
 3098              	.LASF21:
 3099 013e 74707269 		.ascii	"tprio_t\000"
 3099      6F5F7400 
 3100              	.LASF55:
 3101 0146 63685F76 		.ascii	"ch_virtual_timer\000"
 3101      69727475 
 3101      616C5F74 
 3101      696D6572 
 3101      00
 3102              	.LASF12:
 3103 0157 6C6F6E67 		.ascii	"long long unsigned int\000"
 3103      206C6F6E 
 3103      6720756E 
 3103      7369676E 
 3103      65642069 
 3104              	.LASF24:
 3105 016e 636E745F 		.ascii	"cnt_t\000"
 3105      7400
 3106              	.LASF95:
 3107 0174 63685379 		.ascii	"chSysUnlock\000"
 3107      73556E6C 
 3107      6F636B00 
 3108              	.LASF86:
 3109 0180 6F776E65 		.ascii	"owner\000"
 3109      7200
 3110              	.LASF47:
 3111 0186 74687265 		.ascii	"threads_queue_t\000"
 3111      6164735F 
 3111      71756575 
 3111      655F7400 
 3112              	.LASF94:
 3113 0196 76616C75 		.ascii	"value\000"
 3113      6500
 3114              	.LASF39:
 3115 019c 6D74786C 		.ascii	"mtxlist\000"
 3115      69737400 
 3116              	.LASF59:
 3117 01a4 63685F76 		.ascii	"ch_virtual_timers_list\000"
 3117      69727475 
 3117      616C5F74 
 3117      696D6572 
 3117      735F6C69 
 3118              	.LASF103:
 3119 01bb 5F5F6675 		.ascii	"__func__.6377\000"
ARM GAS  /tmp/ccCbDWNk.s 			page 85


 3119      6E635F5F 
 3119      2E363337 
 3119      3700
 3120              	.LASF26:
 3121 01c9 74687265 		.ascii	"thread_t\000"
 3121      61645F74 
 3121      00
 3122              	.LASF76:
 3123 01d2 7264796D 		.ascii	"rdymsg\000"
 3123      736700
 3124              	.LASF74:
 3125 01d9 6F666673 		.ascii	"offset\000"
 3125      657400
 3126              	.LASF96:
 3127 01e0 5F426F6F 		.ascii	"_Bool\000"
 3127      6C00
 3128              	.LASF99:
 3129 01e6 5F5F6675 		.ascii	"__func__.5702\000"
 3129      6E635F5F 
 3129      2E353730 
 3129      3200
 3130              	.LASF85:
 3131 01f4 63685F6D 		.ascii	"ch_mutex\000"
 3131      75746578 
 3131      00
 3132              	.LASF11:
 3133 01fd 5F5F7569 		.ascii	"__uint64_t\000"
 3133      6E743634 
 3133      5F7400
 3134              	.LASF108:
 3135 0208 2F6E6673 		.ascii	"/nfs/nfs7/home/npalumbo/p442-submissions/lab3\000"
 3135      2F6E6673 
 3135      372F686F 
 3135      6D652F6E 
 3135      70616C75 
 3136              	.LASF91:
 3137 0236 63685379 		.ascii	"chSysLock\000"
 3137      734C6F63 
 3137      6B00
 3138              	.LASF97:
 3139 0240 63684D73 		.ascii	"chMsgIsPendingI\000"
 3139      67497350 
 3139      656E6469 
 3139      6E674900 
 3140              	.LASF28:
 3141 0250 7072696F 		.ascii	"prio\000"
 3141      00
 3142              	.LASF87:
 3143 0255 63686172 		.ascii	"char\000"
 3143      00
 3144              	.LASF42:
 3145 025a 74687265 		.ascii	"thread_reference_t\000"
 3145      61645F72 
 3145      65666572 
 3145      656E6365 
 3145      5F7400
 3146              	.LASF32:
ARM GAS  /tmp/ccCbDWNk.s 			page 86


 3147 026d 77616261 		.ascii	"wabase\000"
 3147      736500
 3148              	.LASF19:
 3149 0274 74737461 		.ascii	"tstate_t\000"
 3149      74655F74 
 3149      00
 3150              	.LASF13:
 3151 027d 75696E74 		.ascii	"uint8_t\000"
 3151      385F7400 
 3152              	.LASF37:
 3153 0285 6D736771 		.ascii	"msgqueue\000"
 3153      75657565 
 3153      00
 3154              	.LASF44:
 3155 028e 63685F74 		.ascii	"ch_thread\000"
 3155      68726561 
 3155      6400
 3156              	.LASF61:
 3157 0298 73797374 		.ascii	"system_debug_t\000"
 3157      656D5F64 
 3157      65627567 
 3157      5F7400
 3158              	.LASF107:
 3159 02a7 2E2E2F43 		.ascii	"../ChibiOS/os/rt/src/chmsg.c\000"
 3159      68696269 
 3159      4F532F6F 
 3159      732F7274 
 3159      2F737263 
 3160              	.LASF10:
 3161 02c4 6C6F6E67 		.ascii	"long long int\000"
 3161      206C6F6E 
 3161      6720696E 
 3161      7400
 3162              	.LASF22:
 3163 02d2 6D73675F 		.ascii	"msg_t\000"
 3163      7400
 3164              	.LASF102:
 3165 02d8 63684D73 		.ascii	"chMsgWait\000"
 3165      67576169 
 3165      7400
 3166              	.LASF54:
 3167 02e2 76697274 		.ascii	"virtual_timer_t\000"
 3167      75616C5F 
 3167      74696D65 
 3167      725F7400 
 3168              	.LASF98:
 3169 02f2 71756575 		.ascii	"queue_fifo_remove\000"
 3169      655F6669 
 3169      666F5F72 
 3169      656D6F76 
 3169      6500
 3170              	.LASF63:
 3171 0304 70616E69 		.ascii	"panic_msg\000"
 3171      635F6D73 
 3171      6700
 3172              	.LASF18:
 3173 030e 746D6F64 		.ascii	"tmode_t\000"
ARM GAS  /tmp/ccCbDWNk.s 			page 87


 3173      655F7400 
 3174              	.LASF68:
 3175 0316 6D61696E 		.ascii	"mainthread\000"
 3175      74687265 
 3175      616400
 3176              	.LASF17:
 3177 0321 7274636E 		.ascii	"rtcnt_t\000"
 3177      745F7400 
 3178              	.LASF3:
 3179 0329 73686F72 		.ascii	"short int\000"
 3179      7420696E 
 3179      7400
 3180              	.LASF7:
 3181 0333 6C6F6E67 		.ascii	"long int\000"
 3181      20696E74 
 3181      00
 3182              	.LASF73:
 3183 033c 706F7274 		.ascii	"port_intctx\000"
 3183      5F696E74 
 3183      63747800 
 3184              	.LASF105:
 3185 0348 49544D5F 		.ascii	"ITM_RxBuffer\000"
 3185      52784275 
 3185      66666572 
 3185      00
 3186              	.LASF65:
 3187 0355 63685F73 		.ascii	"ch_system\000"
 3187      79737465 
 3187      6D00
 3188              	.LASF92:
 3189 035f 5F5F7365 		.ascii	"__set_BASEPRI\000"
 3189      745F4241 
 3189      53455052 
 3189      4900
 3190              	.LASF60:
 3191 036d 6C617374 		.ascii	"lasttime\000"
 3191      74696D65 
 3191      00
 3192              	.LASF16:
 3193 0376 75696E74 		.ascii	"uint64_t\000"
 3193      36345F74 
 3193      00
 3194              	.LASF66:
 3195 037f 726C6973 		.ascii	"rlist\000"
 3195      7400
 3196              	.LASF5:
 3197 0385 5F5F7569 		.ascii	"__uint8_t\000"
 3197      6E74385F 
 3197      7400
 3198              	.LASF31:
 3199 038f 6E616D65 		.ascii	"name\000"
 3199      00
 3200              	.LASF110:
 3201 0394 63685363 		.ascii	"chSchGoSleepS\000"
 3201      68476F53 
 3201      6C656570 
 3201      5300
ARM GAS  /tmp/ccCbDWNk.s 			page 88


 3202              	.LASF106:
 3203 03a2 474E5520 		.ascii	"GNU C 4.8.4 20140526 (release) [ARM/embedded-4_8-br"
 3203      4320342E 
 3203      382E3420 
 3203      32303134 
 3203      30353236 
 3204 03d5 616E6368 		.ascii	"anch revision 211358] -mcpu=cortex-m4 -mno-thumb-in"
 3204      20726576 
 3204      6973696F 
 3204      6E203231 
 3204      31333538 
 3205 0408 74657277 		.ascii	"terwork -mthumb -ggdb -O2 -fomit-frame-pointer -fal"
 3205      6F726B20 
 3205      2D6D7468 
 3205      756D6220 
 3205      2D676764 
 3206 043b 69676E2D 		.ascii	"ign-functions=16 -ffunction-sections -fdata-section"
 3206      66756E63 
 3206      74696F6E 
 3206      733D3136 
 3206      202D6666 
 3207 046e 73202D66 		.ascii	"s -fno-common -flto\000"
 3207      6E6F2D63 
 3207      6F6D6D6F 
 3207      6E202D66 
 3207      6C746F00 
 3208              	.LASF69:
 3209 0482 73697A65 		.ascii	"sizetype\000"
 3209      74797065 
 3209      00
 3210              	.LASF20:
 3211 048b 74726566 		.ascii	"trefs_t\000"
 3211      735F7400 
 3212              	.LASF9:
 3213 0493 6C6F6E67 		.ascii	"long unsigned int\000"
 3213      20756E73 
 3213      69676E65 
 3213      6420696E 
 3213      7400
 3214              	.LASF50:
 3215 04a5 72656164 		.ascii	"ready_list_t\000"
 3215      795F6C69 
 3215      73745F74 
 3215      00
 3216              	.LASF27:
 3217 04b2 71756575 		.ascii	"queue\000"
 3217      6500
 3218              	.LASF14:
 3219 04b8 696E7433 		.ascii	"int32_t\000"
 3219      325F7400 
 3220              	.LASF81:
 3221 04c0 77747365 		.ascii	"wtsemp\000"
 3221      6D7000
 3222              	.LASF88:
 3223 04c7 6D757465 		.ascii	"mutex_t\000"
 3223      785F7400 
 3224              	.LASF29:
ARM GAS  /tmp/ccCbDWNk.s 			page 89


 3225 04cf 6E657765 		.ascii	"newer\000"
 3225      7200
 3226              	.LASF2:
 3227 04d5 756E7369 		.ascii	"unsigned char\000"
 3227      676E6564 
 3227      20636861 
 3227      7200
 3228              	.LASF8:
 3229 04e3 5F5F7569 		.ascii	"__uint32_t\000"
 3229      6E743332 
 3229      5F7400
 3230              	.LASF36:
 3231 04ee 77616974 		.ascii	"waiting\000"
 3231      696E6700 
 3232              	.LASF58:
 3233 04f6 76697274 		.ascii	"virtual_timers_list_t\000"
 3233      75616C5F 
 3233      74696D65 
 3233      72735F6C 
 3233      6973745F 
 3234              	.LASF100:
 3235 050c 63684D73 		.ascii	"chMsgReleaseS\000"
 3235      6752656C 
 3235      65617365 
 3235      5300
 3236              	.LASF112:
 3237 051a 63685363 		.ascii	"chSchWakeupS\000"
 3237      6857616B 
 3237      65757053 
 3237      00
 3238              	.LASF104:
 3239 0527 5F5F6675 		.ascii	"__func__.6386\000"
 3239      6E635F5F 
 3239      2E363338 
 3239      3600
 3240              	.LASF33:
 3241 0535 73746174 		.ascii	"state\000"
 3241      6500
 3242              	.LASF64:
 3243 053b 63685F73 		.ascii	"ch_system_t\000"
 3243      79737465 
 3243      6D5F7400 
 3244              	.LASF79:
 3245 0547 77747472 		.ascii	"wttrp\000"
 3245      7000
 3246              	.LASF1:
 3247 054d 7369676E 		.ascii	"signed char\000"
 3247      65642063 
 3247      68617200 
 3248              	.LASF56:
 3249 0559 64656C74 		.ascii	"delta\000"
 3249      6100
 3250              	.LASF4:
 3251 055f 73686F72 		.ascii	"short unsigned int\000"
 3251      7420756E 
 3251      7369676E 
 3251      65642069 
ARM GAS  /tmp/ccCbDWNk.s 			page 90


 3251      6E7400
 3252              	.LASF93:
 3253 0572 71756575 		.ascii	"queue_insert\000"
 3253      655F696E 
 3253      73657274 
 3253      00
 3254              	.LASF71:
 3255 057f 73746B61 		.ascii	"stkalign_t\000"
 3255      6C69676E 
 3255      5F7400
 3256              	.LASF52:
 3257 058a 63757272 		.ascii	"current\000"
 3257      656E7400 
 3258              	.LASF90:
 3259 0592 706F7274 		.ascii	"port_unlock\000"
 3259      5F756E6C 
 3259      6F636B00 
 3260              	.LASF30:
 3261 059e 6F6C6465 		.ascii	"older\000"
 3261      7200
 3262              	.LASF77:
 3263 05a4 65786974 		.ascii	"exitcode\000"
 3263      636F6465 
 3263      00
 3264              	.LASF41:
 3265 05ad 6D706F6F 		.ascii	"mpool\000"
 3265      6C00
 3266              		.comm	__gnu_lto_v1,1,1
 3267              		.ident	"GCC: (GNU Tools for ARM Embedded Processors) 4.8.4 20140526 (release) [ARM/embedded-4_8-br
ARM GAS  /tmp/ccCbDWNk.s 			page 91


DEFINED SYMBOLS
                            *ABS*:00000000 chmsg.c
     /tmp/ccCbDWNk.s:468    .text.chMsgSend:00000000 $t
     /tmp/ccCbDWNk.s:474    .text.chMsgSend:00000000 chMsgSend
     /tmp/ccCbDWNk.s:585    .text.chMsgSend:0000003c $d
     /tmp/ccCbDWNk.s:590    .text.chMsgWait:00000000 $t
     /tmp/ccCbDWNk.s:596    .text.chMsgWait:00000000 chMsgWait
     /tmp/ccCbDWNk.s:699    .text.chMsgWait:0000003c $d
     /tmp/ccCbDWNk.s:704    .text.chMsgRelease:00000000 $t
     /tmp/ccCbDWNk.s:710    .text.chMsgRelease:00000000 chMsgRelease
                            *COM*:00000001 __gnu_lto_v1
                     .debug_frame:00000010 $d

UNDEFINED SYMBOLS
chSchGoSleepS
chSchReadyI
ch
chSchWakeupS
