ARM GAS  /tmp/cc5vF1xZ.s 			page 1


   1              		.syntax unified
   2              		.cpu cortex-m4
   3              		.fpu softvfp
   4              		.eabi_attribute 20, 1
   5              		.eabi_attribute 21, 1
   6              		.eabi_attribute 23, 3
   7              		.eabi_attribute 24, 1
   8              		.eabi_attribute 25, 1
   9              		.eabi_attribute 26, 1
  10              		.eabi_attribute 30, 2
  11              		.eabi_attribute 34, 1
  12              		.eabi_attribute 18, 4
  13              		.thumb
  14              		.file	"crt1.c"
  15              		.text
  16              	.Ltext0:
  17              		.section	.gnu.lto_.jmpfuncs.7fd504ddbc6df086,"",%progbits
  18 0000 789C6362 		.ascii	"x\234cb`b\300\006x\2404+\003\003#P\0113\003\013\003"
  18      6062C006 
  18      78A0342B 
  18      03032350 
  18      0933030B 
  19 0015 03000236 		.ascii	"\003\000\0026\000 "
  19      0020
  20              		.text
  21              		.section	.gnu.lto_.inline.7fd504ddbc6df086,"",%progbits
  22 0000 789C6362 		.ascii	"x\234cb`b\300\006\342\2414+\003\0033\023#X\021\333\002"
  22      6062C006 
  22      E2A1342B 
  22      03033313 
  22      235811DB 
  23 0015 79B05A46 		.ascii	"y\260ZF\014\021&\014\021f \017\"\302\002\261\200\205"
  23      0C11260C 
  23      1166200F 
  23      22C202B1 
  23      8085
  24 0027 41E41527 		.ascii	"A\344\025'PD\251m\321LF\2702\006\000\3774\006\240"
  24      5044A96D 
  24      D14C46B8 
  24      320600FF 
  24      3406A0
  25              		.text
  26              		.section	.gnu.lto_.pureconst.7fd504ddbc6df086,"",%progbits
  27 0000 789C6362 		.ascii	"x\234cb`b\340f\200\000V\006\011F\011&\011f\023\026)"
  27      6062E066 
  27      80005606 
  27      09460926 
  27      09661316 
  28 0015 00044D00 		.ascii	"\000\004M\000\265"
  28      B5
  29              		.text
  30              		.section	.gnu.lto___core_init.7fd504ddbc6df086,"",%progbits
  31 0000 789C6362 		.ascii	"x\234cb`b@\007\222@\034\014\304\326@\314\310\314\300"
  31      60624007 
  31      92401C0C 
  31      C4D640CC 
  31      C8CCC0
ARM GAS  /tmp/cc5vF1xZ.s 			page 2


  32 0013 C834E11C 		.ascii	"\3104\341\034\003C#\007\023##\210\301\300\310P\317\304"
  32      03432307 
  32      13232388 
  32      C1C0C850 
  32      CFC4
  33 0025 581FC908 		.ascii	"X\037\311\010V\273\236\351\300\203\377\377\327m\350"
  33      56BB9EE9 
  33      C083FFFF 
  33      D76DE8
  34 0034 9AF38671 		.ascii	"\232\363\206q%\023\310,V\206\226\206\206\011\012\014"
  34      2513C82C 
  34      56869686 
  34      86090A0C 
  35 0044 0CC96015 		.ascii	"\014\311`\025!@\022\244-\224\221\011D3_d`Ld\\\310\310"
  35      214012A4 
  35      2D949109 
  35      44335F64 
  35      604C645C 
  36 005a 0AB72D84 		.ascii	"\012\267-\204\221\021$\001\322j\251\247\247\357\234"
  36      91112401 
  36      D26AA9A7 
  36      A7EF9C
  37 0069 919994E9 		.ascii	"\221\231\224\351\037\254\237_\254\237\234\237\233\233"
  37      1FAC9F5F 
  37      AC9F9C9F 
  37      9B9B
  38 0077 9FA75F5C 		.ascii	"\237\247_\\\222XTRZ\240\357\030\344\353\354[\001\022"
  38      92585452 
  38      5AA0EF18 
  38      E4EBEC5B 
  38      0112
  39 0089 2DC8CC49 		.ascii	"-\310\314I-*\326wwv\326O.*1\324Kf\000\000<:*\371"
  39      2D2AD677 
  39      7776D64F 
  39      2E2A31D4 
  39      4B660000 
  40              		.text
  41              		.section	.gnu.lto___early_init.7fd504ddbc6df086,"",%progbits
  42 0000 789C6362 		.ascii	"x\234cb`b@\007\222@\034\000\304\326@\314\310\314\300"
  42      60624007 
  42      92401C00 
  42      C4D640CC 
  42      C8CCC0
  43 0013 C834E11C 		.ascii	"\3104\341\034\003C#\007\023##\210\301\300\310P\317\304"
  43      03432307 
  43      13232388 
  43      C1C0C850 
  43      CFC4
  44 0025 581FC908 		.ascii	"X\037\311\010V\273\236\351\300\203\377\377\327};5G\002"
  44      56BB9EE9 
  44      C083FFFF 
  44      D77D3B35 
  44      4702
  45 0037 64102B43 		.ascii	"d\020+CKC\303\004\005\006\206d\260t\010\220\004\351"
  45      4B43C304 
  45      05068664 
  45      B0740890 
ARM GAS  /tmp/cc5vF1xZ.s 			page 3


  45      04E9
  46 0049 09656402 		.ascii	"\011ed\002\321\314\027\031\030\023\031\0272\262\302"
  46      D1CC1719 
  46      18131917 
  46      32B2C2
  47 0058 AD0A6164 		.ascii	"\255\012ad\004I\200\264Z\352\351\351;gd&e\372\007\353"
  47      044980B4 
  47      5AEAE9E9 
  47      3B676426 
  47      65FA07EB 
  48 006c E717EB27 		.ascii	"\347\027\353'\347\347\346\346\347\351\027\227$\026\225"
  48      E7E7E6E6 
  48      E7E91797 
  48      241695
  49 007b 9416E83B 		.ascii	"\224\026\350;\006\371:\373V\200D\0132sR\213\212\365"
  49      06F93AFB 
  49      5680440B 
  49      3273528B 
  49      8AF5
  50 008d DD9D9DF5 		.ascii	"\335\235\235\365\223\213J\014\365\222\031\000\234e)"
  50      938B4A0C 
  50      F5921900 
  50      9C6529
  51 009c FC       		.ascii	"\374"
  52              		.text
  53              		.section	.gnu.lto___late_init.7fd504ddbc6df086,"",%progbits
  54 0000 789C6362 		.ascii	"x\234cb`b@\007\222@\034\000\304\326@\314\310\314\300"
  54      60624007 
  54      92401C00 
  54      C4D640CC 
  54      C8CCC0
  55 0013 C834E11C 		.ascii	"\3104\341\034\003C#\007\023##\210\301\300\310P\317\304"
  55      03432307 
  55      13232388 
  55      C1C0C850 
  55      CFC4
  56 0025 581FC908 		.ascii	"X\037\311\010V\273\236\351\300\203\377\377\327m\352"
  56      56BB9EE9 
  56      C083FFFF 
  56      D76DEA
  57 0034 9E230132 		.ascii	"\236#\0012\210\225\241\245\241a\202\002\003C2X:\004"
  57      8895A1A5 
  57      A1618202 
  57      03433258 
  57      3A04
  58 0046 4882F484 		.ascii	"H\202\364\20422\201h\346\213\014\214\211\214\013\031"
  58      32328168 
  58      E68B0C8C 
  58      898C0B19 
  59 0056 59E15685 		.ascii	"Y\341V\20502\202$@Z-\365\364\364\23532\2232\375\203"
  59      30328224 
  59      405A2DF5 
  59      F4F49D33 
  59      329332FD 
  60 006b F5F38BF5 		.ascii	"\365\363\213\365\223\363ss\363\363\364\213K\022\213"
  60      93F37373 
  60      F3F3F48B 
ARM GAS  /tmp/cc5vF1xZ.s 			page 4


  60      4B128B
  61 007a 4A4A0BF4 		.ascii	"JJ\013\364\035\203|\235}+@\242\005\2319\251E\305\372"
  61      1D837C9D 
  61      7D2B40A2 
  61      059939A9 
  61      45C5FA
  62 008d EECECEFA 		.ascii	"\356\316\316\372\311E%\206z\311\014\000\\\255)y"
  62      C9452586 
  62      7AC90C00 
  62      5CAD2979 
  63              		.text
  64              		.section	.gnu.lto___default_exit.7fd504ddbc6df086,"",%progbits
  65 0000 789C6362 		.ascii	"x\234cb`b@\007:@\354\003\304\326@\314\310\312\300\310"
  65      60624007 
  65      3A40EC03 
  65      C4D640CC 
  65      C8CAC0C8 
  66 0014 34E11C03 		.ascii	"4\341\034\003C#\007\023#3\210\301\310\314\310\002\021"
  66      43230713 
  66      233388C1 
  66      C8CCC802 
  66      11
  67 0025 60810838 		.ascii	"`\201\010822\32431\2630\326G2\202\265\257g:\360\340"
  67      3232D433 
  67      31B330D6 
  67      473282B5 
  67      AF673AF0 
  68 003a FFFF7577 		.ascii	"\377\377uwN\317\335\303\270\236\011$\306\312\320\322"
  68      4ECFDDC3 
  68      B89E0924 
  68      C6CAD0D2 
  69 004a D0304181 		.ascii	"\3200A\201\201!\031\254\"\004H2\002I&\240Y!\214\314"
  69      812119AC 
  69      22044832 
  69      024926A0 
  69      59218CCC 
  70 005e 0C404318 		.ascii	"\014@C\030C\030Y\2404\304\020\006K==}\347\214\314\244"
  70      431859A0 
  70      34C41006 
  70      4B3D3D7D 
  70      E78CCCA4 
  71 0072 4CFF60FD 		.ascii	"L\377`\375\374b\375\344\374\334\334\374<\375\342\222"
  71      FC62FDE4 
  71      FCDCDCFC 
  71      3CFDE292 
  72 0082 C4A292D2 		.ascii	"\304\242\222\322\002}\307 _g\337\012\220hAfNjQ\261\276"
  72      027DC720 
  72      5F67DF0A 
  72      90684166 
  72      4E6A51B1 
  73 0097 BBB3B37E 		.ascii	"\273\263\263~rQ\211\241^2\003\000p\350,c"
  73      725189A1 
  73      5E320300 
  73      70E82C63 
  74              		.text
  75              		.section	.gnu.lto___init_ram_areas.7fd504ddbc6df086,"",%progbits
  76 0000 789C8D54 		.ascii	"x\234\215TMhSA\020\236\331}/y\371\251II\004\013\212"
ARM GAS  /tmp/cc5vF1xZ.s 			page 5


  76      4D685341 
  76      109ED97D 
  76      2F79F9A9 
  76      4949040B 
  77 0015 A5081EC4 		.ascii	"\245\010\036\304\006O\"x\260D\360TDmA\017\242i\224\030"
  77      064F2278 
  77      B044F054 
  77      446D410F 
  77      A2699418 
  78 0029 3436F407 		.ascii	"46\364\007\004\205n\332\012\242E\243 T[\241\245\024"
  78      04856EDA 
  78      0AA245A3 
  78      20545BA1 
  78      A514
  79 003b FF0A225E 		.ascii	"\377\012\"^\202xHAi\0135\230cE\241Z\354\241\012R\252"
  79      82784841 
  79      690B3598 
  79      6345A15A 
  79      ECA10A52 
  80 0050 07458CB3 		.ascii	"\007E\214\263o\367%\264\244\352B2\273\363\363\315\314"
  80      6FF725B4 
  80      A4EA4232 
  80      BBF3F3CD 
  80      CC
  81 0061 B73B8F01 		.ascii	"\267;\217\001\203\265\253\217~gM\200\375$\321\017\310"
  81      83B5AB8F 
  81      7E674D80 
  81      FD24D10F 
  81      C8
  82 0072 B205808C 		.ascii	"\262\005\200\214\305\220\253\015GSm\014\265\231\264"
  82      C590AB0D 
  82      47536D0C 
  82      B599B4
  83 0081 4C660C4C 		.ascii	"Lf\014L\001\010\257\253\337\015\302\357BK\352\321\255"
  83      0108AFAB 
  83      DF0DC2EF 
  83      424BEAD1 
  83      AD
  84 0092 E4A46531 		.ascii	"\344\244e1\267\262{l\273\207\371\324\321k\037}\012\270"
  84      B7B27B6C 
  84      BB87F9D4 
  84      D16B1F7D 
  84      0AB8
  85 00a4 C98B2825 		.ascii	"\311\213(% \3640n\230.\267\345\361y\261\347\030\312"
  85      20F4306E 
  85      982EB7E5 
  85      F179B1E7 
  85      18CA
  86 00b6 A278038C 		.ascii	"\242x\003\214\012qk\376\325\307\"\277#\362\375#\342"
  86      0A716BFE 
  86      D5C722BF 
  86      23F2FD23 
  86      E2
  87 00c7 57A98498 		.ascii	"W\251\204\230Dj`/B\034\341(\035\260\336\026\314X\335"
  87      446A602F 
  87      421CE128 
  87      1DB0DE16 
ARM GAS  /tmp/cc5vF1xZ.s 			page 6


  87      CC58DD
  88 00da 918ACD0F 		.ascii	"\221\212\315\017\025n\324\211\221\336\254\370M\241I"
  88      156ED489 
  88      91DEACF8 
  88      4DA149
  89 00e9 E40CF6FD 		.ascii	"\344\014\366\375g\344p\301\237\315\\\021\245R\217\035"
  89      67E470C1 
  89      9FCD5C11 
  89      A5528F1D 
  90 00f9 16FD57D8 		.ascii	"\026\375W\330\023\226\237/\225\006\226\277}\310ah#B"
  90      13969F2F 
  90      950696BF 
  90      7DC86168 
  90      2342
  91 010b 0C47B181 		.ascii	"\014G\261\201*\215\341\030INr\234\244\241\245\245\245"
  91      2A8DE118 
  91      494E729C 
  91      A4A1A5A5 
  91      A5
  92 011c 57DB7DFA 		.ascii	"W\333}\372\354\007\312VC\177F@k\202\332\243VZBZ\031"
  92      EC07CA56 
  92      437F4640 
  92      6B82DAA3 
  92      565A425A 
  93 0131 D6F0B44C 		.ascii	"\326\360\264L\350\027\"[\357\234\3436u-\364_\004hEF"
  93      E817225B 
  93      EF9CE336 
  93      752DF45F 
  93      04684546 
  94 0145 82CF40EF 		.ascii	"\202\317@\357\374\325\251\0151\274\217\246\016\274\010"
  94      FCD5A90D 
  94      31BC8FA6 
  94      0EBC08
  95 0154 3FC5A010 		.ascii	"?\305\240\0207\251\0213\205\225.Z\221C\277[FX\240]\023"
  95      37A91133 
  95      85952E5A 
  95      9143BF5B 
  95      4658A05D 
  96 0169 48F6D7D0 		.ascii	"H\366\327\320\3736\267\360\003\313\331dI\252\026\351"
  96      FB36B7F0 
  96      03CBD964 
  96      49AA16E9 
  97 0179 27816925 		.ascii	"'\201i%\320\273\003\036\211\254\020'\222\350\032\202"
  97      D0BB031E 
  97      89AC1027 
  97      92E81A82 
  98 0189 BB04EFA6 		.ascii	"\273\004\357\246x\311\227\302o+\347\242\024\371\255"
  98      78C997C2 
  98      6F2BE7A2 
  98      14F9AD
  99 0198 317C6897 		.ascii	"1|h\2274f\347\361\252<\323\013\250\364\011\364i\270"
  99      3466E7F1 
  99      AA3CD30B 
  99      A8F409F4 
  99      69B8
 100 01aa E3EBC261 		.ascii	"\343\353\302a5\270q\033\316'\365s\200\252\327\374\355"
 100      35B8711B 
ARM GAS  /tmp/cc5vF1xZ.s 			page 7


 100      CE27F573 
 100      80AAD7FC 
 100      ED
 101 01bb EBDBCACD 		.ascii	"\353\333\312\315\262\007\204\023\366\315~?)[6\200\336"
 101      B2078413 
 101      F6CD7E3F 
 101      295B3680 
 101      DE
 102 01cc 26A7D4CF 		.ascii	"&\247\324\317/\177\036\336\354\344\256Q\011\255\004"
 102      2F7F1EDE 
 102      ECE4AE51 
 102      09AD04
 103 01db 329990EB 		.ascii	"2\231\220\353D\3446\363\306\245\234\310##\204\010\330"
 103      44E436F3 
 103      C6A59CC8 
 103      23238408 
 103      D8
 104 01ec 5EBCE245 		.ascii	"^\274\342E\301\322\261\357Z\337\327\341M\016^@\273\330"
 104      C1D2B1EF 
 104      5ADFD7E1 
 104      4D0E5E40 
 104      BBD8
 105 01fe 0F6706D8 		.ascii	"\017g\006\330\352b\003:`e\270\316\011\010\352\314k\003"
 105      EA62033A 
 105      6065B8CE 
 105      0908EACC 
 105      6B03
 106 0210 145941E7 		.ascii	"\024YA\347\302L\240\021*\337\230B\3436!\266By3}\205"
 106      C24CA011 
 106      2ADF9842 
 106      E33621B6 
 106      4279337D 
 107 0225 8B73CC81 		.ascii	"\213s\314\201\367Kn\203\353\022\353|$\246\341\345bf"
 107      F74B6E83 
 107      EB12EB7C 
 107      24A6E1E5 
 107      6266
 108 0237 77392851 		.ascii	"w9(Q&\202\250etg\374\335\362%\252\306\230]95\007\234"
 108      2682A865 
 108      7467FCDD 
 108      F225AAC6 
 108      985D3935 
 109 024d 58E75FA4 		.ascii	"X\347_\244\"`\274X\261\311u\311\367$\235%E&J\225\333"
 109      2260BC58 
 109      B1C975C9 
 109      F7249D25 
 109      45264A95 
 110 0262 E13B975B 		.ascii	"\341;\227[*b\025*\215\012\225rg)\336\211\235\307\367"
 110      2A62152A 
 110      8D0A9572 
 110      6729DE89 
 110      9DC7F7
 111 0275 CA7486B4 		.ascii	"\312t\206\264[u:C\016;\226d\007W\263c(2\006\227*d\324"
 111      5B753A43 
 111      0E3B9664 
 111      0757B363 
 111      28320697 
ARM GAS  /tmp/cc5vF1xZ.s 			page 8


 112 028c FE9D0C5E 		.ascii	"\376\235\014^\225\214Z\033\312!\303H\240\345BJ\355\236"
 112      958C5A1B 
 112      CA21C348 
 112      A0E5424A 
 112      ED9E
 113 029e 50CFCA23 		.ascii	"P\317\312#;\267\313~\272\305\011\011k`\026\\]\265\032"
 113      3BB7CB7E 
 113      BAC50909 
 113      6B60165C 
 113      5DB51A
 114 02b1 B4B09DE1 		.ascii	"\264\260\235\341\323\344\373\002\252\231\"\225\236\324"
 114      D3E4FB02 
 114      AA992295 
 114      9ED4
 115 02bf 4354CC4E 		.ascii	"CT\314N\230\220\303\320M\365\245\324\267\310cA\265\325"
 115      9890C3D0 
 115      4DF5A5D4 
 115      B7C86341 
 115      B5D5
 116 02d1 426FFF99 		.ascii	"Bo\377\231\013[i\242h\374\213\220\231\317m/\017\251"
 116      0B5B69A2 
 116      68FC8B90 
 116      99CF6D2F 
 116      0FA9
 117 02e3 F64032C9 		.ascii	"\366@2\311;\336\323\330\030\211\236I\266%\017\036\211"
 117      3BDED3D8 
 117      18899E49 
 117      B6250F1E 
 117      89
 118 02f4 B47746E2 		.ascii	"\264wF\342\355\251T\373\371HgW\254\243\253;\035i:\334"
 118      EDA954FB 
 118      F9486757 
 118      ACA3AB3B 
 118      1D693ADC 
 119 0308 1C6DBE20 		.ascii	"\034m\276 \265\351\344\271\323\035\235\221\003\321h"
 119      B5E9E4B9 
 119      D31D9D91 
 119      03D168
 120 0317 24DED1B5 		.ascii	"$\336\321\265\2531\016\274#\226f]iL\377\001e\256V\344"
 120      AB310EBC 
 120      2396665D 
 120      694CFF01 
 120      65AE56E4 
 121              		.text
 122              		.section	.gnu.lto_.symbol_nodes.7fd504ddbc6df086,"",%progbits
 123 0000 789C4DD0 		.ascii	"x\234M\320YN\002Q\020F\341:\267\273\025p\002E@\020u"
 123      594E0251 
 123      1046E13A 
 123      B7BB1570 
 123      02454010 
 124 0015 0F6E825D 		.ascii	"\017n\202]]\024Af\231d\020\004V\304\206D\321?\306H\275"
 124      5D144166 
 124      99641004 
 124      56C48644 
 124      D13FC648 
 125 002a 7C39A9A4 		.ascii	"|9\251\244\036\312\231\263{\354w\334\326\274Yoc\346"
 125      1ECA99B3 
ARM GAS  /tmp/cc5vF1xZ.s 			page 9


 125      7BEC77DC 
 125      D6BC596F 
 125      63E6
 126 003c FDB28EFB 		.ascii	"\375\262\216\3734\317^~\231w{\2713\037\374e\311\225"
 126      34CF5E7E 
 126      99777BB9 
 126      331FFC65 
 126      C995
 127 004e F1E1FF32 		.ascii	"\361\341\3772\3720\013}\020=\300\317\311\350\021'*\004"
 127      FA300B7D 
 127      103DC0CF 
 127      C9E81127 
 127      2A04
 128 0060 E2895054 		.ascii	"\342\211PT\211D\215\003\361\314\241\250\023\023\015"
 128      89448D03 
 128      F1CCA1A8 
 128      13130D
 129 006f E2A24942 		.ascii	"\342\242IB\2648\022m\216E\207\023\321\345T\274p&z$E"
 129      B438126D 
 129      8E458713 
 129      D1E554BC 
 129      70267A24 
 130 0084 9F941870 		.ascii	"\237\224\030p.\206\\\210\021i\361\312\245\030\223\021"
 130      2E865C88 
 130      1169F1CA 
 130      A5189311 
 131 0094 13B2624A 		.ascii	"\023\262bJN\314\270\022o\344\305\234\202Xp-\336)\212"
 131      4ECCB812 
 131      6FE4C59C 
 131      8258702D 
 131      DE298A
 132 00a7 253762C5 		.ascii	"%7b\305\255Xs\247_}\003\001\303>\323"
 132      AD5873A7 
 132      5F7D0301 
 132      C33ED3
 133              		.text
 134              		.section	.gnu.lto_.refs.7fd504ddbc6df086,"",%progbits
 135 0000 789C25C1 		.ascii	"x\234%\301[\026BP\000\000\300{\346\270Ry\246\007J\221"
 135      5B164250 
 135      0000C07B 
 135      E6B85279 
 135      A6074A91 
 136 0014 2CA6FD6F 		.ascii	",\246\375o\310\207\031A\370\207\235D\024\247(u\2209"
 136      C8871941 
 136      F8879D44 
 136      14A72875 
 136      9039
 137 0026 3A39CB15 		.ascii	":9\313\025J\225Z\343\242uus\367\320\351\015\236^Fo\037"
 137      4A955AE3 
 137      A2757573 
 137      F7D0E90D 
 137      9E5E466F 
 138 003b 93D9D7E2 		.ascii	"\223\331\327\342g\015\033s\304\003w"
 138      670D1B73 
 138      C40377
 139              		.text
 140              		.section	.gnu.lto_.decls.7fd504ddbc6df086,"",%progbits
ARM GAS  /tmp/cc5vF1xZ.s 			page 10


 141 0000 789CBD58 		.ascii	"x\234\275Xml\024E\030\236\331\226\266\327\036\005Q1"
 141      6D6C1445 
 141      189ED996 
 141      B6D71E05 
 141      5131
 142 0012 180C5723 		.ascii	"\030\014W#\230\020\333\245\327k+FP\323\037\370\007I"
 142      9810DBA5 
 142      D76B2B46 
 142      50D31FF8 
 142      0749
 143 0024 5412FF6D 		.ascii	"T\022\377m\226\353b/\366\356\360n\033 \372cA(\004\023"
 143      96EB622F 
 143      F6EEF06E 
 143      1B20FA63 
 143      41280413 
 144 0038 2D84A698 		.ascii	"-\204\246\230\012R\371H\011\225\2644\266VZ\273m\002"
 144      0A52F948 
 144      0995B434 
 144      B6565ABB 
 144      6D02
 145 004a 141B14AD 		.ascii	"\024\033\024\255\225`\001/\221h0b0\030\014\250\234\357"
 145      9560012F 
 145      91683062 
 145      30180CA8 
 145      9CEF
 146 005c 7EDCC7CC 		.ascii	"~\334\307\314\315t\350\037'}\356fw\337\347}f\337g\336"
 146      CD74E81F 
 146      277DEE66 
 146      77DFE77D 
 146      66DF67DE 
 147 0070 695A0949 		.ascii	"iZ\011I\250\013#\224\204\361\341C\010\335\310C\250\000"
 147      A80B2394 
 147      84F1E143 
 147      08DDC843 
 147      A800
 148 0082 21B41265 		.ascii	"!\264\022e\306,@\007\240\023\320\005\350\006\364\001"
 148      C62C4007 
 148      A013D005 
 148      E806F401 
 149 0092 CA000380 		.ascii	"\312\000\003\200\357\001\227\000\227\001?\002~\002\374"
 149      EF019700 
 149      97013F02 
 149      7E02FC
 150 00a1 0CB80EF8 		.ascii	"\014\270\016\370\015p\023p\013p\033p\007\360\257\225"
 150      0D701370 
 150      0B701B70 
 150      07F0AF95 
 151 00b1 1434F300 		.ascii	"\0244\363\000\005\200b\300l\300\\\300\203\200G\000\217"
 151      058062C0 
 151      6CC05CC0 
 151      83804700 
 151      8F
 152 00c2 021E03F8 		.ascii	"\002\036\003\370\000O\000\236\004,\005\224\003*\001"
 152      004F009E 
 152      042C0594 
 152      032A01
 153 00d1 01402DE0 		.ascii	"\001@-\340\031\214\210\321\2215\307\324ujtR1\235\214"
ARM GAS  /tmp/cc5vF1xZ.s 			page 11


 153      198C88D1 
 153      9135C7D4 
 153      756A7452 
 153      319D8C
 154 00e4 982E2AA6 		.ascii	"\230.*\246\213\021\323M\305t3b\254:\025\003\236\205"
 154      8B11D34D 
 154      C5743362 
 154      AC3A1503 
 154      9E85
 155 00f6 8052F8F6 		.ascii	"\200R\370\366\002F\000\205\200\025po%\340\024\314G\001"
 155      02460085 
 155      8015706F 
 155      25E014CC 
 155      4701
 156 0108 F92E4CC0 		.ascii	"\371.L\3009\3008\340\274\233\273\317\375\036\240\362"
 156      39C038E0 
 156      BC9BBBCF 
 156      FD1EA0F2 
 157 0118 2F42078C 		.ascii	"/B\007\214\203fb\373\321\236\005\306\301\255#\311\344"
 157      836662FB 
 157      D19E05C6 
 157      C1AD23C9 
 157      E4
 158 0129 73683E6A 		.ascii	"sh>j5`\034l6\014\254\253x\345\303\3505\254\342R\017"
 158      35601C6C 
 158      360CACAB 
 158      78E5C3E8 
 158      35ACE252 
 159 013e F2D913AF 		.ascii	"\362\331\023\257\307\026AH\305\037\343\371\356lm\236"
 159      C7164148 
 159      C51FE3F9 
 159      EE6C6D9E 
 160 014e 934EB216 		.ascii	"\223N\262\026\272\024\035\003~\213al]BU\027F\036\304"
 160      BA141D03 
 160      7E8B616C 
 160      5D425517 
 160      461EC4
 161 0161 C0CF9AF4 		.ascii	"\300\317\232\364\223%\350\210%gt\032y\266\230\225\256"
 161      9325E888 
 161      2567741A 
 161      79B69895 
 161      AE
 162 0172 032FCAE6 		.ascii	"\003/\312\346\250\370\020\226rWm\336\376\322\3332\222"
 162      A8F81096 
 162      72576DDE 
 162      FED2DB32 
 162      92
 163 0183 48261739 		.ascii	"H&\0279K\221\320\253\030b\017\343\245\031%\025\037\315"
 163      4B91D0AB 
 163      18620FE3 
 163      A5192515 
 163      1FCD
 164 0195 5059529D 		.ascii	"PYR\235\264\3241\246\324\311qJJ\235\271T\027-\365\011"
 164      B4D431A6 
 164      D4C9714A 
 164      4A9DB954 
 164      172DF509 
ARM GAS  /tmp/cc5vF1xZ.s 			page 12


 165 01a9 436AC4BC 		.ascii	"Cj\304\274LK\205\271Rn1\337\316.3K\271\233V\356a('\314"
 165      4C4B85B9 
 165      526E31DF 
 165      CE2E334B 
 165      B99B56EE 
 166 01c1 96AFBC2D 		.ascii	"\226\257\274-[\262\225\267\343li^\366>:{?\231\375q\324"
 166      5BB295B7 
 166      E36C695E 
 166      F63E3A7B 
 166      3F99FD71 
 167 01d6 615CB860 		.ascii	"a\\\270`\336i\376\010\303\0363\214{\311$~\000\265Xi"
 167      DE69FE08 
 167      C31E338C 
 167      7BC9247E 
 167      00B55869 
 168 01ea 7C63A5F3 		.ascii	"|c\245\363\320n{\273\301n\033\203\035\356\3565\003\247"
 168      D06E7BBB 
 168      C16E1B83 
 168      1DEEEE35 
 168      03A7
 169 01fc 36DB5CC8 		.ascii	"6\333\\\310\260\030\035\206\015e\336\232-\271\321>n"
 169      B0181D86 
 169      0D65DE9A 
 169      2DB9D13E 
 169      6E
 170 020d A88A07F1 		.ascii	"\250\212\007\361b$\014\263\002\277\300\363\334\267\263"
 170      62240CB3 
 170      02BFC0F3 
 170      DCB7B3
 171 021c F31BE625 		.ascii	"\363\033\346%\315\347\334E\324[g\2152\004+\335jN]?\207"
 171      CDE7DC45 
 171      D45B678D 
 171      32042BDD 
 171      6A4E5D3F 
 172 0231 8D3DDE12 		.ascii	"\215=\336\022\264\013\256\254^yq\0144vf.\020\263k\234"
 172      B40BAEAC 
 172      5E79710C 
 172      3476662E 
 172      10B36B9C 
 173 0245 17495CD9 		.ascii	"\027I\\\331uz\004C%\340\301(\366@\241wId\241\357?\325"
 173      757A0443 
 173      25E0C128 
 173      F640A177 
 173      4964A1EF 
 174 025b C53D83CB 		.ascii	"\305=\203\313\015\243H\305\247\355D\373\362\310D*.\364"
 174      0DA348C5 
 174      A7ED44FB 
 174      F2C8442A 
 174      2EF4
 175 026d 90E6C075 		.ascii	"\220\346\300u*\300\312f?v'\326!>\007\3154\234w:\214"
 175      2AC0CA66 
 175      3F7627D6 
 175      213E07CD 
 175      349C773A 
 176 0282 E092541A 		.ascii	"\340\222T\032\011\035\262\327e\325\226\025\356N\235"
 176      091DB2D7 
 176      65D59615 
ARM GAS  /tmp/cc5vF1xZ.s 			page 13


 176      EE4E9D
 177 0291 E10610F5 		.ascii	"\341\006\020\365N\234n\337\017\007\324(v\322J\350\344"
 177      4E9C6EDF 
 177      0F07D428 
 177      76D24AE8 
 177      E4
 178 02a2 8CF3F908 		.ascii	"\214\363\371\010\377\256jc\313R\271\006\357'W\021wm"
 178      FFAE6A63 
 178      CB52B906 
 178      EF275711 
 178      776D
 179 02b4 E6CDAC5C 		.ascii	"\346\315\254\\gg\234\313Gm0\247\332*\036\206m\254b\023"
 179      67679CCB 
 179      476D30A7 
 179      DA2A1E86 
 179      6DAC6213 
 180 02c8 97C1E739 		.ascii	"\227\301\3479\373s\334\376<\217\3132\301\022\372.\307"
 180      FB73DCFE 
 180      3C8FCB32 
 180      C112FA2E 
 180      C7
 181 02d9 70670367 		.ascii	"pg\003g\345\313\354s$\316\230\352\226\242\324b\015\347"
 181      E5CBEC73 
 181      24CE98EA 
 181      96A2D462 
 181      0DE7
 182 02eb 70C934AC 		.ascii	"p\3114\254\212\2072\257\227\023\247\342\013\320\334"
 182      8A8732AF 
 182      9713A7E2 
 182      0BD0DC
 183 02fa D6B0F7B0 		.ascii	"\326\260\367\260\341\356a;\204\267S\276\301\236\264"
 183      E1EE613B 
 183      84B753BE 
 183      C19EB4
 184 0309 B6D79399 		.ascii	"\266\327\223\231\024\022\257\221\212\202\227\276\226"
 184      1412AF91 
 184      8A8297BE 
 184      96
 185 0316 7E69FE32 		.ascii	"~i\3762\276u\017\241\000\3525v\232\326q\3659,,m\240"
 185      BE750FA1 
 185      00EA3576 
 185      9AD671F5 
 185      392C2C6D 
 186 032b 73FB7915 		.ascii	"s\373y\025\237\262\253cU\345-t\327\330i\230\1777K\216"
 186      9FB2AB63 
 186      55E52D74 
 186      D7D86998 
 186      7F374B8E 
 187 033f 9BD6B995 		.ascii	"\233\326\271\225\330c\356>\263w\201\321\341\236[\251"
 187      D863EE3E 
 187      B37781D1 
 187      E19E5BA9 
 188 034f 86FD9D5E 		.ascii	"\206\375\235^A\316K]$\016A\247\342)\2053\013)\205\243"
 188      41CE4B5D 
 188      240E41A7 
 188      E2298533 
 188      0B2985A3 
ARM GAS  /tmp/cc5vF1xZ.s 			page 14


 189 0363 B90A5BF2 		.ascii	"\271\012[\362E\012?P\012\343\331\012O\221\012\315}\271"
 189      450A3F50 
 189      0AE3D90A 
 189      4F910ACD 
 189      7DB9
 190 0375 0AEF0B15 		.ascii	"\012\357\013\025\256P\012\347\263\253\264\202R8\203"
 190      AE500AE7 
 190      B3ABB482 
 190      523883
 191 0384 3F3046B7 		.ascii	"?0F\267\031\306? \221\3268 \324H\220\277,\3340<\215"
 191      19C63F20 
 191      91D63820 
 191      D44890BF 
 191      2CDC303C 
 192 0399 4149CAA0 		.ascii	"AI\312\2406\226A'\204\302\327\370\006%)\203\332X\006"
 192      36964127 
 192      84C2D7F8 
 192      06252983 
 192      DA5806
 193 03ac 8D08157E 		.ascii	"\215\010\025~\341\033\224\244\014jc\031\364\265P\341"
 193      E11B94A4 
 193      0C6A6319 
 193      F4B550E1 
 194 03bc 57BE4149 		.ascii	"W\276AI\312\2406\266AW\205\0327\230\006I\323\030\324"
 194      CAA036B6 
 194      4157851A 
 194      37980649 
 194      D318D4
 195 03cf BA833468 		.ascii	"\272\2034h?\263\203\204\302\177\360\015j=\273\220R`"
 195      3FB38384 
 195      C27FF00D 
 195      6A3DBB90 
 195      5260
 196 03e1 75D02C91 		.ascii	"u\320,\221\302\237|\203Z\317\222\006\355gv\220P\341"
 196      C29F7C83 
 196      5ACF9206 
 196      ED677690 
 196      50E1
 197 03f3 2FBE41AD 		.ascii	"/\276A\255;VP\012\354\016\022j\334e\032\2247\215A\355"
 197      3B56500A 
 197      EC0E126A 
 197      DC651A94 
 197      378D41ED 
 198 0407 9441BDCC 		.ascii	"\224A\275\314\016\022\012\337\343\033\324N\031\324\313"
 198      0E120ADF 
 198      E31BD44E 
 198      19D4CB
 199 0416 EC20A1C2 		.ascii	"\354 \241\302\026\211kP;eP/\263\203\204\012\333$\256"
 199      16896B50 
 199      3B65502F 
 199      B383840A 
 199      DB24AE
 200 0429 41ED9441 		.ascii	"A\355\224A\275\234\016\022j\354\220X\006\345OcP\017"
 200      BD9C0E12 
 200      6AEC9058 
 200      06E54F63 
 200      500F
ARM GAS  /tmp/cc5vF1xZ.s 			page 15


 201 043b 65D000B3 		.ascii	"e\320\000\263\203\204\302\357J\\\203z(\203\006\230\035"
 201      8384C2EF 
 201      4A5C837A 
 201      28830698 
 201      1D
 202 044c 54205278 		.ascii	"T Rx\217oP\017e\320\000\263\203\204\012\273\371\006"
 202      8F6F500F 
 202      65D000B3 
 202      83840ABB 
 202      F906
 203 045e F550060D 		.ascii	"\365P\006\015p:H\250\261\227i\320\254i\014\352\247\014"
 203      703A48A8 
 203      B19769D0 
 203      AC690CEA 
 203      A70C
 204 0470 1A667690 		.ascii	"\032fv\220Px\037\337\240~\312\240af\007\011\025\332"
 204      50781FDF 
 204      A07ECAA0 
 204      61660709 
 204      15DA
 205 0482 F906F553 		.ascii	"\371\006\365S\006\0153;H\250p\200oP?e\3200\247\203\204"
 205      060D333B 
 205      48A87080 
 205      6F503F65 
 205      D030A783 
 206 0497 1A1D4C83 		.ascii	"\032\035L\203\012\2461h\2102h\222\331AB\341#|\203\206"
 206      0AA63168 
 206      88326892 
 206      D94142E1 
 206      237C8386 
 207 04ab 28832699 		.ascii	"(\203&\231\035T(R\350\344\0334D\0314\311\354 \241\302"
 207      1D542852 
 207      E8E41B34 
 207      441934C9 
 207      EC20A1C2 
 208 04bf 71BE4143 		.ascii	"q\276AC\224A\223\234\016\022j\234`\032T8\215A\023\224"
 208      9441939C 
 208      0E126A9C 
 208      601A5438 
 208      8D411394 
 209 04d3 4153CC0E 		.ascii	"AS\314\016\022\012\237\344\0334A\0314\305\354 \241\302"
 209      120A9FE4 
 209      1B344119 
 209      34C5EC20 
 209      A1C2
 210 04e5 A77C8326 		.ascii	"\247|\203&(\203\246\230\035$T\370\214o\320\004e\320"
 210      2883A698 
 210      1D2454F8 
 210      8C6FD004 
 210      65D0
 211 04f7 14A78384 		.ascii	"\024\247\203\204\032\247H\203\020\"\376u\341\370\303"
 211      1AA74883 
 211      1022FE75 
 211      E1F8C3
 212 0506 E30E4A25 		.ascii	"\343\016J%\034V\326\237T9\254!\006\313\264Y\326\232"
 212      1C56D69F 
 212      5439AC21 
ARM GAS  /tmp/cc5vF1xZ.s 			page 16


 212      06CBB459 
 212      D69A
 213 0518 EFE3BF06 		.ascii	"\357\343\277\006hyE\205\\\327\020Z\027Z\363\212\034"
 213      68794585 
 213      5CD7105A 
 213      175AF38A 
 213      1C
 214 0529 8DCBC168 		.ascii	"\215\313\301h8\034\215\310q]\215\351M\033\344\027^^"
 214      381C8DC8 
 214      715D8DE9 
 214      4D1BE417 
 214      5E5E
 215 053b 5DB77A93 		.ascii	"]\267z\223uwC\250Q\213\305\345Uuur0\246WV\004Q\211\242"
 215      757743A8 
 215      518BC5E5 
 215      55757572 
 215      30A65756 
 216 0553 04A3314D 		.ascii	"\004\2431M\011EBz\301\252\227\326\372\352P\376FM}\303"
 216      0945427A 
 216      C1AA97D6 
 216      FAEA50FE 
 216      464D7DC3 
 217 0567 AB289A1A 		.ascii	"\253(\232\032k\334l?\200\240FUw\202J\025\245^[\2576"
 217      6BDC6C3F 
 217      80A04655 
 217      77824A15 
 217      A55E5BAF 
 218 057c 35EA8AB6 		.ascii	"5\352\212\266)\244\027E\200\2557\305\"s\025\373\261"
 218      29A41745 
 218      80AD37C5 
 218      227315FB 
 218      B1
 219 058d 1253C38A 		.ascii	"\022S\303\212\032\323\324x\\\216\254\267Q-7D\303\232"
 219      1AD3D478 
 219      5C8EACB7 
 219      512D3744 
 219      C39A
 220 059f 1CD3E290 		.ascii	"\034\323\342\2201\330 7\250\261\372\215\020\"\253\261"
 220      31D82037 
 220      A8B1FA8D 
 220      1022ABB1 
 221 05af B05F7E3D 		.ascii	"\260_~=\030,\207I\271\026^\247\325\327k\365\351\033"
 221      182C8749 
 221      B9165EA7 
 221      D5D76BF5 
 221      E91B
 222 05c1 9168442B 		.ascii	"\221hD+\327\324u\241\362\200\362t\271\177Ye\340M\277"
 222      D7D475A1 
 222      F280F274 
 222      B97F5965 
 222      E04DBF
 223 05d4 4C3C9043 		.ascii	"L<\220C\221`cS\275\006/Z\037\212\350\025\015\250\250"
 223      91606353 
 223      BD062F5A 
 223      1F8AE815 
 223      0DA8A8
 224 05e7 09BEABFC 		.ascii	"\011\276\253\374\212\376\016\376\377\324\303j\260!\024"
ARM GAS  /tmp/cc5vF1xZ.s 			page 17


 224      8AFE0EFE 
 224      FFD4C36A 
 224      B02114
 225 05f6 D1E4745D 		.ascii	"\321\344t]\364\315\033\2648\254\246XQR\353)\265k\243"
 225      F4CD1BB4 
 225      38ACA658 
 225      5152EB29 
 225      B56BA3
 226 0609 6B9B74BB 		.ascii	"k\233t\2738\036\373\322\232\025\007\033a]\366\324\033"
 226      381EFBD2 
 226      9A15071B 
 226      615DF6D4 
 226      1B
 227 061a 892AE9FB 		.ascii	"\211*\351\373s\254:\246\257\024\335\223\256\353<\305"
 227      73AC3AA6 
 227      AF14DD93 
 227      AEEB3CC5 
 228 062a AAF13225 		.ascii	"\252\3612%\223Q\231\235}K)u\257\234\314\312\034\367"
 228      9351999D 
 228      7D4B2975 
 228      AF9CCCCA 
 228      1CF7
 229 063c 3212751E 		.ascii	"2\022u\036;\374\312\\~%\301\257$\371\225\024\337\237"
 229      3BFCCA5C 
 229      7E25C1AF 
 229      24F99514 
 229      DF9F
 230 064e CBF7137C 		.ascii	"\313\367\023|?\311\367S\374\252\\~\025\301\257\"\371"
 230      3FC9F753 
 230      FCAA5C7E 
 230      15C1AF22 
 230      F9
 231 065f 55143F90 		.ascii	"U\024?\220\313\017\020\374\000\311\017P\374\352\\~5"
 231      CB0F10FC 
 231      00C90F50 
 231      FCEA5C7E 
 231      35
 232 0670 C1AF26F9 		.ascii	"\301\257&\371\325\024\277&\227_C\360kH~\015\305\257"
 232      D514BF26 
 232      975F43F0 
 232      6B487E0D 
 232      C5AF
 233 0682 CDE5D712 		.ascii	"\315\345\327\022\374Z\222_\233\346\377\0076\207=\247"
 233      FC5A925F 
 233      9BE6FF07 
 233      36873DA7 
 234              		.text
 235              		.section	.gnu.lto_.symtab.7fd504ddbc6df086,"",%progbits
 236 0000 5F5F636F 		.ascii	"__core_init\000\000\001\000\000\000\000\000\000\000"
 236      72655F69 
 236      6E697400 
 236      00010000 
 236      00000000 
 237 0015 0000A100 		.ascii	"\000\000\241\000\000\000__early_init\000\000\001\000"
 237      00005F5F 
 237      6561726C 
 237      795F696E 
ARM GAS  /tmp/cc5vF1xZ.s 			page 18


 237      69740000 
 238 002b 00000000 		.ascii	"\000\000\000\000\000\000\000\000\250\000\000\000__l"
 238      00000000 
 238      A8000000 
 238      5F5F6C
 239 003a 6174655F 		.ascii	"ate_init\000\000\001\000\000\000\000\000\000\000\000"
 239      696E6974 
 239      00000100 
 239      00000000 
 239      000000
 240 004d 00AC0000 		.ascii	"\000\254\000\000\000__default_exit\000\000\001\000\000"
 240      005F5F64 
 240      65666175 
 240      6C745F65 
 240      78697400 
 241 0065 00000000 		.ascii	"\000\000\000\000\000\000\000\260\000\000\000__init_"
 241      000000B0 
 241      0000005F 
 241      5F696E69 
 241      745F
 242 0077 72616D5F 		.ascii	"ram_areas\000\000\000\000\000\000\000\000\000\000\000"
 242      61726561 
 242      73000000 
 242      00000000 
 242      00000000 
 243 008b 00B60000 		.ascii	"\000\266\000\000\000__ram0_init_text__\000\000\002\000"
 243      005F5F72 
 243      616D305F 
 243      696E6974 
 243      5F746578 
 244 00a6 00000000 		.ascii	"\000\000\000\000\000\000\000\000\326\000\000\000__r"
 244      00000000 
 244      D6000000 
 244      5F5F72
 245 00b5 616D305F 		.ascii	"am0_init__\000\000\002\000\000\000\000\000\000\000\000"
 245      696E6974 
 245      5F5F0000 
 245      02000000 
 245      00000000 
 246 00ca 00D90000 		.ascii	"\000\331\000\000\000__ram0_clear__\000\000\002\000\000"
 246      005F5F72 
 246      616D305F 
 246      636C6561 
 246      725F5F00 
 247 00e2 00000000 		.ascii	"\000\000\000\000\000\000\000\334\000\000\000__ram0_"
 247      000000DC 
 247      0000005F 
 247      5F72616D 
 247      305F
 248 00f4 6E6F696E 		.ascii	"noinit__\000\000\002\000\000\000\000\000\000\000\000"
 248      69745F5F 
 248      00000200 
 248      00000000 
 248      000000
 249 0107 00DF0000 		.ascii	"\000\337\000\000\000__ram1_init_text__\000\000\002\000"
 249      005F5F72 
 249      616D315F 
ARM GAS  /tmp/cc5vF1xZ.s 			page 19


 249      696E6974 
 249      5F746578 
 250 0122 00000000 		.ascii	"\000\000\000\000\000\000\000\000\343\000\000\000__r"
 250      00000000 
 250      E3000000 
 250      5F5F72
 251 0131 616D315F 		.ascii	"am1_init__\000\000\002\000\000\000\000\000\000\000\000"
 251      696E6974 
 251      5F5F0000 
 251      02000000 
 251      00000000 
 252 0146 00E60000 		.ascii	"\000\346\000\000\000__ram1_clear__\000\000\002\000\000"
 252      005F5F72 
 252      616D315F 
 252      636C6561 
 252      725F5F00 
 253 015e 00000000 		.ascii	"\000\000\000\000\000\000\000\351\000\000\000__ram1_"
 253      000000E9 
 253      0000005F 
 253      5F72616D 
 253      315F
 254 0170 6E6F696E 		.ascii	"noinit__\000\000\002\000\000\000\000\000\000\000\000"
 254      69745F5F 
 254      00000200 
 254      00000000 
 254      000000
 255 0183 00EC0000 		.ascii	"\000\354\000\000\000__ram2_init_text__\000\000\002\000"
 255      005F5F72 
 255      616D325F 
 255      696E6974 
 255      5F746578 
 256 019e 00000000 		.ascii	"\000\000\000\000\000\000\000\000\360\000\000\000__r"
 256      00000000 
 256      F0000000 
 256      5F5F72
 257 01ad 616D325F 		.ascii	"am2_init__\000\000\002\000\000\000\000\000\000\000\000"
 257      696E6974 
 257      5F5F0000 
 257      02000000 
 257      00000000 
 258 01c2 00F30000 		.ascii	"\000\363\000\000\000__ram2_clear__\000\000\002\000\000"
 258      005F5F72 
 258      616D325F 
 258      636C6561 
 258      725F5F00 
 259 01da 00000000 		.ascii	"\000\000\000\000\000\000\000\366\000\000\000__ram2_"
 259      000000F6 
 259      0000005F 
 259      5F72616D 
 259      325F
 260 01ec 6E6F696E 		.ascii	"noinit__\000\000\002\000\000\000\000\000\000\000\000"
 260      69745F5F 
 260      00000200 
 260      00000000 
 260      000000
 261 01ff 00F90000 		.ascii	"\000\371\000\000\000__ram3_init_text__\000\000\002\000"
 261      005F5F72 
ARM GAS  /tmp/cc5vF1xZ.s 			page 20


 261      616D335F 
 261      696E6974 
 261      5F746578 
 262 021a 00000000 		.ascii	"\000\000\000\000\000\000\000\000\375\000\000\000__r"
 262      00000000 
 262      FD000000 
 262      5F5F72
 263 0229 616D335F 		.ascii	"am3_init__\000\000\002\000\000\000\000\000\000\000\000"
 263      696E6974 
 263      5F5F0000 
 263      02000000 
 263      00000000 
 264 023e 00000100 		.ascii	"\000\000\001\000\000__ram3_clear__\000\000\002\000\000"
 264      005F5F72 
 264      616D335F 
 264      636C6561 
 264      725F5F00 
 265 0256 00000000 		.ascii	"\000\000\000\000\000\000\000\003\001\000\000__ram3_"
 265      00000003 
 265      0100005F 
 265      5F72616D 
 265      335F
 266 0268 6E6F696E 		.ascii	"noinit__\000\000\002\000\000\000\000\000\000\000\000"
 266      69745F5F 
 266      00000200 
 266      00000000 
 266      000000
 267 027b 00060100 		.ascii	"\000\006\001\000\000__ram4_init_text__\000\000\002\000"
 267      005F5F72 
 267      616D345F 
 267      696E6974 
 267      5F746578 
 268 0296 00000000 		.ascii	"\000\000\000\000\000\000\000\000\012\001\000\000__r"
 268      00000000 
 268      0A010000 
 268      5F5F72
 269 02a5 616D345F 		.ascii	"am4_init__\000\000\002\000\000\000\000\000\000\000\000"
 269      696E6974 
 269      5F5F0000 
 269      02000000 
 269      00000000 
 270 02ba 000D0100 		.ascii	"\000\015\001\000\000__ram4_clear__\000\000\002\000\000"
 270      005F5F72 
 270      616D345F 
 270      636C6561 
 270      725F5F00 
 271 02d2 00000000 		.ascii	"\000\000\000\000\000\000\000\020\001\000\000__ram4_"
 271      00000010 
 271      0100005F 
 271      5F72616D 
 271      345F
 272 02e4 6E6F696E 		.ascii	"noinit__\000\000\002\000\000\000\000\000\000\000\000"
 272      69745F5F 
 272      00000200 
 272      00000000 
 272      000000
 273 02f7 00130100 		.ascii	"\000\023\001\000\000__ram5_init_text__\000\000\002\000"
ARM GAS  /tmp/cc5vF1xZ.s 			page 21


 273      005F5F72 
 273      616D355F 
 273      696E6974 
 273      5F746578 
 274 0312 00000000 		.ascii	"\000\000\000\000\000\000\000\000\027\001\000\000__r"
 274      00000000 
 274      17010000 
 274      5F5F72
 275 0321 616D355F 		.ascii	"am5_init__\000\000\002\000\000\000\000\000\000\000\000"
 275      696E6974 
 275      5F5F0000 
 275      02000000 
 275      00000000 
 276 0336 001A0100 		.ascii	"\000\032\001\000\000__ram5_clear__\000\000\002\000\000"
 276      005F5F72 
 276      616D355F 
 276      636C6561 
 276      725F5F00 
 277 034e 00000000 		.ascii	"\000\000\000\000\000\000\000\035\001\000\000__ram5_"
 277      0000001D 
 277      0100005F 
 277      5F72616D 
 277      355F
 278 0360 6E6F696E 		.ascii	"noinit__\000\000\002\000\000\000\000\000\000\000\000"
 278      69745F5F 
 278      00000200 
 278      00000000 
 278      000000
 279 0373 00200100 		.ascii	"\000 \001\000\000__ram6_init_text__\000\000\002\000"
 279      005F5F72 
 279      616D365F 
 279      696E6974 
 279      5F746578 
 280 038e 00000000 		.ascii	"\000\000\000\000\000\000\000\000$\001\000\000__ram6"
 280      00000000 
 280      24010000 
 280      5F5F7261 
 280      6D36
 281 03a0 5F696E69 		.ascii	"_init__\000\000\002\000\000\000\000\000\000\000\000"
 281      745F5F00 
 281      00020000 
 281      00000000 
 281      0000
 282 03b2 00270100 		.ascii	"\000'\001\000\000__ram6_clear__\000\000\002\000\000"
 282      005F5F72 
 282      616D365F 
 282      636C6561 
 282      725F5F00 
 283 03ca 00000000 		.ascii	"\000\000\000\000\000\000\000*\001\000\000__ram6_noi"
 283      0000002A 
 283      0100005F 
 283      5F72616D 
 283      365F6E6F 
 284 03df 6E69745F 		.ascii	"nit__\000\000\002\000\000\000\000\000\000\000\000\000"
 284      5F000002 
 284      00000000 
 284      00000000 
ARM GAS  /tmp/cc5vF1xZ.s 			page 22


 284      00
 285 03f0 2D010000 		.ascii	"-\001\000\000__ram7_i"
 285      5F5F7261 
 285      6D375F69 
 286 03fc 6E69745F 		.ascii	"nit_text__\000\000\002\000\000\000\000\000\000\000\000"
 286      74657874 
 286      5F5F0000 
 286      02000000 
 286      00000000 
 287 0411 00310100 		.ascii	"\0001\001\000\000__ram7_init__\000\000\002\000\000\000"
 287      005F5F72 
 287      616D375F 
 287      696E6974 
 287      5F5F0000 
 288 0429 00000000 		.ascii	"\000\000\000\000\000\0004\001\000\000__ram7_clear__"
 288      00003401 
 288      00005F5F 
 288      72616D37 
 288      5F636C65 
 289 0441 00000200 		.ascii	"\000\000\002\000\000\000\000\000\000\000\000\0007\001"
 289      00000000 
 289      00000000 
 289      3701
 290 044f 00005F5F 		.ascii	"\000\000__ram7_noinit__\000\000\002\000\000\000\000"
 290      72616D37 
 290      5F6E6F69 
 290      6E69745F 
 290      5F000002 
 291 0467 00000000 		.ascii	"\000\000\000\000\000:\001\000\000"
 291      003A0100 
 291      00
 292              		.text
 293              		.section	.gnu.lto_.opts,"",%progbits
 294 0000 272D6D63 		.ascii	"'-mcpu=cortex-m4' '-mno-thumb-interwork' '-mthumb' "
 294      70753D63 
 294      6F727465 
 294      782D6D34 
 294      2720272D 
 295 0033 272D6767 		.ascii	"'-ggdb' '-O2' '-fomit-frame-pointer' '-falign-funct"
 295      64622720 
 295      272D4F32 
 295      2720272D 
 295      666F6D69 
 296 0066 696F6E73 		.ascii	"ions=16' '-ffunction-sections' '-fdata-sections' '-"
 296      3D313627 
 296      20272D66 
 296      66756E63 
 296      74696F6E 
 297 0099 666E6F2D 		.ascii	"fno-common' '-flto'\000"
 297      636F6D6D 
 297      6F6E2720 
 297      272D666C 
 297      746F2700 
 298              		.text
 299              		.cfi_sections	.debug_frame
 300              		.section	.text.__core_init,"ax",%progbits
 301              		.align	2
ARM GAS  /tmp/cc5vF1xZ.s 			page 23


 302              		.p2align 4,,15
 303              		.weak	__core_init
 304              		.thumb
 305              		.thumb_func
 306              		.type	__core_init, %function
 307              	__core_init:
 308              	.LFB123:
 309              		.file 1 "../ChibiOS/os/common/startup/ARMCMx/compilers/GCC/crt1.c"
 310              		.loc 1 136 0
 311              		.cfi_startproc
 312              		@ args = 0, pretend = 0, frame = 0
 313              		@ frame_needed = 0, uses_anonymous_args = 0
 314              		@ link register save eliminated.
 315 0000 7047     		bx	lr
 316              		.cfi_endproc
 317              	.LFE123:
 318              		.size	__core_init, .-__core_init
 319 0002 00BFAFF3 		.section	.text.__early_init,"ax",%progbits
 319      0080AFF3 
 319      0080AFF3 
 319      0080
 320              		.align	2
 321              		.p2align 4,,15
 322              		.weak	__early_init
 323              		.thumb
 324              		.thumb_func
 325              		.type	__early_init, %function
 326              	__early_init:
 327              	.LFB124:
 328              		.loc 1 155 0
 329              		.cfi_startproc
 330              		@ args = 0, pretend = 0, frame = 0
 331              		@ frame_needed = 0, uses_anonymous_args = 0
 332              		@ link register save eliminated.
 333 0000 7047     		bx	lr
 334              		.cfi_endproc
 335              	.LFE124:
 336              		.size	__early_init, .-__early_init
 337 0002 00BFAFF3 		.section	.text.__late_init,"ax",%progbits
 337      0080AFF3 
 337      0080AFF3 
 337      0080
 338              		.align	2
 339              		.p2align 4,,15
 340              		.weak	__late_init
 341              		.thumb
 342              		.thumb_func
 343              		.type	__late_init, %function
 344              	__late_init:
 345              	.LFB125:
 346              		.loc 1 169 0
 347              		.cfi_startproc
 348              		@ args = 0, pretend = 0, frame = 0
 349              		@ frame_needed = 0, uses_anonymous_args = 0
 350              		@ link register save eliminated.
 351 0000 7047     		bx	lr
 352              		.cfi_endproc
ARM GAS  /tmp/cc5vF1xZ.s 			page 24


 353              	.LFE125:
 354              		.size	__late_init, .-__late_init
 355 0002 00BFAFF3 		.section	.text.__default_exit,"ax",%progbits
 355      0080AFF3 
 355      0080AFF3 
 355      0080
 356              		.align	2
 357              		.p2align 4,,15
 358              		.weak	__default_exit
 359              		.thumb
 360              		.thumb_func
 361              		.type	__default_exit, %function
 362              	__default_exit:
 363              	.LFB126:
 364              		.loc 1 182 0
 365              		.cfi_startproc
 366              		@ Volatile: function does not return.
 367              		@ args = 0, pretend = 0, frame = 0
 368              		@ frame_needed = 0, uses_anonymous_args = 0
 369              		@ link register save eliminated.
 370              	.L5:
 371 0000 FEE7     		b	.L5
 372              		.cfi_endproc
 373              	.LFE126:
 374              		.size	__default_exit, .-__default_exit
 375 0002 00BFAFF3 		.section	.text.__init_ram_areas,"ax",%progbits
 375      0080AFF3 
 375      0080AFF3 
 375      0080
 376              		.align	2
 377              		.p2align 4,,15
 378              		.global	__init_ram_areas
 379              		.thumb
 380              		.thumb_func
 381              		.type	__init_ram_areas, %function
 382              	__init_ram_areas:
 383              	.LFB127:
 384              		.loc 1 192 0
 385              		.cfi_startproc
 386              		@ args = 0, pretend = 0, frame = 0
 387              		@ frame_needed = 0, uses_anonymous_args = 0
 388              		@ link register save eliminated.
 389              	.LVL0:
 390              		.loc 1 192 0
 391 0000 F0B4     		push	{r4, r5, r6, r7}
 392              		.cfi_def_cfa_offset 16
 393              		.cfi_offset 4, -16
 394              		.cfi_offset 5, -12
 395              		.cfi_offset 6, -8
 396              		.cfi_offset 7, -4
 397 0002 134E     		ldr	r6, .L19
 398              	.LBB2:
 399              		.loc 1 209 0
 400 0004 0025     		movs	r5, #0
 401 0006 06F17007 		add	r7, r6, #112
 402              	.LVL1:
 403              	.L15:
ARM GAS  /tmp/cc5vF1xZ.s 			page 25


 404              		.loc 1 197 0
 405 000a A6F11001 		sub	r1, r6, #16
 406              	.LVL2:
 407 000e 1AC9     		ldmia	r1, {r1, r3, r4}
 408              	.LVL3:
 409              		.loc 1 201 0
 410 0010 A342     		cmp	r3, r4
 411 0012 0DD2     		bcs	.L7
 412 0014 0439     		subs	r1, r1, #4
 413              	.LVL4:
 414 0016 1A46     		mov	r2, r3
 415              	.LVL5:
 416              	.L9:
 417              		.loc 1 202 0
 418 0018 51F8040F 		ldr	r0, [r1, #4]!
 419              	.LVL6:
 420 001c 42F8040B 		str	r0, [r2], #4
 421              	.LVL7:
 422              		.loc 1 201 0
 423 0020 A242     		cmp	r2, r4
 424 0022 F9D3     		bcc	.L9
 425 0024 DA43     		mvns	r2, r3
 426              	.LVL8:
 427 0026 1444     		add	r4, r4, r2
 428 0028 24F00304 		bic	r4, r4, #3
 429 002c 0434     		adds	r4, r4, #4
 430 002e 2344     		add	r3, r3, r4
 431              	.LVL9:
 432              	.L7:
 433              		.loc 1 208 0 discriminator 1
 434 0030 56F8042C 		ldr	r2, [r6, #-4]
 435 0034 9342     		cmp	r3, r2
 436 0036 03D2     		bcs	.L13
 437              	.L14:
 438              		.loc 1 209 0
 439 0038 43F8045B 		str	r5, [r3], #4
 440              	.LVL10:
 441              		.loc 1 208 0
 442 003c 9342     		cmp	r3, r2
 443 003e FBD3     		bcc	.L14
 444              	.L13:
 445              	.LVL11:
 446              	.LBE2:
 447              		.loc 1 214 0
 448 0040 BE42     		cmp	r6, r7
 449 0042 06F11003 		add	r3, r6, #16
 450              	.LVL12:
 451 0046 01D2     		bcs	.L18
 452 0048 1E46     		mov	r6, r3
 453              	.LVL13:
 454 004a DEE7     		b	.L15
 455              	.LVL14:
 456              	.L18:
 457              		.loc 1 216 0
 458 004c F0BC     		pop	{r4, r5, r6, r7}
 459              	.LVL15:
 460 004e 7047     		bx	lr
ARM GAS  /tmp/cc5vF1xZ.s 			page 26


 461              	.L20:
 462              		.align	2
 463              	.L19:
 464 0050 10000000 		.word	.LANCHOR0+16
 465              		.cfi_endproc
 466              	.LFE127:
 467              		.size	__init_ram_areas, .-__init_ram_areas
 468 0054 AFF30080 		.section	.rodata.ram_areas,"a",%progbits
 468      AFF30080 
 468      AFF30080 
 469              		.align	2
 470              		.set	.LANCHOR0,. + 0
 471              		.type	ram_areas, %object
 472              		.size	ram_areas, 128
 473              	ram_areas:
 474 0000 00000000 		.word	__ram0_init_text__
 475 0004 00000000 		.word	__ram0_init__
 476 0008 00000000 		.word	__ram0_clear__
 477 000c 00000000 		.word	__ram0_noinit__
 478 0010 00000000 		.word	__ram1_init_text__
 479 0014 00000000 		.word	__ram1_init__
 480 0018 00000000 		.word	__ram1_clear__
 481 001c 00000000 		.word	__ram1_noinit__
 482 0020 00000000 		.word	__ram2_init_text__
 483 0024 00000000 		.word	__ram2_init__
 484 0028 00000000 		.word	__ram2_clear__
 485 002c 00000000 		.word	__ram2_noinit__
 486 0030 00000000 		.word	__ram3_init_text__
 487 0034 00000000 		.word	__ram3_init__
 488 0038 00000000 		.word	__ram3_clear__
 489 003c 00000000 		.word	__ram3_noinit__
 490 0040 00000000 		.word	__ram4_init_text__
 491 0044 00000000 		.word	__ram4_init__
 492 0048 00000000 		.word	__ram4_clear__
 493 004c 00000000 		.word	__ram4_noinit__
 494 0050 00000000 		.word	__ram5_init_text__
 495 0054 00000000 		.word	__ram5_init__
 496 0058 00000000 		.word	__ram5_clear__
 497 005c 00000000 		.word	__ram5_noinit__
 498 0060 00000000 		.word	__ram6_init_text__
 499 0064 00000000 		.word	__ram6_init__
 500 0068 00000000 		.word	__ram6_clear__
 501 006c 00000000 		.word	__ram6_noinit__
 502 0070 00000000 		.word	__ram7_init_text__
 503 0074 00000000 		.word	__ram7_init__
 504 0078 00000000 		.word	__ram7_clear__
 505 007c 00000000 		.word	__ram7_noinit__
 506              		.text
 507              	.Letext0:
 508              		.file 2 "/nfs/nfs5/home/research/hardware/arm2/gcc-arm-embedded/gcc-arm-none-eabi-4_8-2014q2/arm-n
 509              		.file 3 "/nfs/nfs5/home/research/hardware/arm2/gcc-arm-embedded/gcc-arm-none-eabi-4_8-2014q2/arm-n
 510              		.file 4 "../ChibiOS/os/common/ext/CMSIS/include/core_cm4.h"
 511              		.section	.debug_info,"",%progbits
 512              	.Ldebug_info0:
 513 0000 15030000 		.4byte	0x315
 514 0004 0400     		.2byte	0x4
 515 0006 00000000 		.4byte	.Ldebug_abbrev0
ARM GAS  /tmp/cc5vF1xZ.s 			page 27


 516 000a 04       		.byte	0x4
 517 000b 01       		.uleb128 0x1
 518 000c A8030000 		.4byte	.LASF57
 519 0010 01       		.byte	0x1
 520 0011 2D010000 		.4byte	.LASF58
 521 0015 75010000 		.4byte	.LASF59
 522 0019 00000000 		.4byte	.Ldebug_ranges0+0
 523 001d 00000000 		.4byte	0
 524 0021 00000000 		.4byte	.Ldebug_line0
 525 0025 02       		.uleb128 0x2
 526 0026 01       		.byte	0x1
 527 0027 06       		.byte	0x6
 528 0028 01020000 		.4byte	.LASF0
 529 002c 02       		.uleb128 0x2
 530 002d 01       		.byte	0x1
 531 002e 08       		.byte	0x8
 532 002f C5010000 		.4byte	.LASF1
 533 0033 02       		.uleb128 0x2
 534 0034 02       		.byte	0x2
 535 0035 05       		.byte	0x5
 536 0036 3A000000 		.4byte	.LASF2
 537 003a 02       		.uleb128 0x2
 538 003b 02       		.byte	0x2
 539 003c 07       		.byte	0x7
 540 003d AC020000 		.4byte	.LASF3
 541 0041 03       		.uleb128 0x3
 542 0042 55030000 		.4byte	.LASF5
 543 0046 02       		.byte	0x2
 544 0047 37       		.byte	0x37
 545 0048 4C000000 		.4byte	0x4c
 546 004c 02       		.uleb128 0x2
 547 004d 04       		.byte	0x4
 548 004e 05       		.byte	0x5
 549 004f 08010000 		.4byte	.LASF4
 550 0053 03       		.uleb128 0x3
 551 0054 5E000000 		.4byte	.LASF6
 552 0058 02       		.byte	0x2
 553 0059 38       		.byte	0x38
 554 005a 5E000000 		.4byte	0x5e
 555 005e 02       		.uleb128 0x2
 556 005f 04       		.byte	0x4
 557 0060 07       		.byte	0x7
 558 0061 49020000 		.4byte	.LASF7
 559 0065 02       		.uleb128 0x2
 560 0066 08       		.byte	0x8
 561 0067 05       		.byte	0x5
 562 0068 C0000000 		.4byte	.LASF8
 563 006c 02       		.uleb128 0x2
 564 006d 08       		.byte	0x8
 565 006e 07       		.byte	0x7
 566 006f 0D020000 		.4byte	.LASF9
 567 0073 04       		.uleb128 0x4
 568 0074 04       		.byte	0x4
 569 0075 05       		.byte	0x5
 570 0076 696E7400 		.ascii	"int\000"
 571 007a 02       		.uleb128 0x2
 572 007b 04       		.byte	0x4
ARM GAS  /tmp/cc5vF1xZ.s 			page 28


 573 007c 07       		.byte	0x7
 574 007d 3C020000 		.4byte	.LASF10
 575 0081 03       		.uleb128 0x3
 576 0082 A4020000 		.4byte	.LASF11
 577 0086 03       		.byte	0x3
 578 0087 41       		.byte	0x41
 579 0088 41000000 		.4byte	0x41
 580 008c 03       		.uleb128 0x3
 581 008d 24020000 		.4byte	.LASF12
 582 0091 03       		.byte	0x3
 583 0092 42       		.byte	0x42
 584 0093 53000000 		.4byte	0x53
 585 0097 02       		.uleb128 0x2
 586 0098 04       		.byte	0x4
 587 0099 07       		.byte	0x7
 588 009a 44000000 		.4byte	.LASF13
 589 009e 05       		.uleb128 0x5
 590 009f 10       		.byte	0x10
 591 00a0 01       		.byte	0x1
 592 00a1 34       		.byte	0x34
 593 00a2 D7000000 		.4byte	0xd7
 594 00a6 06       		.uleb128 0x6
 595 00a7 88040000 		.4byte	.LASF14
 596 00ab 01       		.byte	0x1
 597 00ac 35       		.byte	0x35
 598 00ad D7000000 		.4byte	0xd7
 599 00b1 00       		.byte	0
 600 00b2 06       		.uleb128 0x6
 601 00b3 9E030000 		.4byte	.LASF15
 602 00b7 01       		.byte	0x1
 603 00b8 36       		.byte	0x36
 604 00b9 D7000000 		.4byte	0xd7
 605 00bd 04       		.byte	0x4
 606 00be 06       		.uleb128 0x6
 607 00bf 2F000000 		.4byte	.LASF16
 608 00c3 01       		.byte	0x1
 609 00c4 37       		.byte	0x37
 610 00c5 D7000000 		.4byte	0xd7
 611 00c9 08       		.byte	0x8
 612 00ca 06       		.uleb128 0x6
 613 00cb DD000000 		.4byte	.LASF17
 614 00cf 01       		.byte	0x1
 615 00d0 38       		.byte	0x38
 616 00d1 D7000000 		.4byte	0xd7
 617 00d5 0C       		.byte	0xc
 618 00d6 00       		.byte	0
 619 00d7 07       		.uleb128 0x7
 620 00d8 04       		.byte	0x4
 621 00d9 8C000000 		.4byte	0x8c
 622 00dd 03       		.uleb128 0x3
 623 00de EA000000 		.4byte	.LASF18
 624 00e2 01       		.byte	0x1
 625 00e3 39       		.byte	0x39
 626 00e4 9E000000 		.4byte	0x9e
 627 00e8 08       		.uleb128 0x8
 628 00e9 91000000 		.4byte	.LASF19
 629 00ed 01       		.byte	0x1
ARM GAS  /tmp/cc5vF1xZ.s 			page 29


 630 00ee 88       		.byte	0x88
 631 00ef 00000000 		.4byte	.LFB123
 632 00f3 02000000 		.4byte	.LFE123-.LFB123
 633 00f7 01       		.uleb128 0x1
 634 00f8 9C       		.byte	0x9c
 635 00f9 08       		.uleb128 0x8
 636 00fa 97020000 		.4byte	.LASF20
 637 00fe 01       		.byte	0x1
 638 00ff 9B       		.byte	0x9b
 639 0100 00000000 		.4byte	.LFB124
 640 0104 02000000 		.4byte	.LFE124-.LFB124
 641 0108 01       		.uleb128 0x1
 642 0109 9C       		.byte	0x9c
 643 010a 08       		.uleb128 0x8
 644 010b 11010000 		.4byte	.LASF21
 645 010f 01       		.byte	0x1
 646 0110 A9       		.byte	0xa9
 647 0111 00000000 		.4byte	.LFB125
 648 0115 02000000 		.4byte	.LFE125-.LFB125
 649 0119 01       		.uleb128 0x1
 650 011a 9C       		.byte	0x9c
 651 011b 08       		.uleb128 0x8
 652 011c CE000000 		.4byte	.LASF22
 653 0120 01       		.byte	0x1
 654 0121 B6       		.byte	0xb6
 655 0122 00000000 		.4byte	.LFB126
 656 0126 02000000 		.4byte	.LFE126-.LFB126
 657 012a 01       		.uleb128 0x1
 658 012b 9C       		.byte	0x9c
 659 012c 09       		.uleb128 0x9
 660 012d 4D000000 		.4byte	.LASF60
 661 0131 01       		.byte	0x1
 662 0132 C0       		.byte	0xc0
 663 0133 00000000 		.4byte	.LFB127
 664 0137 54000000 		.4byte	.LFE127-.LFB127
 665 013b 01       		.uleb128 0x1
 666 013c 9C       		.byte	0x9c
 667 013d 76010000 		.4byte	0x176
 668 0141 0A       		.uleb128 0xa
 669 0142 72617000 		.ascii	"rap\000"
 670 0146 01       		.byte	0x1
 671 0147 C2       		.byte	0xc2
 672 0148 76010000 		.4byte	0x176
 673 014c 00000000 		.4byte	.LLST0
 674 0150 0B       		.uleb128 0xb
 675 0151 04000000 		.4byte	.LBB2
 676 0155 3C000000 		.4byte	.LBE2-.LBB2
 677 0159 0A       		.uleb128 0xa
 678 015a 747000   		.ascii	"tp\000"
 679 015d 01       		.byte	0x1
 680 015e C5       		.byte	0xc5
 681 015f D7000000 		.4byte	0xd7
 682 0163 6D000000 		.4byte	.LLST1
 683 0167 0A       		.uleb128 0xa
 684 0168 7000     		.ascii	"p\000"
 685 016a 01       		.byte	0x1
 686 016b C6       		.byte	0xc6
ARM GAS  /tmp/cc5vF1xZ.s 			page 30


 687 016c D7000000 		.4byte	0xd7
 688 0170 B1000000 		.4byte	.LLST2
 689 0174 00       		.byte	0
 690 0175 00       		.byte	0
 691 0176 07       		.uleb128 0x7
 692 0177 04       		.byte	0x4
 693 0178 7C010000 		.4byte	0x17c
 694 017c 0C       		.uleb128 0xc
 695 017d DD000000 		.4byte	0xdd
 696 0181 0D       		.uleb128 0xd
 697 0182 DD000000 		.4byte	0xdd
 698 0186 91010000 		.4byte	0x191
 699 018a 0E       		.uleb128 0xe
 700 018b 97000000 		.4byte	0x97
 701 018f 07       		.byte	0x7
 702 0190 00       		.byte	0
 703 0191 0F       		.uleb128 0xf
 704 0192 87000000 		.4byte	.LASF23
 705 0196 01       		.byte	0x1
 706 0197 5C       		.byte	0x5c
 707 0198 A2010000 		.4byte	0x1a2
 708 019c 05       		.uleb128 0x5
 709 019d 03       		.byte	0x3
 710 019e 00000000 		.4byte	ram_areas
 711 01a2 0C       		.uleb128 0xc
 712 01a3 81010000 		.4byte	0x181
 713 01a7 10       		.uleb128 0x10
 714 01a8 38030000 		.4byte	.LASF24
 715 01ac 04       		.byte	0x4
 716 01ad 4407     		.2byte	0x744
 717 01af B3010000 		.4byte	0x1b3
 718 01b3 11       		.uleb128 0x11
 719 01b4 81000000 		.4byte	0x81
 720 01b8 12       		.uleb128 0x12
 721 01b9 D2020000 		.4byte	.LASF25
 722 01bd 01       		.byte	0x1
 723 01be 40       		.byte	0x40
 724 01bf 8C000000 		.4byte	0x8c
 725 01c3 12       		.uleb128 0x12
 726 01c4 13000000 		.4byte	.LASF26
 727 01c8 01       		.byte	0x1
 728 01c9 40       		.byte	0x40
 729 01ca 8C000000 		.4byte	0x8c
 730 01ce 12       		.uleb128 0x12
 731 01cf 16030000 		.4byte	.LASF27
 732 01d3 01       		.byte	0x1
 733 01d4 40       		.byte	0x40
 734 01d5 8C000000 		.4byte	0x8c
 735 01d9 12       		.uleb128 0x12
 736 01da E2010000 		.4byte	.LASF28
 737 01de 01       		.byte	0x1
 738 01df 40       		.byte	0x40
 739 01e0 8C000000 		.4byte	0x8c
 740 01e4 12       		.uleb128 0x12
 741 01e5 B2010000 		.4byte	.LASF29
 742 01e9 01       		.byte	0x1
 743 01ea 43       		.byte	0x43
ARM GAS  /tmp/cc5vF1xZ.s 			page 31


 744 01eb 8C000000 		.4byte	0x8c
 745 01ef 12       		.uleb128 0x12
 746 01f0 FA000000 		.4byte	.LASF30
 747 01f4 01       		.byte	0x1
 748 01f5 43       		.byte	0x43
 749 01f6 8C000000 		.4byte	0x8c
 750 01fa 12       		.uleb128 0x12
 751 01fb 66010000 		.4byte	.LASF31
 752 01ff 01       		.byte	0x1
 753 0200 43       		.byte	0x43
 754 0201 8C000000 		.4byte	0x8c
 755 0205 12       		.uleb128 0x12
 756 0206 5F030000 		.4byte	.LASF32
 757 020a 01       		.byte	0x1
 758 020b 43       		.byte	0x43
 759 020c 8C000000 		.4byte	0x8c
 760 0210 12       		.uleb128 0x12
 761 0211 03030000 		.4byte	.LASF33
 762 0215 01       		.byte	0x1
 763 0216 46       		.byte	0x46
 764 0217 8C000000 		.4byte	0x8c
 765 021b 12       		.uleb128 0x12
 766 021c F5020000 		.4byte	.LASF34
 767 0220 01       		.byte	0x1
 768 0221 46       		.byte	0x46
 769 0222 8C000000 		.4byte	0x8c
 770 0226 12       		.uleb128 0x12
 771 0227 A3010000 		.4byte	.LASF35
 772 022b 01       		.byte	0x1
 773 022c 46       		.byte	0x46
 774 022d 8C000000 		.4byte	0x8c
 775 0231 12       		.uleb128 0x12
 776 0232 B0000000 		.4byte	.LASF36
 777 0236 01       		.byte	0x1
 778 0237 46       		.byte	0x46
 779 0238 8C000000 		.4byte	0x8c
 780 023c 12       		.uleb128 0x12
 781 023d 8B030000 		.4byte	.LASF37
 782 0241 01       		.byte	0x1
 783 0242 49       		.byte	0x49
 784 0243 8C000000 		.4byte	0x8c
 785 0247 12       		.uleb128 0x12
 786 0248 21000000 		.4byte	.LASF38
 787 024c 01       		.byte	0x1
 788 024d 49       		.byte	0x49
 789 024e 8C000000 		.4byte	0x8c
 790 0252 12       		.uleb128 0x12
 791 0253 D3010000 		.4byte	.LASF39
 792 0257 01       		.byte	0x1
 793 0258 49       		.byte	0x49
 794 0259 8C000000 		.4byte	0x8c
 795 025d 12       		.uleb128 0x12
 796 025e 69000000 		.4byte	.LASF40
 797 0262 01       		.byte	0x1
 798 0263 49       		.byte	0x49
 799 0264 8C000000 		.4byte	0x8c
 800 0268 12       		.uleb128 0x12
ARM GAS  /tmp/cc5vF1xZ.s 			page 32


 801 0269 25030000 		.4byte	.LASF41
 802 026d 01       		.byte	0x1
 803 026e 4C       		.byte	0x4c
 804 026f 8C000000 		.4byte	0x8c
 805 0273 12       		.uleb128 0x12
 806 0274 6F030000 		.4byte	.LASF42
 807 0278 01       		.byte	0x1
 808 0279 4C       		.byte	0x4c
 809 027a 8C000000 		.4byte	0x8c
 810 027e 12       		.uleb128 0x12
 811 027f F2010000 		.4byte	.LASF43
 812 0283 01       		.byte	0x1
 813 0284 4C       		.byte	0x4c
 814 0285 8C000000 		.4byte	0x8c
 815 0289 12       		.uleb128 0x12
 816 028a 6A020000 		.4byte	.LASF44
 817 028e 01       		.byte	0x1
 818 028f 4C       		.byte	0x4c
 819 0290 8C000000 		.4byte	0x8c
 820 0294 12       		.uleb128 0x12
 821 0295 00000000 		.4byte	.LASF45
 822 0299 01       		.byte	0x1
 823 029a 4F       		.byte	0x4f
 824 029b 8C000000 		.4byte	0x8c
 825 029f 12       		.uleb128 0x12
 826 02a0 79000000 		.4byte	.LASF46
 827 02a4 01       		.byte	0x1
 828 02a5 4F       		.byte	0x4f
 829 02a6 8C000000 		.4byte	0x8c
 830 02aa 12       		.uleb128 0x12
 831 02ab 2D020000 		.4byte	.LASF47
 832 02af 01       		.byte	0x1
 833 02b0 4F       		.byte	0x4f
 834 02b1 8C000000 		.4byte	0x8c
 835 02b5 12       		.uleb128 0x12
 836 02b6 E5020000 		.4byte	.LASF48
 837 02ba 01       		.byte	0x1
 838 02bb 4F       		.byte	0x4f
 839 02bc 8C000000 		.4byte	0x8c
 840 02c0 12       		.uleb128 0x12
 841 02c1 9D000000 		.4byte	.LASF49
 842 02c5 01       		.byte	0x1
 843 02c6 52       		.byte	0x52
 844 02c7 8C000000 		.4byte	0x8c
 845 02cb 12       		.uleb128 0x12
 846 02cc 7A020000 		.4byte	.LASF50
 847 02d0 01       		.byte	0x1
 848 02d1 52       		.byte	0x52
 849 02d2 8C000000 		.4byte	0x8c
 850 02d6 12       		.uleb128 0x12
 851 02d7 5B020000 		.4byte	.LASF51
 852 02db 01       		.byte	0x1
 853 02dc 52       		.byte	0x52
 854 02dd 8C000000 		.4byte	0x8c
 855 02e1 12       		.uleb128 0x12
 856 02e2 1D010000 		.4byte	.LASF52
 857 02e6 01       		.byte	0x1
ARM GAS  /tmp/cc5vF1xZ.s 			page 33


 858 02e7 52       		.byte	0x52
 859 02e8 8C000000 		.4byte	0x8c
 860 02ec 12       		.uleb128 0x12
 861 02ed BF020000 		.4byte	.LASF53
 862 02f1 01       		.byte	0x1
 863 02f2 55       		.byte	0x55
 864 02f3 8C000000 		.4byte	0x8c
 865 02f7 12       		.uleb128 0x12
 866 02f8 7D030000 		.4byte	.LASF54
 867 02fc 01       		.byte	0x1
 868 02fd 55       		.byte	0x55
 869 02fe 8C000000 		.4byte	0x8c
 870 0302 12       		.uleb128 0x12
 871 0303 88020000 		.4byte	.LASF55
 872 0307 01       		.byte	0x1
 873 0308 55       		.byte	0x55
 874 0309 8C000000 		.4byte	0x8c
 875 030d 12       		.uleb128 0x12
 876 030e 45030000 		.4byte	.LASF56
 877 0312 01       		.byte	0x1
 878 0313 55       		.byte	0x55
 879 0314 8C000000 		.4byte	0x8c
 880 0318 00       		.byte	0
 881              		.section	.debug_abbrev,"",%progbits
 882              	.Ldebug_abbrev0:
 883 0000 01       		.uleb128 0x1
 884 0001 11       		.uleb128 0x11
 885 0002 01       		.byte	0x1
 886 0003 25       		.uleb128 0x25
 887 0004 0E       		.uleb128 0xe
 888 0005 13       		.uleb128 0x13
 889 0006 0B       		.uleb128 0xb
 890 0007 03       		.uleb128 0x3
 891 0008 0E       		.uleb128 0xe
 892 0009 1B       		.uleb128 0x1b
 893 000a 0E       		.uleb128 0xe
 894 000b 55       		.uleb128 0x55
 895 000c 17       		.uleb128 0x17
 896 000d 11       		.uleb128 0x11
 897 000e 01       		.uleb128 0x1
 898 000f 10       		.uleb128 0x10
 899 0010 17       		.uleb128 0x17
 900 0011 00       		.byte	0
 901 0012 00       		.byte	0
 902 0013 02       		.uleb128 0x2
 903 0014 24       		.uleb128 0x24
 904 0015 00       		.byte	0
 905 0016 0B       		.uleb128 0xb
 906 0017 0B       		.uleb128 0xb
 907 0018 3E       		.uleb128 0x3e
 908 0019 0B       		.uleb128 0xb
 909 001a 03       		.uleb128 0x3
 910 001b 0E       		.uleb128 0xe
 911 001c 00       		.byte	0
 912 001d 00       		.byte	0
 913 001e 03       		.uleb128 0x3
 914 001f 16       		.uleb128 0x16
ARM GAS  /tmp/cc5vF1xZ.s 			page 34


 915 0020 00       		.byte	0
 916 0021 03       		.uleb128 0x3
 917 0022 0E       		.uleb128 0xe
 918 0023 3A       		.uleb128 0x3a
 919 0024 0B       		.uleb128 0xb
 920 0025 3B       		.uleb128 0x3b
 921 0026 0B       		.uleb128 0xb
 922 0027 49       		.uleb128 0x49
 923 0028 13       		.uleb128 0x13
 924 0029 00       		.byte	0
 925 002a 00       		.byte	0
 926 002b 04       		.uleb128 0x4
 927 002c 24       		.uleb128 0x24
 928 002d 00       		.byte	0
 929 002e 0B       		.uleb128 0xb
 930 002f 0B       		.uleb128 0xb
 931 0030 3E       		.uleb128 0x3e
 932 0031 0B       		.uleb128 0xb
 933 0032 03       		.uleb128 0x3
 934 0033 08       		.uleb128 0x8
 935 0034 00       		.byte	0
 936 0035 00       		.byte	0
 937 0036 05       		.uleb128 0x5
 938 0037 13       		.uleb128 0x13
 939 0038 01       		.byte	0x1
 940 0039 0B       		.uleb128 0xb
 941 003a 0B       		.uleb128 0xb
 942 003b 3A       		.uleb128 0x3a
 943 003c 0B       		.uleb128 0xb
 944 003d 3B       		.uleb128 0x3b
 945 003e 0B       		.uleb128 0xb
 946 003f 01       		.uleb128 0x1
 947 0040 13       		.uleb128 0x13
 948 0041 00       		.byte	0
 949 0042 00       		.byte	0
 950 0043 06       		.uleb128 0x6
 951 0044 0D       		.uleb128 0xd
 952 0045 00       		.byte	0
 953 0046 03       		.uleb128 0x3
 954 0047 0E       		.uleb128 0xe
 955 0048 3A       		.uleb128 0x3a
 956 0049 0B       		.uleb128 0xb
 957 004a 3B       		.uleb128 0x3b
 958 004b 0B       		.uleb128 0xb
 959 004c 49       		.uleb128 0x49
 960 004d 13       		.uleb128 0x13
 961 004e 38       		.uleb128 0x38
 962 004f 0B       		.uleb128 0xb
 963 0050 00       		.byte	0
 964 0051 00       		.byte	0
 965 0052 07       		.uleb128 0x7
 966 0053 0F       		.uleb128 0xf
 967 0054 00       		.byte	0
 968 0055 0B       		.uleb128 0xb
 969 0056 0B       		.uleb128 0xb
 970 0057 49       		.uleb128 0x49
 971 0058 13       		.uleb128 0x13
ARM GAS  /tmp/cc5vF1xZ.s 			page 35


 972 0059 00       		.byte	0
 973 005a 00       		.byte	0
 974 005b 08       		.uleb128 0x8
 975 005c 2E       		.uleb128 0x2e
 976 005d 00       		.byte	0
 977 005e 3F       		.uleb128 0x3f
 978 005f 19       		.uleb128 0x19
 979 0060 03       		.uleb128 0x3
 980 0061 0E       		.uleb128 0xe
 981 0062 3A       		.uleb128 0x3a
 982 0063 0B       		.uleb128 0xb
 983 0064 3B       		.uleb128 0x3b
 984 0065 0B       		.uleb128 0xb
 985 0066 27       		.uleb128 0x27
 986 0067 19       		.uleb128 0x19
 987 0068 11       		.uleb128 0x11
 988 0069 01       		.uleb128 0x1
 989 006a 12       		.uleb128 0x12
 990 006b 06       		.uleb128 0x6
 991 006c 40       		.uleb128 0x40
 992 006d 18       		.uleb128 0x18
 993 006e 9742     		.uleb128 0x2117
 994 0070 19       		.uleb128 0x19
 995 0071 00       		.byte	0
 996 0072 00       		.byte	0
 997 0073 09       		.uleb128 0x9
 998 0074 2E       		.uleb128 0x2e
 999 0075 01       		.byte	0x1
 1000 0076 3F       		.uleb128 0x3f
 1001 0077 19       		.uleb128 0x19
 1002 0078 03       		.uleb128 0x3
 1003 0079 0E       		.uleb128 0xe
 1004 007a 3A       		.uleb128 0x3a
 1005 007b 0B       		.uleb128 0xb
 1006 007c 3B       		.uleb128 0x3b
 1007 007d 0B       		.uleb128 0xb
 1008 007e 27       		.uleb128 0x27
 1009 007f 19       		.uleb128 0x19
 1010 0080 11       		.uleb128 0x11
 1011 0081 01       		.uleb128 0x1
 1012 0082 12       		.uleb128 0x12
 1013 0083 06       		.uleb128 0x6
 1014 0084 40       		.uleb128 0x40
 1015 0085 18       		.uleb128 0x18
 1016 0086 9742     		.uleb128 0x2117
 1017 0088 19       		.uleb128 0x19
 1018 0089 01       		.uleb128 0x1
 1019 008a 13       		.uleb128 0x13
 1020 008b 00       		.byte	0
 1021 008c 00       		.byte	0
 1022 008d 0A       		.uleb128 0xa
 1023 008e 34       		.uleb128 0x34
 1024 008f 00       		.byte	0
 1025 0090 03       		.uleb128 0x3
 1026 0091 08       		.uleb128 0x8
 1027 0092 3A       		.uleb128 0x3a
 1028 0093 0B       		.uleb128 0xb
ARM GAS  /tmp/cc5vF1xZ.s 			page 36


 1029 0094 3B       		.uleb128 0x3b
 1030 0095 0B       		.uleb128 0xb
 1031 0096 49       		.uleb128 0x49
 1032 0097 13       		.uleb128 0x13
 1033 0098 02       		.uleb128 0x2
 1034 0099 17       		.uleb128 0x17
 1035 009a 00       		.byte	0
 1036 009b 00       		.byte	0
 1037 009c 0B       		.uleb128 0xb
 1038 009d 0B       		.uleb128 0xb
 1039 009e 01       		.byte	0x1
 1040 009f 11       		.uleb128 0x11
 1041 00a0 01       		.uleb128 0x1
 1042 00a1 12       		.uleb128 0x12
 1043 00a2 06       		.uleb128 0x6
 1044 00a3 00       		.byte	0
 1045 00a4 00       		.byte	0
 1046 00a5 0C       		.uleb128 0xc
 1047 00a6 26       		.uleb128 0x26
 1048 00a7 00       		.byte	0
 1049 00a8 49       		.uleb128 0x49
 1050 00a9 13       		.uleb128 0x13
 1051 00aa 00       		.byte	0
 1052 00ab 00       		.byte	0
 1053 00ac 0D       		.uleb128 0xd
 1054 00ad 01       		.uleb128 0x1
 1055 00ae 01       		.byte	0x1
 1056 00af 49       		.uleb128 0x49
 1057 00b0 13       		.uleb128 0x13
 1058 00b1 01       		.uleb128 0x1
 1059 00b2 13       		.uleb128 0x13
 1060 00b3 00       		.byte	0
 1061 00b4 00       		.byte	0
 1062 00b5 0E       		.uleb128 0xe
 1063 00b6 21       		.uleb128 0x21
 1064 00b7 00       		.byte	0
 1065 00b8 49       		.uleb128 0x49
 1066 00b9 13       		.uleb128 0x13
 1067 00ba 2F       		.uleb128 0x2f
 1068 00bb 0B       		.uleb128 0xb
 1069 00bc 00       		.byte	0
 1070 00bd 00       		.byte	0
 1071 00be 0F       		.uleb128 0xf
 1072 00bf 34       		.uleb128 0x34
 1073 00c0 00       		.byte	0
 1074 00c1 03       		.uleb128 0x3
 1075 00c2 0E       		.uleb128 0xe
 1076 00c3 3A       		.uleb128 0x3a
 1077 00c4 0B       		.uleb128 0xb
 1078 00c5 3B       		.uleb128 0x3b
 1079 00c6 0B       		.uleb128 0xb
 1080 00c7 49       		.uleb128 0x49
 1081 00c8 13       		.uleb128 0x13
 1082 00c9 02       		.uleb128 0x2
 1083 00ca 18       		.uleb128 0x18
 1084 00cb 00       		.byte	0
 1085 00cc 00       		.byte	0
ARM GAS  /tmp/cc5vF1xZ.s 			page 37


 1086 00cd 10       		.uleb128 0x10
 1087 00ce 34       		.uleb128 0x34
 1088 00cf 00       		.byte	0
 1089 00d0 03       		.uleb128 0x3
 1090 00d1 0E       		.uleb128 0xe
 1091 00d2 3A       		.uleb128 0x3a
 1092 00d3 0B       		.uleb128 0xb
 1093 00d4 3B       		.uleb128 0x3b
 1094 00d5 05       		.uleb128 0x5
 1095 00d6 49       		.uleb128 0x49
 1096 00d7 13       		.uleb128 0x13
 1097 00d8 3F       		.uleb128 0x3f
 1098 00d9 19       		.uleb128 0x19
 1099 00da 3C       		.uleb128 0x3c
 1100 00db 19       		.uleb128 0x19
 1101 00dc 00       		.byte	0
 1102 00dd 00       		.byte	0
 1103 00de 11       		.uleb128 0x11
 1104 00df 35       		.uleb128 0x35
 1105 00e0 00       		.byte	0
 1106 00e1 49       		.uleb128 0x49
 1107 00e2 13       		.uleb128 0x13
 1108 00e3 00       		.byte	0
 1109 00e4 00       		.byte	0
 1110 00e5 12       		.uleb128 0x12
 1111 00e6 34       		.uleb128 0x34
 1112 00e7 00       		.byte	0
 1113 00e8 03       		.uleb128 0x3
 1114 00e9 0E       		.uleb128 0xe
 1115 00ea 3A       		.uleb128 0x3a
 1116 00eb 0B       		.uleb128 0xb
 1117 00ec 3B       		.uleb128 0x3b
 1118 00ed 0B       		.uleb128 0xb
 1119 00ee 49       		.uleb128 0x49
 1120 00ef 13       		.uleb128 0x13
 1121 00f0 3F       		.uleb128 0x3f
 1122 00f1 19       		.uleb128 0x19
 1123 00f2 3C       		.uleb128 0x3c
 1124 00f3 19       		.uleb128 0x19
 1125 00f4 00       		.byte	0
 1126 00f5 00       		.byte	0
 1127 00f6 00       		.byte	0
 1128              		.section	.debug_loc,"",%progbits
 1129              	.Ldebug_loc0:
 1130              	.LLST0:
 1131 0000 00000000 		.4byte	.LVL0
 1132 0004 0A000000 		.4byte	.LVL1
 1133 0008 0600     		.2byte	0x6
 1134 000a 03       		.byte	0x3
 1135 000b 00000000 		.4byte	ram_areas
 1136 000f 9F       		.byte	0x9f
 1137 0010 0A000000 		.4byte	.LVL1
 1138 0014 0E000000 		.4byte	.LVL2
 1139 0018 0300     		.2byte	0x3
 1140 001a 76       		.byte	0x76
 1141 001b 70       		.sleb128 -16
 1142 001c 9F       		.byte	0x9f
ARM GAS  /tmp/cc5vF1xZ.s 			page 38


 1143 001d 0E000000 		.4byte	.LVL2
 1144 0021 10000000 		.4byte	.LVL3
 1145 0025 0100     		.2byte	0x1
 1146 0027 51       		.byte	0x51
 1147 0028 10000000 		.4byte	.LVL3
 1148 002c 40000000 		.4byte	.LVL11
 1149 0030 0300     		.2byte	0x3
 1150 0032 76       		.byte	0x76
 1151 0033 70       		.sleb128 -16
 1152 0034 9F       		.byte	0x9f
 1153 0035 40000000 		.4byte	.LVL11
 1154 0039 4A000000 		.4byte	.LVL13
 1155 003d 0100     		.2byte	0x1
 1156 003f 56       		.byte	0x56
 1157 0040 4A000000 		.4byte	.LVL13
 1158 0044 4C000000 		.4byte	.LVL14
 1159 0048 0300     		.2byte	0x3
 1160 004a 73       		.byte	0x73
 1161 004b 70       		.sleb128 -16
 1162 004c 9F       		.byte	0x9f
 1163 004d 4C000000 		.4byte	.LVL14
 1164 0051 4E000000 		.4byte	.LVL15
 1165 0055 0100     		.2byte	0x1
 1166 0057 56       		.byte	0x56
 1167 0058 4E000000 		.4byte	.LVL15
 1168 005c 54000000 		.4byte	.LFE127
 1169 0060 0300     		.2byte	0x3
 1170 0062 73       		.byte	0x73
 1171 0063 70       		.sleb128 -16
 1172 0064 9F       		.byte	0x9f
 1173 0065 00000000 		.4byte	0
 1174 0069 00000000 		.4byte	0
 1175              	.LLST1:
 1176 006d 10000000 		.4byte	.LVL3
 1177 0071 16000000 		.4byte	.LVL4
 1178 0075 0100     		.2byte	0x1
 1179 0077 51       		.byte	0x51
 1180 0078 16000000 		.4byte	.LVL4
 1181 007c 18000000 		.4byte	.LVL5
 1182 0080 0200     		.2byte	0x2
 1183 0082 76       		.byte	0x76
 1184 0083 70       		.sleb128 -16
 1185 0084 18000000 		.4byte	.LVL5
 1186 0088 1C000000 		.4byte	.LVL6
 1187 008c 0300     		.2byte	0x3
 1188 008e 71       		.byte	0x71
 1189 008f 04       		.sleb128 4
 1190 0090 9F       		.byte	0x9f
 1191 0091 1C000000 		.4byte	.LVL6
 1192 0095 20000000 		.4byte	.LVL7
 1193 0099 0100     		.2byte	0x1
 1194 009b 51       		.byte	0x51
 1195 009c 20000000 		.4byte	.LVL7
 1196 00a0 30000000 		.4byte	.LVL9
 1197 00a4 0300     		.2byte	0x3
 1198 00a6 71       		.byte	0x71
 1199 00a7 04       		.sleb128 4
ARM GAS  /tmp/cc5vF1xZ.s 			page 39


 1200 00a8 9F       		.byte	0x9f
 1201 00a9 00000000 		.4byte	0
 1202 00ad 00000000 		.4byte	0
 1203              	.LLST2:
 1204 00b1 10000000 		.4byte	.LVL3
 1205 00b5 18000000 		.4byte	.LVL5
 1206 00b9 0100     		.2byte	0x1
 1207 00bb 53       		.byte	0x53
 1208 00bc 18000000 		.4byte	.LVL5
 1209 00c0 26000000 		.4byte	.LVL8
 1210 00c4 0100     		.2byte	0x1
 1211 00c6 52       		.byte	0x52
 1212 00c7 30000000 		.4byte	.LVL9
 1213 00cb 46000000 		.4byte	.LVL12
 1214 00cf 0100     		.2byte	0x1
 1215 00d1 53       		.byte	0x53
 1216 00d2 00000000 		.4byte	0
 1217 00d6 00000000 		.4byte	0
 1218              		.section	.debug_aranges,"",%progbits
 1219 0000 3C000000 		.4byte	0x3c
 1220 0004 0200     		.2byte	0x2
 1221 0006 00000000 		.4byte	.Ldebug_info0
 1222 000a 04       		.byte	0x4
 1223 000b 00       		.byte	0
 1224 000c 0000     		.2byte	0
 1225 000e 0000     		.2byte	0
 1226 0010 00000000 		.4byte	.LFB123
 1227 0014 02000000 		.4byte	.LFE123-.LFB123
 1228 0018 00000000 		.4byte	.LFB124
 1229 001c 02000000 		.4byte	.LFE124-.LFB124
 1230 0020 00000000 		.4byte	.LFB125
 1231 0024 02000000 		.4byte	.LFE125-.LFB125
 1232 0028 00000000 		.4byte	.LFB126
 1233 002c 02000000 		.4byte	.LFE126-.LFB126
 1234 0030 00000000 		.4byte	.LFB127
 1235 0034 54000000 		.4byte	.LFE127-.LFB127
 1236 0038 00000000 		.4byte	0
 1237 003c 00000000 		.4byte	0
 1238              		.section	.debug_ranges,"",%progbits
 1239              	.Ldebug_ranges0:
 1240 0000 00000000 		.4byte	.LFB123
 1241 0004 02000000 		.4byte	.LFE123
 1242 0008 00000000 		.4byte	.LFB124
 1243 000c 02000000 		.4byte	.LFE124
 1244 0010 00000000 		.4byte	.LFB125
 1245 0014 02000000 		.4byte	.LFE125
 1246 0018 00000000 		.4byte	.LFB126
 1247 001c 02000000 		.4byte	.LFE126
 1248 0020 00000000 		.4byte	.LFB127
 1249 0024 54000000 		.4byte	.LFE127
 1250 0028 00000000 		.4byte	0
 1251 002c 00000000 		.4byte	0
 1252              		.section	.debug_line,"",%progbits
 1253              	.Ldebug_line0:
 1254 0000 E9010000 		.section	.debug_str,"MS",%progbits,1
 1254      02008001 
 1254      00000201 
ARM GAS  /tmp/cc5vF1xZ.s 			page 40


 1254      FB0E0D00 
 1254      01010101 
 1255              	.LASF45:
 1256 0000 5F5F7261 		.ascii	"__ram5_init_text__\000"
 1256      6D355F69 
 1256      6E69745F 
 1256      74657874 
 1256      5F5F00
 1257              	.LASF26:
 1258 0013 5F5F7261 		.ascii	"__ram0_init__\000"
 1258      6D305F69 
 1258      6E69745F 
 1258      5F00
 1259              	.LASF38:
 1260 0021 5F5F7261 		.ascii	"__ram3_init__\000"
 1260      6D335F69 
 1260      6E69745F 
 1260      5F00
 1261              	.LASF16:
 1262 002f 636C6561 		.ascii	"clear_area\000"
 1262      725F6172 
 1262      656100
 1263              	.LASF2:
 1264 003a 73686F72 		.ascii	"short int\000"
 1264      7420696E 
 1264      7400
 1265              	.LASF13:
 1266 0044 73697A65 		.ascii	"sizetype\000"
 1266      74797065 
 1266      00
 1267              	.LASF60:
 1268 004d 5F5F696E 		.ascii	"__init_ram_areas\000"
 1268      69745F72 
 1268      616D5F61 
 1268      72656173 
 1268      00
 1269              	.LASF6:
 1270 005e 5F5F7569 		.ascii	"__uint32_t\000"
 1270      6E743332 
 1270      5F7400
 1271              	.LASF40:
 1272 0069 5F5F7261 		.ascii	"__ram3_noinit__\000"
 1272      6D335F6E 
 1272      6F696E69 
 1272      745F5F00 
 1273              	.LASF46:
 1274 0079 5F5F7261 		.ascii	"__ram5_init__\000"
 1274      6D355F69 
 1274      6E69745F 
 1274      5F00
 1275              	.LASF23:
 1276 0087 72616D5F 		.ascii	"ram_areas\000"
 1276      61726561 
 1276      7300
 1277              	.LASF19:
 1278 0091 5F5F636F 		.ascii	"__core_init\000"
 1278      72655F69 
ARM GAS  /tmp/cc5vF1xZ.s 			page 41


 1278      6E697400 
 1279              	.LASF49:
 1280 009d 5F5F7261 		.ascii	"__ram6_init_text__\000"
 1280      6D365F69 
 1280      6E69745F 
 1280      74657874 
 1280      5F5F00
 1281              	.LASF36:
 1282 00b0 5F5F7261 		.ascii	"__ram2_noinit__\000"
 1282      6D325F6E 
 1282      6F696E69 
 1282      745F5F00 
 1283              	.LASF8:
 1284 00c0 6C6F6E67 		.ascii	"long long int\000"
 1284      206C6F6E 
 1284      6720696E 
 1284      7400
 1285              	.LASF22:
 1286 00ce 5F5F6465 		.ascii	"__default_exit\000"
 1286      6661756C 
 1286      745F6578 
 1286      697400
 1287              	.LASF17:
 1288 00dd 6E6F5F69 		.ascii	"no_init_area\000"
 1288      6E69745F 
 1288      61726561 
 1288      00
 1289              	.LASF18:
 1290 00ea 72616D5F 		.ascii	"ram_init_area_t\000"
 1290      696E6974 
 1290      5F617265 
 1290      615F7400 
 1291              	.LASF30:
 1292 00fa 5F5F7261 		.ascii	"__ram1_init__\000"
 1292      6D315F69 
 1292      6E69745F 
 1292      5F00
 1293              	.LASF4:
 1294 0108 6C6F6E67 		.ascii	"long int\000"
 1294      20696E74 
 1294      00
 1295              	.LASF21:
 1296 0111 5F5F6C61 		.ascii	"__late_init\000"
 1296      74655F69 
 1296      6E697400 
 1297              	.LASF52:
 1298 011d 5F5F7261 		.ascii	"__ram6_noinit__\000"
 1298      6D365F6E 
 1298      6F696E69 
 1298      745F5F00 
 1299              	.LASF58:
 1300 012d 2E2E2F43 		.ascii	"../ChibiOS/os/common/startup/ARMCMx/compilers/GCC/c"
 1300      68696269 
 1300      4F532F6F 
 1300      732F636F 
 1300      6D6D6F6E 
 1301 0160 7274312E 		.ascii	"rt1.c\000"
ARM GAS  /tmp/cc5vF1xZ.s 			page 42


 1301      6300
 1302              	.LASF31:
 1303 0166 5F5F7261 		.ascii	"__ram1_clear__\000"
 1303      6D315F63 
 1303      6C656172 
 1303      5F5F00
 1304              	.LASF59:
 1305 0175 2F6E6673 		.ascii	"/nfs/nfs7/home/npalumbo/p442-submissions/lab3\000"
 1305      2F6E6673 
 1305      372F686F 
 1305      6D652F6E 
 1305      70616C75 
 1306              	.LASF35:
 1307 01a3 5F5F7261 		.ascii	"__ram2_clear__\000"
 1307      6D325F63 
 1307      6C656172 
 1307      5F5F00
 1308              	.LASF29:
 1309 01b2 5F5F7261 		.ascii	"__ram1_init_text__\000"
 1309      6D315F69 
 1309      6E69745F 
 1309      74657874 
 1309      5F5F00
 1310              	.LASF1:
 1311 01c5 756E7369 		.ascii	"unsigned char\000"
 1311      676E6564 
 1311      20636861 
 1311      7200
 1312              	.LASF39:
 1313 01d3 5F5F7261 		.ascii	"__ram3_clear__\000"
 1313      6D335F63 
 1313      6C656172 
 1313      5F5F00
 1314              	.LASF28:
 1315 01e2 5F5F7261 		.ascii	"__ram0_noinit__\000"
 1315      6D305F6E 
 1315      6F696E69 
 1315      745F5F00 
 1316              	.LASF43:
 1317 01f2 5F5F7261 		.ascii	"__ram4_clear__\000"
 1317      6D345F63 
 1317      6C656172 
 1317      5F5F00
 1318              	.LASF0:
 1319 0201 7369676E 		.ascii	"signed char\000"
 1319      65642063 
 1319      68617200 
 1320              	.LASF9:
 1321 020d 6C6F6E67 		.ascii	"long long unsigned int\000"
 1321      206C6F6E 
 1321      6720756E 
 1321      7369676E 
 1321      65642069 
 1322              	.LASF12:
 1323 0224 75696E74 		.ascii	"uint32_t\000"
 1323      33325F74 
 1323      00
ARM GAS  /tmp/cc5vF1xZ.s 			page 43


 1324              	.LASF47:
 1325 022d 5F5F7261 		.ascii	"__ram5_clear__\000"
 1325      6D355F63 
 1325      6C656172 
 1325      5F5F00
 1326              	.LASF10:
 1327 023c 756E7369 		.ascii	"unsigned int\000"
 1327      676E6564 
 1327      20696E74 
 1327      00
 1328              	.LASF7:
 1329 0249 6C6F6E67 		.ascii	"long unsigned int\000"
 1329      20756E73 
 1329      69676E65 
 1329      6420696E 
 1329      7400
 1330              	.LASF51:
 1331 025b 5F5F7261 		.ascii	"__ram6_clear__\000"
 1331      6D365F63 
 1331      6C656172 
 1331      5F5F00
 1332              	.LASF44:
 1333 026a 5F5F7261 		.ascii	"__ram4_noinit__\000"
 1333      6D345F6E 
 1333      6F696E69 
 1333      745F5F00 
 1334              	.LASF50:
 1335 027a 5F5F7261 		.ascii	"__ram6_init__\000"
 1335      6D365F69 
 1335      6E69745F 
 1335      5F00
 1336              	.LASF55:
 1337 0288 5F5F7261 		.ascii	"__ram7_clear__\000"
 1337      6D375F63 
 1337      6C656172 
 1337      5F5F00
 1338              	.LASF20:
 1339 0297 5F5F6561 		.ascii	"__early_init\000"
 1339      726C795F 
 1339      696E6974 
 1339      00
 1340              	.LASF11:
 1341 02a4 696E7433 		.ascii	"int32_t\000"
 1341      325F7400 
 1342              	.LASF3:
 1343 02ac 73686F72 		.ascii	"short unsigned int\000"
 1343      7420756E 
 1343      7369676E 
 1343      65642069 
 1343      6E7400
 1344              	.LASF53:
 1345 02bf 5F5F7261 		.ascii	"__ram7_init_text__\000"
 1345      6D375F69 
 1345      6E69745F 
 1345      74657874 
 1345      5F5F00
 1346              	.LASF25:
ARM GAS  /tmp/cc5vF1xZ.s 			page 44


 1347 02d2 5F5F7261 		.ascii	"__ram0_init_text__\000"
 1347      6D305F69 
 1347      6E69745F 
 1347      74657874 
 1347      5F5F00
 1348              	.LASF48:
 1349 02e5 5F5F7261 		.ascii	"__ram5_noinit__\000"
 1349      6D355F6E 
 1349      6F696E69 
 1349      745F5F00 
 1350              	.LASF34:
 1351 02f5 5F5F7261 		.ascii	"__ram2_init__\000"
 1351      6D325F69 
 1351      6E69745F 
 1351      5F00
 1352              	.LASF33:
 1353 0303 5F5F7261 		.ascii	"__ram2_init_text__\000"
 1353      6D325F69 
 1353      6E69745F 
 1353      74657874 
 1353      5F5F00
 1354              	.LASF27:
 1355 0316 5F5F7261 		.ascii	"__ram0_clear__\000"
 1355      6D305F63 
 1355      6C656172 
 1355      5F5F00
 1356              	.LASF41:
 1357 0325 5F5F7261 		.ascii	"__ram4_init_text__\000"
 1357      6D345F69 
 1357      6E69745F 
 1357      74657874 
 1357      5F5F00
 1358              	.LASF24:
 1359 0338 49544D5F 		.ascii	"ITM_RxBuffer\000"
 1359      52784275 
 1359      66666572 
 1359      00
 1360              	.LASF56:
 1361 0345 5F5F7261 		.ascii	"__ram7_noinit__\000"
 1361      6D375F6E 
 1361      6F696E69 
 1361      745F5F00 
 1362              	.LASF5:
 1363 0355 5F5F696E 		.ascii	"__int32_t\000"
 1363      7433325F 
 1363      7400
 1364              	.LASF32:
 1365 035f 5F5F7261 		.ascii	"__ram1_noinit__\000"
 1365      6D315F6E 
 1365      6F696E69 
 1365      745F5F00 
 1366              	.LASF42:
 1367 036f 5F5F7261 		.ascii	"__ram4_init__\000"
 1367      6D345F69 
 1367      6E69745F 
 1367      5F00
 1368              	.LASF54:
ARM GAS  /tmp/cc5vF1xZ.s 			page 45


 1369 037d 5F5F7261 		.ascii	"__ram7_init__\000"
 1369      6D375F69 
 1369      6E69745F 
 1369      5F00
 1370              	.LASF37:
 1371 038b 5F5F7261 		.ascii	"__ram3_init_text__\000"
 1371      6D335F69 
 1371      6E69745F 
 1371      74657874 
 1371      5F5F00
 1372              	.LASF15:
 1373 039e 696E6974 		.ascii	"init_area\000"
 1373      5F617265 
 1373      6100
 1374              	.LASF57:
 1375 03a8 474E5520 		.ascii	"GNU C 4.8.4 20140526 (release) [ARM/embedded-4_8-br"
 1375      4320342E 
 1375      382E3420 
 1375      32303134 
 1375      30353236 
 1376 03db 616E6368 		.ascii	"anch revision 211358] -mcpu=cortex-m4 -mno-thumb-in"
 1376      20726576 
 1376      6973696F 
 1376      6E203231 
 1376      31333538 
 1377 040e 74657277 		.ascii	"terwork -mthumb -ggdb -O2 -fomit-frame-pointer -fal"
 1377      6F726B20 
 1377      2D6D7468 
 1377      756D6220 
 1377      2D676764 
 1378 0441 69676E2D 		.ascii	"ign-functions=16 -ffunction-sections -fdata-section"
 1378      66756E63 
 1378      74696F6E 
 1378      733D3136 
 1378      202D6666 
 1379 0474 73202D66 		.ascii	"s -fno-common -flto\000"
 1379      6E6F2D63 
 1379      6F6D6D6F 
 1379      6E202D66 
 1379      6C746F00 
 1380              	.LASF14:
 1381 0488 696E6974 		.ascii	"init_text_area\000"
 1381      5F746578 
 1381      745F6172 
 1381      656100
 1382              		.comm	__gnu_lto_v1,1,1
 1383              		.ident	"GCC: (GNU Tools for ARM Embedded Processors) 4.8.4 20140526 (release) [ARM/embedded-4_8-br
ARM GAS  /tmp/cc5vF1xZ.s 			page 46


DEFINED SYMBOLS
                            *ABS*:00000000 crt1.c
     /tmp/cc5vF1xZ.s:301    .text.__core_init:00000000 $t
     /tmp/cc5vF1xZ.s:307    .text.__core_init:00000000 __core_init
     /tmp/cc5vF1xZ.s:320    .text.__early_init:00000000 $t
     /tmp/cc5vF1xZ.s:326    .text.__early_init:00000000 __early_init
     /tmp/cc5vF1xZ.s:338    .text.__late_init:00000000 $t
     /tmp/cc5vF1xZ.s:344    .text.__late_init:00000000 __late_init
     /tmp/cc5vF1xZ.s:356    .text.__default_exit:00000000 $t
     /tmp/cc5vF1xZ.s:362    .text.__default_exit:00000000 __default_exit
     /tmp/cc5vF1xZ.s:376    .text.__init_ram_areas:00000000 $t
     /tmp/cc5vF1xZ.s:382    .text.__init_ram_areas:00000000 __init_ram_areas
     /tmp/cc5vF1xZ.s:464    .text.__init_ram_areas:00000050 $d
     /tmp/cc5vF1xZ.s:469    .rodata.ram_areas:00000000 $d
     /tmp/cc5vF1xZ.s:473    .rodata.ram_areas:00000000 ram_areas
                            *COM*:00000001 __gnu_lto_v1
                     .debug_frame:00000010 $d
     /tmp/cc5vF1xZ.s:468    .text.__init_ram_areas:00000054 $t

UNDEFINED SYMBOLS
__ram0_init_text__
__ram0_init__
__ram0_clear__
__ram0_noinit__
__ram1_init_text__
__ram1_init__
__ram1_clear__
__ram1_noinit__
__ram2_init_text__
__ram2_init__
__ram2_clear__
__ram2_noinit__
__ram3_init_text__
__ram3_init__
__ram3_clear__
__ram3_noinit__
__ram4_init_text__
__ram4_init__
__ram4_clear__
__ram4_noinit__
__ram5_init_text__
__ram5_init__
__ram5_clear__
__ram5_noinit__
__ram6_init_text__
__ram6_init__
__ram6_clear__
__ram6_noinit__
__ram7_init_text__
__ram7_init__
__ram7_clear__
__ram7_noinit__
