ARM GAS  /tmp/cc5vF1xZ.s 			page 1


   1              		.syntax unified
   2              		.cpu cortex-m4
   3              		.fpu softvfp
   4              		.eabi_attribute 20, 1
   5              		.eabi_attribute 21, 1
   6              		.eabi_attribute 23, 3
   7              		.eabi_attribute 24, 1
   8              		.eabi_attribute 25, 1
   9              		.eabi_attribute 26, 1
  10              		.eabi_attribute 30, 2
  11              		.eabi_attribute 34, 1
  12              		.eabi_attribute 18, 4
  13              		.thumb
  14              		.file	"crt1.c"
  15              		.text
  16              	.Ltext0:
  17              		.section	.gnu.lto_.jmpfuncs.7fd504ddbc6df086,"",%progbits
  18 0000 789C6362 		.ascii	"x\234cb`b\300\006x\2404+\003\003#P\0113\003\013\003"
  18      6062C006 
  18      78A0342B 
  18      03032350 
  18      0933030B 
  19 0015 03000236 		.ascii	"\003\000\0026\000 "
  19      0020
  20              		.text
  21              		.section	.gnu.lto_.inline.7fd504ddbc6df086,"",%progbits
  22 0000 789C6362 		.ascii	"x\234cb`b\300\006\342\2414+\003\0033\023#X\021\333\002"
  22      6062C006 
  22      E2A1342B 
  22      03033313 
  22      235811DB 
  23 0015 79B05A46 		.ascii	"y\260ZF\014\021&\014\021f \017\"\302\002\261\200\205"
  23      0C11260C 
  23      1166200F 
  23      22C202B1 
  23      8085
  24 0027 41E41527 		.ascii	"A\344\025'PD\251m\321LF\2702\006\000\3774\006\240"
  24      5044A96D 
  24      D14C46B8 
  24      320600FF 
  24      3406A0
  25              		.text
  26              		.section	.gnu.lto_.pureconst.7fd504ddbc6df086,"",%progbits
  27 0000 789C6362 		.ascii	"x\234cb`b\340f\200\000V\006\011F\011&\011f\023\026)"
  27      6062E066 
  27      80005606 
  27      09460926 
  27      09661316 
  28 0015 00044D00 		.ascii	"\000\004M\000\265"
  28      B5
  29              		.text
  30              		.section	.gnu.lto___core_init.7fd504ddbc6df086,"",%progbits
  31 0000 789C6362 		.ascii	"x\234cb`b@\007\222@\034\014\304\326@\314\310\314\300"
  31      60624007 
  31      92401C0C 
  31      C4D640CC 
  31      C8CCC0
ARM GAS  /tmp/cc5vF1xZ.s 			page 2


  32 0013 C834E11C 		.ascii	"\3104\341\034\003C#\007\023##\210\301\300\310P\317\304"
  32      03432307 
  32      13232388 
  32      C1C0C850 
  32      CFC4
  33 0025 581FC908 		.ascii	"X\037\311\010V\273\236\351\300\203\377\377\327m\350"
  33      56BB9EE9 
  33      C083FFFF 
  33      D76DE8
  34 0034 9AF38671 		.ascii	"\232\363\206q%\023\310,V\206\226\206\206\011\012\014"
  34      2513C82C 
  34      56869686 
  34      86090A0C 
  35 0044 0CC96015 		.ascii	"\014\311`\025!@\022\244-\224\221\011D3_d`Ld\\\310\310"
  35      214012A4 
  35      2D949109 
  35      44335F64 
  35      604C645C 
  36 005a 0AB72D84 		.ascii	"\012\267-\204\221\021$\001\322j\251\247\247\357\234"
  36      91112401 
  36      D26AA9A7 
  36      A7EF9C
  37 0069 919994E9 		.ascii	"\221\231\224\351\037\254\237_\254\237\234\237\233\233"
  37      1FAC9F5F 
  37      AC9F9C9F 
  37      9B9B
  38 0077 9FA75F5C 		.ascii	"\237\247_\\\222XTRZ\240\357\030\344\353\354[\001\022"
  38      92585452 
  38      5AA0EF18 
  38      E4EBEC5B 
  38      0112
  39 0089 2DC8CC49 		.ascii	"-\310\314I-*\326wwv\326O.*1\324Kf\000\000<:*\371"
  39      2D2AD677 
  39      7776D64F 
  39      2E2A31D4 
  39      4B660000 
  40              		.text
  41              		.section	.gnu.lto___early_init.7fd504ddbc6df086,"",%progbits
  42 0000 789C6362 		.ascii	"x\234cb`b@\007\222@\034\000\304\326@\314\310\314\300"
  42      60624007 
  42      92401C00 
  42      C4D640CC 
  42      C8CCC0
  43 0013 C834E11C 		.ascii	"\3104\341\034\003C#\007\023##\210\301\300\310P\317\304"
  43      03432307 
  43      13232388 
  43      C1C0C850 
  43      CFC4
  44 0025 581FC908 		.ascii	"X\037\311\010V\273\236\351\300\203\377\377\327};5G\002"
  44      56BB9EE9 
  44      C083FFFF 
  44      D77D3B35 
  44      4702
  45 0037 64102B43 		.ascii	"d\020+CKC\303\004\005\006\206d\260t\010\220\004\351"
  45      4B43C304 
  45      05068664 
  45      B0740890 
ARM GAS  /tmp/cc5vF1xZ.s 			page 3


  45      04E9
  46 0049 09656402 		.ascii	"\011ed\002\321\314\027\031\030\023\031\0272\262\302"
  46      D1CC1719 
  46      18131917 
  46      32B2C2
  47 0058 AD0A6164 		.ascii	"\255\012ad\004I\200\264Z\352\351\351;gd&e\372\007\353"
  47      044980B4 
  47      5AEAE9E9 
  47      3B676426 
  47      65FA07EB 
  48 006c E717EB27 		.ascii	"\347\027\353'\347\347\346\346\347\351\027\227$\026\225"
  48      E7E7E6E6 
  48      E7E91797 
  48      241695
  49 007b 9416E83B 		.ascii	"\224\026\350;\006\371:\373V\200D\0132sR\213\212\365"
  49      06F93AFB 
  49      5680440B 
  49      3273528B 
  49      8AF5
  50 008d DD9D9DF5 		.ascii	"\335\235\235\365\223\213J\014\365\222\031\000\234e)"
  50      938B4A0C 
  50      F5921900 
  50      9C6529
  51 009c FC       		.ascii	"\374"
  52              		.text
  53              		.section	.gnu.lto___late_init.7fd504ddbc6df086,"",%progbits
  54 0000 789C6362 		.ascii	"x\234cb`b@\007\222@\034\000\304\326@\314\310\314\300"
  54      60624007 
  54      92401C00 
  54      C4D640CC 
  54      C8CCC0
  55 0013 C834E11C 		.ascii	"\3104\341\034\003C#\007\023##\210\301\300\310P\317\304"
  55      03432307 
  55      13232388 
  55      C1C0C850 
  55      CFC4
  56 0025 581FC908 		.ascii	"X\037\311\010V\273\236\351\300\203\377\377\327m\352"
  56      56BB9EE9 
  56      C083FFFF 
  56      D76DEA
  57 0034 9E230132 		.ascii	"\236#\0012\210\225\241\245\241a\202\002\003C2X:\004"
  57      8895A1A5 
  57      A1618202 
  57      03433258 
  57      3A04
  58 0046 4882F484 		.ascii	"H\202\364\20422\201h\346\213\014\214\211\214\013\031"
  58      32328168 
  58      E68B0C8C 
  58      898C0B19 
  59 0056 59E15685 		.ascii	"Y\341V\20502\202$@Z-\365\364\364\23532\2232\375\203"
  59      30328224 
  59      405A2DF5 
  59      F4F49D33 
  59      329332FD 
  60 006b F5F38BF5 		.ascii	"\365\363\213\365\223\363ss\363\363\364\213K\022\213"
  60      93F37373 
  60      F3F3F48B 
ARM GAS  /tmp/cc5vF1xZ.s 			page 4


  60      4B128B
  61 007a 4A4A0BF4 		.ascii	"JJ\013\364\035\203|\235}+@\242\005\2319\251E\305\372"
  61      1D837C9D 
  61      7D2B40A2 
  61      059939A9 
  61      45C5FA
  62 008d EECECEFA 		.ascii	"\356\316\316\372\311E%\206z\311\014\000\\\255)y"
  62      C9452586 
  62      7AC90C00 
  62      5CAD2979 
  63              		.text
  64              		.section	.gnu.lto___default_exit.7fd504ddbc6df086,"",%progbits
  65 0000 789C6362 		.ascii	"x\234cb`b@\007:@\354\003\304\326@\314\310\312\300\310"
  65      60624007 
  65      3A40EC03 
  65      C4D640CC 
  65      C8CAC0C8 
  66 0014 34E11C03 		.ascii	"4\341\034\003C#\007\023#3\210\301\310\314\310\002\021"
  66      43230713 
  66      233388C1 
  66      C8CCC802 
  66      11
  67 0025 60810838 		.ascii	"`\201\010822\32431\2630\326G2\202\265\257g:\360\340"
  67      3232D433 
  67      31B330D6 
  67      473282B5 
  67      AF673AF0 
  68 003a FFFF7577 		.ascii	"\377\377uwN\317\335\303\270\236\011$\306\312\320\322"
  68      4ECFDDC3 
  68      B89E0924 
  68      C6CAD0D2 
  69 004a D0304181 		.ascii	"\3200A\201\201!\031\254\"\004H2\002I&\240Y!\214\314"
  69      812119AC 
  69      22044832 
  69      024926A0 
  69      59218CCC 
  70 005e 0C404318 		.ascii	"\014@C\030C\030Y\2404\304\020\006K==}\347\214\314\244"
  70      431859A0 
  70      34C41006 
  70      4B3D3D7D 
  70      E78CCCA4 
  71 0072 4CFF60FD 		.ascii	"L\377`\375\374b\375\344\374\334\334\374<\375\342\222"
  71      FC62FDE4 
  71      FCDCDCFC 
  71      3CFDE292 
  72 0082 C4A292D2 		.ascii	"\304\242\222\322\002}\307 _g\337\012\220hAfNjQ\261\276"
  72      027DC720 
  72      5F67DF0A 
  72      90684166 
  72      4E6A51B1 
  73 0097 BBB3B37E 		.ascii	"\273\263\263~rQ\211\241^2\003\000p\350,c"
  73      725189A1 
  73      5E320300 
  73      70E82C63 
  74              		.text
  75              		.section	.gnu.lto___init_ram_areas.7fd504ddbc6df086,"",%progbits
  76 0000 789C8D54 		.ascii	"x\234\215TMhSA\020\236\331}/y\371\251II\004\013\212"
ARM GAS  /tmp/cc5vF1xZ.s 			page 5


  76      4D685341 
  76      109ED97D 
  76      2F79F9A9 
  76      4949040B 
  77 0015 A5081EC4 		.ascii	"\245\010\036\304\006O\"x\260D\360TDmA\017\242i\224\030"
  77      064F2278 
  77      B044F054 
  77      446D410F 
  77      A2699418 
  78 0029 3436F407 		.ascii	"46\364\007\004\205n\332\012\242E\243 T[\241\245\024"
  78      04856EDA 
  78      0AA245A3 
  78      20545BA1 
  78      A514
  79 003b FF0A225E 		.ascii	"\377\012\"^\202xHAi\0135\230cE\241Z\354\241\012R\252"
  79      82784841 
  79      690B3598 
  79      6345A15A 
  79      ECA10A52 
  80 0050 07458CB3 		.ascii	"\007E\214\263o\367%\264\244\352B2\273\363\363\315\314"
  80      6FF725B4 
  80      A4EA4232 
  80      BBF3F3CD 
  80      CC
  81 0061 B73B8F01 		.ascii	"\267;\217\001\203\265\253\217~gM\200\375$\321\017\310"
  81      83B5AB8F 
  81      7E674D80 
  81      FD24D10F 
  81      C8
  82 0072 B205808C 		.ascii	"\262\005\200\214\305\220\253\015GSm\014\265\231\264"
  82      C590AB0D 
  82      47536D0C 
  82      B599B4
  83 0081 4C660C4C 		.ascii	"Lf\014L\001\010\257\253\337\015\302\357BK\352\321\255"
  83      0108AFAB 
  83      DF0DC2EF 
  83      424BEAD1 
  83      AD
  84 0092 E4A46531 		.ascii	"\344\244e1\267\262{l\273\207\371\324\321k\037}\012\270"
  84      B7B27B6C 
  84      BB87F9D4 
  84      D16B1F7D 
  84      0AB8
  85 00a4 C98B2825 		.ascii	"\311\213(% \3640n\230.\267\345\361y\261\347\030\312"
  85      20F4306E 
  85      982EB7E5 
  85      F179B1E7 
  85      18CA
  86 00b6 A278038C 		.ascii	"\242x\003\214\012qk\376\325\307\"\277#\362\375#\342"
  86      0A716BFE 
  86      D5C722BF 
  86      23F2FD23 
  86      E2
  87 00c7 57A98498 		.ascii	"W\251\204\230Dj`/B\034\341(\035\260\336\026\314X\335"
  87      446A602F 
  87      421CE128 
  87      1DB0DE16 
ARM GAS  /tmp/cc5vF1xZ.s 			page 6


  87      CC58DD
  88 00da 918ACD0F 		.ascii	"\221\212\315\017\025n\324\211\221\336\254\370M\241I"
  88      156ED489 
  88      91DEACF8 
  88      4DA149
  89 00e9 E40CF6FD 		.ascii	"\344\014\366\375g\344p\301\237\315\\\021\245R\217\035"
  89      67E470C1 
  89      9FCD5C11 
  89      A5528F1D 
  90 00f9 16FD57D8 		.ascii	"\026\375W\330\023\226\237/\225\006\226\277}\310ah#B"
  90      13969F2F 
  90      950696BF 
  90      7DC86168 
  90      2342
  91 010b 0C47B181 		.ascii	"\014G\261\201*\215\341\030INr\234\244\241\245\245\245"
  91      2A8DE118 
  91      494E729C 
  91      A4A1A5A5 
  91      A5
  92 011c 57DB7DFA 		.ascii	"W\333}\372\354\007\312VC\177F@k\202\332\243VZBZ\031"
  92      EC07CA56 
  92      437F4640 
  92      6B82DAA3 
  92      565A425A 
  93 0131 D6F0B44C 		.ascii	"\326\360\264L\350\027\"[\357\234\3436u-\364_\004hEF"
  93      E817225B 
  93      EF9CE336 
  93      752DF45F 
  93      04684546 
  94 0145 82CF40EF 		.ascii	"\202\317@\357\374\325\251\0151\274\217\246\016\274\010"
  94      FCD5A90D 
  94      31BC8FA6 
  94      0EBC08
  95 0154 3FC5A010 		.ascii	"?\305\240\0207\251\0213\205\225.Z\221C\277[FX\240]\023"
  95      37A91133 
  95      85952E5A 
  95      9143BF5B 
  95      4658A05D 
  96 0169 48F6D7D0 		.ascii	"H\366\327\320\3736\267\360\003\313\331dI\252\026\351"
  96      FB36B7F0 
  96      03CBD964 
  96      49AA16E9 
  97 0179 27816925 		.ascii	"'\201i%\320\273\003\036\211\254\020'\222\350\032\202"
  97      D0BB031E 
  97      89AC1027 
  97      92E81A82 
  98 0189 BB04EFA6 		.ascii	"\273\004\357\246x\311\227\302o+\347\242\024\371\255"
  98      78C997C2 
  98      6F2BE7A2 
  98      14F9AD
  99 0198 317C6897 		.ascii	"1|h\2274f\347\361\252<\323\013\250\364\011\364i\270"
  99      3466E7F1 
  99      AA3CD30B 
  99      A8F409F4 
  99      69B8
 100 01aa E3EBC261 		.ascii	"\343\353\302a5\270q\033\316'\365s\200\252\327\374\355"
 100      35B8711B 
ARM GAS  /tmp/cc5vF1xZ.s 			page 7


 100      CE27F573 
 100      80AAD7FC 
 100      ED
 101 01bb EBDBCACD 		.ascii	"\353\333\312\315\262\007\204\023\366\315~?)[6\200\336"
 101      B2078413 
 101      F6CD7E3F 
 101      295B3680 
 101      DE
 102 01cc 26A7D4CF 		.ascii	"&\247\324\317/\177\036\336\354\344\256Q\011\255\004"
 102      2F7F1EDE 
 102      ECE4AE51 
 102      09AD04
 103 01db 329990EB 		.ascii	"2\231\220\353D\3446\363\306\245\234\310##\204\010\330"
 103      44E436F3 
 103      C6A59CC8 
 103      23238408 
 103      D8
 104 01ec 5EBCE245 		.ascii	"^\274\342E\301\322\261\357Z\337\327\341M\016^@\273\330"
 104      C1D2B1EF 
 104      5ADFD7E1 
 104      4D0E5E40 
 104      BBD8
 105 01fe 0F6706D8 		.ascii	"\017g\006\330\352b\003:`e\270\316\011\010\352\314k\003"
 105      EA62033A 
 105      6065B8CE 
 105      0908EACC 
 105      6B03
 106 0210 145941E7 		.ascii	"\024YA\347\302L\240\021*\337\230B\3436!\266By3}\205"
 106      C24CA011 
 106      2ADF9842 
 106      E33621B6 
 106      4279337D 
 107 0225 8B73CC81 		.ascii	"\213s\314\201\367Kn\203\353\022\353|$\246\341\345bf"
 107      F74B6E83 
 107      EB12EB7C 
 107      24A6E1E5 
 107      6266
 108 0237 77392851 		.ascii	"w9(Q&\202\250etg\374\335\362%\252\306\230]95\007\234"
 108      2682A865 
 108      7467FCDD 
 108      F225AAC6 
 108      985D3935 
 109 024d 58E75FA4 		.ascii	"X\347_\244\"`\274X\261\311u\311\367$\235%E&J\225\333"
 109      2260BC58 
 109      B1C975C9 
 109      F7249D25 
 109      45264A95 
 110 0262 E13B975B 		.ascii	"\341;\227[*b\025*\215\012\225rg)\336\211\235\307\367"
 110      2A62152A 
 110      8D0A9572 
 110      6729DE89 
 110      9DC7F7
 111 0275 CA7486B4 		.ascii	"\312t\206\264[u:C\016;\226d\007W\263c(2\006\227*d\324"
 111      5B753A43 
 111      0E3B9664 
 111      0757B363 
 111      28320697 
ARM GAS  /tmp/cc5vF1xZ.s 			page 8


 112 028c FE9D0C5E 		.ascii	"\376\235\014^\225\214Z\033\312!\303H\240\345BJ\355\236"
 112      958C5A1B 
 112      CA21C348 
 112      A0E5424A 
 112      ED9E
 113 029e 50CFCA23 		.ascii	"P\317\312#;\267\313~\272\305\011\011k`\026\\]\265\032"
 113      3BB7CB7E 
 113      BAC50909 
 113      6B60165C 
 113      5DB51A
 114 02b1 B4B09DE1 		.ascii	"\264\260\235\341\323\344\373\002\252\231\"\225\236\324"
 114      D3E4FB02 
 114      AA992295 
 114      9ED4
 115 02bf 4354CC4E 		.ascii	"CT\314N\230\220\303\320M\365\245\324\267\310cA\265\325"
 115      9890C3D0 
 115      4DF5A5D4 
 115      B7C86341 
 115      B5D5
 116 02d1 426FFF99 		.ascii	"Bo\377\231\013[i\242h\374\213\220\231\317m/\017\251"
 116      0B5B69A2 
 116      68FC8B90 
 116      99CF6D2F 
 116      0FA9
 117 02e3 F64032C9 		.ascii	"\366@2\311;\336\323\330\030\211\236I\266%\017\036\211"
 117      3BDED3D8 
 117      18899E49 
 117      B6250F1E 
 117      89
 118 02f4 B47746E2 		.ascii	"\264wF\342\355\251T\373\371HgW\254\243\253;\035i:\334"
 118      EDA954FB 
 118      F9486757 
 118      ACA3AB3B 
 118      1D693ADC 
 119 0308 1C6DBE20 		.ascii	"\034m\276 \265\351\344\271\323\035\235\221\003\321h"
 119      B5E9E4B9 
 119      D31D9D91 
 119      03D168
 120 0317 24DED1B5 		.ascii	"$\336\321\265\2531\016\274#\226f]iL\377\001e\256V\344"
 120      AB310EBC 
 120      2396665D 
 120      694CFF01 
 120      65AE56E4 
 121              		.text
 122              		.section	.gnu.lto_.symbol_nodes.7fd504ddbc6df086,"",%progbits
 123 0000 789C4DD0 		.ascii	"x\234M\320YN\002Q\020F\341:\267\273\025p\002E@\020u"
 123      594E0251 
 123      1046E13A 
 123      B7BB1570 
 123      02454010 
 124 0015 0F6E825D 		.ascii	"\017n\202]]\024Af\231d\020\004V\304\206D\321?\306H\275"
 124      5D144166 
 124      99641004 
 124      56C48644 
 124      D13FC648 
 125 002a 7C39A9A4 		.ascii	"|9\251\244\036\312\231\263{\354w\334\326\274Yoc\346"
 125      1ECA99B3 
ARM GAS  /tmp/cc5vF1xZ.s 			page 9


 125      7BEC77DC 
 125      D6BC596F 
 125      63E6
 126 003c FDB28EFB 		.ascii	"\375\262\216\3734\317^~\231w{\2713\037\374e\311\225"
 126      34CF5E7E 
 126      99777BB9 
 126      331FFC65 
 126      C995
 127 004e F1E1FF32 		.ascii	"\361\341\3772\3720\013}\020=\300\317\311\350\021'*\004"
 127      FA300B7D 
 127      103DC0CF 
 127      C9E81127 
 127      2A04
 128 0060 E2895054 		.ascii	"\342\211PT\211D\215\003\361\314\241\250\023\023\015"
 128      89448D03 
 128      F1CCA1A8 
 128      13130D
 129 006f E2A24942 		.ascii	"\342\242IB\2648\022m\216E\207\023\321\345T\274p&z$E"
 129      B438126D 
 129      8E458713 
 129      D1E554BC 
 129      70267A24 
 130 0084 9F941870 		.ascii	"\237\224\030p.\206\\\210\021i\361\312\245\030\223\021"
 130      2E865C88 
 130      1169F1CA 
 130      A5189311 
 131 0094 13B2624A 		.ascii	"\023\262bJN\314\270\022o\344\305\234\202Xp-\336)\212"
 131      4ECCB812 
 131      6FE4C59C 
 131      8258702D 
 131      DE298A
 132 00a7 253762C5 		.ascii	"%7b\305\255Xs\247_}\003\001\303>\323"
 132      AD5873A7 
 132      5F7D0301 
 132      C33ED3
 133              		.text
 134              		.section	.gnu.lto_.refs.7fd504ddbc6df086,"",%progbits
 135 0000 789C25C1 		.ascii	"x\234%\301[\026BP\000\000\300{\346\270Ry\246\007J\221"
 135      5B164250 
 135      0000C07B 
 135      E6B85279 
 135      A6074A91 
 136 0014 2CA6FD6F 		.ascii	",\246\375o\310\207\031A\370\207\235D\024\247(u\2209"
 136      C8871941 
 136      F8879D44 
 136      14A72875 
 136      9039
 137 0026 3A39CB15 		.ascii	":9\313\025J\225Z\343\242uus\367\320\351\015\236^Fo\037"
 137      4A955AE3 
 137      A2757573 
 137      F7D0E90D 
 137      9E5E466F 
 138 003b 93D9D7E2 		.ascii	"\223\331\327\342g\015\033s\304\003w"
 138      670D1B73 
 138      C40377
 139              		.text
 140              		.section	.gnu.lto_.decls.7fd504ddbc6df086,"",%progbits
ARM GAS  /tmp/cc5vF1xZ.s 			page 10


 141 0000 789CBD58 		.ascii	"x\234\275Xml\024E\030\236\331\226\266\327\036\005Q1"
 141      6D6C1445 
 141      189ED996 
 141      B6D71E05 
 141      5131
 142 0012 180C5723 		.ascii	"\030\014W#\230\020\333\245\327k+FP\323\037\370\007I"
 142      9810DBA5 
 142      D76B2B46 
 142      50D31FF8 
 142      0749
 143 0024 5412FF6D 		.ascii	"T\022\377m\226\353b/\366\356\360n\033 \372cA(\004\023"
 143      96EB622F 
 143      F6EEF06E 
 143      1B20FA63 
 143      41280413 
 144 0038 2D84A698 		.ascii	"-\204\246\230\012R\371H\011\225\2644\266VZ\273m\002"
 144      0A52F948 
 144      0995B434 
 144      B6565ABB 
 144      6D02
 145 004a 141B14AD 		.ascii	"\024\033\024\255\225`\001/\221h0b0\030\014\250\234\357"
 145      9560012F 
 145      91683062 
 145      30180CA8 
 145      9CEF
 146 005c 7EDCC7CC 		.ascii	"~\334\307\314\315t\350\037'}\356fw\337\347}f\337g\336"
 146      CD74E81F 
 146      277DEE66 
 146      77DFE77D 
 146      66DF67DE 
 147 0070 695A0949 		.ascii	"iZ\011I\250\013#\224\204\361\341C\010\335\310C\250\000"
 147      A80B2394 
 147      84F1E143 
 147      08DDC843 
 147      A800
 148 0082 21B41265 		.ascii	"!\264\022e\306,@\007\240\023\320\005\350\006\364\001"
 148      C62C4007 
 148      A013D005 
 148      E806F401 
 149 0092 CA000380 		.ascii	"\312\000\003\200\357\001\227\000\227\001?\002~\002\374"
 149      EF019700 
 149      97013F02 
 149      7E02FC
 150 00a1 0CB80EF8 		.ascii	"\014\270\016\370\015p\023p\013p\033p\007\360\257\225"
 150      0D701370 
 150      0B701B70 
 150      07F0AF95 
 151 00b1 1434F300 		.ascii	"\0244\363\000\005\200b\300l\300\\\300\203\200G\000\217"
 151      058062C0 
 151      6CC05CC0 
 151      83804700 
 151      8F
 152 00c2 021E03F8 		.ascii	"\002\036\003\370\000O\000\236\004,\005\224\003*\001"
 152      004F009E 
 152      042C0594 
 152      032A01
 153 00d1 01402DE0 		.ascii	"\001@-\340\031\214\210\321\2215\307\324ujtR1\235\214"
ARM GAS  /tmp/cc5vF1xZ.s 			page 11


 153      198C88D1 
 153      9135C7D4 
 153      756A7452 
 153      319D8C
 154 00e4 982E2AA6 		.ascii	"\230.*\246\213\021\323M\305t3b\254:\025\003\236\205"
 154      8B11D34D 
 154      C5743362 
 154      AC3A1503 
 154      9E85
 155 00f6 8052F8F6 		.ascii	"\200R\370\366\002F\000\205\200\025po%\340\024\314G\001"
 155      02460085 
 155      8015706F 
 155      25E014CC 
 155      4701
 156 0108 F92E4CC0 		.ascii	"\371.L\3009\3008\340\274\233\273\317\375\036\240\362"
 156      39C038E0 
 156      BC9BBBCF 
 156      FD1EA0F2 
 157 0118 2F42078C 		.ascii	"/B\007\214\203fb\373\321\236\005\306\301\255#\311\344"
 157      836662FB 
 157      D19E05C6 
 157      C1AD23C9 
 157      E4
 158 0129 73683E6A 		.ascii	"sh>j5`\034l6\014\254\253x\345\303\3505\254\342R\017"
 158      35601C6C 
 158      360CACAB 
 158      78E5C3E8 
 158      35ACE252 
 159 013e F2D913AF 		.ascii	"\362\331\023\257\307\026AH\305\037\343\371\356lm\236"
 159      C7164148 
 159      C51FE3F9 
 159      EE6C6D9E 
 160 014e 934EB216 		.ascii	"\223N\262\026\272\024\035\003~\213al]BU\027F\036\304"
 160      BA141D03 
 160      7E8B616C 
 160      5D425517 
 160      461EC4
 161 0161 C0CF9AF4 		.ascii	"\300\317\232\364\223%\350\210%gt\032y\266\230\225\256"
 161      9325E888 
 161      2567741A 
 161      79B69895 
 161      AE
 162 0172 032FCAE6 		.ascii	"\003/\312\346\250\370\020\226rWm\336\376\322\3332\222"
 162      A8F81096 
 162      72576DDE 
 162      FED2DB32 
 162      92
 163 0183 48261739 		.ascii	"H&\0279K\221\320\253\030b\017\343\245\031%\025\037\315"
 163      4B91D0AB 
 163      18620FE3 
 163      A5192515 
 163      1FCD
 164 0195 5059529D 		.ascii	"PYR\235\264\3241\246\324\311qJJ\235\271T\027-\365\011"
 164      B4D431A6 
 164      D4C9714A 
 164      4A9DB954 
 164      172DF509 
ARM GAS  /tmp/cc5vF1xZ.s 			page 12


 165 01a9 436AC4BC 		.ascii	"Cj\304\274LK\205\271Rn1\337\316.3K\271\233V\356a('\314"
 165      4C4B85B9 
 165      526E31DF 
 165      CE2E334B 
 165      B99B56EE 
 166 01c1 96AFBC2D 		.ascii	"\226\257\274-[\262\225\267\343li^\366>:{?\231\375q\324"
 166      5BB295B7 
 166      E36C695E 
 166      F63E3A7B 
 166      3F99FD71 
 167 01d6 615CB860 		.ascii	"a\\\270`\336i\376\010\303\0363\214{\311$~\000\265Xi"
 167      DE69FE08 
 167      C31E338C 
 167      7BC9247E 
 167      00B55869 
 168 01ea 7C63A5F3 		.ascii	"|c\245\363\320n{\273\301n\033\203\035\356\3565\003\247"
 168      D06E7BBB 
 168      C16E1B83 
 168      1DEEEE35 
 168      03A7
 169 01fc 36DB5CC8 		.ascii	"6\333\\\310\260\030\035\206\015e\336\232-\271\321>n"
 169      B0181D86 
 169      0D65DE9A 
 169      2DB9D13E 
 169      6E
 170 020d A88A07F1 		.ascii	"\250\212\007\361b$\014\263\002\277\300\363\334\267\263"
 170      62240CB3 
 170      02BFC0F3 
 170      DCB7B3
 171 021c F31BE625 		.ascii	"\363\033\346%\315\347\334E\324[g\2152\004+\335jN]?\207"
 171      CDE7DC45 
 171      D45B678D 
 171      32042BDD 
 171      6A4E5D3F 
 172 0231 8D3DDE12 		.ascii	"\215=\336\022\264\013\256\254^yq\0144vf.\020\263k\234"
 172      B40BAEAC 
 172      5E79710C 
 172      3476662E 
 172      10B36B9C 
 173 0245 17495CD9 		.ascii	"\027I\\\331uz\004C%\340\301(\366@\241wId\241\357?\325"
 173      757A0443 
 173      25E0C128 
 173      F640A177 
 173      4964A1EF 
 174 025b C53D83CB 		.ascii	"\305=\203\313\015\243H\305\247\355D\373\362\310D*.\364"
 174      0DA348C5 
 174      A7ED44FB 
 174      F2C8442A 
 174      2EF4
 175 026d 90E6C075 		.ascii	"\220\346\300u*\300\312f?v'\326!>\007\3154\234w:\214"
 175      2AC0CA66 
 175      3F7627D6 
 175      213E07CD 
 175      349C773A 
 176 0282 E092541A 		.ascii	"\340\222T\032\011\035\262\327e\325\226\025\356N\235"
 176      091DB2D7 
 176      65D59615 
ARM GAS  /tmp/cc5vF1xZ.s 			page 13


 176      EE4E9D
 177 0291 E10610F5 		.ascii	"\341\006\020\365N\234n\337\017\007\324(v\322J\350\344"
 177      4E9C6EDF 
 177      0F07D428 
 177      76D24AE8 
 177      E4
 178 02a2 8CF3F908 		.ascii	"\214\363\371\010\377\256jc\313R\271\006\357'W\021wm"
 178      FFAE6A63 
 178      CB52B906 
 178      EF275711 
 178      776D
 179 02b4 E6CDAC5C 		.ascii	"\346\315\254\\gg\234\313Gm0\247\332*\036\206m\254b\023"
 179      67679CCB 
 179      476D30A7 
 179      DA2A1E86 
 179      6DAC6213 
 180 02c8 97C1E739 		.ascii	"\227\301\3479\373s\334\376<\217\3132\301\022\372.\307"
 180      FB73DCFE 
 180      3C8FCB32 
 180      C112FA2E 
 180      C7
 181 02d9 70670367 		.ascii	"pg\003g\345\313\354s$\316\230\352\226\242\324b\015\347"
 181      E5CBEC73 
 181      24CE98EA 
 181      96A2D462 
 181      0DE7
 182 02eb 70C934AC 		.ascii	"p\3114\254\212\2072\257\227\023\247\342\013\320\334"
 182      8A8732AF 
 182      9713A7E2 
 182      0BD0DC
 183 02fa D6B0F7B0 		.ascii	"\326\260\367\260\341\356a;\204\267S\276\301\236\264"
 183      E1EE613B 
 183      84B753BE 
 183      C19EB4
 184 0309 B6D79399 		.ascii	"\266\327\223\231\024\022\257\221\212\202\227\276\226"
 184      1412AF91 
 184      8A8297BE 
 184      96
 185 0316 7E69FE32 		.ascii	"~i\3762\276u\017\241\000\3525v\232\326q\3659,,m\240"
 185      BE750FA1 
 185      00EA3576 
 185      9AD671F5 
 185      392C2C6D 
 186 032b 73FB7915 		.ascii	"s\373y\025\237\262\253cU\345-t\327\330i\230\1777K\216"
 186      9FB2AB63 
 186      55E52D74 
 186      D7D86998 
 186      7F374B8E 
 187 033f 9BD6B995 		.ascii	"\233\326\271\225\330c\356>\263w\201\321\341\236[\251"
 187      D863EE3E 
 187      B37781D1 
 187      E19E5BA9 
 188 034f 86FD9D5E 		.ascii	"\206\375\235^A\316K]$\016A\247\342)\2053\013)\205\243"
 188      41CE4B5D 
 188      240E41A7 
 188      E2298533 
 188      0B2985A3 
ARM GAS  /tmp/cc5vF1xZ.s 			page 14


 189 0363 B90A5BF2 		.ascii	"\271\012[\362E\012?P\012\343\331\012O\221\012\315}\271"
 189      450A3F50 
 189      0AE3D90A 
 189      4F910ACD 
 189      7DB9
 190 0375 0AEF0B15 		.ascii	"\012\357\013\025\256P\012\347\263\253\264\202R8\203"
 190      AE500AE7 
 190      B3ABB482 
 190      523883
 191 0384 3F3046B7 		.ascii	"?0F\267\031\306? \221\3268 \324H\220\277,\3340<\215"
 191      19C63F20 
 191      91D63820 
 191      D44890BF 
 191      2CDC303C 
 192 0399 4149CAA0 		.ascii	"AI\312\2406\226A'\204\302\327\370\006%)\203\332X\006"
 192      36964127 
 192      84C2D7F8 
 192      06252983 
 192      DA5806
 193 03ac 8D08157E 		.ascii	"\215\010\025~\341\033\224\244\014jc\031\364\265P\341"
 193      E11B94A4 
 193      0C6A6319 
 193      F4B550E1 
 194 03bc 57BE4149 		.ascii	"W\276AI\312\2406\266AW\205\0327\230\006I\323\030\324"
 194      CAA036B6 
 194      4157851A 
 194      37980649 
 194      D318D4
 195 03cf BA833468 		.ascii	"\272\2034h?\263\203\204\302\177\360\015j=\273\220R`"
 195      3FB38384 
 195      C27FF00D 
 195      6A3DBB90 
 195      5260
 196 03e1 75D02C91 		.ascii	"u\320,\221\302\237|\203Z\317\222\006\355gv\220P\341"
 196      C29F7C83 
 196      5ACF9206 
 196      ED677690 
 196      50E1
 197 03f3 2FBE41AD 		.ascii	"/\276A\255;VP\012\354\016\022j\334e\032\2247\215A\355"
 197      3B56500A 
 197      EC0E126A 
 197      DC651A94 
 197      378D41ED 
 198 0407 9441BDCC 		.ascii	"\224A\275\314\016\022\012\337\343\033\324N\031\324\313"
 198      0E120ADF 
 198      E31BD44E 
 198      19D4CB
 199 0416 EC20A1C2 		.ascii	"\354 \241\302\026\211kP;eP/\263\203\204\012\333$\256"
 199      16896B50 
 199      3B65502F 
 199      B383840A 
 199      DB24AE
 200 0429 41ED9441 		.ascii	"A\355\224A\275\234\016\022j\354\220X\006\345OcP\017"
 200      BD9C0E12 
 200      6AEC9058 
 200      06E54F63 
 200      500F
ARM GAS  /tmp/cc5vF1xZ.s 			page 15


 201 043b 65D000B3 		.ascii	"e\320\000\263\203\204\302\357J\\\203z(\203\006\230\035"
 201      8384C2EF 
 201      4A5C837A 
 201      28830698 
 201      1D
 202 044c 54205278 		.ascii	"T Rx\217oP\017e\320\000\263\203\204\012\273\371\006"
 202      8F6F500F 
 202      65D000B3 
 202      83840ABB 
 202      F906
 203 045e F550060D 		.ascii	"\365P\006\015p:H\250\261\227i\320\254i\014\352\247\014"
 203      703A48A8 
 203      B19769D0 
 203      AC690CEA 
 203      A70C
 204 0470 1A667690 		.ascii	"\032fv\220Px\037\337\240~\312\240af\007\011\025\332"
 204      50781FDF 
 204      A07ECAA0 
 204      61660709 
 204      15DA
 205 0482 F906F553 		.ascii	"\371\006\365S\006\0153;H\250p\200oP?e\3200\247\203\204"
 205      060D333B 
 205      48A87080 
 205      6F503F65 
 205      D030A783 
 206 0497 1A1D4C83 		.ascii	"\032\035L\203\012\2461h\2102h\222\331AB\341#|\203\206"
 206      0AA63168 
 206      88326892 
 206      D94142E1 
 206      237C8386 
 207 04ab 28832699 		.ascii	"(\203&\231\035T(R\350\344\0334D\0314\311\354 \241\302"
 207      1D542852 
 207      E8E41B34 
 207      441934C9 
 207      EC20A1C2 
 208 04bf 71BE4143 		.ascii	"q\276AC\224A\223\234\016\022j\234`\032T8\215A\023\224"
 208      9441939C 
 208      0E126A9C 
 208      601A5438 
 208      8D411394 
 209 04d3 4153CC0E 		.ascii	"AS\314\016\022\012\237\344\0334A\0314\305\354 \241\302"
 209      120A9FE4 
 209      1B344119 
 209      34C5EC20 
 209      A1C2
 210 04e5 A77C8326 		.ascii	"\247|\203&(\203\246\230\035$T\370\214o\320\004e\320"
 210      2883A698 
 210      1D2454F8 
 210      8C6FD004 
 210      65D0
 211 04f7 14A78384 		.ascii	"\024\247\203\204\032\247H\203\020\"\376u\341\370\303"
 211      1AA74883 
 211      1022FE75 
 211      E1F8C3
 212 0506 E30E4A25 		.ascii	"\343\016J%\034V\326\237T9\254!\006\313\264Y\326\232"
 212      1C56D69F 
 212      5439AC21 
ARM GAS  /tmp/cc5vF1xZ.s 			page 16


 212      06CBB459 
 212      D69A
 213 0518 EFE3BF06 		.ascii	"\357\343\277\006hyE\205\\\327\020Z\027Z\363\212\034"
 213      68794585 
 213      5CD7105A 
 213      175AF38A 
 213      1C
 214 0529 8DCBC168 		.ascii	"\215\313\301h8\034\215\310q]\215\351M\033\344\027^^"
 214      381C8DC8 
 214      715D8DE9 
 214      4D1BE417 
 214      5E5E
 215 053b 5DB77A93 		.ascii	"]\267z\223uwC\250Q\213\305\345Uuur0\246WV\004Q\211\242"
 215      757743A8 
 215      518BC5E5 
 215      55757572 
 215      30A65756 
 216 0553 04A3314D 		.ascii	"\004\2431M\011EBz\301\252\227\326\372\352P\376FM}\303"
 216      0945427A 
 216      C1AA97D6 
 216      FAEA50FE 
 216      464D7DC3 
 217 0567 AB289A1A 		.ascii	"\253(\232\032k\334l?\200\240FUw\202J\025\245^[\2576"
 217      6BDC6C3F 
 217      80A04655 
 217      77824A15 
 217      A55E5BAF 
 218 057c 35EA8AB6 		.ascii	"5\352\212\266)\244\027E\200\2557\305\"s\025\373\261"
 218      29A41745 
 218      80AD37C5 
 218      227315FB 
 218      B1
 219 058d 1253C38A 		.ascii	"\022S\303\212\032\323\324x\\\216\254\267Q-7D\303\232"
 219      1AD3D478 
 219      5C8EACB7 
 219      512D3744 
 219      C39A
 220 059f 1CD3E290 		.ascii	"\034\323\342\2201\330 7\250\261\372\215\020\"\253\261"
 220      31D82037 
 220      A8B1FA8D 
 220      1022ABB1 
 221 05af B05F7E3D 		.ascii	"\260_~=\030,\207I\271\026^\247\325\327k\365\351\033"
 221      182C8749 
 221      B9165EA7 
 221      D5D76BF5 
 221      E91B
 222 05c1 9168442B 		.ascii	"\221hD+\327\324u\241\362\200\362t\271\177Ye\340M\277"
 222      D7D475A1 
 222      F280F274 
 222      B97F5965 
 222      E04DBF
 223 05d4 4C3C9043 		.ascii	"L<\220C\221`cS\275\006/Z\037\212\350\025\015\250\250"
 223      91606353 
 223      BD062F5A 
 223      1F8AE815 
 223      0DA8A8
 224 05e7 09BEABFC 		.ascii	"\011\276\253\374\212\376\016\376\377\324\303j\260!\024"
ARM GAS  /tmp/cc5vF1xZ.s 			page 17


 224      8AFE0EFE 
 224      FFD4C36A 
 224      B02114
 225 05f6 D1E4745D 		.ascii	"\321\344t]\364\315\033\2648\254\246XQR\353)\265k\243"
 225      F4CD1BB4 
 225      38ACA658 
 225      5152EB29 
 225      B56BA3
 226 0609 6B9B74BB 		.ascii	"k\233t\2738\036\373\322\232\025\007\033a]\366\324\033"
 226      381EFBD2 
 226      9A15071B 
 226      615DF6D4 
 226      1B
 227 061a 892AE9FB 		.ascii	"\211*\351\373s\254:\246\257\024\335\223\256\353<\305"
 227      73AC3AA6 
 227      AF14DD93 
 227      AEEB3CC5 
 228 062a AAF13225 		.ascii	"\252\3612%\223Q\231\235}K)u\257\234\314\312\034\367"
 228      9351999D 
 228      7D4B2975 
 228      AF9CCCCA 
 228      1CF7
 229 063c 3212751E 		.ascii	"2\022u\036;\374\312\\~%\301\257$\371\225\024\337\237"
 229      3BFCCA5C 
 229      7E25C1AF 
 229      24F99514 
 229      DF9F
 230 064e CBF7137C 		.ascii	"\313\367\023|?\311\367S\374\252\\~\025\301\257\"\371"
 230      3FC9F753 
 230      FCAA5C7E 
 230      15C1AF22 
 230      F9
 231 065f 55143F90 		.ascii	"U\024?\220\313\017\020\374\000\311\017P\374\352\\~5"
 231      CB0F10FC 
 231      00C90F50 
 231      FCEA5C7E 
 231      35
 232 0670 C1AF26F9 		.ascii	"\301\257&\371\325\024\277&\227_C\360kH~\015\305\257"
 232      D514BF26 
 232      975F43F0 
 232      6B487E0D 
 232      C5AF
 233 0682 CDE5D712 		.ascii	"\315\345\327\022\374Z\222_\233\346\377\0076\207=\247"
 233      FC5A925F 
 233      9BE6FF07 
 233      36873DA7 
 234              		.text
 235              		.section	.gnu.lto_.symtab.7fd504ddbc6df086,"",%progbits
 236 0000 5F5F636F 		.ascii	"__core_init\000\000\001\000\000\000\000\000\000\000"
 236      72655F69 
 236      6E697400 
 236      00010000 
 236      00000000 
 237 0015 0000A100 		.ascii	"\000\000\241\000\000\000__early_init\000\000\001\000"
 237      00005F5F 
 237      6561726C 
 237      795F696E 
ARM GAS  /tmp/cc5vF1xZ.s 			page 18


 237      69740000 
 238 002b 00000000 		.ascii	"\000\000\000\000\000\000\000\000\250\000\000\000__l"
 238      00000000 
 238      A8000000 
 238      5F5F6C
 239 003a 6174655F 		.ascii	"ate_init\000\000\001\000\000\000\000\000\000\000\000"
 239      696E6974 
 239      00000100 
 239      00000000 
 239      000000
 240 004d 00AC0000 		.ascii	"\000\254\000\000\000__default_exit\000\000\001\000\000"
 240      005F5F64 
 240      65666175 
 240      6C745F65 
 240      78697400 
 241 0065 00000000 		.ascii	"\000\000\000\000\000\000\000\260\000\000\000__init_"
 241      000000B0 
 241      0000005F 
 241      5F696E69 
 241      745F
 242 0077 72616D5F 		.ascii	"ram_areas\000\000\000\000\000\000\000\000\000\000\000"
 242      61726561 
 242      73000000 
 242      00000000 
 242      00000000 
 243 008b 00B60000 		.ascii	"\000\266\000\000\000__ram0_init_text__\000\000\002\000"
 243      005F5F72 
 243      616D305F 
 243      696E6974 
 243      5F746578 
 244 00a6 00000000 		.ascii	"\000\000\000\000\000\000\000\000\326\000\000\000__r"
 244      00000000 
 244      D6000000 
 244      5F5F72
 245 00b5 616D305F 		.ascii	"am0_init__\000\000\002\000\000\000\000\000\000\000\000"
 245      696E6974 
 245      5F5F0000 
 245      02000000 
 245      00000000 
 246 00ca 00D90000 		.ascii	"\000\331\000\000\000__ram0_clear__\000\000\002\000\000"
 246      005F5F72 
 246      616D305F 
 246      636C6561 
 246      725F5F00 
 247 00e2 00000000 		.ascii	"\000\000\000\000\000\000\000\334\000\000\000__ram0_"
 247      000000DC 
 247      0000005F 
 247      5F72616D 
 247      305F
 248 00f4 6E6F696E 		.ascii	"noinit__\000\000\002\000\000\000\000\000\000\000\000"
 248      69745F5F 
 248      00000200 
 248      00000000 
 248      000000
 249 0107 00DF0000 		.ascii	"\000\337\000\000\000__ram1_init_text__\000\000\002\000"
 249      005F5F72 
 249      616D315F 
ARM GAS  /tmp/cc5vF1xZ.s 			page 19


 249      696E6974 
 249      5F746578 
 250 0122 00000000 		.ascii	"\000\000\000\000\000\000\000\000\343\000\000\000__r"
 250      00000000 
 250      E3000000 
 250      5F5F72
 251 0131 616D315F 		.ascii	"am1_init__\000\000\002\000\000\000\000\000\000\000\000"
 251      696E6974 
 251      5F5F0000 
 251      02000000 
 251      00000000 
 252 0146 00E60000 		.ascii	"\000\346\000\000\000__ram1_clear__\000\000\002\000\000"
 252      005F5F72 
 252      616D315F 
 252      636C6561 
 252      725F5F00 
 253 015e 00000000 		.ascii	"\000\000\000\000\000\000\000\351\000\000\000__ram1_"
 253      000000E9 
 253      0000005F 
 253      5F72616D 
 253      315F
 254 0170 6E6F696E 		.ascii	"noinit__\000\000\002\000\000\000\000\000\000\000\000"
 254      69745F5F 
 254      00000200 
 254      00000000 
 254      000000
 255 0183 00EC0000 		.ascii	"\000\354\000\000\000__ram2_init_text__\000\000\002\000"
 255      005F5F72 
 255      616D325F 
 255      696E6974 
 255      5F746578 
 256 019e 00000000 		.ascii	"\000\000\000\000\000\000\000\000\360\000\000\000__r"
 256      00000000 
 256      F0000000 
 256      5F5F72
 257 01ad 616D325F 		.ascii	"am2_init__\000\000\002\000\000\000\000\000\000\000\000"
 257      696E6974 
 257      5F5F0000 
 257      02000000 
 257      00000000 
 258 01c2 00F30000 		.ascii	"\000\363\000\000\000__ram2_clear__\000\000\002\000\000"
 258      005F5F72 
 258      616D325F 
 258      636C6561 
 258      725F5F00 
 259 01da 00000000 		.ascii	"\000\000\000\000\000\000\000\366\000\000\000__ram2_"
 259      000000F6 
 259      0000005F 
 259      5F72616D 
 259      325F
 260 01ec 6E6F696E 		.ascii	"noinit__\000\000\002\000\000\000\000\000\000\000\000"
 260      69745F5F 
 260      00000200 
 260      00000000 
 260      000000
 261 01ff 00F90000 		.ascii	"\000\371\000\000\000__ram3_init_text__\000\000\002\000"
 261      005F5F72 
ARM GAS  /tmp/cc5vF1xZ.s 			page 20


 261      616D335F 
 261      696E6974 
 261      5F746578 
 262 021a 00000000 		.ascii	"\000\000\000\000\000\000\000\000\375\000\000\000__r"
 262      00000000 
 262      FD000000 
 262      5F5F72
 263 0229 616D335F 		.ascii	"am3_init__\000\000\002\000\000\000\000\000\000\000\000"
 263      696E6974 
 263      5F5F0000 
 263      02000000 
 263      00000000 
 264 023e 00000100 		.ascii	"\000\000\001\000\000__ram3_clear__\000\000\002\000\000"
 264      005F5F72 
 264      616D335F 
 264      636C6561 
 264      725F5F00 
 265 0256 00000000 		.ascii	"\000\000\000\000\000\000\000\003\001\000\000__ram3_"
 265      00000003 
 265      0100005F 
 265      5F72616D 
 265      335F
 266 0268 6E6F696E 		.ascii	"noinit__\000\000\002\000\000\000\000\000\000\000\000"
 266      69745F5F 
 266      00000200 
 266      00000000 
 266      000000
 267 027b 00060100 		.ascii	"\000\006\001\000\000__ram4_init_text__\000\000\002\000"
 267      005F5F72 
 267      616D345F 
 267      696E6974 
 267      5F746578 
 268 0296 00000000 		.ascii	"\000\000\000\000\000\000\000\000\012\001\000\000__r"
 268      00000000 
 268      0A010000 
 268      5F5F72
 269 02a5 616D345F 		.ascii	"am4_init__\000\000\002\000\000\000\000\000\000\000\000"
 269      696E6974 
 269      5F5F0000 
 269      02000000 
 269      00000000 
 270 02ba 000D0100 		.ascii	"\000\015\001\000\000__ram4_clear__\000\000\002\000\000"
 270      005F5F72 
 270      616D345F 
 270      636C6561 
 270      725F5F00 
 271 02d2 00000000 		.ascii	"\000\000\000\000\000\000\000\020\001\000\000__ram4_"
 271      00000010 
 271      0100005F 
 271      5F72616D 
 271      345F
 272 02e4 6E6F696E 		.ascii	"noinit__\000\000\002\000\000\000\000\000\000\000\000"
 272      69745F5F 
 272      00000200 
 272      00000000 
 272      000000
 273 02f7 00130100 		.ascii	"\000\023\001\000\000__ram5_init_text__\000\000\002\000"
ARM GAS  /tmp/cc5vF1xZ.s 			page 21


 273      005F5F72 
 273      616D355F 
 273      696E6974 
 273      5F746578 
 274 0312 00000000 		.ascii	"\000\000\000\000\000\000\000\000\027\001\000\000__r"
 274      00000000 
 274      17010000 
 274      5F5F72
 275 0321 616D355F 		.ascii	"am5_init__\000\000\002\000\000\000\000\000\000\000\000"
 275      696E6974 
 275      5F5F0000 
 275      02000000 
 275      00000000 
 276 0336 001A0100 		.ascii	"\000\032\001\000\000__ram5_clear__\000\000\002\000\000"
 276      005F5F72 
 276      616D355F 
 276      636C6561 
 276      725F5F00 
 277 034e 00000000 		.ascii	"\000\000\000\000\000\000\000\035\001\000\000__ram5_"
 277      0000001D 
 277      0100005F 
 277      5F72616D 
 277      355F
 278 0360 6E6F696E 		.ascii	"noinit__\000\000\002\000\000\000\000\000\000\000\000"
 278      69745F5F 
 278      00000200 
 278      00000000 
 278      000000
 279 0373 00200100 		.ascii	"\000 \001\000\000__ram6_init_text__\000\000\002\000"
 279      005F5F72 
 279      616D365F 
 279      696E6974 
 279      5F746578 
 280 038e 00000000 		.ascii	"\000\000\000\000\000\000\000\000$\001\000\000__ram6"
 280      00000000 
 280      24010000 
 280      5F5F7261 
 280      6D36
 281 03a0 5F696E69 		.ascii	"_init__\000\000\002\000\000\000\000\000\000\000\000"
 281      745F5F00 
 281      00020000 
 281      00000000 
 281      0000
 282 03b2 00270100 		.ascii	"\000'\001\000\000__ram6_clear__\000\000\002\000\000"
 282      005F5F72 
 282      616D365F 
 282      636C6561 
 282      725F5F00 
 283 03ca 00000000 		.ascii	"\000\000\000\000\000\000\000*\001\000\000__ram6_noi"
 283      0000002A 
 283      0100005F 
 283      5F72616D 
 283      365F6E6F 
 284 03df 6E69745F 		.ascii	"nit__\000\000\002\000\000\000\000\000\000\000\000\000"
 284      5F000002 
 284      00000000 
 284      00000000 
ARM GAS  /tmp/cc5vF1xZ.s 			page 22


 284      00
 285 03f0 2D010000 		.ascii	"-\001\000\000__ram7_i"
 285      5F5F7261 
 285      6D375F69 
 286 03fc 6E69745F 		.ascii	"nit_text__\000\000\002\000\000\000\000\000\000\000\000"
 286      74657874 
 286      5F5F0000 
 286      02000000 
 286      00000000 
 287 0411 00310100 		.ascii	"\0001\001\000\000__ram7_init__\000\000\002\000\000\000"
 287      005F5F72 
 287      616D375F 
 287      696E6974 
 287      5F5F0000 
 288 0429 00000000 		.ascii	"\000\000\000\000\000\0004\001\000\000__ram7_clear__"
 288      00003401 
 288      00005F5F 
 288      72616D37 
 288      5F636C65 
 289 0441 00000200 		.ascii	"\000\000\002\000\000\000\000\000\000\000\000\0007\001"
 289      00000000 
 289      00000000 
 289      3701
 290 044f 00005F5F 		.ascii	"\000\000__ram7_noinit__\000\000\002\000\000\000\000"
 290      72616D37 
 290      5F6E6F69 
 290      6E69745F 
 290      5F000002 
 291 0467 00000000 		.ascii	"\000\000\000\000\000:\001\000\000"
 291      003A0100 
 291      00
 292              		.text
 293              		.section	.gnu.lto_.opts,"",%progbits
 294 0000 272D6D63 		.ascii	"'-mcpu=cortex-m4' '-mno-thumb-interwork' '-mthumb' "
 294      70753D63 
 294      6F727465 
 294      782D6D34 
 294      2720272D 
 295 0033 272D6767 		.ascii	"'-ggdb' '-O2' '-fomit-frame-pointer' '-falign-funct"
 295      64622720 
 295      272D4F32 
 295      2720272D 
 295      666F6D69 
 296 0066 696F6E73 		.ascii	"ions=16' '-ffunction-sections' '-fdata-sections' '-"
 296      3D313627 
 296      20272D66 
 296      66756E63 
 296      74696F6E 
 297 0099 666E6F2D 		.ascii	"fno-common' '-flto'\000"
 297      636F6D6D 
 297      6F6E2720 
 297      272D666C 
 297      746F2700 
 298              		.text
 299              		.cfi_sections	.debug_frame
 300              		.section	.text.__core_init,"ax",%progbits
 301              		.align	2
ARM GAS  /tmp/cc5vF1xZ.s 			page 23


 302              		.p2align 4,,15
 303              		.weak	__core_init
 304              		.thumb
 305              		.thumb_func
 306              		.type	__core_init, %function
 307              	__core_init:
 308              	.LFB123:
 309              		.file 1 "../ChibiOS/os/common/startup/ARMCMx/compilers/GCC/crt1.c"
 310              		.loc 1 136 0
 311              		.cfi_startproc
 312              		@ args = 0, pretend = 0, frame = 0
 313              		@ frame_needed = 0, uses_anonymous_args = 0
 314              		@ link register save eliminated.
 315 0000 7047     		bx	lr
 316              		.cfi_endproc
 317              	.LFE123:
 318              		.size	__core_init, .-__core_init
 319 0002 00BFAFF3 		.section	.text.__early_init,"ax",%progbits
 319      0080AFF3 
 319      0080AFF3 
 319      0080
 320              		.align	2
 321              		.p2align 4,,15
 322              		.weak	__early_init
 323              		.thumb
 324              		.thumb_func
 325              		.type	__early_init, %function
 326              	__early_init:
 327              	.LFB124:
 328              		.loc 1 155 0
 329              		.cfi_startproc
 330              		@ args = 0, pretend = 0, frame = 0
 331              		@ frame_needed = 0, uses_anonymous_args = 0
 332              		@ link register save eliminated.
 333 0000 7047     		bx	lr
 334              		.cfi_endproc
 335              	.LFE124:
 336              		.size	__early_init, .-__early_init
 337 0002 00BFAFF3 		.section	.text.__late_init,"ax",%progbits
 337      0080AFF3 
 337      0080AFF3 
 337      0080
 338              		.align	2
 339              		.p2align 4,,15
 340              		.weak	__late_init
 341              		.thumb
 342              		.thumb_func
 343              		.type	__late_init, %function
 344              	__late_init:
 345              	.LFB125:
 346              		.loc 1 169 0
 347              		.cfi_startproc
 348              		@ args = 0, pretend = 0, frame = 0
 349              		@ frame_needed = 0, uses_anonymous_args = 0
 350              		@ link register save eliminated.
 351 0000 7047     		bx	lr
 352              		.cfi_endproc
ARM GAS  /tmp/cc5vF1xZ.s 			page 24


 353              	.LFE125:
 354              		.size	__late_init, .-__late_init
 355 0002 00BFAFF3 		.section	.text.__default_exit,"ax",%progbits
 355      0080AFF3 
 355      0080AFF3 
 355      0080
 356              		.align	2
 357              		.p2align 4,,15
 358              		.weak	__default_exit
 359              		.thumb
 360              		.thumb_func
 361              		.type	__default_exit, %function
 362              	__default_exit:
 363              	.LFB126:
 364              		.loc 1 182 0
 365              		.cfi_startproc
 366              		@ Volatile: function does not return.
 367              		@ args = 0, pretend = 0, frame = 0
 368              		@ frame_needed = 0, uses_anonymous_args = 0
 369              		@ link register save eliminated.
 370              	.L5:
 371 0000 FEE7     		b	.L5
 372              		.cfi_endproc
 373              	.LFE126:
 374              		.size	__default_exit, .-__default_exit
 375 0002 00BFAFF3 		.section	.text.__init_ram_areas,"ax",%progbits
 375      0080AFF3 
 375      0080AFF3 
 375      0080
 376              		.align	2
 377              		.p2align 4,,15
 378              		.global	__init_ram_areas
 379              		.thumb
 380              		.thumb_func
 381              		.type	__init_ram_areas, %function
 382              	__init_ram_areas:
 383              	.LFB127:
 384              		.loc 1 192 0
 385              		.cfi_startproc
 386              		@ args = 0, pretend = 0, frame = 0
 387              		@ frame_needed = 0, uses_anonymous_args = 0
 388              		@ link register save eliminated.
 389              	.LVL0:
 390              		.loc 1 192 0
 391 0000 F0B4     		push	{r4, r5, r6, r7}
 392              		.cfi_def_cfa_offset 16
 393              		.cfi_offset 4, -16
 394              		.cfi_offset 5, -12
 395              		.cfi_offset 6, -8
 396              		.cfi_offset 7, -4
 397 0002 134E     		ldr	r6, .L19
 398              	.LBB2:
 399              		.loc 1 209 0
 400 0004 0025     		movs	r5, #0
 401 0006 06F17007 		add	r7, r6, #112
 402              	.LVL1:
 403              	.L15:
ARM GAS  /tmp/cc5vF1xZ.s 			page 25


 404              		.loc 1 197 0
 405 000a A6F11001 		sub	r1, r6, #16
 406              	.LVL2:
 407 000e 1AC9     		ldmia	r1, {r1, r3, r4}
 408              	.LVL3:
 409              		.loc 1 201 0
 410 0010 A342     		cmp	r3, r4
 411 0012 0DD2     		bcs	.L7
 412 0014 0439     		subs	r1, r1, #4
 413              	.LVL4:
 414 0016 1A46     		mov	r2, r3
 415              	.LVL5:
 416              	.L9:
 417              		.loc 1 202 0
 418 0018 51F8040F 		ldr	r0, [r1, #4]!
 419              	.LVL6:
 420 001c 42F8040B 		str	r0, [r2], #4
 421              	.LVL7:
 422              		.loc 1 201 0
 423 0020 A242     		cmp	r2, r4
 424 0022 F9D3     		bcc	.L9
 425 0024 DA43     		mvns	r2, r3
 426              	.LVL8:
 427 0026 1444     		add	r4, r4, r2
 428 0028 24F00304 		bic	r4, r4, #3
 429 002c 0434     		adds	r4, r4, #4
 430 002e 2344     		add	r3, r3, r4
 431              	.LVL9:
 432              	.L7:
 433              		.loc 1 208 0 discriminator 1
 434 0030 56F8042C 		ldr	r2, [r6, #-4]
 435 0034 9342     		cmp	r3, r2
 436 0036 03D2     		bcs	.L13
 437              	.L14:
 438              		.loc 1 209 0
 439 0038 43F8045B 		str	r5, [r3], #4
 440              	.LVL10:
 441              		.loc 1 208 0
 442 003c 9342     		cmp	r3, r2
 443 003e FBD3     		bcc	.L14
 444              	.L13:
 445              	.LVL11:
 446              	.LBE2:
 447              		.loc 1 214 0
 448 0040 BE42     		cmp	r6, r7
 449 0042 06F11003 		add	r3, r6, #16
 450              	.LVL12:
 451 0046 01D2     		bcs	.L18
 452 0048 1E46     		mov	r6, r3
 453              	.LVL13:
 454 004a DEE7     		b	.L15
 455              	.LVL14:
 456              	.L18:
 457              		.loc 1 216 0
 458 004c F0BC     		pop	{r4, r5, r6, r7}
 459              	.LVL15:
 460 004e 7047     		bx	lr
ARM GAS  /tmp/cc5vF1xZ.s 			page 26


 461              	.L20:
 462              		.align	2
 463              	.L19:
 464 0050 10000000 		.word	.LANCHOR0+16
 465              		.cfi_endproc
 466              	.LFE127:
 467              		.size	__init_ram_areas, .-__init_ram_areas
 468 0054 AFF30080 		.section	.rodata.ram_areas,"a",%progbits
 468      AFF30080 
 468      AFF30080 
 469              		.align	2
 470              		.set	.LANCHOR0,. + 0
 471              		.type	ram_areas, %object
 472              		.size	ram_areas, 128
 473              	ram_areas:
 474 0000 00000000 		.word	__ram0_init_text__
 475 0004 00000000 		.word	__ram0_init__
 476 0008 00000000 		.word	__ram0_clear__
 477 000c 00000000 		.word	__ram0_noinit__
 478 0010 00000000 		.word	__ram1_init_text__
 479 0014 00000000 		.word	__ram1_init__
 480 0018 00000000 		.word	__ram1_clear__
 481 001c 00000000 		.word	__ram1_noinit__
 482 0020 00000000 		.word	__ram2_init_text__
 483 0024 00000000 		.word	__ram2_init__
 484 0028 00000000 		.word	__ram2_clear__
 485 002c 00000000 		.word	__ram2_noinit__
 486 0030 00000000 		.word	__ram3_init_text__
 487 0034 00000000 		.word	__ram3_init__
 488 0038 00000000 		.word	__ram3_clear__
 489 003c 00000000 		.word	__ram3_noinit__
 490 0040 00000000 		.word	__ram4_init_text__
 491 0044 00000000 		.word	__ram4_init__
 492 0048 00000000 		.word	__ram4_clear__
 493 004c 00000000 		.word	__ram4_noinit__
 494 0050 00000000 		.word	__ram5_init_text__
 495 0054 00000000 		.word	__ram5_init__
 496 0058 00000000 		.word	__ram5_clear__
 497 005c 00000000 		.word	__ram5_noinit__
 498 0060 00000000 		.word	__ram6_init_text__
 499 0064 00000000 		.word	__ram6_init__
 500 0068 00000000 		.word	__ram6_clear__
 501 006c 00000000 		.word	__ram6_noinit__
 502 0070 00000000 		.word	__ram7_init_text__
 503 0074 00000000 		.word	__ram7_init__
 504 0078 00000000 		.word	__ram7_clear__
 505 007c 00000000 		.word	__ram7_noinit__
 506              		.text
 507              	.Letext0:
 508              		.file 2 "/nfs/nfs5/home/research/hardware/arm2/gcc-arm-embedded/gcc-arm-none-eabi-4_8-2014q2/arm-n
 509              		.file 3 "/nfs/nfs5/home/research/hardware/arm2/gcc-arm-embedded/gcc-arm-none-eabi-4_8-2014q2/arm-n
 510              		.file 4 "../ChibiOS/os/common/ext/CMSIS/include/core_cm4.h"