ARM GAS  /tmp/ccCT9eeg.s 			page 1


   1              		.syntax unified
   2              		.cpu cortex-m4
   3              		.fpu softvfp
   4              		.eabi_attribute 20, 1
   5              		.eabi_attribute 21, 1
   6              		.eabi_attribute 23, 3
   7              		.eabi_attribute 24, 1
   8              		.eabi_attribute 25, 1
   9              		.eabi_attribute 26, 1
  10              		.eabi_attribute 30, 2
  11              		.eabi_attribute 34, 1
  12              		.eabi_attribute 18, 4
  13              		.thumb
  14              		.file	"hal_st.c"
  15              		.text
  16              	.Ltext0:
  17              		.section	.gnu.lto_.jmpfuncs.3368e4fbba7b50ab,"",%progbits
  18 0000 789C6362 		.ascii	"x\234cb`b\300\006x\2414+\020322103\26200\000\000\002"
  18      6062C006 
  18      78A1342B 
  18      10333232 
  18      313033B2 
  19 0019 6D0023   		.ascii	"m\000#"
  20              		.text
  21              		.section	.gnu.lto_.inline.3368e4fbba7b50ab,"",%progbits
  22 0000 789C6362 		.ascii	"x\234cb`b\300\006R\2414+\003\003\013\017#X\021\333\002"
  22      6062C006 
  22      52A1342B 
  22      03030B0F 
  22      235811DB 
  23 0015 79B05A46 		.ascii	"y\260ZF.\020\301\300\306\012\024f\373\240\007\027gb"
  23      2E10C1C0 
  23      C60A1466 
  23      FBA00717 
  23      6762
  24 0027 6061060A 		.ascii	"`a\006\0121]\340\207\0131c\012\261`\0121\000\000\232"
  24      315DE087 
  24      0B31630A 
  24      B1600A31 
  24      00009A
  25 003a 48086D   		.ascii	"H\010m"
  26              		.text
  27              		.section	.gnu.lto_.pureconst.3368e4fbba7b50ab,"",%progbits
  28 0000 789C6362 		.ascii	"x\234cb`b\340f\200\000V\006\011F)&)f)\026)\000\004\027"
  28      6062E066 
  28      80005606 
  28      09462926 
  28      29662916 
  29 0018 009F     		.ascii	"\000\237"
  30              		.text
  31              		.section	.gnu.lto_stInit.3368e4fbba7b50ab,"",%progbits
  32 0000 789C6362 		.ascii	"x\234cb`b@\007\222@\\\011\304\212@\314\310\314\300\310"
  32      60624007 
  32      92405C09 
  32      C48A40CC 
  32      C8CCC0C8 
  33 0014 34E11C03 		.ascii	"4\341\034\003C#\007\023##\210\301\300\310P\317\304X"
ARM GAS  /tmp/ccCT9eeg.s 			page 2


  33      43230713 
  33      232388C1 
  33      C0C850CF 
  33      C458
  34 0026 1FC90856 		.ascii	"\037\311\010V\273\236\351\300\203\377\377\327\375X\373"
  34      BB9EE9C0 
  34      83FFFFD7 
  34      FD58FB
  35 0035 B01EA894 		.ascii	"\260\036\250\224\201\201\225\241\245\241a\202\002\003"
  35      818195A1 
  35      A5A16182 
  35      0203
  36 0043 4332583E 		.ascii	"C2X>\004H\2024\20522\201h\346\363\014\315\017\376\331"
  36      04488234 
  36      85323281 
  36      68E6F30C 
  36      CD0FFED9 
  37 0057 24322E64 		.ascii	"$2.dd\005\312V3\374j\350h\020\310d\004\252\206\030\227"
  37      6405CA56 
  37      33FC6AE8 
  37      6810C864 
  37      04AA8618 
  38 006c 09A22F32 		.ascii	"\011\242/24>\370\317\004S\004\001!@\011\240\001 \307"
  38      343EF8CF 
  38      04530401 
  38      214009A0 
  38      0120C7
  39 007f CAEBE9E9 		.ascii	"\312\353\351\351;gd&e\372\007\353\347\027\353g$\346"
  39      3B676426 
  39      65FA07EB 
  39      E717EB67 
  39      24E6
  40 0091 E8171725 		.ascii	"\350\027\027%\203\350\370\342\022\275d\006\000\242\250"
  40      83E8F8E2 
  40      12BD6406 
  40      00A2A8
  41 00a0 2C73     		.ascii	",s"
  42              		.text
  43              		.section	.gnu.lto_stStartAlarm.3368e4fbba7b50ab,"",%progbits
  44 0000 789C9D91 		.ascii	"x\234\235\221AK\002A\024\307\337\233\335Uou\355\224"
  44      414B0241 
  44      14C7DF9B 
  44      DD556F75 
  44      ED94
  45 0012 78AD76A9 		.ascii	"x\255v\251\350\334\241.\201\322\301\015\012\002Y-r@"
  45      E8DCA12E 
  45      81D2C10D 
  45      0A02592D 
  45      7240
  46 0024 315CE9DA 		.ascii	"1\\\351\332\254\210\227.\"\004aA\030E\020\221\247\300"
  46      AC88972E 
  46      22046141 
  46      18451091 
  46      A7C0
  47 0036 6ED6ADA4 		.ascii	"n\326\255\244@\352\032\370\005\002?@\260\275\031\225"
  47      40EA1AF8 
  47      05023F40 
ARM GAS  /tmp/ccCT9eeg.s 			page 3


  47      B0BD1995 
  48 0046 B00E410F 		.ascii	"\260\016A\017v\336\316\177\336\373\375\0373\014\030"
  48      76DECE7F 
  48      DEFBFD1F 
  48      330C18
  49 0055 FC8C09FA 		.ascii	"\374\214\011\372\236\020`\2232j\200\254\362\002\340"
  49      9E106093 
  49      326A80AC 
  49      F202E0
  50 0064 8518A2FC 		.ascii	"\205\030\242\374\001\204}\206\373\033\250j\033\254\325"
  50      01847D86 
  50      FB1BA86A 
  50      1BACD5
  51 0073 F5FD9B66 		.ascii	"\365\375\233f\371\362\004k,\3100\253t\003JBT\302Y\244"
  51      F9F2046B 
  51      2CC830AB 
  51      74034A42 
  51      54C259A4 
  52 0087 5D4A2936 		.ascii	"]J)6\255\262}\015\231\314\332#\024C\000\021\250\013"
  52      ADB27D0D 
  52      99CCDA23 
  52      14430011 
  52      A80B
  53 0099 516DDD95 		.ascii	"Qm\335\225\333(\252\302\353\371\376\030G\032)\202\262"
  53      DB28AAC2 
  53      EBF9FE18 
  53      471A2982 
  53      B2
  54 00aa 6D1D3962 		.ascii	"m\0359bX%\246\217\316\270C\030x\206\207\366\347\353"
  54      5825A68F 
  54      CEB84318 
  54      788687F6 
  54      E7EB
  55 00bc 7B3138B0 		.ascii	"{18\260\033\372\266\016\336:\206\203g\030\241J\007\353"
  55      1BFAB60E 
  55      DE3A8683 
  55      6718A14A 
  55      07EB
  56 00ce 68104D4D 		.ascii	"h\020MM1\003\327\242\344uO?\016\2479jSpE;\261\310Q?"
  56      3103D7A2 
  56      E4754F3F 
  56      0EA7396A 
  56      5370453B 
  57 00e6 869A5711 		.ascii	"\206\232W\021\343\034\015\351\026\020\024\2722\016("
  57      E31C0DE9 
  57      161014BA 
  57      320E28
  58 00f5 BB242AD2 		.ascii	"\273$*\322\005\221\224\032\354O1P\206\3034\217\032\367"
  58      0591941A 
  58      EC4F3150 
  58      86C3348F 
  58      1AF7
  59 0107 9A83E7A4 		.ascii	"\232\203\347\244}\243\265?\3218\202\326\244(a\315\177"
  59      7DA3B53F 
  59      D13882D6 
  59      A42861CD 
  59      7F
ARM GAS  /tmp/ccCT9eeg.s 			page 4


  60 0118 C1D8284C 		.ascii	"\301\330(L\276n\007\274^\365V\357_\3040l\262\245w\220"
  60      BE6E07BC 
  60      5EF556EF 
  60      5FC4306C 
  60      B2A57790 
  61 012c E793A669 		.ascii	"\347\223\246i-\245y\222\257\306\255\234k\245\235\214"
  61      2DA57992 
  61      AFC6AD9C 
  61      6BA59D8C 
  62 013c E5E65332 		.ascii	"\345\346S2'\334\202\231\002\275\300\263\333\013\277"
  62      27DC8299 
  62      02BDC0B3 
  62      DB0BBF
  63 014b 8B7673F9 		.ascii	"\213vs\371\202k\305\355\330\374\234\025\215.[\366Jl"
  63      826BC5ED 
  63      D8FC9C15 
  63      8D2E5BF6 
  63      4A6C
  64 015d 6F76D096 		.ascii	"ov\320\226\310d\266\3144|\001\342\302\216\252"
  64      C864B6CC 
  64      347C01E2 
  64      C28EAA
  65              		.text
  66              		.section	.gnu.lto_stStopAlarm.3368e4fbba7b50ab,"",%progbits
  67 0000 789C6362 		.ascii	"x\234cb`b@\007\222@|\024\210\303\201\230\221\231\201"
  67      60624007 
  67      92407C14 
  67      88C38198 
  67      919981
  68 0013 9169C239 		.ascii	"\221i\3029\006\206F\016&FF\020\203\201\221\241\236\211"
  68      0686460E 
  68      26464610 
  68      838191A1 
  68      9E89
  69 0025 B13E9211 		.ascii	"\261>\222\021\254v=\323\201\007\377\377\257\373\322"
  69      AC763DD3 
  69      8107FFFF 
  69      AFFBD2
  70 0034 36E70EE3 		.ascii	"6\347\016\343l&\026\240\010+CKC\303\004\005\006\206"
  70      6C2616A0 
  70      082B434B 
  70      43C30405 
  70      0686
  71 0046 64B08A10 		.ascii	"d\260\212\020 \011\322\026\312\310\004\242\231\3172"
  71      2009D216 
  71      CAC804A2 
  71      99CF32
  72 0055 1CDA71E7 		.ascii	"\034\332q\347\322\363G\254pu\020\306\201\356{\007Y\031"
  72      D2F347AC 
  72      707510C6 
  72      81EE7B07 
  72      5919
  73 0067 18121917 		.ascii	"\030\022\031\0272\262\002\265\202\365j3\254jhi|0u\357"
  73      32B202B5 
  73      82F56A33 
  73      AC6A6869 
  73      7C3075EF 
ARM GAS  /tmp/ccCT9eeg.s 			page 5


  74 007b 34F94C46 		.ascii	"4\371LF\206\331\014\263\032'4\010d22F0f225\000\001\013"
  74      86D90CB3 
  74      1A273408 
  74      64323246 
  74      30663232 
  75 0093 03980976 		.ascii	"\003\230\011vI\022HK\"\343b\240v\260(X\360\"C\343\207"
  75      4912484B 
  75      22E362A0 
  75      76B02858 
  75      F02243E3 
  76 00a8 4BDB5920 		.ascii	"K\333Y \246\302@\010\320t\240S@\332\344\365\364\364"
  76      A6C24008 
  76      D074A053 
  76      40DAE4F5 
  76      F4F4
  77 00ba 9D333293 		.ascii	"\23532\2232\375\203\365\363\213\3653\022s\364\213\213"
  77      32FD83F5 
  77      F38BF533 
  77      1273F48B 
  77      8B
  78 00cb 9241747C 		.ascii	"\222At|q\211^2\203)\246|A~QI\261~p\210\257\261\221\276"
  78      71895E32 
  78      8329A67C 
  78      417E5149 
  78      B17E7088 
  79 00e3 8F8F8B7E 		.ascii	"\217\217\213~\210\247o\231!TG|NN\212^\006\003\000\200"
  79      88A76F99 
  79      2154477C 
  79      4E4E8A5E 
  79      06030080 
  80 00f7 C953C8   		.ascii	"\311S\310"
  81              		.text
  82              		.section	.gnu.lto_stSetAlarm.3368e4fbba7b50ab,"",%progbits
  83 0000 789C6362 		.ascii	"x\234cb`b@\007\222@l\300\310\300\020\003\244\031\231"
  83      60624007 
  83      92406CC0 
  83      C8C01003 
  83      A41999
  84 0013 19189926 		.ascii	"\031\030\231&\234c`h\344`bd\0041\030\030\031\352\231"
  84      9C636068 
  84      E4606264 
  84      04311818 
  84      19EA99
  85 0026 18EB2319 		.ascii	"\030\353#\031\301j\3273\035x\360\377\377\272\015\355"
  85      C16AD733 
  85      1D78F0FF 
  85      FFBA0DED 
  86 0036 CBEE30CE 		.ascii	"\313\3560\316ebeb\314\005\213\2632\26444LP\310e\004"
  86      65626562 
  86      CC058BB3 
  86      32B43434 
  86      4C50C865 
  87 004b F292C122 		.ascii	"\362\222\301\"!@\022\244=\224\221\011D3\237dh\342``"
  87      214012A4 
  87      3D949109 
  87      44339F64 
  87      68E26060 
ARM GAS  /tmp/ccCT9eeg.s 			page 6


  88 005f 506258D8 		.ascii	"PbX\330\3200\351\300\306\366\323\214\015\223\032\032"
  88      D030E9C0 
  88      C6F6D38C 
  88      0D931A1A 
  89 006f 3FFCFFCF 		.ascii	"?\374\377\317\237\311\010t\222\022#H[\004c&#\243\002"
  89      9FC90874 
  89      92122348 
  89      5B046326 
  89      23A302
  90 0082 98626241 		.ascii	"\230bbAuc:\320\030\206\263\014\207N\377\271\374\265"
  90      75633AD0 
  90      1886B30C 
  90      874EFFB9 
  90      FCB5
  91 0094 891D6A1D 		.ascii	"\211\035j\035\314\336\003\335\3576\262&2.bT\002\252"
  91      CCDE03DD 
  91      EF36B226 
  91      322E6254 
  91      02AA
  92 00a6 4C645CC8 		.ascii	"Ld\\\310\310\0124\015\354\012]\2065\015-\215\017\346"
  92      C80A340D 
  92      EC0A5D86 
  92      350D2D8D 
  92      0FE6
  93 00b8 AF9DAE93 		.ascii	"\257\235\256\223\311\310\254\315\260\012\310k\260\317"
  93      C9C8ACCD 
  93      B00AC86B 
  93      B0CF
  94 00c6 646499CD 		.ascii	"dd\231\3150\253qB\203@&#+\3106\266\006 `\001[\314\006"
  94      30AB7142 
  94      83402623 
  94      2BC836B6 
  94      06206001 
  95 00dd B62E8911 		.ascii	"\266.\211\021l\322R\240I`Qv\210+\240\"`\307\\dh\374"
  95      6CD252A0 
  95      49605176 
  95      882BA022 
  95      60C75C64 
  96 00f3 7069370B 		.ascii	"pi7\013\304:\030\010\001Z\013\364-(\214\345\365\364"
  96      C43A1808 
  96      015A0BF4 
  96      2D288CE5 
  96      F5F4
  97 0105 F49D3332 		.ascii	"\364\23532\2232\375\203\365\363\213\3653\022s\364\213"
  97      9332FD83 
  97      F5F38BF5 
  97      331273F4 
  97      8B
  98 0116 8B924174 		.ascii	"\213\222At|q\211^2\003KIfn\252)\246\242\202\374\242"
  98      7C71895E 
  98      32034B49 
  98      666EAA29 
  98      A6A282FC 
  99 012b 9262FDE0 		.ascii	"\222b\375\340\020_c#}\037\037\027\375\020O\3372C\250"
  99      105F6323 
  99      7D1F1F17 
  99      FD104FDF 
ARM GAS  /tmp/ccCT9eeg.s 			page 7


  99      3243A8
 100 013e B6F89C9C 		.ascii	"\266\370\234\234\024\275\014\006\000\221?jM"
 100      14BD0C06 
 100      00913F6A 
 100      4D
 101              		.text
 102              		.section	.gnu.lto_stGetAlarm.3368e4fbba7b50ab,"",%progbits
 103 0000 789C6362 		.ascii	"x\234cb`b@\007\222@\374\014\210\303\201\230\221\231"
 103      60624007 
 103      9240FC0C 
 103      88C38198 
 103      9199
 104 0012 819169C2 		.ascii	"\201\221i\3029\006\206F\016&FF\020\203\201\221\241\236"
 104      39068646 
 104      0E264646 
 104      10838191 
 104      A19E
 105 0024 89B13E92 		.ascii	"\211\261>\222\021\254v=\323\201\007\377\377\257\373"
 105      11AC763D 
 105      D38107FF 
 105      FFAFFB
 106 0033 D03EEF0E 		.ascii	"\320>\357\016\343|&\026f\206L\2608+CKC\303\004\205\\"
 106      E37C2616 
 106      66864CB0 
 106      382B434B 
 106      43C30485 
 107 0048 1027192C 		.ascii	"\020'\031,\022\002$A\332C\031\231@4\363Y\206Cw\356\\"
 107      12022441 
 107      DA431999 
 107      4034F359 
 107      864377EE 
 108 005d FA6F0455 		.ascii	"\372o\004U\011\323r\240\363\037Pa\"\343BFV\240F\260"
 108      09D372A0 
 108      F31F5061 
 108      22E34246 
 108      56A046B0 
 109 0071 CE744666 		.ascii	"\316tFf]\2065\015-\215\017\246\376\235.\225\311\310"
 109      5D86350D 
 109      2D8D0FA6 
 109      FE9D2E95 
 109      C9C8
 110 0083 A8CDB00A 		.ascii	"\250\315\260\012\310k\230\314\230\311\3104\233aV\343"
 110      C86B98CC 
 110      98C9C834 
 110      9B6156E3 
 111 0093 8406814C 		.ascii	"\204\006\201LF\346\010 \227\245\001\010X\030\300L\260"
 111      46E60820 
 111      97A50108 
 111      5818C04C 
 111      B0
 112 00a4 F3924026 		.ascii	"\363\222@&$2.\006\232\006\026e\205\370\020*\302\300"
 112      24322E06 
 112      9A061665 
 112      85F8102A 
 112      C2C0
 113 00b6 7091A1F1 		.ascii	"p\221\241\361\303\241\375<\020\373\200\026A\244C\200"
 113      C3A1FD3C 
ARM GAS  /tmp/ccCT9eeg.s 			page 8


 113      10FB8016 
 113      41A44380 
 114 00c6 1603DD08 		.ascii	"\026\003\335\010\012\031y==}\347\214\314\244L\377`\375"
 114      0A19793D 
 114      3D7DE78C 
 114      CCA44CFF 
 114      60FD
 115 00d8 FC62FD8C 		.ascii	"\374b\375\214\304\034\375\342\242d\020\035_\\\242\227"
 115      C41CFDE2 
 115      A264101D 
 115      5F5CA297 
 116 00e8 CC608A29 		.ascii	"\314`\212)_\220_TR\254\037\034\342kl\244\357\343\343"
 116      5F905F54 
 116      52AC1F1C 
 116      E26B6CA4 
 116      EFE3E3
 117 00fb A21FE2E9 		.ascii	"\242\037\342\351[f\010\325\021\237\223\223\242\227\301"
 117      5B6608D5 
 117      119F9393 
 117      A297C1
 118 010a 0000A143 		.ascii	"\000\000\241CY\256"
 118      59AE
 119              		.text
 120              		.section	.gnu.lto_.symbol_nodes.3368e4fbba7b50ab,"",%progbits
 121 0000 789C4DC7 		.ascii	"x\234M\307\261\015\2000\020\004\301\3735\256\224B\316"
 121      B10D8030 
 121      1004C1FB 
 121      35AE9442 
 121      CE
 122 0011 12091118 		.ascii	"\022\011\021\030\223S\0225P\011\"\000\011O6\010\215"
 122      93531235 
 122      50092200 
 122      094F3608 
 122      8D
 123 0022 FAB060A9 		.ascii	"\372\260`\251\236\222}\314\301\212\243k\305t\335p\352"
 123      9E927DCC 
 123      C18AA36B 
 123      C574DD70 
 123      EA
 124 0033 DAF0F037 		.ascii	"\332\360\3607v\234\337\226\022IY\323u\207\036\331\367"
 124      769CDF96 
 124      124959D3 
 124      75871ED9 
 124      F7
 125 0044 1DC2     		.ascii	"\035\302"
 126              		.text
 127              		.section	.gnu.lto_.refs.3368e4fbba7b50ab,"",%progbits
 128 0000 789C6362 		.ascii	"x\234cb`b`d\200\002\000\000F\000\006"
 128      60626064 
 128      80020000 
 128      460006
 129              		.text
 130              		.section	.gnu.lto_.decls.3368e4fbba7b50ab,"",%progbits
 131 0000 789CBD58 		.ascii	"x\234\275X}l\024E\024\237\331\273\226\273\366(\005\025"
 131      7D6C1445 
 131      149FD9BB 
 131      96BBF628 
ARM GAS  /tmp/ccCT9eeg.s 			page 9


 131      0515
 132 0012 EB5F2D44 		.ascii	"\353_-D\210!i\217^A\340\037\004\257\204\222P \327\022"
 132      8821698F 
 132      5E41E01F 
 132      04AF8492 
 132      5020D712 
 133 0026 9BF8C73A 		.ascii	"\233\370\307:\275[\270K\332k\275\333j\370o\332RD\021"
 133      BD5BB84B 
 133      DA6BBDDB 
 133      6AF86FDA 
 133      524411
 134 0039 2DC59A8A 		.ascii	"-\305\232\212\204\226oHJ$\210\225\"\205\343\243\264"
 134      84966F48 
 134      4A248895 
 134      2285E3A3 
 134      B4
 135 004a 0912810A 		.ascii	"\011\022\201\012\012\365\343\224H5D)\021\371P\35093"
 135      0AF5E394 
 135      48354429 
 135      11F950E8 
 135      3933
 136 005c BB7BB7BB 		.ascii	"\273{\267\273\335-w$:\311{\235\233}\3577\277y\357\315"
 136      DD2D7724 
 136      3AC97B9D 
 136      9B7DEF37 
 136      BF79EFCD 
 137 0070 EE4C39C0 		.ascii	"\356L9\300\201\255\020\200\030i\323\237\002 \315\002"
 137      81AD1080 
 137      1869D39F 
 137      0220CD02 
 138 0080 403A0060 		.ascii	"@:\000`>H4\372{;\221=D\272\210t\023\351!r\022\214n\324"
 138      3E4834FA 
 138      7B3B913D 
 138      44BA8874 
 138      13E92172 
 139 0098 8E23729A 		.ascii	"\216#r\232\310\016y\214\223\307\215\354)\246\215\310"
 139      C80E798C 
 139      93C78DEC 
 139      29A68DC8 
 140 00a8 7E225944 		.ascii	"~\"YD\034D\316\020\351%\322O\344>\021+\021B\013\014"
 140      1C44CE10 
 140      E925D24F 
 140      E43E112B 
 140      11420B0C 
 141 00bc 11B94C64 		.ascii	"\021\271Ld@\306\244\276\017\344\376\247DFt\330]\262"
 141      40C6A4BE 
 141      0FE4FEA7 
 141      444674D8 
 141      5DB2
 142 00ce DF191516 		.ascii	"\337\031\025\026T\371\323\34768\232Sw\222\234\240\314"
 142      54F9D3E7 
 142      36389A53 
 142      77929CA0 
 142      CC
 143 00df 89937D32 		.ascii	"\211\223}2\241\324\377\202\310\004\035.\215W\272\214"
 143      A1D4FF82 
 143      C8041D2E 
ARM GAS  /tmp/ccCT9eeg.s 			page 10


 143      8D57BA8C 
 144 00ef F9382C6A 		.ascii	"\3718,j\3734\224\306\236\325\341\344\202m\270#\032m"
 144      FB3494C6 
 144      9ED5E1E4 
 144      826DB823 
 144      1A6D
 145 0101 6A3F0771 		.ascii	"j?\007q\013~\030\213Y\300d\320\212I\353X\2071\024\021"
 145      0B7E188B 
 145      59C064D0 
 145      8A49EB58 
 145      87311411 
 146 0115 9CFF0CA8 		.ascii	"\234\377\014\250\200\010f\331A\036\3538\354l\002\000"
 146      800866D9 
 146      411EEB38 
 146      EC6C0200 
 147 0125 10DC0127 		.ascii	"\020\334\001'\313\275\225\026\011\216\003S!\230\001"
 147      CBBD9516 
 147      098E0353 
 147      219801
 148 0134 F613FF66 		.ascii	"\366\023\377f\214wL\036\035\014\322\246\203\335t\002"
 148      8C774C1E 
 148      1D0CD2A6 
 148      83DD7402 
 149 0144 BC0F5B18 		.ascii	"\274\017[\030<\005\330\016s\325&\010\356\204\234\236"
 149      3C05D80E 
 149      73D52608 
 149      EE849C9E 
 150 0154 67743872 		.ascii	"gt8r\344\254\243\271>\032\213\345&Or\257L\322\302b\001"
 150      E4ACA3B9 
 150      3E1A8BE5 
 150      264F72AF 
 150      4CD2C262 
 151 0169 EC603DC6 		.ascii	"\354`=\306\015\324\261\244\237$\303\310k\032\330E\350"
 151      0DD4B1A4 
 151      9F24C3C8 
 151      6B1AD845 
 151      E8
 152 017a 472F1E18 		.ascii	"G/\036\030\3400\266!\270\037\332\211\357+\220\200\355"
 152      E030B621 
 152      B81FDA89 
 152      EF2B9080 
 152      ED
 153 018b 82336442 		.ascii	"\2023dB\311\343l~\253\367$l <\021\354dH\227\341\223"
 153      C9E36C7E 
 153      ABF7246C 
 153      203C11EC 
 153      644897E1 
 154 01a0 423D7AEF 		.ascii	"B=z\357\330<F\351\023\006t\235\323\002!8\316\256\215"
 154      D83C46E9 
 154      1306749D 
 154      D3022138 
 154      CEAE8D
 155 01b3 22F9AD18 		.ascii	"\"\371\255\030P4\366X\356\320\035:\001\374\307\346\211"
 155      5034F658 
 155      EED01D3A 
 155      01FCC7E6 
 155      89
ARM GAS  /tmp/ccCT9eeg.s 			page 11


 156 01c4 CA60C5F1 		.ascii	"\312`\305\361\207\216\360\363`'\306-\321\246\241_-\037"
 156      878EF0F3 
 156      6027C62D 
 156      D1A6A15F 
 156      2D1F
 157 01d6 E1885509 		.ascii	"\341\210U\011\365?\314l\017)\011\243XHV\211:\332\210"
 157      F53FCC6C 
 157      0F2909A3 
 157      58485689 
 157      3ADA88
 158 01e9 9BB261BC 		.ascii	"\233\262a\274\220\366\350\013\351\220a!\335Q\012I\252"
 158      90F6E80B 
 158      E9906121 
 158      DD510A49 
 158      AA
 159 01fa 620E345A 		.ascii	"b\0164Z\264\324\214\313\264K\217\376\271!\372\301\276"
 159      B4D48CCB 
 159      B44B8FFE 
 159      B921FAC1 
 159      BE
 160 020b 38FA5E86 		.ascii	"8\372^\206\376\276\305h\341\370\236\257DZ\015\202\207"
 160      FEBEC568 
 160      E1F89EAF 
 160      445A0D82 
 160      87
 161 021c 091082DD 		.ascii	"\011\020\202\335O\264\346n=\253\243\206\254n\367m|\016"
 161      4FB4E66E 
 161      3DABA386 
 161      AC6EF76D 
 161      7C0E
 162 022e 77344462 		.ascii	"w4Db\261\227\364\233\234\242\233m\240\343\006\273|\213"
 162      B197F49B 
 162      9CA29B6D 
 162      A0E306BB 
 162      7C8B
 163 0240 71B41AF0 		.ascii	"q\264\032\360\241}\330\256\220E\260\307d92\336\011\003"
 163      A17DD8AE 
 163      9045B0C7 
 163      643932DE 
 163      0903
 164 0252 9ACDD18F 		.ascii	"\232\315\321\217\007\037\325\303M\215\035\375x\230\326"
 164      071FD5C3 
 164      4D8D1DFD 
 164      7898D6
 165 0261 9092A0C1 		.ascii	"\220\222\240\301QSJ \247\264 \231\340\235\304f\222|"
 165      51534A20 
 165      A7B42099 
 165      E09DC466 
 165      927C
 166 0273 CD16761A 		.ascii	"\315\026v\032f\252\021\3316l\034s\033\"x\000NK\252\360"
 166      66AA11D9 
 166      366C1C73 
 166      1B227800 
 166      4E4BAAF0 
 167 0287 2782661A 		.ascii	"'\202f\032\337<\312\341L\"\270\030*p\331lN\265Y\247"
 167      DF3CCAE1 
 167      4C22B818 
ARM GAS  /tmp/ccCT9eeg.s 			page 12


 167      2A70D96C 
 167      4EB559A7 
 168 029b B9198267 		.ascii	"\271\031\202g\341\304\004I\034_\236\303<m}R\301(\303"
 168      E1C40449 
 168      1C5F9EC3 
 168      3C6D7D52 
 168      C128C3
 169 02ae F14E623F 		.ascii	"\361Nb?\252\255\300$\260If\022_:NW|^\003\361WP{\373"
 169      AAADC024 
 169      B0496612 
 169      5F3A4E57 
 169      7C5E03F1 
 170 02c6 BD17D92B 		.ascii	"\275\027\331+\250\037N\242\337z\2536+\217\205\241\223"
 170      A81F4EA2 
 170      DF7AAB36 
 170      2B8F85A1 
 170      93
 171 02d7 9E23AE92 		.ascii	"\236#\256\222\023\003\305\221\315\203\016l\225\306\201"
 171      1303C591 
 171      CD830E6C 
 171      95C681
 172 02e6 4192E536 		.ascii	"A\222\3456\005t\340\265\215\221\326\301\255\244\214"
 172      0574E0B5 
 172      8D91D6C1 
 172      ADA48C
 173 02f5 4F4129B0 		.ascii	"OA)\260\034\330\307(P_\243P\304\227\257\304\"\313\256"
 173      1CD8C728 
 173      505FA350 
 173      C497AFC4 
 173      22CBAE
 174 0308 C3FB70D0 		.ascii	"\303\373p\320\321\214\024\260\316\224\301\3624`mj\260"
 174      D18C14B0 
 174      CE94C1F2 
 174      34606D6A 
 174      B0
 175 0319 83C980D9 		.ascii	"\203\311\200\331\314\231mQ\203}\2262\230\226\331V5\330"
 175      CC996D51 
 175      837D9632 
 175      9896D956 
 175      35D8
 176 032b D164C0B2 		.ascii	"\321d\300\262\315\231mS\203\365\244\014\246evP\015v"
 176      CD996D53 
 176      83F5A40C 
 176      A6657650 
 176      0D76
 177 033d 3219B01C 		.ascii	"2\031\260\034sf\207\324`})\203i\231\035V\203\235O\006"
 177      736687D4 
 177      607D2983 
 177      69991D56 
 177      839D4F06 
 178 0351 2CCF9C59 		.ascii	",\317\234Y\227\032\354R\312`ZfG\324`W\222\001{\301\234"
 178      971AEC52 
 178      CA605A66 
 178      47D46057 
 178      92017BC1 
 179 0366 D95135D8 		.ascii	"\331Q5\330\265\224\301\264\314\216\251\301~H\006l\246"
 179      B594C1B4 
ARM GAS  /tmp/ccCT9eeg.s 			page 13


 179      CC8EA9C1 
 179      7E48066C 
 179      A6
 180 0377 19B3FAC8 		.ascii	"\031\263\372\310\361W)V/y\371q\340g=\226\366-i\004\246"
 180      F1572956 
 180      2F79F971 
 180      E0673D96 
 180      F62D6904 
 181 038c 657641CD 		.ascii	"evA\315\354F2\314\026\230\203]R\203\335L\006\254\304"
 181      EC4632CC 
 181      1698835D 
 181      5283DD4C 
 181      06ACC4
 182 039f 3C015FAB 		.ascii	"<\001_\253\301n\245\014\246evE\015v'\031\260\025\346"
 182      C16EA50C 
 182      A6657645 
 182      0D762719 
 182      B015E6
 183 03b2 CCBE5583 		.ascii	"\314\276U\203\335K\031L\315\254>r\215dS\376\342u,\320"
 183      DD4B194C 
 183      CDAC3E72 
 183      8D6453FE 
 183      E2752CD0 
 184 03c6 7D191768 		.ascii	"}\031\027h_a\032\263NS3\004\377J\371\303x\327\344\303"
 184      5F611AB3 
 184      4E533304 
 184      FF4AF9C3 
 184      78D7E4C3 
 185 03da A8BE1925 		.ascii	"\250\276\031%\254\310\262\037\351\227\255!!w+\014bh"
 185      ACC8B21F 
 185      E997AD21 
 185      21772B0C 
 185      6268
 186 03ec D4D45F3F 		.ascii	"\324\324_?\004\277d\307\211\363p\012\321_1}\221\351"
 186      04BF64C7 
 186      89F3700A 
 186      D15F317D 
 186      91E9
 187 03fe 01A62F33 		.ascii	"\001\246/3\375\015\323W\231\036d\372{\246\177d\372'"
 187      FD0DD357 
 187      991E64FA 
 187      7BA67F64 
 187      FA27
 188 0410 A6AF33FD 		.ascii	"\246\2573\375\013\323CL\377\306\364M\246\177g\372\026"
 188      0BD3434C 
 188      FFC6F44D 
 188      A67F67FA 
 188      16
 189 0421 D3B799FE 		.ascii	"\323\267\231\376\223\350x\323\035\231\372M\362K\271"
 189      93E878D3 
 189      1D99FA4D 
 189      F24BB9
 190 0430 DF274726 		.ascii	"\337'G&\271\321\323Zd\230\234\326\276;\005[\032\261"
 190      B9D1D35A 
 190      64989CD6 
 190      BE3B055B 
 190      1AB1
ARM GAS  /tmp/ccCT9eeg.s 			page 14


 191 0442 745AEBB0 		.ascii	"tZ\353\260)'\336\2064\303\023\357\200P\242\234\362["
 191      2927DE86 
 191      34C313EF 
 191      8050A29C 
 191      F25B
 192 0454 99C58324 		.ascii	"\231\305\203$O\274W\361\212\234\370\201\367\201\376"
 192      4FBC57F1 
 192      8A9CF881 
 192      F781FE
 193 0463 C0FBB7F6 		.ascii	"\300\373\267\366\0208\025l\307\027.D{\207\332\340\372"
 193      1038156C 
 193      C7172E44 
 193      7B87DAE0 
 193      FA
 194 0474 28B9898E 		.ascii	"(\271\211\216\304bP9j\265e\311\367\255\350\356HN[\342"
 194      C4625039 
 194      6AB565C9 
 194      F7ADE8EE 
 194      484E5BE2 
 195 0488 986253D7 		.ascii	"\230bS\327\201t.!\016\\\334\030\347\344\030\333\"X\317"
 195      81742E21 
 195      0E5CDC18 
 195      E7E418DB 
 195      2258CF
 196 049b D12C3670 		.ascii	"\321,6p\211\272\222\372J/\306.\362[\322\014\3767 \321"
 196      89BA92FA 
 196      4A2FC62E 
 196      F25BD20C 
 196      FE3720D1 
 197 04af 1FDB559E 		.ascii	"\037\333U\236\324\257L:\236\331&\326#Y\032[!\270\226"
 197      D4AF4C3A 
 197      9ED926D6 
 197      23591A5B 
 197      21B896
 198 04c2 4B758334 		.ascii	"Ku\2034q\306\033\304\241\341\254X\221\225\265\247\351"
 198      71C61BC4 
 198      A1E1AC58 
 198      9195B5A7 
 198      E9
 199 04d3 EE6B3A12 		.ascii	"\356k:\022\344\214&\257\035\301\014\250*\235\033\272"
 199      E48C26AF 
 199      1DC10CA8 
 199      2A9D1BBA 
 200 04e3 D2914EFA 		.ascii	"\322\221N\372]\272\3221\276\212\255\347t5\36067\352"
 200      5DBAD231 
 200      BE8AADE7 
 200      7435F036 
 200      37EA
 201 04f5 3611198E 		.ascii	"6\021\031\216\\:']\305\332#\331Ji\366\033\227\346\011"
 201      5C3A275D 
 201      C5DA23D9 
 201      4A69F61B 
 201      97E609
 202 0508 217E197B 		.ascii	"!~\031{\310.c\033\270'(\315\015zZ\357r\206\245y\327"
 202      C82E631B 
 202      B82728CD 
 202      0D7A5AEF 
ARM GAS  /tmp/ccCT9eeg.s 			page 15


 202      7286A579 
 203 051d B03411C4 		.ascii	"\2604\021\304\211TV(\223f\216\225p\235\025\202\233R"
 203      89545628 
 203      93668E95 
 203      709D1582 
 203      9B52
 204 052f 4E788B49 		.ascii	"Nx\213I\30234\013Q\254Hw\035\247\273\254\352Hp\340\252"
 204      C233340B 
 204      51AC4877 
 204      1DA7BBAC 
 204      EA4870E0 
 205 0544 71C2475A 		.ascii	"q\302GZ\340fu\302\217\263\204\014\031'\\\177\233\374"
 205      E06675C2 
 205      8FB3840C 
 205      19275C7F 
 205      9BFC
 206 0556 C0241FF2 		.ascii	"\300$\037\362D\255\306\201\036Q\005\032\301f\022\034"
 206      44ADC681 
 206      1E51051A 
 206      C166121C 
 207 0566 857FCF18 		.ascii	"\205\177\317\030\374\357k\370\203\334\202\002\247\333"
 207      FCEF6BF8 
 207      83DC8202 
 207      A7DB
 208 0574 1FA80C2C 		.ascii	"\037\250\014,/s\326\204\235~T\345\014\207\274\364/\037"
 208      2F73D684 
 208      9D7E54E5 
 208      0C87BCF4 
 208      2F1F
 209 0586 160BBC20 		.ascii	"\026\013\274 =,.\011\006\304\364\305\313V\346\271\301"
 209      3D2C2E09 
 209      06C4F4C5 
 209      CB56E6B9 
 209      C1
 210 0597 74AD7548 		.ascii	"t\255uHt\006\202\336\252:\237\340\364\372\303k\302\342"
 210      740682DE 
 210      AA3A9FE0 
 210      F4FAC36B 
 210      C2E2
 211 05a9 9A5A215C 		.ascii	"\232Z!\\\340\007v\332\017T\013\274\030v\006W1\231\355"
 211      E00776DA 
 211      0F540BBC 
 211      18760657 
 211      3199ED
 212 05bc F4D7540B 		.ascii	"\364\327T\013\316\220\020\026P\310\353'\023\204|o\242"
 212      CE901016 
 212      50C8EB27 
 212      13847C6F 
 212      A2
 213 05cd 90E044A1 		.ascii	"\220\340D\241j\227s\265\327\233O:\371Bu\245\340\363"
 213      6A9773B5 
 213      D79B4F3A 
 213      F94275A5 
 213      E0F3
 214 05df 09BEF840 		.ascii	"\011\276\370@\260&(\344\013\2502\220?\213\237\233\357"
 214      B02628E4 
 214      0BA83290 
ARM GAS  /tmp/ccCT9eeg.s 			page 16


 214      3F8B9F9B 
 214      EF
 215 05f0 9A5938EB 		.ascii	"\232Y8\353u\227S\363 \316 ,\372\002A\221\314n\253#\177"
 215      759753F3 
 215      20CE202C 
 215      FA024191 
 215      CC6EAB23 
 216 0605 8B5CBCD8 		.ascii	"\213\\\274\330\010\377\277\331\253\221\327\037\010\012"
 216      08FFBFD9 
 216      AB91D71F 
 216      080A
 217 0613 4EDE27AC 		.ascii	"N\336'\254BuU\"\257\304\"\203\347\025>\216\260X&\242"
 217      42755522 
 217      AFC42283 
 217      E7153E8E 
 217      B05826A2 
 218 0627 90B8B08A 		.ascii	"\220\270\260\212`\214C\225,F\231t\260\246\226\215e\220"
 218      608C4395 
 218      2C469974 
 218      B0A6968D 
 218      6590
 219 0639 BE202ADD 		.ascii	"\276 *\335\305rw\366\350\024\325\326\204Hh\313\312K"
 219      C57277F6 
 219      E814D5D6 
 219      844868CB 
 219      CA4B
 220 064b 8B5CCEA5 		.ascii	"\213\\\316\245K\213\235\345KJ\337(\224\223\306WU\371"
 220      4B8B9DE5 
 220      4B4ADF28 
 220      9493C657 
 220      55F9
 221 065d C8BC9952 		.ascii	"\310\274\231R\217\017\220\354\315J\026!,VS\242\201j"
 221      8F0F90EC 
 221      CD4A1621 
 221      2C5653A2 
 221      816A
 222 066f 0940FEC1 		.ascii	"\011@\376\301\213\026\267\247\220\210\313ZV\352\366"
 222      8B16B7A7 
 222      9088CB5A 
 222      56EAF6
 223 067e 588B972C 		.ascii	"X\213\227,\362pe\036\313\242\305\2364\267\273\324S\310"
 223      F270651E 
 223      CBA2C59E 
 223      34B7BBD4 
 223      53C8
 224 0690 B4CBEA76 		.ascii	"\264\313\352v/\362X\334\313\312-+\312\334\226\205\036"
 224      2FF258DC 
 224      CBCA2D2B 
 224      CADC9685 
 224      1E
 225 06a1 8FC5E326 		.ascii	"\217\305\343&\277\211\303\313\305\345\036K1\365,]\350"
 225      BF89C3CB 
 225      C5E51E4B 
 225      31F52C5D 
 225      E8
 226 06b2 E1964B5E 		.ascii	"\341\226K^E\304\276\3023I\246\031\246\201\341\021]\257"
 226      45C4BEC2 
ARM GAS  /tmp/ccCT9eeg.s 			page 17


 226      3349A619 
 226      A681E111 
 226      5DAF
 227 06c4 9586C5EA 		.ascii	"\225\206\305\352%9\262\361\374\252\272\240\227\347\307"
 227      2539B2F1 
 227      FCAABAA0 
 227      97E7C7
 228 06d3 2B9D8239 		.ascii	"+\235\20293\347\270&\306}jj%\227leD\22014\016\363\224"
 228      33E7B826 
 228      C67D6A6A 
 228      25976C65 
 228      44903134 
 229 06ea C7AB8D1E 		.ascii	"\307\253\215\036\317-\372\027D\336\254\251"
 229      CF2DFA17 
 229      44DEACA9 
 230              		.text
 231              		.section	.gnu.lto_.symtab.3368e4fbba7b50ab,"",%progbits
 232 0000 7374496E 		.ascii	"stInit\000\000\000\000\000\000\000\000\000\000\000\000"
 232      69740000 
 232      00000000 
 232      00000000 
 232      0000
 233 0012 A1000000 		.ascii	"\241\000\000\000stStartAlarm\000\000\000\000\000\000"
 233      73745374 
 233      61727441 
 233      6C61726D 
 233      00000000 
 234 0028 00000000 		.ascii	"\000\000\000\000\000\000\246\000\000\000stStopAlarm"
 234      0000A600 
 234      00007374 
 234      53746F70 
 234      416C6172 
 235 003d 00000000 		.ascii	"\000\000\000\000\000\000\000\000\000\000\000\000\266"
 235      00000000 
 235      00000000 
 235      B6
 236 004a 00000073 		.ascii	"\000\000\000stSetAlarm\000\000\000\000\000\000\000\000"
 236      74536574 
 236      416C6172 
 236      6D000000 
 236      00000000 
 237 005f 00000000 		.ascii	"\000\000\000\000\271\000\000\000stGetAlarm\000\000\000"
 237      B9000000 
 237      73744765 
 237      74416C61 
 237      726D0000 
 238 0074 00000000 		.ascii	"\000\000\000\000\000\000\000\000\000\275\000\000\000"
 238      00000000 
 238      00BD0000 
 238      00
 239 0081 73745F6C 		.ascii	"st_lld_init\000\000\002\000\000\000\000\000\000\000"
 239      6C645F69 
 239      6E697400 
 239      00020000 
 239      00000000 
 240 0096 0000C100 		.ascii	"\000\000\301\000\000\000"
 240      0000
ARM GAS  /tmp/ccCT9eeg.s 			page 18


 241              		.text
 242              		.section	.gnu.lto_.opts,"",%progbits
 243 0000 272D6D63 		.ascii	"'-mcpu=cortex-m4' '-mno-thumb-interwork' '-mthumb' "
 243      70753D63 
 243      6F727465 
 243      782D6D34 
 243      2720272D 
 244 0033 272D6767 		.ascii	"'-ggdb' '-O2' '-fomit-frame-pointer' '-falign-funct"
 244      64622720 
 244      272D4F32 
 244      2720272D 
 244      666F6D69 
 245 0066 696F6E73 		.ascii	"ions=16' '-ffunction-sections' '-fdata-sections' '-"
 245      3D313627 
 245      20272D66 
 245      66756E63 
 245      74696F6E 
 246 0099 666E6F2D 		.ascii	"fno-common' '-flto'\000"
 246      636F6D6D 
 246      6F6E2720 
 246      272D666C 
 246      746F2700 
 247              		.text
 248              		.cfi_sections	.debug_frame
 249              		.section	.text.stInit,"ax",%progbits
 250              		.align	2
 251              		.p2align 4,,15
 252              		.global	stInit
 253              		.thumb
 254              		.thumb_func
 255              		.type	stInit, %function
 256              	stInit:
 257              	.LFB270:
 258              		.file 1 "../ChibiOS/os/hal/src/hal_st.c"
 259              		.loc 1 60 0
 260              		.cfi_startproc
 261              		@ args = 0, pretend = 0, frame = 0
 262              		@ frame_needed = 0, uses_anonymous_args = 0
 263              		@ link register save eliminated.
 264              		.loc 1 62 0
 265 0000 FFF7FEBF 		b	st_lld_init
 266              	.LVL0:
 267              		.cfi_endproc
 268              	.LFE270:
 269              		.size	stInit, .-stInit
 270 0004 AFF30080 		.section	.text.stStartAlarm,"ax",%progbits
 270      AFF30080 
 270      AFF30080 
 271              		.align	2
 272              		.p2align 4,,15
 273              		.global	stStartAlarm
 274              		.thumb
 275              		.thumb_func
 276              		.type	stStartAlarm, %function
 277              	stStartAlarm:
 278              	.LFB271:
 279              		.loc 1 76 0
ARM GAS  /tmp/ccCT9eeg.s 			page 19


 280              		.cfi_startproc
 281              		@ args = 0, pretend = 0, frame = 0
 282              		@ frame_needed = 0, uses_anonymous_args = 0
 283              		@ link register save eliminated.
 284              	.LVL1:
 285              	.LBB10:
 286              	.LBB11:
 287              		.file 2 "../ChibiOS/os/hal/ports/STM32/LLD/TIMv1/hal_st_lld.h"
 288              		.loc 2 155 0
 289 0000 4FF08043 		mov	r3, #1073741824
 290              	.LVL2:
 291              		.loc 2 156 0
 292 0004 0021     		movs	r1, #0
 293              		.loc 2 157 0
 294 0006 0222     		movs	r2, #2
 295              		.loc 2 155 0
 296 0008 5863     		str	r0, [r3, #52]
 297              		.loc 2 156 0
 298 000a 1961     		str	r1, [r3, #16]
 299              		.loc 2 157 0
 300 000c DA60     		str	r2, [r3, #12]
 301 000e 7047     		bx	lr
 302              	.LBE11:
 303              	.LBE10:
 304              		.cfi_endproc
 305              	.LFE271:
 306              		.size	stStartAlarm, .-stStartAlarm
 307              		.section	.text.stStopAlarm,"ax",%progbits
 308              		.align	2
 309              		.p2align 4,,15
 310              		.global	stStopAlarm
 311              		.thumb
 312              		.thumb_func
 313              		.type	stStopAlarm, %function
 314              	stStopAlarm:
 315              	.LFB272:
 316              		.loc 1 90 0
 317              		.cfi_startproc
 318              		@ args = 0, pretend = 0, frame = 0
 319              		@ frame_needed = 0, uses_anonymous_args = 0
 320              		@ link register save eliminated.
 321              	.LBB12:
 322              	.LBB13:
 323              		.loc 2 167 0
 324 0000 4FF08043 		mov	r3, #1073741824
 325 0004 0022     		movs	r2, #0
 326 0006 DA60     		str	r2, [r3, #12]
 327 0008 7047     		bx	lr
 328              	.LBE13:
 329              	.LBE12:
 330              		.cfi_endproc
 331              	.LFE272:
 332              		.size	stStopAlarm, .-stStopAlarm
 333 000a 00BFAFF3 		.section	.text.stSetAlarm,"ax",%progbits
 333      0080
 334              		.align	2
 335              		.p2align 4,,15
ARM GAS  /tmp/ccCT9eeg.s 			page 20


 336              		.global	stSetAlarm
 337              		.thumb
 338              		.thumb_func
 339              		.type	stSetAlarm, %function
 340              	stSetAlarm:
 341              	.LFB273:
 342              		.loc 1 104 0
 343              		.cfi_startproc
 344              		@ args = 0, pretend = 0, frame = 0
 345              		@ frame_needed = 0, uses_anonymous_args = 0
 346              		@ link register save eliminated.
 347              	.LVL3:
 348              	.LBB14:
 349              	.LBB15:
 350              		.loc 2 179 0
 351 0000 4FF08043 		mov	r3, #1073741824
 352              	.LVL4:
 353 0004 5863     		str	r0, [r3, #52]
 354 0006 7047     		bx	lr
 355              	.LBE15:
 356              	.LBE14:
 357              		.cfi_endproc
 358              	.LFE273:
 359              		.size	stSetAlarm, .-stSetAlarm
 360 0008 AFF30080 		.section	.text.stGetAlarm,"ax",%progbits
 360      AFF30080 
 361              		.align	2
 362              		.p2align 4,,15
 363              		.global	stGetAlarm
 364              		.thumb
 365              		.thumb_func
 366              		.type	stGetAlarm, %function
 367              	stGetAlarm:
 368              	.LFB274:
 369              		.loc 1 120 0
 370              		.cfi_startproc
 371              		@ args = 0, pretend = 0, frame = 0
 372              		@ frame_needed = 0, uses_anonymous_args = 0
 373              		@ link register save eliminated.
 374              	.LBB16:
 375              	.LBB17:
 376              		.loc 2 191 0
 377 0000 4FF08043 		mov	r3, #1073741824
 378 0004 586B     		ldr	r0, [r3, #52]
 379              	.LBE17:
 380              	.LBE16:
 381              		.loc 1 125 0
 382 0006 7047     		bx	lr
 383              		.cfi_endproc
 384              	.LFE274:
 385              		.size	stGetAlarm, .-stGetAlarm
 386 0008 AFF30080 		.text
 386      AFF30080 
 387              	.Letext0:
 388              		.file 3 "/nfs/nfs5/home/research/hardware/arm2/gcc-arm-embedded/gcc-arm-none-eabi-4_8-2014q2/arm-n
 389              		.file 4 "/nfs/nfs5/home/research/hardware/arm2/gcc-arm-embedded/gcc-arm-none-eabi-4_8-2014q2/arm-n
 390              		.file 5 "../ChibiOS/os/common/ports/ARMCMx/compilers/GCC/chtypes.h"
ARM GAS  /tmp/ccCT9eeg.s 			page 21


 391              		.file 6 "../ChibiOS/os/rt/include/chsystypes.h"
 392              		.file 7 "../ChibiOS/os/rt/include/chschd.h"
 393              		.file 8 "../ChibiOS/os/common/ports/ARMCMx/chcore.h"
 394              		.file 9 "../ChibiOS/os/common/ports/ARMCMx/chcore_v7m.h"
 395              		.file 10 "../ChibiOS/os/hal/ports/STM32/LLD/TIMv1/stm32_tim.h"
 396              		.file 11 "../ChibiOS/os/rt/include/chtm.h"
 397              		.file 12 "../ChibiOS/os/rt/include/chsem.h"
 398              		.file 13 "../ChibiOS/os/rt/include/chmtx.h"
 399              		.file 14 "../ChibiOS/os/common/ext/CMSIS/include/core_cm4.h"