ARM GAS  /tmp/ccCT9eeg.s 			page 1


   1              		.syntax unified
   2              		.cpu cortex-m4
   3              		.fpu softvfp
   4              		.eabi_attribute 20, 1
   5              		.eabi_attribute 21, 1
   6              		.eabi_attribute 23, 3
   7              		.eabi_attribute 24, 1
   8              		.eabi_attribute 25, 1
   9              		.eabi_attribute 26, 1
  10              		.eabi_attribute 30, 2
  11              		.eabi_attribute 34, 1
  12              		.eabi_attribute 18, 4
  13              		.thumb
  14              		.file	"hal_st.c"
  15              		.text
  16              	.Ltext0:
  17              		.section	.gnu.lto_.jmpfuncs.3368e4fbba7b50ab,"",%progbits
  18 0000 789C6362 		.ascii	"x\234cb`b\300\006x\2414+\020322103\26200\000\000\002"
  18      6062C006 
  18      78A1342B 
  18      10333232 
  18      313033B2 
  19 0019 6D0023   		.ascii	"m\000#"
  20              		.text
  21              		.section	.gnu.lto_.inline.3368e4fbba7b50ab,"",%progbits
  22 0000 789C6362 		.ascii	"x\234cb`b\300\006R\2414+\003\003\013\017#X\021\333\002"
  22      6062C006 
  22      52A1342B 
  22      03030B0F 
  22      235811DB 
  23 0015 79B05A46 		.ascii	"y\260ZF.\020\301\300\306\012\024f\373\240\007\027gb"
  23      2E10C1C0 
  23      C60A1466 
  23      FBA00717 
  23      6762
  24 0027 6061060A 		.ascii	"`a\006\0121]\340\207\0131c\012\261`\0121\000\000\232"
  24      315DE087 
  24      0B31630A 
  24      B1600A31 
  24      00009A
  25 003a 48086D   		.ascii	"H\010m"
  26              		.text
  27              		.section	.gnu.lto_.pureconst.3368e4fbba7b50ab,"",%progbits
  28 0000 789C6362 		.ascii	"x\234cb`b\340f\200\000V\006\011F)&)f)\026)\000\004\027"
  28      6062E066 
  28      80005606 
  28      09462926 
  28      29662916 
  29 0018 009F     		.ascii	"\000\237"
  30              		.text
  31              		.section	.gnu.lto_stInit.3368e4fbba7b50ab,"",%progbits
  32 0000 789C6362 		.ascii	"x\234cb`b@\007\222@\\\011\304\212@\314\310\314\300\310"
  32      60624007 
  32      92405C09 
  32      C48A40CC 
  32      C8CCC0C8 
  33 0014 34E11C03 		.ascii	"4\341\034\003C#\007\023##\210\301\300\310P\317\304X"
ARM GAS  /tmp/ccCT9eeg.s 			page 2


  33      43230713 
  33      232388C1 
  33      C0C850CF 
  33      C458
  34 0026 1FC90856 		.ascii	"\037\311\010V\273\236\351\300\203\377\377\327\375X\373"
  34      BB9EE9C0 
  34      83FFFFD7 
  34      FD58FB
  35 0035 B01EA894 		.ascii	"\260\036\250\224\201\201\225\241\245\241a\202\002\003"
  35      818195A1 
  35      A5A16182 
  35      0203
  36 0043 4332583E 		.ascii	"C2X>\004H\2024\20522\201h\346\363\014\315\017\376\331"
  36      04488234 
  36      85323281 
  36      68E6F30C 
  36      CD0FFED9 
  37 0057 24322E64 		.ascii	"$2.dd\005\312V3\374j\350h\020\310d\004\252\206\030\227"
  37      6405CA56 
  37      33FC6AE8 
  37      6810C864 
  37      04AA8618 
  38 006c 09A22F32 		.ascii	"\011\242/24>\370\317\004S\004\001!@\011\240\001 \307"
  38      343EF8CF 
  38      04530401 
  38      214009A0 
  38      0120C7
  39 007f CAEBE9E9 		.ascii	"\312\353\351\351;gd&e\372\007\353\347\027\353g$\346"
  39      3B676426 
  39      65FA07EB 
  39      E717EB67 
  39      24E6
  40 0091 E8171725 		.ascii	"\350\027\027%\203\350\370\342\022\275d\006\000\242\250"
  40      83E8F8E2 
  40      12BD6406 
  40      00A2A8
  41 00a0 2C73     		.ascii	",s"
  42              		.text
  43              		.section	.gnu.lto_stStartAlarm.3368e4fbba7b50ab,"",%progbits
  44 0000 789C9D91 		.ascii	"x\234\235\221AK\002A\024\307\337\233\335Uou\355\224"
  44      414B0241 
  44      14C7DF9B 
  44      DD556F75 
  44      ED94
  45 0012 78AD76A9 		.ascii	"x\255v\251\350\334\241.\201\322\301\015\012\002Y-r@"
  45      E8DCA12E 
  45      81D2C10D 
  45      0A02592D 
  45      7240
  46 0024 315CE9DA 		.ascii	"1\\\351\332\254\210\227.\"\004aA\030E\020\221\247\300"
  46      AC88972E 
  46      22046141 
  46      18451091 
  46      A7C0
  47 0036 6ED6ADA4 		.ascii	"n\326\255\244@\352\032\370\005\002?@\260\275\031\225"
  47      40EA1AF8 
  47      05023F40 
ARM GAS  /tmp/ccCT9eeg.s 			page 3


  47      B0BD1995 
  48 0046 B00E410F 		.ascii	"\260\016A\017v\336\316\177\336\373\375\0373\014\030"
  48      76DECE7F 
  48      DEFBFD1F 
  48      330C18
  49 0055 FC8C09FA 		.ascii	"\374\214\011\372\236\020`\2232j\200\254\362\002\340"
  49      9E106093 
  49      326A80AC 
  49      F202E0
  50 0064 8518A2FC 		.ascii	"\205\030\242\374\001\204}\206\373\033\250j\033\254\325"
  50      01847D86 
  50      FB1BA86A 
  50      1BACD5
  51 0073 F5FD9B66 		.ascii	"\365\375\233f\371\362\004k,\3100\253t\003JBT\302Y\244"
  51      F9F2046B 
  51      2CC830AB 
  51      74034A42 
  51      54C259A4 
  52 0087 5D4A2936 		.ascii	"]J)6\255\262}\015\231\314\332#\024C\000\021\250\013"
  52      ADB27D0D 
  52      99CCDA23 
  52      14430011 
  52      A80B
  53 0099 516DDD95 		.ascii	"Qm\335\225\333(\252\302\353\371\376\030G\032)\202\262"
  53      DB28AAC2 
  53      EBF9FE18 
  53      471A2982 
  53      B2
  54 00aa 6D1D3962 		.ascii	"m\0359bX%\246\217\316\270C\030x\206\207\366\347\353"
  54      5825A68F 
  54      CEB84318 
  54      788687F6 
  54      E7EB
  55 00bc 7B3138B0 		.ascii	"{18\260\033\372\266\016\336:\206\203g\030\241J\007\353"
  55      1BFAB60E 
  55      DE3A8683 
  55      6718A14A 
  55      07EB
  56 00ce 68104D4D 		.ascii	"h\020MM1\003\327\242\344uO?\016\2479jSpE;\261\310Q?"
  56      3103D7A2 
  56      E4754F3F 
  56      0EA7396A 
  56      5370453B 
  57 00e6 869A5711 		.ascii	"\206\232W\021\343\034\015\351\026\020\024\2722\016("
  57      E31C0DE9 
  57      161014BA 
  57      320E28
  58 00f5 BB242AD2 		.ascii	"\273$*\322\005\221\224\032\354O1P\206\3034\217\032\367"
  58      0591941A 
  58      EC4F3150 
  58      86C3348F 
  58      1AF7
  59 0107 9A83E7A4 		.ascii	"\232\203\347\244}\243\265?\3218\202\326\244(a\315\177"
  59      7DA3B53F 
  59      D13882D6 
  59      A42861CD 
  59      7F
ARM GAS  /tmp/ccCT9eeg.s 			page 4


  60 0118 C1D8284C 		.ascii	"\301\330(L\276n\007\274^\365V\357_\3040l\262\245w\220"
  60      BE6E07BC 
  60      5EF556EF 
  60      5FC4306C 
  60      B2A57790 
  61 012c E793A669 		.ascii	"\347\223\246i-\245y\222\257\306\255\234k\245\235\214"
  61      2DA57992 
  61      AFC6AD9C 
  61      6BA59D8C 
  62 013c E5E65332 		.ascii	"\345\346S2'\334\202\231\002\275\300\263\333\013\277"
  62      27DC8299 
  62      02BDC0B3 
  62      DB0BBF
  63 014b 8B7673F9 		.ascii	"\213vs\371\202k\305\355\330\374\234\025\215.[\366Jl"
  63      826BC5ED 
  63      D8FC9C15 
  63      8D2E5BF6 
  63      4A6C
  64 015d 6F76D096 		.ascii	"ov\320\226\310d\266\3144|\001\342\302\216\252"
  64      C864B6CC 
  64      347C01E2 
  64      C28EAA
  65              		.text
  66              		.section	.gnu.lto_stStopAlarm.3368e4fbba7b50ab,"",%progbits
  67 0000 789C6362 		.ascii	"x\234cb`b@\007\222@|\024\210\303\201\230\221\231\201"
  67      60624007 
  67      92407C14 
  67      88C38198 
  67      919981
  68 0013 9169C239 		.ascii	"\221i\3029\006\206F\016&FF\020\203\201\221\241\236\211"
  68      0686460E 
  68      26464610 
  68      838191A1 
  68      9E89
  69 0025 B13E9211 		.ascii	"\261>\222\021\254v=\323\201\007\377\377\257\373\322"
  69      AC763DD3 
  69      8107FFFF 
  69      AFFBD2
  70 0034 36E70EE3 		.ascii	"6\347\016\343l&\026\240\010+CKC\303\004\005\006\206"
  70      6C2616A0 
  70      082B434B 
  70      43C30405 
  70      0686
  71 0046 64B08A10 		.ascii	"d\260\212\020 \011\322\026\312\310\004\242\231\3172"
  71      2009D216 
  71      CAC804A2 
  71      99CF32
  72 0055 1CDA71E7 		.ascii	"\034\332q\347\322\363G\254pu\020\306\201\356{\007Y\031"
  72      D2F347AC 
  72      707510C6 
  72      81EE7B07 
  72      5919
  73 0067 18121917 		.ascii	"\030\022\031\0272\262\002\265\202\365j3\254jhi|0u\357"
  73      32B202B5 
  73      82F56A33 
  73      AC6A6869 
  73      7C3075EF 
ARM GAS  /tmp/ccCT9eeg.s 			page 5


  74 007b 34F94C46 		.ascii	"4\371LF\206\331\014\263\032'4\010d22F0f225\000\001\013"
  74      86D90CB3 
  74      1A273408 
  74      64323246 
  74      30663232 
  75 0093 03980976 		.ascii	"\003\230\011vI\022HK\"\343b\240v\260(X\360\"C\343\207"
  75      4912484B 
  75      22E362A0 
  75      76B02858 
  75      F02243E3 
  76 00a8 4BDB5920 		.ascii	"K\333Y \246\302@\010\320t\240S@\332\344\365\364\364"
  76      A6C24008 
  76      D074A053 
  76      40DAE4F5 
  76      F4F4
  77 00ba 9D333293 		.ascii	"\23532\2232\375\203\365\363\213\3653\022s\364\213\213"
  77      32FD83F5 
  77      F38BF533 
  77      1273F48B 
  77      8B
  78 00cb 9241747C 		.ascii	"\222At|q\211^2\203)\246|A~QI\261~p\210\257\261\221\276"
  78      71895E32 
  78      8329A67C 
  78      417E5149 
  78      B17E7088 
  79 00e3 8F8F8B7E 		.ascii	"\217\217\213~\210\247o\231!TG|NN\212^\006\003\000\200"
  79      88A76F99 
  79      2154477C 
  79      4E4E8A5E 
  79      06030080 
  80 00f7 C953C8   		.ascii	"\311S\310"
  81              		.text
  82              		.section	.gnu.lto_stSetAlarm.3368e4fbba7b50ab,"",%progbits
  83 0000 789C6362 		.ascii	"x\234cb`b@\007\222@l\300\310\300\020\003\244\031\231"
  83      60624007 
  83      92406CC0 
  83      C8C01003 
  83      A41999
  84 0013 19189926 		.ascii	"\031\030\231&\234c`h\344`bd\0041\030\030\031\352\231"
  84      9C636068 
  84      E4606264 
  84      04311818 
  84      19EA99
  85 0026 18EB2319 		.ascii	"\030\353#\031\301j\3273\035x\360\377\377\272\015\355"
  85      C16AD733 
  85      1D78F0FF 
  85      FFBA0DED 
  86 0036 CBEE30CE 		.ascii	"\313\3560\316ebeb\314\005\213\2632\26444LP\310e\004"
  86      65626562 
  86      CC058BB3 
  86      32B43434 
  86      4C50C865 
  87 004b F292C122 		.ascii	"\362\222\301\"!@\022\244=\224\221\011D3\237dh\342``"
  87      214012A4 
  87      3D949109 
  87      44339F64 
  87      68E26060 
ARM GAS  /tmp/ccCT9eeg.s 			page 6


  88 005f 506258D8 		.ascii	"PbX\330\3200\351\300\306\366\323\214\015\223\032\032"
  88      D030E9C0 
  88      C6F6D38C 
  88      0D931A1A 
  89 006f 3FFCFFCF 		.ascii	"?\374\377\317\237\311\010t\222\022#H[\004c&#\243\002"
  89      9FC90874 
  89      92122348 
  89      5B046326 
  89      23A302
  90 0082 98626241 		.ascii	"\230bbAuc:\320\030\206\263\014\207N\377\271\374\265"
  90      75633AD0 
  90      1886B30C 
  90      874EFFB9 
  90      FCB5
  91 0094 891D6A1D 		.ascii	"\211\035j\035\314\336\003\335\3576\262&2.bT\002\252"
  91      CCDE03DD 
  91      EF36B226 
  91      322E6254 
  91      02AA
  92 00a6 4C645CC8 		.ascii	"Ld\\\310\310\0124\015\354\012]\2065\015-\215\017\346"
  92      C80A340D 
  92      EC0A5D86 
  92      350D2D8D 
  92      0FE6
  93 00b8 AF9DAE93 		.ascii	"\257\235\256\223\311\310\254\315\260\012\310k\260\317"
  93      C9C8ACCD 
  93      B00AC86B 
  93      B0CF
  94 00c6 646499CD 		.ascii	"dd\231\3150\253qB\203@&#+\3106\266\006 `\001[\314\006"
  94      30AB7142 
  94      83402623 
  94      2BC836B6 
  94      06206001 
  95 00dd B62E8911 		.ascii	"\266.\211\021l\322R\240I`Qv\210+\240\"`\307\\dh\374"
  95      6CD252A0 
  95      49605176 
  95      882BA022 
  95      60C75C64 
  96 00f3 7069370B 		.ascii	"pi7\013\304:\030\010\001Z\013\364-(\214\345\365\364"
  96      C43A1808 
  96      015A0BF4 
  96      2D288CE5 
  96      F5F4
  97 0105 F49D3332 		.ascii	"\364\23532\2232\375\203\365\363\213\3653\022s\364\213"
  97      9332FD83 
  97      F5F38BF5 
  97      331273F4 
  97      8B
  98 0116 8B924174 		.ascii	"\213\222At|q\211^2\003KIfn\252)\246\242\202\374\242"
  98      7C71895E 
  98      32034B49 
  98      666EAA29 
  98      A6A282FC 
  99 012b 9262FDE0 		.ascii	"\222b\375\340\020_c#}\037\037\027\375\020O\3372C\250"
  99      105F6323 
  99      7D1F1F17 
  99      FD104FDF 
ARM GAS  /tmp/ccCT9eeg.s 			page 7


  99      3243A8
 100 013e B6F89C9C 		.ascii	"\266\370\234\234\024\275\014\006\000\221?jM"
 100      14BD0C06 
 100      00913F6A 
 100      4D
 101              		.text
 102              		.section	.gnu.lto_stGetAlarm.3368e4fbba7b50ab,"",%progbits
 103 0000 789C6362 		.ascii	"x\234cb`b@\007\222@\374\014\210\303\201\230\221\231"
 103      60624007 
 103      9240FC0C 
 103      88C38198 
 103      9199
 104 0012 819169C2 		.ascii	"\201\221i\3029\006\206F\016&FF\020\203\201\221\241\236"
 104      39068646 
 104      0E264646 
 104      10838191 
 104      A19E
 105 0024 89B13E92 		.ascii	"\211\261>\222\021\254v=\323\201\007\377\377\257\373"
 105      11AC763D 
 105      D38107FF 
 105      FFAFFB
 106 0033 D03EEF0E 		.ascii	"\320>\357\016\343|&\026f\206L\2608+CKC\303\004\205\\"
 106      E37C2616 
 106      66864CB0 
 106      382B434B 
 106      43C30485 
 107 0048 1027192C 		.ascii	"\020'\031,\022\002$A\332C\031\231@4\363Y\206Cw\356\\"
 107      12022441 
 107      DA431999 
 107      4034F359 
 107      864377EE 
 108 005d FA6F0455 		.ascii	"\372o\004U\011\323r\240\363\037Pa\"\343BFV\240F\260"
 108      09D372A0 
 108      F31F5061 
 108      22E34246 
 108      56A046B0 
 109 0071 CE744666 		.ascii	"\316tFf]\2065\015-\215\017\246\376\235.\225\311\310"
 109      5D86350D 
 109      2D8D0FA6 
 109      FE9D2E95 
 109      C9C8
 110 0083 A8CDB00A 		.ascii	"\250\315\260\012\310k\230\314\230\311\3104\233aV\343"
 110      C86B98CC 
 110      98C9C834 
 110      9B6156E3 
 111 0093 8406814C 		.ascii	"\204\006\201LF\346\010 \227\245\001\010X\030\300L\260"
 111      46E60820 
 111      97A50108 
 111      5818C04C 
 111      B0
 112 00a4 F3924026 		.ascii	"\363\222@&$2.\006\232\006\026e\205\370\020*\302\300"
 112      24322E06 
 112      9A061665 
 112      85F8102A 
 112      C2C0
 113 00b6 7091A1F1 		.ascii	"p\221\241\361\303\241\375<\020\373\200\026A\244C\200"
 113      C3A1FD3C 
ARM GAS  /tmp/ccCT9eeg.s 			page 8


 113      10FB8016 
 113      41A44380 
 114 00c6 1603DD08 		.ascii	"\026\003\335\010\012\031y==}\347\214\314\244L\377`\375"
 114      0A19793D 
 114      3D7DE78C 
 114      CCA44CFF 
 114      60FD
 115 00d8 FC62FD8C 		.ascii	"\374b\375\214\304\034\375\342\242d\020\035_\\\242\227"
 115      C41CFDE2 
 115      A264101D 
 115      5F5CA297 
 116 00e8 CC608A29 		.ascii	"\314`\212)_\220_TR\254\037\034\342kl\244\357\343\343"
 116      5F905F54 
 116      52AC1F1C 
 116      E26B6CA4 
 116      EFE3E3
 117 00fb A21FE2E9 		.ascii	"\242\037\342\351[f\010\325\021\237\223\223\242\227\301"
 117      5B6608D5 
 117      119F9393 
 117      A297C1
 118 010a 0000A143 		.ascii	"\000\000\241CY\256"
 118      59AE
 119              		.text
 120              		.section	.gnu.lto_.symbol_nodes.3368e4fbba7b50ab,"",%progbits
 121 0000 789C4DC7 		.ascii	"x\234M\307\261\015\2000\020\004\301\3735\256\224B\316"
 121      B10D8030 
 121      1004C1FB 
 121      35AE9442 
 121      CE
 122 0011 12091118 		.ascii	"\022\011\021\030\223S\0225P\011\"\000\011O6\010\215"
 122      93531235 
 122      50092200 
 122      094F3608 
 122      8D
 123 0022 FAB060A9 		.ascii	"\372\260`\251\236\222}\314\301\212\243k\305t\335p\352"
 123      9E927DCC 
 123      C18AA36B 
 123      C574DD70 
 123      EA
 124 0033 DAF0F037 		.ascii	"\332\360\3607v\234\337\226\022IY\323u\207\036\331\367"
 124      769CDF96 
 124      124959D3 
 124      75871ED9 
 124      F7
 125 0044 1DC2     		.ascii	"\035\302"
 126              		.text
 127              		.section	.gnu.lto_.refs.3368e4fbba7b50ab,"",%progbits
 128 0000 789C6362 		.ascii	"x\234cb`b`d\200\002\000\000F\000\006"
 128      60626064 
 128      80020000 
 128      460006
 129              		.text
 130              		.section	.gnu.lto_.decls.3368e4fbba7b50ab,"",%progbits
 131 0000 789CBD58 		.ascii	"x\234\275X}l\024E\024\237\331\273\226\273\366(\005\025"
 131      7D6C1445 
 131      149FD9BB 
 131      96BBF628 
ARM GAS  /tmp/ccCT9eeg.s 			page 9


 131      0515
 132 0012 EB5F2D44 		.ascii	"\353_-D\210!i\217^A\340\037\004\257\204\222P \327\022"
 132      8821698F 
 132      5E41E01F 
 132      04AF8492 
 132      5020D712 
 133 0026 9BF8C73A 		.ascii	"\233\370\307:\275[\270K\332k\275\333j\370o\332RD\021"
 133      BD5BB84B 
 133      DA6BBDDB 
 133      6AF86FDA 
 133      524411
 134 0039 2DC59A8A 		.ascii	"-\305\232\212\204\226oHJ$\210\225\"\205\343\243\264"
 134      84966F48 
 134      4A248895 
 134      2285E3A3 
 134      B4
 135 004a 0912810A 		.ascii	"\011\022\201\012\012\365\343\224H5D)\021\371P\35093"
 135      0AF5E394 
 135      48354429 
 135      11F950E8 
 135      3933
 136 005c BB7BB7BB 		.ascii	"\273{\267\273\335-w$:\311{\235\233}\3577\277y\357\315"
 136      DD2D7724 
 136      3AC97B9D 
 136      9B7DEF37 
 136      BF79EFCD 
 137 0070 EE4C39C0 		.ascii	"\356L9\300\201\255\020\200\030i\323\237\002 \315\002"
 137      81AD1080 
 137      1869D39F 
 137      0220CD02 
 138 0080 403A0060 		.ascii	"@:\000`>H4\372{;\221=D\272\210t\023\351!r\022\214n\324"
 138      3E4834FA 
 138      7B3B913D 
 138      44BA8874 
 138      13E92172 
 139 0098 8E23729A 		.ascii	"\216#r\232\310\016y\214\223\307\215\354)\246\215\310"
 139      C80E798C 
 139      93C78DEC 
 139      29A68DC8 
 140 00a8 7E225944 		.ascii	"~\"YD\034D\316\020\351%\322O\344>\021+\021B\013\014"
 140      1C44CE10 
 140      E925D24F 
 140      E43E112B 
 140      11420B0C 
 141 00bc 11B94C64 		.ascii	"\021\271Ld@\306\244\276\017\344\376\247DFt\330]\262"
 141      40C6A4BE 
 141      0FE4FEA7 
 141      444674D8 
 141      5DB2
 142 00ce DF191516 		.ascii	"\337\031\025\026T\371\323\34768\232Sw\222\234\240\314"
 142      54F9D3E7 
 142      36389A53 
 142      77929CA0 
 142      CC
 143 00df 89937D32 		.ascii	"\211\223}2\241\324\377\202\310\004\035.\215W\272\214"
 143      A1D4FF82 
 143      C8041D2E 
ARM GAS  /tmp/ccCT9eeg.s 			page 10


 143      8D57BA8C 
 144 00ef F9382C6A 		.ascii	"\3718,j\3734\224\306\236\325\341\344\202m\270#\032m"
 144      FB3494C6 
 144      9ED5E1E4 
 144      826DB823 
 144      1A6D
 145 0101 6A3F0771 		.ascii	"j?\007q\013~\030\213Y\300d\320\212I\353X\2071\024\021"
 145      0B7E188B 
 145      59C064D0 
 145      8A49EB58 
 145      87311411 
 146 0115 9CFF0CA8 		.ascii	"\234\377\014\250\200\010f\331A\036\3538\354l\002\000"
 146      800866D9 
 146      411EEB38 
 146      EC6C0200 
 147 0125 10DC0127 		.ascii	"\020\334\001'\313\275\225\026\011\216\003S!\230\001"
 147      CBBD9516 
 147      098E0353 
 147      219801
 148 0134 F613FF66 		.ascii	"\366\023\377f\214wL\036\035\014\322\246\203\335t\002"
 148      8C774C1E 
 148      1D0CD2A6 
 148      83DD7402 
 149 0144 BC0F5B18 		.ascii	"\274\017[\030<\005\330\016s\325&\010\356\204\234\236"
 149      3C05D80E 
 149      73D52608 
 149      EE849C9E 
 150 0154 67743872 		.ascii	"gt8r\344\254\243\271>\032\213\345&Or\257L\322\302b\001"
 150      E4ACA3B9 
 150      3E1A8BE5 
 150      264F72AF 
 150      4CD2C262 
 151 0169 EC603DC6 		.ascii	"\354`=\306\015\324\261\244\237$\303\310k\032\330E\350"
 151      0DD4B1A4 
 151      9F24C3C8 
 151      6B1AD845 
 151      E8
 152 017a 472F1E18 		.ascii	"G/\036\030\3400\266!\270\037\332\211\357+\220\200\355"
 152      E030B621 
 152      B81FDA89 
 152      EF2B9080 
 152      ED
 153 018b 82336442 		.ascii	"\2023dB\311\343l~\253\367$l <\021\354dH\227\341\223"
 153      C9E36C7E 
 153      ABF7246C 
 153      203C11EC 
 153      644897E1 
 154 01a0 423D7AEF 		.ascii	"B=z\357\330<F\351\023\006t\235\323\002!8\316\256\215"
 154      D83C46E9 
 154      1306749D 
 154      D3022138 
 154      CEAE8D
 155 01b3 22F9AD18 		.ascii	"\"\371\255\030P4\366X\356\320\035:\001\374\307\346\211"
 155      5034F658 
 155      EED01D3A 
 155      01FCC7E6 
 155      89
ARM GAS  /tmp/ccCT9eeg.s 			page 11


 156 01c4 CA60C5F1 		.ascii	"\312`\305\361\207\216\360\363`'\306-\321\246\241_-\037"
 156      878EF0F3 
 156      6027C62D 
 156      D1A6A15F 
 156      2D1F
 157 01d6 E1885509 		.ascii	"\341\210U\011\365?\314l\017)\011\243XHV\211:\332\210"
 157      F53FCC6C 
 157      0F2909A3 
 157      58485689 
 157      3ADA88
 158 01e9 9BB261BC 		.ascii	"\233\262a\274\220\366\350\013\351\220a!\335Q\012I\252"
 158      90F6E80B 
 158      E9906121 
 158      DD510A49 
 158      AA
 159 01fa 620E345A 		.ascii	"b\0164Z\264\324\214\313\264K\217\376\271!\372\301\276"
 159      B4D48CCB 
 159      B44B8FFE 
 159      B921FAC1 
 159      BE
 160 020b 38FA5E86 		.ascii	"8\372^\206\376\276\305h\341\370\236\257DZ\015\202\207"
 160      FEBEC568 
 160      E1F89EAF 
 160      445A0D82 
 160      87
 161 021c 091082DD 		.ascii	"\011\020\202\335O\264\346n=\253\243\206\254n\367m|\016"
 161      4FB4E66E 
 161      3DABA386 
 161      AC6EF76D 
 161      7C0E
 162 022e 77344462 		.ascii	"w4Db\261\227\364\233\234\242\233m\240\343\006\273|\213"
 162      B197F49B 
 162      9CA29B6D 
 162      A0E306BB 
 162      7C8B
 163 0240 71B41AF0 		.ascii	"q\264\032\360\241}\330\256\220E\260\307d92\336\011\003"
 163      A17DD8AE 
 163      9045B0C7 
 163      643932DE 
 163      0903
 164 0252 9ACDD18F 		.ascii	"\232\315\321\217\007\037\325\303M\215\035\375x\230\326"
 164      071FD5C3 
 164      4D8D1DFD 
 164      7898D6
 165 0261 9092A0C1 		.ascii	"\220\222\240\301QSJ \247\264 \231\340\235\304f\222|"
 165      51534A20 
 165      A7B42099 
 165      E09DC466 
 165      927C
 166 0273 CD16761A 		.ascii	"\315\026v\032f\252\021\3316l\034s\033\"x\000NK\252\360"
 166      66AA11D9 
 166      366C1C73 
 166      1B227800 
 166      4E4BAAF0 
 167 0287 2782661A 		.ascii	"'\202f\032\337<\312\341L\"\270\030*p\331lN\265Y\247"
 167      DF3CCAE1 
 167      4C22B818 
ARM GAS  /tmp/ccCT9eeg.s 			page 12


 167      2A70D96C 
 167      4EB559A7 
 168 029b B9198267 		.ascii	"\271\031\202g\341\304\004I\034_\236\303<m}R\301(\303"
 168      E1C40449 
 168      1C5F9EC3 
 168      3C6D7D52 
 168      C128C3
 169 02ae F14E623F 		.ascii	"\361Nb?\252\255\300$\260If\022_:NW|^\003\361WP{\373"
 169      AAADC024 
 169      B0496612 
 169      5F3A4E57 
 169      7C5E03F1 
 170 02c6 BD17D92B 		.ascii	"\275\027\331+\250\037N\242\337z\2536+\217\205\241\223"
 170      A81F4EA2 
 170      DF7AAB36 
 170      2B8F85A1 
 170      93
 171 02d7 9E23AE92 		.ascii	"\236#\256\222\023\003\305\221\315\203\016l\225\306\201"
 171      1303C591 
 171      CD830E6C 
 171      95C681
 172 02e6 4192E536 		.ascii	"A\222\3456\005t\340\265\215\221\326\301\255\244\214"
 172      0574E0B5 
 172      8D91D6C1 
 172      ADA48C
 173 02f5 4F4129B0 		.ascii	"OA)\260\034\330\307(P_\243P\304\227\257\304\"\313\256"
 173      1CD8C728 
 173      505FA350 
 173      C497AFC4 
 173      22CBAE
 174 0308 C3FB70D0 		.ascii	"\303\373p\320\321\214\024\260\316\224\301\3624`mj\260"
 174      D18C14B0 
 174      CE94C1F2 
 174      34606D6A 
 174      B0
 175 0319 83C980D9 		.ascii	"\203\311\200\331\314\231mQ\203}\2262\230\226\331V5\330"
 175      CC996D51 
 175      837D9632 
 175      9896D956 
 175      35D8
 176 032b D164C0B2 		.ascii	"\321d\300\262\315\231mS\203\365\244\014\246evP\015v"
 176      CD996D53 
 176      83F5A40C 
 176      A6657650 
 176      0D76
 177 033d 3219B01C 		.ascii	"2\031\260\034sf\207\324`})\203i\231\035V\203\235O\006"
 177      736687D4 
 177      607D2983 
 177      69991D56 
 177      839D4F06 
 178 0351 2CCF9C59 		.ascii	",\317\234Y\227\032\354R\312`ZfG\324`W\222\001{\301\234"
 178      971AEC52 
 178      CA605A66 
 178      47D46057 
 178      92017BC1 
 179 0366 D95135D8 		.ascii	"\331Q5\330\265\224\301\264\314\216\251\301~H\006l\246"
 179      B594C1B4 
ARM GAS  /tmp/ccCT9eeg.s 			page 13


 179      CC8EA9C1 
 179      7E48066C 
 179      A6
 180 0377 19B3FAC8 		.ascii	"\031\263\372\310\361W)V/y\371q\340g=\226\366-i\004\246"
 180      F1572956 
 180      2F79F971 
 180      E0673D96 
 180      F62D6904 
 181 038c 657641CD 		.ascii	"evA\315\354F2\314\026\230\203]R\203\335L\006\254\304"
 181      EC4632CC 
 181      1698835D 
 181      5283DD4C 
 181      06ACC4
 182 039f 3C015FAB 		.ascii	"<\001_\253\301n\245\014\246evE\015v'\031\260\025\346"
 182      C16EA50C 
 182      A6657645 
 182      0D762719 
 182      B015E6
 183 03b2 CCBE5583 		.ascii	"\314\276U\203\335K\031L\315\254>r\215dS\376\342u,\320"
 183      DD4B194C 
 183      CDAC3E72 
 183      8D6453FE 
 183      E2752CD0 
 184 03c6 7D191768 		.ascii	"}\031\027h_a\032\263NS3\004\377J\371\303x\327\344\303"
 184      5F611AB3 
 184      4E533304 
 184      FF4AF9C3 
 184      78D7E4C3 
 185 03da A8BE1925 		.ascii	"\250\276\031%\254\310\262\037\351\227\255!!w+\014bh"
 185      ACC8B21F 
 185      E997AD21 
 185      21772B0C 
 185      6268
 186 03ec D4D45F3F 		.ascii	"\324\324_?\004\277d\307\211\363p\012\321_1}\221\351"
 186      04BF64C7 
 186      89F3700A 
 186      D15F317D 
 186      91E9
 187 03fe 01A62F33 		.ascii	"\001\246/3\375\015\323W\231\036d\372{\246\177d\372'"
 187      FD0DD357 
 187      991E64FA 
 187      7BA67F64 
 187      FA27
 188 0410 A6AF33FD 		.ascii	"\246\2573\375\013\323CL\377\306\364M\246\177g\372\026"
 188      0BD3434C 
 188      FFC6F44D 
 188      A67F67FA 
 188      16
 189 0421 D3B799FE 		.ascii	"\323\267\231\376\223\350x\323\035\231\372M\362K\271"
 189      93E878D3 
 189      1D99FA4D 
 189      F24BB9
 190 0430 DF274726 		.ascii	"\337'G&\271\321\323Zd\230\234\326\276;\005[\032\261"
 190      B9D1D35A 
 190      64989CD6 
 190      BE3B055B 
 190      1AB1
ARM GAS  /tmp/ccCT9eeg.s 			page 14


 191 0442 745AEBB0 		.ascii	"tZ\353\260)'\336\2064\303\023\357\200P\242\234\362["
 191      2927DE86 
 191      34C313EF 
 191      8050A29C 
 191      F25B
 192 0454 99C58324 		.ascii	"\231\305\203$O\274W\361\212\234\370\201\367\201\376"
 192      4FBC57F1 
 192      8A9CF881 
 192      F781FE
 193 0463 C0FBB7F6 		.ascii	"\300\373\267\366\0208\025l\307\027.D{\207\332\340\372"
 193      1038156C 
 193      C7172E44 
 193      7B87DAE0 
 193      FA
 194 0474 28B9898E 		.ascii	"(\271\211\216\304bP9j\265e\311\367\255\350\356HN[\342"
 194      C4625039 
 194      6AB565C9 
 194      F7ADE8EE 
 194      484E5BE2 
 195 0488 986253D7 		.ascii	"\230bS\327\201t.!\016\\\334\030\347\344\030\333\"X\317"
 195      81742E21 
 195      0E5CDC18 
 195      E7E418DB 
 195      2258CF
 196 049b D12C3670 		.ascii	"\321,6p\211\272\222\372J/\306.\362[\322\014\3767 \321"
 196      89BA92FA 
 196      4A2FC62E 
 196      F25BD20C 
 196      FE3720D1 
 197 04af 1FDB559E 		.ascii	"\037\333U\236\324\257L:\236\331&\326#Y\032[!\270\226"
 197      D4AF4C3A 
 197      9ED926D6 
 197      23591A5B 
 197      21B896
 198 04c2 4B758334 		.ascii	"Ku\2034q\306\033\304\241\341\254X\221\225\265\247\351"
 198      71C61BC4 
 198      A1E1AC58 
 198      9195B5A7 
 198      E9
 199 04d3 EE6B3A12 		.ascii	"\356k:\022\344\214&\257\035\301\014\250*\235\033\272"
 199      E48C26AF 
 199      1DC10CA8 
 199      2A9D1BBA 
 200 04e3 D2914EFA 		.ascii	"\322\221N\372]\272\3221\276\212\255\347t5\36067\352"
 200      5DBAD231 
 200      BE8AADE7 
 200      7435F036 
 200      37EA
 201 04f5 3611198E 		.ascii	"6\021\031\216\\:']\305\332#\331Ji\366\033\227\346\011"
 201      5C3A275D 
 201      C5DA23D9 
 201      4A69F61B 
 201      97E609
 202 0508 217E197B 		.ascii	"!~\031{\310.c\033\270'(\315\015zZ\357r\206\245y\327"
 202      C82E631B 
 202      B82728CD 
 202      0D7A5AEF 
ARM GAS  /tmp/ccCT9eeg.s 			page 15


 202      7286A579 
 203 051d B03411C4 		.ascii	"\2604\021\304\211TV(\223f\216\225p\235\025\202\233R"
 203      89545628 
 203      93668E95 
 203      709D1582 
 203      9B52
 204 052f 4E788B49 		.ascii	"Nx\213I\30234\013Q\254Hw\035\247\273\254\352Hp\340\252"
 204      C233340B 
 204      51AC4877 
 204      1DA7BBAC 
 204      EA4870E0 
 205 0544 71C2475A 		.ascii	"q\302GZ\340fu\302\217\263\204\014\031'\\\177\233\374"
 205      E06675C2 
 205      8FB3840C 
 205      19275C7F 
 205      9BFC
 206 0556 C0241FF2 		.ascii	"\300$\037\362D\255\306\201\036Q\005\032\301f\022\034"
 206      44ADC681 
 206      1E51051A 
 206      C166121C 
 207 0566 857FCF18 		.ascii	"\205\177\317\030\374\357k\370\203\334\202\002\247\333"
 207      FCEF6BF8 
 207      83DC8202 
 207      A7DB
 208 0574 1FA80C2C 		.ascii	"\037\250\014,/s\326\204\235~T\345\014\207\274\364/\037"
 208      2F73D684 
 208      9D7E54E5 
 208      0C87BCF4 
 208      2F1F
 209 0586 160BBC20 		.ascii	"\026\013\274 =,.\011\006\304\364\305\313V\346\271\301"
 209      3D2C2E09 
 209      06C4F4C5 
 209      CB56E6B9 
 209      C1
 210 0597 74AD7548 		.ascii	"t\255uHt\006\202\336\252:\237\340\364\372\303k\302\342"
 210      740682DE 
 210      AA3A9FE0 
 210      F4FAC36B 
 210      C2E2
 211 05a9 9A5A215C 		.ascii	"\232Z!\\\340\007v\332\017T\013\274\030v\006W1\231\355"
 211      E00776DA 
 211      0F540BBC 
 211      18760657 
 211      3199ED
 212 05bc F4D7540B 		.ascii	"\364\327T\013\316\220\020\026P\310\353'\023\204|o\242"
 212      CE901016 
 212      50C8EB27 
 212      13847C6F 
 212      A2
 213 05cd 90E044A1 		.ascii	"\220\340D\241j\227s\265\327\233O:\371Bu\245\340\363"
 213      6A9773B5 
 213      D79B4F3A 
 213      F94275A5 
 213      E0F3
 214 05df 09BEF840 		.ascii	"\011\276\370@\260&(\344\013\2502\220?\213\237\233\357"
 214      B02628E4 
 214      0BA83290 
ARM GAS  /tmp/ccCT9eeg.s 			page 16


 214      3F8B9F9B 
 214      EF
 215 05f0 9A5938EB 		.ascii	"\232Y8\353u\227S\363 \316 ,\372\002A\221\314n\253#\177"
 215      759753F3 
 215      20CE202C 
 215      FA024191 
 215      CC6EAB23 
 216 0605 8B5CBCD8 		.ascii	"\213\\\274\330\010\377\277\331\253\221\327\037\010\012"
 216      08FFBFD9 
 216      AB91D71F 
 216      080A
 217 0613 4EDE27AC 		.ascii	"N\336'\254BuU\"\257\304\"\203\347\025>\216\260X&\242"
 217      42755522 
 217      AFC42283 
 217      E7153E8E 
 217      B05826A2 
 218 0627 90B8B08A 		.ascii	"\220\270\260\212`\214C\225,F\231t\260\246\226\215e\220"
 218      608C4395 
 218      2C469974 
 218      B0A6968D 
 218      6590
 219 0639 BE202ADD 		.ascii	"\276 *\335\305rw\366\350\024\325\326\204Hh\313\312K"
 219      C57277F6 
 219      E814D5D6 
 219      844868CB 
 219      CA4B
 220 064b 8B5CCEA5 		.ascii	"\213\\\316\245K\213\235\345KJ\337(\224\223\306WU\371"
 220      4B8B9DE5 
 220      4B4ADF28 
 220      9493C657 
 220      55F9
 221 065d C8BC9952 		.ascii	"\310\274\231R\217\017\220\354\315J\026!,VS\242\201j"
 221      8F0F90EC 
 221      CD4A1621 
 221      2C5653A2 
 221      816A
 222 066f 0940FEC1 		.ascii	"\011@\376\301\213\026\267\247\220\210\313ZV\352\366"
 222      8B16B7A7 
 222      9088CB5A 
 222      56EAF6
 223 067e 588B972C 		.ascii	"X\213\227,\362pe\036\313\242\305\2364\267\273\324S\310"
 223      F270651E 
 223      CBA2C59E 
 223      34B7BBD4 
 223      53C8
 224 0690 B4CBEA76 		.ascii	"\264\313\352v/\362X\334\313\312-+\312\334\226\205\036"
 224      2FF258DC 
 224      CBCA2D2B 
 224      CADC9685 
 224      1E
 225 06a1 8FC5E326 		.ascii	"\217\305\343&\277\211\303\313\305\345\036K1\365,]\350"
 225      BF89C3CB 
 225      C5E51E4B 
 225      31F52C5D 
 225      E8
 226 06b2 E1964B5E 		.ascii	"\341\226K^E\304\276\3023I\246\031\246\201\341\021]\257"
 226      45C4BEC2 
ARM GAS  /tmp/ccCT9eeg.s 			page 17


 226      3349A619 
 226      A681E111 
 226      5DAF
 227 06c4 9586C5EA 		.ascii	"\225\206\305\352%9\262\361\374\252\272\240\227\347\307"
 227      2539B2F1 
 227      FCAABAA0 
 227      97E7C7
 228 06d3 2B9D8239 		.ascii	"+\235\20293\347\270&\306}jj%\227leD\22014\016\363\224"
 228      33E7B826 
 228      C67D6A6A 
 228      25976C65 
 228      44903134 
 229 06ea C7AB8D1E 		.ascii	"\307\253\215\036\317-\372\027D\336\254\251"
 229      CF2DFA17 
 229      44DEACA9 
 230              		.text
 231              		.section	.gnu.lto_.symtab.3368e4fbba7b50ab,"",%progbits
 232 0000 7374496E 		.ascii	"stInit\000\000\000\000\000\000\000\000\000\000\000\000"
 232      69740000 
 232      00000000 
 232      00000000 
 232      0000
 233 0012 A1000000 		.ascii	"\241\000\000\000stStartAlarm\000\000\000\000\000\000"
 233      73745374 
 233      61727441 
 233      6C61726D 
 233      00000000 
 234 0028 00000000 		.ascii	"\000\000\000\000\000\000\246\000\000\000stStopAlarm"
 234      0000A600 
 234      00007374 
 234      53746F70 
 234      416C6172 
 235 003d 00000000 		.ascii	"\000\000\000\000\000\000\000\000\000\000\000\000\266"
 235      00000000 
 235      00000000 
 235      B6
 236 004a 00000073 		.ascii	"\000\000\000stSetAlarm\000\000\000\000\000\000\000\000"
 236      74536574 
 236      416C6172 
 236      6D000000 
 236      00000000 
 237 005f 00000000 		.ascii	"\000\000\000\000\271\000\000\000stGetAlarm\000\000\000"
 237      B9000000 
 237      73744765 
 237      74416C61 
 237      726D0000 
 238 0074 00000000 		.ascii	"\000\000\000\000\000\000\000\000\000\275\000\000\000"
 238      00000000 
 238      00BD0000 
 238      00
 239 0081 73745F6C 		.ascii	"st_lld_init\000\000\002\000\000\000\000\000\000\000"
 239      6C645F69 
 239      6E697400 
 239      00020000 
 239      00000000 
 240 0096 0000C100 		.ascii	"\000\000\301\000\000\000"
 240      0000
ARM GAS  /tmp/ccCT9eeg.s 			page 18


 241              		.text
 242              		.section	.gnu.lto_.opts,"",%progbits
 243 0000 272D6D63 		.ascii	"'-mcpu=cortex-m4' '-mno-thumb-interwork' '-mthumb' "
 243      70753D63 
 243      6F727465 
 243      782D6D34 
 243      2720272D 
 244 0033 272D6767 		.ascii	"'-ggdb' '-O2' '-fomit-frame-pointer' '-falign-funct"
 244      64622720 
 244      272D4F32 
 244      2720272D 
 244      666F6D69 
 245 0066 696F6E73 		.ascii	"ions=16' '-ffunction-sections' '-fdata-sections' '-"
 245      3D313627 
 245      20272D66 
 245      66756E63 
 245      74696F6E 
 246 0099 666E6F2D 		.ascii	"fno-common' '-flto'\000"
 246      636F6D6D 
 246      6F6E2720 
 246      272D666C 
 246      746F2700 
 247              		.text
 248              		.cfi_sections	.debug_frame
 249              		.section	.text.stInit,"ax",%progbits
 250              		.align	2
 251              		.p2align 4,,15
 252              		.global	stInit
 253              		.thumb
 254              		.thumb_func
 255              		.type	stInit, %function
 256              	stInit:
 257              	.LFB270:
 258              		.file 1 "../ChibiOS/os/hal/src/hal_st.c"
 259              		.loc 1 60 0
 260              		.cfi_startproc
 261              		@ args = 0, pretend = 0, frame = 0
 262              		@ frame_needed = 0, uses_anonymous_args = 0
 263              		@ link register save eliminated.
 264              		.loc 1 62 0
 265 0000 FFF7FEBF 		b	st_lld_init
 266              	.LVL0:
 267              		.cfi_endproc
 268              	.LFE270:
 269              		.size	stInit, .-stInit
 270 0004 AFF30080 		.section	.text.stStartAlarm,"ax",%progbits
 270      AFF30080 
 270      AFF30080 
 271              		.align	2
 272              		.p2align 4,,15
 273              		.global	stStartAlarm
 274              		.thumb
 275              		.thumb_func
 276              		.type	stStartAlarm, %function
 277              	stStartAlarm:
 278              	.LFB271:
 279              		.loc 1 76 0
ARM GAS  /tmp/ccCT9eeg.s 			page 19


 280              		.cfi_startproc
 281              		@ args = 0, pretend = 0, frame = 0
 282              		@ frame_needed = 0, uses_anonymous_args = 0
 283              		@ link register save eliminated.
 284              	.LVL1:
 285              	.LBB10:
 286              	.LBB11:
 287              		.file 2 "../ChibiOS/os/hal/ports/STM32/LLD/TIMv1/hal_st_lld.h"
 288              		.loc 2 155 0
 289 0000 4FF08043 		mov	r3, #1073741824
 290              	.LVL2:
 291              		.loc 2 156 0
 292 0004 0021     		movs	r1, #0
 293              		.loc 2 157 0
 294 0006 0222     		movs	r2, #2
 295              		.loc 2 155 0
 296 0008 5863     		str	r0, [r3, #52]
 297              		.loc 2 156 0
 298 000a 1961     		str	r1, [r3, #16]
 299              		.loc 2 157 0
 300 000c DA60     		str	r2, [r3, #12]
 301 000e 7047     		bx	lr
 302              	.LBE11:
 303              	.LBE10:
 304              		.cfi_endproc
 305              	.LFE271:
 306              		.size	stStartAlarm, .-stStartAlarm
 307              		.section	.text.stStopAlarm,"ax",%progbits
 308              		.align	2
 309              		.p2align 4,,15
 310              		.global	stStopAlarm
 311              		.thumb
 312              		.thumb_func
 313              		.type	stStopAlarm, %function
 314              	stStopAlarm:
 315              	.LFB272:
 316              		.loc 1 90 0
 317              		.cfi_startproc
 318              		@ args = 0, pretend = 0, frame = 0
 319              		@ frame_needed = 0, uses_anonymous_args = 0
 320              		@ link register save eliminated.
 321              	.LBB12:
 322              	.LBB13:
 323              		.loc 2 167 0
 324 0000 4FF08043 		mov	r3, #1073741824
 325 0004 0022     		movs	r2, #0
 326 0006 DA60     		str	r2, [r3, #12]
 327 0008 7047     		bx	lr
 328              	.LBE13:
 329              	.LBE12:
 330              		.cfi_endproc
 331              	.LFE272:
 332              		.size	stStopAlarm, .-stStopAlarm
 333 000a 00BFAFF3 		.section	.text.stSetAlarm,"ax",%progbits
 333      0080
 334              		.align	2
 335              		.p2align 4,,15
ARM GAS  /tmp/ccCT9eeg.s 			page 20


 336              		.global	stSetAlarm
 337              		.thumb
 338              		.thumb_func
 339              		.type	stSetAlarm, %function
 340              	stSetAlarm:
 341              	.LFB273:
 342              		.loc 1 104 0
 343              		.cfi_startproc
 344              		@ args = 0, pretend = 0, frame = 0
 345              		@ frame_needed = 0, uses_anonymous_args = 0
 346              		@ link register save eliminated.
 347              	.LVL3:
 348              	.LBB14:
 349              	.LBB15:
 350              		.loc 2 179 0
 351 0000 4FF08043 		mov	r3, #1073741824
 352              	.LVL4:
 353 0004 5863     		str	r0, [r3, #52]
 354 0006 7047     		bx	lr
 355              	.LBE15:
 356              	.LBE14:
 357              		.cfi_endproc
 358              	.LFE273:
 359              		.size	stSetAlarm, .-stSetAlarm
 360 0008 AFF30080 		.section	.text.stGetAlarm,"ax",%progbits
 360      AFF30080 
 361              		.align	2
 362              		.p2align 4,,15
 363              		.global	stGetAlarm
 364              		.thumb
 365              		.thumb_func
 366              		.type	stGetAlarm, %function
 367              	stGetAlarm:
 368              	.LFB274:
 369              		.loc 1 120 0
 370              		.cfi_startproc
 371              		@ args = 0, pretend = 0, frame = 0
 372              		@ frame_needed = 0, uses_anonymous_args = 0
 373              		@ link register save eliminated.
 374              	.LBB16:
 375              	.LBB17:
 376              		.loc 2 191 0
 377 0000 4FF08043 		mov	r3, #1073741824
 378 0004 586B     		ldr	r0, [r3, #52]
 379              	.LBE17:
 380              	.LBE16:
 381              		.loc 1 125 0
 382 0006 7047     		bx	lr
 383              		.cfi_endproc
 384              	.LFE274:
 385              		.size	stGetAlarm, .-stGetAlarm
 386 0008 AFF30080 		.text
 386      AFF30080 
 387              	.Letext0:
 388              		.file 3 "/nfs/nfs5/home/research/hardware/arm2/gcc-arm-embedded/gcc-arm-none-eabi-4_8-2014q2/arm-n
 389              		.file 4 "/nfs/nfs5/home/research/hardware/arm2/gcc-arm-embedded/gcc-arm-none-eabi-4_8-2014q2/arm-n
 390              		.file 5 "../ChibiOS/os/common/ports/ARMCMx/compilers/GCC/chtypes.h"
ARM GAS  /tmp/ccCT9eeg.s 			page 21


 391              		.file 6 "../ChibiOS/os/rt/include/chsystypes.h"
 392              		.file 7 "../ChibiOS/os/rt/include/chschd.h"
 393              		.file 8 "../ChibiOS/os/common/ports/ARMCMx/chcore.h"
 394              		.file 9 "../ChibiOS/os/common/ports/ARMCMx/chcore_v7m.h"
 395              		.file 10 "../ChibiOS/os/hal/ports/STM32/LLD/TIMv1/stm32_tim.h"
 396              		.file 11 "../ChibiOS/os/rt/include/chtm.h"
 397              		.file 12 "../ChibiOS/os/rt/include/chsem.h"
 398              		.file 13 "../ChibiOS/os/rt/include/chmtx.h"
 399              		.file 14 "../ChibiOS/os/common/ext/CMSIS/include/core_cm4.h"
 400              		.section	.debug_info,"",%progbits
 401              	.Ldebug_info0:
 402 0000 D2080000 		.4byte	0x8d2
 403 0004 0400     		.2byte	0x4
 404 0006 00000000 		.4byte	.Ldebug_abbrev0
 405 000a 04       		.byte	0x4
 406 000b 01       		.uleb128 0x1
 407 000c A0040000 		.4byte	.LASF112
 408 0010 01       		.byte	0x1
 409 0011 98010000 		.4byte	.LASF113
 410 0015 DC020000 		.4byte	.LASF114
 411 0019 00000000 		.4byte	.Ldebug_ranges0+0
 412 001d 00000000 		.4byte	0
 413 0021 00000000 		.4byte	.Ldebug_line0
 414 0025 02       		.uleb128 0x2
 415 0026 04       		.byte	0x4
 416 0027 05       		.byte	0x5
 417 0028 696E7400 		.ascii	"int\000"
 418 002c 03       		.uleb128 0x3
 419 002d 04       		.byte	0x4
 420 002e 07       		.byte	0x7
 421 002f 72010000 		.4byte	.LASF0
 422 0033 03       		.uleb128 0x3
 423 0034 01       		.byte	0x1
 424 0035 06       		.byte	0x6
 425 0036 E7000000 		.4byte	.LASF1
 426 003a 04       		.uleb128 0x4
 427 003b 33000000 		.4byte	.LASF5
 428 003f 03       		.byte	0x3
 429 0040 1C       		.byte	0x1c
 430 0041 45000000 		.4byte	0x45
 431 0045 03       		.uleb128 0x3
 432 0046 01       		.byte	0x1
 433 0047 08       		.byte	0x8
 434 0048 28030000 		.4byte	.LASF2
 435 004c 03       		.uleb128 0x3
 436 004d 02       		.byte	0x2
 437 004e 05       		.byte	0x5
 438 004f 44030000 		.4byte	.LASF3
 439 0053 03       		.uleb128 0x3
 440 0054 02       		.byte	0x2
 441 0055 07       		.byte	0x7
 442 0056 35040000 		.4byte	.LASF4
 443 005a 04       		.uleb128 0x4
 444 005b 12020000 		.4byte	.LASF6
 445 005f 03       		.byte	0x3
 446 0060 37       		.byte	0x37
 447 0061 65000000 		.4byte	0x65
ARM GAS  /tmp/ccCT9eeg.s 			page 22


 448 0065 03       		.uleb128 0x3
 449 0066 04       		.byte	0x4
 450 0067 05       		.byte	0x5
 451 0068 09010000 		.4byte	.LASF7
 452 006c 04       		.uleb128 0x4
 453 006d 41010000 		.4byte	.LASF8
 454 0071 03       		.byte	0x3
 455 0072 38       		.byte	0x38
 456 0073 77000000 		.4byte	0x77
 457 0077 03       		.uleb128 0x3
 458 0078 04       		.byte	0x4
 459 0079 07       		.byte	0x7
 460 007a 86010000 		.4byte	.LASF9
 461 007e 03       		.uleb128 0x3
 462 007f 08       		.byte	0x8
 463 0080 05       		.byte	0x5
 464 0081 2D010000 		.4byte	.LASF10
 465 0085 04       		.uleb128 0x4
 466 0086 AC020000 		.4byte	.LASF11
 467 008a 03       		.byte	0x3
 468 008b 4E       		.byte	0x4e
 469 008c 90000000 		.4byte	0x90
 470 0090 03       		.uleb128 0x3
 471 0091 08       		.byte	0x8
 472 0092 07       		.byte	0x7
 473 0093 5D000000 		.4byte	.LASF12
 474 0097 04       		.uleb128 0x4
 475 0098 68030000 		.4byte	.LASF13
 476 009c 04       		.byte	0x4
 477 009d 2A       		.byte	0x2a
 478 009e 3A000000 		.4byte	0x3a
 479 00a2 04       		.uleb128 0x4
 480 00a3 20030000 		.4byte	.LASF14
 481 00a7 04       		.byte	0x4
 482 00a8 41       		.byte	0x41
 483 00a9 5A000000 		.4byte	0x5a
 484 00ad 04       		.uleb128 0x4
 485 00ae A4030000 		.4byte	.LASF15
 486 00b2 04       		.byte	0x4
 487 00b3 42       		.byte	0x42
 488 00b4 6C000000 		.4byte	0x6c
 489 00b8 04       		.uleb128 0x4
 490 00b9 2A000000 		.4byte	.LASF16
 491 00bd 04       		.byte	0x4
 492 00be 4E       		.byte	0x4e
 493 00bf 85000000 		.4byte	0x85
 494 00c3 04       		.uleb128 0x4
 495 00c4 48040000 		.4byte	.LASF17
 496 00c8 05       		.byte	0x5
 497 00c9 39       		.byte	0x39
 498 00ca AD000000 		.4byte	0xad
 499 00ce 04       		.uleb128 0x4
 500 00cf 12010000 		.4byte	.LASF18
 501 00d3 05       		.byte	0x5
 502 00d4 3C       		.byte	0x3c
 503 00d5 97000000 		.4byte	0x97
 504 00d9 04       		.uleb128 0x4
ARM GAS  /tmp/ccCT9eeg.s 			page 23


 505 00da 1A010000 		.4byte	.LASF19
 506 00de 05       		.byte	0x5
 507 00df 3D       		.byte	0x3d
 508 00e0 97000000 		.4byte	0x97
 509 00e4 04       		.uleb128 0x4
 510 00e5 B7020000 		.4byte	.LASF20
 511 00e9 05       		.byte	0x5
 512 00ea 3E       		.byte	0x3e
 513 00eb 97000000 		.4byte	0x97
 514 00ef 04       		.uleb128 0x4
 515 00f0 D4020000 		.4byte	.LASF21
 516 00f4 05       		.byte	0x5
 517 00f5 40       		.byte	0x40
 518 00f6 AD000000 		.4byte	0xad
 519 00fa 04       		.uleb128 0x4
 520 00fb D1010000 		.4byte	.LASF22
 521 00ff 05       		.byte	0x5
 522 0100 41       		.byte	0x41
 523 0101 A2000000 		.4byte	0xa2
 524 0105 04       		.uleb128 0x4
 525 0106 06020000 		.4byte	.LASF23
 526 010a 05       		.byte	0x5
 527 010b 43       		.byte	0x43
 528 010c AD000000 		.4byte	0xad
 529 0110 04       		.uleb128 0x4
 530 0111 6C010000 		.4byte	.LASF24
 531 0115 05       		.byte	0x5
 532 0116 45       		.byte	0x45
 533 0117 A2000000 		.4byte	0xa2
 534 011b 04       		.uleb128 0x4
 535 011c F6030000 		.4byte	.LASF25
 536 0120 06       		.byte	0x6
 537 0121 33       		.byte	0x33
 538 0122 AD000000 		.4byte	0xad
 539 0126 04       		.uleb128 0x4
 540 0127 ED030000 		.4byte	.LASF26
 541 012b 06       		.byte	0x6
 542 012c 3F       		.byte	0x3f
 543 012d 31010000 		.4byte	0x131
 544 0131 05       		.uleb128 0x5
 545 0132 C7010000 		.4byte	.LASF44
 546 0136 44       		.byte	0x44
 547 0137 07       		.byte	0x7
 548 0138 9A       		.byte	0x9a
 549 0139 0F020000 		.4byte	0x20f
 550 013d 06       		.uleb128 0x6
 551 013e 3B010000 		.4byte	.LASF27
 552 0142 07       		.byte	0x7
 553 0143 9B       		.byte	0x9b
 554 0144 44020000 		.4byte	0x244
 555 0148 00       		.byte	0
 556 0149 06       		.uleb128 0x6
 557 014a 9F020000 		.4byte	.LASF28
 558 014e 07       		.byte	0x7
 559 014f 9C       		.byte	0x9c
 560 0150 EF000000 		.4byte	0xef
 561 0154 08       		.byte	0x8
ARM GAS  /tmp/ccCT9eeg.s 			page 24


 562 0155 07       		.uleb128 0x7
 563 0156 63747800 		.ascii	"ctx\000"
 564 015a 07       		.byte	0x7
 565 015b 9D       		.byte	0x9d
 566 015c 61040000 		.4byte	0x461
 567 0160 0C       		.byte	0xc
 568 0161 06       		.uleb128 0x6
 569 0162 3A020000 		.4byte	.LASF29
 570 0166 07       		.byte	0x7
 571 0167 9F       		.byte	0x9f
 572 0168 1A020000 		.4byte	0x21a
 573 016c 10       		.byte	0x10
 574 016d 06       		.uleb128 0x6
 575 016e E2030000 		.4byte	.LASF30
 576 0172 07       		.byte	0x7
 577 0173 A0       		.byte	0xa0
 578 0174 1A020000 		.4byte	0x21a
 579 0178 14       		.byte	0x14
 580 0179 06       		.uleb128 0x6
 581 017a B7010000 		.4byte	.LASF31
 582 017e 07       		.byte	0x7
 583 017f A7       		.byte	0xa7
 584 0180 08070000 		.4byte	0x708
 585 0184 18       		.byte	0x18
 586 0185 06       		.uleb128 0x6
 587 0186 CA030000 		.4byte	.LASF32
 588 018a 07       		.byte	0x7
 589 018b B0       		.byte	0xb0
 590 018c 1A070000 		.4byte	0x71a
 591 0190 1C       		.byte	0x1c
 592 0191 06       		.uleb128 0x6
 593 0192 03010000 		.4byte	.LASF33
 594 0196 07       		.byte	0x7
 595 0197 B5       		.byte	0xb5
 596 0198 D9000000 		.4byte	0xd9
 597 019c 20       		.byte	0x20
 598 019d 06       		.uleb128 0x6
 599 019e 9A040000 		.4byte	.LASF34
 600 01a2 07       		.byte	0x7
 601 01a3 B9       		.byte	0xb9
 602 01a4 CE000000 		.4byte	0xce
 603 01a8 21       		.byte	0x21
 604 01a9 06       		.uleb128 0x6
 605 01aa BF020000 		.4byte	.LASF35
 606 01ae 07       		.byte	0x7
 607 01af BE       		.byte	0xbe
 608 01b0 E4000000 		.4byte	0xe4
 609 01b4 22       		.byte	0x22
 610 01b5 08       		.uleb128 0x8
 611 01b6 7500     		.ascii	"u\000"
 612 01b8 07       		.byte	0x7
 613 01b9 0F01     		.2byte	0x10f
 614 01bb 3D060000 		.4byte	0x63d
 615 01bf 24       		.byte	0x24
 616 01c0 09       		.uleb128 0x9
 617 01c1 5C010000 		.4byte	.LASF36
 618 01c5 07       		.byte	0x7
ARM GAS  /tmp/ccCT9eeg.s 			page 25


 619 01c6 1401     		.2byte	0x114
 620 01c8 20020000 		.4byte	0x220
 621 01cc 28       		.byte	0x28
 622 01cd 09       		.uleb128 0x9
 623 01ce FA000000 		.4byte	.LASF37
 624 01d2 07       		.byte	0x7
 625 01d3 1A01     		.2byte	0x11a
 626 01d5 44020000 		.4byte	0x244
 627 01d9 2C       		.byte	0x2c
 628 01da 09       		.uleb128 0x9
 629 01db D7010000 		.4byte	.LASF38
 630 01df 07       		.byte	0x7
 631 01e0 2001     		.2byte	0x120
 632 01e2 05010000 		.4byte	0x105
 633 01e6 34       		.byte	0x34
 634 01e7 09       		.uleb128 0x9
 635 01e8 BA050000 		.4byte	.LASF39
 636 01ec 07       		.byte	0x7
 637 01ed 2701     		.2byte	0x127
 638 01ef 02070000 		.4byte	0x702
 639 01f3 38       		.byte	0x38
 640 01f4 09       		.uleb128 0x9
 641 01f5 40020000 		.4byte	.LASF40
 642 01f9 07       		.byte	0x7
 643 01fa 2B01     		.2byte	0x12b
 644 01fc EF000000 		.4byte	0xef
 645 0200 3C       		.byte	0x3c
 646 0201 09       		.uleb128 0x9
 647 0202 BC010000 		.4byte	.LASF41
 648 0206 07       		.byte	0x7
 649 0207 3201     		.2byte	0x132
 650 0209 F7020000 		.4byte	0x2f7
 651 020d 40       		.byte	0x40
 652 020e 00       		.byte	0
 653 020f 04       		.uleb128 0x4
 654 0210 52020000 		.4byte	.LASF42
 655 0214 06       		.byte	0x6
 656 0215 44       		.byte	0x44
 657 0216 1A020000 		.4byte	0x21a
 658 021a 0A       		.uleb128 0xa
 659 021b 04       		.byte	0x4
 660 021c 26010000 		.4byte	0x126
 661 0220 04       		.uleb128 0x4
 662 0221 92050000 		.4byte	.LASF43
 663 0225 06       		.byte	0x6
 664 0226 49       		.byte	0x49
 665 0227 2B020000 		.4byte	0x22b
 666 022b 05       		.uleb128 0x5
 667 022c B4030000 		.4byte	.LASF45
 668 0230 04       		.byte	0x4
 669 0231 07       		.byte	0x7
 670 0232 88       		.byte	0x88
 671 0233 44020000 		.4byte	0x244
 672 0237 06       		.uleb128 0x6
 673 0238 18000000 		.4byte	.LASF46
 674 023c 07       		.byte	0x7
 675 023d 89       		.byte	0x89
ARM GAS  /tmp/ccCT9eeg.s 			page 26


 676 023e 1A020000 		.4byte	0x21a
 677 0242 00       		.byte	0
 678 0243 00       		.byte	0
 679 0244 04       		.uleb128 0x4
 680 0245 62040000 		.4byte	.LASF47
 681 0249 06       		.byte	0x6
 682 024a 50       		.byte	0x50
 683 024b 4F020000 		.4byte	0x24f
 684 024f 05       		.uleb128 0x5
 685 0250 C4000000 		.4byte	.LASF48
 686 0254 08       		.byte	0x8
 687 0255 07       		.byte	0x7
 688 0256 8F       		.byte	0x8f
 689 0257 74020000 		.4byte	0x274
 690 025b 06       		.uleb128 0x6
 691 025c 18000000 		.4byte	.LASF46
 692 0260 07       		.byte	0x7
 693 0261 90       		.byte	0x90
 694 0262 1A020000 		.4byte	0x21a
 695 0266 00       		.byte	0
 696 0267 06       		.uleb128 0x6
 697 0268 3D000000 		.4byte	.LASF49
 698 026c 07       		.byte	0x7
 699 026d 91       		.byte	0x91
 700 026e 1A020000 		.4byte	0x21a
 701 0272 04       		.byte	0x4
 702 0273 00       		.byte	0
 703 0274 04       		.uleb128 0x4
 704 0275 00000000 		.4byte	.LASF50
 705 0279 06       		.byte	0x6
 706 027a 57       		.byte	0x57
 707 027b 7F020000 		.4byte	0x27f
 708 027f 0B       		.uleb128 0xb
 709 0280 F8010000 		.4byte	.LASF51
 710 0284 1C       		.byte	0x1c
 711 0285 07       		.byte	0x7
 712 0286 6A01     		.2byte	0x16a
 713 0288 DB020000 		.4byte	0x2db
 714 028c 09       		.uleb128 0x9
 715 028d 3B010000 		.4byte	.LASF27
 716 0291 07       		.byte	0x7
 717 0292 6B01     		.2byte	0x16b
 718 0294 44020000 		.4byte	0x244
 719 0298 00       		.byte	0
 720 0299 09       		.uleb128 0x9
 721 029a 9F020000 		.4byte	.LASF28
 722 029e 07       		.byte	0x7
 723 029f 6C01     		.2byte	0x16c
 724 02a1 EF000000 		.4byte	0xef
 725 02a5 08       		.byte	0x8
 726 02a6 08       		.uleb128 0x8
 727 02a7 63747800 		.ascii	"ctx\000"
 728 02ab 07       		.byte	0x7
 729 02ac 6E01     		.2byte	0x16e
 730 02ae 61040000 		.4byte	0x461
 731 02b2 0C       		.byte	0xc
 732 02b3 09       		.uleb128 0x9
ARM GAS  /tmp/ccCT9eeg.s 			page 27


 733 02b4 3A020000 		.4byte	.LASF29
 734 02b8 07       		.byte	0x7
 735 02b9 7101     		.2byte	0x171
 736 02bb 1A020000 		.4byte	0x21a
 737 02bf 10       		.byte	0x10
 738 02c0 09       		.uleb128 0x9
 739 02c1 E2030000 		.4byte	.LASF30
 740 02c5 07       		.byte	0x7
 741 02c6 7201     		.2byte	0x172
 742 02c8 1A020000 		.4byte	0x21a
 743 02cc 14       		.byte	0x14
 744 02cd 09       		.uleb128 0x9
 745 02ce A4020000 		.4byte	.LASF52
 746 02d2 07       		.byte	0x7
 747 02d3 7501     		.2byte	0x175
 748 02d5 1A020000 		.4byte	0x21a
 749 02d9 18       		.byte	0x18
 750 02da 00       		.byte	0
 751 02db 04       		.uleb128 0x4
 752 02dc 0E040000 		.4byte	.LASF53
 753 02e0 06       		.byte	0x6
 754 02e1 5C       		.byte	0x5c
 755 02e2 E6020000 		.4byte	0x2e6
 756 02e6 0A       		.uleb128 0xa
 757 02e7 04       		.byte	0x4
 758 02e8 EC020000 		.4byte	0x2ec
 759 02ec 0C       		.uleb128 0xc
 760 02ed F7020000 		.4byte	0x2f7
 761 02f1 0D       		.uleb128 0xd
 762 02f2 F7020000 		.4byte	0x2f7
 763 02f6 00       		.byte	0
 764 02f7 0E       		.uleb128 0xe
 765 02f8 04       		.byte	0x4
 766 02f9 04       		.uleb128 0x4
 767 02fa C4020000 		.4byte	.LASF54
 768 02fe 06       		.byte	0x6
 769 02ff 61       		.byte	0x61
 770 0300 04030000 		.4byte	0x304
 771 0304 0B       		.uleb128 0xb
 772 0305 70030000 		.4byte	.LASF55
 773 0309 14       		.byte	0x14
 774 030a 07       		.byte	0x7
 775 030b 4501     		.2byte	0x145
 776 030d 53030000 		.4byte	0x353
 777 0311 09       		.uleb128 0x9
 778 0312 18000000 		.4byte	.LASF46
 779 0316 07       		.byte	0x7
 780 0317 4601     		.2byte	0x146
 781 0319 20070000 		.4byte	0x720
 782 031d 00       		.byte	0
 783 031e 09       		.uleb128 0x9
 784 031f 3D000000 		.4byte	.LASF49
 785 0323 07       		.byte	0x7
 786 0324 4701     		.2byte	0x147
 787 0326 20070000 		.4byte	0x720
 788 032a 04       		.byte	0x4
 789 032b 09       		.uleb128 0x9
ARM GAS  /tmp/ccCT9eeg.s 			page 28


 790 032c 1D000000 		.4byte	.LASF56
 791 0330 07       		.byte	0x7
 792 0331 4801     		.2byte	0x148
 793 0333 1B010000 		.4byte	0x11b
 794 0337 08       		.byte	0x8
 795 0338 09       		.uleb128 0x9
 796 0339 23010000 		.4byte	.LASF57
 797 033d 07       		.byte	0x7
 798 033e 4901     		.2byte	0x149
 799 0340 DB020000 		.4byte	0x2db
 800 0344 0C       		.byte	0xc
 801 0345 08       		.uleb128 0x8
 802 0346 70617200 		.ascii	"par\000"
 803 034a 07       		.byte	0x7
 804 034b 4B01     		.2byte	0x14b
 805 034d F7020000 		.4byte	0x2f7
 806 0351 10       		.byte	0x10
 807 0352 00       		.byte	0
 808 0353 04       		.uleb128 0x4
 809 0354 90000000 		.4byte	.LASF58
 810 0358 06       		.byte	0x6
 811 0359 66       		.byte	0x66
 812 035a 5E030000 		.4byte	0x35e
 813 035e 0B       		.uleb128 0xb
 814 035f 65020000 		.4byte	.LASF59
 815 0363 10       		.byte	0x10
 816 0364 07       		.byte	0x7
 817 0365 5501     		.2byte	0x155
 818 0367 A0030000 		.4byte	0x3a0
 819 036b 09       		.uleb128 0x9
 820 036c 18000000 		.4byte	.LASF46
 821 0370 07       		.byte	0x7
 822 0371 5601     		.2byte	0x156
 823 0373 20070000 		.4byte	0x720
 824 0377 00       		.byte	0
 825 0378 09       		.uleb128 0x9
 826 0379 3D000000 		.4byte	.LASF49
 827 037d 07       		.byte	0x7
 828 037e 5801     		.2byte	0x158
 829 0380 20070000 		.4byte	0x720
 830 0384 04       		.byte	0x4
 831 0385 09       		.uleb128 0x9
 832 0386 1D000000 		.4byte	.LASF56
 833 038a 07       		.byte	0x7
 834 038b 5A01     		.2byte	0x15a
 835 038d 1B010000 		.4byte	0x11b
 836 0391 08       		.byte	0x8
 837 0392 09       		.uleb128 0x9
 838 0393 4E030000 		.4byte	.LASF60
 839 0397 07       		.byte	0x7
 840 0398 6201     		.2byte	0x162
 841 039a 1B010000 		.4byte	0x11b
 842 039e 0C       		.byte	0xc
 843 039f 00       		.byte	0
 844 03a0 04       		.uleb128 0x4
 845 03a1 4E000000 		.4byte	.LASF61
 846 03a5 06       		.byte	0x6
ARM GAS  /tmp/ccCT9eeg.s 			page 29


 847 03a6 6B       		.byte	0x6b
 848 03a7 AB030000 		.4byte	0x3ab
 849 03ab 0B       		.uleb128 0xb
 850 03ac 0A030000 		.4byte	.LASF62
 851 03b0 04       		.byte	0x4
 852 03b1 07       		.byte	0x7
 853 03b2 7C01     		.2byte	0x17c
 854 03b4 C6030000 		.4byte	0x3c6
 855 03b8 09       		.uleb128 0x9
 856 03b9 17040000 		.4byte	.LASF63
 857 03bd 07       		.byte	0x7
 858 03be 8401     		.2byte	0x184
 859 03c0 26070000 		.4byte	0x726
 860 03c4 00       		.byte	0
 861 03c5 00       		.byte	0
 862 03c6 04       		.uleb128 0x4
 863 03c7 E0010000 		.4byte	.LASF64
 864 03cb 06       		.byte	0x6
 865 03cc 70       		.byte	0x70
 866 03cd D1030000 		.4byte	0x3d1
 867 03d1 0B       		.uleb128 0xb
 868 03d2 5E030000 		.4byte	.LASF65
 869 03d6 78       		.byte	0x78
 870 03d7 07       		.byte	0x7
 871 03d8 9C01     		.2byte	0x19c
 872 03da 1F040000 		.4byte	0x41f
 873 03de 09       		.uleb128 0x9
 874 03df 7B040000 		.4byte	.LASF66
 875 03e3 07       		.byte	0x7
 876 03e4 A001     		.2byte	0x1a0
 877 03e6 74020000 		.4byte	0x274
 878 03ea 00       		.byte	0
 879 03eb 09       		.uleb128 0x9
 880 03ec F3000000 		.4byte	.LASF67
 881 03f0 07       		.byte	0x7
 882 03f1 A401     		.2byte	0x1a4
 883 03f3 53030000 		.4byte	0x353
 884 03f7 1C       		.byte	0x1c
 885 03f8 08       		.uleb128 0x8
 886 03f9 64626700 		.ascii	"dbg\000"
 887 03fd 07       		.byte	0x7
 888 03fe A801     		.2byte	0x1a8
 889 0400 A0030000 		.4byte	0x3a0
 890 0404 2C       		.byte	0x2c
 891 0405 09       		.uleb128 0x9
 892 0406 7D000000 		.4byte	.LASF68
 893 040a 07       		.byte	0x7
 894 040b AC01     		.2byte	0x1ac
 895 040d 26010000 		.4byte	0x126
 896 0411 30       		.byte	0x30
 897 0412 08       		.uleb128 0x8
 898 0413 746D00   		.ascii	"tm\000"
 899 0416 07       		.byte	0x7
 900 0417 B101     		.2byte	0x1b1
 901 0419 32060000 		.4byte	0x632
 902 041d 74       		.byte	0x74
 903 041e 00       		.byte	0
ARM GAS  /tmp/ccCT9eeg.s 			page 30


 904 041f 03       		.uleb128 0x3
 905 0420 04       		.byte	0x4
 906 0421 07       		.byte	0x7
 907 0422 49020000 		.4byte	.LASF69
 908 0426 0F       		.uleb128 0xf
 909 0427 AD000000 		.4byte	0xad
 910 042b 10       		.uleb128 0x10
 911 042c AD000000 		.4byte	0xad
 912 0430 3B040000 		.4byte	0x43b
 913 0434 11       		.uleb128 0x11
 914 0435 1F040000 		.4byte	0x41f
 915 0439 01       		.byte	0x1
 916 043a 00       		.byte	0
 917 043b 10       		.uleb128 0x10
 918 043c AD000000 		.4byte	0xad
 919 0440 4B040000 		.4byte	0x44b
 920 0444 11       		.uleb128 0x11
 921 0445 1F040000 		.4byte	0x41f
 922 0449 03       		.byte	0x3
 923 044a 00       		.byte	0
 924 044b 04       		.uleb128 0x4
 925 044c 4C010000 		.4byte	.LASF70
 926 0450 08       		.byte	0x8
 927 0451 65       		.byte	0x65
 928 0452 F7020000 		.4byte	0x2f7
 929 0456 04       		.uleb128 0x4
 930 0457 2F020000 		.4byte	.LASF71
 931 045b 08       		.byte	0x8
 932 045c 6D       		.byte	0x6d
 933 045d B8000000 		.4byte	0xb8
 934 0461 05       		.uleb128 0x5
 935 0462 7C020000 		.4byte	.LASF72
 936 0466 04       		.byte	0x4
 937 0467 08       		.byte	0x8
 938 0468 89       		.byte	0x89
 939 0469 79040000 		.4byte	0x479
 940 046d 07       		.uleb128 0x7
 941 046e 737000   		.ascii	"sp\000"
 942 0471 08       		.byte	0x8
 943 0472 8A       		.byte	0x8a
 944 0473 F5040000 		.4byte	0x4f5
 945 0477 00       		.byte	0
 946 0478 00       		.byte	0
 947 0479 0B       		.uleb128 0xb
 948 047a 42000000 		.4byte	.LASF73
 949 047e 24       		.byte	0x24
 950 047f 09       		.byte	0x9
 951 0480 5901     		.2byte	0x159
 952 0482 F5040000 		.4byte	0x4f5
 953 0486 08       		.uleb128 0x8
 954 0487 723400   		.ascii	"r4\000"
 955 048a 09       		.byte	0x9
 956 048b 6C01     		.2byte	0x16c
 957 048d 4B040000 		.4byte	0x44b
 958 0491 00       		.byte	0
 959 0492 08       		.uleb128 0x8
 960 0493 723500   		.ascii	"r5\000"
ARM GAS  /tmp/ccCT9eeg.s 			page 31


 961 0496 09       		.byte	0x9
 962 0497 6D01     		.2byte	0x16d
 963 0499 4B040000 		.4byte	0x44b
 964 049d 04       		.byte	0x4
 965 049e 08       		.uleb128 0x8
 966 049f 723600   		.ascii	"r6\000"
 967 04a2 09       		.byte	0x9
 968 04a3 6E01     		.2byte	0x16e
 969 04a5 4B040000 		.4byte	0x44b
 970 04a9 08       		.byte	0x8
 971 04aa 08       		.uleb128 0x8
 972 04ab 723700   		.ascii	"r7\000"
 973 04ae 09       		.byte	0x9
 974 04af 6F01     		.2byte	0x16f
 975 04b1 4B040000 		.4byte	0x44b
 976 04b5 0C       		.byte	0xc
 977 04b6 08       		.uleb128 0x8
 978 04b7 723800   		.ascii	"r8\000"
 979 04ba 09       		.byte	0x9
 980 04bb 7001     		.2byte	0x170
 981 04bd 4B040000 		.4byte	0x44b
 982 04c1 10       		.byte	0x10
 983 04c2 08       		.uleb128 0x8
 984 04c3 723900   		.ascii	"r9\000"
 985 04c6 09       		.byte	0x9
 986 04c7 7101     		.2byte	0x171
 987 04c9 4B040000 		.4byte	0x44b
 988 04cd 14       		.byte	0x14
 989 04ce 08       		.uleb128 0x8
 990 04cf 72313000 		.ascii	"r10\000"
 991 04d3 09       		.byte	0x9
 992 04d4 7201     		.2byte	0x172
 993 04d6 4B040000 		.4byte	0x44b
 994 04da 18       		.byte	0x18
 995 04db 08       		.uleb128 0x8
 996 04dc 72313100 		.ascii	"r11\000"
 997 04e0 09       		.byte	0x9
 998 04e1 7301     		.2byte	0x173
 999 04e3 4B040000 		.4byte	0x44b
 1000 04e7 1C       		.byte	0x1c
 1001 04e8 08       		.uleb128 0x8
 1002 04e9 6C7200   		.ascii	"lr\000"
 1003 04ec 09       		.byte	0x9
 1004 04ed 7401     		.2byte	0x174
 1005 04ef 4B040000 		.4byte	0x44b
 1006 04f3 20       		.byte	0x20
 1007 04f4 00       		.byte	0
 1008 04f5 0A       		.uleb128 0xa
 1009 04f6 04       		.byte	0x4
 1010 04f7 79040000 		.4byte	0x479
 1011 04fb 12       		.uleb128 0x12
 1012 04fc 60       		.byte	0x60
 1013 04fd 0A       		.byte	0xa
 1014 04fe A101     		.2byte	0x1a1
 1015 0500 07060000 		.4byte	0x607
 1016 0504 08       		.uleb128 0x8
 1017 0505 43523100 		.ascii	"CR1\000"
ARM GAS  /tmp/ccCT9eeg.s 			page 32


 1018 0509 0A       		.byte	0xa
 1019 050a A201     		.2byte	0x1a2
 1020 050c 26040000 		.4byte	0x426
 1021 0510 00       		.byte	0
 1022 0511 08       		.uleb128 0x8
 1023 0512 43523200 		.ascii	"CR2\000"
 1024 0516 0A       		.byte	0xa
 1025 0517 A301     		.2byte	0x1a3
 1026 0519 26040000 		.4byte	0x426
 1027 051d 04       		.byte	0x4
 1028 051e 09       		.uleb128 0x9
 1029 051f C2010000 		.4byte	.LASF74
 1030 0523 0A       		.byte	0xa
 1031 0524 A401     		.2byte	0x1a4
 1032 0526 26040000 		.4byte	0x426
 1033 052a 08       		.byte	0x8
 1034 052b 09       		.uleb128 0x9
 1035 052c 0D000000 		.4byte	.LASF75
 1036 0530 0A       		.byte	0xa
 1037 0531 A501     		.2byte	0x1a5
 1038 0533 26040000 		.4byte	0x426
 1039 0537 0C       		.byte	0xc
 1040 0538 08       		.uleb128 0x8
 1041 0539 535200   		.ascii	"SR\000"
 1042 053c 0A       		.byte	0xa
 1043 053d A601     		.2byte	0x1a6
 1044 053f 26040000 		.4byte	0x426
 1045 0543 10       		.byte	0x10
 1046 0544 08       		.uleb128 0x8
 1047 0545 45475200 		.ascii	"EGR\000"
 1048 0549 0A       		.byte	0xa
 1049 054a A701     		.2byte	0x1a7
 1050 054c 26040000 		.4byte	0x426
 1051 0550 14       		.byte	0x14
 1052 0551 09       		.uleb128 0x9
 1053 0552 D5000000 		.4byte	.LASF76
 1054 0556 0A       		.byte	0xa
 1055 0557 A801     		.2byte	0x1a8
 1056 0559 26040000 		.4byte	0x426
 1057 055d 18       		.byte	0x18
 1058 055e 09       		.uleb128 0x9
 1059 055f DB000000 		.4byte	.LASF77
 1060 0563 0A       		.byte	0xa
 1061 0564 A901     		.2byte	0x1a9
 1062 0566 26040000 		.4byte	0x426
 1063 056a 1C       		.byte	0x1c
 1064 056b 09       		.uleb128 0x9
 1065 056c 28010000 		.4byte	.LASF78
 1066 0570 0A       		.byte	0xa
 1067 0571 AA01     		.2byte	0x1aa
 1068 0573 26040000 		.4byte	0x426
 1069 0577 20       		.byte	0x20
 1070 0578 08       		.uleb128 0x8
 1071 0579 434E5400 		.ascii	"CNT\000"
 1072 057d 0A       		.byte	0xa
 1073 057e AB01     		.2byte	0x1ab
 1074 0580 26040000 		.4byte	0x426
ARM GAS  /tmp/ccCT9eeg.s 			page 33


 1075 0584 24       		.byte	0x24
 1076 0585 08       		.uleb128 0x8
 1077 0586 50534300 		.ascii	"PSC\000"
 1078 058a 0A       		.byte	0xa
 1079 058b AC01     		.2byte	0x1ac
 1080 058d 26040000 		.4byte	0x426
 1081 0591 28       		.byte	0x28
 1082 0592 08       		.uleb128 0x8
 1083 0593 41525200 		.ascii	"ARR\000"
 1084 0597 0A       		.byte	0xa
 1085 0598 AD01     		.2byte	0x1ad
 1086 059a 26040000 		.4byte	0x426
 1087 059e 2C       		.byte	0x2c
 1088 059f 08       		.uleb128 0x8
 1089 05a0 52435200 		.ascii	"RCR\000"
 1090 05a4 0A       		.byte	0xa
 1091 05a5 AE01     		.2byte	0x1ae
 1092 05a7 26040000 		.4byte	0x426
 1093 05ab 30       		.byte	0x30
 1094 05ac 08       		.uleb128 0x8
 1095 05ad 43435200 		.ascii	"CCR\000"
 1096 05b1 0A       		.byte	0xa
 1097 05b2 AF01     		.2byte	0x1af
 1098 05b4 07060000 		.4byte	0x607
 1099 05b8 34       		.byte	0x34
 1100 05b9 09       		.uleb128 0x9
 1101 05ba BF000000 		.4byte	.LASF79
 1102 05be 0A       		.byte	0xa
 1103 05bf B001     		.2byte	0x1b0
 1104 05c1 26040000 		.4byte	0x426
 1105 05c5 44       		.byte	0x44
 1106 05c6 08       		.uleb128 0x8
 1107 05c7 44435200 		.ascii	"DCR\000"
 1108 05cb 0A       		.byte	0xa
 1109 05cc B101     		.2byte	0x1b1
 1110 05ce 26040000 		.4byte	0x426
 1111 05d2 48       		.byte	0x48
 1112 05d3 09       		.uleb128 0x9
 1113 05d4 E8030000 		.4byte	.LASF80
 1114 05d8 0A       		.byte	0xa
 1115 05d9 B201     		.2byte	0x1b2
 1116 05db 26040000 		.4byte	0x426
 1117 05df 4C       		.byte	0x4c
 1118 05e0 08       		.uleb128 0x8
 1119 05e1 4F5200   		.ascii	"OR\000"
 1120 05e4 0A       		.byte	0xa
 1121 05e5 B301     		.2byte	0x1b3
 1122 05e7 26040000 		.4byte	0x426
 1123 05eb 50       		.byte	0x50
 1124 05ec 09       		.uleb128 0x9
 1125 05ed E1000000 		.4byte	.LASF81
 1126 05f1 0A       		.byte	0xa
 1127 05f2 B401     		.2byte	0x1b4
 1128 05f4 26040000 		.4byte	0x426
 1129 05f8 54       		.byte	0x54
 1130 05f9 09       		.uleb128 0x9
 1131 05fa 9F030000 		.4byte	.LASF82
ARM GAS  /tmp/ccCT9eeg.s 			page 34


 1132 05fe 0A       		.byte	0xa
 1133 05ff B501     		.2byte	0x1b5
 1134 0601 0C060000 		.4byte	0x60c
 1135 0605 58       		.byte	0x58
 1136 0606 00       		.byte	0
 1137 0607 0F       		.uleb128 0xf
 1138 0608 3B040000 		.4byte	0x43b
 1139 060c 0F       		.uleb128 0xf
 1140 060d 2B040000 		.4byte	0x42b
 1141 0611 13       		.uleb128 0x13
 1142 0612 EC010000 		.4byte	.LASF83
 1143 0616 0A       		.byte	0xa
 1144 0617 B601     		.2byte	0x1b6
 1145 0619 FB040000 		.4byte	0x4fb
 1146 061d 14       		.uleb128 0x14
 1147 061e 04       		.byte	0x4
 1148 061f 0B       		.byte	0xb
 1149 0620 38       		.byte	0x38
 1150 0621 32060000 		.4byte	0x632
 1151 0625 06       		.uleb128 0x6
 1152 0626 21040000 		.4byte	.LASF84
 1153 062a 0B       		.byte	0xb
 1154 062b 3C       		.byte	0x3c
 1155 062c C3000000 		.4byte	0xc3
 1156 0630 00       		.byte	0
 1157 0631 00       		.byte	0
 1158 0632 04       		.uleb128 0x4
 1159 0633 89020000 		.4byte	.LASF85
 1160 0637 0B       		.byte	0xb
 1161 0638 3D       		.byte	0x3d
 1162 0639 1D060000 		.4byte	0x61d
 1163 063d 15       		.uleb128 0x15
 1164 063e 04       		.byte	0x4
 1165 063f 07       		.byte	0x7
 1166 0640 D2       		.byte	0xd2
 1167 0641 A0060000 		.4byte	0x6a0
 1168 0645 16       		.uleb128 0x16
 1169 0646 23000000 		.4byte	.LASF86
 1170 064a 07       		.byte	0x7
 1171 064b D9       		.byte	0xd9
 1172 064c FA000000 		.4byte	0xfa
 1173 0650 16       		.uleb128 0x16
 1174 0651 74000000 		.4byte	.LASF87
 1175 0655 07       		.byte	0x7
 1176 0656 E0       		.byte	0xe0
 1177 0657 FA000000 		.4byte	0xfa
 1178 065b 16       		.uleb128 0x16
 1179 065c 8B050000 		.4byte	.LASF88
 1180 0660 07       		.byte	0x7
 1181 0661 E7       		.byte	0xe7
 1182 0662 F7020000 		.4byte	0x2f7
 1183 0666 16       		.uleb128 0x16
 1184 0667 12000000 		.4byte	.LASF89
 1185 066b 07       		.byte	0x7
 1186 066c EE       		.byte	0xee
 1187 066d A0060000 		.4byte	0x6a0
 1188 0671 16       		.uleb128 0x16
ARM GAS  /tmp/ccCT9eeg.s 			page 35


 1189 0672 88000000 		.4byte	.LASF90
 1190 0676 07       		.byte	0x7
 1191 0677 F3       		.byte	0xf3
 1192 0678 FA000000 		.4byte	0xfa
 1193 067c 16       		.uleb128 0x16
 1194 067d 7F010000 		.4byte	.LASF91
 1195 0681 07       		.byte	0x7
 1196 0682 FC       		.byte	0xfc
 1197 0683 CB060000 		.4byte	0x6cb
 1198 0687 17       		.uleb128 0x17
 1199 0688 AD030000 		.4byte	.LASF92
 1200 068c 07       		.byte	0x7
 1201 068d 0501     		.2byte	0x105
 1202 068f 02070000 		.4byte	0x702
 1203 0693 17       		.uleb128 0x17
 1204 0694 57030000 		.4byte	.LASF93
 1205 0698 07       		.byte	0x7
 1206 0699 0D01     		.2byte	0x10d
 1207 069b 05010000 		.4byte	0x105
 1208 069f 00       		.byte	0
 1209 06a0 0A       		.uleb128 0xa
 1210 06a1 04       		.byte	0x4
 1211 06a2 0F020000 		.4byte	0x20f
 1212 06a6 05       		.uleb128 0x5
 1213 06a7 92030000 		.4byte	.LASF94
 1214 06ab 0C       		.byte	0xc
 1215 06ac 0C       		.byte	0xc
 1216 06ad 34       		.byte	0x34
 1217 06ae CB060000 		.4byte	0x6cb
 1218 06b2 06       		.uleb128 0x6
 1219 06b3 3B010000 		.4byte	.LASF27
 1220 06b7 0C       		.byte	0xc
 1221 06b8 35       		.byte	0x35
 1222 06b9 44020000 		.4byte	0x244
 1223 06bd 00       		.byte	0
 1224 06be 07       		.uleb128 0x7
 1225 06bf 636E7400 		.ascii	"cnt\000"
 1226 06c3 0C       		.byte	0xc
 1227 06c4 37       		.byte	0x37
 1228 06c5 10010000 		.4byte	0x110
 1229 06c9 08       		.byte	0x8
 1230 06ca 00       		.byte	0
 1231 06cb 0A       		.uleb128 0xa
 1232 06cc 04       		.byte	0x4
 1233 06cd A6060000 		.4byte	0x6a6
 1234 06d1 05       		.uleb128 0x5
 1235 06d2 72040000 		.4byte	.LASF95
 1236 06d6 10       		.byte	0x10
 1237 06d7 0D       		.byte	0xd
 1238 06d8 39       		.byte	0x39
 1239 06d9 02070000 		.4byte	0x702
 1240 06dd 06       		.uleb128 0x6
 1241 06de 3B010000 		.4byte	.LASF27
 1242 06e2 0D       		.byte	0xd
 1243 06e3 3A       		.byte	0x3a
 1244 06e4 44020000 		.4byte	0x244
 1245 06e8 00       		.byte	0
ARM GAS  /tmp/ccCT9eeg.s 			page 36


 1246 06e9 06       		.uleb128 0x6
 1247 06ea C4030000 		.4byte	.LASF96
 1248 06ee 0D       		.byte	0xd
 1249 06ef 3C       		.byte	0x3c
 1250 06f0 1A020000 		.4byte	0x21a
 1251 06f4 08       		.byte	0x8
 1252 06f5 06       		.uleb128 0x6
 1253 06f6 18000000 		.4byte	.LASF46
 1254 06fa 0D       		.byte	0xd
 1255 06fb 3E       		.byte	0x3e
 1256 06fc 36070000 		.4byte	0x736
 1257 0700 0C       		.byte	0xc
 1258 0701 00       		.byte	0
 1259 0702 0A       		.uleb128 0xa
 1260 0703 04       		.byte	0x4
 1261 0704 D1060000 		.4byte	0x6d1
 1262 0708 0A       		.uleb128 0xa
 1263 0709 04       		.byte	0x4
 1264 070a 0E070000 		.4byte	0x70e
 1265 070e 18       		.uleb128 0x18
 1266 070f 13070000 		.4byte	0x713
 1267 0713 03       		.uleb128 0x3
 1268 0714 01       		.byte	0x1
 1269 0715 08       		.byte	0x8
 1270 0716 DD030000 		.4byte	.LASF97
 1271 071a 0A       		.uleb128 0xa
 1272 071b 04       		.byte	0x4
 1273 071c 56040000 		.4byte	0x456
 1274 0720 0A       		.uleb128 0xa
 1275 0721 04       		.byte	0x4
 1276 0722 F9020000 		.4byte	0x2f9
 1277 0726 0F       		.uleb128 0xf
 1278 0727 08070000 		.4byte	0x708
 1279 072b 04       		.uleb128 0x4
 1280 072c 64010000 		.4byte	.LASF98
 1281 0730 0D       		.byte	0xd
 1282 0731 34       		.byte	0x34
 1283 0732 D1060000 		.4byte	0x6d1
 1284 0736 0A       		.uleb128 0xa
 1285 0737 04       		.byte	0x4
 1286 0738 2B070000 		.4byte	0x72b
 1287 073c 03       		.uleb128 0x3
 1288 073d 01       		.byte	0x1
 1289 073e 02       		.byte	0x2
 1290 073f 1A030000 		.4byte	.LASF99
 1291 0743 19       		.uleb128 0x19
 1292 0744 1C020000 		.4byte	.LASF100
 1293 0748 02       		.byte	0x2
 1294 0749 99       		.byte	0x99
 1295 074a 03       		.byte	0x3
 1296 074b 5B070000 		.4byte	0x75b
 1297 074f 1A       		.uleb128 0x1a
 1298 0750 9A020000 		.4byte	.LASF102
 1299 0754 02       		.byte	0x2
 1300 0755 99       		.byte	0x99
 1301 0756 1B010000 		.4byte	0x11b
 1302 075a 00       		.byte	0
ARM GAS  /tmp/ccCT9eeg.s 			page 37


 1303 075b 1B       		.uleb128 0x1b
 1304 075c 50040000 		.4byte	.LASF115
 1305 0760 02       		.byte	0x2
 1306 0761 A5       		.byte	0xa5
 1307 0762 03       		.byte	0x3
 1308 0763 19       		.uleb128 0x19
 1309 0764 A9050000 		.4byte	.LASF101
 1310 0768 02       		.byte	0x2
 1311 0769 B1       		.byte	0xb1
 1312 076a 03       		.byte	0x3
 1313 076b 7B070000 		.4byte	0x77b
 1314 076f 1A       		.uleb128 0x1a
 1315 0770 9A020000 		.4byte	.LASF102
 1316 0774 02       		.byte	0x2
 1317 0775 B1       		.byte	0xb1
 1318 0776 1B010000 		.4byte	0x11b
 1319 077a 00       		.byte	0
 1320 077b 1C       		.uleb128 0x1c
 1321 077c 81030000 		.4byte	.LASF116
 1322 0780 02       		.byte	0x2
 1323 0781 BD       		.byte	0xbd
 1324 0782 1B010000 		.4byte	0x11b
 1325 0786 03       		.byte	0x3
 1326 0787 1D       		.uleb128 0x1d
 1327 0788 55010000 		.4byte	.LASF103
 1328 078c 01       		.byte	0x1
 1329 078d 3C       		.byte	0x3c
 1330 078e 00000000 		.4byte	.LFB270
 1331 0792 04000000 		.4byte	.LFE270-.LFB270
 1332 0796 01       		.uleb128 0x1
 1333 0797 9C       		.byte	0x9c
 1334 0798 A6070000 		.4byte	0x7a6
 1335 079c 1E       		.uleb128 0x1e
 1336 079d 04000000 		.4byte	.LVL0
 1337 07a1 CE080000 		.4byte	0x8ce
 1338 07a5 00       		.byte	0
 1339 07a6 1D       		.uleb128 0x1d
 1340 07a7 28040000 		.4byte	.LASF104
 1341 07ab 01       		.byte	0x1
 1342 07ac 4C       		.byte	0x4c
 1343 07ad 00000000 		.4byte	.LFB271
 1344 07b1 10000000 		.4byte	.LFE271-.LFB271
 1345 07b5 01       		.uleb128 0x1
 1346 07b6 9C       		.byte	0x9c
 1347 07b7 E9070000 		.4byte	0x7e9
 1348 07bb 1F       		.uleb128 0x1f
 1349 07bc A1050000 		.4byte	.LASF107
 1350 07c0 01       		.byte	0x1
 1351 07c1 4C       		.byte	0x4c
 1352 07c2 1B010000 		.4byte	0x11b
 1353 07c6 01       		.uleb128 0x1
 1354 07c7 50       		.byte	0x50
 1355 07c8 20       		.uleb128 0x20
 1356 07c9 00040000 		.4byte	.LASF108
 1357 07cd F9070000 		.4byte	0x7f9
 1358 07d1 21       		.uleb128 0x21
 1359 07d2 43070000 		.4byte	0x743
ARM GAS  /tmp/ccCT9eeg.s 			page 38


 1360 07d6 00000000 		.4byte	.LBB10
 1361 07da 10000000 		.4byte	.LBE10-.LBB10
 1362 07de 01       		.byte	0x1
 1363 07df 50       		.byte	0x50
 1364 07e0 22       		.uleb128 0x22
 1365 07e1 4F070000 		.4byte	0x74f
 1366 07e5 01       		.uleb128 0x1
 1367 07e6 50       		.byte	0x50
 1368 07e7 00       		.byte	0
 1369 07e8 00       		.byte	0
 1370 07e9 10       		.uleb128 0x10
 1371 07ea 13070000 		.4byte	0x713
 1372 07ee F9070000 		.4byte	0x7f9
 1373 07f2 11       		.uleb128 0x11
 1374 07f3 1F040000 		.4byte	0x41f
 1375 07f7 0C       		.byte	0xc
 1376 07f8 00       		.byte	0
 1377 07f9 18       		.uleb128 0x18
 1378 07fa E9070000 		.4byte	0x7e9
 1379 07fe 1D       		.uleb128 0x1d
 1380 07ff D1030000 		.4byte	.LASF105
 1381 0803 01       		.byte	0x1
 1382 0804 5A       		.byte	0x5a
 1383 0805 00000000 		.4byte	.LFB272
 1384 0809 0A000000 		.4byte	.LFE272-.LFB272
 1385 080d 01       		.uleb128 0x1
 1386 080e 9C       		.byte	0x9c
 1387 080f 23080000 		.4byte	0x823
 1388 0813 23       		.uleb128 0x23
 1389 0814 5B070000 		.4byte	0x75b
 1390 0818 00000000 		.4byte	.LBB12
 1391 081c 0A000000 		.4byte	.LBE12-.LBB12
 1392 0820 01       		.byte	0x1
 1393 0821 5C       		.byte	0x5c
 1394 0822 00       		.byte	0
 1395 0823 1D       		.uleb128 0x1d
 1396 0824 81040000 		.4byte	.LASF106
 1397 0828 01       		.byte	0x1
 1398 0829 68       		.byte	0x68
 1399 082a 00000000 		.4byte	.LFB273
 1400 082e 08000000 		.4byte	.LFE273-.LFB273
 1401 0832 01       		.uleb128 0x1
 1402 0833 9C       		.byte	0x9c
 1403 0834 66080000 		.4byte	0x866
 1404 0838 1F       		.uleb128 0x1f
 1405 0839 A1050000 		.4byte	.LASF107
 1406 083d 01       		.byte	0x1
 1407 083e 68       		.byte	0x68
 1408 083f 1B010000 		.4byte	0x11b
 1409 0843 01       		.uleb128 0x1
 1410 0844 50       		.byte	0x50
 1411 0845 20       		.uleb128 0x20
 1412 0846 36030000 		.4byte	.LASF109
 1413 084a 76080000 		.4byte	0x876
 1414 084e 21       		.uleb128 0x21
 1415 084f 63070000 		.4byte	0x763
 1416 0853 00000000 		.4byte	.LBB14
ARM GAS  /tmp/ccCT9eeg.s 			page 39


 1417 0857 08000000 		.4byte	.LBE14-.LBB14
 1418 085b 01       		.byte	0x1
 1419 085c 6C       		.byte	0x6c
 1420 085d 22       		.uleb128 0x22
 1421 085e 6F070000 		.4byte	0x76f
 1422 0862 01       		.uleb128 0x1
 1423 0863 50       		.byte	0x50
 1424 0864 00       		.byte	0
 1425 0865 00       		.byte	0
 1426 0866 10       		.uleb128 0x10
 1427 0867 13070000 		.4byte	0x713
 1428 086b 76080000 		.4byte	0x876
 1429 086f 11       		.uleb128 0x11
 1430 0870 1F040000 		.4byte	0x41f
 1431 0874 0A       		.byte	0xa
 1432 0875 00       		.byte	0
 1433 0876 18       		.uleb128 0x18
 1434 0877 66080000 		.4byte	0x866
 1435 087b 24       		.uleb128 0x24
 1436 087c 80050000 		.4byte	.LASF117
 1437 0880 01       		.byte	0x1
 1438 0881 78       		.byte	0x78
 1439 0882 1B010000 		.4byte	0x11b
 1440 0886 00000000 		.4byte	.LFB274
 1441 088a 08000000 		.4byte	.LFE274-.LFB274
 1442 088e 01       		.uleb128 0x1
 1443 088f 9C       		.byte	0x9c
 1444 0890 AD080000 		.4byte	0x8ad
 1445 0894 20       		.uleb128 0x20
 1446 0895 8C040000 		.4byte	.LASF110
 1447 0899 AD080000 		.4byte	0x8ad
 1448 089d 23       		.uleb128 0x23
 1449 089e 7B070000 		.4byte	0x77b
 1450 08a2 00000000 		.4byte	.LBB16
 1451 08a6 06000000 		.4byte	.LBE16-.LBB16
 1452 08aa 01       		.byte	0x1
 1453 08ab 7C       		.byte	0x7c
 1454 08ac 00       		.byte	0
 1455 08ad 18       		.uleb128 0x18
 1456 08ae 66080000 		.4byte	0x866
 1457 08b2 25       		.uleb128 0x25
 1458 08b3 A6000000 		.4byte	.LASF111
 1459 08b7 0E       		.byte	0xe
 1460 08b8 4407     		.2byte	0x744
 1461 08ba BE080000 		.4byte	0x8be
 1462 08be 0F       		.uleb128 0xf
 1463 08bf A2000000 		.4byte	0xa2
 1464 08c3 26       		.uleb128 0x26
 1465 08c4 636800   		.ascii	"ch\000"
 1466 08c7 07       		.byte	0x7
 1467 08c8 D201     		.2byte	0x1d2
 1468 08ca C6030000 		.4byte	0x3c6
 1469 08ce 27       		.uleb128 0x27
 1470 08cf B3000000 		.4byte	.LASF118
 1471 08d3 02       		.byte	0x2
 1472 08d4 7B       		.byte	0x7b
 1473 08d5 00       		.byte	0
ARM GAS  /tmp/ccCT9eeg.s 			page 40


 1474              		.section	.debug_abbrev,"",%progbits
 1475              	.Ldebug_abbrev0:
 1476 0000 01       		.uleb128 0x1
 1477 0001 11       		.uleb128 0x11
 1478 0002 01       		.byte	0x1
 1479 0003 25       		.uleb128 0x25
 1480 0004 0E       		.uleb128 0xe
 1481 0005 13       		.uleb128 0x13
 1482 0006 0B       		.uleb128 0xb
 1483 0007 03       		.uleb128 0x3
 1484 0008 0E       		.uleb128 0xe
 1485 0009 1B       		.uleb128 0x1b
 1486 000a 0E       		.uleb128 0xe
 1487 000b 55       		.uleb128 0x55
 1488 000c 17       		.uleb128 0x17
 1489 000d 11       		.uleb128 0x11
 1490 000e 01       		.uleb128 0x1
 1491 000f 10       		.uleb128 0x10
 1492 0010 17       		.uleb128 0x17
 1493 0011 00       		.byte	0
 1494 0012 00       		.byte	0
 1495 0013 02       		.uleb128 0x2
 1496 0014 24       		.uleb128 0x24
 1497 0015 00       		.byte	0
 1498 0016 0B       		.uleb128 0xb
 1499 0017 0B       		.uleb128 0xb
 1500 0018 3E       		.uleb128 0x3e
 1501 0019 0B       		.uleb128 0xb
 1502 001a 03       		.uleb128 0x3
 1503 001b 08       		.uleb128 0x8
 1504 001c 00       		.byte	0
 1505 001d 00       		.byte	0
 1506 001e 03       		.uleb128 0x3
 1507 001f 24       		.uleb128 0x24
 1508 0020 00       		.byte	0
 1509 0021 0B       		.uleb128 0xb
 1510 0022 0B       		.uleb128 0xb
 1511 0023 3E       		.uleb128 0x3e
 1512 0024 0B       		.uleb128 0xb
 1513 0025 03       		.uleb128 0x3
 1514 0026 0E       		.uleb128 0xe
 1515 0027 00       		.byte	0
 1516 0028 00       		.byte	0
 1517 0029 04       		.uleb128 0x4
 1518 002a 16       		.uleb128 0x16
 1519 002b 00       		.byte	0
 1520 002c 03       		.uleb128 0x3
 1521 002d 0E       		.uleb128 0xe
 1522 002e 3A       		.uleb128 0x3a
 1523 002f 0B       		.uleb128 0xb
 1524 0030 3B       		.uleb128 0x3b
 1525 0031 0B       		.uleb128 0xb
 1526 0032 49       		.uleb128 0x49
 1527 0033 13       		.uleb128 0x13
 1528 0034 00       		.byte	0
 1529 0035 00       		.byte	0
 1530 0036 05       		.uleb128 0x5
ARM GAS  /tmp/ccCT9eeg.s 			page 41


 1531 0037 13       		.uleb128 0x13
 1532 0038 01       		.byte	0x1
 1533 0039 03       		.uleb128 0x3
 1534 003a 0E       		.uleb128 0xe
 1535 003b 0B       		.uleb128 0xb
 1536 003c 0B       		.uleb128 0xb
 1537 003d 3A       		.uleb128 0x3a
 1538 003e 0B       		.uleb128 0xb
 1539 003f 3B       		.uleb128 0x3b
 1540 0040 0B       		.uleb128 0xb
 1541 0041 01       		.uleb128 0x1
 1542 0042 13       		.uleb128 0x13
 1543 0043 00       		.byte	0
 1544 0044 00       		.byte	0
 1545 0045 06       		.uleb128 0x6
 1546 0046 0D       		.uleb128 0xd
 1547 0047 00       		.byte	0
 1548 0048 03       		.uleb128 0x3
 1549 0049 0E       		.uleb128 0xe
 1550 004a 3A       		.uleb128 0x3a
 1551 004b 0B       		.uleb128 0xb
 1552 004c 3B       		.uleb128 0x3b
 1553 004d 0B       		.uleb128 0xb
 1554 004e 49       		.uleb128 0x49
 1555 004f 13       		.uleb128 0x13
 1556 0050 38       		.uleb128 0x38
 1557 0051 0B       		.uleb128 0xb
 1558 0052 00       		.byte	0
 1559 0053 00       		.byte	0
 1560 0054 07       		.uleb128 0x7
 1561 0055 0D       		.uleb128 0xd
 1562 0056 00       		.byte	0
 1563 0057 03       		.uleb128 0x3
 1564 0058 08       		.uleb128 0x8
 1565 0059 3A       		.uleb128 0x3a
 1566 005a 0B       		.uleb128 0xb
 1567 005b 3B       		.uleb128 0x3b
 1568 005c 0B       		.uleb128 0xb
 1569 005d 49       		.uleb128 0x49
 1570 005e 13       		.uleb128 0x13
 1571 005f 38       		.uleb128 0x38
 1572 0060 0B       		.uleb128 0xb
 1573 0061 00       		.byte	0
 1574 0062 00       		.byte	0
 1575 0063 08       		.uleb128 0x8
 1576 0064 0D       		.uleb128 0xd
 1577 0065 00       		.byte	0
 1578 0066 03       		.uleb128 0x3
 1579 0067 08       		.uleb128 0x8
 1580 0068 3A       		.uleb128 0x3a
 1581 0069 0B       		.uleb128 0xb
 1582 006a 3B       		.uleb128 0x3b
 1583 006b 05       		.uleb128 0x5
 1584 006c 49       		.uleb128 0x49
 1585 006d 13       		.uleb128 0x13
 1586 006e 38       		.uleb128 0x38
 1587 006f 0B       		.uleb128 0xb
ARM GAS  /tmp/ccCT9eeg.s 			page 42


 1588 0070 00       		.byte	0
 1589 0071 00       		.byte	0
 1590 0072 09       		.uleb128 0x9
 1591 0073 0D       		.uleb128 0xd
 1592 0074 00       		.byte	0
 1593 0075 03       		.uleb128 0x3
 1594 0076 0E       		.uleb128 0xe
 1595 0077 3A       		.uleb128 0x3a
 1596 0078 0B       		.uleb128 0xb
 1597 0079 3B       		.uleb128 0x3b
 1598 007a 05       		.uleb128 0x5
 1599 007b 49       		.uleb128 0x49
 1600 007c 13       		.uleb128 0x13
 1601 007d 38       		.uleb128 0x38
 1602 007e 0B       		.uleb128 0xb
 1603 007f 00       		.byte	0
 1604 0080 00       		.byte	0
 1605 0081 0A       		.uleb128 0xa
 1606 0082 0F       		.uleb128 0xf
 1607 0083 00       		.byte	0
 1608 0084 0B       		.uleb128 0xb
 1609 0085 0B       		.uleb128 0xb
 1610 0086 49       		.uleb128 0x49
 1611 0087 13       		.uleb128 0x13
 1612 0088 00       		.byte	0
 1613 0089 00       		.byte	0
 1614 008a 0B       		.uleb128 0xb
 1615 008b 13       		.uleb128 0x13
 1616 008c 01       		.byte	0x1
 1617 008d 03       		.uleb128 0x3
 1618 008e 0E       		.uleb128 0xe
 1619 008f 0B       		.uleb128 0xb
 1620 0090 0B       		.uleb128 0xb
 1621 0091 3A       		.uleb128 0x3a
 1622 0092 0B       		.uleb128 0xb
 1623 0093 3B       		.uleb128 0x3b
 1624 0094 05       		.uleb128 0x5
 1625 0095 01       		.uleb128 0x1
 1626 0096 13       		.uleb128 0x13
 1627 0097 00       		.byte	0
 1628 0098 00       		.byte	0
 1629 0099 0C       		.uleb128 0xc
 1630 009a 15       		.uleb128 0x15
 1631 009b 01       		.byte	0x1
 1632 009c 27       		.uleb128 0x27
 1633 009d 19       		.uleb128 0x19
 1634 009e 01       		.uleb128 0x1
 1635 009f 13       		.uleb128 0x13
 1636 00a0 00       		.byte	0
 1637 00a1 00       		.byte	0
 1638 00a2 0D       		.uleb128 0xd
 1639 00a3 05       		.uleb128 0x5
 1640 00a4 00       		.byte	0
 1641 00a5 49       		.uleb128 0x49
 1642 00a6 13       		.uleb128 0x13
 1643 00a7 00       		.byte	0
 1644 00a8 00       		.byte	0
ARM GAS  /tmp/ccCT9eeg.s 			page 43


 1645 00a9 0E       		.uleb128 0xe
 1646 00aa 0F       		.uleb128 0xf
 1647 00ab 00       		.byte	0
 1648 00ac 0B       		.uleb128 0xb
 1649 00ad 0B       		.uleb128 0xb
 1650 00ae 00       		.byte	0
 1651 00af 00       		.byte	0
 1652 00b0 0F       		.uleb128 0xf
 1653 00b1 35       		.uleb128 0x35
 1654 00b2 00       		.byte	0
 1655 00b3 49       		.uleb128 0x49
 1656 00b4 13       		.uleb128 0x13
 1657 00b5 00       		.byte	0
 1658 00b6 00       		.byte	0
 1659 00b7 10       		.uleb128 0x10
 1660 00b8 01       		.uleb128 0x1
 1661 00b9 01       		.byte	0x1
 1662 00ba 49       		.uleb128 0x49
 1663 00bb 13       		.uleb128 0x13
 1664 00bc 01       		.uleb128 0x1
 1665 00bd 13       		.uleb128 0x13
 1666 00be 00       		.byte	0
 1667 00bf 00       		.byte	0
 1668 00c0 11       		.uleb128 0x11
 1669 00c1 21       		.uleb128 0x21
 1670 00c2 00       		.byte	0
 1671 00c3 49       		.uleb128 0x49
 1672 00c4 13       		.uleb128 0x13
 1673 00c5 2F       		.uleb128 0x2f
 1674 00c6 0B       		.uleb128 0xb
 1675 00c7 00       		.byte	0
 1676 00c8 00       		.byte	0
 1677 00c9 12       		.uleb128 0x12
 1678 00ca 13       		.uleb128 0x13
 1679 00cb 01       		.byte	0x1
 1680 00cc 0B       		.uleb128 0xb
 1681 00cd 0B       		.uleb128 0xb
 1682 00ce 3A       		.uleb128 0x3a
 1683 00cf 0B       		.uleb128 0xb
 1684 00d0 3B       		.uleb128 0x3b
 1685 00d1 05       		.uleb128 0x5
 1686 00d2 01       		.uleb128 0x1
 1687 00d3 13       		.uleb128 0x13
 1688 00d4 00       		.byte	0
 1689 00d5 00       		.byte	0
 1690 00d6 13       		.uleb128 0x13
 1691 00d7 16       		.uleb128 0x16
 1692 00d8 00       		.byte	0
 1693 00d9 03       		.uleb128 0x3
 1694 00da 0E       		.uleb128 0xe
 1695 00db 3A       		.uleb128 0x3a
 1696 00dc 0B       		.uleb128 0xb
 1697 00dd 3B       		.uleb128 0x3b
 1698 00de 05       		.uleb128 0x5
 1699 00df 49       		.uleb128 0x49
 1700 00e0 13       		.uleb128 0x13
 1701 00e1 00       		.byte	0
ARM GAS  /tmp/ccCT9eeg.s 			page 44


 1702 00e2 00       		.byte	0
 1703 00e3 14       		.uleb128 0x14
 1704 00e4 13       		.uleb128 0x13
 1705 00e5 01       		.byte	0x1
 1706 00e6 0B       		.uleb128 0xb
 1707 00e7 0B       		.uleb128 0xb
 1708 00e8 3A       		.uleb128 0x3a
 1709 00e9 0B       		.uleb128 0xb
 1710 00ea 3B       		.uleb128 0x3b
 1711 00eb 0B       		.uleb128 0xb
 1712 00ec 01       		.uleb128 0x1
 1713 00ed 13       		.uleb128 0x13
 1714 00ee 00       		.byte	0
 1715 00ef 00       		.byte	0
 1716 00f0 15       		.uleb128 0x15
 1717 00f1 17       		.uleb128 0x17
 1718 00f2 01       		.byte	0x1
 1719 00f3 0B       		.uleb128 0xb
 1720 00f4 0B       		.uleb128 0xb
 1721 00f5 3A       		.uleb128 0x3a
 1722 00f6 0B       		.uleb128 0xb
 1723 00f7 3B       		.uleb128 0x3b
 1724 00f8 0B       		.uleb128 0xb
 1725 00f9 01       		.uleb128 0x1
 1726 00fa 13       		.uleb128 0x13
 1727 00fb 00       		.byte	0
 1728 00fc 00       		.byte	0
 1729 00fd 16       		.uleb128 0x16
 1730 00fe 0D       		.uleb128 0xd
 1731 00ff 00       		.byte	0
 1732 0100 03       		.uleb128 0x3
 1733 0101 0E       		.uleb128 0xe
 1734 0102 3A       		.uleb128 0x3a
 1735 0103 0B       		.uleb128 0xb
 1736 0104 3B       		.uleb128 0x3b
 1737 0105 0B       		.uleb128 0xb
 1738 0106 49       		.uleb128 0x49
 1739 0107 13       		.uleb128 0x13
 1740 0108 00       		.byte	0
 1741 0109 00       		.byte	0
 1742 010a 17       		.uleb128 0x17
 1743 010b 0D       		.uleb128 0xd
 1744 010c 00       		.byte	0
 1745 010d 03       		.uleb128 0x3
 1746 010e 0E       		.uleb128 0xe
 1747 010f 3A       		.uleb128 0x3a
 1748 0110 0B       		.uleb128 0xb
 1749 0111 3B       		.uleb128 0x3b
 1750 0112 05       		.uleb128 0x5
 1751 0113 49       		.uleb128 0x49
 1752 0114 13       		.uleb128 0x13
 1753 0115 00       		.byte	0
 1754 0116 00       		.byte	0
 1755 0117 18       		.uleb128 0x18
 1756 0118 26       		.uleb128 0x26
 1757 0119 00       		.byte	0
 1758 011a 49       		.uleb128 0x49
ARM GAS  /tmp/ccCT9eeg.s 			page 45


 1759 011b 13       		.uleb128 0x13
 1760 011c 00       		.byte	0
 1761 011d 00       		.byte	0
 1762 011e 19       		.uleb128 0x19
 1763 011f 2E       		.uleb128 0x2e
 1764 0120 01       		.byte	0x1
 1765 0121 03       		.uleb128 0x3
 1766 0122 0E       		.uleb128 0xe
 1767 0123 3A       		.uleb128 0x3a
 1768 0124 0B       		.uleb128 0xb
 1769 0125 3B       		.uleb128 0x3b
 1770 0126 0B       		.uleb128 0xb
 1771 0127 27       		.uleb128 0x27
 1772 0128 19       		.uleb128 0x19
 1773 0129 20       		.uleb128 0x20
 1774 012a 0B       		.uleb128 0xb
 1775 012b 01       		.uleb128 0x1
 1776 012c 13       		.uleb128 0x13
 1777 012d 00       		.byte	0
 1778 012e 00       		.byte	0
 1779 012f 1A       		.uleb128 0x1a
 1780 0130 05       		.uleb128 0x5
 1781 0131 00       		.byte	0
 1782 0132 03       		.uleb128 0x3
 1783 0133 0E       		.uleb128 0xe
 1784 0134 3A       		.uleb128 0x3a
 1785 0135 0B       		.uleb128 0xb
 1786 0136 3B       		.uleb128 0x3b
 1787 0137 0B       		.uleb128 0xb
 1788 0138 49       		.uleb128 0x49
 1789 0139 13       		.uleb128 0x13
 1790 013a 00       		.byte	0
 1791 013b 00       		.byte	0
 1792 013c 1B       		.uleb128 0x1b
 1793 013d 2E       		.uleb128 0x2e
 1794 013e 00       		.byte	0
 1795 013f 03       		.uleb128 0x3
 1796 0140 0E       		.uleb128 0xe
 1797 0141 3A       		.uleb128 0x3a
 1798 0142 0B       		.uleb128 0xb
 1799 0143 3B       		.uleb128 0x3b
 1800 0144 0B       		.uleb128 0xb
 1801 0145 27       		.uleb128 0x27
 1802 0146 19       		.uleb128 0x19
 1803 0147 20       		.uleb128 0x20
 1804 0148 0B       		.uleb128 0xb
 1805 0149 00       		.byte	0
 1806 014a 00       		.byte	0
 1807 014b 1C       		.uleb128 0x1c
 1808 014c 2E       		.uleb128 0x2e
 1809 014d 00       		.byte	0
 1810 014e 03       		.uleb128 0x3
 1811 014f 0E       		.uleb128 0xe
 1812 0150 3A       		.uleb128 0x3a
 1813 0151 0B       		.uleb128 0xb
 1814 0152 3B       		.uleb128 0x3b
 1815 0153 0B       		.uleb128 0xb
ARM GAS  /tmp/ccCT9eeg.s 			page 46


 1816 0154 27       		.uleb128 0x27
 1817 0155 19       		.uleb128 0x19
 1818 0156 49       		.uleb128 0x49
 1819 0157 13       		.uleb128 0x13
 1820 0158 20       		.uleb128 0x20
 1821 0159 0B       		.uleb128 0xb
 1822 015a 00       		.byte	0
 1823 015b 00       		.byte	0
 1824 015c 1D       		.uleb128 0x1d
 1825 015d 2E       		.uleb128 0x2e
 1826 015e 01       		.byte	0x1
 1827 015f 3F       		.uleb128 0x3f
 1828 0160 19       		.uleb128 0x19
 1829 0161 03       		.uleb128 0x3
 1830 0162 0E       		.uleb128 0xe
 1831 0163 3A       		.uleb128 0x3a
 1832 0164 0B       		.uleb128 0xb
 1833 0165 3B       		.uleb128 0x3b
 1834 0166 0B       		.uleb128 0xb
 1835 0167 27       		.uleb128 0x27
 1836 0168 19       		.uleb128 0x19
 1837 0169 11       		.uleb128 0x11
 1838 016a 01       		.uleb128 0x1
 1839 016b 12       		.uleb128 0x12
 1840 016c 06       		.uleb128 0x6
 1841 016d 40       		.uleb128 0x40
 1842 016e 18       		.uleb128 0x18
 1843 016f 9742     		.uleb128 0x2117
 1844 0171 19       		.uleb128 0x19
 1845 0172 01       		.uleb128 0x1
 1846 0173 13       		.uleb128 0x13
 1847 0174 00       		.byte	0
 1848 0175 00       		.byte	0
 1849 0176 1E       		.uleb128 0x1e
 1850 0177 898201   		.uleb128 0x4109
 1851 017a 00       		.byte	0
 1852 017b 11       		.uleb128 0x11
 1853 017c 01       		.uleb128 0x1
 1854 017d 9542     		.uleb128 0x2115
 1855 017f 19       		.uleb128 0x19
 1856 0180 31       		.uleb128 0x31
 1857 0181 13       		.uleb128 0x13
 1858 0182 00       		.byte	0
 1859 0183 00       		.byte	0
 1860 0184 1F       		.uleb128 0x1f
 1861 0185 05       		.uleb128 0x5
 1862 0186 00       		.byte	0
 1863 0187 03       		.uleb128 0x3
 1864 0188 0E       		.uleb128 0xe
 1865 0189 3A       		.uleb128 0x3a
 1866 018a 0B       		.uleb128 0xb
 1867 018b 3B       		.uleb128 0x3b
 1868 018c 0B       		.uleb128 0xb
 1869 018d 49       		.uleb128 0x49
 1870 018e 13       		.uleb128 0x13
 1871 018f 02       		.uleb128 0x2
 1872 0190 18       		.uleb128 0x18
ARM GAS  /tmp/ccCT9eeg.s 			page 47


 1873 0191 00       		.byte	0
 1874 0192 00       		.byte	0
 1875 0193 20       		.uleb128 0x20
 1876 0194 34       		.uleb128 0x34
 1877 0195 00       		.byte	0
 1878 0196 03       		.uleb128 0x3
 1879 0197 0E       		.uleb128 0xe
 1880 0198 49       		.uleb128 0x49
 1881 0199 13       		.uleb128 0x13
 1882 019a 34       		.uleb128 0x34
 1883 019b 19       		.uleb128 0x19
 1884 019c 00       		.byte	0
 1885 019d 00       		.byte	0
 1886 019e 21       		.uleb128 0x21
 1887 019f 1D       		.uleb128 0x1d
 1888 01a0 01       		.byte	0x1
 1889 01a1 31       		.uleb128 0x31
 1890 01a2 13       		.uleb128 0x13
 1891 01a3 11       		.uleb128 0x11
 1892 01a4 01       		.uleb128 0x1
 1893 01a5 12       		.uleb128 0x12
 1894 01a6 06       		.uleb128 0x6
 1895 01a7 58       		.uleb128 0x58
 1896 01a8 0B       		.uleb128 0xb
 1897 01a9 59       		.uleb128 0x59
 1898 01aa 0B       		.uleb128 0xb
 1899 01ab 00       		.byte	0
 1900 01ac 00       		.byte	0
 1901 01ad 22       		.uleb128 0x22
 1902 01ae 05       		.uleb128 0x5
 1903 01af 00       		.byte	0
 1904 01b0 31       		.uleb128 0x31
 1905 01b1 13       		.uleb128 0x13
 1906 01b2 02       		.uleb128 0x2
 1907 01b3 18       		.uleb128 0x18
 1908 01b4 00       		.byte	0
 1909 01b5 00       		.byte	0
 1910 01b6 23       		.uleb128 0x23
 1911 01b7 1D       		.uleb128 0x1d
 1912 01b8 00       		.byte	0
 1913 01b9 31       		.uleb128 0x31
 1914 01ba 13       		.uleb128 0x13
 1915 01bb 11       		.uleb128 0x11
 1916 01bc 01       		.uleb128 0x1
 1917 01bd 12       		.uleb128 0x12
 1918 01be 06       		.uleb128 0x6
 1919 01bf 58       		.uleb128 0x58
 1920 01c0 0B       		.uleb128 0xb
 1921 01c1 59       		.uleb128 0x59
 1922 01c2 0B       		.uleb128 0xb
 1923 01c3 00       		.byte	0
 1924 01c4 00       		.byte	0
 1925 01c5 24       		.uleb128 0x24
 1926 01c6 2E       		.uleb128 0x2e
 1927 01c7 01       		.byte	0x1
 1928 01c8 3F       		.uleb128 0x3f
 1929 01c9 19       		.uleb128 0x19
ARM GAS  /tmp/ccCT9eeg.s 			page 48


 1930 01ca 03       		.uleb128 0x3
 1931 01cb 0E       		.uleb128 0xe
 1932 01cc 3A       		.uleb128 0x3a
 1933 01cd 0B       		.uleb128 0xb
 1934 01ce 3B       		.uleb128 0x3b
 1935 01cf 0B       		.uleb128 0xb
 1936 01d0 27       		.uleb128 0x27
 1937 01d1 19       		.uleb128 0x19
 1938 01d2 49       		.uleb128 0x49
 1939 01d3 13       		.uleb128 0x13
 1940 01d4 11       		.uleb128 0x11
 1941 01d5 01       		.uleb128 0x1
 1942 01d6 12       		.uleb128 0x12
 1943 01d7 06       		.uleb128 0x6
 1944 01d8 40       		.uleb128 0x40
 1945 01d9 18       		.uleb128 0x18
 1946 01da 9742     		.uleb128 0x2117
 1947 01dc 19       		.uleb128 0x19
 1948 01dd 01       		.uleb128 0x1
 1949 01de 13       		.uleb128 0x13
 1950 01df 00       		.byte	0
 1951 01e0 00       		.byte	0
 1952 01e1 25       		.uleb128 0x25
 1953 01e2 34       		.uleb128 0x34
 1954 01e3 00       		.byte	0
 1955 01e4 03       		.uleb128 0x3
 1956 01e5 0E       		.uleb128 0xe
 1957 01e6 3A       		.uleb128 0x3a
 1958 01e7 0B       		.uleb128 0xb
 1959 01e8 3B       		.uleb128 0x3b
 1960 01e9 05       		.uleb128 0x5
 1961 01ea 49       		.uleb128 0x49
 1962 01eb 13       		.uleb128 0x13
 1963 01ec 3F       		.uleb128 0x3f
 1964 01ed 19       		.uleb128 0x19
 1965 01ee 3C       		.uleb128 0x3c
 1966 01ef 19       		.uleb128 0x19
 1967 01f0 00       		.byte	0
 1968 01f1 00       		.byte	0
 1969 01f2 26       		.uleb128 0x26
 1970 01f3 34       		.uleb128 0x34
 1971 01f4 00       		.byte	0
 1972 01f5 03       		.uleb128 0x3
 1973 01f6 08       		.uleb128 0x8
 1974 01f7 3A       		.uleb128 0x3a
 1975 01f8 0B       		.uleb128 0xb
 1976 01f9 3B       		.uleb128 0x3b
 1977 01fa 05       		.uleb128 0x5
 1978 01fb 49       		.uleb128 0x49
 1979 01fc 13       		.uleb128 0x13
 1980 01fd 3F       		.uleb128 0x3f
 1981 01fe 19       		.uleb128 0x19
 1982 01ff 3C       		.uleb128 0x3c
 1983 0200 19       		.uleb128 0x19
 1984 0201 00       		.byte	0
 1985 0202 00       		.byte	0
 1986 0203 27       		.uleb128 0x27
ARM GAS  /tmp/ccCT9eeg.s 			page 49


 1987 0204 2E       		.uleb128 0x2e
 1988 0205 00       		.byte	0
 1989 0206 3F       		.uleb128 0x3f
 1990 0207 19       		.uleb128 0x19
 1991 0208 03       		.uleb128 0x3
 1992 0209 0E       		.uleb128 0xe
 1993 020a 3A       		.uleb128 0x3a
 1994 020b 0B       		.uleb128 0xb
 1995 020c 3B       		.uleb128 0x3b
 1996 020d 0B       		.uleb128 0xb
 1997 020e 27       		.uleb128 0x27
 1998 020f 19       		.uleb128 0x19
 1999 0210 3C       		.uleb128 0x3c
 2000 0211 19       		.uleb128 0x19
 2001 0212 00       		.byte	0
 2002 0213 00       		.byte	0
 2003 0214 00       		.byte	0
 2004              		.section	.debug_aranges,"",%progbits
 2005 0000 3C000000 		.4byte	0x3c
 2006 0004 0200     		.2byte	0x2
 2007 0006 00000000 		.4byte	.Ldebug_info0
 2008 000a 04       		.byte	0x4
 2009 000b 00       		.byte	0
 2010 000c 0000     		.2byte	0
 2011 000e 0000     		.2byte	0
 2012 0010 00000000 		.4byte	.LFB270
 2013 0014 04000000 		.4byte	.LFE270-.LFB270
 2014 0018 00000000 		.4byte	.LFB271
 2015 001c 10000000 		.4byte	.LFE271-.LFB271
 2016 0020 00000000 		.4byte	.LFB272
 2017 0024 0A000000 		.4byte	.LFE272-.LFB272
 2018 0028 00000000 		.4byte	.LFB273
 2019 002c 08000000 		.4byte	.LFE273-.LFB273
 2020 0030 00000000 		.4byte	.LFB274
 2021 0034 08000000 		.4byte	.LFE274-.LFB274
 2022 0038 00000000 		.4byte	0
 2023 003c 00000000 		.4byte	0
 2024              		.section	.debug_ranges,"",%progbits
 2025              	.Ldebug_ranges0:
 2026 0000 00000000 		.4byte	.LFB270
 2027 0004 04000000 		.4byte	.LFE270
 2028 0008 00000000 		.4byte	.LFB271
 2029 000c 10000000 		.4byte	.LFE271
 2030 0010 00000000 		.4byte	.LFB272
 2031 0014 0A000000 		.4byte	.LFE272
 2032 0018 00000000 		.4byte	.LFB273
 2033 001c 08000000 		.4byte	.LFE273
 2034 0020 00000000 		.4byte	.LFB274
 2035 0024 08000000 		.4byte	.LFE274
 2036 0028 00000000 		.4byte	0
 2037 002c 00000000 		.4byte	0
 2038              		.section	.debug_line,"",%progbits
 2039              	.Ldebug_line0:
 2040 0000 F6020000 		.section	.debug_str,"MS",%progbits,1
 2040      02007D02 
 2040      00000201 
 2040      FB0E0D00 
ARM GAS  /tmp/ccCT9eeg.s 			page 50


 2040      01010101 
 2041              	.LASF50:
 2042 0000 72656164 		.ascii	"ready_list_t\000"
 2042      795F6C69 
 2042      73745F74 
 2042      00
 2043              	.LASF75:
 2044 000d 44494552 		.ascii	"DIER\000"
 2044      00
 2045              	.LASF89:
 2046 0012 77747472 		.ascii	"wttrp\000"
 2046      7000
 2047              	.LASF46:
 2048 0018 6E657874 		.ascii	"next\000"
 2048      00
 2049              	.LASF56:
 2050 001d 64656C74 		.ascii	"delta\000"
 2050      6100
 2051              	.LASF86:
 2052 0023 7264796D 		.ascii	"rdymsg\000"
 2052      736700
 2053              	.LASF16:
 2054 002a 75696E74 		.ascii	"uint64_t\000"
 2054      36345F74 
 2054      00
 2055              	.LASF5:
 2056 0033 5F5F7569 		.ascii	"__uint8_t\000"
 2056      6E74385F 
 2056      7400
 2057              	.LASF49:
 2058 003d 70726576 		.ascii	"prev\000"
 2058      00
 2059              	.LASF73:
 2060 0042 706F7274 		.ascii	"port_intctx\000"
 2060      5F696E74 
 2060      63747800 
 2061              	.LASF61:
 2062 004e 73797374 		.ascii	"system_debug_t\000"
 2062      656D5F64 
 2062      65627567 
 2062      5F7400
 2063              	.LASF12:
 2064 005d 6C6F6E67 		.ascii	"long long unsigned int\000"
 2064      206C6F6E 
 2064      6720756E 
 2064      7369676E 
 2064      65642069 
 2065              	.LASF87:
 2066 0074 65786974 		.ascii	"exitcode\000"
 2066      636F6465 
 2066      00
 2067              	.LASF68:
 2068 007d 6D61696E 		.ascii	"mainthread\000"
 2068      74687265 
 2068      616400
 2069              	.LASF90:
 2070 0088 73656E74 		.ascii	"sentmsg\000"
ARM GAS  /tmp/ccCT9eeg.s 			page 51


 2070      6D736700 
 2071              	.LASF58:
 2072 0090 76697274 		.ascii	"virtual_timers_list_t\000"
 2072      75616C5F 
 2072      74696D65 
 2072      72735F6C 
 2072      6973745F 
 2073              	.LASF111:
 2074 00a6 49544D5F 		.ascii	"ITM_RxBuffer\000"
 2074      52784275 
 2074      66666572 
 2074      00
 2075              	.LASF118:
 2076 00b3 73745F6C 		.ascii	"st_lld_init\000"
 2076      6C645F69 
 2076      6E697400 
 2077              	.LASF79:
 2078 00bf 42445452 		.ascii	"BDTR\000"
 2078      00
 2079              	.LASF48:
 2080 00c4 63685F74 		.ascii	"ch_threads_queue\000"
 2080      68726561 
 2080      64735F71 
 2080      75657565 
 2080      00
 2081              	.LASF76:
 2082 00d5 43434D52 		.ascii	"CCMR1\000"
 2082      3100
 2083              	.LASF77:
 2084 00db 43434D52 		.ascii	"CCMR2\000"
 2084      3200
 2085              	.LASF81:
 2086 00e1 43434D52 		.ascii	"CCMR3\000"
 2086      3300
 2087              	.LASF1:
 2088 00e7 7369676E 		.ascii	"signed char\000"
 2088      65642063 
 2088      68617200 
 2089              	.LASF67:
 2090 00f3 76746C69 		.ascii	"vtlist\000"
 2090      737400
 2091              	.LASF37:
 2092 00fa 6D736771 		.ascii	"msgqueue\000"
 2092      75657565 
 2092      00
 2093              	.LASF33:
 2094 0103 73746174 		.ascii	"state\000"
 2094      6500
 2095              	.LASF7:
 2096 0109 6C6F6E67 		.ascii	"long int\000"
 2096      20696E74 
 2096      00
 2097              	.LASF18:
 2098 0112 746D6F64 		.ascii	"tmode_t\000"
 2098      655F7400 
 2099              	.LASF19:
 2100 011a 74737461 		.ascii	"tstate_t\000"
ARM GAS  /tmp/ccCT9eeg.s 			page 52


 2100      74655F74 
 2100      00
 2101              	.LASF57:
 2102 0123 66756E63 		.ascii	"func\000"
 2102      00
 2103              	.LASF78:
 2104 0128 43434552 		.ascii	"CCER\000"
 2104      00
 2105              	.LASF10:
 2106 012d 6C6F6E67 		.ascii	"long long int\000"
 2106      206C6F6E 
 2106      6720696E 
 2106      7400
 2107              	.LASF27:
 2108 013b 71756575 		.ascii	"queue\000"
 2108      6500
 2109              	.LASF8:
 2110 0141 5F5F7569 		.ascii	"__uint32_t\000"
 2110      6E743332 
 2110      5F7400
 2111              	.LASF70:
 2112 014c 72656761 		.ascii	"regarm_t\000"
 2112      726D5F74 
 2112      00
 2113              	.LASF103:
 2114 0155 7374496E 		.ascii	"stInit\000"
 2114      697400
 2115              	.LASF36:
 2116 015c 77616974 		.ascii	"waiting\000"
 2116      696E6700 
 2117              	.LASF98:
 2118 0164 6D757465 		.ascii	"mutex_t\000"
 2118      785F7400 
 2119              	.LASF24:
 2120 016c 636E745F 		.ascii	"cnt_t\000"
 2120      7400
 2121              	.LASF0:
 2122 0172 756E7369 		.ascii	"unsigned int\000"
 2122      676E6564 
 2122      20696E74 
 2122      00
 2123              	.LASF91:
 2124 017f 77747365 		.ascii	"wtsemp\000"
 2124      6D7000
 2125              	.LASF9:
 2126 0186 6C6F6E67 		.ascii	"long unsigned int\000"
 2126      20756E73 
 2126      69676E65 
 2126      6420696E 
 2126      7400
 2127              	.LASF113:
 2128 0198 2E2E2F43 		.ascii	"../ChibiOS/os/hal/src/hal_st.c\000"
 2128      68696269 
 2128      4F532F6F 
 2128      732F6861 
 2128      6C2F7372 
 2129              	.LASF31:
ARM GAS  /tmp/ccCT9eeg.s 			page 53


 2130 01b7 6E616D65 		.ascii	"name\000"
 2130      00
 2131              	.LASF41:
 2132 01bc 6D706F6F 		.ascii	"mpool\000"
 2132      6C00
 2133              	.LASF74:
 2134 01c2 534D4352 		.ascii	"SMCR\000"
 2134      00
 2135              	.LASF44:
 2136 01c7 63685F74 		.ascii	"ch_thread\000"
 2136      68726561 
 2136      6400
 2137              	.LASF22:
 2138 01d1 6D73675F 		.ascii	"msg_t\000"
 2138      7400
 2139              	.LASF38:
 2140 01d7 6570656E 		.ascii	"epending\000"
 2140      64696E67 
 2140      00
 2141              	.LASF64:
 2142 01e0 63685F73 		.ascii	"ch_system_t\000"
 2142      79737465 
 2142      6D5F7400 
 2143              	.LASF83:
 2144 01ec 73746D33 		.ascii	"stm32_tim_t\000"
 2144      325F7469 
 2144      6D5F7400 
 2145              	.LASF51:
 2146 01f8 63685F72 		.ascii	"ch_ready_list\000"
 2146      65616479 
 2146      5F6C6973 
 2146      7400
 2147              	.LASF23:
 2148 0206 6576656E 		.ascii	"eventmask_t\000"
 2148      746D6173 
 2148      6B5F7400 
 2149              	.LASF6:
 2150 0212 5F5F696E 		.ascii	"__int32_t\000"
 2150      7433325F 
 2150      7400
 2151              	.LASF100:
 2152 021c 73745F6C 		.ascii	"st_lld_start_alarm\000"
 2152      6C645F73 
 2152      74617274 
 2152      5F616C61 
 2152      726D00
 2153              	.LASF71:
 2154 022f 73746B61 		.ascii	"stkalign_t\000"
 2154      6C69676E 
 2154      5F7400
 2155              	.LASF29:
 2156 023a 6E657765 		.ascii	"newer\000"
 2156      7200
 2157              	.LASF40:
 2158 0240 7265616C 		.ascii	"realprio\000"
 2158      7072696F 
 2158      00
ARM GAS  /tmp/ccCT9eeg.s 			page 54


 2159              	.LASF69:
 2160 0249 73697A65 		.ascii	"sizetype\000"
 2160      74797065 
 2160      00
 2161              	.LASF42:
 2162 0252 74687265 		.ascii	"thread_reference_t\000"
 2162      61645F72 
 2162      65666572 
 2162      656E6365 
 2162      5F7400
 2163              	.LASF59:
 2164 0265 63685F76 		.ascii	"ch_virtual_timers_list\000"
 2164      69727475 
 2164      616C5F74 
 2164      696D6572 
 2164      735F6C69 
 2165              	.LASF72:
 2166 027c 706F7274 		.ascii	"port_context\000"
 2166      5F636F6E 
 2166      74657874 
 2166      00
 2167              	.LASF85:
 2168 0289 746D5F63 		.ascii	"tm_calibration_t\000"
 2168      616C6962 
 2168      72617469 
 2168      6F6E5F74 
 2168      00
 2169              	.LASF102:
 2170 029a 74696D65 		.ascii	"time\000"
 2170      00
 2171              	.LASF28:
 2172 029f 7072696F 		.ascii	"prio\000"
 2172      00
 2173              	.LASF52:
 2174 02a4 63757272 		.ascii	"current\000"
 2174      656E7400 
 2175              	.LASF11:
 2176 02ac 5F5F7569 		.ascii	"__uint64_t\000"
 2176      6E743634 
 2176      5F7400
 2177              	.LASF20:
 2178 02b7 74726566 		.ascii	"trefs_t\000"
 2178      735F7400 
 2179              	.LASF35:
 2180 02bf 72656673 		.ascii	"refs\000"
 2180      00
 2181              	.LASF54:
 2182 02c4 76697274 		.ascii	"virtual_timer_t\000"
 2182      75616C5F 
 2182      74696D65 
 2182      725F7400 
 2183              	.LASF21:
 2184 02d4 74707269 		.ascii	"tprio_t\000"
 2184      6F5F7400 
 2185              	.LASF114:
 2186 02dc 2F6E6673 		.ascii	"/nfs/nfs7/home/npalumbo/p442-submissions/lab3\000"
 2186      2F6E6673 
ARM GAS  /tmp/ccCT9eeg.s 			page 55


 2186      372F686F 
 2186      6D652F6E 
 2186      70616C75 
 2187              	.LASF62:
 2188 030a 63685F73 		.ascii	"ch_system_debug\000"
 2188      79737465 
 2188      6D5F6465 
 2188      62756700 
 2189              	.LASF99:
 2190 031a 5F426F6F 		.ascii	"_Bool\000"
 2190      6C00
 2191              	.LASF14:
 2192 0320 696E7433 		.ascii	"int32_t\000"
 2192      325F7400 
 2193              	.LASF2:
 2194 0328 756E7369 		.ascii	"unsigned char\000"
 2194      676E6564 
 2194      20636861 
 2194      7200
 2195              	.LASF109:
 2196 0336 5F5F6675 		.ascii	"__func__.7079\000"
 2196      6E635F5F 
 2196      2E373037 
 2196      3900
 2197              	.LASF3:
 2198 0344 73686F72 		.ascii	"short int\000"
 2198      7420696E 
 2198      7400
 2199              	.LASF60:
 2200 034e 6C617374 		.ascii	"lasttime\000"
 2200      74696D65 
 2200      00
 2201              	.LASF93:
 2202 0357 65776D61 		.ascii	"ewmask\000"
 2202      736B00
 2203              	.LASF65:
 2204 035e 63685F73 		.ascii	"ch_system\000"
 2204      79737465 
 2204      6D00
 2205              	.LASF13:
 2206 0368 75696E74 		.ascii	"uint8_t\000"
 2206      385F7400 
 2207              	.LASF55:
 2208 0370 63685F76 		.ascii	"ch_virtual_timer\000"
 2208      69727475 
 2208      616C5F74 
 2208      696D6572 
 2208      00
 2209              	.LASF116:
 2210 0381 73745F6C 		.ascii	"st_lld_get_alarm\000"
 2210      6C645F67 
 2210      65745F61 
 2210      6C61726D 
 2210      00
 2211              	.LASF94:
 2212 0392 63685F73 		.ascii	"ch_semaphore\000"
 2212      656D6170 
ARM GAS  /tmp/ccCT9eeg.s 			page 56


 2212      686F7265 
 2212      00
 2213              	.LASF82:
 2214 039f 43435852 		.ascii	"CCXR\000"
 2214      00
 2215              	.LASF15:
 2216 03a4 75696E74 		.ascii	"uint32_t\000"
 2216      33325F74 
 2216      00
 2217              	.LASF92:
 2218 03ad 77746D74 		.ascii	"wtmtxp\000"
 2218      787000
 2219              	.LASF45:
 2220 03b4 63685F74 		.ascii	"ch_threads_list\000"
 2220      68726561 
 2220      64735F6C 
 2220      69737400 
 2221              	.LASF96:
 2222 03c4 6F776E65 		.ascii	"owner\000"
 2222      7200
 2223              	.LASF32:
 2224 03ca 77616261 		.ascii	"wabase\000"
 2224      736500
 2225              	.LASF105:
 2226 03d1 73745374 		.ascii	"stStopAlarm\000"
 2226      6F70416C 
 2226      61726D00 
 2227              	.LASF97:
 2228 03dd 63686172 		.ascii	"char\000"
 2228      00
 2229              	.LASF30:
 2230 03e2 6F6C6465 		.ascii	"older\000"
 2230      7200
 2231              	.LASF80:
 2232 03e8 444D4152 		.ascii	"DMAR\000"
 2232      00
 2233              	.LASF26:
 2234 03ed 74687265 		.ascii	"thread_t\000"
 2234      61645F74 
 2234      00
 2235              	.LASF25:
 2236 03f6 73797374 		.ascii	"systime_t\000"
 2236      696D655F 
 2236      7400
 2237              	.LASF108:
 2238 0400 5F5F6675 		.ascii	"__func__.7072\000"
 2238      6E635F5F 
 2238      2E373037 
 2238      3200
 2239              	.LASF53:
 2240 040e 76746675 		.ascii	"vtfunc_t\000"
 2240      6E635F74 
 2240      00
 2241              	.LASF63:
 2242 0417 70616E69 		.ascii	"panic_msg\000"
 2242      635F6D73 
 2242      6700
ARM GAS  /tmp/ccCT9eeg.s 			page 57


 2243              	.LASF84:
 2244 0421 6F666673 		.ascii	"offset\000"
 2244      657400
 2245              	.LASF104:
 2246 0428 73745374 		.ascii	"stStartAlarm\000"
 2246      61727441 
 2246      6C61726D 
 2246      00
 2247              	.LASF4:
 2248 0435 73686F72 		.ascii	"short unsigned int\000"
 2248      7420756E 
 2248      7369676E 
 2248      65642069 
 2248      6E7400
 2249              	.LASF17:
 2250 0448 7274636E 		.ascii	"rtcnt_t\000"
 2250      745F7400 
 2251              	.LASF115:
 2252 0450 73745F6C 		.ascii	"st_lld_stop_alarm\000"
 2252      6C645F73 
 2252      746F705F 
 2252      616C6172 
 2252      6D00
 2253              	.LASF47:
 2254 0462 74687265 		.ascii	"threads_queue_t\000"
 2254      6164735F 
 2254      71756575 
 2254      655F7400 
 2255              	.LASF95:
 2256 0472 63685F6D 		.ascii	"ch_mutex\000"
 2256      75746578 
 2256      00
 2257              	.LASF66:
 2258 047b 726C6973 		.ascii	"rlist\000"
 2258      7400
 2259              	.LASF106:
 2260 0481 73745365 		.ascii	"stSetAlarm\000"
 2260      74416C61 
 2260      726D00
 2261              	.LASF110:
 2262 048c 5F5F6675 		.ascii	"__func__.7083\000"
 2262      6E635F5F 
 2262      2E373038 
 2262      3300
 2263              	.LASF34:
 2264 049a 666C6167 		.ascii	"flags\000"
 2264      7300
 2265              	.LASF112:
 2266 04a0 474E5520 		.ascii	"GNU C 4.8.4 20140526 (release) [ARM/embedded-4_8-br"
 2266      4320342E 
 2266      382E3420 
 2266      32303134 
 2266      30353236 
 2267 04d3 616E6368 		.ascii	"anch revision 211358] -mcpu=cortex-m4 -mno-thumb-in"
 2267      20726576 
 2267      6973696F 
 2267      6E203231 
ARM GAS  /tmp/ccCT9eeg.s 			page 58


 2267      31333538 
 2268 0506 74657277 		.ascii	"terwork -mthumb -ggdb -O2 -fomit-frame-pointer -fal"
 2268      6F726B20 
 2268      2D6D7468 
 2268      756D6220 
 2268      2D676764 
 2269 0539 69676E2D 		.ascii	"ign-functions=16 -ffunction-sections -fdata-section"
 2269      66756E63 
 2269      74696F6E 
 2269      733D3136 
 2269      202D6666 
 2270 056c 73202D66 		.ascii	"s -fno-common -flto\000"
 2270      6E6F2D63 
 2270      6F6D6D6F 
 2270      6E202D66 
 2270      6C746F00 
 2271              	.LASF117:
 2272 0580 73744765 		.ascii	"stGetAlarm\000"
 2272      74416C61 
 2272      726D00
 2273              	.LASF88:
 2274 058b 77746F62 		.ascii	"wtobjp\000"
 2274      6A7000
 2275              	.LASF43:
 2276 0592 74687265 		.ascii	"threads_list_t\000"
 2276      6164735F 
 2276      6C697374 
 2276      5F7400
 2277              	.LASF107:
 2278 05a1 61627374 		.ascii	"abstime\000"
 2278      696D6500 
 2279              	.LASF101:
 2280 05a9 73745F6C 		.ascii	"st_lld_set_alarm\000"
 2280      6C645F73 
 2280      65745F61 
 2280      6C61726D 
 2280      00
 2281              	.LASF39:
 2282 05ba 6D74786C 		.ascii	"mtxlist\000"
 2282      69737400 
 2283              		.comm	__gnu_lto_v1,1,1
 2284              		.ident	"GCC: (GNU Tools for ARM Embedded Processors) 4.8.4 20140526 (release) [ARM/embedded-4_8-br
ARM GAS  /tmp/ccCT9eeg.s 			page 59


DEFINED SYMBOLS
                            *ABS*:00000000 hal_st.c
     /tmp/ccCT9eeg.s:250    .text.stInit:00000000 $t
     /tmp/ccCT9eeg.s:256    .text.stInit:00000000 stInit
     /tmp/ccCT9eeg.s:271    .text.stStartAlarm:00000000 $t
     /tmp/ccCT9eeg.s:277    .text.stStartAlarm:00000000 stStartAlarm
     /tmp/ccCT9eeg.s:308    .text.stStopAlarm:00000000 $t
     /tmp/ccCT9eeg.s:314    .text.stStopAlarm:00000000 stStopAlarm
     /tmp/ccCT9eeg.s:334    .text.stSetAlarm:00000000 $t
     /tmp/ccCT9eeg.s:340    .text.stSetAlarm:00000000 stSetAlarm
     /tmp/ccCT9eeg.s:361    .text.stGetAlarm:00000000 $t
     /tmp/ccCT9eeg.s:367    .text.stGetAlarm:00000000 stGetAlarm
                            *COM*:00000001 __gnu_lto_v1
                     .debug_frame:00000010 $d

UNDEFINED SYMBOLS
st_lld_init
