ARM GAS  /tmp/cc1kgnVI.s 			page 1


   1              		.syntax unified
   2              		.cpu cortex-m4
   3              		.fpu softvfp
   4              		.eabi_attribute 20, 1
   5              		.eabi_attribute 21, 1
   6              		.eabi_attribute 23, 3
   7              		.eabi_attribute 24, 1
   8              		.eabi_attribute 25, 1
   9              		.eabi_attribute 26, 1
  10              		.eabi_attribute 30, 2
  11              		.eabi_attribute 34, 1
  12              		.eabi_attribute 18, 4
  13              		.thumb
  14              		.file	"memstreams.c"
  15              		.text
  16              	.Ltext0:
  17              		.section	.gnu.lto_.jmpfuncs.270aaa2195134e7c,"",%progbits
  18 0000 789C6362 		.ascii	"x\234cb`b\300\006T\2404+\0033##\023;33\003\003c\031"
  18      6062C006 
  18      54A0342B 
  18      03332323 
  18      133B3333 
  19 0018 23588899 		.ascii	"#X\210\231\035\310\201\363Y\370\031\000\032\264\001"
  19      1DC881F3 
  19      59F81900 
  19      1AB401
  20 0027 55       		.ascii	"U"
  21              		.text
  22              		.section	.gnu.lto_.inline.270aaa2195134e7c,"",%progbits
  23 0000 789C6362 		.ascii	"x\234cb`b\300\006\032\031!4+\003\003/\017#3\003\220"
  23      6062C006 
  23      1A192134 
  23      2B03032F 
  23      0F233303 
  24 0015 CBEC0026 		.ascii	"\313\354\000&\023\300\244\002\027\333\004=\006\216\013"
  24      13C0A402 
  24      17DB043D 
  24      068E0B
  25 0024 7A4C0C8C 		.ascii	"zL\014\214/\330Y $\210\340\00039\030X\026\310\36300"
  25      2FD85920 
  25      2488E000 
  25      33391858 
  25      16C8F330 
  26 0039 DE601760 		.ascii	"\336`\027`\002\223\014L\033\370%@\00622\360pC\315\203"
  26      02930C4C 
  26      1BF82540 
  26      063232F0 
  26      7043CD83 
  27 004d 98D4C008 		.ascii	"\230\324\300\0105\220\271C\234\201\375\207\032\026\003"
  27      3590B943 
  27      9C81FD87 
  27      1A1603
  28 005c 996788E3 		.ascii	"\231g\210\3436\220\211AP\222\221\005\305@&F\210M@S\271"
  28      36908941 
  28      50929105 
  28      C5402646 
  28      884D4053 
ARM GAS  /tmp/cc1kgnVI.s 			page 2


  29 0071 81DA1838 		.ascii	"\201\332\0308>\340t&\323\005~\036\220\3212 \256\002"
  29      3EE07426 
  29      D3057E1E 
  29      90D13220 
  29      AE02
  30 0083 58500124 		.ascii	"XP\001$\250\0012\201\205\027h\304\004?\020dF\330\002"
  30      A8013281 
  30      851768C4 
  30      043F1064 
  30      46D802
  31 0096 0D061A58 		.ascii	"\015\006\032X\302\302\300\301\316\310\300\304\332\241"
  31      C2C2C0C1 
  31      CEC8C0C4 
  31      DAA1
  32 00a4 CEC0BDC2 		.ascii	"\316\300\275\302\015\0221\000-\3633\312"
  32      0D123100 
  32      2DF333CA 
  33              		.text
  34              		.section	.gnu.lto_.pureconst.270aaa2195134e7c,"",%progbits
  35 0000 789C6362 		.ascii	"x\234cb`b\340f\200\000V\006)F)&)f)\026)\000\004)\000"
  35      6062E066 
  35      80005606 
  35      29462926 
  35      29662916 
  36 0019 A1       		.ascii	"\241"
  37              		.text
  38              		.section	.gnu.lto_put.270aaa2195134e7c,"",%progbits
  39 0000 789C8D92 		.ascii	"x\234\215\222\317K\033A\024\307\337wfw\223\230X{\360"
  39      CF4B1B41 
  39      14C7DF77 
  39      66779398 
  39      587BF0
  40 0013 D25BF068 		.ascii	"\322[\360h \213\364O\350\251\247\036j\300\036\223 q"
  40      208BF44F 
  40      E8A9A71E 
  40      6AC01E93 
  40      2071
  41 0025 C14531BD 		.ascii	"\301E1\275g\242\036\012\275\204\022\260UA\355\241\202"
  41      67A21E0A 
  41      BD8412B0 
  41      5541EDA1 
  41      82
  42 0036 94DAD28B 		.ascii	"\224\332\322\213\307\034$(\375A<\352)\020\320\213\027"
  42      C71C2428 
  42      FD413CEA 
  42      2910D08B 
  42      17
  43 0047 6F3D19DF 		.ascii	"o=\031\337\233u\267\020J\333\201}3\373\336\373|\347"
  43      9B75B710 
  43      4ADB817D 
  43      33FBDEFB 
  43      7CE7
  44 0059 BD9951A4 		.ascii	"\275\231Q\244ht<\346o\235\3353<\303%\250\326O\242fZ"
  44      68743CE6 
  44      6F9DDD33 
  44      3CC325A8 
  44      D64FA266 
ARM GAS  /tmp/cc1kgnVI.s 			page 3


  45 006e 29670764 		.ascii	")g\007d\306\364\315w\"\223\323p\"\277\003\310\202@\015"
  45      C6F4CD77 
  45      2293D370 
  45      22BF03C8 
  45      82400D
  46 0081 A51D345E 		.ascii	"\245\0354^\300\252\034\252N\1778\374\324\356\356\177"
  46      C0AA1CAA 
  46      4E7F38FC 
  46      D4EEEE7F 
  47 0091 C43BF500 		.ascii	"\304;\365\000\024\2004B\220\313+xbRlTZL\206\003\310"
  47      14803442 
  47      90CB2B78 
  47      62526C54 
  47      5A4C8603 
  48 00a6 8A2F2786 		.ascii	"\212/'\206q\227\326\215i\345\247h\317\2307\235\215n"
  48      7197D68D 
  48      69E5A768 
  48      CF98379D 
  48      8D6E
  49 00b8 FB91D95D 		.ascii	"\373\221\331]m\231\333\341\020\001\264\242\"\250\012"
  49      6D99DBE1 
  49      1001B4A2 
  49      22A80A
  50 00c7 9AE31F27 		.ascii	"\232\343\037'o'\327\031\355\243j\013\231e+\365\225\240"
  50      6F27D719 
  50      EDA36A0B 
  50      99652BF5 
  50      95A0
  51 00d9 64D6A7A4 		.ascii	"d\326\247\244\312\330\343\276\312x\217)\252A\023\375"
  51      CAD8E3BE 
  51      CA788F29 
  51      AA4113FD 
  52 00e9 A0D58BA3 		.ascii	"\240\325\213\243A\017Q\240\006\267@\323\001\274-\332"
  52      410F51A0 
  52      06B740D3 
  52      01BC2DDA 
  53 00f9 64E114A7 		.ascii	"d\341\024\247\310\006\332\212V\020\313\013\324\313\306"
  53      C806DA8A 
  53      5610CB0B 
  53      D4CBC6
  54 0108 88F73724 		.ascii	"\210\3677$fN\350\370\2529\236\354\302\324\357jK\234"
  54      664EE8F8 
  54      AA399EEC 
  54      C2D4EF6A 
  54      4B9C
  55 011a CD27AB45 		.ascii	"\315'\253E\366\327\240\223\324\222\262\302\352\317\302"
  55      F6D7A093 
  55      D492B2C2 
  55      EACFC2
  56 0129 2AA965ED 		.ascii	"*\251e\355\365\332\207\204I\327$\323\2635~\373<\021"
  56      F5DA8784 
  56      49D724D3 
  56      B3357EFB 
  56      3C11
  57 013b B959A169 		.ascii	"\271Y\241i\214I\005\022N\213JD\327\220\211\232y{\331"
  57      8C490512 
  57      4E8B4A44 
ARM GAS  /tmp/cc1kgnVI.s 			page 4


  57      D790899A 
  57      797BD9
  58 014e 4F14B205 		.ascii	"O\024\262\005:\340\344\207\377l\211w~\245c*\307\240"
  58      3AE0E487 
  58      FF6C8977 
  58      7EA5632A 
  58      C7A0
  59 0160 247988CE 		.ascii	"$y\210\316\347i\024\370?-\306\343\223p\354M\235\361"
  59      E76914F8 
  59      3F2DC6E3 
  59      9370EC4D 
  59      9DF1
  60 0172 E312B70D 		.ascii	"\343\022\267\015\237\023\004!~\000\321@C]\177\231\264"
  60      9F130421 
  60      7E00D140 
  60      435D7F99 
  60      B4
  61 0183 3E22BDFD 		.ascii	">\"\275\3755'W\015\001\245\255B\261\350?Y\010*\301\263"
  61      3527570D 
  61      01A5AD42 
  61      B1E83F59 
  61      082AC1B3 
  62 0197 E7FE52DD 		.ascii	"\347\376R\335_(/\372\213A\305\257\277\\\231/\207u?\234"
  62      5F282FFA 
  62      8B41C5AF 
  62      BF5C992F 
  62      87753F9C 
  63 01ab 0FEF97C5 		.ascii	"\017\357\227\305*\351\260\276|\007\2402\2372"
  63      2AE9B0BE 
  63      7C07A032 
  63      9F32
  64              		.text
  65              		.section	.gnu.lto_get.270aaa2195134e7c,"",%progbits
  66 0000 789C8592 		.ascii	"x\234\205\222\317k\023A\024\307\337wf7\233\304\024+"
  66      CF6B1341 
  66      14C7DF77 
  66      66379BC4 
  66      142B
  67 0012 94424F16 		.ascii	"\224BO\026\217\006\262\202\177\202'O\036\264\320\036"
  67      8F06B282 
  67      7F82274F 
  67      1EB4D01E 
  68 0022 37A1A40B 		.ascii	"7\241\244\013]*\306{&\211\202 \205 \202b\005\033\252"
  68      5D2AC67B 
  68      26898220 
  68      85208262 
  68      051BAA
  69 0035 974269A1 		.ascii	"\227Bi\241\264\207\202\220\203\210\205(\366V=\305S\241"
  69      B4878290 
  69      83888528 
  69      F6563DC5 
  69      53A1
  70 0047 07D1BB18 		.ascii	"\007\321\273\030\337\233\311\256XD\007\362f2\363\276"
  70      DF9BC9AE 
  70      584407F2 
  70      6632F3BE 
  71 0057 9FF76B15 		.ascii	"\237\367k\025):\273\256\362\357@\271\035>Au?\020\265"
ARM GAS  /tmp/cc1kgnVI.s 			page 5


  71      293ABBAE 
  71      F2EF40B9 
  71      1D3E4175 
  71      3F10B5
  72 006a F24A792F 		.ascii	"\362Jy/@\246\250\277\017\210LI\303s\367\036 \007\002"
  72      40A6A8BF 
  72      0F884C49 
  72      C373F71E 
  72      200702
  73 007d 3595F6D0 		.ascii	"5\225\366\320\\\200@p\211z\306<\032\276:9\306\023\323"
  73      5C804070 
  73      897AC63C 
  73      1ABE3A39 
  73      C613D3
  74 0090 6FAD9B1F 		.ascii	"o\255\233\037\243\021\020\203\003V@5\320<\377A\336n"
  74      A3111083 
  74      03564035 
  74      D03CFF41 
  74      DE6E
  75 00a2 0A7F66B0 		.ascii	"\012\177f\260\255\372\303\321h\260\373\355\313\026."
  75      ADFAC3D1 
  75      68B0FBED 
  75      CB162E
  76 00b1 4C806268 		.ascii	"L\200bh\215\004\344\363\311\313\211\011\330\370y1\005"
  76      8D04E4F3 
  76      C9CB8909 
  76      D8F87931 
  76      05
  77 00c2 8AD0E368 		.ascii	"\212\320\343hE\271.\211+\003|\272gLw\326\275\270L\372"
  77      45B92E89 
  77      2B037CBA 
  77      674C77D6 
  77      BDB84CFA 
  78 00d6 AFDF3E9E 		.ascii	"\257\337>\2361\353\355\256\371\311\211\304\310)\272"
  78      31EBEDAE 
  78      F9C989C4 
  78      C829BA
  79 00e5 F23B8F59 		.ascii	"\362;\217Y\227\207w\266\0275\233\331-\266R\343\034\224"
  79      978777B6 
  79      17359BD9 
  79      2DB652E3 
  79      1C94
  80 00f7 ECFA9054 		.ascii	"\354\372\220T\204\015\356M\204\227\034\240.1\337S\373"
  80      840DEE4D 
  80      84971CA0 
  80      2E31DF53 
  80      FB
  81 0108 F3D3D38F 		.ascii	"\363\323\323\217p\017u\370e\272\034#X\243g\014\316\263"
  81      700F75F8 
  81      65BA1C23 
  81      58A3670C 
  81      CEB3
  82 011a 8B04C859 		.ascii	"\213\004\310Yh5+WD;\347RI\356_\222T\363\216\336\234"
  82      68352B57 
  82      443BE752 
  82      49EE5F92 
  82      54F38EDE 
ARM GAS  /tmp/cc1kgnVI.s 			page 6


  83 012f B426B228 		.ascii	"\264&\262(\365\261\203]s\234\010OG\013\366\370t\230"
  83      F5B1835D 
  83      739C084F 
  83      470BF6F8 
  83      7498
  84 0141 E51258B0 		.ascii	"\345\022X\260\377w\260\312r\351<\354\354g\032v\013,"
  84      FF77B0CA 
  84      72E93CEC 
  84      EC671A76 
  84      0B2C
  85 0153 9C6107F7 		.ascii	"\234a\007\367\247\323\353\002CZ\306\230\363<Iv\022\220"
  85      A7D3EB02 
  85      435AC698 
  85      F33C4976 
  85      1290
  86 0165 3F061C52 		.ascii	"?\006\034R\273\357\247}\351\331\276\024,\366Ag{\365"
  86      BBEFA77D 
  86      E9D9BE14 
  86      2CF64167 
  86      7BF5
  87 0177 620A2832 		.ascii	"b\012(2TT\001\\\375\327\335C\2316\231:\371\237\362Y"
  87      5454015C 
  87      FDD7DD43 
  87      9936993A 
  87      F99FF259 
  88 018b 6E455F3B 		.ascii	"nE_;\273\253:%\226l\034W\277g\347s\304\237\2458[\321"
  88      BBAB3A25 
  88      966C1C57 
  88      BF67E773 
  88      C49FA538 
  89 01a1 27828034 		.ascii	"'\202\2004\217\335-4\325\363\275)\326\351\301^I\206"
  89      8FDD2D34 
  89      D5F3BD29 
  89      D6E9C15E 
  89      4986
  90 01b3 0B11491B 		.ascii	"\013\021I\033\312\225Jxm)\256\3067n\206+\215p)Z\016"
  90      CA954A78 
  90      6D29AEC6 
  90      376E862B 
  90      8D70295A 
  91 01c8 97E36AD8 		.ascii	"\227\343j\330\270{g1J\032a\262\230\214\217\225\032\241"
  91      B87B6731 
  91      4A1A61B2 
  91      988C8F95 
  91      1AA1
  92 01da AA93C6ED 		.ascii	"\252\223\306\355_c\206\260k"
  92      5F6386B0 
  92      6B
  93              		.text
  94              		.section	.gnu.lto_reads.270aaa2195134e7c,"",%progbits
  95 0000 789C8D52 		.ascii	"x\234\215R\277k\024A\030}ofvo\357\274\363\"XKH\351\301"
  95      BF6B1441 
  95      187D6F66 
  95      766FEFBC 
  95      F322584B 
  96 0017 2DFA2F58 		.ascii	"-\372/XYYh \226wG\274,dQ<;\213\314\335Y\234\330\204"
  96      59596820 
ARM GAS  /tmp/cc1kgnVI.s 			page 7


  96      967747BC 
  96      2C64513C 
  96      3B8BCCDD 
  97 002f 94118404 		.ascii	"\224\021\204\004\322\244H\304J!E\212\024\006\374\201"
  97      D2A448C4 
  97      4A21458A 
  97      1406FC81 
  98 003f 90426D72 		.ascii	"\220Bmr \326\006lD\204\365\233\335\033#!\030\007\366"
  98      20D6066C 
  98      4484F59B 
  98      DD1B2321 
  98      1807F6
  99 0052 9BD9F77D 		.ascii	"\233\331\367}\357\315\373>FA\341\344\272*\337\013\201"
  99      EFCDFB3E 
  99      4641E1E4 
  99      BA2ADF0B 
  99      81
 100 0063 AFC8CE00 		.ascii	"\257\310\316\000T\313\357\200~\244\224>\210a+f\347\022"
 100      54CBEF80 
 100      7EA4943E 
 100      88612B66 
 100      E712
 101 0075 6C55D314 		.ascii	"lU\323\024\260!\335\001\304\222\322\206K\267\231\213"
 101      B021DD01 
 101      C492D286 
 101      4BB7998B 
 102 0085 6CABDD71 		.ascii	"l\253\335q\226m\035\275\3722\342\205:\221\022\212)i"
 102      966D1DBD 
 102      FA32E285 
 102      3A91128A 
 102      2969
 103 0097 9010810B 		.ascii	"\220\020\201\013\241\013%\301\020\311\211e\011\252\""
 103      A10B25C1 
 103      10C98965 
 103      09AA22
 104 00a6 BFAAEA12 		.ascii	"\277\252\352\0225\027d\005xd\355\362\364\014\326\254"
 104      35176405 
 104      7864EDF2 
 104      F40CD6AC 
 105 00b6 5DD9FDBE 		.ascii	"]\331\375\276\261O\273b\373GYVO\250\025\232D\207\230"
 105      B14FBB62 
 105      FB475956 
 105      4FA8159A 
 105      448798
 106 00c9 6342339D 		.ascii	"cB3\235o\2019\331N'\327\271%\321\371\234\245r\273\336"
 106      6F8139D9 
 106      4E27D7B9 
 106      25D1F99C 
 106      A572BBDE 
 107 00dd 876A714D 		.ascii	"\207jqM\332kq\2353\350\012\214\267\030|\376\361\254"
 107      DA6B719D 
 107      33E80A8C 
 107      B7187CFE 
 107      F1AC
 108 00ef 56E05D9A 		.ascii	"V\340]\232\006.'\014\237bUtKR\341\364u\256\331\246W"
 108      062E270C 
 108      9F625574 
ARM GAS  /tmp/cc1kgnVI.s 			page 8


 108      4B52E1F4 
 108      75AED9A6 
 109 0104 779CE7E7 		.ascii	"w\234\347\347<%\370\027\205\177(\303\307\303uzN(7\011"
 109      3C25F817 
 109      857F28C3 
 109      C7C3757A 
 109      4E283709 
 110 0118 13788DBD 		.ascii	"\023x\215\275\257\375\332_p\351\270\211YQ9\210\305\365"
 110      AFFDDA5F 
 110      70E9B889 
 110      59513988 
 110      C5F5
 111 012a 60FCEB7C 		.ascii	"`\374\353|Q\"\203\223*\2376\223\256\006\021\212\014"
 111      51228393 
 111      2A9F3693 
 111      AE06118A 
 111      0C
 112 013b 0B6F2F0F 		.ascii	"\013o/\017/z\305(7\307\323\315\251csO\206w<\245,\254"
 112      2F7AC528 
 112      37C7D3CD 
 112      A963734F 
 112      86773CA5 
 113 0151 DCDB7B84 		.ascii	"\334\333{\204\005\006<\304O;\262S\011\243\316\244\245"
 113      05063CC4 
 113      4F3BB253 
 113      09A3CEA4 
 113      A5
 114 0162 2E2B79A9 		.ascii	".+y\251\310\225\213[?\036\326\275D\265\201Mk]\375\331"
 114      C8958B5B 
 114      3F1ED6BD 
 114      44B5814D 
 114      6B5DFDD9 
 115 0176 631969CF 		.ascii	"c\031i\317\252\011\321\367p\275\000\377OG\250\300\007"
 115      AA09D1F7 
 115      70BD00FF 
 115      4F47A8C0 
 115      07
 116 0187 F4C759E8 		.ascii	"\364\307Y\350\265\362\304'P\006\252$\204\372\3157\272"
 116      B5F2C427 
 116      5006AA24 
 116      84FACD37 
 116      BA
 117 0198 07413732 		.ascii	"\007A72\327w\243\331\214\257-$\355\344\306\315\370n"
 117      D777A3D9 
 117      8CAF2D24 
 117      EDE4C6CD 
 117      F86E
 118 01aa 2F5E682D 		.ascii	"/^h-\306\213I;\356=\270?\337J{q:\237N\216\315\016t\332"
 118      C68B493B 
 118      EE3DB83F 
 118      DF4A7B71 
 118      3A9F4E8E 
 119 01c2 BBF71BC3 		.ascii	"\273\367\033\303\313\235\342"
 119      CB9DE2
 120              		.text
 121              		.section	.gnu.lto_writes.270aaa2195134e7c,"",%progbits
 122 0000 789C8D52 		.ascii	"x\234\215R=kTA\024=gf\336\333\227u7\361\027HH\351\302"
ARM GAS  /tmp/cc1kgnVI.s 			page 9


 122      3D6B5441 
 122      143D6766 
 122      DEDB9775 
 122      37F11748 
 123 0017 3EF42F58 		.ascii	">\364/XYYh@\313\335%\037\003y*\256\235Efw-\"6!\225$"
 123      59596840 
 123      CBDD251F 
 123      03792AAE 
 123      9D456677 
 124 0031 55025A88 		.ascii	"U\002Z\210(v\026\201\244H\221\024~A\032S-\210\215\020"
 124      28761681 
 124      A4489114 
 124      7E411A53 
 124      2D888D10 
 125 0045 B011C466 		.ascii	"\260\021\304f\2753o'\221 \352\300\273w\336\271\367\234"
 125      BD336F27 
 125      9120EAC0 
 125      BB77DEB9 
 125      F79C
 126 0057 FBF19E82 		.ascii	"\373\361\236\202\302\331sY\236\327\002_\022\317\004"
 126      C2D97359 
 126      9ED7025F 
 126      12CF04
 127 0066 54ABEF80 		.ascii	"T\253\357\200^\246\224>\314\341\252f\373\002\\M\323"
 127      5EA6943E 
 127      CCE1AA66 
 127      FB025C4D 
 127      D3
 128 0077 94B021FD 		.ascii	"\224\260!\375\005\304\262\322\206\313\267\030D^\251"
 128      05C4B2D2 
 128      86CBB718 
 128      445EA9
 129 0086 DDE168F4 		.ascii	"\335\341h\364r\373\373\347\333\234\"\012B\261 \015,"
 129      72FBFBE7 
 129      DB9C220A 
 129      42B1200D 
 129      2C
 130 0097 9178937A 		.ascii	"\221x\223zS\021\014\231\3348!FU\345U\325|\240\356\215"
 130      53110C99 
 130      DC382146 
 130      55E555D5 
 130      7CA0EE8D 
 131 00ab 9C040F9D 		.ascii	"\234\004\017\235[\235\236\301\246sk\273;O\017\350\326"
 131      5B9D9EC1 
 131      A6736BBB 
 131      3B4F0FE8 
 131      D6
 132 00bc 5CEFDB68 		.ascii	"\\\357\333h4e\251\025\232D\207\270IK3\035\\b\316N\323"
 132      3465A915 
 132      9A4487B8 
 132      494B331D 
 132      5C62CE4E 
 133 00d1 093A37C4 		.ascii	"\011:7\304\3726g\251\274\327\007P-n\312t-nq\006\013"
 133      FA3667A9 
 133      BCD70750 
 133      2D6ECA74 
 133      2D6E7106 
ARM GAS  /tmp/cc1kgnVI.s 			page 10


 134 00e6 02E32DFA 		.ascii	"\002\343-\372Go\326\353%\276@\323\300E\313t\003\353"
 134      476FD6EB 
 134      25BE40D3 
 134      C045CB74 
 134      03EB
 135 00f8 A25B910C 		.ascii	"\242[\221\014\257\257\203f\233Q\335s>\234\213\224\344"
 135      AFAF8366 
 135      9B51DD73 
 135      3E9C8B94 
 135      E4
 136 0109 6F149E50 		.ascii	"o\024\236P\006\217\006\317\0309\251T\022&\260\217\275"
 136      068F06CF 
 136      1839A954 
 136      1226B08F 
 136      BD
 137 011a 2FBDFA6F 		.ascii	"/\275\372op\345t\210YQ9\314\245\353\376\360\353d\231"
 137      70E57488 
 137      595139CC 
 137      A5EBFEF0 
 137      EB6499
 138 012d 228B93AC 		.ascii	"\"\213\223\254\0306\343\251\372\031\312\010\313\336"
 138      1836E3A9 
 138      FA19CA08 
 138      CBDE
 139 013b 7E1C4D46 		.ascii	"~\034MF\305,4\307?7\247N\233{<\230\217\224\011a\205"
 139      C52C34C7 
 139      3F37A74E 
 139      9B7B3C98 
 139      8F940961 
 140 0150 DEDE232D 		.ascii	"\336\336#-1\340\001~\272\025w\3362\353\214G\012yU)i"
 140      31E0017E 
 140      BA1577DE 
 140      32EB8C47 
 140      0A795529 
 141 0165 E52B86AA 		.ascii	"\345+\206\252O6N\252\326\032x\356\234\317\377\367ZV"
 141      4F364EAA 
 141      D61A78EE 
 141      9CCFFFF7 
 141      5A56
 142 0177 7464D585 		.ascii	"td\325\205\030g\270Z\202\377\247#T\340#z\303\3434j\205"
 142      1867B85A 
 142      82FFA723 
 142      54E0237A 
 142      C3E3346A 
 143 018c C0275016 		.ascii	"\300'P\026\252\304\244\372\3051\375\017A\2772?w\243"
 143      AAC4A4FA 
 143      C531FD0F 
 143      41BF323F 
 143      77A3
 144 019e D9CCAF2C 		.ascii	"\331\314\257,\332\266\275v=\277\323\315\027[K\371\222"
 144      DAB6BD76 
 144      3DBFD3CD 
 144      175B4BF9 
 144      92
 145 01af 6DE7DDFB 		.ascii	"m\347\335\373\367\346ZE7/\346\212\361\265\331\201.\272"
 145      F7E65A45 
 145      372FE68A 
ARM GAS  /tmp/cc1kgnVI.s 			page 11


 145      F1B5D981 
 145      2EBA
 146 01c1 777F0124 		.ascii	"w\177\001$\256\234\324"
 146      AE9CD4
 147              		.text
 148              		.section	.gnu.lto_msObjectInit.270aaa2195134e7c,"",%progbits
 149 0000 789C8D90 		.ascii	"x\234\215\2201K\003A\020\205\337\233\273\204\003\361"
 149      314B0341 
 149      1085DF9B 
 149      BB8403F1 
 150 0010 07582958 		.ascii	"\007X)X\006o\177\204?\300\"\021\264\274\204\220\034"
 150      066F7F84 
 150      3FC02211 
 150      B4BC8490 
 150      1C
 151 0021 E4103C3B 		.ascii	"\344\020<;\213\\T\260\223\224AQ\260\265\210\226)\355"
 151      8B5C54B0 
 151      93944151 
 151      B0B58896 
 151      29ED
 152 0033 45219D9D 		.ascii	"E!\235\235\351\3555\004!\316\336\236ML\221\201}3\014"
 152      E9ED3504 
 152      21CEDE9E 
 152      4D4C9181 
 152      7D330C
 153 0046 F3BDDD59 		.ascii	"\363\275\335Y\201`16\364\334\021\330\321L\017\224\376"
 153      81603136 
 153      F4DC11D8 
 153      D14C0F94 
 153      FE
 154 0057 1BD00B84 		.ascii	"\033\320\013\204\264\005\210\256\260{\310|\366Q\236"
 154      B40588AE 
 154      B07BC87C 
 154      F6519E
 155 0066 27F3F9F0 		.ascii	"'\363\371\360\351r\370\303[Y\023&\204\257\302\262\212"
 155      E972F8C3 
 155      5B591326 
 155      84AFC2B2 
 155      8A
 156 0077 042A9E4E 		.ascii	"\004*\236N\225p\221e\375-\240\221S5Uk\265O\261\331{"
 156      95709165 
 156      FD2DA091 
 156      5335556B 
 156      B54FB1D9 
 157 008c C5D9ECFC 		.ascii	"\305\331\354\374\363j3\342=K\250\340!\323X\217\211\033"
 157      F36A33E2 
 157      3D4BA8E0 
 157      21D3588F 
 157      891B
 158 009e 5C33265B 		.ascii	"\\3&[\224\003\315\356\245uw1N1\313\006YV\325\261\204"
 158      9403CDEE 
 158      A5757731 
 158      4E31CB06 
 158      5956D5B1 
 159 00b3 7EDE529F 		.ascii	"~\336R\237\227\351\327\224\213>\336r\037g\324\262\260"
 159      97E9D794 
 159      8B3EDE72 
ARM GAS  /tmp/cc1kgnVI.s 			page 12


 159      1F67D4B2 
 159      B0
 160 00c4 2507DFFF 		.ascii	"%\007\337\377I\1779)\005Yv\344hu\322+\310 'G\357\253"
 160      497F3929 
 160      055976E4 
 160      6875D22B 
 160      C8202747 
 161 00da 936E45DB 		.ascii	"\223nE\333\311\2531z\223\217m\307\376EMW\322\377\264"
 161      C9AB317A 
 161      938F6DC7 
 161      FE454D57 
 161      D2FFB4
 162 00ed 44250CCD 		.ascii	"D%\014\315n;\256\307{Us\224\232v\3241\235\270n\322\223"
 162      6E3BAEC7 
 162      7B557394 
 162      9A76D431 
 162      9DB86ED2 
 163 0102 E36694A4 		.ascii	"\343f\224\244&i&E\0316\360\0139\336oU"
 163      26692645 
 163      1936F00B 
 163      39DE6F55 
 164              		.text
 165              		.section	.gnu.lto_.symbol_nodes.270aaa2195134e7c,"",%progbits
 166 0000 789C4DC8 		.ascii	"x\234M\310\271\021\2000\020CQ\255\326\246\015j\243\005"
 166      B9118030 
 166      104351AD 
 166      D6A60D6A 
 166      A305
 167 0012 1A902306 		.ascii	"\032\220#\006\0220G\310\220\320\017\225P\004\201\011"
 167      123047C8 
 167      90D00F95 
 167      50048109 
 168 0022 ACE4CF13 		.ascii	"\254\344\317\023A\364\370\307L\001\371\001\244s\352"
 168      41F4F8C7 
 168      4C01F901 
 168      A473EA
 169 0031 B8525671 		.ascii	"\270RVq\241Xq\246\274\342N\205\237\327hq#\202\334\016"
 169      A15871A6 
 169      BCE24E85 
 169      9FD76871 
 169      2382DC0E 
 170 0045 2A963725 		.ascii	"*\2267%s6\270\207\267u/\305\007\023_\"\203"
 170      7336B887 
 170      B7752FC5 
 170      07135F22 
 170      83
 171              		.text
 172              		.section	.gnu.lto_.refs.270aaa2195134e7c,"",%progbits
 173 0000 789C6362 		.ascii	"x\234cb`b\340g\200\000F\026&V\026V&f&&&\006&F\006\000"
 173      6062E067 
 173      80004616 
 173      26561656 
 173      26662626 
 174 001a 032D0037 		.ascii	"\003-\0007"
 175              		.text
 176              		.section	.gnu.lto_.decls.270aaa2195134e7c,"",%progbits
 177 0000 789CBD58 		.ascii	"x\234\275Xkl\024U\024\276w\366\321.4\210D\010\374\261"
ARM GAS  /tmp/cc1kgnVI.s 			page 13


 177      6B6C1455 
 177      14BE77F6 
 177      D12E3488 
 177      4408FCB1 
 178 0014 C5803F20 		.ascii	"\305\200? \355H\255\2611\021$\375A\375Q1 \306?f3\335"
 178      ED48ADB1 
 178      311124FD 
 178      41FD5131 
 178      20C63F66 
 179 002a 9DEDAED9 		.ascii	"\235\355\256\331\227;S\021\375\301m\253\200Dc\2131\202"
 179      973B5311 
 179      FDC16DAB 
 179      8044638B 
 179      3182
 180 003c 5ABA05F1 		.ascii	"Z\272\005\361ABx\005!\341\321\205*6\"P4\365\201)Y\220"
 180      41427805 
 180      21E1D185 
 180      2A362250 
 180      34F58129 
 181 0052 97A0A150 		.ascii	"\227\240\241P\020Ji\3263w\356\354\316Lg\272[\023\271"
 181      104A69D6 
 181      3377EEEC 
 181      CE4C67BA 
 181      5B13B9
 182 0065 E999DE99 		.ascii	"\351\231\336\231{\317w\316=\337\271\367\334\226C\034"
 182      7BCF77CE 
 182      3DDFB9F7 
 182      DC96431C 
 183 0075 9AC52194 		.ascii	"\232\305!\224\201v\372A\204\2268\020r#\204\346\243\\"
 183      8176FA41 
 183      84963810 
 183      722384E6 
 183      A35C
 184 0087 53DE3B41 		.ascii	"S\336;A\366\203\034\0069\005\322\017\342\301\010\301"
 184      F6831C06 
 184      3905D20F 
 184      E2C108C1 
 185 0097 0F9A8191 		.ascii	"\017\232\201\221\241)s= \233A\\ = i\220I % \335 gA\266"
 185      A129733D 
 185      209B415C 
 185      203D2069 
 185      90492025 
 186 00b1 83803934 		.ascii	"\203\20094\0042\014r\033\251x\212>\270\204\276\006\331"
 186      04320C72 
 186      1BA9788A 
 186      3EB884BE 
 186      06D9
 187 00c3 6784A63E 		.ascii	"g\204\246>x\230\256\206g\266\243\341;\030\356\210\016"
 187      7898AE86 
 187      67B6A3E1 
 187      3B18EE88 
 187      0E
 188 00d4 7B3FFBDD 		.ascii	"{?\373\335e\302U\3265A\207\263\320\306\347RP\236\200"
 188      65C255D6 
 188      354187B3 
 188      D0C6E752 
 188      509E80
ARM GAS  /tmp/cc1kgnVI.s 			page 14


 189 00e7 4763730C 		.ascii	"Gcs\014\303\303\306N\200\034\003\371\301d\347\224\311"
 189      C3C3C64E 
 189      801C03F9 
 189      C164E794 
 189      C9
 190 00f8 CE8202EC 		.ascii	"\316\202\002\354\350\343\3031\014\315\316\357 \277\201"
 190      E8E3C331 
 190      0CCDCEEF 
 190      20BF81
 191 0107 9C36D9E9 		.ascii	"\2346\331\351g6.1\2744\263\327\315\276_dx\032\366\010"
 191      67362E31 
 191      BC34B3D7 
 191      CDBE5F64 
 191      781AF608 
 192 011b 8B8BA6E7 		.ascii	"\213\213\246\347\200\027\027\210\033\244\010\217\346"
 192      80171788 
 192      1BA4088F 
 192      E6
 193 0128 B8146D24 		.ascii	"\270\024m$\251\201\364\267\347\006\360\006\222z\213"
 193      A981F4B7 
 193      E706F006 
 193      927A8B
 194 0137 64322BD1 		.ascii	"d2+\3214\364!\201\226\\E\010\226=h\015{\251\355\201"
 194      34F42181 
 194      965C4508 
 194      963D680D 
 194      7BA9ED81 
 195 014b C5BD8405 		.ascii	"\305\275\204\005<\311\203\312h\247\304\203\234\2001"
 195      3CC983CA 
 195      68A7C483 
 195      9C8031
 196 015a 1B7D4648 		.ascii	"\033}FHk\372\340\226w\237&\244X\300\233\261\007\326"
 196      6BFAE096 
 196      779F26A4 
 196      58C09BB1 
 196      07D6
 197 016c 17C2680E 		.ascii	"\027\302h\016\372\012T[\0119\367\244\311,m\005C'\373"
 197      FA0A545B 
 197      0939F7A4 
 197      C92C6D05 
 197      4327FB
 198 017f BF9B4A9C 		.ascii	"\277\233J\234\002\376\202\002_\301\030\011\370s<g\274"
 198      02FE8202 
 198      5FC11809 
 198      F8733C67 
 198      BC
 199 0190 30E9BE93 		.ascii	"0\351\276\223{\253\251\207[)\320m\316\010$`\267G\357"
 199      7BABA987 
 199      5B29D06D 
 199      CE082460 
 199      B747EF
 200 01a3 1F7DD726 		.ascii	"\037}\327&(h\360\252X\272\243l2\274\222}Q^\212\320}"
 200      2868F0AA 
 200      58BAA36C 
 200      32BC927D 
 200      515E8AD0 
 201 01b8 D7B35AA6 		.ascii	"\327\263Z\246\002\261\011O\243=\007M1\370\260`\242\326"
ARM GAS  /tmp/cc1kgnVI.s 			page 15


 201      02B1094F 
 201      A33D074D 
 201      31F8B060 
 201      A2D6
 202 01ca A7816A26 		.ascii	"\247\201j&\351-d\372\372\\\240\2125\004\234\013T\377"
 202      E92D64FA 
 202      FA5CA08A 
 202      35049C0B 
 202      54FF
 203 01dc EA6D7369 		.ascii	"\352msi\240\266\323@59,\"^\020P\337\373\033\325\210"
 203      A0B6D340 
 203      35392C22 
 203      5E1050DF 
 203      FB1BD588 
 204 01f0 EFA240EF 		.ascii	"\357\242@\3578\314\021\307\246\210cc\004\3500\353d\214"
 204      38CC11C7 
 204      A6886363 
 204      04E830EB 
 204      648C
 205 0202 3954C85C 		.ascii	"9T\310\\\001/sd\0258\364\201\311\374,\264\231\220u\351"
 205      012F7364 
 205      1538F481 
 205      C9FC2CB4 
 205      999075E9 
 206 0216 6FCEF560 		.ascii	"o\316\365`2\205F\212C\037\3219\235\270\3242\302t\022"
 206      3285468A 
 206      431FD139 
 206      9DB8D432 
 206      C27412
 207 0229 D3231B5E 		.ascii	"\323#\033^\236\256E\350c\263\226!\030\352,h\217\242"
 207      9EAE45E8 
 207      63B39621 
 207      18EA2C68 
 207      8FA2
 208 023b 2D0AA107 		.ascii	"-\012\241\007\317?_\253n\0234\206-\266\202=\230\323"
 208      CF3F5FAB 
 208      6E133486 
 208      2DB6823D 
 208      98D3
 209 024d 2F5BDDB0 		.ascii	"/[\335\260\251}GKZ\233\322\231L\251a\263\252\240v\251"
 209      A97D474B 
 209      5A9BD299 
 209      4CA961B3 
 209      AAA076A9 
 210 0261 71C02235 		.ascii	"q\300\"5L\021\372\3242B\344\272\277\226\315\336\013"
 210      4C11FAD4 
 210      3242E4BA 
 210      BF96CDDE 
 210      0B
 211 0272 DE0878FF 		.ascii	"\336\010x\377\230\341\261Y\247\235\022\363\356\220\345"
 211      98E1B159 
 211      A79D12F3 
 211      EE90E5
 212 0281 3AAF8F00 		.ascii	":\257\217\0007\353\310\275L\306aq.5\027\262\353\333"
 212      37EBC8BD 
 212      4CC66171 
 212      2E3517B2 
ARM GAS  /tmp/cc1kgnVI.s 			page 16


 212      EBDB
 213 0293 3EF97910 		.ascii	">\371y\0207\203\216\200\273)Y\233\235\346,t\231\262"
 213      37838E80 
 213      BB29599B 
 213      9DE62C74 
 213      99B2
 214 02a5 D065CC2C 		.ascii	"\320e\314,\227'\327Q\266\337\003\366\333\357\210\375"
 214      9727D751 
 214      B6DF03F6 
 214      DBEF88FD 
 215 02b5 F69B88D6 		.ascii	"\366\233\210\326\346<VS\302\016\245\007O\324\371\223"
 215      E63C5653 
 215      C20EA507 
 215      4FD4F993 
 216 02c5 C5EA56B3 		.ascii	"\305\352V\263\310\304\331V\247eV\277}\246}\006Ir\006"
 216      C8C4D956 
 216      A76556BF 
 216      7DA67D06 
 216      497206
 217 02d8 DE0E1792 		.ascii	"\336\016\027\222\326;\305Z\325\003\016\355\240\320\366"
 217      D63BC55A 
 217      D5030EED 
 217      A0D0F6
 218 02e7 5AD44FA6 		.ascii	"Z\324O\246\366\213\242\246\006xw\036\265n\335nh&]4K"
 218      F68BA2A6 
 218      0678771E 
 218      B56EDD6E 
 218      68265D34 
 219 02fc BA5996D8 		.ascii	"\272Y\226\330i\261\310|o\231%\007\304\0362\000\274\230"
 219      69B1C87C 
 219      6F992507 
 219      C41E3200 
 219      BC98
 220 030e 3643F718 		.ascii	"6C\367\030!\376\261@\242\262g]\312\366\254\023\360\016"
 220      21FEB140 
 220      A2B2675D 
 220      CAF6AC13 
 220      F00E
 221 0320 3C3BFF79 		.ascii	"<;\377yd\347I\337x\310\336cI6\0312m\320S\205\020\335"
 221      64E749DF 
 221      78C8DE63 
 221      49361932 
 221      6DD05385 
 222 0336 A530A658 		.ascii	"\2450\246X\027\360\361<Z}:\242oiD\013\370d\036\265\261"
 222      17F0F13C 
 222      5A7D3AA2 
 222      6F69440B 
 222      F8641EB5 
 223 034b 88B6D362 		.ascii	"\210\266\323bQ\371u4\321\311t\252c\3651\353\343@\300"
 223      51F97534 
 223      D1C974AA 
 223      63F531EB 
 223      E340C0
 224 035e F3A7DA46 		.ascii	"\363\247\332F\370\214\221k\003\277SP\233\202R\246;D"
 224      F88C916B 
 224      03BF5350 
 224      9B8252A6 
ARM GAS  /tmp/cc1kgnVI.s 			page 17


 224      3B44
 225 0370 92580378 		.ascii	"\222X\003x\010eO\221\241?zg\264\320C\344,\236\0028\227"
 225      08654F91 
 225      A13F7A67 
 225      B4D043E4 
 225      2C9E0238 
 226 0385 4D44E4C5 		.ascii	"MD\344\305Q\0349\017\252\252\022E%\251\366\243%\312"
 226      511C390F 
 226      AAAA1245 
 226      25A9F6A3 
 226      25CA
 227 0397 C546F98E 		.ascii	"\305F\371\216\014p\2066\023%\301\341\324\316U\035\260"
 227      0C708636 
 227      1325C1E1 
 227      D4CE551D 
 227      B0
 228 03a8 A38F602B 		.ascii	"\243\217`+\377a\002\326\231&Y\323\223i\332\334\002o"
 228      FF6102D6 
 228      992659D3 
 228      9369DADC 
 228      026F
 229 03ba 2D3C344E 		.ascii	"-<4N\023\360\237\224\317+f/\207\2052\365k~\037G\216"
 229      13F09F94 
 229      CF2B662F 
 229      878532F5 
 229      6B7E1F47 
 230 03cf 97B40AA6 		.ascii	"\227\264\012\246\223N\331jv\324\374\235K~\0165\2730"
 230      934ED96A 
 230      76D4FC9D 
 230      4B7E0E35 
 230      BB30
 231 03e1 336F359D 		.ascii	"3o5\235u\325\306&\030\214\223]\204x\334&\343G\3060>"
 231      75D5C626 
 231      188C935D 
 231      8478DC26 
 231      E347C630 
 232 03f6 A037BE66 		.ascii	"\2407\276f\334\306\313\362\032\3374\206\361\301\234"
 232      DCC6CBF2 
 232      1ADF3486 
 232      F1C19C
 233 0405 71B5C8E7 		.ascii	"q\265\310\3475^<\276\225\037\030\303\370-\275\361C\343"
 233      355E3CBE 
 233      951F18C3 
 233      F82DBDF1 
 233      43E3
 234 0417 365E6622 		.ascii	"6^f\"_\313\012\001\377\205g\302\363\032}\336\240\317"
 234      5FCB0A01 
 234      FF8567C2 
 234      F31A7DDE 
 234      A0CF
 235 0429 9BF0CC36 		.ascii	"\233\360\3146;\177.\351\231x\2172q\376\277\246Aj\027"
 235      3B7F2EE9 
 235      99788F32 
 235      71FEBFA6 
 235      416A17
 236 043c DC8D04AD 		.ascii	"\334\215\004\255\204\265\215\033\314\202V\255\260\255"
 236      84B58D1B 
ARM GAS  /tmp/cc1kgnVI.s 			page 18


 236      CC8256AD 
 236      B0AD
 237 044a 2F042C1F 		.ascii	"/\004,\037M\032X\373\270\301\306\360\254\263\020\260"
 237      4D1A58FB 
 237      B8C1C6F0 
 237      ACB310B0 
 238 045a C9169E59 		.ascii	"\311\026\236Y5\375A%\340\013\264\270]\244d\336\246\317"
 238      35FD4125 
 238      E00BB4B8 
 238      5DA464DE 
 238      A6CF
 239 046c 21FA1CA6 		.ascii	"!\372\034\246\317\221B\350M\347\350\315\3267v\3071\327"
 239      CF9142E8 
 239      4DE7E8CD 
 239      D63776C7 
 239      31D7
 240 047e BB3CF5EF 		.ascii	"\273<\365\357K\227\345e\347\302`\217\023\376~u\252\246"
 240      4B97E565 
 240      E7C2608F 
 240      13FE7E75 
 240      AAA6
 241 0490 A04CD269 		.ascii	"\240L\322i\375\266\205)\215Me\260\207\226\301;t'\330"
 241      FDB68529 
 241      8D4D65B0 
 241      8796C13B 
 241      7427D8
 242 04a3 ABE9EE3B 		.ascii	"\253\351\356;\251\235\253\331\375J-\205w\363\250\322"
 242      A99DABD9 
 242      FD4A2D85 
 242      77F3A8D2 
 243 04b3 E5308B1D 		.ascii	"\3450\213\035\271\012z\257\0205\355B\015\345\257%\211"
 243      B90A7AAF 
 243      1035ED42 
 243      0DE5AF25 
 243      89
 244 04c4 899B163B 		.ascii	"\211\233\026;\304\364\014\2745s\243\252fzGz\360\352"
 244      C4F40CBC 
 244      3573A3AA 
 244      667A477A 
 244      F0EA
 245 04d6 9D66DCD6 		.ascii	"\235f\334\326\222T/I-$9\327T;\341R0\332<e\202C\333\224"
 245      92542F49 
 245      2D2439D7 
 245      543BE152 
 245      30DA3C65 
 246 04ee 7F1D682F 		.ascii	"\177\035h/{\340\2051\3640:\350n'\305\346\314Y\313\331"
 246      7BE08531 
 246      F4303AE8 
 246      6E27C5E6 
 246      CC59CBD9 
 247 0502 DEAB04BC 		.ascii	"\336\253\004\274\320\222r\023\305]n=\305\314\360Q\275"
 247      D0927213 
 247      C55D6E3D 
 247      C5CCF051 
 247      BD
 248 0513 1727DC56 		.ascii	"\027'\334V\377N\310\266GP'\351\355M_\270\332\353lR\376"
 248      FF4EC8B6 
ARM GAS  /tmp/cc1kgnVI.s 			page 19


 248      475027E9 
 248      ED4D5FB8 
 248      DAEB6C52 
 249 0528 A7A15C17 		.ascii	"\247\241\\\0270\254\3522M\352\177h\304\025x\313\"\210"
 249      30ACEA32 
 249      4DEA7F68 
 249      C41578CB 
 249      2288
 250 053a D814A555 		.ascii	"\330\024\245U\241\335dM\352\031MS9\333\336Dw\011\\\010"
 250      A1DD644D 
 250      EA194D53 
 250      39DBDE44 
 250      77095C08 
 251 054e 7763B574 		.ascii	"wc\265t\251\327\030\252t-7\372\023Vk\213z\233\245\243"
 251      A9D718AA 
 251      742D37FA 
 251      13566B8B 
 251      7A9BA5A3 
 252 0562 3772A3D7 		.ascii	"7r\243\327\261z\370\253\177\371\321\321\233\271\321"
 252      B17AF8AB 
 252      7FF9D1D1 
 252      9BB9D1
 253 0571 61AC9ECE 		.ascii	"a\254\236\316\352\337K\264\231\316u%\302v\033\255\203"
 253      EADF4BB4 
 253      99CE7525 
 253      C2761BAD 
 253      83
 254 0582 CBDD25E7 		.ascii	"\313\335%\347VT\3605\301P}h\361R>&\361A!\314\207C\365"
 254      5654F035 
 254      C1507D68 
 254      F1523E26 
 254      F14121CC 
 255 0599 BC242744 		.ascii	"\274$'D!\"\361\0211\302\272\025>\364\224q\256/\026\211"
 255      2122F111 
 255      31C2BA15 
 255      3EF49471 
 255      AE2F1689 
 256 05ad C4A27C3C 		.ascii	"\304\242|<\226\220%~\341\222\272\232\272\327\225o\361"
 256      9690257E 
 256      E192BA9A 
 256      BAD7956F 
 256      F1
 257 05be 50584C48 		.ascii	"PXLH\374\242\232\032\336\027\224W\304E\251\"\210\\\021"
 257      FCA29A1A 
 257      DE179457 
 257      C445A922 
 257      885C11
 258 05d1 A9C12BBB 		.ascii	"\251\301+\273\027=\267\254\254\006I|4@\345\011>\030"
 258      173DB7AC 
 258      AC06497C 
 258      3440E509 
 258      3E18
 259 05e3 8B887C42 		.ascii	"\213\210|B\224D!\341\013\202\365\204\177\271\220\020"
 259      944421E1 
 259      0B82F584 
 259      7FB99010 
 260 05f3 792111A9 		.ascii	"y!\021\251\344\033|\276r\350\224\213\221z\321\357\027"
ARM GAS  /tmp/cc1kgnVI.s 			page 20


 260      E41B7CBE 
 260      72E8948B 
 260      917AD1EF 
 260      17
 261 0604 FDD90FD1 		.ascii	"\375\331\017\321XT,\027\205\372Py\225\267\272\274\362"
 261      58542C17 
 261      85FA5079 
 261      95B7BABC 
 261      F2
 262 0615 B17955AF 		.ascii	"\261yU\257V\362\206\001>\024\365\205\033\375\"\254\303"
 262      56F28601 
 262      3E14F585 
 262      1BFD22AC 
 262      C3
 263 0626 1F8ACAE0 		.ascii	"\037\212\312\340@\021\374z\274\322+\267\340\373g<\""
 263      4011FC7A 
 263      BCD22BB7 
 263      E0FB673C 
 263      22
 264 0637 F882A1A8 		.ascii	"\370\202\241\250\310{\375b@h\014\313^-\032\036\257\227"
 264      C87BFD62 
 264      40680CCB 
 264      5E2D1A1E 
 264      AF97
 265 0649 B953D408 		.ascii	"\271S\324\010\235j\257\014_X\317\021o\224\271P\034\327"
 265      9D6AAF0C 
 265      5F58CF11 
 265      6F94B950 
 265      1CD7
 266 065b 3B1A44B9 		.ascii	";\032D\271\351\177\361V!\030&\230\274\256\252\250\256"
 266      E97FF156 
 266      21182698 
 266      BCAEAAA8 
 266      AE
 267 066c A8D2070E 		.ascii	"\250\322\007\016\274\006_\335R\350\015\321+\273 \011"
 267      BC065FDD 
 267      52E80DD1 
 267      2BBB2009 
 268 067c FC12571F 		.ascii	"\374\022W\037\307Q\367\362DH\026\245\3023'\210J\352"
 268      C751F7F2 
 268      444816A5 
 268      C2332788 
 268      4AEA
 269 068e C4482CB1 		.ascii	"\304H,\261b)\375\240\274\250\275\027\353^pQ0\247\202"
 269      6229FDA0 
 269      BCA8BD17 
 269      EB5E7051 
 269      30A782
 270 06a1 EE782D22 		.ascii	"\356x-\"\273\353\033\003\0011\341T\214:\304\230\344"
 270      BBEB1B03 
 270      0131E154 
 270      8C3AC498 
 270      E4
 271 06b2 8E050292 		.ascii	"\216\005\002\222(\227D\244\305\365\257\210>\371\331"
 271      289744A4 
 271      C5F5AF88 
 271      3EF9D9
ARM GAS  /tmp/cc1kgnVI.s 			page 21


 272 06c1 68487644 		.ascii	"hHvD\244\370}M\241D(\332\240\244\020\214E\033\303\341"
 272      A4F87D4D 
 272      A14428DA 
 272      A0A4108C 
 272      451BC3E1 
 273 06d5 A240B44C 		.ascii	"\242@\264L\212\213><\317\015\213\364\305W\300\200\034"
 273      8A8B3E3C 
 273      CF0D8BF4 
 273      C557C080 
 273      1C
 274 06e6 4CC4963B 		.ascii	"L\304\226;\303\242\020\370\027\327!\255\017"
 274      C3A210F8 
 274      17D721AD 
 274      0F
 275              		.text
 276              		.section	.gnu.lto_.symtab.270aaa2195134e7c,"",%progbits
 277 0000 6D734F62 		.ascii	"msObjectInit\000\000\000\000\000\000\000\000\000\000"
 277      6A656374 
 277      496E6974 
 277      00000000 
 277      00000000 
 278 0016 0000DD00 		.ascii	"\000\000\335\000\000\000"
 278      0000
 279              		.text
 280              		.section	.gnu.lto_.opts,"",%progbits
 281 0000 272D6D63 		.ascii	"'-mcpu=cortex-m4' '-mno-thumb-interwork' '-mthumb' "
 281      70753D63 
 281      6F727465 
 281      782D6D34 
 281      2720272D 
 282 0033 272D6767 		.ascii	"'-ggdb' '-O2' '-fomit-frame-pointer' '-falign-funct"
 282      64622720 
 282      272D4F32 
 282      2720272D 
 282      666F6D69 
 283 0066 696F6E73 		.ascii	"ions=16' '-ffunction-sections' '-fdata-sections' '-"
 283      3D313627 
 283      20272D66 
 283      66756E63 
 283      74696F6E 
 284 0099 666E6F2D 		.ascii	"fno-common' '-flto'\000"
 284      636F6D6D 
 284      6F6E2720 
 284      272D666C 
 284      746F2700 
 285              		.text
 286              		.cfi_sections	.debug_frame
 287              		.section	.text.put,"ax",%progbits
 288              		.align	2
 289              		.p2align 4,,15
 290              		.thumb
 291              		.thumb_func
 292              		.type	put, %function
 293              	put:
 294              	.LFB272:
 295              		.file 1 "../ChibiOS/os/hal/lib/streams/memstreams.c"
 296              		.loc 1 66 0
ARM GAS  /tmp/cc1kgnVI.s 			page 22


 297              		.cfi_startproc
 298              		@ args = 0, pretend = 0, frame = 0
 299              		@ frame_needed = 0, uses_anonymous_args = 0
 300              		@ link register save eliminated.
 301              	.LVL0:
 302              		.loc 1 69 0
 303 0000 C368     		ldr	r3, [r0, #12]
 304 0002 8268     		ldr	r2, [r0, #8]
 305 0004 9A42     		cmp	r2, r3
 306 0006 06D0     		beq	.L3
 307              		.loc 1 71 0
 308 0008 4268     		ldr	r2, [r0, #4]
 309 000a D154     		strb	r1, [r2, r3]
 310              		.loc 1 72 0
 311 000c C368     		ldr	r3, [r0, #12]
 312 000e 0133     		adds	r3, r3, #1
 313 0010 C360     		str	r3, [r0, #12]
 314              		.loc 1 73 0
 315 0012 0020     		movs	r0, #0
 316              	.LVL1:
 317 0014 7047     		bx	lr
 318              	.LVL2:
 319              	.L3:
 320              		.loc 1 70 0
 321 0016 6FF00100 		mvn	r0, #1
 322              	.LVL3:
 323              		.loc 1 74 0
 324 001a 7047     		bx	lr
 325              		.cfi_endproc
 326              	.LFE272:
 327              		.size	put, .-put
 328 001c AFF30080 		.section	.text.get,"ax",%progbits
 329              		.align	2
 330              		.p2align 4,,15
 331              		.thumb
 332              		.thumb_func
 333              		.type	get, %function
 334              	get:
 335              	.LFB273:
 336              		.loc 1 76 0
 337              		.cfi_startproc
 338              		@ args = 0, pretend = 0, frame = 0
 339              		@ frame_needed = 0, uses_anonymous_args = 0
 340              		@ link register save eliminated.
 341              	.LVL4:
 342              		.loc 1 80 0
 343 0000 0269     		ldr	r2, [r0, #16]
 344 0002 C168     		ldr	r1, [r0, #12]
 345 0004 9142     		cmp	r1, r2
 346              		.loc 1 76 0
 347 0006 0346     		mov	r3, r0
 348              	.LVL5:
 349              		.loc 1 80 0
 350 0008 04D0     		beq	.L7
 351              		.loc 1 82 0
 352 000a 4168     		ldr	r1, [r0, #4]
 353 000c 885C     		ldrb	r0, [r1, r2]	@ zero_extendqisi2
ARM GAS  /tmp/cc1kgnVI.s 			page 23


 354              	.LVL6:
 355              		.loc 1 83 0
 356 000e 0132     		adds	r2, r2, #1
 357              	.LVL7:
 358 0010 1A61     		str	r2, [r3, #16]
 359              	.LVL8:
 360              		.loc 1 84 0
 361 0012 7047     		bx	lr
 362              	.LVL9:
 363              	.L7:
 364              		.loc 1 81 0
 365 0014 6FF00100 		mvn	r0, #1
 366              	.LVL10:
 367              		.loc 1 85 0
 368 0018 7047     		bx	lr
 369              		.cfi_endproc
 370              	.LFE273:
 371              		.size	get, .-get
 372 001a 00BFAFF3 		.section	.text.reads,"ax",%progbits
 372      0080
 373              		.align	2
 374              		.p2align 4,,15
 375              		.thumb
 376              		.thumb_func
 377              		.type	reads, %function
 378              	reads:
 379              	.LFB271:
 380              		.loc 1 56 0
 381              		.cfi_startproc
 382              		@ args = 0, pretend = 0, frame = 0
 383              		@ frame_needed = 0, uses_anonymous_args = 0
 384              	.LVL11:
 385 0000 38B5     		push	{r3, r4, r5, lr}
 386              		.cfi_def_cfa_offset 16
 387              		.cfi_offset 3, -16
 388              		.cfi_offset 4, -12
 389              		.cfi_offset 5, -8
 390              		.cfi_offset 14, -4
 391              		.loc 1 56 0
 392 0002 0446     		mov	r4, r0
 393              	.LVL12:
 394              		.loc 1 61 0
 395 0004 0846     		mov	r0, r1
 396              	.LVL13:
 397              		.loc 1 59 0
 398 0006 2369     		ldr	r3, [r4, #16]
 399 0008 E568     		ldr	r5, [r4, #12]
 400              		.loc 1 61 0
 401 000a 6168     		ldr	r1, [r4, #4]
 402              	.LVL14:
 403              		.loc 1 59 0
 404 000c ED1A     		subs	r5, r5, r3
 405 000e AA42     		cmp	r2, r5
 406 0010 38BF     		it	cc
 407 0012 1546     		movcc	r5, r2
 408              	.LVL15:
 409              		.loc 1 61 0
ARM GAS  /tmp/cc1kgnVI.s 			page 24


 410 0014 1944     		add	r1, r1, r3
 411 0016 2A46     		mov	r2, r5
 412 0018 FFF7FEFF 		bl	memcpy
 413              	.LVL16:
 414              		.loc 1 62 0
 415 001c 2369     		ldr	r3, [r4, #16]
 416 001e 2B44     		add	r3, r3, r5
 417 0020 2361     		str	r3, [r4, #16]
 418              		.loc 1 64 0
 419 0022 2846     		mov	r0, r5
 420 0024 38BD     		pop	{r3, r4, r5, pc}
 421              		.cfi_endproc
 422              	.LFE271:
 423              		.size	reads, .-reads
 424 0026 00BFAFF3 		.section	.text.writes,"ax",%progbits
 424      0080AFF3 
 424      0080
 425              		.align	2
 426              		.p2align 4,,15
 427              		.thumb
 428              		.thumb_func
 429              		.type	writes, %function
 430              	writes:
 431              	.LFB270:
 432              		.loc 1 46 0
 433              		.cfi_startproc
 434              		@ args = 0, pretend = 0, frame = 0
 435              		@ frame_needed = 0, uses_anonymous_args = 0
 436              	.LVL17:
 437 0000 38B5     		push	{r3, r4, r5, lr}
 438              		.cfi_def_cfa_offset 16
 439              		.cfi_offset 3, -16
 440              		.cfi_offset 4, -12
 441              		.cfi_offset 5, -8
 442              		.cfi_offset 14, -4
 443              		.loc 1 49 0
 444 0002 C368     		ldr	r3, [r0, #12]
 445 0004 8568     		ldr	r5, [r0, #8]
 446              		.loc 1 46 0
 447 0006 0446     		mov	r4, r0
 448              	.LVL18:
 449              		.loc 1 49 0
 450 0008 ED1A     		subs	r5, r5, r3
 451              		.loc 1 51 0
 452 000a 4068     		ldr	r0, [r0, #4]
 453              	.LVL19:
 454 000c AA42     		cmp	r2, r5
 455 000e 38BF     		it	cc
 456 0010 1546     		movcc	r5, r2
 457              	.LVL20:
 458 0012 1844     		add	r0, r0, r3
 459 0014 2A46     		mov	r2, r5
 460 0016 FFF7FEFF 		bl	memcpy
 461              	.LVL21:
 462              		.loc 1 52 0
 463 001a E368     		ldr	r3, [r4, #12]
 464 001c 2B44     		add	r3, r3, r5
ARM GAS  /tmp/cc1kgnVI.s 			page 25


 465 001e E360     		str	r3, [r4, #12]
 466              		.loc 1 54 0
 467 0020 2846     		mov	r0, r5
 468 0022 38BD     		pop	{r3, r4, r5, pc}
 469              		.cfi_endproc
 470              	.LFE270:
 471              		.size	writes, .-writes
 472 0024 AFF30080 		.section	.text.msObjectInit,"ax",%progbits
 472      AFF30080 
 472      AFF30080 
 473              		.align	2
 474              		.p2align 4,,15
 475              		.global	msObjectInit
 476              		.thumb
 477              		.thumb_func
 478              		.type	msObjectInit, %function
 479              	msObjectInit:
 480              	.LFB274:
 481              		.loc 1 104 0
 482              		.cfi_startproc
 483              		@ args = 0, pretend = 0, frame = 0
 484              		@ frame_needed = 0, uses_anonymous_args = 0
 485              		@ link register save eliminated.
 486              	.LVL22:
 487 0000 10B4     		push	{r4}
 488              		.cfi_def_cfa_offset 4
 489              		.cfi_offset 4, -4
 490              		.loc 1 107 0
 491 0002 4160     		str	r1, [r0, #4]
 492              		.loc 1 106 0
 493 0004 044C     		ldr	r4, .L11
 494 0006 0460     		str	r4, [r0]
 495              		.loc 1 110 0
 496 0008 0021     		movs	r1, #0
 497              	.LVL23:
 498              		.loc 1 108 0
 499 000a 8260     		str	r2, [r0, #8]
 500              		.loc 1 109 0
 501 000c C360     		str	r3, [r0, #12]
 502              		.loc 1 110 0
 503 000e 0161     		str	r1, [r0, #16]
 504              		.loc 1 111 0
 505 0010 5DF8044B 		ldr	r4, [sp], #4
 506 0014 7047     		bx	lr
 507              	.L12:
 508 0016 00BF     		.align	2
 509              	.L11:
 510 0018 00000000 		.word	.LANCHOR0
 511              		.cfi_endproc
 512              	.LFE274:
 513              		.size	msObjectInit, .-msObjectInit
 514 001c AFF30080 		.section	.rodata.vmt,"a",%progbits
 515              		.align	2
 516              		.set	.LANCHOR0,. + 0
 517              		.type	vmt, %object
 518              		.size	vmt, 16
 519              	vmt:
ARM GAS  /tmp/cc1kgnVI.s 			page 26


 520 0000 00000000 		.word	writes
 521 0004 00000000 		.word	reads
 522 0008 00000000 		.word	put
 523 000c 00000000 		.word	get
 524              		.text
 525              	.Letext0:
 526              		.file 2 "/nfs/nfs5/home/research/hardware/arm2/gcc-arm-embedded/gcc-arm-none-eabi-4_8-2014q2/lib/g
 527              		.file 3 "/nfs/nfs5/home/research/hardware/arm2/gcc-arm-embedded/gcc-arm-none-eabi-4_8-2014q2/arm-n
 528              		.file 4 "/nfs/nfs5/home/research/hardware/arm2/gcc-arm-embedded/gcc-arm-none-eabi-4_8-2014q2/arm-n
 529              		.file 5 "../ChibiOS/os/common/ports/ARMCMx/compilers/GCC/chtypes.h"
 530              		.file 6 "../ChibiOS/os/rt/include/chsystypes.h"
 531              		.file 7 "../ChibiOS/os/rt/include/chschd.h"
 532              		.file 8 "../ChibiOS/os/common/ports/ARMCMx/chcore.h"
 533              		.file 9 "../ChibiOS/os/common/ports/ARMCMx/chcore_v7m.h"
 534              		.file 10 "../ChibiOS/os/rt/include/chtm.h"
 535              		.file 11 "../ChibiOS/os/rt/include/chsem.h"
 536              		.file 12 "../ChibiOS/os/rt/include/chmtx.h"
 537              		.file 13 "../ChibiOS/os/hal/lib/streams/memstreams.h"
 538              		.file 14 "../ChibiOS/os/common/ext/CMSIS/include/core_cm4.h"
 539              		.section	.debug_info,"",%progbits
 540              	.Ldebug_info0:
 541 0000 15090000 		.4byte	0x915
 542 0004 0400     		.2byte	0x4
 543 0006 00000000 		.4byte	.Ldebug_abbrev0
 544 000a 04       		.byte	0x4
 545 000b 01       		.uleb128 0x1
 546 000c 2D040000 		.4byte	.LASF100
 547 0010 01       		.byte	0x1
 548 0011 CE020000 		.4byte	.LASF101
 549 0015 3A010000 		.4byte	.LASF102
 550 0019 00000000 		.4byte	.Ldebug_ranges0+0
 551 001d 00000000 		.4byte	0
 552 0021 00000000 		.4byte	.Ldebug_line0
 553 0025 02       		.uleb128 0x2
 554 0026 04       		.byte	0x4
 555 0027 05       		.byte	0x5
 556 0028 696E7400 		.ascii	"int\000"
 557 002c 03       		.uleb128 0x3
 558 002d 0D000000 		.4byte	.LASF2
 559 0031 02       		.byte	0x2
 560 0032 D4       		.byte	0xd4
 561 0033 37000000 		.4byte	0x37
 562 0037 04       		.uleb128 0x4
 563 0038 04       		.byte	0x4
 564 0039 07       		.byte	0x7
 565 003a 7E010000 		.4byte	.LASF0
 566 003e 04       		.uleb128 0x4
 567 003f 01       		.byte	0x1
 568 0040 06       		.byte	0x6
 569 0041 D4000000 		.4byte	.LASF1
 570 0045 03       		.uleb128 0x3
 571 0046 2A000000 		.4byte	.LASF3
 572 004a 03       		.byte	0x3
 573 004b 1C       		.byte	0x1c
 574 004c 50000000 		.4byte	0x50
 575 0050 04       		.uleb128 0x4
 576 0051 01       		.byte	0x1
ARM GAS  /tmp/cc1kgnVI.s 			page 27


 577 0052 08       		.byte	0x8
 578 0053 24030000 		.4byte	.LASF4
 579 0057 04       		.uleb128 0x4
 580 0058 02       		.byte	0x2
 581 0059 05       		.byte	0x5
 582 005a 32030000 		.4byte	.LASF5
 583 005e 04       		.uleb128 0x4
 584 005f 02       		.byte	0x2
 585 0060 07       		.byte	0x7
 586 0061 A3010000 		.4byte	.LASF6
 587 0065 03       		.uleb128 0x3
 588 0066 04020000 		.4byte	.LASF7
 589 006a 03       		.byte	0x3
 590 006b 37       		.byte	0x37
 591 006c 70000000 		.4byte	0x70
 592 0070 04       		.uleb128 0x4
 593 0071 04       		.byte	0x4
 594 0072 05       		.byte	0x5
 595 0073 FB000000 		.4byte	.LASF8
 596 0077 03       		.uleb128 0x3
 597 0078 26010000 		.4byte	.LASF9
 598 007c 03       		.byte	0x3
 599 007d 38       		.byte	0x38
 600 007e 82000000 		.4byte	0x82
 601 0082 04       		.uleb128 0x4
 602 0083 04       		.byte	0x4
 603 0084 07       		.byte	0x7
 604 0085 A2030000 		.4byte	.LASF10
 605 0089 04       		.uleb128 0x4
 606 008a 08       		.byte	0x8
 607 008b 05       		.byte	0x5
 608 008c C6000000 		.4byte	.LASF11
 609 0090 03       		.uleb128 0x3
 610 0091 A6020000 		.4byte	.LASF12
 611 0095 03       		.byte	0x3
 612 0096 4E       		.byte	0x4e
 613 0097 9B000000 		.4byte	0x9b
 614 009b 04       		.uleb128 0x4
 615 009c 08       		.byte	0x8
 616 009d 07       		.byte	0x7
 617 009e 54000000 		.4byte	.LASF13
 618 00a2 04       		.uleb128 0x4
 619 00a3 04       		.byte	0x4
 620 00a4 07       		.byte	0x7
 621 00a5 3B020000 		.4byte	.LASF14
 622 00a9 05       		.uleb128 0x5
 623 00aa 04       		.byte	0x4
 624 00ab 04       		.uleb128 0x4
 625 00ac 01       		.byte	0x1
 626 00ad 08       		.byte	0x8
 627 00ae C0030000 		.4byte	.LASF15
 628 00b2 06       		.uleb128 0x6
 629 00b3 04       		.byte	0x4
 630 00b4 B8000000 		.4byte	0xb8
 631 00b8 07       		.uleb128 0x7
 632 00b9 AB000000 		.4byte	0xab
 633 00bd 03       		.uleb128 0x3
ARM GAS  /tmp/cc1kgnVI.s 			page 28


 634 00be 1F040000 		.4byte	.LASF16
 635 00c2 04       		.byte	0x4
 636 00c3 2A       		.byte	0x2a
 637 00c4 45000000 		.4byte	0x45
 638 00c8 03       		.uleb128 0x3
 639 00c9 1C030000 		.4byte	.LASF17
 640 00cd 04       		.byte	0x4
 641 00ce 41       		.byte	0x41
 642 00cf 65000000 		.4byte	0x65
 643 00d3 03       		.uleb128 0x3
 644 00d4 74030000 		.4byte	.LASF18
 645 00d8 04       		.byte	0x4
 646 00d9 42       		.byte	0x42
 647 00da 77000000 		.4byte	0x77
 648 00de 03       		.uleb128 0x3
 649 00df 21000000 		.4byte	.LASF19
 650 00e3 04       		.byte	0x4
 651 00e4 4E       		.byte	0x4e
 652 00e5 90000000 		.4byte	0x90
 653 00e9 03       		.uleb128 0x3
 654 00ea F8030000 		.4byte	.LASF20
 655 00ee 05       		.byte	0x5
 656 00ef 39       		.byte	0x39
 657 00f0 D3000000 		.4byte	0xd3
 658 00f4 03       		.uleb128 0x3
 659 00f5 E2010000 		.4byte	.LASF21
 660 00f9 05       		.byte	0x5
 661 00fa 3C       		.byte	0x3c
 662 00fb BD000000 		.4byte	0xbd
 663 00ff 03       		.uleb128 0x3
 664 0100 04010000 		.4byte	.LASF22
 665 0104 05       		.byte	0x5
 666 0105 3D       		.byte	0x3d
 667 0106 BD000000 		.4byte	0xbd
 668 010a 03       		.uleb128 0x3
 669 010b 84030000 		.4byte	.LASF23
 670 010f 05       		.byte	0x5
 671 0110 3E       		.byte	0x3e
 672 0111 BD000000 		.4byte	0xbd
 673 0115 03       		.uleb128 0x3
 674 0116 C6020000 		.4byte	.LASF24
 675 011a 05       		.byte	0x5
 676 011b 40       		.byte	0x40
 677 011c D3000000 		.4byte	0xd3
 678 0120 03       		.uleb128 0x3
 679 0121 C0010000 		.4byte	.LASF25
 680 0125 05       		.byte	0x5
 681 0126 41       		.byte	0x41
 682 0127 C8000000 		.4byte	0xc8
 683 012b 03       		.uleb128 0x3
 684 012c F8010000 		.4byte	.LASF26
 685 0130 05       		.byte	0x5
 686 0131 43       		.byte	0x43
 687 0132 D3000000 		.4byte	0xd3
 688 0136 03       		.uleb128 0x3
 689 0137 78010000 		.4byte	.LASF27
 690 013b 05       		.byte	0x5
ARM GAS  /tmp/cc1kgnVI.s 			page 29


 691 013c 45       		.byte	0x45
 692 013d C8000000 		.4byte	0xc8
 693 0141 03       		.uleb128 0x3
 694 0142 D4030000 		.4byte	.LASF28
 695 0146 06       		.byte	0x6
 696 0147 33       		.byte	0x33
 697 0148 D3000000 		.4byte	0xd3
 698 014c 03       		.uleb128 0x3
 699 014d CB030000 		.4byte	.LASF29
 700 0151 06       		.byte	0x6
 701 0152 3F       		.byte	0x3f
 702 0153 57010000 		.4byte	0x157
 703 0157 08       		.uleb128 0x8
 704 0158 B6010000 		.4byte	.LASF47
 705 015c 44       		.byte	0x44
 706 015d 07       		.byte	0x7
 707 015e 9A       		.byte	0x9a
 708 015f 35020000 		.4byte	0x235
 709 0163 09       		.uleb128 0x9
 710 0164 19010000 		.4byte	.LASF30
 711 0168 07       		.byte	0x7
 712 0169 9B       		.byte	0x9b
 713 016a 6A020000 		.4byte	0x26a
 714 016e 00       		.byte	0
 715 016f 09       		.uleb128 0x9
 716 0170 8C020000 		.4byte	.LASF31
 717 0174 07       		.byte	0x7
 718 0175 9C       		.byte	0x9c
 719 0176 15010000 		.4byte	0x115
 720 017a 08       		.byte	0x8
 721 017b 0A       		.uleb128 0xa
 722 017c 63747800 		.ascii	"ctx\000"
 723 0180 07       		.byte	0x7
 724 0181 9D       		.byte	0x9d
 725 0182 59040000 		.4byte	0x459
 726 0186 0C       		.byte	0xc
 727 0187 09       		.uleb128 0x9
 728 0188 19020000 		.4byte	.LASF32
 729 018c 07       		.byte	0x7
 730 018d 9F       		.byte	0x9f
 731 018e 40020000 		.4byte	0x240
 732 0192 10       		.byte	0x10
 733 0193 09       		.uleb128 0x9
 734 0194 C5030000 		.4byte	.LASF33
 735 0198 07       		.byte	0x7
 736 0199 A0       		.byte	0xa0
 737 019a 40020000 		.4byte	0x240
 738 019e 14       		.byte	0x14
 739 019f 09       		.uleb128 0x9
 740 01a0 98010000 		.4byte	.LASF34
 741 01a4 07       		.byte	0x7
 742 01a5 A7       		.byte	0xa7
 743 01a6 B2000000 		.4byte	0xb2
 744 01aa 18       		.byte	0x18
 745 01ab 09       		.uleb128 0x9
 746 01ac B4030000 		.4byte	.LASF35
 747 01b0 07       		.byte	0x7
ARM GAS  /tmp/cc1kgnVI.s 			page 30


 748 01b1 B0       		.byte	0xb0
 749 01b2 DE050000 		.4byte	0x5de
 750 01b6 1C       		.byte	0x1c
 751 01b7 09       		.uleb128 0x9
 752 01b8 F5000000 		.4byte	.LASF36
 753 01bc 07       		.byte	0x7
 754 01bd B5       		.byte	0xb5
 755 01be FF000000 		.4byte	0xff
 756 01c2 20       		.byte	0x20
 757 01c3 09       		.uleb128 0x9
 758 01c4 27040000 		.4byte	.LASF37
 759 01c8 07       		.byte	0x7
 760 01c9 B9       		.byte	0xb9
 761 01ca F4000000 		.4byte	0xf4
 762 01ce 21       		.byte	0x21
 763 01cf 09       		.uleb128 0x9
 764 01d0 B1020000 		.4byte	.LASF38
 765 01d4 07       		.byte	0x7
 766 01d5 BE       		.byte	0xbe
 767 01d6 0A010000 		.4byte	0x10a
 768 01da 22       		.byte	0x22
 769 01db 0B       		.uleb128 0xb
 770 01dc 7500     		.ascii	"u\000"
 771 01de 07       		.byte	0x7
 772 01df 0F01     		.2byte	0x10f
 773 01e1 13050000 		.4byte	0x513
 774 01e5 24       		.byte	0x24
 775 01e6 0C       		.uleb128 0xc
 776 01e7 68010000 		.4byte	.LASF39
 777 01eb 07       		.byte	0x7
 778 01ec 1401     		.2byte	0x114
 779 01ee 46020000 		.4byte	0x246
 780 01f2 28       		.byte	0x28
 781 01f3 0C       		.uleb128 0xc
 782 01f4 EC000000 		.4byte	.LASF40
 783 01f8 07       		.byte	0x7
 784 01f9 1A01     		.2byte	0x11a
 785 01fb 6A020000 		.4byte	0x26a
 786 01ff 2C       		.byte	0x2c
 787 0200 0C       		.uleb128 0xc
 788 0201 C6010000 		.4byte	.LASF41
 789 0205 07       		.byte	0x7
 790 0206 2001     		.2byte	0x120
 791 0208 2B010000 		.4byte	0x12b
 792 020c 34       		.byte	0x34
 793 020d 0C       		.uleb128 0xc
 794 020e 23050000 		.4byte	.LASF42
 795 0212 07       		.byte	0x7
 796 0213 2701     		.2byte	0x127
 797 0215 D8050000 		.4byte	0x5d8
 798 0219 38       		.byte	0x38
 799 021a 0C       		.uleb128 0xc
 800 021b 32020000 		.4byte	.LASF43
 801 021f 07       		.byte	0x7
 802 0220 2B01     		.2byte	0x12b
 803 0222 15010000 		.4byte	0x115
 804 0226 3C       		.byte	0x3c
ARM GAS  /tmp/cc1kgnVI.s 			page 31


 805 0227 0C       		.uleb128 0xc
 806 0228 9D010000 		.4byte	.LASF44
 807 022c 07       		.byte	0x7
 808 022d 3201     		.2byte	0x132
 809 022f A9000000 		.4byte	0xa9
 810 0233 40       		.byte	0x40
 811 0234 00       		.byte	0
 812 0235 03       		.uleb128 0x3
 813 0236 44020000 		.4byte	.LASF45
 814 023a 06       		.byte	0x6
 815 023b 44       		.byte	0x44
 816 023c 40020000 		.4byte	0x240
 817 0240 06       		.uleb128 0x6
 818 0241 04       		.byte	0x4
 819 0242 4C010000 		.4byte	0x14c
 820 0246 03       		.uleb128 0x3
 821 0247 14050000 		.4byte	.LASF46
 822 024b 06       		.byte	0x6
 823 024c 49       		.byte	0x49
 824 024d 51020000 		.4byte	0x251
 825 0251 08       		.uleb128 0x8
 826 0252 8C030000 		.4byte	.LASF48
 827 0256 04       		.byte	0x4
 828 0257 07       		.byte	0x7
 829 0258 88       		.byte	0x88
 830 0259 6A020000 		.4byte	0x26a
 831 025d 09       		.uleb128 0x9
 832 025e AA000000 		.4byte	.LASF49
 833 0262 07       		.byte	0x7
 834 0263 89       		.byte	0x89
 835 0264 40020000 		.4byte	0x240
 836 0268 00       		.byte	0
 837 0269 00       		.byte	0
 838 026a 03       		.uleb128 0x3
 839 026b 00040000 		.4byte	.LASF50
 840 026f 06       		.byte	0x6
 841 0270 50       		.byte	0x50
 842 0271 75020000 		.4byte	0x275
 843 0275 08       		.uleb128 0x8
 844 0276 AF000000 		.4byte	.LASF51
 845 027a 08       		.byte	0x8
 846 027b 07       		.byte	0x7
 847 027c 8F       		.byte	0x8f
 848 027d 9A020000 		.4byte	0x29a
 849 0281 09       		.uleb128 0x9
 850 0282 AA000000 		.4byte	.LASF49
 851 0286 07       		.byte	0x7
 852 0287 90       		.byte	0x90
 853 0288 40020000 		.4byte	0x240
 854 028c 00       		.byte	0
 855 028d 09       		.uleb128 0x9
 856 028e 34000000 		.4byte	.LASF52
 857 0292 07       		.byte	0x7
 858 0293 91       		.byte	0x91
 859 0294 40020000 		.4byte	0x240
 860 0298 04       		.byte	0x4
 861 0299 00       		.byte	0
ARM GAS  /tmp/cc1kgnVI.s 			page 32


 862 029a 03       		.uleb128 0x3
 863 029b 00000000 		.4byte	.LASF53
 864 029f 06       		.byte	0x6
 865 02a0 57       		.byte	0x57
 866 02a1 A5020000 		.4byte	0x2a5
 867 02a5 0D       		.uleb128 0xd
 868 02a6 EA010000 		.4byte	.LASF54
 869 02aa 1C       		.byte	0x1c
 870 02ab 07       		.byte	0x7
 871 02ac 6A01     		.2byte	0x16a
 872 02ae 01030000 		.4byte	0x301
 873 02b2 0C       		.uleb128 0xc
 874 02b3 19010000 		.4byte	.LASF30
 875 02b7 07       		.byte	0x7
 876 02b8 6B01     		.2byte	0x16b
 877 02ba 6A020000 		.4byte	0x26a
 878 02be 00       		.byte	0
 879 02bf 0C       		.uleb128 0xc
 880 02c0 8C020000 		.4byte	.LASF31
 881 02c4 07       		.byte	0x7
 882 02c5 6C01     		.2byte	0x16c
 883 02c7 15010000 		.4byte	0x115
 884 02cb 08       		.byte	0x8
 885 02cc 0B       		.uleb128 0xb
 886 02cd 63747800 		.ascii	"ctx\000"
 887 02d1 07       		.byte	0x7
 888 02d2 6E01     		.2byte	0x16e
 889 02d4 59040000 		.4byte	0x459
 890 02d8 0C       		.byte	0xc
 891 02d9 0C       		.uleb128 0xc
 892 02da 19020000 		.4byte	.LASF32
 893 02de 07       		.byte	0x7
 894 02df 7101     		.2byte	0x171
 895 02e1 40020000 		.4byte	0x240
 896 02e5 10       		.byte	0x10
 897 02e6 0C       		.uleb128 0xc
 898 02e7 C5030000 		.4byte	.LASF33
 899 02eb 07       		.byte	0x7
 900 02ec 7201     		.2byte	0x172
 901 02ee 40020000 		.4byte	0x240
 902 02f2 14       		.byte	0x14
 903 02f3 0C       		.uleb128 0xc
 904 02f4 91020000 		.4byte	.LASF55
 905 02f8 07       		.byte	0x7
 906 02f9 7501     		.2byte	0x175
 907 02fb 40020000 		.4byte	0x240
 908 02ff 18       		.byte	0x18
 909 0300 00       		.byte	0
 910 0301 03       		.uleb128 0x3
 911 0302 DE030000 		.4byte	.LASF56
 912 0306 06       		.byte	0x6
 913 0307 5C       		.byte	0x5c
 914 0308 0C030000 		.4byte	0x30c
 915 030c 06       		.uleb128 0x6
 916 030d 04       		.byte	0x4
 917 030e 12030000 		.4byte	0x312
 918 0312 0E       		.uleb128 0xe
ARM GAS  /tmp/cc1kgnVI.s 			page 33


 919 0313 1D030000 		.4byte	0x31d
 920 0317 0F       		.uleb128 0xf
 921 0318 A9000000 		.4byte	0xa9
 922 031c 00       		.byte	0
 923 031d 03       		.uleb128 0x3
 924 031e B6020000 		.4byte	.LASF57
 925 0322 06       		.byte	0x6
 926 0323 61       		.byte	0x61
 927 0324 28030000 		.4byte	0x328
 928 0328 0D       		.uleb128 0xd
 929 0329 56030000 		.4byte	.LASF58
 930 032d 14       		.byte	0x14
 931 032e 07       		.byte	0x7
 932 032f 4501     		.2byte	0x145
 933 0331 77030000 		.4byte	0x377
 934 0335 0C       		.uleb128 0xc
 935 0336 AA000000 		.4byte	.LASF49
 936 033a 07       		.byte	0x7
 937 033b 4601     		.2byte	0x146
 938 033d E4050000 		.4byte	0x5e4
 939 0341 00       		.byte	0
 940 0342 0C       		.uleb128 0xc
 941 0343 34000000 		.4byte	.LASF52
 942 0347 07       		.byte	0x7
 943 0348 4701     		.2byte	0x147
 944 034a E4050000 		.4byte	0x5e4
 945 034e 04       		.byte	0x4
 946 034f 0C       		.uleb128 0xc
 947 0350 14000000 		.4byte	.LASF59
 948 0354 07       		.byte	0x7
 949 0355 4801     		.2byte	0x148
 950 0357 41010000 		.4byte	0x141
 951 035b 08       		.byte	0x8
 952 035c 0C       		.uleb128 0xc
 953 035d 0D010000 		.4byte	.LASF60
 954 0361 07       		.byte	0x7
 955 0362 4901     		.2byte	0x149
 956 0364 01030000 		.4byte	0x301
 957 0368 0C       		.byte	0xc
 958 0369 0B       		.uleb128 0xb
 959 036a 70617200 		.ascii	"par\000"
 960 036e 07       		.byte	0x7
 961 036f 4B01     		.2byte	0x14b
 962 0371 A9000000 		.4byte	0xa9
 963 0375 10       		.byte	0x10
 964 0376 00       		.byte	0
 965 0377 03       		.uleb128 0x3
 966 0378 87000000 		.4byte	.LASF61
 967 037c 06       		.byte	0x6
 968 037d 66       		.byte	0x66
 969 037e 82030000 		.4byte	0x382
 970 0382 0D       		.uleb128 0xd
 971 0383 57020000 		.4byte	.LASF62
 972 0387 10       		.byte	0x10
 973 0388 07       		.byte	0x7
 974 0389 5501     		.2byte	0x155
 975 038b C4030000 		.4byte	0x3c4
ARM GAS  /tmp/cc1kgnVI.s 			page 34


 976 038f 0C       		.uleb128 0xc
 977 0390 AA000000 		.4byte	.LASF49
 978 0394 07       		.byte	0x7
 979 0395 5601     		.2byte	0x156
 980 0397 E4050000 		.4byte	0x5e4
 981 039b 00       		.byte	0
 982 039c 0C       		.uleb128 0xc
 983 039d 34000000 		.4byte	.LASF52
 984 03a1 07       		.byte	0x7
 985 03a2 5801     		.2byte	0x158
 986 03a4 E4050000 		.4byte	0x5e4
 987 03a8 04       		.byte	0x4
 988 03a9 0C       		.uleb128 0xc
 989 03aa 14000000 		.4byte	.LASF59
 990 03ae 07       		.byte	0x7
 991 03af 5A01     		.2byte	0x15a
 992 03b1 41010000 		.4byte	0x141
 993 03b5 08       		.byte	0x8
 994 03b6 0C       		.uleb128 0xc
 995 03b7 3C030000 		.4byte	.LASF63
 996 03bb 07       		.byte	0x7
 997 03bc 6201     		.2byte	0x162
 998 03be 41010000 		.4byte	0x141
 999 03c2 0C       		.byte	0xc
 1000 03c3 00       		.byte	0
 1001 03c4 03       		.uleb128 0x3
 1002 03c5 45000000 		.4byte	.LASF64
 1003 03c9 06       		.byte	0x6
 1004 03ca 6B       		.byte	0x6b
 1005 03cb CF030000 		.4byte	0x3cf
 1006 03cf 0D       		.uleb128 0xd
 1007 03d0 06030000 		.4byte	.LASF65
 1008 03d4 04       		.byte	0x4
 1009 03d5 07       		.byte	0x7
 1010 03d6 7C01     		.2byte	0x17c
 1011 03d8 EA030000 		.4byte	0x3ea
 1012 03dc 0C       		.uleb128 0xc
 1013 03dd E7030000 		.4byte	.LASF66
 1014 03e1 07       		.byte	0x7
 1015 03e2 8401     		.2byte	0x184
 1016 03e4 EA050000 		.4byte	0x5ea
 1017 03e8 00       		.byte	0
 1018 03e9 00       		.byte	0
 1019 03ea 03       		.uleb128 0x3
 1020 03eb CF010000 		.4byte	.LASF67
 1021 03ef 06       		.byte	0x6
 1022 03f0 70       		.byte	0x70
 1023 03f1 F5030000 		.4byte	0x3f5
 1024 03f5 0D       		.uleb128 0xd
 1025 03f6 4C030000 		.4byte	.LASF68
 1026 03fa 78       		.byte	0x78
 1027 03fb 07       		.byte	0x7
 1028 03fc 9C01     		.2byte	0x19c
 1029 03fe 43040000 		.4byte	0x443
 1030 0402 0C       		.uleb128 0xc
 1031 0403 19040000 		.4byte	.LASF69
 1032 0407 07       		.byte	0x7
ARM GAS  /tmp/cc1kgnVI.s 			page 35


 1033 0408 A001     		.2byte	0x1a0
 1034 040a 9A020000 		.4byte	0x29a
 1035 040e 00       		.byte	0
 1036 040f 0C       		.uleb128 0xc
 1037 0410 E5000000 		.4byte	.LASF70
 1038 0414 07       		.byte	0x7
 1039 0415 A401     		.2byte	0x1a4
 1040 0417 77030000 		.4byte	0x377
 1041 041b 1C       		.byte	0x1c
 1042 041c 0B       		.uleb128 0xb
 1043 041d 64626700 		.ascii	"dbg\000"
 1044 0421 07       		.byte	0x7
 1045 0422 A801     		.2byte	0x1a8
 1046 0424 C4030000 		.4byte	0x3c4
 1047 0428 2C       		.byte	0x2c
 1048 0429 0C       		.uleb128 0xc
 1049 042a 74000000 		.4byte	.LASF71
 1050 042e 07       		.byte	0x7
 1051 042f AC01     		.2byte	0x1ac
 1052 0431 4C010000 		.4byte	0x14c
 1053 0435 30       		.byte	0x30
 1054 0436 0B       		.uleb128 0xb
 1055 0437 746D00   		.ascii	"tm\000"
 1056 043a 07       		.byte	0x7
 1057 043b B101     		.2byte	0x1b1
 1058 043d 08050000 		.4byte	0x508
 1059 0441 74       		.byte	0x74
 1060 0442 00       		.byte	0
 1061 0443 03       		.uleb128 0x3
 1062 0444 31010000 		.4byte	.LASF72
 1063 0448 08       		.byte	0x8
 1064 0449 65       		.byte	0x65
 1065 044a A9000000 		.4byte	0xa9
 1066 044e 03       		.uleb128 0x3
 1067 044f 0E020000 		.4byte	.LASF73
 1068 0453 08       		.byte	0x8
 1069 0454 6D       		.byte	0x6d
 1070 0455 DE000000 		.4byte	0xde
 1071 0459 08       		.uleb128 0x8
 1072 045a 6E020000 		.4byte	.LASF74
 1073 045e 04       		.byte	0x4
 1074 045f 08       		.byte	0x8
 1075 0460 89       		.byte	0x89
 1076 0461 71040000 		.4byte	0x471
 1077 0465 0A       		.uleb128 0xa
 1078 0466 737000   		.ascii	"sp\000"
 1079 0469 08       		.byte	0x8
 1080 046a 8A       		.byte	0x8a
 1081 046b ED040000 		.4byte	0x4ed
 1082 046f 00       		.byte	0
 1083 0470 00       		.byte	0
 1084 0471 0D       		.uleb128 0xd
 1085 0472 39000000 		.4byte	.LASF75
 1086 0476 24       		.byte	0x24
 1087 0477 09       		.byte	0x9
 1088 0478 5901     		.2byte	0x159
 1089 047a ED040000 		.4byte	0x4ed
ARM GAS  /tmp/cc1kgnVI.s 			page 36


 1090 047e 0B       		.uleb128 0xb
 1091 047f 723400   		.ascii	"r4\000"
 1092 0482 09       		.byte	0x9
 1093 0483 6C01     		.2byte	0x16c
 1094 0485 43040000 		.4byte	0x443
 1095 0489 00       		.byte	0
 1096 048a 0B       		.uleb128 0xb
 1097 048b 723500   		.ascii	"r5\000"
 1098 048e 09       		.byte	0x9
 1099 048f 6D01     		.2byte	0x16d
 1100 0491 43040000 		.4byte	0x443
 1101 0495 04       		.byte	0x4
 1102 0496 0B       		.uleb128 0xb
 1103 0497 723600   		.ascii	"r6\000"
 1104 049a 09       		.byte	0x9
 1105 049b 6E01     		.2byte	0x16e
 1106 049d 43040000 		.4byte	0x443
 1107 04a1 08       		.byte	0x8
 1108 04a2 0B       		.uleb128 0xb
 1109 04a3 723700   		.ascii	"r7\000"
 1110 04a6 09       		.byte	0x9
 1111 04a7 6F01     		.2byte	0x16f
 1112 04a9 43040000 		.4byte	0x443
 1113 04ad 0C       		.byte	0xc
 1114 04ae 0B       		.uleb128 0xb
 1115 04af 723800   		.ascii	"r8\000"
 1116 04b2 09       		.byte	0x9
 1117 04b3 7001     		.2byte	0x170
 1118 04b5 43040000 		.4byte	0x443
 1119 04b9 10       		.byte	0x10
 1120 04ba 0B       		.uleb128 0xb
 1121 04bb 723900   		.ascii	"r9\000"
 1122 04be 09       		.byte	0x9
 1123 04bf 7101     		.2byte	0x171
 1124 04c1 43040000 		.4byte	0x443
 1125 04c5 14       		.byte	0x14
 1126 04c6 0B       		.uleb128 0xb
 1127 04c7 72313000 		.ascii	"r10\000"
 1128 04cb 09       		.byte	0x9
 1129 04cc 7201     		.2byte	0x172
 1130 04ce 43040000 		.4byte	0x443
 1131 04d2 18       		.byte	0x18
 1132 04d3 0B       		.uleb128 0xb
 1133 04d4 72313100 		.ascii	"r11\000"
 1134 04d8 09       		.byte	0x9
 1135 04d9 7301     		.2byte	0x173
 1136 04db 43040000 		.4byte	0x443
 1137 04df 1C       		.byte	0x1c
 1138 04e0 0B       		.uleb128 0xb
 1139 04e1 6C7200   		.ascii	"lr\000"
 1140 04e4 09       		.byte	0x9
 1141 04e5 7401     		.2byte	0x174
 1142 04e7 43040000 		.4byte	0x443
 1143 04eb 20       		.byte	0x20
 1144 04ec 00       		.byte	0
 1145 04ed 06       		.uleb128 0x6
 1146 04ee 04       		.byte	0x4
ARM GAS  /tmp/cc1kgnVI.s 			page 37


 1147 04ef 71040000 		.4byte	0x471
 1148 04f3 10       		.uleb128 0x10
 1149 04f4 04       		.byte	0x4
 1150 04f5 0A       		.byte	0xa
 1151 04f6 38       		.byte	0x38
 1152 04f7 08050000 		.4byte	0x508
 1153 04fb 09       		.uleb128 0x9
 1154 04fc F1030000 		.4byte	.LASF76
 1155 0500 0A       		.byte	0xa
 1156 0501 3C       		.byte	0x3c
 1157 0502 E9000000 		.4byte	0xe9
 1158 0506 00       		.byte	0
 1159 0507 00       		.byte	0
 1160 0508 03       		.uleb128 0x3
 1161 0509 7B020000 		.4byte	.LASF77
 1162 050d 0A       		.byte	0xa
 1163 050e 3D       		.byte	0x3d
 1164 050f F3040000 		.4byte	0x4f3
 1165 0513 11       		.uleb128 0x11
 1166 0514 04       		.byte	0x4
 1167 0515 07       		.byte	0x7
 1168 0516 D2       		.byte	0xd2
 1169 0517 76050000 		.4byte	0x576
 1170 051b 12       		.uleb128 0x12
 1171 051c 1A000000 		.4byte	.LASF78
 1172 0520 07       		.byte	0x7
 1173 0521 D9       		.byte	0xd9
 1174 0522 20010000 		.4byte	0x120
 1175 0526 12       		.uleb128 0x12
 1176 0527 6B000000 		.4byte	.LASF79
 1177 052b 07       		.byte	0x7
 1178 052c E0       		.byte	0xe0
 1179 052d 20010000 		.4byte	0x120
 1180 0531 12       		.uleb128 0x12
 1181 0532 0D050000 		.4byte	.LASF80
 1182 0536 07       		.byte	0x7
 1183 0537 E7       		.byte	0xe7
 1184 0538 A9000000 		.4byte	0xa9
 1185 053c 12       		.uleb128 0x12
 1186 053d 92010000 		.4byte	.LASF81
 1187 0541 07       		.byte	0x7
 1188 0542 EE       		.byte	0xee
 1189 0543 76050000 		.4byte	0x576
 1190 0547 12       		.uleb128 0x12
 1191 0548 7F000000 		.4byte	.LASF82
 1192 054c 07       		.byte	0x7
 1193 054d F3       		.byte	0xf3
 1194 054e 20010000 		.4byte	0x120
 1195 0552 12       		.uleb128 0x12
 1196 0553 8B010000 		.4byte	.LASF83
 1197 0557 07       		.byte	0x7
 1198 0558 FC       		.byte	0xfc
 1199 0559 A1050000 		.4byte	0x5a1
 1200 055d 13       		.uleb128 0x13
 1201 055e 7D030000 		.4byte	.LASF84
 1202 0562 07       		.byte	0x7
 1203 0563 0501     		.2byte	0x105
ARM GAS  /tmp/cc1kgnVI.s 			page 38


 1204 0565 D8050000 		.4byte	0x5d8
 1205 0569 13       		.uleb128 0x13
 1206 056a 45030000 		.4byte	.LASF85
 1207 056e 07       		.byte	0x7
 1208 056f 0D01     		.2byte	0x10d
 1209 0571 2B010000 		.4byte	0x12b
 1210 0575 00       		.byte	0
 1211 0576 06       		.uleb128 0x6
 1212 0577 04       		.byte	0x4
 1213 0578 35020000 		.4byte	0x235
 1214 057c 08       		.uleb128 0x8
 1215 057d 67030000 		.4byte	.LASF86
 1216 0581 0C       		.byte	0xc
 1217 0582 0B       		.byte	0xb
 1218 0583 34       		.byte	0x34
 1219 0584 A1050000 		.4byte	0x5a1
 1220 0588 09       		.uleb128 0x9
 1221 0589 19010000 		.4byte	.LASF30
 1222 058d 0B       		.byte	0xb
 1223 058e 35       		.byte	0x35
 1224 058f 6A020000 		.4byte	0x26a
 1225 0593 00       		.byte	0
 1226 0594 0A       		.uleb128 0xa
 1227 0595 636E7400 		.ascii	"cnt\000"
 1228 0599 0B       		.byte	0xb
 1229 059a 37       		.byte	0x37
 1230 059b 36010000 		.4byte	0x136
 1231 059f 08       		.byte	0x8
 1232 05a0 00       		.byte	0
 1233 05a1 06       		.uleb128 0x6
 1234 05a2 04       		.byte	0x4
 1235 05a3 7C050000 		.4byte	0x57c
 1236 05a7 08       		.uleb128 0x8
 1237 05a8 10040000 		.4byte	.LASF87
 1238 05ac 10       		.byte	0x10
 1239 05ad 0C       		.byte	0xc
 1240 05ae 39       		.byte	0x39
 1241 05af D8050000 		.4byte	0x5d8
 1242 05b3 09       		.uleb128 0x9
 1243 05b4 19010000 		.4byte	.LASF30
 1244 05b8 0C       		.byte	0xc
 1245 05b9 3A       		.byte	0x3a
 1246 05ba 6A020000 		.4byte	0x26a
 1247 05be 00       		.byte	0
 1248 05bf 09       		.uleb128 0x9
 1249 05c0 9C030000 		.4byte	.LASF88
 1250 05c4 0C       		.byte	0xc
 1251 05c5 3C       		.byte	0x3c
 1252 05c6 40020000 		.4byte	0x240
 1253 05ca 08       		.byte	0x8
 1254 05cb 09       		.uleb128 0x9
 1255 05cc AA000000 		.4byte	.LASF49
 1256 05d0 0C       		.byte	0xc
 1257 05d1 3E       		.byte	0x3e
 1258 05d2 FA050000 		.4byte	0x5fa
 1259 05d6 0C       		.byte	0xc
 1260 05d7 00       		.byte	0
ARM GAS  /tmp/cc1kgnVI.s 			page 39


 1261 05d8 06       		.uleb128 0x6
 1262 05d9 04       		.byte	0x4
 1263 05da A7050000 		.4byte	0x5a7
 1264 05de 06       		.uleb128 0x6
 1265 05df 04       		.byte	0x4
 1266 05e0 4E040000 		.4byte	0x44e
 1267 05e4 06       		.uleb128 0x6
 1268 05e5 04       		.byte	0x4
 1269 05e6 1D030000 		.4byte	0x31d
 1270 05ea 14       		.uleb128 0x14
 1271 05eb B2000000 		.4byte	0xb2
 1272 05ef 03       		.uleb128 0x3
 1273 05f0 70010000 		.4byte	.LASF89
 1274 05f4 0C       		.byte	0xc
 1275 05f5 34       		.byte	0x34
 1276 05f6 A7050000 		.4byte	0x5a7
 1277 05fa 06       		.uleb128 0x6
 1278 05fb 04       		.byte	0x4
 1279 05fc EF050000 		.4byte	0x5ef
 1280 0600 15       		.uleb128 0x15
 1281 0601 2C000000 		.4byte	0x2c
 1282 0605 19060000 		.4byte	0x619
 1283 0609 0F       		.uleb128 0xf
 1284 060a A9000000 		.4byte	0xa9
 1285 060e 0F       		.uleb128 0xf
 1286 060f 19060000 		.4byte	0x619
 1287 0613 0F       		.uleb128 0xf
 1288 0614 2C000000 		.4byte	0x2c
 1289 0618 00       		.byte	0
 1290 0619 06       		.uleb128 0x6
 1291 061a 04       		.byte	0x4
 1292 061b 1F060000 		.4byte	0x61f
 1293 061f 07       		.uleb128 0x7
 1294 0620 BD000000 		.4byte	0xbd
 1295 0624 06       		.uleb128 0x6
 1296 0625 04       		.byte	0x4
 1297 0626 00060000 		.4byte	0x600
 1298 062a 15       		.uleb128 0x15
 1299 062b 2C000000 		.4byte	0x2c
 1300 062f 43060000 		.4byte	0x643
 1301 0633 0F       		.uleb128 0xf
 1302 0634 A9000000 		.4byte	0xa9
 1303 0638 0F       		.uleb128 0xf
 1304 0639 43060000 		.4byte	0x643
 1305 063d 0F       		.uleb128 0xf
 1306 063e 2C000000 		.4byte	0x2c
 1307 0642 00       		.byte	0
 1308 0643 06       		.uleb128 0x6
 1309 0644 04       		.byte	0x4
 1310 0645 BD000000 		.4byte	0xbd
 1311 0649 06       		.uleb128 0x6
 1312 064a 04       		.byte	0x4
 1313 064b 2A060000 		.4byte	0x62a
 1314 064f 15       		.uleb128 0x15
 1315 0650 20010000 		.4byte	0x120
 1316 0654 63060000 		.4byte	0x663
 1317 0658 0F       		.uleb128 0xf
ARM GAS  /tmp/cc1kgnVI.s 			page 40


 1318 0659 A9000000 		.4byte	0xa9
 1319 065d 0F       		.uleb128 0xf
 1320 065e BD000000 		.4byte	0xbd
 1321 0662 00       		.byte	0
 1322 0663 06       		.uleb128 0x6
 1323 0664 04       		.byte	0x4
 1324 0665 4F060000 		.4byte	0x64f
 1325 0669 15       		.uleb128 0x15
 1326 066a 20010000 		.4byte	0x120
 1327 066e 78060000 		.4byte	0x678
 1328 0672 0F       		.uleb128 0xf
 1329 0673 A9000000 		.4byte	0xa9
 1330 0677 00       		.byte	0
 1331 0678 06       		.uleb128 0x6
 1332 0679 04       		.byte	0x4
 1333 067a 69060000 		.4byte	0x669
 1334 067e 04       		.uleb128 0x4
 1335 067f 01       		.byte	0x1
 1336 0680 02       		.byte	0x2
 1337 0681 16030000 		.4byte	.LASF90
 1338 0685 08       		.uleb128 0x8
 1339 0686 99020000 		.4byte	.LASF91
 1340 068a 10       		.byte	0x10
 1341 068b 0D       		.byte	0xd
 1342 068c 3D       		.byte	0x3d
 1343 068d C2060000 		.4byte	0x6c2
 1344 0691 09       		.uleb128 0x9
 1345 0692 2C020000 		.4byte	.LASF92
 1346 0696 0D       		.byte	0xd
 1347 0697 3E       		.byte	0x3e
 1348 0698 24060000 		.4byte	0x624
 1349 069c 00       		.byte	0
 1350 069d 09       		.uleb128 0x9
 1351 069e BB030000 		.4byte	.LASF93
 1352 06a2 0D       		.byte	0xd
 1353 06a3 3E       		.byte	0x3e
 1354 06a4 49060000 		.4byte	0x649
 1355 06a8 04       		.byte	0x4
 1356 06a9 0A       		.uleb128 0xa
 1357 06aa 70757400 		.ascii	"put\000"
 1358 06ae 0D       		.byte	0xd
 1359 06af 3E       		.byte	0x3e
 1360 06b0 63060000 		.4byte	0x663
 1361 06b4 08       		.byte	0x8
 1362 06b5 0A       		.uleb128 0xa
 1363 06b6 67657400 		.ascii	"get\000"
 1364 06ba 0D       		.byte	0xd
 1365 06bb 3E       		.byte	0x3e
 1366 06bc 78060000 		.4byte	0x678
 1367 06c0 0C       		.byte	0xc
 1368 06c1 00       		.byte	0
 1369 06c2 10       		.uleb128 0x10
 1370 06c3 14       		.byte	0x14
 1371 06c4 0D       		.byte	0xd
 1372 06c5 46       		.byte	0x46
 1373 06c6 07070000 		.4byte	0x707
 1374 06ca 0A       		.uleb128 0xa
ARM GAS  /tmp/cc1kgnVI.s 			page 41


 1375 06cb 766D7400 		.ascii	"vmt\000"
 1376 06cf 0D       		.byte	0xd
 1377 06d0 48       		.byte	0x48
 1378 06d1 07070000 		.4byte	0x707
 1379 06d5 00       		.byte	0
 1380 06d6 09       		.uleb128 0x9
 1381 06d7 1F010000 		.4byte	.LASF94
 1382 06db 0D       		.byte	0xd
 1383 06dc 49       		.byte	0x49
 1384 06dd 43060000 		.4byte	0x643
 1385 06e1 04       		.byte	0x4
 1386 06e2 09       		.uleb128 0x9
 1387 06e3 E0000000 		.4byte	.LASF95
 1388 06e7 0D       		.byte	0xd
 1389 06e8 49       		.byte	0x49
 1390 06e9 2C000000 		.4byte	0x2c
 1391 06ed 08       		.byte	0x8
 1392 06ee 0A       		.uleb128 0xa
 1393 06ef 656F7300 		.ascii	"eos\000"
 1394 06f3 0D       		.byte	0xd
 1395 06f4 49       		.byte	0x49
 1396 06f5 2C000000 		.4byte	0x2c
 1397 06f9 0C       		.byte	0xc
 1398 06fa 09       		.uleb128 0x9
 1399 06fb F1030000 		.4byte	.LASF76
 1400 06ff 0D       		.byte	0xd
 1401 0700 49       		.byte	0x49
 1402 0701 2C000000 		.4byte	0x2c
 1403 0705 10       		.byte	0x10
 1404 0706 00       		.byte	0
 1405 0707 06       		.uleb128 0x6
 1406 0708 04       		.byte	0x4
 1407 0709 0D070000 		.4byte	0x70d
 1408 070d 07       		.uleb128 0x7
 1409 070e 85060000 		.4byte	0x685
 1410 0712 03       		.uleb128 0x3
 1411 0713 F9020000 		.4byte	.LASF96
 1412 0717 0D       		.byte	0xd
 1413 0718 4A       		.byte	0x4a
 1414 0719 C2060000 		.4byte	0x6c2
 1415 071d 16       		.uleb128 0x16
 1416 071e 70757400 		.ascii	"put\000"
 1417 0722 01       		.byte	0x1
 1418 0723 42       		.byte	0x42
 1419 0724 20010000 		.4byte	0x120
 1420 0728 00000000 		.4byte	.LFB272
 1421 072c 1C000000 		.4byte	.LFE272-.LFB272
 1422 0730 01       		.uleb128 0x1
 1423 0731 9C       		.byte	0x9c
 1424 0732 5F070000 		.4byte	0x75f
 1425 0736 17       		.uleb128 0x17
 1426 0737 697000   		.ascii	"ip\000"
 1427 073a 01       		.byte	0x1
 1428 073b 42       		.byte	0x42
 1429 073c A9000000 		.4byte	0xa9
 1430 0740 00000000 		.4byte	.LLST0
 1431 0744 18       		.uleb128 0x18
ARM GAS  /tmp/cc1kgnVI.s 			page 42


 1432 0745 6200     		.ascii	"b\000"
 1433 0747 01       		.byte	0x1
 1434 0748 42       		.byte	0x42
 1435 0749 BD000000 		.4byte	0xbd
 1436 074d 01       		.uleb128 0x1
 1437 074e 51       		.byte	0x51
 1438 074f 19       		.uleb128 0x19
 1439 0750 6D737000 		.ascii	"msp\000"
 1440 0754 01       		.byte	0x1
 1441 0755 43       		.byte	0x43
 1442 0756 5F070000 		.4byte	0x75f
 1443 075a 00000000 		.4byte	.LLST0
 1444 075e 00       		.byte	0
 1445 075f 06       		.uleb128 0x6
 1446 0760 04       		.byte	0x4
 1447 0761 12070000 		.4byte	0x712
 1448 0765 16       		.uleb128 0x16
 1449 0766 67657400 		.ascii	"get\000"
 1450 076a 01       		.byte	0x1
 1451 076b 4C       		.byte	0x4c
 1452 076c 20010000 		.4byte	0x120
 1453 0770 00000000 		.4byte	.LFB273
 1454 0774 1A000000 		.4byte	.LFE273-.LFB273
 1455 0778 01       		.uleb128 0x1
 1456 0779 9C       		.byte	0x9c
 1457 077a A9070000 		.4byte	0x7a9
 1458 077e 17       		.uleb128 0x17
 1459 077f 697000   		.ascii	"ip\000"
 1460 0782 01       		.byte	0x1
 1461 0783 4C       		.byte	0x4c
 1462 0784 A9000000 		.4byte	0xa9
 1463 0788 3A000000 		.4byte	.LLST2
 1464 078c 19       		.uleb128 0x19
 1465 078d 6200     		.ascii	"b\000"
 1466 078f 01       		.byte	0x1
 1467 0790 4D       		.byte	0x4d
 1468 0791 BD000000 		.4byte	0xbd
 1469 0795 6E000000 		.4byte	.LLST3
 1470 0799 19       		.uleb128 0x19
 1471 079a 6D737000 		.ascii	"msp\000"
 1472 079e 01       		.byte	0x1
 1473 079f 4E       		.byte	0x4e
 1474 07a0 5F070000 		.4byte	0x75f
 1475 07a4 A0000000 		.4byte	.LLST4
 1476 07a8 00       		.byte	0
 1477 07a9 1A       		.uleb128 0x1a
 1478 07aa C0000000 		.4byte	.LASF97
 1479 07ae 01       		.byte	0x1
 1480 07af 38       		.byte	0x38
 1481 07b0 2C000000 		.4byte	0x2c
 1482 07b4 00000000 		.4byte	.LFB271
 1483 07b8 26000000 		.4byte	.LFE271-.LFB271
 1484 07bc 01       		.uleb128 0x1
 1485 07bd 9C       		.byte	0x9c
 1486 07be 12080000 		.4byte	0x812
 1487 07c2 17       		.uleb128 0x17
 1488 07c3 697000   		.ascii	"ip\000"
ARM GAS  /tmp/cc1kgnVI.s 			page 43


 1489 07c6 01       		.byte	0x1
 1490 07c7 38       		.byte	0x38
 1491 07c8 A9000000 		.4byte	0xa9
 1492 07cc D4000000 		.4byte	.LLST5
 1493 07d0 17       		.uleb128 0x17
 1494 07d1 627000   		.ascii	"bp\000"
 1495 07d4 01       		.byte	0x1
 1496 07d5 38       		.byte	0x38
 1497 07d6 43060000 		.4byte	0x643
 1498 07da F2000000 		.4byte	.LLST6
 1499 07de 17       		.uleb128 0x17
 1500 07df 6E00     		.ascii	"n\000"
 1501 07e1 01       		.byte	0x1
 1502 07e2 38       		.byte	0x38
 1503 07e3 2C000000 		.4byte	0x2c
 1504 07e7 1E010000 		.4byte	.LLST7
 1505 07eb 19       		.uleb128 0x19
 1506 07ec 6D737000 		.ascii	"msp\000"
 1507 07f0 01       		.byte	0x1
 1508 07f1 39       		.byte	0x39
 1509 07f2 5F070000 		.4byte	0x75f
 1510 07f6 3C010000 		.4byte	.LLST8
 1511 07fa 1B       		.uleb128 0x1b
 1512 07fb 1C000000 		.4byte	.LVL16
 1513 07ff F4080000 		.4byte	0x8f4
 1514 0803 1C       		.uleb128 0x1c
 1515 0804 01       		.uleb128 0x1
 1516 0805 52       		.byte	0x52
 1517 0806 02       		.uleb128 0x2
 1518 0807 75       		.byte	0x75
 1519 0808 00       		.sleb128 0
 1520 0809 1C       		.uleb128 0x1c
 1521 080a 01       		.uleb128 0x1
 1522 080b 50       		.byte	0x50
 1523 080c 03       		.uleb128 0x3
 1524 080d F3       		.byte	0xf3
 1525 080e 01       		.uleb128 0x1
 1526 080f 51       		.byte	0x51
 1527 0810 00       		.byte	0
 1528 0811 00       		.byte	0
 1529 0812 1A       		.uleb128 0x1a
 1530 0813 DB010000 		.4byte	.LASF98
 1531 0817 01       		.byte	0x1
 1532 0818 2E       		.byte	0x2e
 1533 0819 2C000000 		.4byte	0x2c
 1534 081d 00000000 		.4byte	.LFB270
 1535 0821 24000000 		.4byte	.LFE270-.LFB270
 1536 0825 01       		.uleb128 0x1
 1537 0826 9C       		.byte	0x9c
 1538 0827 7B080000 		.4byte	0x87b
 1539 082b 17       		.uleb128 0x17
 1540 082c 697000   		.ascii	"ip\000"
 1541 082f 01       		.byte	0x1
 1542 0830 2E       		.byte	0x2e
 1543 0831 A9000000 		.4byte	0xa9
 1544 0835 5A010000 		.4byte	.LLST9
 1545 0839 17       		.uleb128 0x17
ARM GAS  /tmp/cc1kgnVI.s 			page 44


 1546 083a 627000   		.ascii	"bp\000"
 1547 083d 01       		.byte	0x1
 1548 083e 2E       		.byte	0x2e
 1549 083f 19060000 		.4byte	0x619
 1550 0843 78010000 		.4byte	.LLST10
 1551 0847 17       		.uleb128 0x17
 1552 0848 6E00     		.ascii	"n\000"
 1553 084a 01       		.byte	0x1
 1554 084b 2E       		.byte	0x2e
 1555 084c 2C000000 		.4byte	0x2c
 1556 0850 99010000 		.4byte	.LLST11
 1557 0854 19       		.uleb128 0x19
 1558 0855 6D737000 		.ascii	"msp\000"
 1559 0859 01       		.byte	0x1
 1560 085a 2F       		.byte	0x2f
 1561 085b 5F070000 		.4byte	0x75f
 1562 085f B7010000 		.4byte	.LLST12
 1563 0863 1B       		.uleb128 0x1b
 1564 0864 1A000000 		.4byte	.LVL21
 1565 0868 F4080000 		.4byte	0x8f4
 1566 086c 1C       		.uleb128 0x1c
 1567 086d 01       		.uleb128 0x1
 1568 086e 52       		.byte	0x52
 1569 086f 02       		.uleb128 0x2
 1570 0870 75       		.byte	0x75
 1571 0871 00       		.sleb128 0
 1572 0872 1C       		.uleb128 0x1c
 1573 0873 01       		.uleb128 0x1
 1574 0874 51       		.byte	0x51
 1575 0875 03       		.uleb128 0x3
 1576 0876 F3       		.byte	0xf3
 1577 0877 01       		.uleb128 0x1
 1578 0878 51       		.byte	0x51
 1579 0879 00       		.byte	0
 1580 087a 00       		.byte	0
 1581 087b 1D       		.uleb128 0x1d
 1582 087c 1F020000 		.4byte	.LASF103
 1583 0880 01       		.byte	0x1
 1584 0881 67       		.byte	0x67
 1585 0882 00000000 		.4byte	.LFB274
 1586 0886 1C000000 		.4byte	.LFE274-.LFB274
 1587 088a 01       		.uleb128 0x1
 1588 088b 9C       		.byte	0x9c
 1589 088c C7080000 		.4byte	0x8c7
 1590 0890 18       		.uleb128 0x18
 1591 0891 6D737000 		.ascii	"msp\000"
 1592 0895 01       		.byte	0x1
 1593 0896 67       		.byte	0x67
 1594 0897 5F070000 		.4byte	0x75f
 1595 089b 01       		.uleb128 0x1
 1596 089c 50       		.byte	0x50
 1597 089d 1E       		.uleb128 0x1e
 1598 089e 1F010000 		.4byte	.LASF94
 1599 08a2 01       		.byte	0x1
 1600 08a3 67       		.byte	0x67
 1601 08a4 43060000 		.4byte	0x643
 1602 08a8 D5010000 		.4byte	.LLST13
ARM GAS  /tmp/cc1kgnVI.s 			page 45


 1603 08ac 1F       		.uleb128 0x1f
 1604 08ad E0000000 		.4byte	.LASF95
 1605 08b1 01       		.byte	0x1
 1606 08b2 68       		.byte	0x68
 1607 08b3 2C000000 		.4byte	0x2c
 1608 08b7 01       		.uleb128 0x1
 1609 08b8 52       		.byte	0x52
 1610 08b9 18       		.uleb128 0x18
 1611 08ba 656F7300 		.ascii	"eos\000"
 1612 08be 01       		.byte	0x1
 1613 08bf 68       		.byte	0x68
 1614 08c0 2C000000 		.4byte	0x2c
 1615 08c4 01       		.uleb128 0x1
 1616 08c5 53       		.byte	0x53
 1617 08c6 00       		.byte	0
 1618 08c7 20       		.uleb128 0x20
 1619 08c8 766D7400 		.ascii	"vmt\000"
 1620 08cc 01       		.byte	0x1
 1621 08cd 57       		.byte	0x57
 1622 08ce 0D070000 		.4byte	0x70d
 1623 08d2 05       		.uleb128 0x5
 1624 08d3 03       		.byte	0x3
 1625 08d4 00000000 		.4byte	vmt
 1626 08d8 21       		.uleb128 0x21
 1627 08d9 9D000000 		.4byte	.LASF99
 1628 08dd 0E       		.byte	0xe
 1629 08de 4407     		.2byte	0x744
 1630 08e0 E4080000 		.4byte	0x8e4
 1631 08e4 14       		.uleb128 0x14
 1632 08e5 C8000000 		.4byte	0xc8
 1633 08e9 22       		.uleb128 0x22
 1634 08ea 636800   		.ascii	"ch\000"
 1635 08ed 07       		.byte	0x7
 1636 08ee D201     		.2byte	0x1d2
 1637 08f0 EA030000 		.4byte	0x3ea
 1638 08f4 23       		.uleb128 0x23
 1639 08f5 12010000 		.4byte	.LASF104
 1640 08f9 A9000000 		.4byte	0xa9
 1641 08fd 11090000 		.4byte	0x911
 1642 0901 0F       		.uleb128 0xf
 1643 0902 A9000000 		.4byte	0xa9
 1644 0906 0F       		.uleb128 0xf
 1645 0907 11090000 		.4byte	0x911
 1646 090b 0F       		.uleb128 0xf
 1647 090c A2000000 		.4byte	0xa2
 1648 0910 00       		.byte	0
 1649 0911 06       		.uleb128 0x6
 1650 0912 04       		.byte	0x4
 1651 0913 17090000 		.4byte	0x917
 1652 0917 24       		.uleb128 0x24
 1653 0918 00       		.byte	0
 1654              		.section	.debug_abbrev,"",%progbits
 1655              	.Ldebug_abbrev0:
 1656 0000 01       		.uleb128 0x1
 1657 0001 11       		.uleb128 0x11
 1658 0002 01       		.byte	0x1
 1659 0003 25       		.uleb128 0x25
ARM GAS  /tmp/cc1kgnVI.s 			page 46


 1660 0004 0E       		.uleb128 0xe
 1661 0005 13       		.uleb128 0x13
 1662 0006 0B       		.uleb128 0xb
 1663 0007 03       		.uleb128 0x3
 1664 0008 0E       		.uleb128 0xe
 1665 0009 1B       		.uleb128 0x1b
 1666 000a 0E       		.uleb128 0xe
 1667 000b 55       		.uleb128 0x55
 1668 000c 17       		.uleb128 0x17
 1669 000d 11       		.uleb128 0x11
 1670 000e 01       		.uleb128 0x1
 1671 000f 10       		.uleb128 0x10
 1672 0010 17       		.uleb128 0x17
 1673 0011 00       		.byte	0
 1674 0012 00       		.byte	0
 1675 0013 02       		.uleb128 0x2
 1676 0014 24       		.uleb128 0x24
 1677 0015 00       		.byte	0
 1678 0016 0B       		.uleb128 0xb
 1679 0017 0B       		.uleb128 0xb
 1680 0018 3E       		.uleb128 0x3e
 1681 0019 0B       		.uleb128 0xb
 1682 001a 03       		.uleb128 0x3
 1683 001b 08       		.uleb128 0x8
 1684 001c 00       		.byte	0
 1685 001d 00       		.byte	0
 1686 001e 03       		.uleb128 0x3
 1687 001f 16       		.uleb128 0x16
 1688 0020 00       		.byte	0
 1689 0021 03       		.uleb128 0x3
 1690 0022 0E       		.uleb128 0xe
 1691 0023 3A       		.uleb128 0x3a
 1692 0024 0B       		.uleb128 0xb
 1693 0025 3B       		.uleb128 0x3b
 1694 0026 0B       		.uleb128 0xb
 1695 0027 49       		.uleb128 0x49
 1696 0028 13       		.uleb128 0x13
 1697 0029 00       		.byte	0
 1698 002a 00       		.byte	0
 1699 002b 04       		.uleb128 0x4
 1700 002c 24       		.uleb128 0x24
 1701 002d 00       		.byte	0
 1702 002e 0B       		.uleb128 0xb
 1703 002f 0B       		.uleb128 0xb
 1704 0030 3E       		.uleb128 0x3e
 1705 0031 0B       		.uleb128 0xb
 1706 0032 03       		.uleb128 0x3
 1707 0033 0E       		.uleb128 0xe
 1708 0034 00       		.byte	0
 1709 0035 00       		.byte	0
 1710 0036 05       		.uleb128 0x5
 1711 0037 0F       		.uleb128 0xf
 1712 0038 00       		.byte	0
 1713 0039 0B       		.uleb128 0xb
 1714 003a 0B       		.uleb128 0xb
 1715 003b 00       		.byte	0
 1716 003c 00       		.byte	0
ARM GAS  /tmp/cc1kgnVI.s 			page 47


 1717 003d 06       		.uleb128 0x6
 1718 003e 0F       		.uleb128 0xf
 1719 003f 00       		.byte	0
 1720 0040 0B       		.uleb128 0xb
 1721 0041 0B       		.uleb128 0xb
 1722 0042 49       		.uleb128 0x49
 1723 0043 13       		.uleb128 0x13
 1724 0044 00       		.byte	0
 1725 0045 00       		.byte	0
 1726 0046 07       		.uleb128 0x7
 1727 0047 26       		.uleb128 0x26
 1728 0048 00       		.byte	0
 1729 0049 49       		.uleb128 0x49
 1730 004a 13       		.uleb128 0x13
 1731 004b 00       		.byte	0
 1732 004c 00       		.byte	0
 1733 004d 08       		.uleb128 0x8
 1734 004e 13       		.uleb128 0x13
 1735 004f 01       		.byte	0x1
 1736 0050 03       		.uleb128 0x3
 1737 0051 0E       		.uleb128 0xe
 1738 0052 0B       		.uleb128 0xb
 1739 0053 0B       		.uleb128 0xb
 1740 0054 3A       		.uleb128 0x3a
 1741 0055 0B       		.uleb128 0xb
 1742 0056 3B       		.uleb128 0x3b
 1743 0057 0B       		.uleb128 0xb
 1744 0058 01       		.uleb128 0x1
 1745 0059 13       		.uleb128 0x13
 1746 005a 00       		.byte	0
 1747 005b 00       		.byte	0
 1748 005c 09       		.uleb128 0x9
 1749 005d 0D       		.uleb128 0xd
 1750 005e 00       		.byte	0
 1751 005f 03       		.uleb128 0x3
 1752 0060 0E       		.uleb128 0xe
 1753 0061 3A       		.uleb128 0x3a
 1754 0062 0B       		.uleb128 0xb
 1755 0063 3B       		.uleb128 0x3b
 1756 0064 0B       		.uleb128 0xb
 1757 0065 49       		.uleb128 0x49
 1758 0066 13       		.uleb128 0x13
 1759 0067 38       		.uleb128 0x38
 1760 0068 0B       		.uleb128 0xb
 1761 0069 00       		.byte	0
 1762 006a 00       		.byte	0
 1763 006b 0A       		.uleb128 0xa
 1764 006c 0D       		.uleb128 0xd
 1765 006d 00       		.byte	0
 1766 006e 03       		.uleb128 0x3
 1767 006f 08       		.uleb128 0x8
 1768 0070 3A       		.uleb128 0x3a
 1769 0071 0B       		.uleb128 0xb
 1770 0072 3B       		.uleb128 0x3b
 1771 0073 0B       		.uleb128 0xb
 1772 0074 49       		.uleb128 0x49
 1773 0075 13       		.uleb128 0x13
ARM GAS  /tmp/cc1kgnVI.s 			page 48


 1774 0076 38       		.uleb128 0x38
 1775 0077 0B       		.uleb128 0xb
 1776 0078 00       		.byte	0
 1777 0079 00       		.byte	0
 1778 007a 0B       		.uleb128 0xb
 1779 007b 0D       		.uleb128 0xd
 1780 007c 00       		.byte	0
 1781 007d 03       		.uleb128 0x3
 1782 007e 08       		.uleb128 0x8
 1783 007f 3A       		.uleb128 0x3a
 1784 0080 0B       		.uleb128 0xb
 1785 0081 3B       		.uleb128 0x3b
 1786 0082 05       		.uleb128 0x5
 1787 0083 49       		.uleb128 0x49
 1788 0084 13       		.uleb128 0x13
 1789 0085 38       		.uleb128 0x38
 1790 0086 0B       		.uleb128 0xb
 1791 0087 00       		.byte	0
 1792 0088 00       		.byte	0
 1793 0089 0C       		.uleb128 0xc
 1794 008a 0D       		.uleb128 0xd
 1795 008b 00       		.byte	0
 1796 008c 03       		.uleb128 0x3
 1797 008d 0E       		.uleb128 0xe
 1798 008e 3A       		.uleb128 0x3a
 1799 008f 0B       		.uleb128 0xb
 1800 0090 3B       		.uleb128 0x3b
 1801 0091 05       		.uleb128 0x5
 1802 0092 49       		.uleb128 0x49
 1803 0093 13       		.uleb128 0x13
 1804 0094 38       		.uleb128 0x38
 1805 0095 0B       		.uleb128 0xb
 1806 0096 00       		.byte	0
 1807 0097 00       		.byte	0
 1808 0098 0D       		.uleb128 0xd
 1809 0099 13       		.uleb128 0x13
 1810 009a 01       		.byte	0x1
 1811 009b 03       		.uleb128 0x3
 1812 009c 0E       		.uleb128 0xe
 1813 009d 0B       		.uleb128 0xb
 1814 009e 0B       		.uleb128 0xb
 1815 009f 3A       		.uleb128 0x3a
 1816 00a0 0B       		.uleb128 0xb
 1817 00a1 3B       		.uleb128 0x3b
 1818 00a2 05       		.uleb128 0x5
 1819 00a3 01       		.uleb128 0x1
 1820 00a4 13       		.uleb128 0x13
 1821 00a5 00       		.byte	0
 1822 00a6 00       		.byte	0
 1823 00a7 0E       		.uleb128 0xe
 1824 00a8 15       		.uleb128 0x15
 1825 00a9 01       		.byte	0x1
 1826 00aa 27       		.uleb128 0x27
 1827 00ab 19       		.uleb128 0x19
 1828 00ac 01       		.uleb128 0x1
 1829 00ad 13       		.uleb128 0x13
 1830 00ae 00       		.byte	0
ARM GAS  /tmp/cc1kgnVI.s 			page 49


 1831 00af 00       		.byte	0
 1832 00b0 0F       		.uleb128 0xf
 1833 00b1 05       		.uleb128 0x5
 1834 00b2 00       		.byte	0
 1835 00b3 49       		.uleb128 0x49
 1836 00b4 13       		.uleb128 0x13
 1837 00b5 00       		.byte	0
 1838 00b6 00       		.byte	0
 1839 00b7 10       		.uleb128 0x10
 1840 00b8 13       		.uleb128 0x13
 1841 00b9 01       		.byte	0x1
 1842 00ba 0B       		.uleb128 0xb
 1843 00bb 0B       		.uleb128 0xb
 1844 00bc 3A       		.uleb128 0x3a
 1845 00bd 0B       		.uleb128 0xb
 1846 00be 3B       		.uleb128 0x3b
 1847 00bf 0B       		.uleb128 0xb
 1848 00c0 01       		.uleb128 0x1
 1849 00c1 13       		.uleb128 0x13
 1850 00c2 00       		.byte	0
 1851 00c3 00       		.byte	0
 1852 00c4 11       		.uleb128 0x11
 1853 00c5 17       		.uleb128 0x17
 1854 00c6 01       		.byte	0x1
 1855 00c7 0B       		.uleb128 0xb
 1856 00c8 0B       		.uleb128 0xb
 1857 00c9 3A       		.uleb128 0x3a
 1858 00ca 0B       		.uleb128 0xb
 1859 00cb 3B       		.uleb128 0x3b
 1860 00cc 0B       		.uleb128 0xb
 1861 00cd 01       		.uleb128 0x1
 1862 00ce 13       		.uleb128 0x13
 1863 00cf 00       		.byte	0
 1864 00d0 00       		.byte	0
 1865 00d1 12       		.uleb128 0x12
 1866 00d2 0D       		.uleb128 0xd
 1867 00d3 00       		.byte	0
 1868 00d4 03       		.uleb128 0x3
 1869 00d5 0E       		.uleb128 0xe
 1870 00d6 3A       		.uleb128 0x3a
 1871 00d7 0B       		.uleb128 0xb
 1872 00d8 3B       		.uleb128 0x3b
 1873 00d9 0B       		.uleb128 0xb
 1874 00da 49       		.uleb128 0x49
 1875 00db 13       		.uleb128 0x13
 1876 00dc 00       		.byte	0
 1877 00dd 00       		.byte	0
 1878 00de 13       		.uleb128 0x13
 1879 00df 0D       		.uleb128 0xd
 1880 00e0 00       		.byte	0
 1881 00e1 03       		.uleb128 0x3
 1882 00e2 0E       		.uleb128 0xe
 1883 00e3 3A       		.uleb128 0x3a
 1884 00e4 0B       		.uleb128 0xb
 1885 00e5 3B       		.uleb128 0x3b
 1886 00e6 05       		.uleb128 0x5
 1887 00e7 49       		.uleb128 0x49
ARM GAS  /tmp/cc1kgnVI.s 			page 50


 1888 00e8 13       		.uleb128 0x13
 1889 00e9 00       		.byte	0
 1890 00ea 00       		.byte	0
 1891 00eb 14       		.uleb128 0x14
 1892 00ec 35       		.uleb128 0x35
 1893 00ed 00       		.byte	0
 1894 00ee 49       		.uleb128 0x49
 1895 00ef 13       		.uleb128 0x13
 1896 00f0 00       		.byte	0
 1897 00f1 00       		.byte	0
 1898 00f2 15       		.uleb128 0x15
 1899 00f3 15       		.uleb128 0x15
 1900 00f4 01       		.byte	0x1
 1901 00f5 27       		.uleb128 0x27
 1902 00f6 19       		.uleb128 0x19
 1903 00f7 49       		.uleb128 0x49
 1904 00f8 13       		.uleb128 0x13
 1905 00f9 01       		.uleb128 0x1
 1906 00fa 13       		.uleb128 0x13
 1907 00fb 00       		.byte	0
 1908 00fc 00       		.byte	0
 1909 00fd 16       		.uleb128 0x16
 1910 00fe 2E       		.uleb128 0x2e
 1911 00ff 01       		.byte	0x1
 1912 0100 03       		.uleb128 0x3
 1913 0101 08       		.uleb128 0x8
 1914 0102 3A       		.uleb128 0x3a
 1915 0103 0B       		.uleb128 0xb
 1916 0104 3B       		.uleb128 0x3b
 1917 0105 0B       		.uleb128 0xb
 1918 0106 27       		.uleb128 0x27
 1919 0107 19       		.uleb128 0x19
 1920 0108 49       		.uleb128 0x49
 1921 0109 13       		.uleb128 0x13
 1922 010a 11       		.uleb128 0x11
 1923 010b 01       		.uleb128 0x1
 1924 010c 12       		.uleb128 0x12
 1925 010d 06       		.uleb128 0x6
 1926 010e 40       		.uleb128 0x40
 1927 010f 18       		.uleb128 0x18
 1928 0110 9742     		.uleb128 0x2117
 1929 0112 19       		.uleb128 0x19
 1930 0113 01       		.uleb128 0x1
 1931 0114 13       		.uleb128 0x13
 1932 0115 00       		.byte	0
 1933 0116 00       		.byte	0
 1934 0117 17       		.uleb128 0x17
 1935 0118 05       		.uleb128 0x5
 1936 0119 00       		.byte	0
 1937 011a 03       		.uleb128 0x3
 1938 011b 08       		.uleb128 0x8
 1939 011c 3A       		.uleb128 0x3a
 1940 011d 0B       		.uleb128 0xb
 1941 011e 3B       		.uleb128 0x3b
 1942 011f 0B       		.uleb128 0xb
 1943 0120 49       		.uleb128 0x49
 1944 0121 13       		.uleb128 0x13
ARM GAS  /tmp/cc1kgnVI.s 			page 51


 1945 0122 02       		.uleb128 0x2
 1946 0123 17       		.uleb128 0x17
 1947 0124 00       		.byte	0
 1948 0125 00       		.byte	0
 1949 0126 18       		.uleb128 0x18
 1950 0127 05       		.uleb128 0x5
 1951 0128 00       		.byte	0
 1952 0129 03       		.uleb128 0x3
 1953 012a 08       		.uleb128 0x8
 1954 012b 3A       		.uleb128 0x3a
 1955 012c 0B       		.uleb128 0xb
 1956 012d 3B       		.uleb128 0x3b
 1957 012e 0B       		.uleb128 0xb
 1958 012f 49       		.uleb128 0x49
 1959 0130 13       		.uleb128 0x13
 1960 0131 02       		.uleb128 0x2
 1961 0132 18       		.uleb128 0x18
 1962 0133 00       		.byte	0
 1963 0134 00       		.byte	0
 1964 0135 19       		.uleb128 0x19
 1965 0136 34       		.uleb128 0x34
 1966 0137 00       		.byte	0
 1967 0138 03       		.uleb128 0x3
 1968 0139 08       		.uleb128 0x8
 1969 013a 3A       		.uleb128 0x3a
 1970 013b 0B       		.uleb128 0xb
 1971 013c 3B       		.uleb128 0x3b
 1972 013d 0B       		.uleb128 0xb
 1973 013e 49       		.uleb128 0x49
 1974 013f 13       		.uleb128 0x13
 1975 0140 02       		.uleb128 0x2
 1976 0141 17       		.uleb128 0x17
 1977 0142 00       		.byte	0
 1978 0143 00       		.byte	0
 1979 0144 1A       		.uleb128 0x1a
 1980 0145 2E       		.uleb128 0x2e
 1981 0146 01       		.byte	0x1
 1982 0147 03       		.uleb128 0x3
 1983 0148 0E       		.uleb128 0xe
 1984 0149 3A       		.uleb128 0x3a
 1985 014a 0B       		.uleb128 0xb
 1986 014b 3B       		.uleb128 0x3b
 1987 014c 0B       		.uleb128 0xb
 1988 014d 27       		.uleb128 0x27
 1989 014e 19       		.uleb128 0x19
 1990 014f 49       		.uleb128 0x49
 1991 0150 13       		.uleb128 0x13
 1992 0151 11       		.uleb128 0x11
 1993 0152 01       		.uleb128 0x1
 1994 0153 12       		.uleb128 0x12
 1995 0154 06       		.uleb128 0x6
 1996 0155 40       		.uleb128 0x40
 1997 0156 18       		.uleb128 0x18
 1998 0157 9742     		.uleb128 0x2117
 1999 0159 19       		.uleb128 0x19
 2000 015a 01       		.uleb128 0x1
 2001 015b 13       		.uleb128 0x13
ARM GAS  /tmp/cc1kgnVI.s 			page 52


 2002 015c 00       		.byte	0
 2003 015d 00       		.byte	0
 2004 015e 1B       		.uleb128 0x1b
 2005 015f 898201   		.uleb128 0x4109
 2006 0162 01       		.byte	0x1
 2007 0163 11       		.uleb128 0x11
 2008 0164 01       		.uleb128 0x1
 2009 0165 31       		.uleb128 0x31
 2010 0166 13       		.uleb128 0x13
 2011 0167 00       		.byte	0
 2012 0168 00       		.byte	0
 2013 0169 1C       		.uleb128 0x1c
 2014 016a 8A8201   		.uleb128 0x410a
 2015 016d 00       		.byte	0
 2016 016e 02       		.uleb128 0x2
 2017 016f 18       		.uleb128 0x18
 2018 0170 9142     		.uleb128 0x2111
 2019 0172 18       		.uleb128 0x18
 2020 0173 00       		.byte	0
 2021 0174 00       		.byte	0
 2022 0175 1D       		.uleb128 0x1d
 2023 0176 2E       		.uleb128 0x2e
 2024 0177 01       		.byte	0x1
 2025 0178 3F       		.uleb128 0x3f
 2026 0179 19       		.uleb128 0x19
 2027 017a 03       		.uleb128 0x3
 2028 017b 0E       		.uleb128 0xe
 2029 017c 3A       		.uleb128 0x3a
 2030 017d 0B       		.uleb128 0xb
 2031 017e 3B       		.uleb128 0x3b
 2032 017f 0B       		.uleb128 0xb
 2033 0180 27       		.uleb128 0x27
 2034 0181 19       		.uleb128 0x19
 2035 0182 11       		.uleb128 0x11
 2036 0183 01       		.uleb128 0x1
 2037 0184 12       		.uleb128 0x12
 2038 0185 06       		.uleb128 0x6
 2039 0186 40       		.uleb128 0x40
 2040 0187 18       		.uleb128 0x18
 2041 0188 9742     		.uleb128 0x2117
 2042 018a 19       		.uleb128 0x19
 2043 018b 01       		.uleb128 0x1
 2044 018c 13       		.uleb128 0x13
 2045 018d 00       		.byte	0
 2046 018e 00       		.byte	0
 2047 018f 1E       		.uleb128 0x1e
 2048 0190 05       		.uleb128 0x5
 2049 0191 00       		.byte	0
 2050 0192 03       		.uleb128 0x3
 2051 0193 0E       		.uleb128 0xe
 2052 0194 3A       		.uleb128 0x3a
 2053 0195 0B       		.uleb128 0xb
 2054 0196 3B       		.uleb128 0x3b
 2055 0197 0B       		.uleb128 0xb
 2056 0198 49       		.uleb128 0x49
 2057 0199 13       		.uleb128 0x13
 2058 019a 02       		.uleb128 0x2
ARM GAS  /tmp/cc1kgnVI.s 			page 53


 2059 019b 17       		.uleb128 0x17
 2060 019c 00       		.byte	0
 2061 019d 00       		.byte	0
 2062 019e 1F       		.uleb128 0x1f
 2063 019f 05       		.uleb128 0x5
 2064 01a0 00       		.byte	0
 2065 01a1 03       		.uleb128 0x3
 2066 01a2 0E       		.uleb128 0xe
 2067 01a3 3A       		.uleb128 0x3a
 2068 01a4 0B       		.uleb128 0xb
 2069 01a5 3B       		.uleb128 0x3b
 2070 01a6 0B       		.uleb128 0xb
 2071 01a7 49       		.uleb128 0x49
 2072 01a8 13       		.uleb128 0x13
 2073 01a9 02       		.uleb128 0x2
 2074 01aa 18       		.uleb128 0x18
 2075 01ab 00       		.byte	0
 2076 01ac 00       		.byte	0
 2077 01ad 20       		.uleb128 0x20
 2078 01ae 34       		.uleb128 0x34
 2079 01af 00       		.byte	0
 2080 01b0 03       		.uleb128 0x3
 2081 01b1 08       		.uleb128 0x8
 2082 01b2 3A       		.uleb128 0x3a
 2083 01b3 0B       		.uleb128 0xb
 2084 01b4 3B       		.uleb128 0x3b
 2085 01b5 0B       		.uleb128 0xb
 2086 01b6 49       		.uleb128 0x49
 2087 01b7 13       		.uleb128 0x13
 2088 01b8 02       		.uleb128 0x2
 2089 01b9 18       		.uleb128 0x18
 2090 01ba 00       		.byte	0
 2091 01bb 00       		.byte	0
 2092 01bc 21       		.uleb128 0x21
 2093 01bd 34       		.uleb128 0x34
 2094 01be 00       		.byte	0
 2095 01bf 03       		.uleb128 0x3
 2096 01c0 0E       		.uleb128 0xe
 2097 01c1 3A       		.uleb128 0x3a
 2098 01c2 0B       		.uleb128 0xb
 2099 01c3 3B       		.uleb128 0x3b
 2100 01c4 05       		.uleb128 0x5
 2101 01c5 49       		.uleb128 0x49
 2102 01c6 13       		.uleb128 0x13
 2103 01c7 3F       		.uleb128 0x3f
 2104 01c8 19       		.uleb128 0x19
 2105 01c9 3C       		.uleb128 0x3c
 2106 01ca 19       		.uleb128 0x19
 2107 01cb 00       		.byte	0
 2108 01cc 00       		.byte	0
 2109 01cd 22       		.uleb128 0x22
 2110 01ce 34       		.uleb128 0x34
 2111 01cf 00       		.byte	0
 2112 01d0 03       		.uleb128 0x3
 2113 01d1 08       		.uleb128 0x8
 2114 01d2 3A       		.uleb128 0x3a
 2115 01d3 0B       		.uleb128 0xb
ARM GAS  /tmp/cc1kgnVI.s 			page 54


 2116 01d4 3B       		.uleb128 0x3b
 2117 01d5 05       		.uleb128 0x5
 2118 01d6 49       		.uleb128 0x49
 2119 01d7 13       		.uleb128 0x13
 2120 01d8 3F       		.uleb128 0x3f
 2121 01d9 19       		.uleb128 0x19
 2122 01da 3C       		.uleb128 0x3c
 2123 01db 19       		.uleb128 0x19
 2124 01dc 00       		.byte	0
 2125 01dd 00       		.byte	0
 2126 01de 23       		.uleb128 0x23
 2127 01df 2E       		.uleb128 0x2e
 2128 01e0 01       		.byte	0x1
 2129 01e1 3F       		.uleb128 0x3f
 2130 01e2 19       		.uleb128 0x19
 2131 01e3 03       		.uleb128 0x3
 2132 01e4 0E       		.uleb128 0xe
 2133 01e5 27       		.uleb128 0x27
 2134 01e6 19       		.uleb128 0x19
 2135 01e7 49       		.uleb128 0x49
 2136 01e8 13       		.uleb128 0x13
 2137 01e9 34       		.uleb128 0x34
 2138 01ea 19       		.uleb128 0x19
 2139 01eb 3C       		.uleb128 0x3c
 2140 01ec 19       		.uleb128 0x19
 2141 01ed 01       		.uleb128 0x1
 2142 01ee 13       		.uleb128 0x13
 2143 01ef 00       		.byte	0
 2144 01f0 00       		.byte	0
 2145 01f1 24       		.uleb128 0x24
 2146 01f2 26       		.uleb128 0x26
 2147 01f3 00       		.byte	0
 2148 01f4 00       		.byte	0
 2149 01f5 00       		.byte	0
 2150 01f6 00       		.byte	0
 2151              		.section	.debug_loc,"",%progbits
 2152              	.Ldebug_loc0:
 2153              	.LLST0:
 2154 0000 00000000 		.4byte	.LVL0
 2155 0004 14000000 		.4byte	.LVL1
 2156 0008 0100     		.2byte	0x1
 2157 000a 50       		.byte	0x50
 2158 000b 14000000 		.4byte	.LVL1
 2159 000f 16000000 		.4byte	.LVL2
 2160 0013 0400     		.2byte	0x4
 2161 0015 F3       		.byte	0xf3
 2162 0016 01       		.uleb128 0x1
 2163 0017 50       		.byte	0x50
 2164 0018 9F       		.byte	0x9f
 2165 0019 16000000 		.4byte	.LVL2
 2166 001d 1A000000 		.4byte	.LVL3
 2167 0021 0100     		.2byte	0x1
 2168 0023 50       		.byte	0x50
 2169 0024 1A000000 		.4byte	.LVL3
 2170 0028 1C000000 		.4byte	.LFE272
 2171 002c 0400     		.2byte	0x4
 2172 002e F3       		.byte	0xf3
ARM GAS  /tmp/cc1kgnVI.s 			page 55


 2173 002f 01       		.uleb128 0x1
 2174 0030 50       		.byte	0x50
 2175 0031 9F       		.byte	0x9f
 2176 0032 00000000 		.4byte	0
 2177 0036 00000000 		.4byte	0
 2178              	.LLST2:
 2179 003a 00000000 		.4byte	.LVL4
 2180 003e 0E000000 		.4byte	.LVL6
 2181 0042 0100     		.2byte	0x1
 2182 0044 50       		.byte	0x50
 2183 0045 0E000000 		.4byte	.LVL6
 2184 0049 14000000 		.4byte	.LVL9
 2185 004d 0100     		.2byte	0x1
 2186 004f 53       		.byte	0x53
 2187 0050 14000000 		.4byte	.LVL9
 2188 0054 18000000 		.4byte	.LVL10
 2189 0058 0100     		.2byte	0x1
 2190 005a 50       		.byte	0x50
 2191 005b 18000000 		.4byte	.LVL10
 2192 005f 1A000000 		.4byte	.LFE273
 2193 0063 0100     		.2byte	0x1
 2194 0065 53       		.byte	0x53
 2195 0066 00000000 		.4byte	0
 2196 006a 00000000 		.4byte	0
 2197              	.LLST3:
 2198 006e 0E000000 		.4byte	.LVL6
 2199 0072 10000000 		.4byte	.LVL7
 2200 0076 0500     		.2byte	0x5
 2201 0078 71       		.byte	0x71
 2202 0079 00       		.sleb128 0
 2203 007a 72       		.byte	0x72
 2204 007b 00       		.sleb128 0
 2205 007c 22       		.byte	0x22
 2206 007d 10000000 		.4byte	.LVL7
 2207 0081 12000000 		.4byte	.LVL8
 2208 0085 0600     		.2byte	0x6
 2209 0087 71       		.byte	0x71
 2210 0088 00       		.sleb128 0
 2211 0089 73       		.byte	0x73
 2212 008a 10       		.sleb128 16
 2213 008b 06       		.byte	0x6
 2214 008c 22       		.byte	0x22
 2215 008d 12000000 		.4byte	.LVL8
 2216 0091 14000000 		.4byte	.LVL9
 2217 0095 0100     		.2byte	0x1
 2218 0097 50       		.byte	0x50
 2219 0098 00000000 		.4byte	0
 2220 009c 00000000 		.4byte	0
 2221              	.LLST4:
 2222 00a0 08000000 		.4byte	.LVL5
 2223 00a4 0E000000 		.4byte	.LVL6
 2224 00a8 0100     		.2byte	0x1
 2225 00aa 50       		.byte	0x50
 2226 00ab 0E000000 		.4byte	.LVL6
 2227 00af 14000000 		.4byte	.LVL9
 2228 00b3 0100     		.2byte	0x1
 2229 00b5 53       		.byte	0x53
ARM GAS  /tmp/cc1kgnVI.s 			page 56


 2230 00b6 14000000 		.4byte	.LVL9
 2231 00ba 18000000 		.4byte	.LVL10
 2232 00be 0100     		.2byte	0x1
 2233 00c0 50       		.byte	0x50
 2234 00c1 18000000 		.4byte	.LVL10
 2235 00c5 1A000000 		.4byte	.LFE273
 2236 00c9 0100     		.2byte	0x1
 2237 00cb 53       		.byte	0x53
 2238 00cc 00000000 		.4byte	0
 2239 00d0 00000000 		.4byte	0
 2240              	.LLST5:
 2241 00d4 00000000 		.4byte	.LVL11
 2242 00d8 06000000 		.4byte	.LVL13
 2243 00dc 0100     		.2byte	0x1
 2244 00de 50       		.byte	0x50
 2245 00df 06000000 		.4byte	.LVL13
 2246 00e3 26000000 		.4byte	.LFE271
 2247 00e7 0100     		.2byte	0x1
 2248 00e9 54       		.byte	0x54
 2249 00ea 00000000 		.4byte	0
 2250 00ee 00000000 		.4byte	0
 2251              	.LLST6:
 2252 00f2 00000000 		.4byte	.LVL11
 2253 00f6 0C000000 		.4byte	.LVL14
 2254 00fa 0100     		.2byte	0x1
 2255 00fc 51       		.byte	0x51
 2256 00fd 0C000000 		.4byte	.LVL14
 2257 0101 1B000000 		.4byte	.LVL16-1
 2258 0105 0100     		.2byte	0x1
 2259 0107 50       		.byte	0x50
 2260 0108 1B000000 		.4byte	.LVL16-1
 2261 010c 26000000 		.4byte	.LFE271
 2262 0110 0400     		.2byte	0x4
 2263 0112 F3       		.byte	0xf3
 2264 0113 01       		.uleb128 0x1
 2265 0114 51       		.byte	0x51
 2266 0115 9F       		.byte	0x9f
 2267 0116 00000000 		.4byte	0
 2268 011a 00000000 		.4byte	0
 2269              	.LLST7:
 2270 011e 00000000 		.4byte	.LVL11
 2271 0122 14000000 		.4byte	.LVL15
 2272 0126 0100     		.2byte	0x1
 2273 0128 52       		.byte	0x52
 2274 0129 14000000 		.4byte	.LVL15
 2275 012d 26000000 		.4byte	.LFE271
 2276 0131 0100     		.2byte	0x1
 2277 0133 55       		.byte	0x55
 2278 0134 00000000 		.4byte	0
 2279 0138 00000000 		.4byte	0
 2280              	.LLST8:
 2281 013c 04000000 		.4byte	.LVL12
 2282 0140 06000000 		.4byte	.LVL13
 2283 0144 0100     		.2byte	0x1
 2284 0146 50       		.byte	0x50
 2285 0147 06000000 		.4byte	.LVL13
 2286 014b 26000000 		.4byte	.LFE271
ARM GAS  /tmp/cc1kgnVI.s 			page 57


 2287 014f 0100     		.2byte	0x1
 2288 0151 54       		.byte	0x54
 2289 0152 00000000 		.4byte	0
 2290 0156 00000000 		.4byte	0
 2291              	.LLST9:
 2292 015a 00000000 		.4byte	.LVL17
 2293 015e 0C000000 		.4byte	.LVL19
 2294 0162 0100     		.2byte	0x1
 2295 0164 50       		.byte	0x50
 2296 0165 0C000000 		.4byte	.LVL19
 2297 0169 24000000 		.4byte	.LFE270
 2298 016d 0100     		.2byte	0x1
 2299 016f 54       		.byte	0x54
 2300 0170 00000000 		.4byte	0
 2301 0174 00000000 		.4byte	0
 2302              	.LLST10:
 2303 0178 00000000 		.4byte	.LVL17
 2304 017c 19000000 		.4byte	.LVL21-1
 2305 0180 0100     		.2byte	0x1
 2306 0182 51       		.byte	0x51
 2307 0183 19000000 		.4byte	.LVL21-1
 2308 0187 24000000 		.4byte	.LFE270
 2309 018b 0400     		.2byte	0x4
 2310 018d F3       		.byte	0xf3
 2311 018e 01       		.uleb128 0x1
 2312 018f 51       		.byte	0x51
 2313 0190 9F       		.byte	0x9f
 2314 0191 00000000 		.4byte	0
 2315 0195 00000000 		.4byte	0
 2316              	.LLST11:
 2317 0199 00000000 		.4byte	.LVL17
 2318 019d 12000000 		.4byte	.LVL20
 2319 01a1 0100     		.2byte	0x1
 2320 01a3 52       		.byte	0x52
 2321 01a4 12000000 		.4byte	.LVL20
 2322 01a8 24000000 		.4byte	.LFE270
 2323 01ac 0100     		.2byte	0x1
 2324 01ae 55       		.byte	0x55
 2325 01af 00000000 		.4byte	0
 2326 01b3 00000000 		.4byte	0
 2327              	.LLST12:
 2328 01b7 08000000 		.4byte	.LVL18
 2329 01bb 0C000000 		.4byte	.LVL19
 2330 01bf 0100     		.2byte	0x1
 2331 01c1 50       		.byte	0x50
 2332 01c2 0C000000 		.4byte	.LVL19
 2333 01c6 24000000 		.4byte	.LFE270
 2334 01ca 0100     		.2byte	0x1
 2335 01cc 54       		.byte	0x54
 2336 01cd 00000000 		.4byte	0
 2337 01d1 00000000 		.4byte	0
 2338              	.LLST13:
 2339 01d5 00000000 		.4byte	.LVL22
 2340 01d9 0A000000 		.4byte	.LVL23
 2341 01dd 0100     		.2byte	0x1
 2342 01df 51       		.byte	0x51
 2343 01e0 0A000000 		.4byte	.LVL23
ARM GAS  /tmp/cc1kgnVI.s 			page 58


 2344 01e4 1C000000 		.4byte	.LFE274
 2345 01e8 0200     		.2byte	0x2
 2346 01ea 70       		.byte	0x70
 2347 01eb 04       		.sleb128 4
 2348 01ec 00000000 		.4byte	0
 2349 01f0 00000000 		.4byte	0
 2350              		.section	.debug_aranges,"",%progbits
 2351 0000 3C000000 		.4byte	0x3c
 2352 0004 0200     		.2byte	0x2
 2353 0006 00000000 		.4byte	.Ldebug_info0
 2354 000a 04       		.byte	0x4
 2355 000b 00       		.byte	0
 2356 000c 0000     		.2byte	0
 2357 000e 0000     		.2byte	0
 2358 0010 00000000 		.4byte	.LFB272
 2359 0014 1C000000 		.4byte	.LFE272-.LFB272
 2360 0018 00000000 		.4byte	.LFB273
 2361 001c 1A000000 		.4byte	.LFE273-.LFB273
 2362 0020 00000000 		.4byte	.LFB271
 2363 0024 26000000 		.4byte	.LFE271-.LFB271
 2364 0028 00000000 		.4byte	.LFB270
 2365 002c 24000000 		.4byte	.LFE270-.LFB270
 2366 0030 00000000 		.4byte	.LFB274
 2367 0034 1C000000 		.4byte	.LFE274-.LFB274
 2368 0038 00000000 		.4byte	0
 2369 003c 00000000 		.4byte	0
 2370              		.section	.debug_ranges,"",%progbits
 2371              	.Ldebug_ranges0:
 2372 0000 00000000 		.4byte	.LFB272
 2373 0004 1C000000 		.4byte	.LFE272
 2374 0008 00000000 		.4byte	.LFB273
 2375 000c 1A000000 		.4byte	.LFE273
 2376 0010 00000000 		.4byte	.LFB271
 2377 0014 26000000 		.4byte	.LFE271
 2378 0018 00000000 		.4byte	.LFB270
 2379 001c 24000000 		.4byte	.LFE270
 2380 0020 00000000 		.4byte	.LFB274
 2381 0024 1C000000 		.4byte	.LFE274
 2382 0028 00000000 		.4byte	0
 2383 002c 00000000 		.4byte	0
 2384              		.section	.debug_line,"",%progbits
 2385              	.Ldebug_line0:
 2386 0000 4D030000 		.section	.debug_str,"MS",%progbits,1
 2386      0200D602 
 2386      00000201 
 2386      FB0E0D00 
 2386      01010101 
 2387              	.LASF53:
 2388 0000 72656164 		.ascii	"ready_list_t\000"
 2388      795F6C69 
 2388      73745F74 
 2388      00
 2389              	.LASF2:
 2390 000d 73697A65 		.ascii	"size_t\000"
 2390      5F7400
 2391              	.LASF59:
 2392 0014 64656C74 		.ascii	"delta\000"
ARM GAS  /tmp/cc1kgnVI.s 			page 59


 2392      6100
 2393              	.LASF78:
 2394 001a 7264796D 		.ascii	"rdymsg\000"
 2394      736700
 2395              	.LASF19:
 2396 0021 75696E74 		.ascii	"uint64_t\000"
 2396      36345F74 
 2396      00
 2397              	.LASF3:
 2398 002a 5F5F7569 		.ascii	"__uint8_t\000"
 2398      6E74385F 
 2398      7400
 2399              	.LASF52:
 2400 0034 70726576 		.ascii	"prev\000"
 2400      00
 2401              	.LASF75:
 2402 0039 706F7274 		.ascii	"port_intctx\000"
 2402      5F696E74 
 2402      63747800 
 2403              	.LASF64:
 2404 0045 73797374 		.ascii	"system_debug_t\000"
 2404      656D5F64 
 2404      65627567 
 2404      5F7400
 2405              	.LASF13:
 2406 0054 6C6F6E67 		.ascii	"long long unsigned int\000"
 2406      206C6F6E 
 2406      6720756E 
 2406      7369676E 
 2406      65642069 
 2407              	.LASF79:
 2408 006b 65786974 		.ascii	"exitcode\000"
 2408      636F6465 
 2408      00
 2409              	.LASF71:
 2410 0074 6D61696E 		.ascii	"mainthread\000"
 2410      74687265 
 2410      616400
 2411              	.LASF82:
 2412 007f 73656E74 		.ascii	"sentmsg\000"
 2412      6D736700 
 2413              	.LASF61:
 2414 0087 76697274 		.ascii	"virtual_timers_list_t\000"
 2414      75616C5F 
 2414      74696D65 
 2414      72735F6C 
 2414      6973745F 
 2415              	.LASF99:
 2416 009d 49544D5F 		.ascii	"ITM_RxBuffer\000"
 2416      52784275 
 2416      66666572 
 2416      00
 2417              	.LASF49:
 2418 00aa 6E657874 		.ascii	"next\000"
 2418      00
 2419              	.LASF51:
 2420 00af 63685F74 		.ascii	"ch_threads_queue\000"
ARM GAS  /tmp/cc1kgnVI.s 			page 60


 2420      68726561 
 2420      64735F71 
 2420      75657565 
 2420      00
 2421              	.LASF97:
 2422 00c0 72656164 		.ascii	"reads\000"
 2422      7300
 2423              	.LASF11:
 2424 00c6 6C6F6E67 		.ascii	"long long int\000"
 2424      206C6F6E 
 2424      6720696E 
 2424      7400
 2425              	.LASF1:
 2426 00d4 7369676E 		.ascii	"signed char\000"
 2426      65642063 
 2426      68617200 
 2427              	.LASF95:
 2428 00e0 73697A65 		.ascii	"size\000"
 2428      00
 2429              	.LASF70:
 2430 00e5 76746C69 		.ascii	"vtlist\000"
 2430      737400
 2431              	.LASF40:
 2432 00ec 6D736771 		.ascii	"msgqueue\000"
 2432      75657565 
 2432      00
 2433              	.LASF36:
 2434 00f5 73746174 		.ascii	"state\000"
 2434      6500
 2435              	.LASF8:
 2436 00fb 6C6F6E67 		.ascii	"long int\000"
 2436      20696E74 
 2436      00
 2437              	.LASF22:
 2438 0104 74737461 		.ascii	"tstate_t\000"
 2438      74655F74 
 2438      00
 2439              	.LASF60:
 2440 010d 66756E63 		.ascii	"func\000"
 2440      00
 2441              	.LASF104:
 2442 0112 6D656D63 		.ascii	"memcpy\000"
 2442      707900
 2443              	.LASF30:
 2444 0119 71756575 		.ascii	"queue\000"
 2444      6500
 2445              	.LASF94:
 2446 011f 62756666 		.ascii	"buffer\000"
 2446      657200
 2447              	.LASF9:
 2448 0126 5F5F7569 		.ascii	"__uint32_t\000"
 2448      6E743332 
 2448      5F7400
 2449              	.LASF72:
 2450 0131 72656761 		.ascii	"regarm_t\000"
 2450      726D5F74 
 2450      00
ARM GAS  /tmp/cc1kgnVI.s 			page 61


 2451              	.LASF102:
 2452 013a 2F6E6673 		.ascii	"/nfs/nfs7/home/npalumbo/p442-submissions/lab3\000"
 2452      2F6E6673 
 2452      372F686F 
 2452      6D652F6E 
 2452      70616C75 
 2453              	.LASF39:
 2454 0168 77616974 		.ascii	"waiting\000"
 2454      696E6700 
 2455              	.LASF89:
 2456 0170 6D757465 		.ascii	"mutex_t\000"
 2456      785F7400 
 2457              	.LASF27:
 2458 0178 636E745F 		.ascii	"cnt_t\000"
 2458      7400
 2459              	.LASF0:
 2460 017e 756E7369 		.ascii	"unsigned int\000"
 2460      676E6564 
 2460      20696E74 
 2460      00
 2461              	.LASF83:
 2462 018b 77747365 		.ascii	"wtsemp\000"
 2462      6D7000
 2463              	.LASF81:
 2464 0192 77747472 		.ascii	"wttrp\000"
 2464      7000
 2465              	.LASF34:
 2466 0198 6E616D65 		.ascii	"name\000"
 2466      00
 2467              	.LASF44:
 2468 019d 6D706F6F 		.ascii	"mpool\000"
 2468      6C00
 2469              	.LASF6:
 2470 01a3 73686F72 		.ascii	"short unsigned int\000"
 2470      7420756E 
 2470      7369676E 
 2470      65642069 
 2470      6E7400
 2471              	.LASF47:
 2472 01b6 63685F74 		.ascii	"ch_thread\000"
 2472      68726561 
 2472      6400
 2473              	.LASF25:
 2474 01c0 6D73675F 		.ascii	"msg_t\000"
 2474      7400
 2475              	.LASF41:
 2476 01c6 6570656E 		.ascii	"epending\000"
 2476      64696E67 
 2476      00
 2477              	.LASF67:
 2478 01cf 63685F73 		.ascii	"ch_system_t\000"
 2478      79737465 
 2478      6D5F7400 
 2479              	.LASF98:
 2480 01db 77726974 		.ascii	"writes\000"
 2480      657300
 2481              	.LASF21:
ARM GAS  /tmp/cc1kgnVI.s 			page 62


 2482 01e2 746D6F64 		.ascii	"tmode_t\000"
 2482      655F7400 
 2483              	.LASF54:
 2484 01ea 63685F72 		.ascii	"ch_ready_list\000"
 2484      65616479 
 2484      5F6C6973 
 2484      7400
 2485              	.LASF26:
 2486 01f8 6576656E 		.ascii	"eventmask_t\000"
 2486      746D6173 
 2486      6B5F7400 
 2487              	.LASF7:
 2488 0204 5F5F696E 		.ascii	"__int32_t\000"
 2488      7433325F 
 2488      7400
 2489              	.LASF73:
 2490 020e 73746B61 		.ascii	"stkalign_t\000"
 2490      6C69676E 
 2490      5F7400
 2491              	.LASF32:
 2492 0219 6E657765 		.ascii	"newer\000"
 2492      7200
 2493              	.LASF103:
 2494 021f 6D734F62 		.ascii	"msObjectInit\000"
 2494      6A656374 
 2494      496E6974 
 2494      00
 2495              	.LASF92:
 2496 022c 77726974 		.ascii	"write\000"
 2496      6500
 2497              	.LASF43:
 2498 0232 7265616C 		.ascii	"realprio\000"
 2498      7072696F 
 2498      00
 2499              	.LASF14:
 2500 023b 73697A65 		.ascii	"sizetype\000"
 2500      74797065 
 2500      00
 2501              	.LASF45:
 2502 0244 74687265 		.ascii	"thread_reference_t\000"
 2502      61645F72 
 2502      65666572 
 2502      656E6365 
 2502      5F7400
 2503              	.LASF62:
 2504 0257 63685F76 		.ascii	"ch_virtual_timers_list\000"
 2504      69727475 
 2504      616C5F74 
 2504      696D6572 
 2504      735F6C69 
 2505              	.LASF74:
 2506 026e 706F7274 		.ascii	"port_context\000"
 2506      5F636F6E 
 2506      74657874 
 2506      00
 2507              	.LASF77:
 2508 027b 746D5F63 		.ascii	"tm_calibration_t\000"
ARM GAS  /tmp/cc1kgnVI.s 			page 63


 2508      616C6962 
 2508      72617469 
 2508      6F6E5F74 
 2508      00
 2509              	.LASF31:
 2510 028c 7072696F 		.ascii	"prio\000"
 2510      00
 2511              	.LASF55:
 2512 0291 63757272 		.ascii	"current\000"
 2512      656E7400 
 2513              	.LASF91:
 2514 0299 4D656D53 		.ascii	"MemStreamVMT\000"
 2514      74726561 
 2514      6D564D54 
 2514      00
 2515              	.LASF12:
 2516 02a6 5F5F7569 		.ascii	"__uint64_t\000"
 2516      6E743634 
 2516      5F7400
 2517              	.LASF38:
 2518 02b1 72656673 		.ascii	"refs\000"
 2518      00
 2519              	.LASF57:
 2520 02b6 76697274 		.ascii	"virtual_timer_t\000"
 2520      75616C5F 
 2520      74696D65 
 2520      725F7400 
 2521              	.LASF24:
 2522 02c6 74707269 		.ascii	"tprio_t\000"
 2522      6F5F7400 
 2523              	.LASF101:
 2524 02ce 2E2E2F43 		.ascii	"../ChibiOS/os/hal/lib/streams/memstreams.c\000"
 2524      68696269 
 2524      4F532F6F 
 2524      732F6861 
 2524      6C2F6C69 
 2525              	.LASF96:
 2526 02f9 4D656D6F 		.ascii	"MemoryStream\000"
 2526      72795374 
 2526      7265616D 
 2526      00
 2527              	.LASF65:
 2528 0306 63685F73 		.ascii	"ch_system_debug\000"
 2528      79737465 
 2528      6D5F6465 
 2528      62756700 
 2529              	.LASF90:
 2530 0316 5F426F6F 		.ascii	"_Bool\000"
 2530      6C00
 2531              	.LASF17:
 2532 031c 696E7433 		.ascii	"int32_t\000"
 2532      325F7400 
 2533              	.LASF4:
 2534 0324 756E7369 		.ascii	"unsigned char\000"
 2534      676E6564 
 2534      20636861 
 2534      7200
ARM GAS  /tmp/cc1kgnVI.s 			page 64


 2535              	.LASF5:
 2536 0332 73686F72 		.ascii	"short int\000"
 2536      7420696E 
 2536      7400
 2537              	.LASF63:
 2538 033c 6C617374 		.ascii	"lasttime\000"
 2538      74696D65 
 2538      00
 2539              	.LASF85:
 2540 0345 65776D61 		.ascii	"ewmask\000"
 2540      736B00
 2541              	.LASF68:
 2542 034c 63685F73 		.ascii	"ch_system\000"
 2542      79737465 
 2542      6D00
 2543              	.LASF58:
 2544 0356 63685F76 		.ascii	"ch_virtual_timer\000"
 2544      69727475 
 2544      616C5F74 
 2544      696D6572 
 2544      00
 2545              	.LASF86:
 2546 0367 63685F73 		.ascii	"ch_semaphore\000"
 2546      656D6170 
 2546      686F7265 
 2546      00
 2547              	.LASF18:
 2548 0374 75696E74 		.ascii	"uint32_t\000"
 2548      33325F74 
 2548      00
 2549              	.LASF84:
 2550 037d 77746D74 		.ascii	"wtmtxp\000"
 2550      787000
 2551              	.LASF23:
 2552 0384 74726566 		.ascii	"trefs_t\000"
 2552      735F7400 
 2553              	.LASF48:
 2554 038c 63685F74 		.ascii	"ch_threads_list\000"
 2554      68726561 
 2554      64735F6C 
 2554      69737400 
 2555              	.LASF88:
 2556 039c 6F776E65 		.ascii	"owner\000"
 2556      7200
 2557              	.LASF10:
 2558 03a2 6C6F6E67 		.ascii	"long unsigned int\000"
 2558      20756E73 
 2558      69676E65 
 2558      6420696E 
 2558      7400
 2559              	.LASF35:
 2560 03b4 77616261 		.ascii	"wabase\000"
 2560      736500
 2561              	.LASF93:
 2562 03bb 72656164 		.ascii	"read\000"
 2562      00
 2563              	.LASF15:
ARM GAS  /tmp/cc1kgnVI.s 			page 65


 2564 03c0 63686172 		.ascii	"char\000"
 2564      00
 2565              	.LASF33:
 2566 03c5 6F6C6465 		.ascii	"older\000"
 2566      7200
 2567              	.LASF29:
 2568 03cb 74687265 		.ascii	"thread_t\000"
 2568      61645F74 
 2568      00
 2569              	.LASF28:
 2570 03d4 73797374 		.ascii	"systime_t\000"
 2570      696D655F 
 2570      7400
 2571              	.LASF56:
 2572 03de 76746675 		.ascii	"vtfunc_t\000"
 2572      6E635F74 
 2572      00
 2573              	.LASF66:
 2574 03e7 70616E69 		.ascii	"panic_msg\000"
 2574      635F6D73 
 2574      6700
 2575              	.LASF76:
 2576 03f1 6F666673 		.ascii	"offset\000"
 2576      657400
 2577              	.LASF20:
 2578 03f8 7274636E 		.ascii	"rtcnt_t\000"
 2578      745F7400 
 2579              	.LASF50:
 2580 0400 74687265 		.ascii	"threads_queue_t\000"
 2580      6164735F 
 2580      71756575 
 2580      655F7400 
 2581              	.LASF87:
 2582 0410 63685F6D 		.ascii	"ch_mutex\000"
 2582      75746578 
 2582      00
 2583              	.LASF69:
 2584 0419 726C6973 		.ascii	"rlist\000"
 2584      7400
 2585              	.LASF16:
 2586 041f 75696E74 		.ascii	"uint8_t\000"
 2586      385F7400 
 2587              	.LASF37:
 2588 0427 666C6167 		.ascii	"flags\000"
 2588      7300
 2589              	.LASF100:
 2590 042d 474E5520 		.ascii	"GNU C 4.8.4 20140526 (release) [ARM/embedded-4_8-br"
 2590      4320342E 
 2590      382E3420 
 2590      32303134 
 2590      30353236 
 2591 0460 616E6368 		.ascii	"anch revision 211358] -mcpu=cortex-m4 -mno-thumb-in"
 2591      20726576 
 2591      6973696F 
 2591      6E203231 
 2591      31333538 
 2592 0493 74657277 		.ascii	"terwork -mthumb -ggdb -O2 -fomit-frame-pointer -fal"
ARM GAS  /tmp/cc1kgnVI.s 			page 66


 2592      6F726B20 
 2592      2D6D7468 
 2592      756D6220 
 2592      2D676764 
 2593 04c6 69676E2D 		.ascii	"ign-functions=16 -ffunction-sections -fdata-section"
 2593      66756E63 
 2593      74696F6E 
 2593      733D3136 
 2593      202D6666 
 2594 04f9 73202D66 		.ascii	"s -fno-common -flto\000"
 2594      6E6F2D63 
 2594      6F6D6D6F 
 2594      6E202D66 
 2594      6C746F00 
 2595              	.LASF80:
 2596 050d 77746F62 		.ascii	"wtobjp\000"
 2596      6A7000
 2597              	.LASF46:
 2598 0514 74687265 		.ascii	"threads_list_t\000"
 2598      6164735F 
 2598      6C697374 
 2598      5F7400
 2599              	.LASF42:
 2600 0523 6D74786C 		.ascii	"mtxlist\000"
 2600      69737400 
 2601              		.comm	__gnu_lto_v1,1,1
 2602              		.ident	"GCC: (GNU Tools for ARM Embedded Processors) 4.8.4 20140526 (release) [ARM/embedded-4_8-br
ARM GAS  /tmp/cc1kgnVI.s 			page 67


DEFINED SYMBOLS
                            *ABS*:00000000 memstreams.c
     /tmp/cc1kgnVI.s:288    .text.put:00000000 $t
     /tmp/cc1kgnVI.s:293    .text.put:00000000 put
     /tmp/cc1kgnVI.s:329    .text.get:00000000 $t
     /tmp/cc1kgnVI.s:334    .text.get:00000000 get
     /tmp/cc1kgnVI.s:373    .text.reads:00000000 $t
     /tmp/cc1kgnVI.s:378    .text.reads:00000000 reads
     /tmp/cc1kgnVI.s:425    .text.writes:00000000 $t
     /tmp/cc1kgnVI.s:430    .text.writes:00000000 writes
     /tmp/cc1kgnVI.s:473    .text.msObjectInit:00000000 $t
     /tmp/cc1kgnVI.s:479    .text.msObjectInit:00000000 msObjectInit
     /tmp/cc1kgnVI.s:510    .text.msObjectInit:00000018 $d
     /tmp/cc1kgnVI.s:515    .rodata.vmt:00000000 $d
     /tmp/cc1kgnVI.s:519    .rodata.vmt:00000000 vmt
                            *COM*:00000001 __gnu_lto_v1
                     .debug_frame:00000010 $d
     /tmp/cc1kgnVI.s:514    .text.msObjectInit:0000001c $t

UNDEFINED SYMBOLS
memcpy
