ARM GAS  /tmp/cc1kgnVI.s 			page 1


   1              		.syntax unified
   2              		.cpu cortex-m4
   3              		.fpu softvfp
   4              		.eabi_attribute 20, 1
   5              		.eabi_attribute 21, 1
   6              		.eabi_attribute 23, 3
   7              		.eabi_attribute 24, 1
   8              		.eabi_attribute 25, 1
   9              		.eabi_attribute 26, 1
  10              		.eabi_attribute 30, 2
  11              		.eabi_attribute 34, 1
  12              		.eabi_attribute 18, 4
  13              		.thumb
  14              		.file	"memstreams.c"
  15              		.text
  16              	.Ltext0:
  17              		.section	.gnu.lto_.jmpfuncs.270aaa2195134e7c,"",%progbits
  18 0000 789C6362 		.ascii	"x\234cb`b\300\006T\2404+\0033##\023;33\003\003c\031"
  18      6062C006 
  18      54A0342B 
  18      03332323 
  18      133B3333 
  19 0018 23588899 		.ascii	"#X\210\231\035\310\201\363Y\370\031\000\032\264\001"
  19      1DC881F3 
  19      59F81900 
  19      1AB401
  20 0027 55       		.ascii	"U"
  21              		.text
  22              		.section	.gnu.lto_.inline.270aaa2195134e7c,"",%progbits
  23 0000 789C6362 		.ascii	"x\234cb`b\300\006\032\031!4+\003\003/\017#3\003\220"
  23      6062C006 
  23      1A192134 
  23      2B03032F 
  23      0F233303 
  24 0015 CBEC0026 		.ascii	"\313\354\000&\023\300\244\002\027\333\004=\006\216\013"
  24      13C0A402 
  24      17DB043D 
  24      068E0B
  25 0024 7A4C0C8C 		.ascii	"zL\014\214/\330Y $\210\340\00039\030X\026\310\36300"
  25      2FD85920 
  25      2488E000 
  25      33391858 
  25      16C8F330 
  26 0039 DE601760 		.ascii	"\336`\027`\002\223\014L\033\370%@\00622\360pC\315\203"
  26      02930C4C 
  26      1BF82540 
  26      063232F0 
  26      7043CD83 
  27 004d 98D4C008 		.ascii	"\230\324\300\0105\220\271C\234\201\375\207\032\026\003"
  27      3590B943 
  27      9C81FD87 
  27      1A1603
  28 005c 996788E3 		.ascii	"\231g\210\3436\220\211AP\222\221\005\305@&F\210M@S\271"
  28      36908941 
  28      50929105 
  28      C5402646 
  28      884D4053 
ARM GAS  /tmp/cc1kgnVI.s 			page 2


  29 0071 81DA1838 		.ascii	"\201\332\0308>\340t&\323\005~\036\220\3212 \256\002"
  29      3EE07426 
  29      D3057E1E 
  29      90D13220 
  29      AE02
  30 0083 58500124 		.ascii	"XP\001$\250\0012\201\205\027h\304\004?\020dF\330\002"
  30      A8013281 
  30      851768C4 
  30      043F1064 
  30      46D802
  31 0096 0D061A58 		.ascii	"\015\006\032X\302\302\300\301\316\310\300\304\332\241"
  31      C2C2C0C1 
  31      CEC8C0C4 
  31      DAA1
  32 00a4 CEC0BDC2 		.ascii	"\316\300\275\302\015\0221\000-\3633\312"
  32      0D123100 
  32      2DF333CA 
  33              		.text
  34              		.section	.gnu.lto_.pureconst.270aaa2195134e7c,"",%progbits
  35 0000 789C6362 		.ascii	"x\234cb`b\340f\200\000V\006)F)&)f)\026)\000\004)\000"
  35      6062E066 
  35      80005606 
  35      29462926 
  35      29662916 
  36 0019 A1       		.ascii	"\241"
  37              		.text
  38              		.section	.gnu.lto_put.270aaa2195134e7c,"",%progbits
  39 0000 789C8D92 		.ascii	"x\234\215\222\317K\033A\024\307\337wfw\223\230X{\360"
  39      CF4B1B41 
  39      14C7DF77 
  39      66779398 
  39      587BF0
  40 0013 D25BF068 		.ascii	"\322[\360h \213\364O\350\251\247\036j\300\036\223 q"
  40      208BF44F 
  40      E8A9A71E 
  40      6AC01E93 
  40      2071
  41 0025 C14531BD 		.ascii	"\301E1\275g\242\036\012\275\204\022\260UA\355\241\202"
  41      67A21E0A 
  41      BD8412B0 
  41      5541EDA1 
  41      82
  42 0036 94DAD28B 		.ascii	"\224\332\322\213\307\034$(\375A<\352)\020\320\213\027"
  42      C71C2428 
  42      FD413CEA 
  42      2910D08B 
  42      17
  43 0047 6F3D19DF 		.ascii	"o=\031\337\233u\267\020J\333\201}3\373\336\373|\347"
  43      9B75B710 
  43      4ADB817D 
  43      33FBDEFB 
  43      7CE7
  44 0059 BD9951A4 		.ascii	"\275\231Q\244ht<\346o\235\3353<\303%\250\326O\242fZ"
  44      68743CE6 
  44      6F9DDD33 
  44      3CC325A8 
  44      D64FA266 
ARM GAS  /tmp/cc1kgnVI.s 			page 3


  45 006e 29670764 		.ascii	")g\007d\306\364\315w\"\223\323p\"\277\003\310\202@\015"
  45      C6F4CD77 
  45      2293D370 
  45      22BF03C8 
  45      82400D
  46 0081 A51D345E 		.ascii	"\245\0354^\300\252\034\252N\1778\374\324\356\356\177"
  46      C0AA1CAA 
  46      4E7F38FC 
  46      D4EEEE7F 
  47 0091 C43BF500 		.ascii	"\304;\365\000\024\2004B\220\313+xbRlTZL\206\003\310"
  47      14803442 
  47      90CB2B78 
  47      62526C54 
  47      5A4C8603 
  48 00a6 8A2F2786 		.ascii	"\212/'\206q\227\326\215i\345\247h\317\2307\235\215n"
  48      7197D68D 
  48      69E5A768 
  48      CF98379D 
  48      8D6E
  49 00b8 FB91D95D 		.ascii	"\373\221\331]m\231\333\341\020\001\264\242\"\250\012"
  49      6D99DBE1 
  49      1001B4A2 
  49      22A80A
  50 00c7 9AE31F27 		.ascii	"\232\343\037'o'\327\031\355\243j\013\231e+\365\225\240"
  50      6F27D719 
  50      EDA36A0B 
  50      99652BF5 
  50      95A0
  51 00d9 64D6A7A4 		.ascii	"d\326\247\244\312\330\343\276\312x\217)\252A\023\375"
  51      CAD8E3BE 
  51      CA788F29 
  51      AA4113FD 
  52 00e9 A0D58BA3 		.ascii	"\240\325\213\243A\017Q\240\006\267@\323\001\274-\332"
  52      410F51A0 
  52      06B740D3 
  52      01BC2DDA 
  53 00f9 64E114A7 		.ascii	"d\341\024\247\310\006\332\212V\020\313\013\324\313\306"
  53      C806DA8A 
  53      5610CB0B 
  53      D4CBC6
  54 0108 88F73724 		.ascii	"\210\3677$fN\350\370\2529\236\354\302\324\357jK\234"
  54      664EE8F8 
  54      AA399EEC 
  54      C2D4EF6A 
  54      4B9C
  55 011a CD27AB45 		.ascii	"\315'\253E\366\327\240\223\324\222\262\302\352\317\302"
  55      F6D7A093 
  55      D492B2C2 
  55      EACFC2
  56 0129 2AA965ED 		.ascii	"*\251e\355\365\332\207\204I\327$\323\2635~\373<\021"
  56      F5DA8784 
  56      49D724D3 
  56      B3357EFB 
  56      3C11
  57 013b B959A169 		.ascii	"\271Y\241i\214I\005\022N\213JD\327\220\211\232y{\331"
  57      8C490512 
  57      4E8B4A44 
ARM GAS  /tmp/cc1kgnVI.s 			page 4


  57      D790899A 
  57      797BD9
  58 014e 4F14B205 		.ascii	"O\024\262\005:\340\344\207\377l\211w~\245c*\307\240"
  58      3AE0E487 
  58      FF6C8977 
  58      7EA5632A 
  58      C7A0
  59 0160 247988CE 		.ascii	"$y\210\316\347i\024\370?-\306\343\223p\354M\235\361"
  59      E76914F8 
  59      3F2DC6E3 
  59      9370EC4D 
  59      9DF1
  60 0172 E312B70D 		.ascii	"\343\022\267\015\237\023\004!~\000\321@C]\177\231\264"
  60      9F130421 
  60      7E00D140 
  60      435D7F99 
  60      B4
  61 0183 3E22BDFD 		.ascii	">\"\275\3755'W\015\001\245\255B\261\350?Y\010*\301\263"
  61      3527570D 
  61      01A5AD42 
  61      B1E83F59 
  61      082AC1B3 
  62 0197 E7FE52DD 		.ascii	"\347\376R\335_(/\372\213A\305\257\277\\\231/\207u?\234"
  62      5F282FFA 
  62      8B41C5AF 
  62      BF5C992F 
  62      87753F9C 
  63 01ab 0FEF97C5 		.ascii	"\017\357\227\305*\351\260\276|\007\2402\2372"
  63      2AE9B0BE 
  63      7C07A032 
  63      9F32
  64              		.text
  65              		.section	.gnu.lto_get.270aaa2195134e7c,"",%progbits
  66 0000 789C8592 		.ascii	"x\234\205\222\317k\023A\024\307\337wf7\233\304\024+"
  66      CF6B1341 
  66      14C7DF77 
  66      66379BC4 
  66      142B
  67 0012 94424F16 		.ascii	"\224BO\026\217\006\262\202\177\202'O\036\264\320\036"
  67      8F06B282 
  67      7F82274F 
  67      1EB4D01E 
  68 0022 37A1A40B 		.ascii	"7\241\244\013]*\306{&\211\202 \205 \202b\005\033\252"
  68      5D2AC67B 
  68      26898220 
  68      85208262 
  68      051BAA
  69 0035 974269A1 		.ascii	"\227Bi\241\264\207\202\220\203\210\205(\366V=\305S\241"
  69      B4878290 
  69      83888528 
  69      F6563DC5 
  69      53A1
  70 0047 07D1BB18 		.ascii	"\007\321\273\030\337\233\311\256XD\007\362f2\363\276"
  70      DF9BC9AE 
  70      584407F2 
  70      6632F3BE 
  71 0057 9FF76B15 		.ascii	"\237\367k\025):\273\256\362\357@\271\035>Au?\020\265"
ARM GAS  /tmp/cc1kgnVI.s 			page 5


  71      293ABBAE 
  71      F2EF40B9 
  71      1D3E4175 
  71      3F10B5
  72 006a F24A792F 		.ascii	"\362Jy/@\246\250\277\017\210LI\303s\367\036 \007\002"
  72      40A6A8BF 
  72      0F884C49 
  72      C373F71E 
  72      200702
  73 007d 3595F6D0 		.ascii	"5\225\366\320\\\200@p\211z\306<\032\276:9\306\023\323"
  73      5C804070 
  73      897AC63C 
  73      1ABE3A39 
  73      C613D3
  74 0090 6FAD9B1F 		.ascii	"o\255\233\037\243\021\020\203\003V@5\320<\377A\336n"
  74      A3111083 
  74      03564035 
  74      D03CFF41 
  74      DE6E
  75 00a2 0A7F66B0 		.ascii	"\012\177f\260\255\372\303\321h\260\373\355\313\026."
  75      ADFAC3D1 
  75      68B0FBED 
  75      CB162E
  76 00b1 4C806268 		.ascii	"L\200bh\215\004\344\363\311\313\211\011\330\370y1\005"
  76      8D04E4F3 
  76      C9CB8909 
  76      D8F87931 
  76      05
  77 00c2 8AD0E368 		.ascii	"\212\320\343hE\271.\211+\003|\272gLw\326\275\270L\372"
  77      45B92E89 
  77      2B037CBA 
  77      674C77D6 
  77      BDB84CFA 
  78 00d6 AFDF3E9E 		.ascii	"\257\337>\2361\353\355\256\371\311\211\304\310)\272"
  78      31EBEDAE 
  78      F9C989C4 
  78      C829BA
  79 00e5 F23B8F59 		.ascii	"\362;\217Y\227\207w\266\0275\233\331-\266R\343\034\224"
  79      978777B6 
  79      17359BD9 
  79      2DB652E3 
  79      1C94
  80 00f7 ECFA9054 		.ascii	"\354\372\220T\204\015\356M\204\227\034\240.1\337S\373"
  80      840DEE4D 
  80      84971CA0 
  80      2E31DF53 
  80      FB
  81 0108 F3D3D38F 		.ascii	"\363\323\323\217p\017u\370e\272\034#X\243g\014\316\263"
  81      700F75F8 
  81      65BA1C23 
  81      58A3670C 
  81      CEB3
  82 011a 8B04C859 		.ascii	"\213\004\310Yh5+WD;\347RI\356_\222T\363\216\336\234"
  82      68352B57 
  82      443BE752 
  82      49EE5F92 
  82      54F38EDE 
ARM GAS  /tmp/cc1kgnVI.s 			page 6


  83 012f B426B228 		.ascii	"\264&\262(\365\261\203]s\234\010OG\013\366\370t\230"
  83      F5B1835D 
  83      739C084F 
  83      470BF6F8 
  83      7498
  84 0141 E51258B0 		.ascii	"\345\022X\260\377w\260\312r\351<\354\354g\032v\013,"
  84      FF77B0CA 
  84      72E93CEC 
  84      EC671A76 
  84      0B2C
  85 0153 9C6107F7 		.ascii	"\234a\007\367\247\323\353\002CZ\306\230\363<Iv\022\220"
  85      A7D3EB02 
  85      435AC698 
  85      F33C4976 
  85      1290
  86 0165 3F061C52 		.ascii	"?\006\034R\273\357\247}\351\331\276\024,\366Ag{\365"
  86      BBEFA77D 
  86      E9D9BE14 
  86      2CF64167 
  86      7BF5
  87 0177 620A2832 		.ascii	"b\012(2TT\001\\\375\327\335C\2316\231:\371\237\362Y"
  87      5454015C 
  87      FDD7DD43 
  87      9936993A 
  87      F99FF259 
  88 018b 6E455F3B 		.ascii	"nE_;\273\253:%\226l\034W\277g\347s\304\237\2458[\321"
  88      BBAB3A25 
  88      966C1C57 
  88      BF67E773 
  88      C49FA538 
  89 01a1 27828034 		.ascii	"'\202\2004\217\335-4\325\363\275)\326\351\301^I\206"
  89      8FDD2D34 
  89      D5F3BD29 
  89      D6E9C15E 
  89      4986
  90 01b3 0B11491B 		.ascii	"\013\021I\033\312\225Jxm)\256\3067n\206+\215p)Z\016"
  90      CA954A78 
  90      6D29AEC6 
  90      376E862B 
  90      8D70295A 
  91 01c8 97E36AD8 		.ascii	"\227\343j\330\270{g1J\032a\262\230\214\217\225\032\241"
  91      B87B6731 
  91      4A1A61B2 
  91      988C8F95 
  91      1AA1
  92 01da AA93C6ED 		.ascii	"\252\223\306\355_c\206\260k"
  92      5F6386B0 
  92      6B
  93              		.text
  94              		.section	.gnu.lto_reads.270aaa2195134e7c,"",%progbits
  95 0000 789C8D52 		.ascii	"x\234\215R\277k\024A\030}ofvo\357\274\363\"XKH\351\301"
  95      BF6B1441 
  95      187D6F66 
  95      766FEFBC 
  95      F322584B 
  96 0017 2DFA2F58 		.ascii	"-\372/XYYh \226wG\274,dQ<;\213\314\335Y\234\330\204"
  96      59596820 
ARM GAS  /tmp/cc1kgnVI.s 			page 7


  96      967747BC 
  96      2C64513C 
  96      3B8BCCDD 
  97 002f 94118404 		.ascii	"\224\021\204\004\322\244H\304J!E\212\024\006\374\201"
  97      D2A448C4 
  97      4A21458A 
  97      1406FC81 
  98 003f 90426D72 		.ascii	"\220Bmr \326\006lD\204\365\233\335\033#!\030\007\366"
  98      20D6066C 
  98      4484F59B 
  98      DD1B2321 
  98      1807F6
  99 0052 9BD9F77D 		.ascii	"\233\331\367}\357\315\373>FA\341\344\272*\337\013\201"
  99      EFCDFB3E 
  99      4641E1E4 
  99      BA2ADF0B 
  99      81
 100 0063 AFC8CE00 		.ascii	"\257\310\316\000T\313\357\200~\244\224>\210a+f\347\022"
 100      54CBEF80 
 100      7EA4943E 
 100      88612B66 
 100      E712
 101 0075 6C55D314 		.ascii	"lU\323\024\260!\335\001\304\222\322\206K\267\231\213"
 101      B021DD01 
 101      C492D286 
 101      4BB7998B 
 102 0085 6CABDD71 		.ascii	"l\253\335q\226m\035\275\3722\342\205:\221\022\212)i"
 102      966D1DBD 
 102      FA32E285 
 102      3A91128A 
 102      2969
 103 0097 9010810B 		.ascii	"\220\020\201\013\241\013%\301\020\311\211e\011\252\""
 103      A10B25C1 
 103      10C98965 
 103      09AA22
 104 00a6 BFAAEA12 		.ascii	"\277\252\352\0225\027d\005xd\355\362\364\014\326\254"
 104      35176405 
 104      7864EDF2 
 104      F40CD6AC 
 105 00b6 5DD9FDBE 		.ascii	"]\331\375\276\261O\273b\373GYVO\250\025\232D\207\230"
 105      B14FBB62 
 105      FB475956 
 105      4FA8159A 
 105      448798
 106 00c9 6342339D 		.ascii	"cB3\235o\2019\331N'\327\271%\321\371\234\245r\273\336"
 106      6F8139D9 
 106      4E27D7B9 
 106      25D1F99C 
 106      A572BBDE 
 107 00dd 876A714D 		.ascii	"\207jqM\332kq\2353\350\012\214\267\030|\376\361\254"
 107      DA6B719D 
 107      33E80A8C 
 107      B7187CFE 
 107      F1AC
 108 00ef 56E05D9A 		.ascii	"V\340]\232\006.'\014\237bUtKR\341\364u\256\331\246W"
 108      062E270C 
 108      9F625574 
ARM GAS  /tmp/cc1kgnVI.s 			page 8


 108      4B52E1F4 
 108      75AED9A6 
 109 0104 779CE7E7 		.ascii	"w\234\347\347<%\370\027\205\177(\303\307\303uzN(7\011"
 109      3C25F817 
 109      857F28C3 
 109      C7C3757A 
 109      4E283709 
 110 0118 13788DBD 		.ascii	"\023x\215\275\257\375\332_p\351\270\211YQ9\210\305\365"
 110      AFFDDA5F 
 110      70E9B889 
 110      59513988 
 110      C5F5
 111 012a 60FCEB7C 		.ascii	"`\374\353|Q\"\203\223*\2376\223\256\006\021\212\014"
 111      51228393 
 111      2A9F3693 
 111      AE06118A 
 111      0C
 112 013b 0B6F2F0F 		.ascii	"\013o/\017/z\305(7\307\323\315\251csO\206w<\245,\254"
 112      2F7AC528 
 112      37C7D3CD 
 112      A963734F 
 112      86773CA5 
 113 0151 DCDB7B84 		.ascii	"\334\333{\204\005\006<\304O;\262S\011\243\316\244\245"
 113      05063CC4 
 113      4F3BB253 
 113      09A3CEA4 
 113      A5
 114 0162 2E2B79A9 		.ascii	".+y\251\310\225\213[?\036\326\275D\265\201Mk]\375\331"
 114      C8958B5B 
 114      3F1ED6BD 
 114      44B5814D 
 114      6B5DFDD9 
 115 0176 631969CF 		.ascii	"c\031i\317\252\011\321\367p\275\000\377OG\250\300\007"
 115      AA09D1F7 
 115      70BD00FF 
 115      4F47A8C0 
 115      07
 116 0187 F4C759E8 		.ascii	"\364\307Y\350\265\362\304'P\006\252$\204\372\3157\272"
 116      B5F2C427 
 116      5006AA24 
 116      84FACD37 
 116      BA
 117 0198 07413732 		.ascii	"\007A72\327w\243\331\214\257-$\355\344\306\315\370n"
 117      D777A3D9 
 117      8CAF2D24 
 117      EDE4C6CD 
 117      F86E
 118 01aa 2F5E682D 		.ascii	"/^h-\306\213I;\356=\270?\337J{q:\237N\216\315\016t\332"
 118      C68B493B 
 118      EE3DB83F 
 118      DF4A7B71 
 118      3A9F4E8E 
 119 01c2 BBF71BC3 		.ascii	"\273\367\033\303\313\235\342"
 119      CB9DE2
 120              		.text
 121              		.section	.gnu.lto_writes.270aaa2195134e7c,"",%progbits
 122 0000 789C8D52 		.ascii	"x\234\215R=kTA\024=gf\336\333\227u7\361\027HH\351\302"
ARM GAS  /tmp/cc1kgnVI.s 			page 9


 122      3D6B5441 
 122      143D6766 
 122      DEDB9775 
 122      37F11748 
 123 0017 3EF42F58 		.ascii	">\364/XYYh@\313\335%\037\003y*\256\235Efw-\"6!\225$"
 123      59596840 
 123      CBDD251F 
 123      03792AAE 
 123      9D456677 
 124 0031 55025A88 		.ascii	"U\002Z\210(v\026\201\244H\221\024~A\032S-\210\215\020"
 124      28761681 
 124      A4489114 
 124      7E411A53 
 124      2D888D10 
 125 0045 B011C466 		.ascii	"\260\021\304f\2753o'\221 \352\300\273w\336\271\367\234"
 125      BD336F27 
 125      9120EAC0 
 125      BB77DEB9 
 125      F79C
 126 0057 FBF19E82 		.ascii	"\373\361\236\202\302\331sY\236\327\002_\022\317\004"
 126      C2D97359 
 126      9ED7025F 
 126      12CF04
 127 0066 54ABEF80 		.ascii	"T\253\357\200^\246\224>\314\341\252f\373\002\\M\323"
 127      5EA6943E 
 127      CCE1AA66 
 127      FB025C4D 
 127      D3
 128 0077 94B021FD 		.ascii	"\224\260!\375\005\304\262\322\206\313\267\030D^\251"
 128      05C4B2D2 
 128      86CBB718 
 128      445EA9
 129 0086 DDE168F4 		.ascii	"\335\341h\364r\373\373\347\333\234\"\012B\261 \015,"
 129      72FBFBE7 
 129      DB9C220A 
 129      42B1200D 
 129      2C
 130 0097 9178937A 		.ascii	"\221x\223zS\021\014\231\3348!FU\345U\325|\240\356\215"
 130      53110C99 
 130      DC382146 
 130      55E555D5 
 130      7CA0EE8D 
 131 00ab 9C040F9D 		.ascii	"\234\004\017\235[\235\236\301\246sk\273;O\017\350\326"
 131      5B9D9EC1 
 131      A6736BBB 
 131      3B4F0FE8 
 131      D6
 132 00bc 5CEFDB68 		.ascii	"\\\357\333h4e\251\025\232D\207\270IK3\035\\b\316N\323"
 132      3465A915 
 132      9A4487B8 
 132      494B331D 
 132      5C62CE4E 
 133 00d1 093A37C4 		.ascii	"\011:7\304\3726g\251\274\327\007P-n\312t-nq\006\013"
 133      FA3667A9 
 133      BCD70750 
 133      2D6ECA74 
 133      2D6E7106 
ARM GAS  /tmp/cc1kgnVI.s 			page 10


 134 00e6 02E32DFA 		.ascii	"\002\343-\372Go\326\353%\276@\323\300E\313t\003\353"
 134      476FD6EB 
 134      25BE40D3 
 134      C045CB74 
 134      03EB
 135 00f8 A25B910C 		.ascii	"\242[\221\014\257\257\203f\233Q\335s>\234\213\224\344"
 135      AFAF8366 
 135      9B51DD73 
 135      3E9C8B94 
 135      E4
 136 0109 6F149E50 		.ascii	"o\024\236P\006\217\006\317\0309\251T\022&\260\217\275"
 136      068F06CF 
 136      1839A954 
 136      1226B08F 
 136      BD
 137 011a 2FBDFA6F 		.ascii	"/\275\372op\345t\210YQ9\314\245\353\376\360\353d\231"
 137      70E57488 
 137      595139CC 
 137      A5EBFEF0 
 137      EB6499
 138 012d 228B93AC 		.ascii	"\"\213\223\254\0306\343\251\372\031\312\010\313\336"
 138      1836E3A9 
 138      FA19CA08 
 138      CBDE
 139 013b 7E1C4D46 		.ascii	"~\034MF\305,4\307?7\247N\233{<\230\217\224\011a\205"
 139      C52C34C7 
 139      3F37A74E 
 139      9B7B3C98 
 139      8F940961 
 140 0150 DEDE232D 		.ascii	"\336\336#-1\340\001~\272\025w\3362\353\214G\012yU)i"
 140      31E0017E 
 140      BA1577DE 
 140      32EB8C47 
 140      0A795529 
 141 0165 E52B86AA 		.ascii	"\345+\206\252O6N\252\326\032x\356\234\317\377\367ZV"
 141      4F364EAA 
 141      D61A78EE 
 141      9CCFFFF7 
 141      5A56
 142 0177 7464D585 		.ascii	"td\325\205\030g\270Z\202\377\247#T\340#z\303\3434j\205"
 142      1867B85A 
 142      82FFA723 
 142      54E0237A 
 142      C3E3346A 
 143 018c C0275016 		.ascii	"\300'P\026\252\304\244\372\3051\375\017A\2772?w\243"
 143      AAC4A4FA 
 143      C531FD0F 
 143      41BF323F 
 143      77A3
 144 019e D9CCAF2C 		.ascii	"\331\314\257,\332\266\275v=\277\323\315\027[K\371\222"
 144      DAB6BD76 
 144      3DBFD3CD 
 144      175B4BF9 
 144      92
 145 01af 6DE7DDFB 		.ascii	"m\347\335\373\367\346ZE7/\346\212\361\265\331\201.\272"
 145      F7E65A45 
 145      372FE68A 
ARM GAS  /tmp/cc1kgnVI.s 			page 11


 145      F1B5D981 
 145      2EBA
 146 01c1 777F0124 		.ascii	"w\177\001$\256\234\324"
 146      AE9CD4
 147              		.text
 148              		.section	.gnu.lto_msObjectInit.270aaa2195134e7c,"",%progbits
 149 0000 789C8D90 		.ascii	"x\234\215\2201K\003A\020\205\337\233\273\204\003\361"
 149      314B0341 
 149      1085DF9B 
 149      BB8403F1 
 150 0010 07582958 		.ascii	"\007X)X\006o\177\204?\300\"\021\264\274\204\220\034"
 150      066F7F84 
 150      3FC02211 
 150      B4BC8490 
 150      1C
 151 0021 E4103C3B 		.ascii	"\344\020<;\213\\T\260\223\224AQ\260\265\210\226)\355"
 151      8B5C54B0 
 151      93944151 
 151      B0B58896 
 151      29ED
 152 0033 45219D9D 		.ascii	"E!\235\235\351\3555\004!\316\336\236ML\221\201}3\014"
 152      E9ED3504 
 152      21CEDE9E 
 152      4D4C9181 
 152      7D330C
 153 0046 F3BDDD59 		.ascii	"\363\275\335Y\201`16\364\334\021\330\321L\017\224\376"
 153      81603136 
 153      F4DC11D8 
 153      D14C0F94 
 153      FE
 154 0057 1BD00B84 		.ascii	"\033\320\013\204\264\005\210\256\260{\310|\366Q\236"
 154      B40588AE 
 154      B07BC87C 
 154      F6519E
 155 0066 27F3F9F0 		.ascii	"'\363\371\360\351r\370\303[Y\023&\204\257\302\262\212"
 155      E972F8C3 
 155      5B591326 
 155      84AFC2B2 
 155      8A
 156 0077 042A9E4E 		.ascii	"\004*\236N\225p\221e\375-\240\221S5Uk\265O\261\331{"
 156      95709165 
 156      FD2DA091 
 156      5335556B 
 156      B54FB1D9 
 157 008c C5D9ECFC 		.ascii	"\305\331\354\374\363j3\342=K\250\340!\323X\217\211\033"
 157      F36A33E2 
 157      3D4BA8E0 
 157      21D3588F 
 157      891B
 158 009e 5C33265B 		.ascii	"\\3&[\224\003\315\356\245uw1N1\313\006YV\325\261\204"
 158      9403CDEE 
 158      A5757731 
 158      4E31CB06 
 158      5956D5B1 
 159 00b3 7EDE529F 		.ascii	"~\336R\237\227\351\327\224\213>\336r\037g\324\262\260"
 159      97E9D794 
 159      8B3EDE72 
ARM GAS  /tmp/cc1kgnVI.s 			page 12


 159      1F67D4B2 
 159      B0
 160 00c4 2507DFFF 		.ascii	"%\007\337\377I\1779)\005Yv\344hu\322+\310 'G\357\253"
 160      497F3929 
 160      055976E4 
 160      6875D22B 
 160      C8202747 
 161 00da 936E45DB 		.ascii	"\223nE\333\311\2531z\223\217m\307\376EMW\322\377\264"
 161      C9AB317A 
 161      938F6DC7 
 161      FE454D57 
 161      D2FFB4
 162 00ed 44250CCD 		.ascii	"D%\014\315n;\256\307{Us\224\232v\3241\235\270n\322\223"
 162      6E3BAEC7 
 162      7B557394 
 162      9A76D431 
 162      9DB86ED2 
 163 0102 E36694A4 		.ascii	"\343f\224\244&i&E\0316\360\0139\336oU"
 163      26692645 
 163      1936F00B 
 163      39DE6F55 
 164              		.text
 165              		.section	.gnu.lto_.symbol_nodes.270aaa2195134e7c,"",%progbits
 166 0000 789C4DC8 		.ascii	"x\234M\310\271\021\2000\020CQ\255\326\246\015j\243\005"
 166      B9118030 
 166      104351AD 
 166      D6A60D6A 
 166      A305
 167 0012 1A902306 		.ascii	"\032\220#\006\0220G\310\220\320\017\225P\004\201\011"
 167      123047C8 
 167      90D00F95 
 167      50048109 
 168 0022 ACE4CF13 		.ascii	"\254\344\317\023A\364\370\307L\001\371\001\244s\352"
 168      41F4F8C7 
 168      4C01F901 
 168      A473EA
 169 0031 B8525671 		.ascii	"\270RVq\241Xq\246\274\342N\205\237\327hq#\202\334\016"
 169      A15871A6 
 169      BCE24E85 
 169      9FD76871 
 169      2382DC0E 
 170 0045 2A963725 		.ascii	"*\2267%s6\270\207\267u/\305\007\023_\"\203"
 170      7336B887 
 170      B7752FC5 
 170      07135F22 
 170      83
 171              		.text
 172              		.section	.gnu.lto_.refs.270aaa2195134e7c,"",%progbits
 173 0000 789C6362 		.ascii	"x\234cb`b\340g\200\000F\026&V\026V&f&&&\006&F\006\000"
 173      6062E067 
 173      80004616 
 173      26561656 
 173      26662626 
 174 001a 032D0037 		.ascii	"\003-\0007"
 175              		.text
 176              		.section	.gnu.lto_.decls.270aaa2195134e7c,"",%progbits
 177 0000 789CBD58 		.ascii	"x\234\275Xkl\024U\024\276w\366\321.4\210D\010\374\261"
ARM GAS  /tmp/cc1kgnVI.s 			page 13


 177      6B6C1455 
 177      14BE77F6 
 177      D12E3488 
 177      4408FCB1 
 178 0014 C5803F20 		.ascii	"\305\200? \355H\255\2611\021$\375A\375Q1 \306?f3\335"
 178      ED48ADB1 
 178      311124FD 
 178      41FD5131 
 178      20C63F66 
 179 002a 9DEDAED9 		.ascii	"\235\355\256\331\227;S\021\375\301m\253\200Dc\2131\202"
 179      973B5311 
 179      FDC16DAB 
 179      8044638B 
 179      3182
 180 003c 5ABA05F1 		.ascii	"Z\272\005\361ABx\005!\341\321\205*6\"P4\365\201)Y\220"
 180      41427805 
 180      21E1D185 
 180      2A362250 
 180      34F58129 
 181 0052 97A0A150 		.ascii	"\227\240\241P\020Ji\3263w\356\354\316Lg\272[\023\271"
 181      104A69D6 
 181      3377EEEC 
 181      CE4C67BA 
 181      5B13B9
 182 0065 E999DE99 		.ascii	"\351\231\336\231{\317w\316=\337\271\367\334\226C\034"
 182      7BCF77CE 
 182      3DDFB9F7 
 182      DC96431C 
 183 0075 9AC52194 		.ascii	"\232\305!\224\201v\372A\204\2268\020r#\204\346\243\\"
 183      8176FA41 
 183      84963810 
 183      722384E6 
 183      A35C
 184 0087 53DE3B41 		.ascii	"S\336;A\366\203\034\0069\005\322\017\342\301\010\301"
 184      F6831C06 
 184      3905D20F 
 184      E2C108C1 
 185 0097 0F9A8191 		.ascii	"\017\232\201\221\241)s= \233A\\ = i\220I % \335 gA\266"
 185      A129733D 
 185      209B415C 
 185      203D2069 
 185      90492025 
 186 00b1 83803934 		.ascii	"\203\20094\0042\014r\033\251x\212>\270\204\276\006\331"
 186      04320C72 
 186      1BA9788A 
 186      3EB884BE 
 186      06D9
 187 00c3 6784A63E 		.ascii	"g\204\246>x\230\256\206g\266\243\341;\030\356\210\016"
 187      7898AE86 
 187      67B6A3E1 
 187      3B18EE88 
 187      0E
 188 00d4 7B3FFBDD 		.ascii	"{?\373\335e\302U\3265A\207\263\320\306\347RP\236\200"
 188      65C255D6 
 188      354187B3 
 188      D0C6E752 
 188      509E80
ARM GAS  /tmp/cc1kgnVI.s 			page 14


 189 00e7 4763730C 		.ascii	"Gcs\014\303\303\306N\200\034\003\371\301d\347\224\311"
 189      C3C3C64E 
 189      801C03F9 
 189      C164E794 
 189      C9
 190 00f8 CE8202EC 		.ascii	"\316\202\002\354\350\343\3031\014\315\316\357 \277\201"
 190      E8E3C331 
 190      0CCDCEEF 
 190      20BF81
 191 0107 9C36D9E9 		.ascii	"\2346\331\351g6.1\2744\263\327\315\276_dx\032\366\010"
 191      67362E31 
 191      BC34B3D7 
 191      CDBE5F64 
 191      781AF608 
 192 011b 8B8BA6E7 		.ascii	"\213\213\246\347\200\027\027\210\033\244\010\217\346"
 192      80171788 
 192      1BA4088F 
 192      E6
 193 0128 B8146D24 		.ascii	"\270\024m$\251\201\364\267\347\006\360\006\222z\213"
 193      A981F4B7 
 193      E706F006 
 193      927A8B
 194 0137 64322BD1 		.ascii	"d2+\3214\364!\201\226\\E\010\226=h\015{\251\355\201"
 194      34F42181 
 194      965C4508 
 194      963D680D 
 194      7BA9ED81 
 195 014b C5BD8405 		.ascii	"\305\275\204\005<\311\203\312h\247\304\203\234\2001"
 195      3CC983CA 
 195      68A7C483 
 195      9C8031
 196 015a 1B7D4648 		.ascii	"\033}FHk\372\340\226w\237&\244X\300\233\261\007\326"
 196      6BFAE096 
 196      779F26A4 
 196      58C09BB1 
 196      07D6
 197 016c 17C2680E 		.ascii	"\027\302h\016\372\012T[\0119\367\244\311,m\005C'\373"
 197      FA0A545B 
 197      0939F7A4 
 197      C92C6D05 
 197      4327FB
 198 017f BF9B4A9C 		.ascii	"\277\233J\234\002\376\202\002_\301\030\011\370s<g\274"
 198      02FE8202 
 198      5FC11809 
 198      F8733C67 
 198      BC
 199 0190 30E9BE93 		.ascii	"0\351\276\223{\253\251\207[)\320m\316\010$`\267G\357"
 199      7BABA987 
 199      5B29D06D 
 199      CE082460 
 199      B747EF
 200 01a3 1F7DD726 		.ascii	"\037}\327&(h\360\252X\272\243l2\274\222}Q^\212\320}"
 200      2868F0AA 
 200      58BAA36C 
 200      32BC927D 
 200      515E8AD0 
 201 01b8 D7B35AA6 		.ascii	"\327\263Z\246\002\261\011O\243=\007M1\370\260`\242\326"
ARM GAS  /tmp/cc1kgnVI.s 			page 15


 201      02B1094F 
 201      A33D074D 
 201      31F8B060 
 201      A2D6
 202 01ca A7816A26 		.ascii	"\247\201j&\351-d\372\372\\\240\2125\004\234\013T\377"
 202      E92D64FA 
 202      FA5CA08A 
 202      35049C0B 
 202      54FF
 203 01dc EA6D7369 		.ascii	"\352msi\240\266\323@59,\"^\020P\337\373\033\325\210"
 203      A0B6D340 
 203      35392C22 
 203      5E1050DF 
 203      FB1BD588 
 204 01f0 EFA240EF 		.ascii	"\357\242@\3578\314\021\307\246\210cc\004\3500\353d\214"
 204      38CC11C7 
 204      A6886363 
 204      04E830EB 
 204      648C
 205 0202 3954C85C 		.ascii	"9T\310\\\001/sd\0258\364\201\311\374,\264\231\220u\351"
 205      012F7364 
 205      1538F481 
 205      C9FC2CB4 
 205      999075E9 
 206 0216 6FCEF560 		.ascii	"o\316\365`2\205F\212C\037\3219\235\270\3242\302t\022"
 206      3285468A 
 206      431FD139 
 206      9DB8D432 
 206      C27412
 207 0229 D3231B5E 		.ascii	"\323#\033^\236\256E\350c\263\226!\030\352,h\217\242"
 207      9EAE45E8 
 207      63B39621 
 207      18EA2C68 
 207      8FA2
 208 023b 2D0AA107 		.ascii	"-\012\241\007\317?_\253n\0234\206-\266\202=\230\323"
 208      CF3F5FAB 
 208      6E133486 
 208      2DB6823D 
 208      98D3
 209 024d 2F5BDDB0 		.ascii	"/[\335\260\251}GKZ\233\322\231L\251a\263\252\240v\251"
 209      A97D474B 
 209      5A9BD299 
 209      4CA961B3 
 209      AAA076A9 
 210 0261 71C02235 		.ascii	"q\300\"5L\021\372\3242B\344\272\277\226\315\336\013"
 210      4C11FAD4 
 210      3242E4BA 
 210      BF96CDDE 
 210      0B
 211 0272 DE0878FF 		.ascii	"\336\010x\377\230\341\261Y\247\235\022\363\356\220\345"
 211      98E1B159 
 211      A79D12F3 
 211      EE90E5
 212 0281 3AAF8F00 		.ascii	":\257\217\0007\353\310\275L\306aq.5\027\262\353\333"
 212      37EBC8BD 
 212      4CC66171 
 212      2E3517B2 
ARM GAS  /tmp/cc1kgnVI.s 			page 16


 212      EBDB
 213 0293 3EF97910 		.ascii	">\371y\0207\203\216\200\273)Y\233\235\346,t\231\262"
 213      37838E80 
 213      BB29599B 
 213      9DE62C74 
 213      99B2
 214 02a5 D065CC2C 		.ascii	"\320e\314,\227'\327Q\266\337\003\366\333\357\210\375"
 214      9727D751 
 214      B6DF03F6 
 214      DBEF88FD 
 215 02b5 F69B88D6 		.ascii	"\366\233\210\326\346<VS\302\016\245\007O\324\371\223"
 215      E63C5653 
 215      C20EA507 
 215      4FD4F993 
 216 02c5 C5EA56B3 		.ascii	"\305\352V\263\310\304\331V\247eV\277}\246}\006Ir\006"
 216      C8C4D956 
 216      A76556BF 
 216      7DA67D06 
 216      497206
 217 02d8 DE0E1792 		.ascii	"\336\016\027\222\326;\305Z\325\003\016\355\240\320\366"
 217      D63BC55A 
 217      D5030EED 
 217      A0D0F6
 218 02e7 5AD44FA6 		.ascii	"Z\324O\246\366\213\242\246\006xw\036\265n\335nh&]4K"
 218      F68BA2A6 
 218      0678771E 
 218      B56EDD6E 
 218      68265D34 
 219 02fc BA5996D8 		.ascii	"\272Y\226\330i\261\310|o\231%\007\304\0362\000\274\230"
 219      69B1C87C 
 219      6F992507 
 219      C41E3200 
 219      BC98
 220 030e 3643F718 		.ascii	"6C\367\030!\376\261@\242\262g]\312\366\254\023\360\016"
 220      21FEB140 
 220      A2B2675D 
 220      CAF6AC13 
 220      F00E
 221 0320 3C3BFF79 		.ascii	"<;\377yd\347I\337x\310\336cI6\0312m\320S\205\020\335"
 221      64E749DF 
 221      78C8DE63 
 221      49361932 
 221      6DD05385 
 222 0336 A530A658 		.ascii	"\2450\246X\027\360\361<Z}:\242oiD\013\370d\036\265\261"
 222      17F0F13C 
 222      5A7D3AA2 
 222      6F69440B 
 222      F8641EB5 
 223 034b 88B6D362 		.ascii	"\210\266\323bQ\371u4\321\311t\252c\3651\353\343@\300"
 223      51F97534 
 223      D1C974AA 
 223      63F531EB 
 223      E340C0
 224 035e F3A7DA46 		.ascii	"\363\247\332F\370\214\221k\003\277SP\233\202R\246;D"
 224      F88C916B 
 224      03BF5350 
 224      9B8252A6 
ARM GAS  /tmp/cc1kgnVI.s 			page 17


 224      3B44
 225 0370 92580378 		.ascii	"\222X\003x\010eO\221\241?zg\264\320C\344,\236\0028\227"
 225      08654F91 
 225      A13F7A67 
 225      B4D043E4 
 225      2C9E0238 
 226 0385 4D44E4C5 		.ascii	"MD\344\305Q\0349\017\252\252\022E%\251\366\243%\312"
 226      511C390F 
 226      AAAA1245 
 226      25A9F6A3 
 226      25CA
 227 0397 C546F98E 		.ascii	"\305F\371\216\014p\2066\023%\301\341\324\316U\035\260"
 227      0C708636 
 227      1325C1E1 
 227      D4CE551D 
 227      B0
 228 03a8 A38F602B 		.ascii	"\243\217`+\377a\002\326\231&Y\323\223i\332\334\002o"
 228      FF6102D6 
 228      992659D3 
 228      9369DADC 
 228      026F
 229 03ba 2D3C344E 		.ascii	"-<4N\023\360\237\224\317+f/\207\2052\365k~\037G\216"
 229      13F09F94 
 229      CF2B662F 
 229      878532F5 
 229      6B7E1F47 
 230 03cf 97B40AA6 		.ascii	"\227\264\012\246\223N\331jv\324\374\235K~\0165\2730"
 230      934ED96A 
 230      76D4FC9D 
 230      4B7E0E35 
 230      BB30
 231 03e1 336F359D 		.ascii	"3o5\235u\325\306&\030\214\223]\204x\334&\343G\3060>"
 231      75D5C626 
 231      188C935D 
 231      8478DC26 
 231      E347C630 
 232 03f6 A037BE66 		.ascii	"\2407\276f\334\306\313\362\032\3374\206\361\301\234"
 232      DCC6CBF2 
 232      1ADF3486 
 232      F1C19C
 233 0405 71B5C8E7 		.ascii	"q\265\310\3475^<\276\225\037\030\303\370-\275\361C\343"
 233      355E3CBE 
 233      951F18C3 
 233      F82DBDF1 
 233      43E3
 234 0417 365E6622 		.ascii	"6^f\"_\313\012\001\377\205g\302\363\032}\336\240\317"
 234      5FCB0A01 
 234      FF8567C2 
 234      F31A7DDE 
 234      A0CF
 235 0429 9BF0CC36 		.ascii	"\233\360\3146;\177.\351\231x\2172q\376\277\246Aj\027"
 235      3B7F2EE9 
 235      99788F32 
 235      71FEBFA6 
 235      416A17
 236 043c DC8D04AD 		.ascii	"\334\215\004\255\204\265\215\033\314\202V\255\260\255"
 236      84B58D1B 
ARM GAS  /tmp/cc1kgnVI.s 			page 18


 236      CC8256AD 
 236      B0AD
 237 044a 2F042C1F 		.ascii	"/\004,\037M\032X\373\270\301\306\360\254\263\020\260"
 237      4D1A58FB 
 237      B8C1C6F0 
 237      ACB310B0 
 238 045a C9169E59 		.ascii	"\311\026\236Y5\375A%\340\013\264\270]\244d\336\246\317"
 238      35FD4125 
 238      E00BB4B8 
 238      5DA464DE 
 238      A6CF
 239 046c 21FA1CA6 		.ascii	"!\372\034\246\317\221B\350M\347\350\315\3267v\3071\327"
 239      CF9142E8 
 239      4DE7E8CD 
 239      D63776C7 
 239      31D7
 240 047e BB3CF5EF 		.ascii	"\273<\365\357K\227\345e\347\302`\217\023\376~u\252\246"
 240      4B97E565 
 240      E7C2608F 
 240      13FE7E75 
 240      AAA6
 241 0490 A04CD269 		.ascii	"\240L\322i\375\266\205)\215Me\260\207\226\301;t'\330"
 241      FDB68529 
 241      8D4D65B0 
 241      8796C13B 
 241      7427D8
 242 04a3 ABE9EE3B 		.ascii	"\253\351\356;\251\235\253\331\375J-\205w\363\250\322"
 242      A99DABD9 
 242      FD4A2D85 
 242      77F3A8D2 
 243 04b3 E5308B1D 		.ascii	"\3450\213\035\271\012z\257\0205\355B\015\345\257%\211"
 243      B90A7AAF 
 243      1035ED42 
 243      0DE5AF25 
 243      89
 244 04c4 899B163B 		.ascii	"\211\233\026;\304\364\014\2745s\243\252fzGz\360\352"
 244      C4F40CBC 
 244      3573A3AA 
 244      667A477A 
 244      F0EA
 245 04d6 9D66DCD6 		.ascii	"\235f\334\326\222T/I-$9\327T;\341R0\332<e\202C\333\224"
 245      92542F49 
 245      2D2439D7 
 245      543BE152 
 245      30DA3C65 
 246 04ee 7F1D682F 		.ascii	"\177\035h/{\340\2051\3640:\350n'\305\346\314Y\313\331"
 246      7BE08531 
 246      F4303AE8 
 246      6E27C5E6 
 246      CC59CBD9 
 247 0502 DEAB04BC 		.ascii	"\336\253\004\274\320\222r\023\305]n=\305\314\360Q\275"
 247      D0927213 
 247      C55D6E3D 
 247      C5CCF051 
 247      BD
 248 0513 1727DC56 		.ascii	"\027'\334V\377N\310\266GP'\351\355M_\270\332\353lR\376"
 248      FF4EC8B6 
ARM GAS  /tmp/cc1kgnVI.s 			page 19


 248      475027E9 
 248      ED4D5FB8 
 248      DAEB6C52 
 249 0528 A7A15C17 		.ascii	"\247\241\\\0270\254\3522M\352\177h\304\025x\313\"\210"
 249      30ACEA32 
 249      4DEA7F68 
 249      C41578CB 
 249      2288
 250 053a D814A555 		.ascii	"\330\024\245U\241\335dM\352\031MS9\333\336Dw\011\\\010"
 250      A1DD644D 
 250      EA194D53 
 250      39DBDE44 
 250      77095C08 
 251 054e 7763B574 		.ascii	"wc\265t\251\327\030\252t-7\372\023Vk\213z\233\245\243"
 251      A9D718AA 
 251      742D37FA 
 251      13566B8B 
 251      7A9BA5A3 
 252 0562 3772A3D7 		.ascii	"7r\243\327\261z\370\253\177\371\321\321\233\271\321"
 252      B17AF8AB 
 252      7FF9D1D1 
 252      9BB9D1
 253 0571 61AC9ECE 		.ascii	"a\254\236\316\352\337K\264\231\316u%\302v\033\255\203"
 253      EADF4BB4 
 253      99CE7525 
 253      C2761BAD 
 253      83
 254 0582 CBDD25E7 		.ascii	"\313\335%\347VT\3605\301P}h\361R>&\361A!\314\207C\365"
 254      5654F035 
 254      C1507D68 
 254      F1523E26 
 254      F14121CC 
 255 0599 BC242744 		.ascii	"\274$'D!\"\361\0211\302\272\025>\364\224q\256/\026\211"
 255      2122F111 
 255      31C2BA15 
 255      3EF49471 
 255      AE2F1689 
 256 05ad C4A27C3C 		.ascii	"\304\242|<\226\220%~\341\222\272\232\272\327\225o\361"
 256      9690257E 
 256      E192BA9A 
 256      BAD7956F 
 256      F1
 257 05be 50584C48 		.ascii	"PXLH\374\242\232\032\336\027\224W\304E\251\"\210\\\021"
 257      FCA29A1A 
 257      DE179457 
 257      C445A922 
 257      885C11
 258 05d1 A9C12BBB 		.ascii	"\251\301+\273\027=\267\254\254\006I|4@\345\011>\030"
 258      173DB7AC 
 258      AC06497C 
 258      3440E509 
 258      3E18
 259 05e3 8B887C42 		.ascii	"\213\210|B\224D!\341\013\202\365\204\177\271\220\020"
 259      944421E1 
 259      0B82F584 
 259      7FB99010 
 260 05f3 792111A9 		.ascii	"y!\021\251\344\033|\276r\350\224\213\221z\321\357\027"
ARM GAS  /tmp/cc1kgnVI.s 			page 20


 260      E41B7CBE 
 260      72E8948B 
 260      917AD1EF 
 260      17
 261 0604 FDD90FD1 		.ascii	"\375\331\017\321XT,\027\205\372Py\225\267\272\274\362"
 261      58542C17 
 261      85FA5079 
 261      95B7BABC 
 261      F2
 262 0615 B17955AF 		.ascii	"\261yU\257V\362\206\001>\024\365\205\033\375\"\254\303"
 262      56F28601 
 262      3E14F585 
 262      1BFD22AC 
 262      C3
 263 0626 1F8ACAE0 		.ascii	"\037\212\312\340@\021\374z\274\322+\267\340\373g<\""
 263      4011FC7A 
 263      BCD22BB7 
 263      E0FB673C 
 263      22
 264 0637 F882A1A8 		.ascii	"\370\202\241\250\310{\375b@h\014\313^-\032\036\257\227"
 264      C87BFD62 
 264      40680CCB 
 264      5E2D1A1E 
 264      AF97
 265 0649 B953D408 		.ascii	"\271S\324\010\235j\257\014_X\317\021o\224\271P\034\327"
 265      9D6AAF0C 
 265      5F58CF11 
 265      6F94B950 
 265      1CD7
 266 065b 3B1A44B9 		.ascii	";\032D\271\351\177\361V!\030&\230\274\256\252\250\256"
 266      E97FF156 
 266      21182698 
 266      BCAEAAA8 
 266      AE
 267 066c A8D2070E 		.ascii	"\250\322\007\016\274\006_\335R\350\015\321+\273 \011"
 267      BC065FDD 
 267      52E80DD1 
 267      2BBB2009 
 268 067c FC12571F 		.ascii	"\374\022W\037\307Q\367\362DH\026\245\3023'\210J\352"
 268      C751F7F2 
 268      444816A5 
 268      C2332788 
 268      4AEA
 269 068e C4482CB1 		.ascii	"\304H,\261b)\375\240\274\250\275\027\353^pQ0\247\202"
 269      6229FDA0 
 269      BCA8BD17 
 269      EB5E7051 
 269      30A782
 270 06a1 EE782D22 		.ascii	"\356x-\"\273\353\033\003\0011\341T\214:\304\230\344"
 270      BBEB1B03 
 270      0131E154 
 270      8C3AC498 
 270      E4
 271 06b2 8E050292 		.ascii	"\216\005\002\222(\227D\244\305\365\257\210>\371\331"
 271      289744A4 
 271      C5F5AF88 
 271      3EF9D9
ARM GAS  /tmp/cc1kgnVI.s 			page 21


 272 06c1 68487644 		.ascii	"hHvD\244\370}M\241D(\332\240\244\020\214E\033\303\341"
 272      A4F87D4D 
 272      A14428DA 
 272      A0A4108C 
 272      451BC3E1 
 273 06d5 A240B44C 		.ascii	"\242@\264L\212\213><\317\015\213\364\305W\300\200\034"
 273      8A8B3E3C 
 273      CF0D8BF4 
 273      C557C080 
 273      1C
 274 06e6 4CC4963B 		.ascii	"L\304\226;\303\242\020\370\027\327!\255\017"
 274      C3A210F8 
 274      17D721AD 
 274      0F
 275              		.text
 276              		.section	.gnu.lto_.symtab.270aaa2195134e7c,"",%progbits
 277 0000 6D734F62 		.ascii	"msObjectInit\000\000\000\000\000\000\000\000\000\000"
 277      6A656374 
 277      496E6974 
 277      00000000 
 277      00000000 
 278 0016 0000DD00 		.ascii	"\000\000\335\000\000\000"
 278      0000
 279              		.text
 280              		.section	.gnu.lto_.opts,"",%progbits
 281 0000 272D6D63 		.ascii	"'-mcpu=cortex-m4' '-mno-thumb-interwork' '-mthumb' "
 281      70753D63 
 281      6F727465 
 281      782D6D34 
 281      2720272D 
 282 0033 272D6767 		.ascii	"'-ggdb' '-O2' '-fomit-frame-pointer' '-falign-funct"
 282      64622720 
 282      272D4F32 
 282      2720272D 
 282      666F6D69 
 283 0066 696F6E73 		.ascii	"ions=16' '-ffunction-sections' '-fdata-sections' '-"
 283      3D313627 
 283      20272D66 
 283      66756E63 
 283      74696F6E 
 284 0099 666E6F2D 		.ascii	"fno-common' '-flto'\000"
 284      636F6D6D 
 284      6F6E2720 
 284      272D666C 
 284      746F2700 
 285              		.text
 286              		.cfi_sections	.debug_frame
 287              		.section	.text.put,"ax",%progbits
 288              		.align	2
 289              		.p2align 4,,15
 290              		.thumb
 291              		.thumb_func
 292              		.type	put, %function
 293              	put:
 294              	.LFB272:
 295              		.file 1 "../ChibiOS/os/hal/lib/streams/memstreams.c"
 296              		.loc 1 66 0
ARM GAS  /tmp/cc1kgnVI.s 			page 22


 297              		.cfi_startproc
 298              		@ args = 0, pretend = 0, frame = 0
 299              		@ frame_needed = 0, uses_anonymous_args = 0
 300              		@ link register save eliminated.
 301              	.LVL0:
 302              		.loc 1 69 0
 303 0000 C368     		ldr	r3, [r0, #12]
 304 0002 8268     		ldr	r2, [r0, #8]
 305 0004 9A42     		cmp	r2, r3
 306 0006 06D0     		beq	.L3
 307              		.loc 1 71 0
 308 0008 4268     		ldr	r2, [r0, #4]
 309 000a D154     		strb	r1, [r2, r3]
 310              		.loc 1 72 0
 311 000c C368     		ldr	r3, [r0, #12]
 312 000e 0133     		adds	r3, r3, #1
 313 0010 C360     		str	r3, [r0, #12]
 314              		.loc 1 73 0
 315 0012 0020     		movs	r0, #0
 316              	.LVL1:
 317 0014 7047     		bx	lr
 318              	.LVL2:
 319              	.L3:
 320              		.loc 1 70 0
 321 0016 6FF00100 		mvn	r0, #1
 322              	.LVL3:
 323              		.loc 1 74 0
 324 001a 7047     		bx	lr
 325              		.cfi_endproc
 326              	.LFE272:
 327              		.size	put, .-put
 328 001c AFF30080 		.section	.text.get,"ax",%progbits
 329              		.align	2
 330              		.p2align 4,,15
 331              		.thumb
 332              		.thumb_func
 333              		.type	get, %function
 334              	get:
 335              	.LFB273:
 336              		.loc 1 76 0
 337              		.cfi_startproc
 338              		@ args = 0, pretend = 0, frame = 0
 339              		@ frame_needed = 0, uses_anonymous_args = 0
 340              		@ link register save eliminated.
 341              	.LVL4:
 342              		.loc 1 80 0
 343 0000 0269     		ldr	r2, [r0, #16]
 344 0002 C168     		ldr	r1, [r0, #12]
 345 0004 9142     		cmp	r1, r2
 346              		.loc 1 76 0
 347 0006 0346     		mov	r3, r0
 348              	.LVL5:
 349              		.loc 1 80 0
 350 0008 04D0     		beq	.L7
 351              		.loc 1 82 0
 352 000a 4168     		ldr	r1, [r0, #4]
 353 000c 885C     		ldrb	r0, [r1, r2]	@ zero_extendqisi2
ARM GAS  /tmp/cc1kgnVI.s 			page 23


 354              	.LVL6:
 355              		.loc 1 83 0
 356 000e 0132     		adds	r2, r2, #1
 357              	.LVL7:
 358 0010 1A61     		str	r2, [r3, #16]
 359              	.LVL8:
 360              		.loc 1 84 0
 361 0012 7047     		bx	lr
 362              	.LVL9:
 363              	.L7:
 364              		.loc 1 81 0
 365 0014 6FF00100 		mvn	r0, #1
 366              	.LVL10:
 367              		.loc 1 85 0
 368 0018 7047     		bx	lr
 369              		.cfi_endproc
 370              	.LFE273:
 371              		.size	get, .-get
 372 001a 00BFAFF3 		.section	.text.reads,"ax",%progbits
 372      0080
 373              		.align	2
 374              		.p2align 4,,15
 375              		.thumb
 376              		.thumb_func
 377              		.type	reads, %function
 378              	reads:
 379              	.LFB271:
 380              		.loc 1 56 0
 381              		.cfi_startproc
 382              		@ args = 0, pretend = 0, frame = 0
 383              		@ frame_needed = 0, uses_anonymous_args = 0
 384              	.LVL11:
 385 0000 38B5     		push	{r3, r4, r5, lr}
 386              		.cfi_def_cfa_offset 16
 387              		.cfi_offset 3, -16
 388              		.cfi_offset 4, -12
 389              		.cfi_offset 5, -8
 390              		.cfi_offset 14, -4
 391              		.loc 1 56 0
 392 0002 0446     		mov	r4, r0
 393              	.LVL12:
 394              		.loc 1 61 0
 395 0004 0846     		mov	r0, r1
 396              	.LVL13:
 397              		.loc 1 59 0
 398 0006 2369     		ldr	r3, [r4, #16]
 399 0008 E568     		ldr	r5, [r4, #12]
 400              		.loc 1 61 0
 401 000a 6168     		ldr	r1, [r4, #4]
 402              	.LVL14:
 403              		.loc 1 59 0
 404 000c ED1A     		subs	r5, r5, r3
 405 000e AA42     		cmp	r2, r5
 406 0010 38BF     		it	cc
 407 0012 1546     		movcc	r5, r2
 408              	.LVL15:
 409              		.loc 1 61 0
ARM GAS  /tmp/cc1kgnVI.s 			page 24


 410 0014 1944     		add	r1, r1, r3
 411 0016 2A46     		mov	r2, r5
 412 0018 FFF7FEFF 		bl	memcpy
 413              	.LVL16:
 414              		.loc 1 62 0
 415 001c 2369     		ldr	r3, [r4, #16]
 416 001e 2B44     		add	r3, r3, r5
 417 0020 2361     		str	r3, [r4, #16]
 418              		.loc 1 64 0
 419 0022 2846     		mov	r0, r5
 420 0024 38BD     		pop	{r3, r4, r5, pc}
 421              		.cfi_endproc
 422              	.LFE271:
 423              		.size	reads, .-reads
 424 0026 00BFAFF3 		.section	.text.writes,"ax",%progbits
 424      0080AFF3 
 424      0080
 425              		.align	2
 426              		.p2align 4,,15
 427              		.thumb
 428              		.thumb_func
 429              		.type	writes, %function
 430              	writes:
 431              	.LFB270:
 432              		.loc 1 46 0
 433              		.cfi_startproc
 434              		@ args = 0, pretend = 0, frame = 0
 435              		@ frame_needed = 0, uses_anonymous_args = 0
 436              	.LVL17:
 437 0000 38B5     		push	{r3, r4, r5, lr}
 438              		.cfi_def_cfa_offset 16
 439              		.cfi_offset 3, -16
 440              		.cfi_offset 4, -12
 441              		.cfi_offset 5, -8
 442              		.cfi_offset 14, -4
 443              		.loc 1 49 0
 444 0002 C368     		ldr	r3, [r0, #12]
 445 0004 8568     		ldr	r5, [r0, #8]
 446              		.loc 1 46 0
 447 0006 0446     		mov	r4, r0
 448              	.LVL18:
 449              		.loc 1 49 0
 450 0008 ED1A     		subs	r5, r5, r3
 451              		.loc 1 51 0
 452 000a 4068     		ldr	r0, [r0, #4]
 453              	.LVL19:
 454 000c AA42     		cmp	r2, r5
 455 000e 38BF     		it	cc
 456 0010 1546     		movcc	r5, r2
 457              	.LVL20:
 458 0012 1844     		add	r0, r0, r3
 459 0014 2A46     		mov	r2, r5
 460 0016 FFF7FEFF 		bl	memcpy
 461              	.LVL21:
 462              		.loc 1 52 0
 463 001a E368     		ldr	r3, [r4, #12]
 464 001c 2B44     		add	r3, r3, r5
ARM GAS  /tmp/cc1kgnVI.s 			page 25


 465 001e E360     		str	r3, [r4, #12]
 466              		.loc 1 54 0
 467 0020 2846     		mov	r0, r5
 468 0022 38BD     		pop	{r3, r4, r5, pc}
 469              		.cfi_endproc
 470              	.LFE270:
 471              		.size	writes, .-writes
 472 0024 AFF30080 		.section	.text.msObjectInit,"ax",%progbits
 472      AFF30080 
 472      AFF30080 
 473              		.align	2
 474              		.p2align 4,,15
 475              		.global	msObjectInit
 476              		.thumb
 477              		.thumb_func
 478              		.type	msObjectInit, %function
 479              	msObjectInit:
 480              	.LFB274:
 481              		.loc 1 104 0
 482              		.cfi_startproc
 483              		@ args = 0, pretend = 0, frame = 0
 484              		@ frame_needed = 0, uses_anonymous_args = 0
 485              		@ link register save eliminated.
 486              	.LVL22:
 487 0000 10B4     		push	{r4}
 488              		.cfi_def_cfa_offset 4
 489              		.cfi_offset 4, -4
 490              		.loc 1 107 0
 491 0002 4160     		str	r1, [r0, #4]
 492              		.loc 1 106 0
 493 0004 044C     		ldr	r4, .L11
 494 0006 0460     		str	r4, [r0]
 495              		.loc 1 110 0
 496 0008 0021     		movs	r1, #0
 497              	.LVL23:
 498              		.loc 1 108 0
 499 000a 8260     		str	r2, [r0, #8]
 500              		.loc 1 109 0
 501 000c C360     		str	r3, [r0, #12]
 502              		.loc 1 110 0
 503 000e 0161     		str	r1, [r0, #16]
 504              		.loc 1 111 0
 505 0010 5DF8044B 		ldr	r4, [sp], #4
 506 0014 7047     		bx	lr
 507              	.L12:
 508 0016 00BF     		.align	2
 509              	.L11:
 510 0018 00000000 		.word	.LANCHOR0
 511              		.cfi_endproc
 512              	.LFE274:
 513              		.size	msObjectInit, .-msObjectInit
 514 001c AFF30080 		.section	.rodata.vmt,"a",%progbits
 515              		.align	2
 516              		.set	.LANCHOR0,. + 0
 517              		.type	vmt, %object
 518              		.size	vmt, 16
 519              	vmt:
ARM GAS  /tmp/cc1kgnVI.s 			page 26


 520 0000 00000000 		.word	writes
 521 0004 00000000 		.word	reads
 522 0008 00000000 		.word	put
 523 000c 00000000 		.word	get
 524              		.text
 525              	.Letext0:
 526              		.file 2 "/nfs/nfs5/home/research/hardware/arm2/gcc-arm-embedded/gcc-arm-none-eabi-4_8-2014q2/lib/g
 527              		.file 3 "/nfs/nfs5/home/research/hardware/arm2/gcc-arm-embedded/gcc-arm-none-eabi-4_8-2014q2/arm-n
 528              		.file 4 "/nfs/nfs5/home/research/hardware/arm2/gcc-arm-embedded/gcc-arm-none-eabi-4_8-2014q2/arm-n
 529              		.file 5 "../ChibiOS/os/common/ports/ARMCMx/compilers/GCC/chtypes.h"
 530              		.file 6 "../ChibiOS/os/rt/include/chsystypes.h"
 531              		.file 7 "../ChibiOS/os/rt/include/chschd.h"
 532              		.file 8 "../ChibiOS/os/common/ports/ARMCMx/chcore.h"
 533              		.file 9 "../ChibiOS/os/common/ports/ARMCMx/chcore_v7m.h"
 534              		.file 10 "../ChibiOS/os/rt/include/chtm.h"
 535              		.file 11 "../ChibiOS/os/rt/include/chsem.h"
 536              		.file 12 "../ChibiOS/os/rt/include/chmtx.h"
 537              		.file 13 "../ChibiOS/os/hal/lib/streams/memstreams.h"
 538              		.file 14 "../ChibiOS/os/common/ext/CMSIS/include/core_cm4.h"