ARM GAS  /tmp/ccyj3McZ.s 			page 1


   1              		.syntax unified
   2              		.cpu cortex-m4
   3              		.fpu softvfp
   4              		.eabi_attribute 20, 1
   5              		.eabi_attribute 21, 1
   6              		.eabi_attribute 23, 3
   7              		.eabi_attribute 24, 1
   8              		.eabi_attribute 25, 1
   9              		.eabi_attribute 26, 1
  10              		.eabi_attribute 30, 2
  11              		.eabi_attribute 34, 1
  12              		.eabi_attribute 18, 4
  13              		.thumb
  14              		.file	"nvic.c"
  15              		.text
  16              	.Ltext0:
  17              		.section	.gnu.lto_.jmpfuncs.8d2a736a684303f0,"",%progbits
  18 0000 789C6362 		.ascii	"x\234cb`b\300\006\270\2404\013\0033##\02333#\003\000"
  18      6062C006 
  18      B8A0340B 
  18      03332323 
  18      13333323 
  19 0016 01F00021 		.ascii	"\001\360\000!"
  20              		.text
  21              		.section	.gnu.lto_.inline.8d2a736a684303f0,"",%progbits
  22 0000 789C6D4C 		.ascii	"x\234mL\313\025\200 \014KK\205\352\305\021\330\300%"
  22      CB158020 
  22      0C4B4B85 
  22      EAC511D8 
  22      C025
  23 0012 5D84911C 		.ascii	"]\204\221\034\305\021LQy\036\354!}\371*\024\177\267"
  23      C5114C51 
  23      791EEC21 
  23      7DF92A14 
  23      7FB7
  24 0024 3FDF8065 		.ascii	"?\337\200e\026\025\011\022`\371\334\220[U\350\261\032"
  24      16150912 
  24      60F9DC90 
  24      5B55E8B1 
  24      1A
  25 0035 C89CAAD3 		.ascii	"\310\234\252\323\363\302TD\222\265zG\350Z\037QL&\322"
  25      F3C25444 
  25      92B57A47 
  25      E85A1F51 
  25      4C26D2
  26 0048 57127B9F 		.ascii	"W\022{\237\201PP\362[\035\346\250\342\002a/\015\002"
  26      815050F2 
  26      5B1DE6A8 
  26      E202612F 
  26      0D02
  27              		.text
  28              		.section	.gnu.lto_.pureconst.8d2a736a684303f0,"",%progbits
  29 0000 789C6362 		.ascii	"x\234cb`b\340d\200\000\026\006)F)&)f)\000\002\326\000"
  29      6062E064 
  29      80001606 
  29      29462926 
  29      29662900 
ARM GAS  /tmp/ccyj3McZ.s 			page 2


  30 0017 80       		.ascii	"\200"
  31              		.text
  32              		.section	.gnu.lto_nvicEnableVector.8d2a736a684303f0,"",%progbits
  33 0000 789C9D91 		.ascii	"x\234\235\221\277K\303@\024\307\337\2734\346GQW\235"
  33      BF4BC340 
  33      14C7DFBB 
  33      34E64751 
  33      579D
  34 0012 2CBA08D2 		.ascii	",\272\010\322\244\340\340\340$\235\034\212P+\350\330"
  34      A4E0E0E0 
  34      249D1C8A 
  34      502BE8D8 
  35 0022 664803B6 		.ascii	"fH\003\266\021+\342f\332t\323\241\203\213\325\301\""
  35      112BE266 
  35      DA74D3A1 
  35      838BD5C1 
  35      22
  36 0033 22883FFE 		.ascii	"\"\210?\376\000AJ7\207*nNR\\\005\021'A!\276Kl\244\""
  36      00414A37 
  36      872A6E4E 
  36      525C0511 
  36      274121BE 
  37 004b 0E1EDCDD 		.ascii	"\016\036\334\335\273{\337\367\276\237\343\0300\3709"
  37      BB7BDFF7 
  37      BE9FE318 
  37      30F839
  38 005a 8669A6E9 		.ascii	"\206i\246\351z\222v\024\000Y\355\006\240,3D\036\000"
  38      7A927614 
  38      0059ED06 
  38      A02C3344 
  38      1E00
  39 006c C226C3CD 		.ascii	"\302&\303\315%\344R\034\205\206\343\324:G\217olw\247"
  39      25E4521C 
  39      8586E3D4 
  39      3A478F6F 
  39      6C77A7
  40 007f 593D703E 		.ascii	"Y=p><\017\321Bj\233@0\020\026\351\2001\177c\221^\237"
  40      3C0FD142 
  40      6A9B4030 
  40      1016E980 
  40      317F6391 
  41 0095 0BD6EC78 		.ascii	"\013\326\354x\336\376m\375a\010\373\021\013\274\310"
  41      DEFE6DFD 
  41      6108FB11 
  41      0BBCC8
  42 00a4 4241E08B 		.ascii	"BA\340\213HG\224(\212\310\220\305\006\371(t\000\225"
  42      48479428 
  42      8AC890C5 
  42      06F92874 
  42      0095
  43 00b6 16914A45 		.ascii	"\026\221JE\250\222m\014\270\003\215\014\255\234m\001"
  43      A8926D0C 
  43      B8038D0C 
  43      AD9C6D01 
  44 00c6 19DF8536 		.ascii	"\031\337\2056T\236\\\357\035\263xHr\023\231\211\244"
  44      549E5CEF 
  44      1DB37848 
ARM GAS  /tmp/ccyj3McZ.s 			page 3


  44      72139989 
  44      A4
  45 00d7 68837B26 		.ascii	"h\203{&t\257\004\272\345P}\034\252\015\255\331 \021"
  45      74AF04BA 
  45      E5507D1C 
  45      AA0DADD9 
  45      2011
  46 00e9 8753A75A 		.ascii	"\207S\247Zv\246(1\001'<\034\264P\332\203:Ie\256W\234"
  46      76A62831 
  46      01273C1C 
  46      B450DA83 
  46      3A4965AE 
  47 00ff 96EB0CF8 		.ascii	"\226\353\014\370\357Q\374W\3440x\215\351\203\005\221"
  47      EF51FC57 
  47      E430788D 
  47      E9830591 
  48 010f E09B9DBB 		.ascii	"\340\233\235\273\307\333\343]?\211\362\274\010D\337"
  48      C7DBE35D 
  48      3F89F2BC 
  48      0844DF
  49 011e AFF2EC5E 		.ascii	"\257\362\354^\205x\262_K\025\227!\236b\006v0\002\001"
  49      8578B25F 
  49      4B159721 
  49      9E620676 
  49      300201
  50 0131 B8FB1ACA 		.ascii	"\270\373\032\312U\236\020\221\253|\364\353\227h\017"
  50      559E1091 
  50      AB7CF4EB 
  50      97680F
  51 0140 FCB485EA 		.ascii	"\374\264\205\3527|\364ox\374B\226Bx5hzO_\372\377\266"
  51      377CF46F 
  51      78FC4296 
  51      42783568 
  51      7A4F5FFA 
  52 0156 ECB7B677 		.ascii	"\354\267\266wP\356l\215\005M\273#C\004\364e\\\037\327"
  52      50EE6C8D 
  52      054DBB23 
  52      4304F465 
  52      5C1FD7
  53 0169 343D99B7 		.ascii	"4=\231\267r\326\334\274n\227\364|vY_\261W\327J\272a"
  53      72D6DCBC 
  53      6E97F47C 
  53      76595FB1 
  53      57D74ABA 
  54 017e 170A7651 		.ascii	"\027\012vQ\237I\247\222\251\015\275\270n\031\232\001"
  54      9F49A792 
  54      A90DBDB8 
  54      6E199A01 
  55 018e 42514B7C 		.ascii	"BQK|\002\020\\\224\200"
  55      02105C94 
  55      80
  56              		.text
  57              		.section	.gnu.lto_nvicDisableVector.8d2a736a684303f0,"",%progbits
  58 0000 789C7D50 		.ascii	"x\234}P=K\003A\020\235\267w\247\211\202bie\320F\220"
  58      3D4B0341 
  58      109DB777 
  58      A7898262 
ARM GAS  /tmp/ccyj3McZ.s 			page 4


  58      6965D046 
  59 0015 DC291616 		.ascii	"\334)\026\026V\222:\010\032A\313\344\212\344\300\344"
  59      56923A08 
  59      1A41CBE4 
  59      8AE4C0E4 
  60 0025 C488D8E5 		.ascii	"\304\210\330\345\342\305\316\"\205\205\037\215\301."
  60      E2C5CE22 
  60      85851F8D 
  60      C12E
  61 0033 C40FB011 		.ascii	"\304\017\260\021\004\011\001\013\213\010\376\203`#X"
  61      0409010B 
  61      8B08FE83 
  61      602358
  62 0042 88689342 		.ascii	"\210h\223B8g/9%\026\016\354\316\354\2747ofV\220\240"
  62      38672F39 
  62      25160EEC 
  62      CEECBC37 
  62      6F665690 
  63 0057 BF36CAE7 		.ascii	"\2776\312\347\036D\263\354\241\020D\371\221\250\030"
  63      1E44B3EC 
  63      A11044F9 
  63      91A818
  64 0066 12800C08 		.ascii	"\022\200\014\010T\020(\254AR1N\025\307)\267\366^\332"
  64      541028AC 
  64      4152314E 
  64      15C729B7 
  64      F65EDA
  65 0079 E2E8A05E 		.ascii	"\342\350\240^:u\276<\017\260\300\262\323 \023\264\312"
  65      3A75BE3C 
  65      0FB0C0B2 
  65      D32013B4 
  65      CA
  66 008a 0F447C27 		.ascii	"\017D|'\324\336>\227\242\336\362\274\332\365\325s\025"
  66      D4DE3E97 
  66      A2DEF2BC 
  66      DAF5D573 
  66      15
  67 009b 2361202B 		.ascii	"#a +\253,(\012%Qae\225\037\244\361%\3534*q\243\010I"
  67      AB2C280A 
  67      25516165 
  67      951FA4F1 
  67      25EB342A 
  68 00b3 4DB604DF 		.ascii	"M\266\004\337r\232\025\010\351\225&\271\027\356\347"
  68      729A1508 
  68      E99526B9 
  68      17EEE7
  69 00c2 FE641267 		.ascii	"\376d\022g\320(\015\221\006dO\256#j\322\356\233{\207"
  69      D0280D91 
  69      06644FAE 
  69      236AD2EE 
  69      9B7B87
  70 00d5 00531893 		.ascii	"\000S\030\223I\367V\011R*g}\372\230Ow\317\335\217\037"
  70      49F75609 
  70      522A677D 
  70      FA984F77 
  70      CFDD8F1F 
  71 00e9 BA260115 		.ascii	"\272&\001\025\222%\261\306\303\373`\007\212R\315)\025"
ARM GAS  /tmp/ccyj3McZ.s 			page 5


  71      9225B1C6 
  71      C3FB6007 
  71      8A52CD29 
  71      15
  72 00fa 9D790BDA 		.ascii	"\235y\013\332\024Ue8l\241\357\204\216\231\337/\213B"
  72      14556538 
  72      6CA1EF84 
  72      8E99DF2F 
  72      8B42
  73 010c 4EC37586 		.ascii	"N\303u\206\374\335C\376\306)t6\347\371(\2104_\364\346"
  73      FCDD43FE 
  73      C6297436 
  73      E7F92888 
  73      345FF4E6 
  74 0120 F0B58D1E 		.ascii	"\360\265\215\036\3319\013\341_\331\201\377e\321\025"
  74      D9390BE1 
  74      5FD981FF 
  74      65D115
  75 012f EBEAFB58 		.ascii	"\353\352\373XX\006OTlU':\302\201%\230\306\177&G\210"
  75      58064F54 
  75      6C55273A 
  75      C2812598 
  75      C67F2647 
  76 0144 EABA11CB 		.ascii	"\352\272\021\313X)kq\331\260\363F&\271nl\330\233[y\303"
  76      58296B71 
  76      D9B0F346 
  76      26B96E6C 
  76      D89B5B79 
  77 0159 B4B3593B 		.ascii	"\264\263Y;g,,\305c\361\035#\267m\231\272IJN\237\371"
  77      672C2CC5 
  77      63F11D23 
  77      B76D99BA 
  77      494A4E9F 
  78 016e 06CE8A78 		.ascii	"\006\316\212xt"
  78      74
  79              		.text
  80              		.section	.gnu.lto_nvicSetSystemHandlerPriority.8d2a736a684303f0,"",%progbits
  81 0000 789C5D50 		.ascii	"x\234]P-O\003A\020}o\267\0270\340q$\225\344n%\232T!"
  81      2D4F0341 
  81      107D6FB7 
  81      1730E071 
  81      2495E46E 
  82 0018 1A122809 		.ascii	"\032\022(\011\310\366D\273\011\327#\224\020\\\367\270"
  82      C8F644BB 
  82      09D72394 
  82      105CF7B8 
  83 0028 0649AA41 		.ascii	"\006I\252Aa\011\037\202?@\021\270^\202E\325c\020\370"
  83      61091F82 
  83      3F4011B8 
  83      5E8245D5 
  83      6310F8
  84 003b 327B9733 		.ascii	"2{\2273L2\263og\336\274}Y\005\205\377\261!\371#i$\251"
  84      4C32B36F 
  84      67DEBC7D 
  84      590585FF 
  84      B121F923 
  85 0052 41352D80 		.ascii	"A5-\200lU\221\036\200\030+\216\217Yr_\324\333b\271|"
ARM GAS  /tmp/ccyj3McZ.s 			page 6


  85      6C55911E 
  85      80182B8E 
  85      8F59725F 
  85      D4DB62B9 
  86 0067 FEBDFE98 		.ascii	"\376\275\376\230\261h\256\220\011E\321\022\332\227@"
  86      B168AE90 
  86      0945D112 
  86      DA9740
  87 0076 AE9E1760 		.ascii	"\256\236\027`\342\334t3\241<\026\227\213\035\251^\355"
  87      E2DC7433 
  87      A13C1697 
  87      8B1DA95E 
  87      ED
  88 0087 505A72EA 		.ascii	"PZr\3529\256\276\363\327\233\260\313{\006\350S\365\375"
  88      39AEBEF3 
  88      D79BB0CB 
  88      7B06E853 
  88      F5FD
  89 0099 E21CF993 		.ascii	"\342\034\371\223\256[Z\272G\264d\003~\362\276[\015B"
  89      AE5B5ABA 
  89      47B46403 
  89      7EF2BE5B 
  89      0D42
  90 00ab 3CBA49E6 		.ascii	"<\272I\346\266e\260\205\007\017\327,\325\035n\205\252"
  90      B665B085 
  90      070FD72C 
  90      D51D6E85 
  90      AA
  91 00bc 3DBFE1BE 		.ascii	"=\277\341\276r\267\216\022\226\236{\225u\221\014P#\015"
  91      72B78E12 
  91      969E7B95 
  91      75910C50 
  91      230D
  92 00ce 7C225B14 		.ascii	"|\"[\024\315J\264\216\216\270\020{\376\217\302(2\255"
  92      CD4AB48E 
  92      8EB8107B 
  92      FE8FC228 
  92      32AD
  93 00e0 81EDD9BD 		.ascii	"\201\355\331\275\003\223\216\314\240{bN\323\263\363"
  93      03938ECC 
  93      A07B624E 
  93      D3B3F3
  94 00ef 9189D324 		.ascii	"\221\211\323$I\207fg\277\335j_\232\341\205\215\243\030"
  94      49876667 
  94      BFDD6A5F 
  94      9AE1858D 
  94      A318
  95 0101 7F83C847 		.ascii	"\177\203\310G\205"
  95      85
  96              		.text
  97              		.section	.gnu.lto_nvicClearPending.8d2a736a684303f0,"",%progbits
  98 0000 789C5D50 		.ascii	"x\234]P1H\303P\020\275\367\177\222\352\2428:Yt\021\244"
  98      3148C350 
  98      10BDF77F 
  98      92EAA238 
  98      3A597411 
  99 0015 89E8E824 		.ascii	"\211\350\350$\235\034\212\240\025tL3\264\001\333\210"
ARM GAS  /tmp/ccyj3McZ.s 			page 7


  99      9D1C8AA0 
  99      15744C33 
  99      B401DB88 
 100 0025 1571EBAF 		.ascii	"\025q\353\257\351,\035\\\324\305\342&Uw\273\224\356"
 100      E92C1D5C 
 100      D4C5E226 
 100      5577BB94 
 100      EE
 101 0036 15DD1D8A 		.ascii	"\025\335\035\212 \024\007W\027!\336OMA\017\376\277\373"
 101      20140757 
 101      1721DE4F 
 101      4D410FFE 
 101      BFFB
 102 0048 EFDEBDBB 		.ascii	"\357\336\275\273\177\202\004\375\267Y>\012D\253\354"
 102      7F8204FD 
 102      B7593E0A 
 102      44ABEC
 103 0057 2109A2F9 		.ascii	"!\011\242\371DT\237\020\200\016\010T\023\250\355AS1"
 103      44549F10 
 103      800E0854 
 103      13A8ED41 
 103      5331
 104 0069 4F2DA59A 		.ascii	"O-\245\232\203\367\257gyq\336m\\\253\357(\002|\260\354"
 104      83F7AF67 
 104      7971DE6D 
 104      5CABEF28 
 104      027CB0EC 
 105 007d 32C803ED 		.ascii	"2\310\003\355\362\003\351\330\011\343o\237\007\321\035"
 105      F203E9D8 
 105      09E36F9F 
 105      07D11D
 106 008c 44D16BA7 		.ascii	"D\321k\247\3756\304\314$P\326U>\244$\027-V6\370A\246"
 106      FD36C4CC 
 106      2450D655 
 106      3EA42417 
 106      2D5636F8 
 107 00a2 BE2C0D73 		.ascii	"\276,\015s\205I\015\356\226&-\314\226\347[\217\264\003"
 107      85490DEE 
 107      96262DCC 
 107      96E75B8F 
 107      B403
 108 00b4 A1BDEC53 		.ascii	"\241\275\354Sx\037Fg\213.n`R\021\242\010\350\306\\G"
 108      781F4667 
 108      8B2E6E60 
 108      5211A208 
 108      E8C65C47 
 109 00c8 D4A7D3CF 		.ascii	"\324\247\323\317\360\003INrN\203aG&\220\301hL\237\213"
 109      F003494E 
 109      724E8361 
 109      472690C1 
 109      684C9F8B 
 110 00dc E9E1DD38 		.ascii	"\351\341\3358c\30604\347W\350q,dqZ\203\275\215\021\222"
 110      63C63034 
 110      E757E871 
 110      2C64715A 
 110      83BD8D11 
 111 00f1 A1B66AD4 		.ascii	"\241\266j\324\325\232\017c\211nu8\355\303\274\242K\226"
ARM GAS  /tmp/ccyj3McZ.s 			page 8


 111      D59A0F63 
 111      896E7538 
 111      EDC3BCA2 
 111      4B96
 112 0103 B0B44E4A 		.ascii	"\260\264NJ\365B5\025o$\025\357\241\200\321>x`J\"\213"
 112      F5423515 
 112      6F2415EF 
 112      A180D13E 
 112      78604A22 
 113 0118 E885EA83 		.ascii	"\350\205\352\203\341\302H4\261<\017\315?\325\274\214"
 113      E1C24834 
 113      B13C0FCD 
 113      3FD5BC8C 
 114 0128 6D3BD992 		.ascii	"m;\331\222_\3607\267\235\240\352\224\334}\347 8<\252"
 114      5FF037B7 
 114      9DA0EA94 
 114      DC7DE720 
 114      383CAA
 115 013b 3A5E502E 		.ascii	":^P.\007\025g}+\227\315\2358\225c\337\263=\222\025{"
 115      0715677D 
 115      2B97CD9D 
 115      389563DF 
 115      B33D9215 
 116 0150 E5077161 		.ascii	"\345\007qahb"
 116      6862
 117              		.text
 118              		.section	.gnu.lto_.symbol_nodes.8d2a736a684303f0,"",%progbits
 119 0000 789C6362 		.ascii	"x\234cb`b\260c\200\002\246>\246z\006\206\011\347\030"
 119      6062B063 
 119      8002A63E 
 119      A67A0686 
 119      09E718
 120 0013 18EAEBE7 		.ascii	"\030\352\353\347u02\3653\3253\"q'0\3253!q'2\3253#\270"
 120      753032F5 
 120      33D53322 
 120      712730D5 
 120      33217127 
 121 002c 0C00453A 		.ascii	"\014\000E:\022\237"
 121      129F
 122              		.text
 123              		.section	.gnu.lto_.refs.8d2a736a684303f0,"",%progbits
 124 0000 789C6362 		.ascii	"x\234cb`b`d\200\002\000\000F\000\006"
 124      60626064 
 124      80020000 
 124      460006
 125              		.text
 126              		.section	.gnu.lto_.decls.8d2a736a684303f0,"",%progbits
 127 0000 789CBD59 		.ascii	"x\234\275Yml\024\307\031\236\331\273\303\276\340:\020"
 127      6D6C14C7 
 127      199ED9BB 
 127      C3BEE03A 
 127      10
 128 0011 A529A9A8 		.ascii	"\245)\251\250p\242\246\252\242\332\013\016\221\351\237"
 128      70A2A6AA 
 128      A2DA0B0E 
 128      91E99F
 129 0020 087336F1 		.ascii	"\010s6\361\375pb\335\001\352\257,\303y\211O\262\357"
ARM GAS  /tmp/ccyj3McZ.s 			page 9


 129      FD7062DD 
 129      01EAAF2C 
 129      C379894F 
 129      B2EF
 130 0032 E8F968C3 		.ascii	"\350\371h\303\277u\034\032\032\210bB\254\320\322\232"
 130      BF751C1A 
 130      1A886242 
 130      ACD0D29A 
 131 0042 831CA528 		.ascii	"\203\034\245(\224\270\346C6\245\356\211\2424$\221bH"
 131      94B8E643 
 131      36A5EE89 
 131      A2342491 
 131      6248
 132 0054 480849E0 		.ascii	"H\010I\340*T5\264J\240\371\240\241\"\271\2763\3739{"
 132      2A5435B4 
 132      4AA0F9A0 
 132      A122B9BE 
 132      33FB397B 
 133 0068 3BE7DDA8 		.ascii	";\347\335\250\352J\363\336\354\356;\317<\317;\357\316"
 133      EA4AF3DE 
 133      ECEE3BCF 
 133      3CCF3BEF 
 133      CE
 134 0079 BE5E4B48 		.ascii	"\276^KHB\3330B\02582\337F\350m\011\241\010B\350\001"
 134      42DB3042 
 134      153832DF 
 134      46E86D09 
 134      A10842E8 
 135 008e 641F6168 		.ascii	"d\037ah{\240M@\233\2046\215\252\017z\277\301\360m4\372"
 135      7BA04D40 
 135      9B84368D 
 135      AA0F7ABF 
 135      C1F06D34 
 136 00a3 008BEA90 		.ascii	"\000\213\352\220\216w\022\332ih\257C\373\034\332\233"
 136      8E7712DA 
 136      6968AF43 
 136      FB1CDA9B 
 137 00b3 D0CE420B 		.ascii	"\320\316B\013A\373\010\332ehg\2141\024\013h\240\227"
 137      41FB08DA 
 137      6568678C 
 137      31140B68 
 137      A097
 138 00c5 A0FDCE35 		.ascii	"\240\375\3165\017\3450\3275\2179\207\211i\316a\316I"
 138      0FE530D7 
 138      358F3987 
 138      8969CE61 
 138      CE49
 139 00d7 B1DE33E6 		.ascii	"\261\3363\346\301\006\006\375=\346\302\2364p\2601\366"
 139      C10606FD 
 139      3DE6C29E 
 139      3470B031 
 139      F6
 140 00e8 3AB41BD0 		.ascii	":\264\033\320\226`\375\332\\\343w\322\340}\002\332q"
 140      9660FDDA 
 140      5CE377D2 
 140      E07D02DA 
 140      71
ARM GAS  /tmp/ccyj3McZ.s 			page 10


 141 00f9 68AD98C7 		.ascii	"h\255\230\307\241\361\251\367\340\350\346\207\015\335"
 141      A1F1A9F7 
 141      E0E8E687 
 141      0DDD
 142 0107 D818437F 		.ascii	"\330\030C\177K.N\213\320\230V(\227\367\215\275\206\265"
 142      4B2E4E8B 
 142      D0985628 
 142      97F78DBD 
 142      86B5
 143 0119 67B59B95 		.ascii	"g\265\233\225J\010\335\201F58\012?\3234\234'\370\201"
 143      4A08DD81 
 143      4635380A 
 143      3FD3349C 
 143      27F881
 144 012c 6FA21F61 		.ascii	"o\242\037a\202\033\243\250\211u\032\242lb\204\010\336"
 144      821BA3A8 
 144      89751AA2 
 144      6C628408 
 144      DE
 145 013d 8BEF60BD 		.ascii	"\213\357`\275\020\013\001\212\242-\232\3668\035\330"
 145      100B018A 
 145      A22D9AF6 
 145      381DD8
 146 014c F50AF0F2 		.ascii	"\365\012\360\362\032u\017*j\332H\371\314\201m?\320\264"
 146      1A750F2A 
 146      6ADA48F9 
 146      CC816D3F 
 146      D0B4
 147 015e 7A828B38 		.ascii	"z\202\2138\012c\213\030\243{\321\001\230tD\323\366\266"
 147      0A638B18 
 147      A37BD101 
 147      987444D3 
 147      F6B6
 148 0170 49A8FAF0 		.ascii	"I\250\372\360\217\375\356\326\023?d\330\277e\330S\022"
 148      8FFDEED6 
 148      133F64D8 
 148      BF65D853 
 148      12
 149 0181 06A6FBF1 		.ascii	"\006\246\373\361\275\006\020\301uQ'0;7\035(\032\273"
 149      BD0610C1 
 149      75512730 
 149      3B371D28 
 149      1ABB
 150 0193 6D7468D6 		.ascii	"mth\326\336\212\202\272\033\341\320\325\261\316\352"
 150      DE8A82BA 
 150      1BE1D0D5 
 150      B1CEEA
 151 01a2 900520A1 		.ascii	"\220\005 \241S.F\337E/h\332\263\260\004\305;\265\202"
 151      532E46DF 
 151      452F68DA 
 151      B3B004C5 
 151      3BB582
 152 01b5 64C6E41C 		.ascii	"d\306\344\034\363\332\203\027yj5\260\365\241\332\224"
 152      F3DA8317 
 152      796A35B0 
 152      F5A1DA94 
 153 01c5 DA650E7B 		.ascii	"\332e\016{\307\3170\204\276\207\366\3215~Z\333<\017"
ARM GAS  /tmp/ccyj3McZ.s 			page 11


 153      C7CF3084 
 153      BE87F6D1 
 153      357E5ADB 
 153      3C0F
 154 01d7 B32546C6 		.ascii	"\263%F\306(N\352A\314-\205\236+\245#/7\214\014\225+"
 154      284EEA41 
 154      CC2D859E 
 154      2BA5232F 
 154      378C0C95 
 155 01ec 9545FE13 		.ascii	"\225E\376\023\3450\237(:\015WX\336\367\014\213\266\303"
 155      E5309F28 
 155      3A0D5758 
 155      DEF70C8B 
 155      B6C3
 156 01fe D446F021 		.ascii	"\324F\360!\240C\360\304\327\3226\341\326v\324S\333g"
 156      A043F0C4 
 156      D7D236E1 
 156      D676D453 
 156      DB67
 157 0210 A6363DB9 		.ascii	"\2466=\271%\364\2617+G\304\267\206\250\307\244\257\205"
 157      25F4B137 
 157      2B47C4B7 
 157      86A8C7A4 
 157      AF85
 158 0222 FAD21633 		.ascii	"\372\322\0263\316\304\3142L f\322-f\312S\314\361\277"
 158      CEC4CC32 
 158      4C2066D2 
 158      2D66CA53 
 158      CCF1BF
 159 0235 58620E33 		.ascii	"Xb\01631;B\236b\266\273C<\375\265XM\273Y\375\211g\305"
 159      313B429E 
 159      62B6BB43 
 159      3CFDB558 
 159      4DBB59FD 
 160 024c 1EE161AD 		.ascii	"\036\341a\255\274O[\260\323~\204\353\315\011\350\356"
 160      BC4F5BB0 
 160      D37E84EB 
 160      CD09E8EE 
 161 025c 646E0F57 		.ascii	"dn\017W.H\360\010\033\317|\255\001\004\377\031\337\003"
 161      2E48F008 
 161      1BCF7CAD 
 161      0104FF19 
 161      DF03
 162 026e 16F30F25 		.ascii	"\026\363\017%\216\332\235\012\246\331UtI\367\201m\355"
 162      8EDA9D0A 
 162      A6D95574 
 162      49F7816D 
 162      ED
 163 027f 2763CBD8 		.ascii	"'c\313\330~\3622[\356\203!\367~\202]\373\311,\\\202"
 163      7EF2325B 
 163      EE8321F7 
 163      7E825DFB 
 163      C92C5C82 
 164 0293 F8CE4723 		.ascii	"\370\316G#4\316M;\033\011>\011\327\014\232\332\255&"
 164      34CE4D3B 
 164      1B093E09 
 164      D70C9ADA 
ARM GAS  /tmp/ccyj3McZ.s 			page 12


 164      AD26
 165 02a5 CF6B3AA0 		.ascii	"\317k:\240\323\357T\015?\202_\305\363m\375\232\261\237"
 165      D3EF540D 
 165      3F825FC5 
 165      F36DFD9A 
 165      B19F
 166 02b7 3217D1B3 		.ascii	"2\027\321\263\373\232\241\317\270lu\256bN\211\351\206"
 166      FB9AA1CF 
 166      B86C75AE 
 166      624E89E9 
 166      86
 167 02c8 6E43DB19 		.ascii	"nC\333\031\027\3076](cs\324\023\013\355\310~\260\353"
 167      17C7365D 
 167      286373D4 
 167      130BEDC8 
 167      7EB0EB
 168 02db DC832CB2 		.ascii	"\334\203,\262\257\343\333 \262W\\\221\365\001D'~\003"
 168      AFE3DB20 
 168      B2575C91 
 168      F5014427 
 168      7E03
 169 02ed 06EBC318 		.ascii	"\006\353\303\030\254Vz\376b\203\026\326\257#\016\220"
 169      AC567AFE 
 169      628316D6 
 169      AF230E90 
 170 02fd 3BEE4205 		.ascii	";\356B\005\355\211\241\322\256\261Q\254\025Nb3\202\257"
 170      ED89A1D2 
 170      AEB151AC 
 170      154E6233 
 170      82AF
 171 030f 341A695A 		.ascii	"4\032iZ\353MC\360>\226u\263\277\012\314\205\220\314"
 171      EB4D43F0 
 171      3E9675B3 
 171      BF0ACC85 
 171      90CC
 172 0321 E14DDC7A 		.ascii	"\341M\334z\321\320\027\035\353\345r#\370\255\300\313"
 172      D1D0171D 
 172      EBE57223 
 172      F8ADC0CB 
 173 0331 754EB05C 		.ascii	"uN\260\\u\334j\231^\020\366OY\330i\264<YX8&h\243\225"
 173      75DC6A99 
 173      5E10F64F 
 173      59D869B4 
 173      3C595838 
 174 0349 EE348410 		.ascii	"\3564\204\020\357_=2BD\202\346\230\343\327\032\023\237"
 174      EF5F3D32 
 174      424482E6 
 174      98E3D71A 
 174      139F
 175 035b 0F2CE85D 		.ascii	"\017,\350]\201\240o!S\301\027U\012\270i\271\220V+\200"
 175      81A06F21 
 175      53C11755 
 175      0AB869B9 
 175      90562B80 
 176 036f 24180305 		.ascii	"$\030\003\005\004\237\005j\022z<\354'\034\032\026\307"
 176      049F056A 
 176      127A3CEC 
ARM GAS  /tmp/ccyj3McZ.s 			page 13


 176      271C1A16 
 176      C7
 177 0380 639CA19D 		.ascii	"c\234\241\235ghOV\241yQ+\210\320\200\333\204\203\333"
 177      67684F56 
 177      A179512B 
 177      88D080DB 
 177      8483DB
 178 0393 883F6E92 		.ascii	"\210?n\222\230\333\021\007\267Q\177\334Dh\300\355\230"
 178      98DB1107 
 178      B7517FDC 
 178      4468C0ED 
 178      98
 179 03a4 83DB6E7F 		.ascii	"\203\333n\177\334Bbn\223\016nE\177\334Dh\300\355\270"
 179      DC42626E 
 179      930E6E45 
 179      7FDC4468 
 179      C0EDB8
 180 03b7 83DB217F 		.ascii	"\203\333!\177\334\302bn'j\344x\243\011P67\331\177\004"
 180      DCC2626E 
 180      276AE478 
 180      A3095036 
 180      37D97F04 
 181 03cb 4EF27F0A 		.ascii	"N\362\177\012\222\274\315J\362\303U\032\370y\315\220"
 181      92BCCD4A 
 181      F2C3551A 
 181      F879CD90 
 182 03db 88444048 		.ascii	"\210D@H\246\037\031_K\360i\026\222?V\301\361\357\012"
 182      A61F195F 
 182      4BF06916 
 182      923F56C1 
 182      F1EF0A
 183 03ee 332673C4 		.ascii	"3&s\3041\231\251\021\223=\326>=r\273!\361Z\340\240\374"
 183      3199A911 
 183      933DD63E 
 183      3D72BB21 
 183      F15AE0A0 
 184 0403 4B1094E1 		.ascii	"K\020\224\341\210\025\225R\225\014\327\314\246\246:"
 184      88159552 
 184      950CD7CC 
 184      A6A63A
 185 0412 5158864B 		.ascii	"QX\206Kg/6\320Ty\223\275\336_u\003r\254\314\250,\364"
 185      672F36D0 
 185      547993BD 
 185      DE5F7503 
 185      72ACCCA8 
 186 0428 40F33A9C 		.ascii	"@\363:\234o'\202g\330K\343\014\276\013\354;\314\276"
 186      6F278267 
 186      D84BE30C 
 186      BE0BEC3B 
 186      CCBE
 187 043a C7EC07CC 		.ascii	"\307\354\007\314^b\366\257\314^f\366o\314\376\235\331"
 187      5E62F6AF 
 187      CC5E66F6 
 187      6FCCFE9D 
 187      D9
 188 044b 2BCC7EC4 		.ascii	"+\314~\304\354Uf?\005k\035s\321S\366\237G\372\013U\024"
 188      EC55663F 
ARM GAS  /tmp/ccyj3McZ.s 			page 14


 188      056B1D73 
 188      D153F69F 
 188      47FA0B55 
 189 0460 D5CFF15C 		.ascii	"\325\317\361\\s\224\240\274Xk\016i\250\362:%\364\"\370"
 189      7394A0BC 
 189      586B0E69 
 189      A8F23A25 
 189      F422F8
 190 0473 DF8117F8 		.ascii	"\337\201\027\370\013\301\002[\0049/\257\202\240lUl\333"
 190      0BC1025B 
 190      04392FAF 
 190      82A06C55 
 190      6CDB
 191 0485 EC92AD74 		.ascii	"\354\222\255t\343\022n\"\370\006\253*\336\010\317ZU"
 191      E3126E22 
 191      F806AB2A 
 191      DE08CF5A 
 191      55
 192 0496 B840E89C 		.ascii	"\270@\350\2347\335E\305\256K\254\250\2709{Q\361\334"
 192      37DD45C5 
 192      AE4BACA8 
 192      B8397B51 
 192      F1DC
 193 04a8 7069F7EE 		.ascii	"pi\367\356\321;iQa\225\022\245\377A)!\241\363L\312\315"
 193      D13B6951 
 193      619512A5 
 193      FF412921 
 193      A1F34CCA 
 194 04bd DAB989C4 		.ascii	"\332\271\211\304\211>~\311\221\350\027\003\2035q`\023"
 194      893E7EC9 
 194      91E81703 
 194      83357160 
 194      13
 195 04ce 4EB0CB7E 		.ascii	"N\260\313~\300\352\305\314\2168\301>\014\014\3063;\346"
 195      C0EAC5CC 
 195      8E38C13E 
 195      0C0CC633 
 195      3BE6
 196 04e0 04FBD80F 		.ascii	"\004\373\330\017\330<1\263I'\330'\201\301\234\314\340"
 196      D83C31B3 
 196      4927D827 
 196      81C19CCC 
 196      E0
 197 04f1 9DA4D00D 		.ascii	"\235\244\320\015\370:\333\200\257\273\261\270\347\311"
 197      F83ADB80 
 197      AFBBB1B8 
 197      E7C9
 198 04ff E82E1013 		.ascii	"\350.\020\023;\341$\366\037?\304\232\304!\233v\202i"
 198      3BE124F6 
 198      1F3FC49A 
 198      C4219B76 
 198      8269
 199 0511 111F60DF 		.ascii	"\021\037`\337\0273\233q\202m\016\014\3063;\353\004{"
 199      17339B71 
 199      826D0E0C 
 199      C6333BEB 
 199      047B
ARM GAS  /tmp/ccyj3McZ.s 			page 15


 200 0523 CA0FD862 		.ascii	"\312\017\330b1\263\267\234`\317\004\006\343\231\275"
 200      31B3B79C 
 200      60CF0406 
 200      E399BD
 201 0532 ED041BF5 		.ascii	"\355\004\033\365\003\266L\314\354\274\023\354\227\201"
 201      03B64CCC 
 201      ECBC13EC 
 201      9781
 202 0540 C11CCC9E 		.ascii	"\301\034\314\236\033*]P\254\027sa9\335\202+\366\256"
 202      1B2A5D50 
 202      AC177361 
 202      39DD822B 
 202      F6AE
 203 0552 BD9C7F80 		.ascii	"\275\234\177\2008\267\242\320\215\340_KA7\3671\311{"
 203      38B7A2D0 
 203      8DE05F4B 
 203      4137F731 
 203      C97B
 204 0564 73E7FF6C 		.ascii	"s\347\377l4\275h\005\351\226\315\2210\272\313\0051\204"
 204      34BD6805 
 204      E996CD91 
 204      30BACB05 
 204      3184
 205 0576 5DF77D3D 		.ascii	"]\367}=\206\025\026\303\027\374\304\260K\014v\321\011"
 205      861516C3 
 205      17FCC4B0 
 205      4B0C76D1 
 205      09
 206 0587 B63F3018 		.ascii	"\266?0\030\277 \327\024\276Rr\254\207f\225+\363\234"
 206      BF20D714 
 206      BE5272AC 
 206      8766952B 
 206      F39C
 207 0599 0B525550 		.ascii	"\013RUP\271\334\010\376M\340\005\331/X\020\373#\234"
 207      B9DC08FE 
 207      4DE005D9 
 207      2F5810FB 
 207      239C
 208 05ab D30B64BF 		.ascii	"\323\013d\277\350\226\315\2630\272=\242 \016\225>\021"
 208      E896CDB3 
 208      30BA3DA2 
 208      200E953E 
 208      11
 209 05bc EB2E5850 		.ascii	"\353.XP\267\327\322\355v#\370\305\300\272\017\012t\207"
 209      B7D7D2ED 
 209      7623F8C5 
 209      C0BA0F0A 
 209      7487
 210 05ce 39DD076D 		.ascii	"9\335\007m\335\343n\335<\013\243\273V\240\033\212\205"
 210      DDE36EDD 
 210      3C0BA3BB 
 210      56A01B8A 
 210      85
 211 05df CF149A3B 		.ascii	"\317\024\232;\224)\301\027\330\027\265\331\3006\010"
 211      9429C117 
 211      D817B5D9 
 211      C03608
ARM GAS  /tmp/ccyj3McZ.s 			page 16


 212 05ee 9207B686 		.ascii	"\222\007\266\206\353\316\255\341\250\237L\334\342\365"
 212      EBCEADE1 
 212      A89F4CDC 
 212      E2F5
 213 05fc E7A4D7E1 		.ascii	"\347\244\327\341\254s\010\376\222\025\"_\261\342rH\242"
 213      AC7308FE 
 213      9215225F 
 213      B1E27248 
 213      A2
 214 060d 7698D9CD 		.ascii	"v\230\331\315\314>\311\354\317\231\335\312\354\323\314"
 214      CC3EC9EC 
 214      CF99DDCA 
 214      ECD3CC
 215 061c 3EC3EC76 		.ascii	">\303\354vfw0;\312\354\363\314\376\202\331]\314\026"
 215      6677303B 
 215      CAECF3CC 
 215      FE82D95D 
 215      CC16
 216 062e 98DDCB6C 		.ascii	"\230\335\313l\221\331\003\314\036b\366%I\\\316\336\250"
 216      91D903CC 
 216      1E62F625 
 216      495CCEDE 
 216      A8
 217 063f 51CEFE5E 		.ascii	"Q\316\376^\262\252\305\273\321\036mf\246\274\371\352"
 217      B2AAC5BB 
 217      D11E6D66 
 217      A6BCF9EA 
 218 064f 4EBCA5AC 		.ascii	"N\274\245\254\215h_U*\330.^\255/~\245\332_\374\350\377"
 218      8D685F55 
 218      2AD82E5E 
 218      AD2F7EA5 
 218      DA5FFCE8 
 219 0664 2024C7E7 		.ascii	" $\307\347\301\005\336\276\004\037\225h\274\2169\262"
 219      C105DEBE 
 219      041F9568 
 219      BC8E39B2 
 220 0674 4BEF9B3D 		.ascii	"K\357\233=\375\303\343\037\"\256\377\336\330\301\257"
 220      FDC3E31F 
 220      22AEFFDE 
 220      D8C1AF
 221 0683 3DD498F4 		.ascii	"=\324\230\364C+]\276\303=(\264\032\247\256\0027\202"
 221      432B5DBE 
 221      C33D28B4 
 221      1AA7AE02 
 221      3782
 222 0695 27033F28 		.ascii	"'\003?(S\202\007e!\307z\312~PJ\021\327\247o7\013\011"
 222      53820765 
 222      21C77ACA 
 222      7E504A11 
 222      D7A76F37 
 223 06ab 9D8E9825 		.ascii	"\235\216\230%\365-\264\323\334\322\"\307\372\322\353"
 223      F52DB4D3 
 223      DCD222C7 
 223      FAD2EB
 224 06ba D20F27E5 		.ascii	"\322\017'\345\354\240\334G\372\345\015\331\\~PNe\007"
 224      ECA0DC47 
 224      FAE50DD9 
ARM GAS  /tmp/ccyj3McZ.s 			page 17


 224      5C7E504E 
 224      6507
 225 06cc 06B219B9 		.ascii	"\006\262\031\271=\321\035\353~L\316\374$\235jI\241A"
 225      3DD11DEB 
 225      7E4CCEFC 
 225      249D6A49 
 225      A141
 226 06de 39B39EB5 		.ascii	"9\263\236\265\373\345\276\354\200*\347\324A\225\344"
 226      FBE5BEEC 
 226      802AE7D4 
 226      4195E4
 227 06ed 527D302E 		.ascii	"R}0.\327\373S\222Se\222\033h\225\037M\245\232\241\323"
 227      D7FB5392 
 227      5365921B 
 227      68951F4D 
 227      A59AA1D3 
 228 0701 AC0EAC53 		.ascii	"\254\016\254S{{\325^\353B&\233Q\233U\262.\335\274TY"
 228      7B7BD55E 
 228      EB42269B 
 228      519B55B2 
 228      2EDDBC54 
 229 0716 D6DCBA78 		.ascii	"\326\334\272x\311\322\037\267\312\334\0159\235I\365"
 229      C9D21FB7 
 229      CADC0D39 
 229      9D49F5
 230 0725 6FEC55E5 		.ascii	"o\354U\345\301|o:\223o\351C\365\033\341\367\276V%?\347"
 230      C17C6F3A 
 230      936FE943 
 230      F51BE1F7 
 230      BE56253F 
 231 073a C1875637 		.ascii	"\301\207V7\305\3200\376\377\221\030 \251\276tF\225\225"
 231      C5D030FE 
 231      FF911820 
 231      A9BE7446 
 231      9595
 232 074c 5E753DD9 		.ascii	"^u=\331\330\237W\362\2336\250\203@\352\026E1i\315\243"
 232      D89F57F2 
 232      9B36A883 
 232      40EA1645 
 232      3169CDA3 
 233 0760 B1E9CC90 		.ascii	"\261\351\314\220u\375\352\0325\225\317\346p&\274!\227"
 233      75FDEA1A 
 233      3595CFE6 
 233      7026BC21 
 233      97
 234 0771 CECEA7D7 		.ascii	"\316\316\247\327;\322\203\366\215\205\364JR\315'7\015"
 234      3BD283F6 
 234      8D85F44A 
 234      52CD2737 
 234      0D
 235 0782 E6D5812E 		.ascii	"\346\325\201.\222\351\355Ws=\340\232K\3477\325\365\351"
 235      92E9ED57 
 235      733DE09A 
 235      4BE737D5 
 235      F5E9
 236 0794 E70C2ED6 		.ascii	"\347\014.\326\017\212z\324\014\204\340\321::\3212%\037"
 236      0F8A7AD4 
ARM GAS  /tmp/ccyj3McZ.s 			page 18


 236      0C84E0D1 
 236      3A3AD132 
 236      251F
 237 07a6 D5A7845E 		.ascii	"\325\247\204^+\277f\306J\251\217\345\345Xw2\236\264"
 237      2BBF66C6 
 237      4AA98FE5 
 237      E5587732 
 237      9EB4
 238 07b8 D8A7B239 		.ascii	"\330\247\2629UI\015,\005\276\321\207\326\304c\312*`"
 238      55490D2C 
 238      05BED187 
 238      D6C463CA 
 238      2A60
 239 07ca 1F8E273B 		.ascii	"\037\216';\023\321"
 239      13D1
 240 07d0 4427D835 		.ascii	"D'\3305\235\035\213\303\361Xg\242>\241\237-\201\233"
 240      9D1D8BC3 
 240      F15867A2 
 240      3EA19F2D 
 240      819B
 241 07e2 3DF6CD56 		.ascii	"=\366\315V\270\3518\275/\034o_a\237.\225\342=\326\311"
 241      B8E938BD 
 241      2F1C6F5F 
 241      619F2E95 
 241      E23DD6C9 
 242 07f6 FDE1E4AA 		.ascii	"\375\341\344\252x\242>\031[\301&\211\304zV\307;`x2\021"
 242      78A23E19 
 242      5BC12689 
 242      C47A56C7 
 242      3B607832 
 243 080b 5EB3EAE1 		.ascii	"^\263\352\341D\244=\236\210%BIh1\372\333\325\023Iv\321"
 243      44A43D9E 
 243      88254249 
 243      6831FADB 
 243      D5134976 
 244 0820 9BB19560 		.ascii	"\233\261\225`\272\250\351\000\023\351\356^\331\236\010"
 244      BAA8E900 
 244      13E9EE5E 
 244      D99E08
 245 082f AFA0A61D 		.ascii	"\257\240\246\035\316C=+\023\241\016h\355\035\2110\334"
 245      CE433D2B 
 245      13A10E68 
 245      ED1D8930 
 245      DC
 246 0840 4B00BFF6 		.ascii	"K\000\277\366\004\200\267\307\022\341\024,w\275\242"
 246      0480B7C7 
 246      12E1142C 
 246      77BDA2
 247 084f ACDF9849 		.ascii	"\254\337\230I)\3127\314NK\333\342\266\266\377\002Gw"
 247      29CA37CC 
 247      4E4BDBE2 
 247      B6B6FF02 
 247      4777
 248 0861 9D1E     		.ascii	"\235\036"
 249              		.text
 250              		.section	.gnu.lto_.symtab.8d2a736a684303f0,"",%progbits
 251 0000 6E766963 		.ascii	"nvicEnableVector\000\000\000\000\000\000\000\000\000"
ARM GAS  /tmp/ccyj3McZ.s 			page 19


 251      456E6162 
 251      6C655665 
 251      63746F72 
 251      00000000 
 252 0019 000000A1 		.ascii	"\000\000\000\241\000\000\000nvicDisableVector\000\000"
 252      0000006E 
 252      76696344 
 252      69736162 
 252      6C655665 
 253 0033 00000000 		.ascii	"\000\000\000\000\000\000\000\000\000\000\262\000\000"
 253      00000000 
 253      0000B200 
 253      00
 254 0040 006E7669 		.ascii	"\000nvicSetSystemHandlerPriority\000\000\000\000\000"
 254      63536574 
 254      53797374 
 254      656D4861 
 254      6E646C65 
 255 0062 00000000 		.ascii	"\000\000\000\000\000\000\000\270\000\000\000nvicCle"
 255      000000B8 
 255      0000006E 
 255      76696343 
 255      6C65
 256 0074 61725065 		.ascii	"arPending\000\000\000\000\000\000\000\000\000\000\000"
 256      6E64696E 
 256      67000000 
 256      00000000 
 256      00000000 
 257 0088 00BE0000 		.ascii	"\000\276\000\000\000"
 257      00
 258              		.text
 259              		.section	.gnu.lto_.opts,"",%progbits
 260 0000 272D6D63 		.ascii	"'-mcpu=cortex-m4' '-mno-thumb-interwork' '-mthumb' "
 260      70753D63 
 260      6F727465 
 260      782D6D34 
 260      2720272D 
 261 0033 272D6767 		.ascii	"'-ggdb' '-O2' '-fomit-frame-pointer' '-falign-funct"
 261      64622720 
 261      272D4F32 
 261      2720272D 
 261      666F6D69 
 262 0066 696F6E73 		.ascii	"ions=16' '-ffunction-sections' '-fdata-sections' '-"
 262      3D313627 
 262      20272D66 
 262      66756E63 
 262      74696F6E 
 263 0099 666E6F2D 		.ascii	"fno-common' '-flto'\000"
 263      636F6D6D 
 263      6F6E2720 
 263      272D666C 
 263      746F2700 
 264              		.text
 265              		.cfi_sections	.debug_frame
 266              		.section	.text.nvicEnableVector,"ax",%progbits
 267              		.align	2
 268              		.p2align 4,,15
ARM GAS  /tmp/ccyj3McZ.s 			page 20


 269              		.global	nvicEnableVector
 270              		.thumb
 271              		.thumb_func
 272              		.type	nvicEnableVector, %function
 273              	nvicEnableVector:
 274              	.LFB270:
 275              		.file 1 "../ChibiOS/os/hal/ports/common/ARMCMx/nvic.c"
 276              		.loc 1 57 0
 277              		.cfi_startproc
 278              		@ args = 0, pretend = 0, frame = 0
 279              		@ frame_needed = 0, uses_anonymous_args = 0
 280              		@ link register save eliminated.
 281              	.LVL0:
 282              		.loc 1 65 0
 283 0000 4309     		lsrs	r3, r0, #5
 284 0002 9B00     		lsls	r3, r3, #2
 285              		.loc 1 63 0
 286 0004 00F16042 		add	r2, r0, #-536870912
 287 0008 03F16043 		add	r3, r3, #-536870912
 288              		.loc 1 57 0
 289 000c 10B4     		push	{r4}
 290              		.cfi_def_cfa_offset 4
 291              		.cfi_offset 4, -4
 292 000e 03F56143 		add	r3, r3, #57600
 293              		.loc 1 65 0
 294 0012 0124     		movs	r4, #1
 295              		.loc 1 63 0
 296 0014 0901     		lsls	r1, r1, #4
 297              	.LVL1:
 298 0016 02F56142 		add	r2, r2, #57600
 299              		.loc 1 65 0
 300 001a 00F01F00 		and	r0, r0, #31
 301              	.LVL2:
 302 001e 04FA00F0 		lsl	r0, r4, r0
 303              		.loc 1 63 0
 304 0022 C9B2     		uxtb	r1, r1
 305 0024 82F80013 		strb	r1, [r2, #768]
 306              		.loc 1 65 0
 307 0028 C3F88001 		str	r0, [r3, #384]
 308              		.loc 1 66 0
 309 002c 1860     		str	r0, [r3]
 310              		.loc 1 67 0
 311 002e 5DF8044B 		ldr	r4, [sp], #4
 312 0032 7047     		bx	lr
 313              		.cfi_endproc
 314              	.LFE270:
 315              		.size	nvicEnableVector, .-nvicEnableVector
 316 0034 AFF30080 		.section	.text.nvicDisableVector,"ax",%progbits
 316      AFF30080 
 316      AFF30080 
 317              		.align	2
 318              		.p2align 4,,15
 319              		.global	nvicDisableVector
 320              		.thumb
 321              		.thumb_func
 322              		.type	nvicDisableVector, %function
 323              	nvicDisableVector:
ARM GAS  /tmp/ccyj3McZ.s 			page 21


 324              	.LFB271:
 325              		.loc 1 74 0
 326              		.cfi_startproc
 327              		@ args = 0, pretend = 0, frame = 0
 328              		@ frame_needed = 0, uses_anonymous_args = 0
 329              		@ link register save eliminated.
 330              	.LVL3:
 331              		.loc 1 76 0
 332 0000 084B     		ldr	r3, .L3
 333 0002 4109     		lsrs	r1, r0, #5
 334              		.loc 1 74 0
 335 0004 10B4     		push	{r4}
 336              		.cfi_def_cfa_offset 4
 337              		.cfi_offset 4, -4
 338              		.loc 1 76 0
 339 0006 00F01F02 		and	r2, r0, #31
 340 000a 2031     		adds	r1, r1, #32
 341 000c 0124     		movs	r4, #1
 342              		.loc 1 80 0
 343 000e 1844     		add	r0, r0, r3
 344              	.LVL4:
 345              		.loc 1 76 0
 346 0010 9440     		lsls	r4, r4, r2
 347              		.loc 1 80 0
 348 0012 0022     		movs	r2, #0
 349              		.loc 1 76 0
 350 0014 43F82140 		str	r4, [r3, r1, lsl #2]
 351              		.loc 1 80 0
 352 0018 80F80023 		strb	r2, [r0, #768]
 353              		.loc 1 82 0
 354 001c 5DF8044B 		ldr	r4, [sp], #4
 355 0020 7047     		bx	lr
 356              	.L4:
 357 0022 00BF     		.align	2
 358              	.L3:
 359 0024 00E100E0 		.word	-536813312
 360              		.cfi_endproc
 361              	.LFE271:
 362              		.size	nvicDisableVector, .-nvicDisableVector
 363 0028 AFF30080 		.section	.text.nvicSetSystemHandlerPriority,"ax",%progbits
 363      AFF30080 
 364              		.align	2
 365              		.p2align 4,,15
 366              		.global	nvicSetSystemHandlerPriority
 367              		.thumb
 368              		.thumb_func
 369              		.type	nvicSetSystemHandlerPriority, %function
 370              	nvicSetSystemHandlerPriority:
 371              	.LFB272:
 372              		.loc 1 90 0
 373              		.cfi_startproc
 374              		@ args = 0, pretend = 0, frame = 0
 375              		@ frame_needed = 0, uses_anonymous_args = 0
 376              		@ link register save eliminated.
 377              	.LVL5:
 378              		.loc 1 100 0
 379 0000 00F16040 		add	r0, r0, #-536870912
ARM GAS  /tmp/ccyj3McZ.s 			page 22


 380              	.LVL6:
 381 0004 00F56D40 		add	r0, r0, #60672
 382              	.LVL7:
 383 0008 0901     		lsls	r1, r1, #4
 384              	.LVL8:
 385 000a C9B2     		uxtb	r1, r1
 386 000c 0176     		strb	r1, [r0, #24]
 387 000e 7047     		bx	lr
 388              		.cfi_endproc
 389              	.LFE272:
 390              		.size	nvicSetSystemHandlerPriority, .-nvicSetSystemHandlerPriority
 391              		.section	.text.nvicClearPending,"ax",%progbits
 392              		.align	2
 393              		.p2align 4,,15
 394              		.global	nvicClearPending
 395              		.thumb
 396              		.thumb_func
 397              		.type	nvicClearPending, %function
 398              	nvicClearPending:
 399              	.LFB273:
 400              		.loc 1 109 0
 401              		.cfi_startproc
 402              		@ args = 0, pretend = 0, frame = 0
 403              		@ frame_needed = 0, uses_anonymous_args = 0
 404              		@ link register save eliminated.
 405              	.LVL9:
 406              		.loc 1 111 0
 407 0000 4209     		lsrs	r2, r0, #5
 408 0002 6032     		adds	r2, r2, #96
 409 0004 00F01F00 		and	r0, r0, #31
 410              	.LVL10:
 411 0008 0121     		movs	r1, #1
 412 000a 034B     		ldr	r3, .L7
 413 000c 01FA00F0 		lsl	r0, r1, r0
 414 0010 43F82200 		str	r0, [r3, r2, lsl #2]
 415 0014 7047     		bx	lr
 416              	.L8:
 417 0016 00BF     		.align	2
 418              	.L7:
 419 0018 00E100E0 		.word	-536813312
 420              		.cfi_endproc
 421              	.LFE273:
 422              		.size	nvicClearPending, .-nvicClearPending
 423 001c AFF30080 		.text
 424              	.Letext0:
 425              		.file 2 "/nfs/nfs5/home/research/hardware/arm2/gcc-arm-embedded/gcc-arm-none-eabi-4_8-2014q2/arm-n
 426              		.file 3 "/nfs/nfs5/home/research/hardware/arm2/gcc-arm-embedded/gcc-arm-none-eabi-4_8-2014q2/arm-n
 427              		.file 4 "../ChibiOS/os/common/ports/ARMCMx/compilers/GCC/chtypes.h"
 428              		.file 5 "../ChibiOS/os/rt/include/chsystypes.h"
 429              		.file 6 "../ChibiOS/os/rt/include/chschd.h"
 430              		.file 7 "../ChibiOS/os/common/ext/CMSIS/include/core_cm4.h"
 431              		.file 8 "../ChibiOS/os/common/ports/ARMCMx/chcore.h"
 432              		.file 9 "../ChibiOS/os/common/ports/ARMCMx/chcore_v7m.h"
 433              		.file 10 "../ChibiOS/os/rt/include/chtm.h"
 434              		.file 11 "../ChibiOS/os/rt/include/chsem.h"
 435              		.file 12 "../ChibiOS/os/rt/include/chmtx.h"