ARM GAS  /tmp/ccyj3McZ.s 			page 1


   1              		.syntax unified
   2              		.cpu cortex-m4
   3              		.fpu softvfp
   4              		.eabi_attribute 20, 1
   5              		.eabi_attribute 21, 1
   6              		.eabi_attribute 23, 3
   7              		.eabi_attribute 24, 1
   8              		.eabi_attribute 25, 1
   9              		.eabi_attribute 26, 1
  10              		.eabi_attribute 30, 2
  11              		.eabi_attribute 34, 1
  12              		.eabi_attribute 18, 4
  13              		.thumb
  14              		.file	"nvic.c"
  15              		.text
  16              	.Ltext0:
  17              		.section	.gnu.lto_.jmpfuncs.8d2a736a684303f0,"",%progbits
  18 0000 789C6362 		.ascii	"x\234cb`b\300\006\270\2404\013\0033##\02333#\003\000"
  18      6062C006 
  18      B8A0340B 
  18      03332323 
  18      13333323 
  19 0016 01F00021 		.ascii	"\001\360\000!"
  20              		.text
  21              		.section	.gnu.lto_.inline.8d2a736a684303f0,"",%progbits
  22 0000 789C6D4C 		.ascii	"x\234mL\313\025\200 \014KK\205\352\305\021\330\300%"
  22      CB158020 
  22      0C4B4B85 
  22      EAC511D8 
  22      C025
  23 0012 5D84911C 		.ascii	"]\204\221\034\305\021LQy\036\354!}\371*\024\177\267"
  23      C5114C51 
  23      791EEC21 
  23      7DF92A14 
  23      7FB7
  24 0024 3FDF8065 		.ascii	"?\337\200e\026\025\011\022`\371\334\220[U\350\261\032"
  24      16150912 
  24      60F9DC90 
  24      5B55E8B1 
  24      1A
  25 0035 C89CAAD3 		.ascii	"\310\234\252\323\363\302TD\222\265zG\350Z\037QL&\322"
  25      F3C25444 
  25      92B57A47 
  25      E85A1F51 
  25      4C26D2
  26 0048 57127B9F 		.ascii	"W\022{\237\201PP\362[\035\346\250\342\002a/\015\002"
  26      815050F2 
  26      5B1DE6A8 
  26      E202612F 
  26      0D02
  27              		.text
  28              		.section	.gnu.lto_.pureconst.8d2a736a684303f0,"",%progbits
  29 0000 789C6362 		.ascii	"x\234cb`b\340d\200\000\026\006)F)&)f)\000\002\326\000"
  29      6062E064 
  29      80001606 
  29      29462926 
  29      29662900 
ARM GAS  /tmp/ccyj3McZ.s 			page 2


  30 0017 80       		.ascii	"\200"
  31              		.text
  32              		.section	.gnu.lto_nvicEnableVector.8d2a736a684303f0,"",%progbits
  33 0000 789C9D91 		.ascii	"x\234\235\221\277K\303@\024\307\337\2734\346GQW\235"
  33      BF4BC340 
  33      14C7DFBB 
  33      34E64751 
  33      579D
  34 0012 2CBA08D2 		.ascii	",\272\010\322\244\340\340\340$\235\034\212P+\350\330"
  34      A4E0E0E0 
  34      249D1C8A 
  34      502BE8D8 
  35 0022 664803B6 		.ascii	"fH\003\266\021+\342f\332t\323\241\203\213\325\301\""
  35      112BE266 
  35      DA74D3A1 
  35      838BD5C1 
  35      22
  36 0033 22883FFE 		.ascii	"\"\210?\376\000AJ7\207*nNR\\\005\021'A!\276Kl\244\""
  36      00414A37 
  36      872A6E4E 
  36      525C0511 
  36      274121BE 
  37 004b 0E1EDCDD 		.ascii	"\016\036\334\335\273{\337\367\276\237\343\0300\3709"
  37      BB7BDFF7 
  37      BE9FE318 
  37      30F839
  38 005a 8669A6E9 		.ascii	"\206i\246\351z\222v\024\000Y\355\006\240,3D\036\000"
  38      7A927614 
  38      0059ED06 
  38      A02C3344 
  38      1E00
  39 006c C226C3CD 		.ascii	"\302&\303\315%\344R\034\205\206\343\324:G\217olw\247"
  39      25E4521C 
  39      8586E3D4 
  39      3A478F6F 
  39      6C77A7
  40 007f 593D703E 		.ascii	"Y=p><\017\321Bj\233@0\020\026\351\2001\177c\221^\237"
  40      3C0FD142 
  40      6A9B4030 
  40      1016E980 
  40      317F6391 
  41 0095 0BD6EC78 		.ascii	"\013\326\354x\336\376m\375a\010\373\021\013\274\310"
  41      DEFE6DFD 
  41      6108FB11 
  41      0BBCC8
  42 00a4 4241E08B 		.ascii	"BA\340\213HG\224(\212\310\220\305\006\371(t\000\225"
  42      48479428 
  42      8AC890C5 
  42      06F92874 
  42      0095
  43 00b6 16914A45 		.ascii	"\026\221JE\250\222m\014\270\003\215\014\255\234m\001"
  43      A8926D0C 
  43      B8038D0C 
  43      AD9C6D01 
  44 00c6 19DF8536 		.ascii	"\031\337\2056T\236\\\357\035\263xHr\023\231\211\244"
  44      549E5CEF 
  44      1DB37848 
ARM GAS  /tmp/ccyj3McZ.s 			page 3


  44      72139989 
  44      A4
  45 00d7 68837B26 		.ascii	"h\203{&t\257\004\272\345P}\034\252\015\255\331 \021"
  45      74AF04BA 
  45      E5507D1C 
  45      AA0DADD9 
  45      2011
  46 00e9 8753A75A 		.ascii	"\207S\247Zv\246(1\001'<\034\264P\332\203:Ie\256W\234"
  46      76A62831 
  46      01273C1C 
  46      B450DA83 
  46      3A4965AE 
  47 00ff 96EB0CF8 		.ascii	"\226\353\014\370\357Q\374W\3440x\215\351\203\005\221"
  47      EF51FC57 
  47      E430788D 
  47      E9830591 
  48 010f E09B9DBB 		.ascii	"\340\233\235\273\307\333\343]?\211\362\274\010D\337"
  48      C7DBE35D 
  48      3F89F2BC 
  48      0844DF
  49 011e AFF2EC5E 		.ascii	"\257\362\354^\205x\262_K\025\227!\236b\006v0\002\001"
  49      8578B25F 
  49      4B159721 
  49      9E620676 
  49      300201
  50 0131 B8FB1ACA 		.ascii	"\270\373\032\312U\236\020\221\253|\364\353\227h\017"
  50      559E1091 
  50      AB7CF4EB 
  50      97680F
  51 0140 FCB485EA 		.ascii	"\374\264\205\3527|\364ox\374B\226Bx5hzO_\372\377\266"
  51      377CF46F 
  51      78FC4296 
  51      42783568 
  51      7A4F5FFA 
  52 0156 ECB7B677 		.ascii	"\354\267\266wP\356l\215\005M\273#C\004\364e\\\037\327"
  52      50EE6C8D 
  52      054DBB23 
  52      4304F465 
  52      5C1FD7
  53 0169 343D99B7 		.ascii	"4=\231\267r\326\334\274n\227\364|vY_\261W\327J\272a"
  53      72D6DCBC 
  53      6E97F47C 
  53      76595FB1 
  53      57D74ABA 
  54 017e 170A7651 		.ascii	"\027\012vQ\237I\247\222\251\015\275\270n\031\232\001"
  54      9F49A792 
  54      A90DBDB8 
  54      6E199A01 
  55 018e 42514B7C 		.ascii	"BQK|\002\020\\\224\200"
  55      02105C94 
  55      80
  56              		.text
  57              		.section	.gnu.lto_nvicDisableVector.8d2a736a684303f0,"",%progbits
  58 0000 789C7D50 		.ascii	"x\234}P=K\003A\020\235\267w\247\211\202bie\320F\220"
  58      3D4B0341 
  58      109DB777 
  58      A7898262 
ARM GAS  /tmp/ccyj3McZ.s 			page 4


  58      6965D046 
  59 0015 DC291616 		.ascii	"\334)\026\026V\222:\010\032A\313\344\212\344\300\344"
  59      56923A08 
  59      1A41CBE4 
  59      8AE4C0E4 
  60 0025 C488D8E5 		.ascii	"\304\210\330\345\342\305\316\"\205\205\037\215\301."
  60      E2C5CE22 
  60      85851F8D 
  60      C12E
  61 0033 C40FB011 		.ascii	"\304\017\260\021\004\011\001\013\213\010\376\203`#X"
  61      0409010B 
  61      8B08FE83 
  61      602358
  62 0042 88689342 		.ascii	"\210h\223B8g/9%\026\016\354\316\354\2747ofV\220\240"
  62      38672F39 
  62      25160EEC 
  62      CEECBC37 
  62      6F665690 
  63 0057 BF36CAE7 		.ascii	"\2776\312\347\036D\263\354\241\020D\371\221\250\030"
  63      1E44B3EC 
  63      A11044F9 
  63      91A818
  64 0066 12800C08 		.ascii	"\022\200\014\010T\020(\254AR1N\025\307)\267\366^\332"
  64      541028AC 
  64      4152314E 
  64      15C729B7 
  64      F65EDA
  65 0079 E2E8A05E 		.ascii	"\342\350\240^:u\276<\017\260\300\262\323 \023\264\312"
  65      3A75BE3C 
  65      0FB0C0B2 
  65      D32013B4 
  65      CA
  66 008a 0F447C27 		.ascii	"\017D|'\324\336>\227\242\336\362\274\332\365\325s\025"
  66      D4DE3E97 
  66      A2DEF2BC 
  66      DAF5D573 
  66      15
  67 009b 2361202B 		.ascii	"#a +\253,(\012%Qae\225\037\244\361%\3534*q\243\010I"
  67      AB2C280A 
  67      25516165 
  67      951FA4F1 
  67      25EB342A 
  68 00b3 4DB604DF 		.ascii	"M\266\004\337r\232\025\010\351\225&\271\027\356\347"
  68      729A1508 
  68      E99526B9 
  68      17EEE7
  69 00c2 FE641267 		.ascii	"\376d\022g\320(\015\221\006dO\256#j\322\356\233{\207"
  69      D0280D91 
  69      06644FAE 
  69      236AD2EE 
  69      9B7B87
  70 00d5 00531893 		.ascii	"\000S\030\223I\367V\011R*g}\372\230Ow\317\335\217\037"
  70      49F75609 
  70      522A677D 
  70      FA984F77 
  70      CFDD8F1F 
  71 00e9 BA260115 		.ascii	"\272&\001\025\222%\261\306\303\373`\007\212R\315)\025"
ARM GAS  /tmp/ccyj3McZ.s 			page 5


  71      9225B1C6 
  71      C3FB6007 
  71      8A52CD29 
  71      15
  72 00fa 9D790BDA 		.ascii	"\235y\013\332\024Ue8l\241\357\204\216\231\337/\213B"
  72      14556538 
  72      6CA1EF84 
  72      8E99DF2F 
  72      8B42
  73 010c 4EC37586 		.ascii	"N\303u\206\374\335C\376\306)t6\347\371(\2104_\364\346"
  73      FCDD43FE 
  73      C6297436 
  73      E7F92888 
  73      345FF4E6 
  74 0120 F0B58D1E 		.ascii	"\360\265\215\036\3319\013\341_\331\201\377e\321\025"
  74      D9390BE1 
  74      5FD981FF 
  74      65D115
  75 012f EBEAFB58 		.ascii	"\353\352\373XX\006OTlU':\302\201%\230\306\177&G\210"
  75      58064F54 
  75      6C55273A 
  75      C2812598 
  75      C67F2647 
  76 0144 EABA11CB 		.ascii	"\352\272\021\313X)kq\331\260\363F&\271nl\330\233[y\303"
  76      58296B71 
  76      D9B0F346 
  76      26B96E6C 
  76      D89B5B79 
  77 0159 B4B3593B 		.ascii	"\264\263Y;g,,\305c\361\035#\267m\231\272IJN\237\371"
  77      672C2CC5 
  77      63F11D23 
  77      B76D99BA 
  77      494A4E9F 
  78 016e 06CE8A78 		.ascii	"\006\316\212xt"
  78      74
  79              		.text
  80              		.section	.gnu.lto_nvicSetSystemHandlerPriority.8d2a736a684303f0,"",%progbits
  81 0000 789C5D50 		.ascii	"x\234]P-O\003A\020}o\267\0270\340q$\225\344n%\232T!"
  81      2D4F0341 
  81      107D6FB7 
  81      1730E071 
  81      2495E46E 
  82 0018 1A122809 		.ascii	"\032\022(\011\310\366D\273\011\327#\224\020\\\367\270"
  82      C8F644BB 
  82      09D72394 
  82      105CF7B8 
  83 0028 0649AA41 		.ascii	"\006I\252Aa\011\037\202?@\021\270^\202E\325c\020\370"
  83      61091F82 
  83      3F4011B8 
  83      5E8245D5 
  83      6310F8
  84 003b 327B9733 		.ascii	"2{\2273L2\263og\336\274}Y\005\205\377\261!\371#i$\251"
  84      4C32B36F 
  84      67DEBC7D 
  84      590585FF 
  84      B121F923 
  85 0052 41352D80 		.ascii	"A5-\200lU\221\036\200\030+\216\217Yr_\324\333b\271|"
ARM GAS  /tmp/ccyj3McZ.s 			page 6


  85      6C55911E 
  85      80182B8E 
  85      8F59725F 
  85      D4DB62B9 
  86 0067 FEBDFE98 		.ascii	"\376\275\376\230\261h\256\220\011E\321\022\332\227@"
  86      B168AE90 
  86      0945D112 
  86      DA9740
  87 0076 AE9E1760 		.ascii	"\256\236\027`\342\334t3\241<\026\227\213\035\251^\355"
  87      E2DC7433 
  87      A13C1697 
  87      8B1DA95E 
  87      ED
  88 0087 505A72EA 		.ascii	"PZr\3529\256\276\363\327\233\260\313{\006\350S\365\375"
  88      39AEBEF3 
  88      D79BB0CB 
  88      7B06E853 
  88      F5FD
  89 0099 E21CF993 		.ascii	"\342\034\371\223\256[Z\272G\264d\003~\362\276[\015B"
  89      AE5B5ABA 
  89      47B46403 
  89      7EF2BE5B 
  89      0D42
  90 00ab 3CBA49E6 		.ascii	"<\272I\346\266e\260\205\007\017\327,\325\035n\205\252"
  90      B665B085 
  90      070FD72C 
  90      D51D6E85 
  90      AA
  91 00bc 3DBFE1BE 		.ascii	"=\277\341\276r\267\216\022\226\236{\225u\221\014P#\015"
  91      72B78E12 
  91      969E7B95 
  91      75910C50 
  91      230D
  92 00ce 7C225B14 		.ascii	"|\"[\024\315J\264\216\216\270\020{\376\217\302(2\255"
  92      CD4AB48E 
  92      8EB8107B 
  92      FE8FC228 
  92      32AD
  93 00e0 81EDD9BD 		.ascii	"\201\355\331\275\003\223\216\314\240{bN\323\263\363"
  93      03938ECC 
  93      A07B624E 
  93      D3B3F3
  94 00ef 9189D324 		.ascii	"\221\211\323$I\207fg\277\335j_\232\341\205\215\243\030"
  94      49876667 
  94      BFDD6A5F 
  94      9AE1858D 
  94      A318
  95 0101 7F83C847 		.ascii	"\177\203\310G\205"
  95      85
  96              		.text
  97              		.section	.gnu.lto_nvicClearPending.8d2a736a684303f0,"",%progbits
  98 0000 789C5D50 		.ascii	"x\234]P1H\303P\020\275\367\177\222\352\2428:Yt\021\244"
  98      3148C350 
  98      10BDF77F 
  98      92EAA238 
  98      3A597411 
  99 0015 89E8E824 		.ascii	"\211\350\350$\235\034\212\240\025tL3\264\001\333\210"
ARM GAS  /tmp/ccyj3McZ.s 			page 7


  99      9D1C8AA0 
  99      15744C33 
  99      B401DB88 
 100 0025 1571EBAF 		.ascii	"\025q\353\257\351,\035\\\324\305\342&Uw\273\224\356"
 100      E92C1D5C 
 100      D4C5E226 
 100      5577BB94 
 100      EE
 101 0036 15DD1D8A 		.ascii	"\025\335\035\212 \024\007W\027!\336OMA\017\376\277\373"
 101      20140757 
 101      1721DE4F 
 101      4D410FFE 
 101      BFFB
 102 0048 EFDEBDBB 		.ascii	"\357\336\275\273\177\202\004\375\267Y>\012D\253\354"
 102      7F8204FD 
 102      B7593E0A 
 102      44ABEC
 103 0057 2109A2F9 		.ascii	"!\011\242\371DT\237\020\200\016\010T\023\250\355AS1"
 103      44549F10 
 103      800E0854 
 103      13A8ED41 
 103      5331
 104 0069 4F2DA59A 		.ascii	"O-\245\232\203\367\257gyq\336m\\\253\357(\002|\260\354"
 104      83F7AF67 
 104      7971DE6D 
 104      5CABEF28 
 104      027CB0EC 
 105 007d 32C803ED 		.ascii	"2\310\003\355\362\003\351\330\011\343o\237\007\321\035"
 105      F203E9D8 
 105      09E36F9F 
 105      07D11D
 106 008c 44D16BA7 		.ascii	"D\321k\247\3756\304\314$P\326U>\244$\027-V6\370A\246"
 106      FD36C4CC 
 106      2450D655 
 106      3EA42417 
 106      2D5636F8 
 107 00a2 BE2C0D73 		.ascii	"\276,\015s\205I\015\356\226&-\314\226\347[\217\264\003"
 107      85490DEE 
 107      96262DCC 
 107      96E75B8F 
 107      B403
 108 00b4 A1BDEC53 		.ascii	"\241\275\354Sx\037Fg\213.n`R\021\242\010\350\306\\G"
 108      781F4667 
 108      8B2E6E60 
 108      5211A208 
 108      E8C65C47 
 109 00c8 D4A7D3CF 		.ascii	"\324\247\323\317\360\003INrN\203aG&\220\301hL\237\213"
 109      F003494E 
 109      724E8361 
 109      472690C1 
 109      684C9F8B 
 110 00dc E9E1DD38 		.ascii	"\351\341\3358c\30604\347W\350q,dqZ\203\275\215\021\222"
 110      63C63034 
 110      E757E871 
 110      2C64715A 
 110      83BD8D11 
 111 00f1 A1B66AD4 		.ascii	"\241\266j\324\325\232\017c\211nu8\355\303\274\242K\226"
ARM GAS  /tmp/ccyj3McZ.s 			page 8


 111      D59A0F63 
 111      896E7538 
 111      EDC3BCA2 
 111      4B96
 112 0103 B0B44E4A 		.ascii	"\260\264NJ\365B5\025o$\025\357\241\200\321>x`J\"\213"
 112      F5423515 
 112      6F2415EF 
 112      A180D13E 
 112      78604A22 
 113 0118 E885EA83 		.ascii	"\350\205\352\203\341\302H4\261<\017\315?\325\274\214"
 113      E1C24834 
 113      B13C0FCD 
 113      3FD5BC8C 
 114 0128 6D3BD992 		.ascii	"m;\331\222_\3607\267\235\240\352\224\334}\347 8<\252"
 114      5FF037B7 
 114      9DA0EA94 
 114      DC7DE720 
 114      383CAA
 115 013b 3A5E502E 		.ascii	":^P.\007\025g}+\227\315\2358\225c\337\263=\222\025{"
 115      0715677D 
 115      2B97CD9D 
 115      389563DF 
 115      B33D9215 
 116 0150 E5077161 		.ascii	"\345\007qahb"
 116      6862
 117              		.text
 118              		.section	.gnu.lto_.symbol_nodes.8d2a736a684303f0,"",%progbits
 119 0000 789C6362 		.ascii	"x\234cb`b\260c\200\002\246>\246z\006\206\011\347\030"
 119      6062B063 
 119      8002A63E 
 119      A67A0686 
 119      09E718
 120 0013 18EAEBE7 		.ascii	"\030\352\353\347u02\3653\3253\"q'0\3253!q'2\3253#\270"
 120      753032F5 
 120      33D53322 
 120      712730D5 
 120      33217127 
 121 002c 0C00453A 		.ascii	"\014\000E:\022\237"
 121      129F
 122              		.text
 123              		.section	.gnu.lto_.refs.8d2a736a684303f0,"",%progbits
 124 0000 789C6362 		.ascii	"x\234cb`b`d\200\002\000\000F\000\006"
 124      60626064 
 124      80020000 
 124      460006
 125              		.text
 126              		.section	.gnu.lto_.decls.8d2a736a684303f0,"",%progbits
 127 0000 789CBD59 		.ascii	"x\234\275Yml\024\307\031\236\331\273\303\276\340:\020"
 127      6D6C14C7 
 127      199ED9BB 
 127      C3BEE03A 
 127      10
 128 0011 A529A9A8 		.ascii	"\245)\251\250p\242\246\252\242\332\013\016\221\351\237"
 128      70A2A6AA 
 128      A2DA0B0E 
 128      91E99F
 129 0020 087336F1 		.ascii	"\010s6\361\375pb\335\001\352\257,\303y\211O\262\357"
ARM GAS  /tmp/ccyj3McZ.s 			page 9


 129      FD7062DD 
 129      01EAAF2C 
 129      C379894F 
 129      B2EF
 130 0032 E8F968C3 		.ascii	"\350\371h\303\277u\034\032\032\210bB\254\320\322\232"
 130      BF751C1A 
 130      1A886242 
 130      ACD0D29A 
 131 0042 831CA528 		.ascii	"\203\034\245(\224\270\346C6\245\356\211\2424$\221bH"
 131      94B8E643 
 131      36A5EE89 
 131      A2342491 
 131      6248
 132 0054 480849E0 		.ascii	"H\010I\340*T5\264J\240\371\240\241\"\271\2763\3739{"
 132      2A5435B4 
 132      4AA0F9A0 
 132      A122B9BE 
 132      33FB397B 
 133 0068 3BE7DDA8 		.ascii	";\347\335\250\352J\363\336\354\356;\317<\317;\357\316"
 133      EA4AF3DE 
 133      ECEE3BCF 
 133      3CCF3BEF 
 133      CE
 134 0079 BE5E4B48 		.ascii	"\276^KHB\3330B\02582\337F\350m\011\241\010B\350\001"
 134      42DB3042 
 134      153832DF 
 134      46E86D09 
 134      A10842E8 
 135 008e 641F6168 		.ascii	"d\037ah{\240M@\233\2046\215\252\017z\277\301\360m4\372"
 135      7BA04D40 
 135      9B84368D 
 135      AA0F7ABF 
 135      C1F06D34 
 136 00a3 008BEA90 		.ascii	"\000\213\352\220\216w\022\332ih\257C\373\034\332\233"
 136      8E7712DA 
 136      6968AF43 
 136      FB1CDA9B 
 137 00b3 D0CE420B 		.ascii	"\320\316B\013A\373\010\332ehg\2141\024\013h\240\227"
 137      41FB08DA 
 137      6568678C 
 137      31140B68 
 137      A097
 138 00c5 A0FDCE35 		.ascii	"\240\375\3165\017\3450\3275\2179\207\211i\316a\316I"
 138      0FE530D7 
 138      358F3987 
 138      8969CE61 
 138      CE49
 139 00d7 B1DE33E6 		.ascii	"\261\3363\346\301\006\006\375=\346\302\2364p\2601\366"
 139      C10606FD 
 139      3DE6C29E 
 139      3470B031 
 139      F6
 140 00e8 3AB41BD0 		.ascii	":\264\033\320\226`\375\332\\\343w\322\340}\002\332q"
 140      9660FDDA 
 140      5CE377D2 
 140      E07D02DA 
 140      71
ARM GAS  /tmp/ccyj3McZ.s 			page 10


 141 00f9 68AD98C7 		.ascii	"h\255\230\307\241\361\251\367\340\350\346\207\015\335"
 141      A1F1A9F7 
 141      E0E8E687 
 141      0DDD
 142 0107 D818437F 		.ascii	"\330\030C\177K.N\213\320\230V(\227\367\215\275\206\265"
 142      4B2E4E8B 
 142      D0985628 
 142      97F78DBD 
 142      86B5
 143 0119 67B59B95 		.ascii	"g\265\233\225J\010\335\201F58\012?\3234\234'\370\201"
 143      4A08DD81 
 143      4635380A 
 143      3FD3349C 
 143      27F881
 144 012c 6FA21F61 		.ascii	"o\242\037a\202\033\243\250\211u\032\242lb\204\010\336"
 144      821BA3A8 
 144      89751AA2 
 144      6C628408 
 144      DE
 145 013d 8BEF60BD 		.ascii	"\213\357`\275\020\013\001\212\242-\232\3668\035\330"
 145      100B018A 
 145      A22D9AF6 
 145      381DD8
 146 014c F50AF0F2 		.ascii	"\365\012\360\362\032u\017*j\332H\371\314\201m?\320\264"
 146      1A750F2A 
 146      6ADA48F9 
 146      CC816D3F 
 146      D0B4
 147 015e 7A828B38 		.ascii	"z\202\2138\012c\213\030\243{\321\001\230tD\323\366\266"
 147      0A638B18 
 147      A37BD101 
 147      987444D3 
 147      F6B6
 148 0170 49A8FAF0 		.ascii	"I\250\372\360\217\375\356\326\023?d\330\277e\330S\022"
 148      8FFDEED6 
 148      133F64D8 
 148      BF65D853 
 148      12
 149 0181 06A6FBF1 		.ascii	"\006\246\373\361\275\006\020\301uQ'0;7\035(\032\273"
 149      BD0610C1 
 149      75512730 
 149      3B371D28 
 149      1ABB
 150 0193 6D7468D6 		.ascii	"mth\326\336\212\202\272\033\341\320\325\261\316\352"
 150      DE8A82BA 
 150      1BE1D0D5 
 150      B1CEEA
 151 01a2 900520A1 		.ascii	"\220\005 \241S.F\337E/h\332\263\260\004\305;\265\202"
 151      532E46DF 
 151      452F68DA 
 151      B3B004C5 
 151      3BB582
 152 01b5 64C6E41C 		.ascii	"d\306\344\034\363\332\203\027yj5\260\365\241\332\224"
 152      F3DA8317 
 152      796A35B0 
 152      F5A1DA94 
 153 01c5 DA650E7B 		.ascii	"\332e\016{\307\3170\204\276\207\366\3215~Z\333<\017"
ARM GAS  /tmp/ccyj3McZ.s 			page 11


 153      C7CF3084 
 153      BE87F6D1 
 153      357E5ADB 
 153      3C0F
 154 01d7 B32546C6 		.ascii	"\263%F\306(N\352A\314-\205\236+\245#/7\214\014\225+"
 154      284EEA41 
 154      CC2D859E 
 154      2BA5232F 
 154      378C0C95 
 155 01ec 9545FE13 		.ascii	"\225E\376\023\3450\237(:\015WX\336\367\014\213\266\303"
 155      E5309F28 
 155      3A0D5758 
 155      DEF70C8B 
 155      B6C3
 156 01fe D446F021 		.ascii	"\324F\360!\240C\360\304\327\3226\341\326v\324S\333g"
 156      A043F0C4 
 156      D7D236E1 
 156      D676D453 
 156      DB67
 157 0210 A6363DB9 		.ascii	"\2466=\271%\364\2617+G\304\267\206\250\307\244\257\205"
 157      25F4B137 
 157      2B47C4B7 
 157      86A8C7A4 
 157      AF85
 158 0222 FAD21633 		.ascii	"\372\322\0263\316\304\3142L f\322-f\312S\314\361\277"
 158      CEC4CC32 
 158      4C2066D2 
 158      2D66CA53 
 158      CCF1BF
 159 0235 58620E33 		.ascii	"Xb\01631;B\236b\266\273C<\375\265XM\273Y\375\211g\305"
 159      313B429E 
 159      62B6BB43 
 159      3CFDB558 
 159      4DBB59FD 
 160 024c 1EE161AD 		.ascii	"\036\341a\255\274O[\260\323~\204\353\315\011\350\356"
 160      BC4F5BB0 
 160      D37E84EB 
 160      CD09E8EE 
 161 025c 646E0F57 		.ascii	"dn\017W.H\360\010\033\317|\255\001\004\377\031\337\003"
 161      2E48F008 
 161      1BCF7CAD 
 161      0104FF19 
 161      DF03
 162 026e 16F30F25 		.ascii	"\026\363\017%\216\332\235\012\246\331UtI\367\201m\355"
 162      8EDA9D0A 
 162      A6D95574 
 162      49F7816D 
 162      ED
 163 027f 2763CBD8 		.ascii	"'c\313\330~\3622[\356\203!\367~\202]\373\311,\\\202"
 163      7EF2325B 
 163      EE8321F7 
 163      7E825DFB 
 163      C92C5C82 
 164 0293 F8CE4723 		.ascii	"\370\316G#4\316M;\033\011>\011\327\014\232\332\255&"
 164      34CE4D3B 
 164      1B093E09 
 164      D70C9ADA 
ARM GAS  /tmp/ccyj3McZ.s 			page 12


 164      AD26
 165 02a5 CF6B3AA0 		.ascii	"\317k:\240\323\357T\015?\202_\305\363m\375\232\261\237"
 165      D3EF540D 
 165      3F825FC5 
 165      F36DFD9A 
 165      B19F
 166 02b7 3217D1B3 		.ascii	"2\027\321\263\373\232\241\317\270lu\256bN\211\351\206"
 166      FB9AA1CF 
 166      B86C75AE 
 166      624E89E9 
 166      86
 167 02c8 6E43DB19 		.ascii	"nC\333\031\027\3076](cs\324\023\013\355\310~\260\353"
 167      17C7365D 
 167      286373D4 
 167      130BEDC8 
 167      7EB0EB
 168 02db DC832CB2 		.ascii	"\334\203,\262\257\343\333 \262W\\\221\365\001D'~\003"
 168      AFE3DB20 
 168      B2575C91 
 168      F5014427 
 168      7E03
 169 02ed 06EBC318 		.ascii	"\006\353\303\030\254Vz\376b\203\026\326\257#\016\220"
 169      AC567AFE 
 169      628316D6 
 169      AF230E90 
 170 02fd 3BEE4205 		.ascii	";\356B\005\355\211\241\322\256\261Q\254\025Nb3\202\257"
 170      ED89A1D2 
 170      AEB151AC 
 170      154E6233 
 170      82AF
 171 030f 341A695A 		.ascii	"4\032iZ\353MC\360>\226u\263\277\012\314\205\220\314"
 171      EB4D43F0 
 171      3E9675B3 
 171      BF0ACC85 
 171      90CC
 172 0321 E14DDC7A 		.ascii	"\341M\334z\321\320\027\035\353\345r#\370\255\300\313"
 172      D1D0171D 
 172      EBE57223 
 172      F8ADC0CB 
 173 0331 754EB05C 		.ascii	"uN\260\\u\334j\231^\020\366OY\330i\264<YX8&h\243\225"
 173      75DC6A99 
 173      5E10F64F 
 173      59D869B4 
 173      3C595838 
 174 0349 EE348410 		.ascii	"\3564\204\020\357_=2BD\202\346\230\343\327\032\023\237"
 174      EF5F3D32 
 174      424482E6 
 174      98E3D71A 
 174      139F
 175 035b 0F2CE85D 		.ascii	"\017,\350]\201\240o!S\301\027U\012\270i\271\220V+\200"
 175      81A06F21 
 175      53C11755 
 175      0AB869B9 
 175      90562B80 
 176 036f 24180305 		.ascii	"$\030\003\005\004\237\005j\022z<\354'\034\032\026\307"
 176      049F056A 
 176      127A3CEC 
ARM GAS  /tmp/ccyj3McZ.s 			page 13


 176      271C1A16 
 176      C7
 177 0380 639CA19D 		.ascii	"c\234\241\235ghOV\241yQ+\210\320\200\333\204\203\333"
 177      67684F56 
 177      A179512B 
 177      88D080DB 
 177      8483DB
 178 0393 883F6E92 		.ascii	"\210?n\222\230\333\021\007\267Q\177\334Dh\300\355\230"
 178      98DB1107 
 178      B7517FDC 
 178      4468C0ED 
 178      98
 179 03a4 83DB6E7F 		.ascii	"\203\333n\177\334Bbn\223\016nE\177\334Dh\300\355\270"
 179      DC42626E 
 179      930E6E45 
 179      7FDC4468 
 179      C0EDB8
 180 03b7 83DB217F 		.ascii	"\203\333!\177\334\302bn'j\344x\243\011P67\331\177\004"
 180      DCC2626E 
 180      276AE478 
 180      A3095036 
 180      37D97F04 
 181 03cb 4EF27F0A 		.ascii	"N\362\177\012\222\274\315J\362\303U\032\370y\315\220"
 181      92BCCD4A 
 181      F2C3551A 
 181      F879CD90 
 182 03db 88444048 		.ascii	"\210D@H\246\037\031_K\360i\026\222?V\301\361\357\012"
 182      A61F195F 
 182      4BF06916 
 182      923F56C1 
 182      F1EF0A
 183 03ee 332673C4 		.ascii	"3&s\3041\231\251\021\223=\326>=r\273!\361Z\340\240\374"
 183      3199A911 
 183      933DD63E 
 183      3D72BB21 
 183      F15AE0A0 
 184 0403 4B1094E1 		.ascii	"K\020\224\341\210\025\225R\225\014\327\314\246\246:"
 184      88159552 
 184      950CD7CC 
 184      A6A63A
 185 0412 5158864B 		.ascii	"QX\206Kg/6\320Ty\223\275\336_u\003r\254\314\250,\364"
 185      672F36D0 
 185      547993BD 
 185      DE5F7503 
 185      72ACCCA8 
 186 0428 40F33A9C 		.ascii	"@\363:\234o'\202g\330K\343\014\276\013\354;\314\276"
 186      6F278267 
 186      D84BE30C 
 186      BE0BEC3B 
 186      CCBE
 187 043a C7EC07CC 		.ascii	"\307\354\007\314^b\366\257\314^f\366o\314\376\235\331"
 187      5E62F6AF 
 187      CC5E66F6 
 187      6FCCFE9D 
 187      D9
 188 044b 2BCC7EC4 		.ascii	"+\314~\304\354Uf?\005k\035s\321S\366\237G\372\013U\024"
 188      EC55663F 
ARM GAS  /tmp/ccyj3McZ.s 			page 14


 188      056B1D73 
 188      D153F69F 
 188      47FA0B55 
 189 0460 D5CFF15C 		.ascii	"\325\317\361\\s\224\240\274Xk\016i\250\362:%\364\"\370"
 189      7394A0BC 
 189      586B0E69 
 189      A8F23A25 
 189      F422F8
 190 0473 DF8117F8 		.ascii	"\337\201\027\370\013\301\002[\0049/\257\202\240lUl\333"
 190      0BC1025B 
 190      04392FAF 
 190      82A06C55 
 190      6CDB
 191 0485 EC92AD74 		.ascii	"\354\222\255t\343\022n\"\370\006\253*\336\010\317ZU"
 191      E3126E22 
 191      F806AB2A 
 191      DE08CF5A 
 191      55
 192 0496 B840E89C 		.ascii	"\270@\350\2347\335E\305\256K\254\250\2709{Q\361\334"
 192      37DD45C5 
 192      AE4BACA8 
 192      B8397B51 
 192      F1DC
 193 04a8 7069F7EE 		.ascii	"pi\367\356\321;iQa\225\022\245\377A)!\241\363L\312\315"
 193      D13B6951 
 193      619512A5 
 193      FF412921 
 193      A1F34CCA 
 194 04bd DAB989C4 		.ascii	"\332\271\211\304\211>~\311\221\350\027\003\2035q`\023"
 194      893E7EC9 
 194      91E81703 
 194      83357160 
 194      13
 195 04ce 4EB0CB7E 		.ascii	"N\260\313~\300\352\305\314\2168\301>\014\014\3063;\346"
 195      C0EAC5CC 
 195      8E38C13E 
 195      0C0CC633 
 195      3BE6
 196 04e0 04FBD80F 		.ascii	"\004\373\330\017\330<1\263I'\330'\201\301\234\314\340"
 196      D83C31B3 
 196      4927D827 
 196      81C19CCC 
 196      E0
 197 04f1 9DA4D00D 		.ascii	"\235\244\320\015\370:\333\200\257\273\261\270\347\311"
 197      F83ADB80 
 197      AFBBB1B8 
 197      E7C9
 198 04ff E82E1013 		.ascii	"\350.\020\023;\341$\366\037?\304\232\304!\233v\202i"
 198      3BE124F6 
 198      1F3FC49A 
 198      C4219B76 
 198      8269
 199 0511 111F60DF 		.ascii	"\021\037`\337\0273\233q\202m\016\014\3063;\353\004{"
 199      17339B71 
 199      826D0E0C 
 199      C6333BEB 
 199      047B
ARM GAS  /tmp/ccyj3McZ.s 			page 15


 200 0523 CA0FD862 		.ascii	"\312\017\330b1\263\267\234`\317\004\006\343\231\275"
 200      31B3B79C 
 200      60CF0406 
 200      E399BD
 201 0532 ED041BF5 		.ascii	"\355\004\033\365\003\266L\314\354\274\023\354\227\201"
 201      03B64CCC 
 201      ECBC13EC 
 201      9781
 202 0540 C11CCC9E 		.ascii	"\301\034\314\236\033*]P\254\027sa9\335\202+\366\256"
 202      1B2A5D50 
 202      AC177361 
 202      39DD822B 
 202      F6AE
 203 0552 BD9C7F80 		.ascii	"\275\234\177\2008\267\242\320\215\340_KA7\3671\311{"
 203      38B7A2D0 
 203      8DE05F4B 
 203      4137F731 
 203      C97B
 204 0564 73E7FF6C 		.ascii	"s\347\377l4\275h\005\351\226\315\2210\272\313\0051\204"
 204      34BD6805 
 204      E996CD91 
 204      30BACB05 
 204      3184
 205 0576 5DF77D3D 		.ascii	"]\367}=\206\025\026\303\027\374\304\260K\014v\321\011"
 205      861516C3 
 205      17FCC4B0 
 205      4B0C76D1 
 205      09
 206 0587 B63F3018 		.ascii	"\266?0\030\277 \327\024\276Rr\254\207f\225+\363\234"
 206      BF20D714 
 206      BE5272AC 
 206      8766952B 
 206      F39C
 207 0599 0B525550 		.ascii	"\013RUP\271\334\010\376M\340\005\331/X\020\373#\234"
 207      B9DC08FE 
 207      4DE005D9 
 207      2F5810FB 
 207      239C
 208 05ab D30B64BF 		.ascii	"\323\013d\277\350\226\315\2630\272=\242 \016\225>\021"
 208      E896CDB3 
 208      30BA3DA2 
 208      200E953E 
 208      11
 209 05bc EB2E5850 		.ascii	"\353.XP\267\327\322\355v#\370\305\300\272\017\012t\207"
 209      B7D7D2ED 
 209      7623F8C5 
 209      C0BA0F0A 
 209      7487
 210 05ce 39DD076D 		.ascii	"9\335\007m\335\343n\335<\013\243\273V\240\033\212\205"
 210      DDE36EDD 
 210      3C0BA3BB 
 210      56A01B8A 
 210      85
 211 05df CF149A3B 		.ascii	"\317\024\232;\224)\301\027\330\027\265\331\3006\010"
 211      9429C117 
 211      D817B5D9 
 211      C03608
ARM GAS  /tmp/ccyj3McZ.s 			page 16


 212 05ee 9207B686 		.ascii	"\222\007\266\206\353\316\255\341\250\237L\334\342\365"
 212      EBCEADE1 
 212      A89F4CDC 
 212      E2F5
 213 05fc E7A4D7E1 		.ascii	"\347\244\327\341\254s\010\376\222\025\"_\261\342rH\242"
 213      AC7308FE 
 213      9215225F 
 213      B1E27248 
 213      A2
 214 060d 7698D9CD 		.ascii	"v\230\331\315\314>\311\354\317\231\335\312\354\323\314"
 214      CC3EC9EC 
 214      CF99DDCA 
 214      ECD3CC
 215 061c 3EC3EC76 		.ascii	">\303\354vfw0;\312\354\363\314\376\202\331]\314\026"
 215      6677303B 
 215      CAECF3CC 
 215      FE82D95D 
 215      CC16
 216 062e 98DDCB6C 		.ascii	"\230\335\313l\221\331\003\314\036b\366%I\\\316\336\250"
 216      91D903CC 
 216      1E62F625 
 216      495CCEDE 
 216      A8
 217 063f 51CEFE5E 		.ascii	"Q\316\376^\262\252\305\273\321\036mf\246\274\371\352"
 217      B2AAC5BB 
 217      D11E6D66 
 217      A6BCF9EA 
 218 064f 4EBCA5AC 		.ascii	"N\274\245\254\215h_U*\330.^\255/~\245\332_\374\350\377"
 218      8D685F55 
 218      2AD82E5E 
 218      AD2F7EA5 
 218      DA5FFCE8 
 219 0664 2024C7E7 		.ascii	" $\307\347\301\005\336\276\004\037\225h\274\2169\262"
 219      C105DEBE 
 219      041F9568 
 219      BC8E39B2 
 220 0674 4BEF9B3D 		.ascii	"K\357\233=\375\303\343\037\"\256\377\336\330\301\257"
 220      FDC3E31F 
 220      22AEFFDE 
 220      D8C1AF
 221 0683 3DD498F4 		.ascii	"=\324\230\364C+]\276\303=(\264\032\247\256\0027\202"
 221      432B5DBE 
 221      C33D28B4 
 221      1AA7AE02 
 221      3782
 222 0695 27033F28 		.ascii	"'\003?(S\202\007e!\307z\312~PJ\021\327\247o7\013\011"
 222      53820765 
 222      21C77ACA 
 222      7E504A11 
 222      D7A76F37 
 223 06ab 9D8E9825 		.ascii	"\235\216\230%\365-\264\323\334\322\"\307\372\322\353"
 223      F52DB4D3 
 223      DCD222C7 
 223      FAD2EB
 224 06ba D20F27E5 		.ascii	"\322\017'\345\354\240\334G\372\345\015\331\\~PNe\007"
 224      ECA0DC47 
 224      FAE50DD9 
ARM GAS  /tmp/ccyj3McZ.s 			page 17


 224      5C7E504E 
 224      6507
 225 06cc 06B219B9 		.ascii	"\006\262\031\271=\321\035\353~L\316\374$\235jI\241A"
 225      3DD11DEB 
 225      7E4CCEFC 
 225      249D6A49 
 225      A141
 226 06de 39B39EB5 		.ascii	"9\263\236\265\373\345\276\354\200*\347\324A\225\344"
 226      FBE5BEEC 
 226      802AE7D4 
 226      4195E4
 227 06ed 527D302E 		.ascii	"R}0.\327\373S\222Se\222\033h\225\037M\245\232\241\323"
 227      D7FB5392 
 227      5365921B 
 227      68951F4D 
 227      A59AA1D3 
 228 0701 AC0EAC53 		.ascii	"\254\016\254S{{\325^\353B&\233Q\233U\262.\335\274TY"
 228      7B7BD55E 
 228      EB42269B 
 228      519B55B2 
 228      2EDDBC54 
 229 0716 D6DCBA78 		.ascii	"\326\334\272x\311\322\037\267\312\334\0159\235I\365"
 229      C9D21FB7 
 229      CADC0D39 
 229      9D49F5
 230 0725 6FEC55E5 		.ascii	"o\354U\345\301|o:\223o\351C\365\033\341\367\276V%?\347"
 230      C17C6F3A 
 230      936FE943 
 230      F51BE1F7 
 230      BE56253F 
 231 073a C1875637 		.ascii	"\301\207V7\305\3200\376\377\221\030 \251\276tF\225\225"
 231      C5D030FE 
 231      FF911820 
 231      A9BE7446 
 231      9595
 232 074c 5E753DD9 		.ascii	"^u=\331\330\237W\362\2336\250\203@\352\026E1i\315\243"
 232      D89F57F2 
 232      9B36A883 
 232      40EA1645 
 232      3169CDA3 
 233 0760 B1E9CC90 		.ascii	"\261\351\314\220u\375\352\0325\225\317\346p&\274!\227"
 233      75FDEA1A 
 233      3595CFE6 
 233      7026BC21 
 233      97
 234 0771 CECEA7D7 		.ascii	"\316\316\247\327;\322\203\366\215\205\364JR\315'7\015"
 234      3BD283F6 
 234      8D85F44A 
 234      52CD2737 
 234      0D
 235 0782 E6D5812E 		.ascii	"\346\325\201.\222\351\355Ws=\340\232K\3477\325\365\351"
 235      92E9ED57 
 235      733DE09A 
 235      4BE737D5 
 235      F5E9
 236 0794 E70C2ED6 		.ascii	"\347\014.\326\017\212z\324\014\204\340\321::\3212%\037"
 236      0F8A7AD4 
ARM GAS  /tmp/ccyj3McZ.s 			page 18


 236      0C84E0D1 
 236      3A3AD132 
 236      251F
 237 07a6 D5A7845E 		.ascii	"\325\247\204^+\277f\306J\251\217\345\345Xw2\236\264"
 237      2BBF66C6 
 237      4AA98FE5 
 237      E5587732 
 237      9EB4
 238 07b8 D8A7B239 		.ascii	"\330\247\2629UI\015,\005\276\321\207\326\304c\312*`"
 238      55490D2C 
 238      05BED187 
 238      D6C463CA 
 238      2A60
 239 07ca 1F8E273B 		.ascii	"\037\216';\023\321"
 239      13D1
 240 07d0 4427D835 		.ascii	"D'\3305\235\035\213\303\361Xg\242>\241\237-\201\233"
 240      9D1D8BC3 
 240      F15867A2 
 240      3EA19F2D 
 240      819B
 241 07e2 3DF6CD56 		.ascii	"=\366\315V\270\3518\275/\034o_a\237.\225\342=\326\311"
 241      B8E938BD 
 241      2F1C6F5F 
 241      619F2E95 
 241      E23DD6C9 
 242 07f6 FDE1E4AA 		.ascii	"\375\341\344\252x\242>\031[\301&\211\304zV\307;`x2\021"
 242      78A23E19 
 242      5BC12689 
 242      C47A56C7 
 242      3B607832 
 243 080b 5EB3EAE1 		.ascii	"^\263\352\341D\244=\236\210%BIh1\372\333\325\023Iv\321"
 243      44A43D9E 
 243      88254249 
 243      6831FADB 
 243      D5134976 
 244 0820 9BB19560 		.ascii	"\233\261\225`\272\250\351\000\023\351\356^\331\236\010"
 244      BAA8E900 
 244      13E9EE5E 
 244      D99E08
 245 082f AFA0A61D 		.ascii	"\257\240\246\035\316C=+\023\241\016h\355\035\2110\334"
 245      CE433D2B 
 245      13A10E68 
 245      ED1D8930 
 245      DC
 246 0840 4B00BFF6 		.ascii	"K\000\277\366\004\200\267\307\022\341\024,w\275\242"
 246      0480B7C7 
 246      12E1142C 
 246      77BDA2
 247 084f ACDF9849 		.ascii	"\254\337\230I)\3127\314NK\333\342\266\266\377\002Gw"
 247      29CA37CC 
 247      4E4BDBE2 
 247      B6B6FF02 
 247      4777
 248 0861 9D1E     		.ascii	"\235\036"
 249              		.text
 250              		.section	.gnu.lto_.symtab.8d2a736a684303f0,"",%progbits
 251 0000 6E766963 		.ascii	"nvicEnableVector\000\000\000\000\000\000\000\000\000"
ARM GAS  /tmp/ccyj3McZ.s 			page 19


 251      456E6162 
 251      6C655665 
 251      63746F72 
 251      00000000 
 252 0019 000000A1 		.ascii	"\000\000\000\241\000\000\000nvicDisableVector\000\000"
 252      0000006E 
 252      76696344 
 252      69736162 
 252      6C655665 
 253 0033 00000000 		.ascii	"\000\000\000\000\000\000\000\000\000\000\262\000\000"
 253      00000000 
 253      0000B200 
 253      00
 254 0040 006E7669 		.ascii	"\000nvicSetSystemHandlerPriority\000\000\000\000\000"
 254      63536574 
 254      53797374 
 254      656D4861 
 254      6E646C65 
 255 0062 00000000 		.ascii	"\000\000\000\000\000\000\000\270\000\000\000nvicCle"
 255      000000B8 
 255      0000006E 
 255      76696343 
 255      6C65
 256 0074 61725065 		.ascii	"arPending\000\000\000\000\000\000\000\000\000\000\000"
 256      6E64696E 
 256      67000000 
 256      00000000 
 256      00000000 
 257 0088 00BE0000 		.ascii	"\000\276\000\000\000"
 257      00
 258              		.text
 259              		.section	.gnu.lto_.opts,"",%progbits
 260 0000 272D6D63 		.ascii	"'-mcpu=cortex-m4' '-mno-thumb-interwork' '-mthumb' "
 260      70753D63 
 260      6F727465 
 260      782D6D34 
 260      2720272D 
 261 0033 272D6767 		.ascii	"'-ggdb' '-O2' '-fomit-frame-pointer' '-falign-funct"
 261      64622720 
 261      272D4F32 
 261      2720272D 
 261      666F6D69 
 262 0066 696F6E73 		.ascii	"ions=16' '-ffunction-sections' '-fdata-sections' '-"
 262      3D313627 
 262      20272D66 
 262      66756E63 
 262      74696F6E 
 263 0099 666E6F2D 		.ascii	"fno-common' '-flto'\000"
 263      636F6D6D 
 263      6F6E2720 
 263      272D666C 
 263      746F2700 
 264              		.text
 265              		.cfi_sections	.debug_frame
 266              		.section	.text.nvicEnableVector,"ax",%progbits
 267              		.align	2
 268              		.p2align 4,,15
ARM GAS  /tmp/ccyj3McZ.s 			page 20


 269              		.global	nvicEnableVector
 270              		.thumb
 271              		.thumb_func
 272              		.type	nvicEnableVector, %function
 273              	nvicEnableVector:
 274              	.LFB270:
 275              		.file 1 "../ChibiOS/os/hal/ports/common/ARMCMx/nvic.c"
 276              		.loc 1 57 0
 277              		.cfi_startproc
 278              		@ args = 0, pretend = 0, frame = 0
 279              		@ frame_needed = 0, uses_anonymous_args = 0
 280              		@ link register save eliminated.
 281              	.LVL0:
 282              		.loc 1 65 0
 283 0000 4309     		lsrs	r3, r0, #5
 284 0002 9B00     		lsls	r3, r3, #2
 285              		.loc 1 63 0
 286 0004 00F16042 		add	r2, r0, #-536870912
 287 0008 03F16043 		add	r3, r3, #-536870912
 288              		.loc 1 57 0
 289 000c 10B4     		push	{r4}
 290              		.cfi_def_cfa_offset 4
 291              		.cfi_offset 4, -4
 292 000e 03F56143 		add	r3, r3, #57600
 293              		.loc 1 65 0
 294 0012 0124     		movs	r4, #1
 295              		.loc 1 63 0
 296 0014 0901     		lsls	r1, r1, #4
 297              	.LVL1:
 298 0016 02F56142 		add	r2, r2, #57600
 299              		.loc 1 65 0
 300 001a 00F01F00 		and	r0, r0, #31
 301              	.LVL2:
 302 001e 04FA00F0 		lsl	r0, r4, r0
 303              		.loc 1 63 0
 304 0022 C9B2     		uxtb	r1, r1
 305 0024 82F80013 		strb	r1, [r2, #768]
 306              		.loc 1 65 0
 307 0028 C3F88001 		str	r0, [r3, #384]
 308              		.loc 1 66 0
 309 002c 1860     		str	r0, [r3]
 310              		.loc 1 67 0
 311 002e 5DF8044B 		ldr	r4, [sp], #4
 312 0032 7047     		bx	lr
 313              		.cfi_endproc
 314              	.LFE270:
 315              		.size	nvicEnableVector, .-nvicEnableVector
 316 0034 AFF30080 		.section	.text.nvicDisableVector,"ax",%progbits
 316      AFF30080 
 316      AFF30080 
 317              		.align	2
 318              		.p2align 4,,15
 319              		.global	nvicDisableVector
 320              		.thumb
 321              		.thumb_func
 322              		.type	nvicDisableVector, %function
 323              	nvicDisableVector:
ARM GAS  /tmp/ccyj3McZ.s 			page 21


 324              	.LFB271:
 325              		.loc 1 74 0
 326              		.cfi_startproc
 327              		@ args = 0, pretend = 0, frame = 0
 328              		@ frame_needed = 0, uses_anonymous_args = 0
 329              		@ link register save eliminated.
 330              	.LVL3:
 331              		.loc 1 76 0
 332 0000 084B     		ldr	r3, .L3
 333 0002 4109     		lsrs	r1, r0, #5
 334              		.loc 1 74 0
 335 0004 10B4     		push	{r4}
 336              		.cfi_def_cfa_offset 4
 337              		.cfi_offset 4, -4
 338              		.loc 1 76 0
 339 0006 00F01F02 		and	r2, r0, #31
 340 000a 2031     		adds	r1, r1, #32
 341 000c 0124     		movs	r4, #1
 342              		.loc 1 80 0
 343 000e 1844     		add	r0, r0, r3
 344              	.LVL4:
 345              		.loc 1 76 0
 346 0010 9440     		lsls	r4, r4, r2
 347              		.loc 1 80 0
 348 0012 0022     		movs	r2, #0
 349              		.loc 1 76 0
 350 0014 43F82140 		str	r4, [r3, r1, lsl #2]
 351              		.loc 1 80 0
 352 0018 80F80023 		strb	r2, [r0, #768]
 353              		.loc 1 82 0
 354 001c 5DF8044B 		ldr	r4, [sp], #4
 355 0020 7047     		bx	lr
 356              	.L4:
 357 0022 00BF     		.align	2
 358              	.L3:
 359 0024 00E100E0 		.word	-536813312
 360              		.cfi_endproc
 361              	.LFE271:
 362              		.size	nvicDisableVector, .-nvicDisableVector
 363 0028 AFF30080 		.section	.text.nvicSetSystemHandlerPriority,"ax",%progbits
 363      AFF30080 
 364              		.align	2
 365              		.p2align 4,,15
 366              		.global	nvicSetSystemHandlerPriority
 367              		.thumb
 368              		.thumb_func
 369              		.type	nvicSetSystemHandlerPriority, %function
 370              	nvicSetSystemHandlerPriority:
 371              	.LFB272:
 372              		.loc 1 90 0
 373              		.cfi_startproc
 374              		@ args = 0, pretend = 0, frame = 0
 375              		@ frame_needed = 0, uses_anonymous_args = 0
 376              		@ link register save eliminated.
 377              	.LVL5:
 378              		.loc 1 100 0
 379 0000 00F16040 		add	r0, r0, #-536870912
ARM GAS  /tmp/ccyj3McZ.s 			page 22


 380              	.LVL6:
 381 0004 00F56D40 		add	r0, r0, #60672
 382              	.LVL7:
 383 0008 0901     		lsls	r1, r1, #4
 384              	.LVL8:
 385 000a C9B2     		uxtb	r1, r1
 386 000c 0176     		strb	r1, [r0, #24]
 387 000e 7047     		bx	lr
 388              		.cfi_endproc
 389              	.LFE272:
 390              		.size	nvicSetSystemHandlerPriority, .-nvicSetSystemHandlerPriority
 391              		.section	.text.nvicClearPending,"ax",%progbits
 392              		.align	2
 393              		.p2align 4,,15
 394              		.global	nvicClearPending
 395              		.thumb
 396              		.thumb_func
 397              		.type	nvicClearPending, %function
 398              	nvicClearPending:
 399              	.LFB273:
 400              		.loc 1 109 0
 401              		.cfi_startproc
 402              		@ args = 0, pretend = 0, frame = 0
 403              		@ frame_needed = 0, uses_anonymous_args = 0
 404              		@ link register save eliminated.
 405              	.LVL9:
 406              		.loc 1 111 0
 407 0000 4209     		lsrs	r2, r0, #5
 408 0002 6032     		adds	r2, r2, #96
 409 0004 00F01F00 		and	r0, r0, #31
 410              	.LVL10:
 411 0008 0121     		movs	r1, #1
 412 000a 034B     		ldr	r3, .L7
 413 000c 01FA00F0 		lsl	r0, r1, r0
 414 0010 43F82200 		str	r0, [r3, r2, lsl #2]
 415 0014 7047     		bx	lr
 416              	.L8:
 417 0016 00BF     		.align	2
 418              	.L7:
 419 0018 00E100E0 		.word	-536813312
 420              		.cfi_endproc
 421              	.LFE273:
 422              		.size	nvicClearPending, .-nvicClearPending
 423 001c AFF30080 		.text
 424              	.Letext0:
 425              		.file 2 "/nfs/nfs5/home/research/hardware/arm2/gcc-arm-embedded/gcc-arm-none-eabi-4_8-2014q2/arm-n
 426              		.file 3 "/nfs/nfs5/home/research/hardware/arm2/gcc-arm-embedded/gcc-arm-none-eabi-4_8-2014q2/arm-n
 427              		.file 4 "../ChibiOS/os/common/ports/ARMCMx/compilers/GCC/chtypes.h"
 428              		.file 5 "../ChibiOS/os/rt/include/chsystypes.h"
 429              		.file 6 "../ChibiOS/os/rt/include/chschd.h"
 430              		.file 7 "../ChibiOS/os/common/ext/CMSIS/include/core_cm4.h"
 431              		.file 8 "../ChibiOS/os/common/ports/ARMCMx/chcore.h"
 432              		.file 9 "../ChibiOS/os/common/ports/ARMCMx/chcore_v7m.h"
 433              		.file 10 "../ChibiOS/os/rt/include/chtm.h"
 434              		.file 11 "../ChibiOS/os/rt/include/chsem.h"
 435              		.file 12 "../ChibiOS/os/rt/include/chmtx.h"
 436              		.section	.debug_info,"",%progbits
ARM GAS  /tmp/ccyj3McZ.s 			page 23


 437              	.Ldebug_info0:
 438 0000 AA090000 		.4byte	0x9aa
 439 0004 0400     		.2byte	0x4
 440 0006 00000000 		.4byte	.Ldebug_abbrev0
 441 000a 04       		.byte	0x4
 442 000b 01       		.uleb128 0x1
 443 000c F8040000 		.4byte	.LASF124
 444 0010 01       		.byte	0x1
 445 0011 C5010000 		.4byte	.LASF125
 446 0015 4E030000 		.4byte	.LASF126
 447 0019 00000000 		.4byte	.Ldebug_ranges0+0
 448 001d 00000000 		.4byte	0
 449 0021 00000000 		.4byte	.Ldebug_line0
 450 0025 02       		.uleb128 0x2
 451 0026 04       		.byte	0x4
 452 0027 05       		.byte	0x5
 453 0028 696E7400 		.ascii	"int\000"
 454 002c 03       		.uleb128 0x3
 455 002d 04       		.byte	0x4
 456 002e 07       		.byte	0x7
 457 002f 78010000 		.4byte	.LASF0
 458 0033 03       		.uleb128 0x3
 459 0034 01       		.byte	0x1
 460 0035 06       		.byte	0x6
 461 0036 F5000000 		.4byte	.LASF1
 462 003a 04       		.uleb128 0x4
 463 003b 38000000 		.4byte	.LASF5
 464 003f 02       		.byte	0x2
 465 0040 1C       		.byte	0x1c
 466 0041 45000000 		.4byte	0x45
 467 0045 03       		.uleb128 0x3
 468 0046 01       		.byte	0x1
 469 0047 08       		.byte	0x8
 470 0048 9A030000 		.4byte	.LASF2
 471 004c 03       		.uleb128 0x3
 472 004d 02       		.byte	0x2
 473 004e 05       		.byte	0x5
 474 004f BB030000 		.4byte	.LASF3
 475 0053 03       		.uleb128 0x3
 476 0054 02       		.byte	0x2
 477 0055 07       		.byte	0x7
 478 0056 97040000 		.4byte	.LASF4
 479 005a 04       		.uleb128 0x4
 480 005b 54020000 		.4byte	.LASF6
 481 005f 02       		.byte	0x2
 482 0060 37       		.byte	0x37
 483 0061 65000000 		.4byte	0x65
 484 0065 03       		.uleb128 0x3
 485 0066 04       		.byte	0x4
 486 0067 05       		.byte	0x5
 487 0068 28010000 		.4byte	.LASF7
 488 006c 04       		.uleb128 0x4
 489 006d 45010000 		.4byte	.LASF8
 490 0071 02       		.byte	0x2
 491 0072 38       		.byte	0x38
 492 0073 77000000 		.4byte	0x77
 493 0077 03       		.uleb128 0x3
ARM GAS  /tmp/ccyj3McZ.s 			page 24


 494 0078 04       		.byte	0x4
 495 0079 07       		.byte	0x7
 496 007a 9E010000 		.4byte	.LASF9
 497 007e 03       		.uleb128 0x3
 498 007f 08       		.byte	0x8
 499 0080 05       		.byte	0x5
 500 0081 E7000000 		.4byte	.LASF10
 501 0085 04       		.uleb128 0x4
 502 0086 01030000 		.4byte	.LASF11
 503 008a 02       		.byte	0x2
 504 008b 4E       		.byte	0x4e
 505 008c 90000000 		.4byte	0x90
 506 0090 03       		.uleb128 0x3
 507 0091 08       		.byte	0x8
 508 0092 07       		.byte	0x7
 509 0093 62000000 		.4byte	.LASF12
 510 0097 04       		.uleb128 0x4
 511 0098 DC040000 		.4byte	.LASF13
 512 009c 03       		.byte	0x3
 513 009d 2A       		.byte	0x2a
 514 009e 3A000000 		.4byte	0x3a
 515 00a2 04       		.uleb128 0x4
 516 00a3 92030000 		.4byte	.LASF14
 517 00a7 03       		.byte	0x3
 518 00a8 41       		.byte	0x41
 519 00a9 5A000000 		.4byte	0x5a
 520 00ad 04       		.uleb128 0x4
 521 00ae 1F040000 		.4byte	.LASF15
 522 00b2 03       		.byte	0x3
 523 00b3 42       		.byte	0x42
 524 00b4 6C000000 		.4byte	0x6c
 525 00b8 04       		.uleb128 0x4
 526 00b9 2F000000 		.4byte	.LASF16
 527 00bd 03       		.byte	0x3
 528 00be 4E       		.byte	0x4e
 529 00bf 85000000 		.4byte	0x85
 530 00c3 04       		.uleb128 0x4
 531 00c4 AA040000 		.4byte	.LASF17
 532 00c8 04       		.byte	0x4
 533 00c9 39       		.byte	0x39
 534 00ca AD000000 		.4byte	0xad
 535 00ce 04       		.uleb128 0x4
 536 00cf 32020000 		.4byte	.LASF18
 537 00d3 04       		.byte	0x4
 538 00d4 3C       		.byte	0x3c
 539 00d5 97000000 		.4byte	0x97
 540 00d9 04       		.uleb128 0x4
 541 00da 31010000 		.4byte	.LASF19
 542 00de 04       		.byte	0x4
 543 00df 3D       		.byte	0x3d
 544 00e0 97000000 		.4byte	0x97
 545 00e4 04       		.uleb128 0x4
 546 00e5 0C030000 		.4byte	.LASF20
 547 00e9 04       		.byte	0x4
 548 00ea 3E       		.byte	0x3e
 549 00eb 97000000 		.4byte	0x97
 550 00ef 04       		.uleb128 0x4
ARM GAS  /tmp/ccyj3McZ.s 			page 25


 551 00f0 46030000 		.4byte	.LASF21
 552 00f4 04       		.byte	0x4
 553 00f5 40       		.byte	0x40
 554 00f6 AD000000 		.4byte	0xad
 555 00fa 04       		.uleb128 0x4
 556 00fb 06020000 		.4byte	.LASF22
 557 00ff 04       		.byte	0x4
 558 0100 41       		.byte	0x41
 559 0101 A2000000 		.4byte	0xa2
 560 0105 04       		.uleb128 0x4
 561 0106 48020000 		.4byte	.LASF23
 562 010a 04       		.byte	0x4
 563 010b 43       		.byte	0x43
 564 010c AD000000 		.4byte	0xad
 565 0110 04       		.uleb128 0x4
 566 0111 72010000 		.4byte	.LASF24
 567 0115 04       		.byte	0x4
 568 0116 45       		.byte	0x45
 569 0117 A2000000 		.4byte	0xa2
 570 011b 04       		.uleb128 0x4
 571 011c 65040000 		.4byte	.LASF25
 572 0120 05       		.byte	0x5
 573 0121 33       		.byte	0x33
 574 0122 AD000000 		.4byte	0xad
 575 0126 04       		.uleb128 0x4
 576 0127 5C040000 		.4byte	.LASF26
 577 012b 05       		.byte	0x5
 578 012c 3F       		.byte	0x3f
 579 012d 31010000 		.4byte	0x131
 580 0131 05       		.uleb128 0x5
 581 0132 F2010000 		.4byte	.LASF44
 582 0136 44       		.byte	0x44
 583 0137 06       		.byte	0x6
 584 0138 9A       		.byte	0x9a
 585 0139 0F020000 		.4byte	0x20f
 586 013d 06       		.uleb128 0x6
 587 013e 3F010000 		.4byte	.LASF27
 588 0142 06       		.byte	0x6
 589 0143 9B       		.byte	0x9b
 590 0144 44020000 		.4byte	0x244
 591 0148 00       		.byte	0
 592 0149 06       		.uleb128 0x6
 593 014a F4020000 		.4byte	.LASF28
 594 014e 06       		.byte	0x6
 595 014f 9C       		.byte	0x9c
 596 0150 EF000000 		.4byte	0xef
 597 0154 08       		.byte	0x8
 598 0155 07       		.uleb128 0x7
 599 0156 63747800 		.ascii	"ctx\000"
 600 015a 06       		.byte	0x6
 601 015b 9D       		.byte	0x9d
 602 015c 07070000 		.4byte	0x707
 603 0160 0C       		.byte	0xc
 604 0161 06       		.uleb128 0x6
 605 0162 B2040000 		.4byte	.LASF29
 606 0166 06       		.byte	0x6
 607 0167 9F       		.byte	0x9f
ARM GAS  /tmp/ccyj3McZ.s 			page 26


 608 0168 1A020000 		.4byte	0x21a
 609 016c 10       		.byte	0x10
 610 016d 06       		.uleb128 0x6
 611 016e 56040000 		.4byte	.LASF30
 612 0172 06       		.byte	0x6
 613 0173 A0       		.byte	0xa0
 614 0174 1A020000 		.4byte	0x21a
 615 0178 14       		.byte	0x14
 616 0179 06       		.uleb128 0x6
 617 017a B5010000 		.4byte	.LASF31
 618 017e 06       		.byte	0x6
 619 017f A7       		.byte	0xa7
 620 0180 8C080000 		.4byte	0x88c
 621 0184 18       		.byte	0x18
 622 0185 06       		.uleb128 0x6
 623 0186 4A040000 		.4byte	.LASF32
 624 018a 06       		.byte	0x6
 625 018b B0       		.byte	0xb0
 626 018c 9E080000 		.4byte	0x89e
 627 0190 1C       		.byte	0x1c
 628 0191 06       		.uleb128 0x6
 629 0192 22010000 		.4byte	.LASF33
 630 0196 06       		.byte	0x6
 631 0197 B5       		.byte	0xb5
 632 0198 D9000000 		.4byte	0xd9
 633 019c 20       		.byte	0x20
 634 019d 06       		.uleb128 0x6
 635 019e E4040000 		.4byte	.LASF34
 636 01a2 06       		.byte	0x6
 637 01a3 B9       		.byte	0xb9
 638 01a4 CE000000 		.4byte	0xce
 639 01a8 21       		.byte	0x21
 640 01a9 06       		.uleb128 0x6
 641 01aa DD000000 		.4byte	.LASF35
 642 01ae 06       		.byte	0x6
 643 01af BE       		.byte	0xbe
 644 01b0 E4000000 		.4byte	0xe4
 645 01b4 22       		.byte	0x22
 646 01b5 08       		.uleb128 0x8
 647 01b6 7500     		.ascii	"u\000"
 648 01b8 06       		.byte	0x6
 649 01b9 0F01     		.2byte	0x10f
 650 01bb C1070000 		.4byte	0x7c1
 651 01bf 24       		.byte	0x24
 652 01c0 09       		.uleb128 0x9
 653 01c1 62010000 		.4byte	.LASF36
 654 01c5 06       		.byte	0x6
 655 01c6 1401     		.2byte	0x114
 656 01c8 20020000 		.4byte	0x220
 657 01cc 28       		.byte	0x28
 658 01cd 09       		.uleb128 0x9
 659 01ce 19010000 		.4byte	.LASF37
 660 01d2 06       		.byte	0x6
 661 01d3 1A01     		.2byte	0x11a
 662 01d5 44020000 		.4byte	0x244
 663 01d9 2C       		.byte	0x2c
 664 01da 09       		.uleb128 0x9
ARM GAS  /tmp/ccyj3McZ.s 			page 27


 665 01db 17020000 		.4byte	.LASF38
 666 01df 06       		.byte	0x6
 667 01e0 2001     		.2byte	0x120
 668 01e2 05010000 		.4byte	0x105
 669 01e6 34       		.byte	0x34
 670 01e7 09       		.uleb128 0x9
 671 01e8 EA050000 		.4byte	.LASF39
 672 01ec 06       		.byte	0x6
 673 01ed 2701     		.2byte	0x127
 674 01ef 86080000 		.4byte	0x886
 675 01f3 38       		.byte	0x38
 676 01f4 09       		.uleb128 0x9
 677 01f5 8B020000 		.4byte	.LASF40
 678 01f9 06       		.byte	0x6
 679 01fa 2B01     		.2byte	0x12b
 680 01fc EF000000 		.4byte	0xef
 681 0200 3C       		.byte	0x3c
 682 0201 09       		.uleb128 0x9
 683 0202 BF010000 		.4byte	.LASF41
 684 0206 06       		.byte	0x6
 685 0207 3201     		.2byte	0x132
 686 0209 F7020000 		.4byte	0x2f7
 687 020d 40       		.byte	0x40
 688 020e 00       		.byte	0
 689 020f 04       		.uleb128 0x4
 690 0210 9D020000 		.4byte	.LASF42
 691 0214 05       		.byte	0x5
 692 0215 44       		.byte	0x44
 693 0216 1A020000 		.4byte	0x21a
 694 021a 0A       		.uleb128 0xa
 695 021b 04       		.byte	0x4
 696 021c 26010000 		.4byte	0x126
 697 0220 04       		.uleb128 0x4
 698 0221 00000000 		.4byte	.LASF43
 699 0225 05       		.byte	0x5
 700 0226 49       		.byte	0x49
 701 0227 2B020000 		.4byte	0x22b
 702 022b 05       		.uleb128 0x5
 703 022c 34040000 		.4byte	.LASF45
 704 0230 04       		.byte	0x4
 705 0231 06       		.byte	0x6
 706 0232 88       		.byte	0x88
 707 0233 44020000 		.4byte	0x244
 708 0237 06       		.uleb128 0x6
 709 0238 B1000000 		.4byte	.LASF46
 710 023c 06       		.byte	0x6
 711 023d 89       		.byte	0x89
 712 023e 1A020000 		.4byte	0x21a
 713 0242 00       		.byte	0
 714 0243 00       		.byte	0
 715 0244 04       		.uleb128 0x4
 716 0245 B8040000 		.4byte	.LASF47
 717 0249 05       		.byte	0x5
 718 024a 50       		.byte	0x50
 719 024b 4F020000 		.4byte	0x24f
 720 024f 05       		.uleb128 0x5
 721 0250 B6000000 		.4byte	.LASF48
ARM GAS  /tmp/ccyj3McZ.s 			page 28


 722 0254 08       		.byte	0x8
 723 0255 06       		.byte	0x6
 724 0256 8F       		.byte	0x8f
 725 0257 74020000 		.4byte	0x274
 726 025b 06       		.uleb128 0x6
 727 025c B1000000 		.4byte	.LASF46
 728 0260 06       		.byte	0x6
 729 0261 90       		.byte	0x90
 730 0262 1A020000 		.4byte	0x21a
 731 0266 00       		.byte	0
 732 0267 06       		.uleb128 0x6
 733 0268 42000000 		.4byte	.LASF49
 734 026c 06       		.byte	0x6
 735 026d 91       		.byte	0x91
 736 026e 1A020000 		.4byte	0x21a
 737 0272 04       		.byte	0x4
 738 0273 00       		.byte	0
 739 0274 04       		.uleb128 0x4
 740 0275 0F000000 		.4byte	.LASF50
 741 0279 05       		.byte	0x5
 742 027a 57       		.byte	0x57
 743 027b 7F020000 		.4byte	0x27f
 744 027f 0B       		.uleb128 0xb
 745 0280 3A020000 		.4byte	.LASF51
 746 0284 1C       		.byte	0x1c
 747 0285 06       		.byte	0x6
 748 0286 6A01     		.2byte	0x16a
 749 0288 DB020000 		.4byte	0x2db
 750 028c 09       		.uleb128 0x9
 751 028d 3F010000 		.4byte	.LASF27
 752 0291 06       		.byte	0x6
 753 0292 6B01     		.2byte	0x16b
 754 0294 44020000 		.4byte	0x244
 755 0298 00       		.byte	0
 756 0299 09       		.uleb128 0x9
 757 029a F4020000 		.4byte	.LASF28
 758 029e 06       		.byte	0x6
 759 029f 6C01     		.2byte	0x16c
 760 02a1 EF000000 		.4byte	0xef
 761 02a5 08       		.byte	0x8
 762 02a6 08       		.uleb128 0x8
 763 02a7 63747800 		.ascii	"ctx\000"
 764 02ab 06       		.byte	0x6
 765 02ac 6E01     		.2byte	0x16e
 766 02ae 07070000 		.4byte	0x707
 767 02b2 0C       		.byte	0xc
 768 02b3 09       		.uleb128 0x9
 769 02b4 B2040000 		.4byte	.LASF29
 770 02b8 06       		.byte	0x6
 771 02b9 7101     		.2byte	0x171
 772 02bb 1A020000 		.4byte	0x21a
 773 02bf 10       		.byte	0x10
 774 02c0 09       		.uleb128 0x9
 775 02c1 56040000 		.4byte	.LASF30
 776 02c5 06       		.byte	0x6
 777 02c6 7201     		.2byte	0x172
 778 02c8 1A020000 		.4byte	0x21a
ARM GAS  /tmp/ccyj3McZ.s 			page 29


 779 02cc 14       		.byte	0x14
 780 02cd 09       		.uleb128 0x9
 781 02ce F9020000 		.4byte	.LASF52
 782 02d2 06       		.byte	0x6
 783 02d3 7501     		.2byte	0x175
 784 02d5 1A020000 		.4byte	0x21a
 785 02d9 18       		.byte	0x18
 786 02da 00       		.byte	0
 787 02db 04       		.uleb128 0x4
 788 02dc 6F040000 		.4byte	.LASF53
 789 02e0 05       		.byte	0x5
 790 02e1 5C       		.byte	0x5c
 791 02e2 E6020000 		.4byte	0x2e6
 792 02e6 0A       		.uleb128 0xa
 793 02e7 04       		.byte	0x4
 794 02e8 EC020000 		.4byte	0x2ec
 795 02ec 0C       		.uleb128 0xc
 796 02ed F7020000 		.4byte	0x2f7
 797 02f1 0D       		.uleb128 0xd
 798 02f2 F7020000 		.4byte	0x2f7
 799 02f6 00       		.byte	0
 800 02f7 0E       		.uleb128 0xe
 801 02f8 04       		.byte	0x4
 802 02f9 04       		.uleb128 0x4
 803 02fa 7B020000 		.4byte	.LASF54
 804 02fe 05       		.byte	0x5
 805 02ff 61       		.byte	0x61
 806 0300 04030000 		.4byte	0x304
 807 0304 0B       		.uleb128 0xb
 808 0305 01040000 		.4byte	.LASF55
 809 0309 14       		.byte	0x14
 810 030a 06       		.byte	0x6
 811 030b 4501     		.2byte	0x145
 812 030d 53030000 		.4byte	0x353
 813 0311 09       		.uleb128 0x9
 814 0312 B1000000 		.4byte	.LASF46
 815 0316 06       		.byte	0x6
 816 0317 4601     		.2byte	0x146
 817 0319 A4080000 		.4byte	0x8a4
 818 031d 00       		.byte	0
 819 031e 09       		.uleb128 0x9
 820 031f 42000000 		.4byte	.LASF49
 821 0323 06       		.byte	0x6
 822 0324 4701     		.2byte	0x147
 823 0326 A4080000 		.4byte	0x8a4
 824 032a 04       		.byte	0x4
 825 032b 09       		.uleb128 0x9
 826 032c 22000000 		.4byte	.LASF56
 827 0330 06       		.byte	0x6
 828 0331 4801     		.2byte	0x148
 829 0333 1B010000 		.4byte	0x11b
 830 0337 08       		.byte	0x8
 831 0338 09       		.uleb128 0x9
 832 0339 3A010000 		.4byte	.LASF57
 833 033d 06       		.byte	0x6
 834 033e 4901     		.2byte	0x149
 835 0340 DB020000 		.4byte	0x2db
ARM GAS  /tmp/ccyj3McZ.s 			page 30


 836 0344 0C       		.byte	0xc
 837 0345 08       		.uleb128 0x8
 838 0346 70617200 		.ascii	"par\000"
 839 034a 06       		.byte	0x6
 840 034b 4B01     		.2byte	0x14b
 841 034d F7020000 		.4byte	0x2f7
 842 0351 10       		.byte	0x10
 843 0352 00       		.byte	0
 844 0353 04       		.uleb128 0x4
 845 0354 95000000 		.4byte	.LASF58
 846 0358 05       		.byte	0x5
 847 0359 66       		.byte	0x66
 848 035a 5E030000 		.4byte	0x35e
 849 035e 0B       		.uleb128 0xb
 850 035f B0020000 		.4byte	.LASF59
 851 0363 10       		.byte	0x10
 852 0364 06       		.byte	0x6
 853 0365 5501     		.2byte	0x155
 854 0367 A0030000 		.4byte	0x3a0
 855 036b 09       		.uleb128 0x9
 856 036c B1000000 		.4byte	.LASF46
 857 0370 06       		.byte	0x6
 858 0371 5601     		.2byte	0x156
 859 0373 A4080000 		.4byte	0x8a4
 860 0377 00       		.byte	0
 861 0378 09       		.uleb128 0x9
 862 0379 42000000 		.4byte	.LASF49
 863 037d 06       		.byte	0x6
 864 037e 5801     		.2byte	0x158
 865 0380 A4080000 		.4byte	0x8a4
 866 0384 04       		.byte	0x4
 867 0385 09       		.uleb128 0x9
 868 0386 22000000 		.4byte	.LASF56
 869 038a 06       		.byte	0x6
 870 038b 5A01     		.2byte	0x15a
 871 038d 1B010000 		.4byte	0x11b
 872 0391 08       		.byte	0x8
 873 0392 09       		.uleb128 0x9
 874 0393 CA030000 		.4byte	.LASF60
 875 0397 06       		.byte	0x6
 876 0398 6201     		.2byte	0x162
 877 039a 1B010000 		.4byte	0x11b
 878 039e 0C       		.byte	0xc
 879 039f 00       		.byte	0
 880 03a0 04       		.uleb128 0x4
 881 03a1 53000000 		.4byte	.LASF61
 882 03a5 05       		.byte	0x5
 883 03a6 6B       		.byte	0x6b
 884 03a7 AB030000 		.4byte	0x3ab
 885 03ab 0B       		.uleb128 0xb
 886 03ac 7C030000 		.4byte	.LASF62
 887 03b0 04       		.byte	0x4
 888 03b1 06       		.byte	0x6
 889 03b2 7C01     		.2byte	0x17c
 890 03b4 C6030000 		.4byte	0x3c6
 891 03b8 09       		.uleb128 0x9
 892 03b9 86040000 		.4byte	.LASF63
ARM GAS  /tmp/ccyj3McZ.s 			page 31


 893 03bd 06       		.byte	0x6
 894 03be 8401     		.2byte	0x184
 895 03c0 AA080000 		.4byte	0x8aa
 896 03c4 00       		.byte	0
 897 03c5 00       		.byte	0
 898 03c6 04       		.uleb128 0x4
 899 03c7 26020000 		.4byte	.LASF64
 900 03cb 05       		.byte	0x5
 901 03cc 70       		.byte	0x70
 902 03cd D1030000 		.4byte	0x3d1
 903 03d1 0B       		.uleb128 0xb
 904 03d2 F7030000 		.4byte	.LASF65
 905 03d6 78       		.byte	0x78
 906 03d7 06       		.byte	0x6
 907 03d8 9C01     		.2byte	0x19c
 908 03da 1F040000 		.4byte	0x41f
 909 03de 09       		.uleb128 0x9
 910 03df D6040000 		.4byte	.LASF66
 911 03e3 06       		.byte	0x6
 912 03e4 A001     		.2byte	0x1a0
 913 03e6 74020000 		.4byte	0x274
 914 03ea 00       		.byte	0
 915 03eb 09       		.uleb128 0x9
 916 03ec 12010000 		.4byte	.LASF67
 917 03f0 06       		.byte	0x6
 918 03f1 A401     		.2byte	0x1a4
 919 03f3 53030000 		.4byte	0x353
 920 03f7 1C       		.byte	0x1c
 921 03f8 08       		.uleb128 0x8
 922 03f9 64626700 		.ascii	"dbg\000"
 923 03fd 06       		.byte	0x6
 924 03fe A801     		.2byte	0x1a8
 925 0400 A0030000 		.4byte	0x3a0
 926 0404 2C       		.byte	0x2c
 927 0405 09       		.uleb128 0x9
 928 0406 82000000 		.4byte	.LASF68
 929 040a 06       		.byte	0x6
 930 040b AC01     		.2byte	0x1ac
 931 040d 26010000 		.4byte	0x126
 932 0411 30       		.byte	0x30
 933 0412 08       		.uleb128 0x8
 934 0413 746D00   		.ascii	"tm\000"
 935 0416 06       		.byte	0x6
 936 0417 B101     		.2byte	0x1b1
 937 0419 B6070000 		.4byte	0x7b6
 938 041d 74       		.byte	0x74
 939 041e 00       		.byte	0
 940 041f 0F       		.uleb128 0xf
 941 0420 040E     		.2byte	0xe04
 942 0422 07       		.byte	0x7
 943 0423 C301     		.2byte	0x1c3
 944 0425 DB040000 		.4byte	0x4db
 945 0429 09       		.uleb128 0x9
 946 042a C5030000 		.4byte	.LASF69
 947 042e 07       		.byte	0x7
 948 042f C501     		.2byte	0x1c5
 949 0431 F2040000 		.4byte	0x4f2
ARM GAS  /tmp/ccyj3McZ.s 			page 32


 950 0435 00       		.byte	0
 951 0436 09       		.uleb128 0x9
 952 0437 14030000 		.4byte	.LASF70
 953 043b 07       		.byte	0x7
 954 043c C601     		.2byte	0x1c6
 955 043e F7040000 		.4byte	0x4f7
 956 0442 20       		.byte	0x20
 957 0443 09       		.uleb128 0x9
 958 0444 EF020000 		.4byte	.LASF71
 959 0448 07       		.byte	0x7
 960 0449 C701     		.2byte	0x1c7
 961 044b 07050000 		.4byte	0x507
 962 044f 80       		.byte	0x80
 963 0450 09       		.uleb128 0x9
 964 0451 EA040000 		.4byte	.LASF72
 965 0455 07       		.byte	0x7
 966 0456 C801     		.2byte	0x1c8
 967 0458 F7040000 		.4byte	0x4f7
 968 045c A0       		.byte	0xa0
 969 045d 10       		.uleb128 0x10
 970 045e C7000000 		.4byte	.LASF73
 971 0462 07       		.byte	0x7
 972 0463 C901     		.2byte	0x1c9
 973 0465 0C050000 		.4byte	0x50c
 974 0469 0001     		.2byte	0x100
 975 046b 10       		.uleb128 0x10
 976 046c 1E030000 		.4byte	.LASF74
 977 0470 07       		.byte	0x7
 978 0471 CA01     		.2byte	0x1ca
 979 0473 F7040000 		.4byte	0x4f7
 980 0477 2001     		.2byte	0x120
 981 0479 10       		.uleb128 0x10
 982 047a B0010000 		.4byte	.LASF75
 983 047e 07       		.byte	0x7
 984 047f CB01     		.2byte	0x1cb
 985 0481 11050000 		.4byte	0x511
 986 0485 8001     		.2byte	0x180
 987 0487 10       		.uleb128 0x10
 988 0488 28030000 		.4byte	.LASF76
 989 048c 07       		.byte	0x7
 990 048d CC01     		.2byte	0x1cc
 991 048f F7040000 		.4byte	0x4f7
 992 0493 A001     		.2byte	0x1a0
 993 0495 10       		.uleb128 0x10
 994 0496 CC020000 		.4byte	.LASF77
 995 049a 07       		.byte	0x7
 996 049b CD01     		.2byte	0x1cd
 997 049d 16050000 		.4byte	0x516
 998 04a1 0002     		.2byte	0x200
 999 04a3 10       		.uleb128 0x10
 1000 04a4 32030000 		.4byte	.LASF78
 1001 04a8 07       		.byte	0x7
 1002 04a9 CE01     		.2byte	0x1ce
 1003 04ab 1B050000 		.4byte	0x51b
 1004 04af 2002     		.2byte	0x220
 1005 04b1 11       		.uleb128 0x11
 1006 04b2 495000   		.ascii	"IP\000"
ARM GAS  /tmp/ccyj3McZ.s 			page 33


 1007 04b5 07       		.byte	0x7
 1008 04b6 CF01     		.2byte	0x1cf
 1009 04b8 3B050000 		.4byte	0x53b
 1010 04bc 0003     		.2byte	0x300
 1011 04be 10       		.uleb128 0x10
 1012 04bf 3C030000 		.4byte	.LASF79
 1013 04c3 07       		.byte	0x7
 1014 04c4 D001     		.2byte	0x1d0
 1015 04c6 40050000 		.4byte	0x540
 1016 04ca F003     		.2byte	0x3f0
 1017 04cc 10       		.uleb128 0x10
 1018 04cd F3040000 		.4byte	.LASF80
 1019 04d1 07       		.byte	0x7
 1020 04d2 D101     		.2byte	0x1d1
 1021 04d4 51050000 		.4byte	0x551
 1022 04d8 000E     		.2byte	0xe00
 1023 04da 00       		.byte	0
 1024 04db 12       		.uleb128 0x12
 1025 04dc AD000000 		.4byte	0xad
 1026 04e0 EB040000 		.4byte	0x4eb
 1027 04e4 13       		.uleb128 0x13
 1028 04e5 EB040000 		.4byte	0x4eb
 1029 04e9 07       		.byte	0x7
 1030 04ea 00       		.byte	0
 1031 04eb 03       		.uleb128 0x3
 1032 04ec 04       		.byte	0x4
 1033 04ed 07       		.byte	0x7
 1034 04ee 94020000 		.4byte	.LASF81
 1035 04f2 14       		.uleb128 0x14
 1036 04f3 DB040000 		.4byte	0x4db
 1037 04f7 12       		.uleb128 0x12
 1038 04f8 AD000000 		.4byte	0xad
 1039 04fc 07050000 		.4byte	0x507
 1040 0500 13       		.uleb128 0x13
 1041 0501 EB040000 		.4byte	0x4eb
 1042 0505 17       		.byte	0x17
 1043 0506 00       		.byte	0
 1044 0507 14       		.uleb128 0x14
 1045 0508 DB040000 		.4byte	0x4db
 1046 050c 14       		.uleb128 0x14
 1047 050d DB040000 		.4byte	0x4db
 1048 0511 14       		.uleb128 0x14
 1049 0512 DB040000 		.4byte	0x4db
 1050 0516 14       		.uleb128 0x14
 1051 0517 DB040000 		.4byte	0x4db
 1052 051b 12       		.uleb128 0x12
 1053 051c AD000000 		.4byte	0xad
 1054 0520 2B050000 		.4byte	0x52b
 1055 0524 13       		.uleb128 0x13
 1056 0525 EB040000 		.4byte	0x4eb
 1057 0529 37       		.byte	0x37
 1058 052a 00       		.byte	0
 1059 052b 12       		.uleb128 0x12
 1060 052c 97000000 		.4byte	0x97
 1061 0530 3B050000 		.4byte	0x53b
 1062 0534 13       		.uleb128 0x13
 1063 0535 EB040000 		.4byte	0x4eb
ARM GAS  /tmp/ccyj3McZ.s 			page 34


 1064 0539 EF       		.byte	0xef
 1065 053a 00       		.byte	0
 1066 053b 14       		.uleb128 0x14
 1067 053c 2B050000 		.4byte	0x52b
 1068 0540 12       		.uleb128 0x12
 1069 0541 AD000000 		.4byte	0xad
 1070 0545 51050000 		.4byte	0x551
 1071 0549 15       		.uleb128 0x15
 1072 054a EB040000 		.4byte	0x4eb
 1073 054e 8302     		.2byte	0x283
 1074 0550 00       		.byte	0
 1075 0551 14       		.uleb128 0x14
 1076 0552 AD000000 		.4byte	0xad
 1077 0556 16       		.uleb128 0x16
 1078 0557 69020000 		.4byte	.LASF82
 1079 055b 07       		.byte	0x7
 1080 055c D201     		.2byte	0x1d2
 1081 055e 1F040000 		.4byte	0x41f
 1082 0562 17       		.uleb128 0x17
 1083 0563 8C       		.byte	0x8c
 1084 0564 07       		.byte	0x7
 1085 0565 E501     		.2byte	0x1e5
 1086 0567 7D060000 		.4byte	0x67d
 1087 056b 09       		.uleb128 0x9
 1088 056c AB000000 		.4byte	.LASF83
 1089 0570 07       		.byte	0x7
 1090 0571 E701     		.2byte	0x1e7
 1091 0573 7D060000 		.4byte	0x67d
 1092 0577 00       		.byte	0
 1093 0578 09       		.uleb128 0x9
 1094 0579 01020000 		.4byte	.LASF84
 1095 057d 07       		.byte	0x7
 1096 057e E801     		.2byte	0x1e8
 1097 0580 51050000 		.4byte	0x551
 1098 0584 04       		.byte	0x4
 1099 0585 09       		.uleb128 0x9
 1100 0586 BA010000 		.4byte	.LASF85
 1101 058a 07       		.byte	0x7
 1102 058b E901     		.2byte	0x1e9
 1103 058d 51050000 		.4byte	0x551
 1104 0591 08       		.byte	0x8
 1105 0592 09       		.uleb128 0x9
 1106 0593 0C020000 		.4byte	.LASF86
 1107 0597 07       		.byte	0x7
 1108 0598 EA01     		.2byte	0x1ea
 1109 059a 51050000 		.4byte	0x551
 1110 059e 0C       		.byte	0xc
 1111 059f 08       		.uleb128 0x8
 1112 05a0 53435200 		.ascii	"SCR\000"
 1113 05a4 07       		.byte	0x7
 1114 05a5 EB01     		.2byte	0x1eb
 1115 05a7 51050000 		.4byte	0x551
 1116 05ab 10       		.byte	0x10
 1117 05ac 08       		.uleb128 0x8
 1118 05ad 43435200 		.ascii	"CCR\000"
 1119 05b1 07       		.byte	0x7
 1120 05b2 EC01     		.2byte	0x1ec
ARM GAS  /tmp/ccyj3McZ.s 			page 35


 1121 05b4 51050000 		.4byte	0x551
 1122 05b8 14       		.byte	0x14
 1123 05b9 08       		.uleb128 0x8
 1124 05ba 53485000 		.ascii	"SHP\000"
 1125 05be 07       		.byte	0x7
 1126 05bf ED01     		.2byte	0x1ed
 1127 05c1 92060000 		.4byte	0x692
 1128 05c5 18       		.byte	0x18
 1129 05c6 09       		.uleb128 0x9
 1130 05c7 A8030000 		.4byte	.LASF87
 1131 05cb 07       		.byte	0x7
 1132 05cc EE01     		.2byte	0x1ee
 1133 05ce 51050000 		.4byte	0x551
 1134 05d2 24       		.byte	0x24
 1135 05d3 09       		.uleb128 0x9
 1136 05d4 C7020000 		.4byte	.LASF88
 1137 05d8 07       		.byte	0x7
 1138 05d9 EF01     		.2byte	0x1ef
 1139 05db 51050000 		.4byte	0x551
 1140 05df 28       		.byte	0x28
 1141 05e0 09       		.uleb128 0x9
 1142 05e1 E5050000 		.4byte	.LASF89
 1143 05e5 07       		.byte	0x7
 1144 05e6 F001     		.2byte	0x1f0
 1145 05e8 51050000 		.4byte	0x551
 1146 05ec 2C       		.byte	0x2c
 1147 05ed 09       		.uleb128 0x9
 1148 05ee 12020000 		.4byte	.LASF90
 1149 05f2 07       		.byte	0x7
 1150 05f3 F101     		.2byte	0x1f1
 1151 05f5 51050000 		.4byte	0x551
 1152 05f9 30       		.byte	0x30
 1153 05fa 09       		.uleb128 0x9
 1154 05fb 20020000 		.4byte	.LASF91
 1155 05ff 07       		.byte	0x7
 1156 0600 F201     		.2byte	0x1f2
 1157 0602 51050000 		.4byte	0x551
 1158 0606 34       		.byte	0x34
 1159 0607 09       		.uleb128 0x9
 1160 0608 FC010000 		.4byte	.LASF92
 1161 060c 07       		.byte	0x7
 1162 060d F301     		.2byte	0x1f3
 1163 060f 51050000 		.4byte	0x551
 1164 0613 38       		.byte	0x38
 1165 0614 09       		.uleb128 0x9
 1166 0615 2F040000 		.4byte	.LASF93
 1167 0619 07       		.byte	0x7
 1168 061a F401     		.2byte	0x1f4
 1169 061c 51050000 		.4byte	0x551
 1170 0620 3C       		.byte	0x3c
 1171 0621 08       		.uleb128 0x8
 1172 0622 50465200 		.ascii	"PFR\000"
 1173 0626 07       		.byte	0x7
 1174 0627 F501     		.2byte	0x1f5
 1175 0629 A7060000 		.4byte	0x6a7
 1176 062d 40       		.byte	0x40
 1177 062e 08       		.uleb128 0x8
ARM GAS  /tmp/ccyj3McZ.s 			page 36


 1178 062f 44465200 		.ascii	"DFR\000"
 1179 0633 07       		.byte	0x7
 1180 0634 F601     		.2byte	0x1f6
 1181 0636 7D060000 		.4byte	0x67d
 1182 063a 48       		.byte	0x48
 1183 063b 08       		.uleb128 0x8
 1184 063c 41445200 		.ascii	"ADR\000"
 1185 0640 07       		.byte	0x7
 1186 0641 F701     		.2byte	0x1f7
 1187 0643 7D060000 		.4byte	0x67d
 1188 0647 4C       		.byte	0x4c
 1189 0648 09       		.uleb128 0x9
 1190 0649 D1040000 		.4byte	.LASF94
 1191 064d 07       		.byte	0x7
 1192 064e F801     		.2byte	0x1f8
 1193 0650 C1060000 		.4byte	0x6c1
 1194 0654 50       		.byte	0x50
 1195 0655 09       		.uleb128 0x9
 1196 0656 E2000000 		.4byte	.LASF95
 1197 065a 07       		.byte	0x7
 1198 065b F901     		.2byte	0x1f9
 1199 065d DB060000 		.4byte	0x6db
 1200 0661 60       		.byte	0x60
 1201 0662 09       		.uleb128 0x9
 1202 0663 14030000 		.4byte	.LASF70
 1203 0667 07       		.byte	0x7
 1204 0668 FA01     		.2byte	0x1fa
 1205 066a CB060000 		.4byte	0x6cb
 1206 066e 74       		.byte	0x74
 1207 066f 09       		.uleb128 0x9
 1208 0670 DF050000 		.4byte	.LASF96
 1209 0674 07       		.byte	0x7
 1210 0675 FB01     		.2byte	0x1fb
 1211 0677 51050000 		.4byte	0x551
 1212 067b 88       		.byte	0x88
 1213 067c 00       		.byte	0
 1214 067d 18       		.uleb128 0x18
 1215 067e 51050000 		.4byte	0x551
 1216 0682 12       		.uleb128 0x12
 1217 0683 97000000 		.4byte	0x97
 1218 0687 92060000 		.4byte	0x692
 1219 068b 13       		.uleb128 0x13
 1220 068c EB040000 		.4byte	0x4eb
 1221 0690 0B       		.byte	0xb
 1222 0691 00       		.byte	0
 1223 0692 14       		.uleb128 0x14
 1224 0693 82060000 		.4byte	0x682
 1225 0697 12       		.uleb128 0x12
 1226 0698 AD000000 		.4byte	0xad
 1227 069c A7060000 		.4byte	0x6a7
 1228 06a0 13       		.uleb128 0x13
 1229 06a1 EB040000 		.4byte	0x4eb
 1230 06a5 01       		.byte	0x1
 1231 06a6 00       		.byte	0
 1232 06a7 18       		.uleb128 0x18
 1233 06a8 AC060000 		.4byte	0x6ac
 1234 06ac 14       		.uleb128 0x14
ARM GAS  /tmp/ccyj3McZ.s 			page 37


 1235 06ad 97060000 		.4byte	0x697
 1236 06b1 12       		.uleb128 0x12
 1237 06b2 AD000000 		.4byte	0xad
 1238 06b6 C1060000 		.4byte	0x6c1
 1239 06ba 13       		.uleb128 0x13
 1240 06bb EB040000 		.4byte	0x4eb
 1241 06bf 03       		.byte	0x3
 1242 06c0 00       		.byte	0
 1243 06c1 18       		.uleb128 0x18
 1244 06c2 C6060000 		.4byte	0x6c6
 1245 06c6 14       		.uleb128 0x14
 1246 06c7 B1060000 		.4byte	0x6b1
 1247 06cb 12       		.uleb128 0x12
 1248 06cc AD000000 		.4byte	0xad
 1249 06d0 DB060000 		.4byte	0x6db
 1250 06d4 13       		.uleb128 0x13
 1251 06d5 EB040000 		.4byte	0x4eb
 1252 06d9 04       		.byte	0x4
 1253 06da 00       		.byte	0
 1254 06db 18       		.uleb128 0x18
 1255 06dc E0060000 		.4byte	0x6e0
 1256 06e0 14       		.uleb128 0x14
 1257 06e1 CB060000 		.4byte	0x6cb
 1258 06e5 16       		.uleb128 0x16
 1259 06e6 59010000 		.4byte	.LASF97
 1260 06ea 07       		.byte	0x7
 1261 06eb FC01     		.2byte	0x1fc
 1262 06ed 62050000 		.4byte	0x562
 1263 06f1 04       		.uleb128 0x4
 1264 06f2 50010000 		.4byte	.LASF98
 1265 06f6 08       		.byte	0x8
 1266 06f7 65       		.byte	0x65
 1267 06f8 F7020000 		.4byte	0x2f7
 1268 06fc 04       		.uleb128 0x4
 1269 06fd 5E020000 		.4byte	.LASF99
 1270 0701 08       		.byte	0x8
 1271 0702 6D       		.byte	0x6d
 1272 0703 B8000000 		.4byte	0xb8
 1273 0707 05       		.uleb128 0x5
 1274 0708 D1020000 		.4byte	.LASF100
 1275 070c 04       		.byte	0x4
 1276 070d 08       		.byte	0x8
 1277 070e 89       		.byte	0x89
 1278 070f 1F070000 		.4byte	0x71f
 1279 0713 07       		.uleb128 0x7
 1280 0714 737000   		.ascii	"sp\000"
 1281 0717 08       		.byte	0x8
 1282 0718 8A       		.byte	0x8a
 1283 0719 9B070000 		.4byte	0x79b
 1284 071d 00       		.byte	0
 1285 071e 00       		.byte	0
 1286 071f 0B       		.uleb128 0xb
 1287 0720 47000000 		.4byte	.LASF101
 1288 0724 24       		.byte	0x24
 1289 0725 09       		.byte	0x9
 1290 0726 5901     		.2byte	0x159
 1291 0728 9B070000 		.4byte	0x79b
ARM GAS  /tmp/ccyj3McZ.s 			page 38


 1292 072c 08       		.uleb128 0x8
 1293 072d 723400   		.ascii	"r4\000"
 1294 0730 09       		.byte	0x9
 1295 0731 6C01     		.2byte	0x16c
 1296 0733 F1060000 		.4byte	0x6f1
 1297 0737 00       		.byte	0
 1298 0738 08       		.uleb128 0x8
 1299 0739 723500   		.ascii	"r5\000"
 1300 073c 09       		.byte	0x9
 1301 073d 6D01     		.2byte	0x16d
 1302 073f F1060000 		.4byte	0x6f1
 1303 0743 04       		.byte	0x4
 1304 0744 08       		.uleb128 0x8
 1305 0745 723600   		.ascii	"r6\000"
 1306 0748 09       		.byte	0x9
 1307 0749 6E01     		.2byte	0x16e
 1308 074b F1060000 		.4byte	0x6f1
 1309 074f 08       		.byte	0x8
 1310 0750 08       		.uleb128 0x8
 1311 0751 723700   		.ascii	"r7\000"
 1312 0754 09       		.byte	0x9
 1313 0755 6F01     		.2byte	0x16f
 1314 0757 F1060000 		.4byte	0x6f1
 1315 075b 0C       		.byte	0xc
 1316 075c 08       		.uleb128 0x8
 1317 075d 723800   		.ascii	"r8\000"
 1318 0760 09       		.byte	0x9
 1319 0761 7001     		.2byte	0x170
 1320 0763 F1060000 		.4byte	0x6f1
 1321 0767 10       		.byte	0x10
 1322 0768 08       		.uleb128 0x8
 1323 0769 723900   		.ascii	"r9\000"
 1324 076c 09       		.byte	0x9
 1325 076d 7101     		.2byte	0x171
 1326 076f F1060000 		.4byte	0x6f1
 1327 0773 14       		.byte	0x14
 1328 0774 08       		.uleb128 0x8
 1329 0775 72313000 		.ascii	"r10\000"
 1330 0779 09       		.byte	0x9
 1331 077a 7201     		.2byte	0x172
 1332 077c F1060000 		.4byte	0x6f1
 1333 0780 18       		.byte	0x18
 1334 0781 08       		.uleb128 0x8
 1335 0782 72313100 		.ascii	"r11\000"
 1336 0786 09       		.byte	0x9
 1337 0787 7301     		.2byte	0x173
 1338 0789 F1060000 		.4byte	0x6f1
 1339 078d 1C       		.byte	0x1c
 1340 078e 08       		.uleb128 0x8
 1341 078f 6C7200   		.ascii	"lr\000"
 1342 0792 09       		.byte	0x9
 1343 0793 7401     		.2byte	0x174
 1344 0795 F1060000 		.4byte	0x6f1
 1345 0799 20       		.byte	0x20
 1346 079a 00       		.byte	0
 1347 079b 0A       		.uleb128 0xa
 1348 079c 04       		.byte	0x4
ARM GAS  /tmp/ccyj3McZ.s 			page 39


 1349 079d 1F070000 		.4byte	0x71f
 1350 07a1 19       		.uleb128 0x19
 1351 07a2 04       		.byte	0x4
 1352 07a3 0A       		.byte	0xa
 1353 07a4 38       		.byte	0x38
 1354 07a5 B6070000 		.4byte	0x7b6
 1355 07a9 06       		.uleb128 0x6
 1356 07aa 90040000 		.4byte	.LASF102
 1357 07ae 0A       		.byte	0xa
 1358 07af 3C       		.byte	0x3c
 1359 07b0 C3000000 		.4byte	0xc3
 1360 07b4 00       		.byte	0
 1361 07b5 00       		.byte	0
 1362 07b6 04       		.uleb128 0x4
 1363 07b7 DE020000 		.4byte	.LASF103
 1364 07bb 0A       		.byte	0xa
 1365 07bc 3D       		.byte	0x3d
 1366 07bd A1070000 		.4byte	0x7a1
 1367 07c1 1A       		.uleb128 0x1a
 1368 07c2 04       		.byte	0x4
 1369 07c3 06       		.byte	0x6
 1370 07c4 D2       		.byte	0xd2
 1371 07c5 24080000 		.4byte	0x824
 1372 07c9 1B       		.uleb128 0x1b
 1373 07ca 28000000 		.4byte	.LASF104
 1374 07ce 06       		.byte	0x6
 1375 07cf D9       		.byte	0xd9
 1376 07d0 FA000000 		.4byte	0xfa
 1377 07d4 1B       		.uleb128 0x1b
 1378 07d5 79000000 		.4byte	.LASF105
 1379 07d9 06       		.byte	0x6
 1380 07da E0       		.byte	0xe0
 1381 07db FA000000 		.4byte	0xfa
 1382 07df 1B       		.uleb128 0x1b
 1383 07e0 D8050000 		.4byte	.LASF106
 1384 07e4 06       		.byte	0x6
 1385 07e5 E7       		.byte	0xe7
 1386 07e6 F7020000 		.4byte	0x2f7
 1387 07ea 1B       		.uleb128 0x1b
 1388 07eb 1C000000 		.4byte	.LASF107
 1389 07ef 06       		.byte	0x6
 1390 07f0 EE       		.byte	0xee
 1391 07f1 24080000 		.4byte	0x824
 1392 07f5 1B       		.uleb128 0x1b
 1393 07f6 8D000000 		.4byte	.LASF108
 1394 07fa 06       		.byte	0x6
 1395 07fb F3       		.byte	0xf3
 1396 07fc FA000000 		.4byte	0xfa
 1397 0800 1B       		.uleb128 0x1b
 1398 0801 97010000 		.4byte	.LASF109
 1399 0805 06       		.byte	0x6
 1400 0806 FC       		.byte	0xfc
 1401 0807 4F080000 		.4byte	0x84f
 1402 080b 1C       		.uleb128 0x1c
 1403 080c 28040000 		.4byte	.LASF110
 1404 0810 06       		.byte	0x6
 1405 0811 0501     		.2byte	0x105
ARM GAS  /tmp/ccyj3McZ.s 			page 40


 1406 0813 86080000 		.4byte	0x886
 1407 0817 1C       		.uleb128 0x1c
 1408 0818 F0030000 		.4byte	.LASF111
 1409 081c 06       		.byte	0x6
 1410 081d 0D01     		.2byte	0x10d
 1411 081f 05010000 		.4byte	0x105
 1412 0823 00       		.byte	0
 1413 0824 0A       		.uleb128 0xa
 1414 0825 04       		.byte	0x4
 1415 0826 0F020000 		.4byte	0x20f
 1416 082a 05       		.uleb128 0x5
 1417 082b 12040000 		.4byte	.LASF112
 1418 082f 0C       		.byte	0xc
 1419 0830 0B       		.byte	0xb
 1420 0831 34       		.byte	0x34
 1421 0832 4F080000 		.4byte	0x84f
 1422 0836 06       		.uleb128 0x6
 1423 0837 3F010000 		.4byte	.LASF27
 1424 083b 0B       		.byte	0xb
 1425 083c 35       		.byte	0x35
 1426 083d 44020000 		.4byte	0x244
 1427 0841 00       		.byte	0
 1428 0842 07       		.uleb128 0x7
 1429 0843 636E7400 		.ascii	"cnt\000"
 1430 0847 0B       		.byte	0xb
 1431 0848 37       		.byte	0x37
 1432 0849 10010000 		.4byte	0x110
 1433 084d 08       		.byte	0x8
 1434 084e 00       		.byte	0
 1435 084f 0A       		.uleb128 0xa
 1436 0850 04       		.byte	0x4
 1437 0851 2A080000 		.4byte	0x82a
 1438 0855 05       		.uleb128 0x5
 1439 0856 C8040000 		.4byte	.LASF113
 1440 085a 10       		.byte	0x10
 1441 085b 0C       		.byte	0xc
 1442 085c 39       		.byte	0x39
 1443 085d 86080000 		.4byte	0x886
 1444 0861 06       		.uleb128 0x6
 1445 0862 3F010000 		.4byte	.LASF27
 1446 0866 0C       		.byte	0xc
 1447 0867 3A       		.byte	0x3a
 1448 0868 44020000 		.4byte	0x244
 1449 086c 00       		.byte	0
 1450 086d 06       		.uleb128 0x6
 1451 086e 44040000 		.4byte	.LASF114
 1452 0872 0C       		.byte	0xc
 1453 0873 3C       		.byte	0x3c
 1454 0874 1A020000 		.4byte	0x21a
 1455 0878 08       		.byte	0x8
 1456 0879 06       		.uleb128 0x6
 1457 087a B1000000 		.4byte	.LASF46
 1458 087e 0C       		.byte	0xc
 1459 087f 3E       		.byte	0x3e
 1460 0880 BA080000 		.4byte	0x8ba
 1461 0884 0C       		.byte	0xc
 1462 0885 00       		.byte	0
ARM GAS  /tmp/ccyj3McZ.s 			page 41


 1463 0886 0A       		.uleb128 0xa
 1464 0887 04       		.byte	0x4
 1465 0888 55080000 		.4byte	0x855
 1466 088c 0A       		.uleb128 0xa
 1467 088d 04       		.byte	0x4
 1468 088e 92080000 		.4byte	0x892
 1469 0892 18       		.uleb128 0x18
 1470 0893 97080000 		.4byte	0x897
 1471 0897 03       		.uleb128 0x3
 1472 0898 01       		.byte	0x1
 1473 0899 08       		.byte	0x8
 1474 089a 51040000 		.4byte	.LASF115
 1475 089e 0A       		.uleb128 0xa
 1476 089f 04       		.byte	0x4
 1477 08a0 FC060000 		.4byte	0x6fc
 1478 08a4 0A       		.uleb128 0xa
 1479 08a5 04       		.byte	0x4
 1480 08a6 F9020000 		.4byte	0x2f9
 1481 08aa 14       		.uleb128 0x14
 1482 08ab 8C080000 		.4byte	0x88c
 1483 08af 04       		.uleb128 0x4
 1484 08b0 6A010000 		.4byte	.LASF116
 1485 08b4 0C       		.byte	0xc
 1486 08b5 34       		.byte	0x34
 1487 08b6 55080000 		.4byte	0x855
 1488 08ba 0A       		.uleb128 0xa
 1489 08bb 04       		.byte	0x4
 1490 08bc AF080000 		.4byte	0x8af
 1491 08c0 03       		.uleb128 0x3
 1492 08c1 01       		.byte	0x1
 1493 08c2 02       		.byte	0x2
 1494 08c3 8C030000 		.4byte	.LASF117
 1495 08c7 1D       		.uleb128 0x1d
 1496 08c8 CC000000 		.4byte	.LASF118
 1497 08cc 01       		.byte	0x1
 1498 08cd 39       		.byte	0x39
 1499 08ce 00000000 		.4byte	.LFB270
 1500 08d2 34000000 		.4byte	.LFE270-.LFB270
 1501 08d6 01       		.uleb128 0x1
 1502 08d7 9C       		.byte	0x9c
 1503 08d8 F9080000 		.4byte	0x8f9
 1504 08dc 1E       		.uleb128 0x1e
 1505 08dd 6E00     		.ascii	"n\000"
 1506 08df 01       		.byte	0x1
 1507 08e0 39       		.byte	0x39
 1508 08e1 AD000000 		.4byte	0xad
 1509 08e5 00000000 		.4byte	.LLST0
 1510 08e9 1F       		.uleb128 0x1f
 1511 08ea F4020000 		.4byte	.LASF28
 1512 08ee 01       		.byte	0x1
 1513 08ef 39       		.byte	0x39
 1514 08f0 AD000000 		.4byte	0xad
 1515 08f4 24000000 		.4byte	.LLST1
 1516 08f8 00       		.byte	0
 1517 08f9 1D       		.uleb128 0x1d
 1518 08fa 85010000 		.4byte	.LASF119
 1519 08fe 01       		.byte	0x1
ARM GAS  /tmp/ccyj3McZ.s 			page 42


 1520 08ff 4A       		.byte	0x4a
 1521 0900 00000000 		.4byte	.LFB271
 1522 0904 28000000 		.4byte	.LFE271-.LFB271
 1523 0908 01       		.uleb128 0x1
 1524 0909 9C       		.byte	0x9c
 1525 090a 1C090000 		.4byte	0x91c
 1526 090e 1E       		.uleb128 0x1e
 1527 090f 6E00     		.ascii	"n\000"
 1528 0911 01       		.byte	0x1
 1529 0912 4A       		.byte	0x4a
 1530 0913 AD000000 		.4byte	0xad
 1531 0917 45000000 		.4byte	.LLST2
 1532 091b 00       		.byte	0
 1533 091c 1D       		.uleb128 0x1d
 1534 091d D3030000 		.4byte	.LASF120
 1535 0921 01       		.byte	0x1
 1536 0922 5A       		.byte	0x5a
 1537 0923 00000000 		.4byte	.LFB272
 1538 0927 10000000 		.4byte	.LFE272-.LFB272
 1539 092b 01       		.uleb128 0x1
 1540 092c 9C       		.byte	0x9c
 1541 092d 59090000 		.4byte	0x959
 1542 0931 1F       		.uleb128 0x1f
 1543 0932 73020000 		.4byte	.LASF121
 1544 0936 01       		.byte	0x1
 1545 0937 5A       		.byte	0x5a
 1546 0938 AD000000 		.4byte	0xad
 1547 093c 69000000 		.4byte	.LLST3
 1548 0940 1F       		.uleb128 0x1f
 1549 0941 F4020000 		.4byte	.LASF28
 1550 0945 01       		.byte	0x1
 1551 0946 5A       		.byte	0x5a
 1552 0947 AD000000 		.4byte	0xad
 1553 094b 9E000000 		.4byte	.LLST4
 1554 094f 20       		.uleb128 0x20
 1555 0950 78040000 		.4byte	.LASF127
 1556 0954 69090000 		.4byte	0x969
 1557 0958 00       		.byte	0
 1558 0959 12       		.uleb128 0x12
 1559 095a 97080000 		.4byte	0x897
 1560 095e 69090000 		.4byte	0x969
 1561 0962 13       		.uleb128 0x13
 1562 0963 EB040000 		.4byte	0x4eb
 1563 0967 1C       		.byte	0x1c
 1564 0968 00       		.byte	0
 1565 0969 18       		.uleb128 0x18
 1566 096a 59090000 		.4byte	0x959
 1567 096e 1D       		.uleb128 0x1d
 1568 096f 01010000 		.4byte	.LASF122
 1569 0973 01       		.byte	0x1
 1570 0974 6D       		.byte	0x6d
 1571 0975 00000000 		.4byte	.LFB273
 1572 0979 1C000000 		.4byte	.LFE273-.LFB273
 1573 097d 01       		.uleb128 0x1
 1574 097e 9C       		.byte	0x9c
 1575 097f 91090000 		.4byte	0x991
 1576 0983 1E       		.uleb128 0x1e
ARM GAS  /tmp/ccyj3McZ.s 			page 43


 1577 0984 6E00     		.ascii	"n\000"
 1578 0986 01       		.byte	0x1
 1579 0987 6D       		.byte	0x6d
 1580 0988 AD000000 		.4byte	0xad
 1581 098c BF000000 		.4byte	.LLST5
 1582 0990 00       		.byte	0
 1583 0991 21       		.uleb128 0x21
 1584 0992 AE030000 		.4byte	.LASF123
 1585 0996 07       		.byte	0x7
 1586 0997 4407     		.2byte	0x744
 1587 0999 9D090000 		.4byte	0x99d
 1588 099d 14       		.uleb128 0x14
 1589 099e A2000000 		.4byte	0xa2
 1590 09a2 22       		.uleb128 0x22
 1591 09a3 636800   		.ascii	"ch\000"
 1592 09a6 06       		.byte	0x6
 1593 09a7 D201     		.2byte	0x1d2
 1594 09a9 C6030000 		.4byte	0x3c6
 1595 09ad 00       		.byte	0
 1596              		.section	.debug_abbrev,"",%progbits
 1597              	.Ldebug_abbrev0:
 1598 0000 01       		.uleb128 0x1
 1599 0001 11       		.uleb128 0x11
 1600 0002 01       		.byte	0x1
 1601 0003 25       		.uleb128 0x25
 1602 0004 0E       		.uleb128 0xe
 1603 0005 13       		.uleb128 0x13
 1604 0006 0B       		.uleb128 0xb
 1605 0007 03       		.uleb128 0x3
 1606 0008 0E       		.uleb128 0xe
 1607 0009 1B       		.uleb128 0x1b
 1608 000a 0E       		.uleb128 0xe
 1609 000b 55       		.uleb128 0x55
 1610 000c 17       		.uleb128 0x17
 1611 000d 11       		.uleb128 0x11
 1612 000e 01       		.uleb128 0x1
 1613 000f 10       		.uleb128 0x10
 1614 0010 17       		.uleb128 0x17
 1615 0011 00       		.byte	0
 1616 0012 00       		.byte	0
 1617 0013 02       		.uleb128 0x2
 1618 0014 24       		.uleb128 0x24
 1619 0015 00       		.byte	0
 1620 0016 0B       		.uleb128 0xb
 1621 0017 0B       		.uleb128 0xb
 1622 0018 3E       		.uleb128 0x3e
 1623 0019 0B       		.uleb128 0xb
 1624 001a 03       		.uleb128 0x3
 1625 001b 08       		.uleb128 0x8
 1626 001c 00       		.byte	0
 1627 001d 00       		.byte	0
 1628 001e 03       		.uleb128 0x3
 1629 001f 24       		.uleb128 0x24
 1630 0020 00       		.byte	0
 1631 0021 0B       		.uleb128 0xb
 1632 0022 0B       		.uleb128 0xb
 1633 0023 3E       		.uleb128 0x3e
ARM GAS  /tmp/ccyj3McZ.s 			page 44


 1634 0024 0B       		.uleb128 0xb
 1635 0025 03       		.uleb128 0x3
 1636 0026 0E       		.uleb128 0xe
 1637 0027 00       		.byte	0
 1638 0028 00       		.byte	0
 1639 0029 04       		.uleb128 0x4
 1640 002a 16       		.uleb128 0x16
 1641 002b 00       		.byte	0
 1642 002c 03       		.uleb128 0x3
 1643 002d 0E       		.uleb128 0xe
 1644 002e 3A       		.uleb128 0x3a
 1645 002f 0B       		.uleb128 0xb
 1646 0030 3B       		.uleb128 0x3b
 1647 0031 0B       		.uleb128 0xb
 1648 0032 49       		.uleb128 0x49
 1649 0033 13       		.uleb128 0x13
 1650 0034 00       		.byte	0
 1651 0035 00       		.byte	0
 1652 0036 05       		.uleb128 0x5
 1653 0037 13       		.uleb128 0x13
 1654 0038 01       		.byte	0x1
 1655 0039 03       		.uleb128 0x3
 1656 003a 0E       		.uleb128 0xe
 1657 003b 0B       		.uleb128 0xb
 1658 003c 0B       		.uleb128 0xb
 1659 003d 3A       		.uleb128 0x3a
 1660 003e 0B       		.uleb128 0xb
 1661 003f 3B       		.uleb128 0x3b
 1662 0040 0B       		.uleb128 0xb
 1663 0041 01       		.uleb128 0x1
 1664 0042 13       		.uleb128 0x13
 1665 0043 00       		.byte	0
 1666 0044 00       		.byte	0
 1667 0045 06       		.uleb128 0x6
 1668 0046 0D       		.uleb128 0xd
 1669 0047 00       		.byte	0
 1670 0048 03       		.uleb128 0x3
 1671 0049 0E       		.uleb128 0xe
 1672 004a 3A       		.uleb128 0x3a
 1673 004b 0B       		.uleb128 0xb
 1674 004c 3B       		.uleb128 0x3b
 1675 004d 0B       		.uleb128 0xb
 1676 004e 49       		.uleb128 0x49
 1677 004f 13       		.uleb128 0x13
 1678 0050 38       		.uleb128 0x38
 1679 0051 0B       		.uleb128 0xb
 1680 0052 00       		.byte	0
 1681 0053 00       		.byte	0
 1682 0054 07       		.uleb128 0x7
 1683 0055 0D       		.uleb128 0xd
 1684 0056 00       		.byte	0
 1685 0057 03       		.uleb128 0x3
 1686 0058 08       		.uleb128 0x8
 1687 0059 3A       		.uleb128 0x3a
 1688 005a 0B       		.uleb128 0xb
 1689 005b 3B       		.uleb128 0x3b
 1690 005c 0B       		.uleb128 0xb
ARM GAS  /tmp/ccyj3McZ.s 			page 45


 1691 005d 49       		.uleb128 0x49
 1692 005e 13       		.uleb128 0x13
 1693 005f 38       		.uleb128 0x38
 1694 0060 0B       		.uleb128 0xb
 1695 0061 00       		.byte	0
 1696 0062 00       		.byte	0
 1697 0063 08       		.uleb128 0x8
 1698 0064 0D       		.uleb128 0xd
 1699 0065 00       		.byte	0
 1700 0066 03       		.uleb128 0x3
 1701 0067 08       		.uleb128 0x8
 1702 0068 3A       		.uleb128 0x3a
 1703 0069 0B       		.uleb128 0xb
 1704 006a 3B       		.uleb128 0x3b
 1705 006b 05       		.uleb128 0x5
 1706 006c 49       		.uleb128 0x49
 1707 006d 13       		.uleb128 0x13
 1708 006e 38       		.uleb128 0x38
 1709 006f 0B       		.uleb128 0xb
 1710 0070 00       		.byte	0
 1711 0071 00       		.byte	0
 1712 0072 09       		.uleb128 0x9
 1713 0073 0D       		.uleb128 0xd
 1714 0074 00       		.byte	0
 1715 0075 03       		.uleb128 0x3
 1716 0076 0E       		.uleb128 0xe
 1717 0077 3A       		.uleb128 0x3a
 1718 0078 0B       		.uleb128 0xb
 1719 0079 3B       		.uleb128 0x3b
 1720 007a 05       		.uleb128 0x5
 1721 007b 49       		.uleb128 0x49
 1722 007c 13       		.uleb128 0x13
 1723 007d 38       		.uleb128 0x38
 1724 007e 0B       		.uleb128 0xb
 1725 007f 00       		.byte	0
 1726 0080 00       		.byte	0
 1727 0081 0A       		.uleb128 0xa
 1728 0082 0F       		.uleb128 0xf
 1729 0083 00       		.byte	0
 1730 0084 0B       		.uleb128 0xb
 1731 0085 0B       		.uleb128 0xb
 1732 0086 49       		.uleb128 0x49
 1733 0087 13       		.uleb128 0x13
 1734 0088 00       		.byte	0
 1735 0089 00       		.byte	0
 1736 008a 0B       		.uleb128 0xb
 1737 008b 13       		.uleb128 0x13
 1738 008c 01       		.byte	0x1
 1739 008d 03       		.uleb128 0x3
 1740 008e 0E       		.uleb128 0xe
 1741 008f 0B       		.uleb128 0xb
 1742 0090 0B       		.uleb128 0xb
 1743 0091 3A       		.uleb128 0x3a
 1744 0092 0B       		.uleb128 0xb
 1745 0093 3B       		.uleb128 0x3b
 1746 0094 05       		.uleb128 0x5
 1747 0095 01       		.uleb128 0x1
ARM GAS  /tmp/ccyj3McZ.s 			page 46


 1748 0096 13       		.uleb128 0x13
 1749 0097 00       		.byte	0
 1750 0098 00       		.byte	0
 1751 0099 0C       		.uleb128 0xc
 1752 009a 15       		.uleb128 0x15
 1753 009b 01       		.byte	0x1
 1754 009c 27       		.uleb128 0x27
 1755 009d 19       		.uleb128 0x19
 1756 009e 01       		.uleb128 0x1
 1757 009f 13       		.uleb128 0x13
 1758 00a0 00       		.byte	0
 1759 00a1 00       		.byte	0
 1760 00a2 0D       		.uleb128 0xd
 1761 00a3 05       		.uleb128 0x5
 1762 00a4 00       		.byte	0
 1763 00a5 49       		.uleb128 0x49
 1764 00a6 13       		.uleb128 0x13
 1765 00a7 00       		.byte	0
 1766 00a8 00       		.byte	0
 1767 00a9 0E       		.uleb128 0xe
 1768 00aa 0F       		.uleb128 0xf
 1769 00ab 00       		.byte	0
 1770 00ac 0B       		.uleb128 0xb
 1771 00ad 0B       		.uleb128 0xb
 1772 00ae 00       		.byte	0
 1773 00af 00       		.byte	0
 1774 00b0 0F       		.uleb128 0xf
 1775 00b1 13       		.uleb128 0x13
 1776 00b2 01       		.byte	0x1
 1777 00b3 0B       		.uleb128 0xb
 1778 00b4 05       		.uleb128 0x5
 1779 00b5 3A       		.uleb128 0x3a
 1780 00b6 0B       		.uleb128 0xb
 1781 00b7 3B       		.uleb128 0x3b
 1782 00b8 05       		.uleb128 0x5
 1783 00b9 01       		.uleb128 0x1
 1784 00ba 13       		.uleb128 0x13
 1785 00bb 00       		.byte	0
 1786 00bc 00       		.byte	0
 1787 00bd 10       		.uleb128 0x10
 1788 00be 0D       		.uleb128 0xd
 1789 00bf 00       		.byte	0
 1790 00c0 03       		.uleb128 0x3
 1791 00c1 0E       		.uleb128 0xe
 1792 00c2 3A       		.uleb128 0x3a
 1793 00c3 0B       		.uleb128 0xb
 1794 00c4 3B       		.uleb128 0x3b
 1795 00c5 05       		.uleb128 0x5
 1796 00c6 49       		.uleb128 0x49
 1797 00c7 13       		.uleb128 0x13
 1798 00c8 38       		.uleb128 0x38
 1799 00c9 05       		.uleb128 0x5
 1800 00ca 00       		.byte	0
 1801 00cb 00       		.byte	0
 1802 00cc 11       		.uleb128 0x11
 1803 00cd 0D       		.uleb128 0xd
 1804 00ce 00       		.byte	0
ARM GAS  /tmp/ccyj3McZ.s 			page 47


 1805 00cf 03       		.uleb128 0x3
 1806 00d0 08       		.uleb128 0x8
 1807 00d1 3A       		.uleb128 0x3a
 1808 00d2 0B       		.uleb128 0xb
 1809 00d3 3B       		.uleb128 0x3b
 1810 00d4 05       		.uleb128 0x5
 1811 00d5 49       		.uleb128 0x49
 1812 00d6 13       		.uleb128 0x13
 1813 00d7 38       		.uleb128 0x38
 1814 00d8 05       		.uleb128 0x5
 1815 00d9 00       		.byte	0
 1816 00da 00       		.byte	0
 1817 00db 12       		.uleb128 0x12
 1818 00dc 01       		.uleb128 0x1
 1819 00dd 01       		.byte	0x1
 1820 00de 49       		.uleb128 0x49
 1821 00df 13       		.uleb128 0x13
 1822 00e0 01       		.uleb128 0x1
 1823 00e1 13       		.uleb128 0x13
 1824 00e2 00       		.byte	0
 1825 00e3 00       		.byte	0
 1826 00e4 13       		.uleb128 0x13
 1827 00e5 21       		.uleb128 0x21
 1828 00e6 00       		.byte	0
 1829 00e7 49       		.uleb128 0x49
 1830 00e8 13       		.uleb128 0x13
 1831 00e9 2F       		.uleb128 0x2f
 1832 00ea 0B       		.uleb128 0xb
 1833 00eb 00       		.byte	0
 1834 00ec 00       		.byte	0
 1835 00ed 14       		.uleb128 0x14
 1836 00ee 35       		.uleb128 0x35
 1837 00ef 00       		.byte	0
 1838 00f0 49       		.uleb128 0x49
 1839 00f1 13       		.uleb128 0x13
 1840 00f2 00       		.byte	0
 1841 00f3 00       		.byte	0
 1842 00f4 15       		.uleb128 0x15
 1843 00f5 21       		.uleb128 0x21
 1844 00f6 00       		.byte	0
 1845 00f7 49       		.uleb128 0x49
 1846 00f8 13       		.uleb128 0x13
 1847 00f9 2F       		.uleb128 0x2f
 1848 00fa 05       		.uleb128 0x5
 1849 00fb 00       		.byte	0
 1850 00fc 00       		.byte	0
 1851 00fd 16       		.uleb128 0x16
 1852 00fe 16       		.uleb128 0x16
 1853 00ff 00       		.byte	0
 1854 0100 03       		.uleb128 0x3
 1855 0101 0E       		.uleb128 0xe
 1856 0102 3A       		.uleb128 0x3a
 1857 0103 0B       		.uleb128 0xb
 1858 0104 3B       		.uleb128 0x3b
 1859 0105 05       		.uleb128 0x5
 1860 0106 49       		.uleb128 0x49
 1861 0107 13       		.uleb128 0x13
ARM GAS  /tmp/ccyj3McZ.s 			page 48


 1862 0108 00       		.byte	0
 1863 0109 00       		.byte	0
 1864 010a 17       		.uleb128 0x17
 1865 010b 13       		.uleb128 0x13
 1866 010c 01       		.byte	0x1
 1867 010d 0B       		.uleb128 0xb
 1868 010e 0B       		.uleb128 0xb
 1869 010f 3A       		.uleb128 0x3a
 1870 0110 0B       		.uleb128 0xb
 1871 0111 3B       		.uleb128 0x3b
 1872 0112 05       		.uleb128 0x5
 1873 0113 01       		.uleb128 0x1
 1874 0114 13       		.uleb128 0x13
 1875 0115 00       		.byte	0
 1876 0116 00       		.byte	0
 1877 0117 18       		.uleb128 0x18
 1878 0118 26       		.uleb128 0x26
 1879 0119 00       		.byte	0
 1880 011a 49       		.uleb128 0x49
 1881 011b 13       		.uleb128 0x13
 1882 011c 00       		.byte	0
 1883 011d 00       		.byte	0
 1884 011e 19       		.uleb128 0x19
 1885 011f 13       		.uleb128 0x13
 1886 0120 01       		.byte	0x1
 1887 0121 0B       		.uleb128 0xb
 1888 0122 0B       		.uleb128 0xb
 1889 0123 3A       		.uleb128 0x3a
 1890 0124 0B       		.uleb128 0xb
 1891 0125 3B       		.uleb128 0x3b
 1892 0126 0B       		.uleb128 0xb
 1893 0127 01       		.uleb128 0x1
 1894 0128 13       		.uleb128 0x13
 1895 0129 00       		.byte	0
 1896 012a 00       		.byte	0
 1897 012b 1A       		.uleb128 0x1a
 1898 012c 17       		.uleb128 0x17
 1899 012d 01       		.byte	0x1
 1900 012e 0B       		.uleb128 0xb
 1901 012f 0B       		.uleb128 0xb
 1902 0130 3A       		.uleb128 0x3a
 1903 0131 0B       		.uleb128 0xb
 1904 0132 3B       		.uleb128 0x3b
 1905 0133 0B       		.uleb128 0xb
 1906 0134 01       		.uleb128 0x1
 1907 0135 13       		.uleb128 0x13
 1908 0136 00       		.byte	0
 1909 0137 00       		.byte	0
 1910 0138 1B       		.uleb128 0x1b
 1911 0139 0D       		.uleb128 0xd
 1912 013a 00       		.byte	0
 1913 013b 03       		.uleb128 0x3
 1914 013c 0E       		.uleb128 0xe
 1915 013d 3A       		.uleb128 0x3a
 1916 013e 0B       		.uleb128 0xb
 1917 013f 3B       		.uleb128 0x3b
 1918 0140 0B       		.uleb128 0xb
ARM GAS  /tmp/ccyj3McZ.s 			page 49


 1919 0141 49       		.uleb128 0x49
 1920 0142 13       		.uleb128 0x13
 1921 0143 00       		.byte	0
 1922 0144 00       		.byte	0
 1923 0145 1C       		.uleb128 0x1c
 1924 0146 0D       		.uleb128 0xd
 1925 0147 00       		.byte	0
 1926 0148 03       		.uleb128 0x3
 1927 0149 0E       		.uleb128 0xe
 1928 014a 3A       		.uleb128 0x3a
 1929 014b 0B       		.uleb128 0xb
 1930 014c 3B       		.uleb128 0x3b
 1931 014d 05       		.uleb128 0x5
 1932 014e 49       		.uleb128 0x49
 1933 014f 13       		.uleb128 0x13
 1934 0150 00       		.byte	0
 1935 0151 00       		.byte	0
 1936 0152 1D       		.uleb128 0x1d
 1937 0153 2E       		.uleb128 0x2e
 1938 0154 01       		.byte	0x1
 1939 0155 3F       		.uleb128 0x3f
 1940 0156 19       		.uleb128 0x19
 1941 0157 03       		.uleb128 0x3
 1942 0158 0E       		.uleb128 0xe
 1943 0159 3A       		.uleb128 0x3a
 1944 015a 0B       		.uleb128 0xb
 1945 015b 3B       		.uleb128 0x3b
 1946 015c 0B       		.uleb128 0xb
 1947 015d 27       		.uleb128 0x27
 1948 015e 19       		.uleb128 0x19
 1949 015f 11       		.uleb128 0x11
 1950 0160 01       		.uleb128 0x1
 1951 0161 12       		.uleb128 0x12
 1952 0162 06       		.uleb128 0x6
 1953 0163 40       		.uleb128 0x40
 1954 0164 18       		.uleb128 0x18
 1955 0165 9742     		.uleb128 0x2117
 1956 0167 19       		.uleb128 0x19
 1957 0168 01       		.uleb128 0x1
 1958 0169 13       		.uleb128 0x13
 1959 016a 00       		.byte	0
 1960 016b 00       		.byte	0
 1961 016c 1E       		.uleb128 0x1e
 1962 016d 05       		.uleb128 0x5
 1963 016e 00       		.byte	0
 1964 016f 03       		.uleb128 0x3
 1965 0170 08       		.uleb128 0x8
 1966 0171 3A       		.uleb128 0x3a
 1967 0172 0B       		.uleb128 0xb
 1968 0173 3B       		.uleb128 0x3b
 1969 0174 0B       		.uleb128 0xb
 1970 0175 49       		.uleb128 0x49
 1971 0176 13       		.uleb128 0x13
 1972 0177 02       		.uleb128 0x2
 1973 0178 17       		.uleb128 0x17
 1974 0179 00       		.byte	0
 1975 017a 00       		.byte	0
ARM GAS  /tmp/ccyj3McZ.s 			page 50


 1976 017b 1F       		.uleb128 0x1f
 1977 017c 05       		.uleb128 0x5
 1978 017d 00       		.byte	0
 1979 017e 03       		.uleb128 0x3
 1980 017f 0E       		.uleb128 0xe
 1981 0180 3A       		.uleb128 0x3a
 1982 0181 0B       		.uleb128 0xb
 1983 0182 3B       		.uleb128 0x3b
 1984 0183 0B       		.uleb128 0xb
 1985 0184 49       		.uleb128 0x49
 1986 0185 13       		.uleb128 0x13
 1987 0186 02       		.uleb128 0x2
 1988 0187 17       		.uleb128 0x17
 1989 0188 00       		.byte	0
 1990 0189 00       		.byte	0
 1991 018a 20       		.uleb128 0x20
 1992 018b 34       		.uleb128 0x34
 1993 018c 00       		.byte	0
 1994 018d 03       		.uleb128 0x3
 1995 018e 0E       		.uleb128 0xe
 1996 018f 49       		.uleb128 0x49
 1997 0190 13       		.uleb128 0x13
 1998 0191 34       		.uleb128 0x34
 1999 0192 19       		.uleb128 0x19
 2000 0193 00       		.byte	0
 2001 0194 00       		.byte	0
 2002 0195 21       		.uleb128 0x21
 2003 0196 34       		.uleb128 0x34
 2004 0197 00       		.byte	0
 2005 0198 03       		.uleb128 0x3
 2006 0199 0E       		.uleb128 0xe
 2007 019a 3A       		.uleb128 0x3a
 2008 019b 0B       		.uleb128 0xb
 2009 019c 3B       		.uleb128 0x3b
 2010 019d 05       		.uleb128 0x5
 2011 019e 49       		.uleb128 0x49
 2012 019f 13       		.uleb128 0x13
 2013 01a0 3F       		.uleb128 0x3f
 2014 01a1 19       		.uleb128 0x19
 2015 01a2 3C       		.uleb128 0x3c
 2016 01a3 19       		.uleb128 0x19
 2017 01a4 00       		.byte	0
 2018 01a5 00       		.byte	0
 2019 01a6 22       		.uleb128 0x22
 2020 01a7 34       		.uleb128 0x34
 2021 01a8 00       		.byte	0
 2022 01a9 03       		.uleb128 0x3
 2023 01aa 08       		.uleb128 0x8
 2024 01ab 3A       		.uleb128 0x3a
 2025 01ac 0B       		.uleb128 0xb
 2026 01ad 3B       		.uleb128 0x3b
 2027 01ae 05       		.uleb128 0x5
 2028 01af 49       		.uleb128 0x49
 2029 01b0 13       		.uleb128 0x13
 2030 01b1 3F       		.uleb128 0x3f
 2031 01b2 19       		.uleb128 0x19
 2032 01b3 3C       		.uleb128 0x3c
ARM GAS  /tmp/ccyj3McZ.s 			page 51


 2033 01b4 19       		.uleb128 0x19
 2034 01b5 00       		.byte	0
 2035 01b6 00       		.byte	0
 2036 01b7 00       		.byte	0
 2037              		.section	.debug_loc,"",%progbits
 2038              	.Ldebug_loc0:
 2039              	.LLST0:
 2040 0000 00000000 		.4byte	.LVL0
 2041 0004 1E000000 		.4byte	.LVL2
 2042 0008 0100     		.2byte	0x1
 2043 000a 50       		.byte	0x50
 2044 000b 1E000000 		.4byte	.LVL2
 2045 000f 34000000 		.4byte	.LFE270
 2046 0013 0700     		.2byte	0x7
 2047 0015 72       		.byte	0x72
 2048 0016 80BEFCFF 		.sleb128 536813312
 2048      01
 2049 001b 9F       		.byte	0x9f
 2050 001c 00000000 		.4byte	0
 2051 0020 00000000 		.4byte	0
 2052              	.LLST1:
 2053 0024 00000000 		.4byte	.LVL0
 2054 0028 16000000 		.4byte	.LVL1
 2055 002c 0100     		.2byte	0x1
 2056 002e 51       		.byte	0x51
 2057 002f 16000000 		.4byte	.LVL1
 2058 0033 34000000 		.4byte	.LFE270
 2059 0037 0400     		.2byte	0x4
 2060 0039 F3       		.byte	0xf3
 2061 003a 01       		.uleb128 0x1
 2062 003b 51       		.byte	0x51
 2063 003c 9F       		.byte	0x9f
 2064 003d 00000000 		.4byte	0
 2065 0041 00000000 		.4byte	0
 2066              	.LLST2:
 2067 0045 00000000 		.4byte	.LVL3
 2068 0049 10000000 		.4byte	.LVL4
 2069 004d 0100     		.2byte	0x1
 2070 004f 50       		.byte	0x50
 2071 0050 10000000 		.4byte	.LVL4
 2072 0054 28000000 		.4byte	.LFE271
 2073 0058 0700     		.2byte	0x7
 2074 005a 70       		.byte	0x70
 2075 005b 80BEFCFF 		.sleb128 536813312
 2075      01
 2076 0060 9F       		.byte	0x9f
 2077 0061 00000000 		.4byte	0
 2078 0065 00000000 		.4byte	0
 2079              	.LLST3:
 2080 0069 00000000 		.4byte	.LVL5
 2081 006d 04000000 		.4byte	.LVL6
 2082 0071 0100     		.2byte	0x1
 2083 0073 50       		.byte	0x50
 2084 0074 04000000 		.4byte	.LVL6
 2085 0078 08000000 		.4byte	.LVL7
 2086 007c 0700     		.2byte	0x7
 2087 007e 70       		.byte	0x70
ARM GAS  /tmp/ccyj3McZ.s 			page 52


 2088 007f 80808080 		.sleb128 536870912
 2088      02
 2089 0084 9F       		.byte	0x9f
 2090 0085 08000000 		.4byte	.LVL7
 2091 0089 10000000 		.4byte	.LFE272
 2092 008d 0700     		.2byte	0x7
 2093 008f 70       		.byte	0x70
 2094 0090 80A6FCFF 		.sleb128 536810240
 2094      01
 2095 0095 9F       		.byte	0x9f
 2096 0096 00000000 		.4byte	0
 2097 009a 00000000 		.4byte	0
 2098              	.LLST4:
 2099 009e 00000000 		.4byte	.LVL5
 2100 00a2 0A000000 		.4byte	.LVL8
 2101 00a6 0100     		.2byte	0x1
 2102 00a8 51       		.byte	0x51
 2103 00a9 0A000000 		.4byte	.LVL8
 2104 00ad 10000000 		.4byte	.LFE272
 2105 00b1 0400     		.2byte	0x4
 2106 00b3 F3       		.byte	0xf3
 2107 00b4 01       		.uleb128 0x1
 2108 00b5 51       		.byte	0x51
 2109 00b6 9F       		.byte	0x9f
 2110 00b7 00000000 		.4byte	0
 2111 00bb 00000000 		.4byte	0
 2112              	.LLST5:
 2113 00bf 00000000 		.4byte	.LVL9
 2114 00c3 08000000 		.4byte	.LVL10
 2115 00c7 0100     		.2byte	0x1
 2116 00c9 50       		.byte	0x50
 2117 00ca 08000000 		.4byte	.LVL10
 2118 00ce 1C000000 		.4byte	.LFE273
 2119 00d2 0400     		.2byte	0x4
 2120 00d4 F3       		.byte	0xf3
 2121 00d5 01       		.uleb128 0x1
 2122 00d6 50       		.byte	0x50
 2123 00d7 9F       		.byte	0x9f
 2124 00d8 00000000 		.4byte	0
 2125 00dc 00000000 		.4byte	0
 2126              		.section	.debug_aranges,"",%progbits
 2127 0000 34000000 		.4byte	0x34
 2128 0004 0200     		.2byte	0x2
 2129 0006 00000000 		.4byte	.Ldebug_info0
 2130 000a 04       		.byte	0x4
 2131 000b 00       		.byte	0
 2132 000c 0000     		.2byte	0
 2133 000e 0000     		.2byte	0
 2134 0010 00000000 		.4byte	.LFB270
 2135 0014 34000000 		.4byte	.LFE270-.LFB270
 2136 0018 00000000 		.4byte	.LFB271
 2137 001c 28000000 		.4byte	.LFE271-.LFB271
 2138 0020 00000000 		.4byte	.LFB272
 2139 0024 10000000 		.4byte	.LFE272-.LFB272
 2140 0028 00000000 		.4byte	.LFB273
 2141 002c 1C000000 		.4byte	.LFE273-.LFB273
 2142 0030 00000000 		.4byte	0
ARM GAS  /tmp/ccyj3McZ.s 			page 53


 2143 0034 00000000 		.4byte	0
 2144              		.section	.debug_ranges,"",%progbits
 2145              	.Ldebug_ranges0:
 2146 0000 00000000 		.4byte	.LFB270
 2147 0004 34000000 		.4byte	.LFE270
 2148 0008 00000000 		.4byte	.LFB271
 2149 000c 28000000 		.4byte	.LFE271
 2150 0010 00000000 		.4byte	.LFB272
 2151 0014 10000000 		.4byte	.LFE272
 2152 0018 00000000 		.4byte	.LFB273
 2153 001c 1C000000 		.4byte	.LFE273
 2154 0020 00000000 		.4byte	0
 2155 0024 00000000 		.4byte	0
 2156              		.section	.debug_line,"",%progbits
 2157              	.Ldebug_line0:
 2158 0000 A2020000 		.section	.debug_str,"MS",%progbits,1
 2158      02004402 
 2158      00000201 
 2158      FB0E0D00 
 2158      01010101 
 2159              	.LASF43:
 2160 0000 74687265 		.ascii	"threads_list_t\000"
 2160      6164735F 
 2160      6C697374 
 2160      5F7400
 2161              	.LASF50:
 2162 000f 72656164 		.ascii	"ready_list_t\000"
 2162      795F6C69 
 2162      73745F74 
 2162      00
 2163              	.LASF107:
 2164 001c 77747472 		.ascii	"wttrp\000"
 2164      7000
 2165              	.LASF56:
 2166 0022 64656C74 		.ascii	"delta\000"
 2166      6100
 2167              	.LASF104:
 2168 0028 7264796D 		.ascii	"rdymsg\000"
 2168      736700
 2169              	.LASF16:
 2170 002f 75696E74 		.ascii	"uint64_t\000"
 2170      36345F74 
 2170      00
 2171              	.LASF5:
 2172 0038 5F5F7569 		.ascii	"__uint8_t\000"
 2172      6E74385F 
 2172      7400
 2173              	.LASF49:
 2174 0042 70726576 		.ascii	"prev\000"
 2174      00
 2175              	.LASF101:
 2176 0047 706F7274 		.ascii	"port_intctx\000"
 2176      5F696E74 
 2176      63747800 
 2177              	.LASF61:
 2178 0053 73797374 		.ascii	"system_debug_t\000"
 2178      656D5F64 
ARM GAS  /tmp/ccyj3McZ.s 			page 54


 2178      65627567 
 2178      5F7400
 2179              	.LASF12:
 2180 0062 6C6F6E67 		.ascii	"long long unsigned int\000"
 2180      206C6F6E 
 2180      6720756E 
 2180      7369676E 
 2180      65642069 
 2181              	.LASF105:
 2182 0079 65786974 		.ascii	"exitcode\000"
 2182      636F6465 
 2182      00
 2183              	.LASF68:
 2184 0082 6D61696E 		.ascii	"mainthread\000"
 2184      74687265 
 2184      616400
 2185              	.LASF108:
 2186 008d 73656E74 		.ascii	"sentmsg\000"
 2186      6D736700 
 2187              	.LASF58:
 2188 0095 76697274 		.ascii	"virtual_timers_list_t\000"
 2188      75616C5F 
 2188      74696D65 
 2188      72735F6C 
 2188      6973745F 
 2189              	.LASF83:
 2190 00ab 43505549 		.ascii	"CPUID\000"
 2190      4400
 2191              	.LASF46:
 2192 00b1 6E657874 		.ascii	"next\000"
 2192      00
 2193              	.LASF48:
 2194 00b6 63685F74 		.ascii	"ch_threads_queue\000"
 2194      68726561 
 2194      64735F71 
 2194      75657565 
 2194      00
 2195              	.LASF73:
 2196 00c7 49535052 		.ascii	"ISPR\000"
 2196      00
 2197              	.LASF118:
 2198 00cc 6E766963 		.ascii	"nvicEnableVector\000"
 2198      456E6162 
 2198      6C655665 
 2198      63746F72 
 2198      00
 2199              	.LASF35:
 2200 00dd 72656673 		.ascii	"refs\000"
 2200      00
 2201              	.LASF95:
 2202 00e2 49534152 		.ascii	"ISAR\000"
 2202      00
 2203              	.LASF10:
 2204 00e7 6C6F6E67 		.ascii	"long long int\000"
 2204      206C6F6E 
 2204      6720696E 
 2204      7400
ARM GAS  /tmp/ccyj3McZ.s 			page 55


 2205              	.LASF1:
 2206 00f5 7369676E 		.ascii	"signed char\000"
 2206      65642063 
 2206      68617200 
 2207              	.LASF122:
 2208 0101 6E766963 		.ascii	"nvicClearPending\000"
 2208      436C6561 
 2208      7250656E 
 2208      64696E67 
 2208      00
 2209              	.LASF67:
 2210 0112 76746C69 		.ascii	"vtlist\000"
 2210      737400
 2211              	.LASF37:
 2212 0119 6D736771 		.ascii	"msgqueue\000"
 2212      75657565 
 2212      00
 2213              	.LASF33:
 2214 0122 73746174 		.ascii	"state\000"
 2214      6500
 2215              	.LASF7:
 2216 0128 6C6F6E67 		.ascii	"long int\000"
 2216      20696E74 
 2216      00
 2217              	.LASF19:
 2218 0131 74737461 		.ascii	"tstate_t\000"
 2218      74655F74 
 2218      00
 2219              	.LASF57:
 2220 013a 66756E63 		.ascii	"func\000"
 2220      00
 2221              	.LASF27:
 2222 013f 71756575 		.ascii	"queue\000"
 2222      6500
 2223              	.LASF8:
 2224 0145 5F5F7569 		.ascii	"__uint32_t\000"
 2224      6E743332 
 2224      5F7400
 2225              	.LASF98:
 2226 0150 72656761 		.ascii	"regarm_t\000"
 2226      726D5F74 
 2226      00
 2227              	.LASF97:
 2228 0159 5343425F 		.ascii	"SCB_Type\000"
 2228      54797065 
 2228      00
 2229              	.LASF36:
 2230 0162 77616974 		.ascii	"waiting\000"
 2230      696E6700 
 2231              	.LASF116:
 2232 016a 6D757465 		.ascii	"mutex_t\000"
 2232      785F7400 
 2233              	.LASF24:
 2234 0172 636E745F 		.ascii	"cnt_t\000"
 2234      7400
 2235              	.LASF0:
 2236 0178 756E7369 		.ascii	"unsigned int\000"
ARM GAS  /tmp/ccyj3McZ.s 			page 56


 2236      676E6564 
 2236      20696E74 
 2236      00
 2237              	.LASF119:
 2238 0185 6E766963 		.ascii	"nvicDisableVector\000"
 2238      44697361 
 2238      626C6556 
 2238      6563746F 
 2238      7200
 2239              	.LASF109:
 2240 0197 77747365 		.ascii	"wtsemp\000"
 2240      6D7000
 2241              	.LASF9:
 2242 019e 6C6F6E67 		.ascii	"long unsigned int\000"
 2242      20756E73 
 2242      69676E65 
 2242      6420696E 
 2242      7400
 2243              	.LASF75:
 2244 01b0 49435052 		.ascii	"ICPR\000"
 2244      00
 2245              	.LASF31:
 2246 01b5 6E616D65 		.ascii	"name\000"
 2246      00
 2247              	.LASF85:
 2248 01ba 56544F52 		.ascii	"VTOR\000"
 2248      00
 2249              	.LASF41:
 2250 01bf 6D706F6F 		.ascii	"mpool\000"
 2250      6C00
 2251              	.LASF125:
 2252 01c5 2E2E2F43 		.ascii	"../ChibiOS/os/hal/ports/common/ARMCMx/nvic.c\000"
 2252      68696269 
 2252      4F532F6F 
 2252      732F6861 
 2252      6C2F706F 
 2253              	.LASF44:
 2254 01f2 63685F74 		.ascii	"ch_thread\000"
 2254      68726561 
 2254      6400
 2255              	.LASF92:
 2256 01fc 42464152 		.ascii	"BFAR\000"
 2256      00
 2257              	.LASF84:
 2258 0201 49435352 		.ascii	"ICSR\000"
 2258      00
 2259              	.LASF22:
 2260 0206 6D73675F 		.ascii	"msg_t\000"
 2260      7400
 2261              	.LASF86:
 2262 020c 41495243 		.ascii	"AIRCR\000"
 2262      5200
 2263              	.LASF90:
 2264 0212 44465352 		.ascii	"DFSR\000"
 2264      00
 2265              	.LASF38:
 2266 0217 6570656E 		.ascii	"epending\000"
ARM GAS  /tmp/ccyj3McZ.s 			page 57


 2266      64696E67 
 2266      00
 2267              	.LASF91:
 2268 0220 4D4D4641 		.ascii	"MMFAR\000"
 2268      5200
 2269              	.LASF64:
 2270 0226 63685F73 		.ascii	"ch_system_t\000"
 2270      79737465 
 2270      6D5F7400 
 2271              	.LASF18:
 2272 0232 746D6F64 		.ascii	"tmode_t\000"
 2272      655F7400 
 2273              	.LASF51:
 2274 023a 63685F72 		.ascii	"ch_ready_list\000"
 2274      65616479 
 2274      5F6C6973 
 2274      7400
 2275              	.LASF23:
 2276 0248 6576656E 		.ascii	"eventmask_t\000"
 2276      746D6173 
 2276      6B5F7400 
 2277              	.LASF6:
 2278 0254 5F5F696E 		.ascii	"__int32_t\000"
 2278      7433325F 
 2278      7400
 2279              	.LASF99:
 2280 025e 73746B61 		.ascii	"stkalign_t\000"
 2280      6C69676E 
 2280      5F7400
 2281              	.LASF82:
 2282 0269 4E564943 		.ascii	"NVIC_Type\000"
 2282      5F547970 
 2282      6500
 2283              	.LASF121:
 2284 0273 68616E64 		.ascii	"handler\000"
 2284      6C657200 
 2285              	.LASF54:
 2286 027b 76697274 		.ascii	"virtual_timer_t\000"
 2286      75616C5F 
 2286      74696D65 
 2286      725F7400 
 2287              	.LASF40:
 2288 028b 7265616C 		.ascii	"realprio\000"
 2288      7072696F 
 2288      00
 2289              	.LASF81:
 2290 0294 73697A65 		.ascii	"sizetype\000"
 2290      74797065 
 2290      00
 2291              	.LASF42:
 2292 029d 74687265 		.ascii	"thread_reference_t\000"
 2292      61645F72 
 2292      65666572 
 2292      656E6365 
 2292      5F7400
 2293              	.LASF59:
 2294 02b0 63685F76 		.ascii	"ch_virtual_timers_list\000"
ARM GAS  /tmp/ccyj3McZ.s 			page 58


 2294      69727475 
 2294      616C5F74 
 2294      696D6572 
 2294      735F6C69 
 2295              	.LASF88:
 2296 02c7 43465352 		.ascii	"CFSR\000"
 2296      00
 2297              	.LASF77:
 2298 02cc 49414252 		.ascii	"IABR\000"
 2298      00
 2299              	.LASF100:
 2300 02d1 706F7274 		.ascii	"port_context\000"
 2300      5F636F6E 
 2300      74657874 
 2300      00
 2301              	.LASF103:
 2302 02de 746D5F63 		.ascii	"tm_calibration_t\000"
 2302      616C6962 
 2302      72617469 
 2302      6F6E5F74 
 2302      00
 2303              	.LASF71:
 2304 02ef 49434552 		.ascii	"ICER\000"
 2304      00
 2305              	.LASF28:
 2306 02f4 7072696F 		.ascii	"prio\000"
 2306      00
 2307              	.LASF52:
 2308 02f9 63757272 		.ascii	"current\000"
 2308      656E7400 
 2309              	.LASF11:
 2310 0301 5F5F7569 		.ascii	"__uint64_t\000"
 2310      6E743634 
 2310      5F7400
 2311              	.LASF20:
 2312 030c 74726566 		.ascii	"trefs_t\000"
 2312      735F7400 
 2313              	.LASF70:
 2314 0314 52455345 		.ascii	"RESERVED0\000"
 2314      52564544 
 2314      3000
 2315              	.LASF74:
 2316 031e 52455345 		.ascii	"RESERVED2\000"
 2316      52564544 
 2316      3200
 2317              	.LASF76:
 2318 0328 52455345 		.ascii	"RESERVED3\000"
 2318      52564544 
 2318      3300
 2319              	.LASF78:
 2320 0332 52455345 		.ascii	"RESERVED4\000"
 2320      52564544 
 2320      3400
 2321              	.LASF79:
 2322 033c 52455345 		.ascii	"RESERVED5\000"
 2322      52564544 
 2322      3500
ARM GAS  /tmp/ccyj3McZ.s 			page 59


 2323              	.LASF21:
 2324 0346 74707269 		.ascii	"tprio_t\000"
 2324      6F5F7400 
 2325              	.LASF126:
 2326 034e 2F6E6673 		.ascii	"/nfs/nfs7/home/npalumbo/p442-submissions/lab3\000"
 2326      2F6E6673 
 2326      372F686F 
 2326      6D652F6E 
 2326      70616C75 
 2327              	.LASF62:
 2328 037c 63685F73 		.ascii	"ch_system_debug\000"
 2328      79737465 
 2328      6D5F6465 
 2328      62756700 
 2329              	.LASF117:
 2330 038c 5F426F6F 		.ascii	"_Bool\000"
 2330      6C00
 2331              	.LASF14:
 2332 0392 696E7433 		.ascii	"int32_t\000"
 2332      325F7400 
 2333              	.LASF2:
 2334 039a 756E7369 		.ascii	"unsigned char\000"
 2334      676E6564 
 2334      20636861 
 2334      7200
 2335              	.LASF87:
 2336 03a8 53484353 		.ascii	"SHCSR\000"
 2336      5200
 2337              	.LASF123:
 2338 03ae 49544D5F 		.ascii	"ITM_RxBuffer\000"
 2338      52784275 
 2338      66666572 
 2338      00
 2339              	.LASF3:
 2340 03bb 73686F72 		.ascii	"short int\000"
 2340      7420696E 
 2340      7400
 2341              	.LASF69:
 2342 03c5 49534552 		.ascii	"ISER\000"
 2342      00
 2343              	.LASF60:
 2344 03ca 6C617374 		.ascii	"lasttime\000"
 2344      74696D65 
 2344      00
 2345              	.LASF120:
 2346 03d3 6E766963 		.ascii	"nvicSetSystemHandlerPriority\000"
 2346      53657453 
 2346      79737465 
 2346      6D48616E 
 2346      646C6572 
 2347              	.LASF111:
 2348 03f0 65776D61 		.ascii	"ewmask\000"
 2348      736B00
 2349              	.LASF65:
 2350 03f7 63685F73 		.ascii	"ch_system\000"
 2350      79737465 
 2350      6D00
ARM GAS  /tmp/ccyj3McZ.s 			page 60


 2351              	.LASF55:
 2352 0401 63685F76 		.ascii	"ch_virtual_timer\000"
 2352      69727475 
 2352      616C5F74 
 2352      696D6572 
 2352      00
 2353              	.LASF112:
 2354 0412 63685F73 		.ascii	"ch_semaphore\000"
 2354      656D6170 
 2354      686F7265 
 2354      00
 2355              	.LASF15:
 2356 041f 75696E74 		.ascii	"uint32_t\000"
 2356      33325F74 
 2356      00
 2357              	.LASF110:
 2358 0428 77746D74 		.ascii	"wtmtxp\000"
 2358      787000
 2359              	.LASF93:
 2360 042f 41465352 		.ascii	"AFSR\000"
 2360      00
 2361              	.LASF45:
 2362 0434 63685F74 		.ascii	"ch_threads_list\000"
 2362      68726561 
 2362      64735F6C 
 2362      69737400 
 2363              	.LASF114:
 2364 0444 6F776E65 		.ascii	"owner\000"
 2364      7200
 2365              	.LASF32:
 2366 044a 77616261 		.ascii	"wabase\000"
 2366      736500
 2367              	.LASF115:
 2368 0451 63686172 		.ascii	"char\000"
 2368      00
 2369              	.LASF30:
 2370 0456 6F6C6465 		.ascii	"older\000"
 2370      7200
 2371              	.LASF26:
 2372 045c 74687265 		.ascii	"thread_t\000"
 2372      61645F74 
 2372      00
 2373              	.LASF25:
 2374 0465 73797374 		.ascii	"systime_t\000"
 2374      696D655F 
 2374      7400
 2375              	.LASF53:
 2376 046f 76746675 		.ascii	"vtfunc_t\000"
 2376      6E635F74 
 2376      00
 2377              	.LASF127:
 2378 0478 5F5F6675 		.ascii	"__func__.7077\000"
 2378      6E635F5F 
 2378      2E373037 
 2378      3700
 2379              	.LASF63:
 2380 0486 70616E69 		.ascii	"panic_msg\000"
ARM GAS  /tmp/ccyj3McZ.s 			page 61


 2380      635F6D73 
 2380      6700
 2381              	.LASF102:
 2382 0490 6F666673 		.ascii	"offset\000"
 2382      657400
 2383              	.LASF4:
 2384 0497 73686F72 		.ascii	"short unsigned int\000"
 2384      7420756E 
 2384      7369676E 
 2384      65642069 
 2384      6E7400
 2385              	.LASF17:
 2386 04aa 7274636E 		.ascii	"rtcnt_t\000"
 2386      745F7400 
 2387              	.LASF29:
 2388 04b2 6E657765 		.ascii	"newer\000"
 2388      7200
 2389              	.LASF47:
 2390 04b8 74687265 		.ascii	"threads_queue_t\000"
 2390      6164735F 
 2390      71756575 
 2390      655F7400 
 2391              	.LASF113:
 2392 04c8 63685F6D 		.ascii	"ch_mutex\000"
 2392      75746578 
 2392      00
 2393              	.LASF94:
 2394 04d1 4D4D4652 		.ascii	"MMFR\000"
 2394      00
 2395              	.LASF66:
 2396 04d6 726C6973 		.ascii	"rlist\000"
 2396      7400
 2397              	.LASF13:
 2398 04dc 75696E74 		.ascii	"uint8_t\000"
 2398      385F7400 
 2399              	.LASF34:
 2400 04e4 666C6167 		.ascii	"flags\000"
 2400      7300
 2401              	.LASF72:
 2402 04ea 52534552 		.ascii	"RSERVED1\000"
 2402      56454431 
 2402      00
 2403              	.LASF80:
 2404 04f3 53544952 		.ascii	"STIR\000"
 2404      00
 2405              	.LASF124:
 2406 04f8 474E5520 		.ascii	"GNU C 4.8.4 20140526 (release) [ARM/embedded-4_8-br"
 2406      4320342E 
 2406      382E3420 
 2406      32303134 
 2406      30353236 
 2407 052b 616E6368 		.ascii	"anch revision 211358] -mcpu=cortex-m4 -mno-thumb-in"
 2407      20726576 
 2407      6973696F 
 2407      6E203231 
 2407      31333538 
 2408 055e 74657277 		.ascii	"terwork -mthumb -ggdb -O2 -fomit-frame-pointer -fal"
ARM GAS  /tmp/ccyj3McZ.s 			page 62


 2408      6F726B20 
 2408      2D6D7468 
 2408      756D6220 
 2408      2D676764 
 2409 0591 69676E2D 		.ascii	"ign-functions=16 -ffunction-sections -fdata-section"
 2409      66756E63 
 2409      74696F6E 
 2409      733D3136 
 2409      202D6666 
 2410 05c4 73202D66 		.ascii	"s -fno-common -flto\000"
 2410      6E6F2D63 
 2410      6F6D6D6F 
 2410      6E202D66 
 2410      6C746F00 
 2411              	.LASF106:
 2412 05d8 77746F62 		.ascii	"wtobjp\000"
 2412      6A7000
 2413              	.LASF96:
 2414 05df 43504143 		.ascii	"CPACR\000"
 2414      5200
 2415              	.LASF89:
 2416 05e5 48465352 		.ascii	"HFSR\000"
 2416      00
 2417              	.LASF39:
 2418 05ea 6D74786C 		.ascii	"mtxlist\000"
 2418      69737400 
 2419              		.comm	__gnu_lto_v1,1,1
 2420              		.ident	"GCC: (GNU Tools for ARM Embedded Processors) 4.8.4 20140526 (release) [ARM/embedded-4_8-br
ARM GAS  /tmp/ccyj3McZ.s 			page 63


DEFINED SYMBOLS
                            *ABS*:00000000 nvic.c
     /tmp/ccyj3McZ.s:267    .text.nvicEnableVector:00000000 $t
     /tmp/ccyj3McZ.s:273    .text.nvicEnableVector:00000000 nvicEnableVector
     /tmp/ccyj3McZ.s:317    .text.nvicDisableVector:00000000 $t
     /tmp/ccyj3McZ.s:323    .text.nvicDisableVector:00000000 nvicDisableVector
     /tmp/ccyj3McZ.s:359    .text.nvicDisableVector:00000024 $d
     /tmp/ccyj3McZ.s:364    .text.nvicSetSystemHandlerPriority:00000000 $t
     /tmp/ccyj3McZ.s:370    .text.nvicSetSystemHandlerPriority:00000000 nvicSetSystemHandlerPriority
     /tmp/ccyj3McZ.s:392    .text.nvicClearPending:00000000 $t
     /tmp/ccyj3McZ.s:398    .text.nvicClearPending:00000000 nvicClearPending
     /tmp/ccyj3McZ.s:419    .text.nvicClearPending:00000018 $d
                            *COM*:00000001 __gnu_lto_v1
                     .debug_frame:00000010 $d
     /tmp/ccyj3McZ.s:363    .text.nvicDisableVector:00000028 $t
     /tmp/ccyj3McZ.s:423    .text.nvicClearPending:0000001c $t

NO UNDEFINED SYMBOLS
