ARM GAS  /tmp/cc8XlF10.s 			page 1


   1              		.syntax unified
   2              		.cpu cortex-m4
   3              		.fpu softvfp
   4              		.eabi_attribute 20, 1
   5              		.eabi_attribute 21, 1
   6              		.eabi_attribute 23, 3
   7              		.eabi_attribute 24, 1
   8              		.eabi_attribute 25, 1
   9              		.eabi_attribute 26, 1
  10              		.eabi_attribute 30, 2
  11              		.eabi_attribute 34, 1
  12              		.eabi_attribute 18, 4
  13              		.thumb
  14              		.file	"test_sequence_009.c"
  15              		.text
  16              	.Ltext0:
  17              		.section	.gnu.lto_.jmpfuncs.9bf49337384b03fb,"",%progbits
  18 0000 789CB591 		.ascii	"x\234\265\2211\016\202@\020E\377,((\032\265\264\220"
  18      310E8240 
  18      1045FF2C 
  18      28281AB5 
  18      B490
  19 0012 7009AD3D 		.ascii	"p\011\255=\206\275n\261\211+dE\023cC\351\021l\274\237"
  19      86BD6EB1 
  19      892B6445 
  19      136343E9 
  19      116CBC9F 
  20 0026 67B01216 		.ascii	"g\260\022\026EC\026\320Di\030\346}f\347\377e`0=S\013"
  20      454316D0 
  20      446918E6 
  20      7D66E7FF 
  20      6560303D 
  21 003c 98A5EF0E 		.ascii	"\230\245\357\016@\231\204\035qK\316\311P\020|\320%9"
  21      4099841D 
  21      714BCEC9 
  21      50107CD0 
  21      2539
  22 004e CF059156 		.ascii	"\317\005\221V2\215N\031b\362\321Z\220 \353\352\000v"
  22      328D4E19 
  22      62F2D15A 
  22      9020EBEA 
  22      0076
  23 0060 25B66DA0 		.ascii	"%\266m\240UK\333\260^\264%\363\343\012\252\213v\332"
  23      554BDBB0 
  23      5EB425F3 
  23      E30AAA8B 
  23      76DA
  24 0072 714D436A 		.ascii	"qMCj\326\312\212w?\216\217Q\356\307\375\356\307r\020"
  24      D6CA8A77 
  24      3F8E8F51 
  24      EEC7FDEE 
  24      C77210
  25 0085 DD06FE97 		.ascii	"\335\006\376\227\215,\003+:\035I\254Pw\323\320\274\367"
  25      8D2C032B 
  25      3A1D49AC 
  25      5077D3D0 
  25      BCF7
ARM GAS  /tmp/cc8XlF10.s 			page 2


  26 0097 59CF48D3 		.ascii	"Y\317H\323\0336\344\\\267P\223\276\354\274\366\036\013"
  26      1B36E45C 
  26      B75093BE 
  26      ECBCF61E 
  26      0B
  27 00a8 E42DE9A3 		.ascii	"\344-\351\243\351=\037\223|z_\353{\015\247\377\300\235"
  27      E93D1F93 
  27      7C7A5FEB 
  27      7B0DA7FF 
  27      C09D
  28 00ba C94075CA 		.ascii	"\311@u\312\030\254\3056\0166a\034p\031\305\007x\372"
  28      18ACC536 
  28      0E36611C 
  28      7019C507 
  28      78FA
  29 00cc 3BAFC791 		.ascii	";\257\307\221\012\367b\305U\240x\274S\033\276\012$\227"
  29      0AF762C5 
  29      55A078BC 
  29      531BBE0A 
  29      2497
  30 00de A13AE00E 		.ascii	"\241:\340\016K~\256\035"
  30      4B7EAE1D 
  31              		.text
  32              		.section	.gnu.lto_.inline.9bf49337384b03fb,"",%progbits
  33 0000 789C7D8F 		.ascii	"x\234}\217;\016\3020\020Dgm\307@p\240EH(\222E\317Mr"
  33      3B0EC230 
  33      1044676D 
  33      C74070A0 
  33      45482892 
  34 0018 2A2A1A22 		.ascii	"**\032\":\032\224:\005\327\240\347\030\234\002\257c"
  34      3A1A943A 
  34      05D7A0E7 
  34      189C02AF 
  34      63
  35 0029 3BB1F8B8 		.ascii	";\261\370\270Yiw\346\315X@\340\333;\3210\027\200\024"
  35      596977E6 
  35      CD5840E0 
  35      DB3BD130 
  35      178014
  36 003c E445BAAB 		.ascii	"\344E\272\253\275\226`vn\243\272:\255\244\001D\333@"
  36      BD966076 
  36      6EA3BA3A 
  36      ADA40144 
  36      DB40
  37 004e 5560A982 		.ascii	"U`\251\202^\345\036/\000\212_\007\215\331:?0J\2729\207"
  37      5EE51E2F 
  37      008A5F07 
  37      8DD93A3F 
  37      304ABA39 
  38 0063 7D903B6D 		.ascii	"}\220;m\357/5q\261\270mT\345M~\214\361\261M\211\375"
  38      EF2F3571 
  38      B1B86D54 
  38      E54D7E8C 
  38      F1B14D89 
  39 0078 8DAD9B63 		.ascii	"\215\255\233c/\307\366e\200O\373&\177\300\015\321K\034"
  39      2FC7F665 
  39      804FFB26 
ARM GAS  /tmp/cc8XlF10.s 			page 3


  39      7FC00DD1 
  39      4B1C
  40 008a 9EECB797 		.ascii	"\236\354\267\227s\361\021\315\223\222\223#)\303\312"
  40      73F111CD 
  40      93929323 
  40      29C3CA
  41 0099 F0394A75 		.ascii	"\3609Ju\014\354\365\177\235H\211L\012Lf\341\015\371"
  41      0CECF57F 
  41      9D48894C 
  41      0A4C66E1 
  41      0DF9
  42 00ab B71E99   		.ascii	"\267\036\231"
  43              		.text
  44              		.section	.gnu.lto_.pureconst.9bf49337384b03fb,"",%progbits
  45 0000 789C6362 		.ascii	"x\234cb`b\020f\200\000N\006\006F\011\026\011V\0116\011"
  45      60621066 
  45      80004E06 
  45      06460916 
  45      09560936 
  46 0015 0E092E09 		.ascii	"\016\011.\011n\011\036\011\000\012\303\001\032"
  46      6E091E09 
  46      000AC301 
  46      1A
  47              		.text
  48              		.section	.gnu.lto_null_provider.9bf49337384b03fb,"",%progbits
  49 0000 789C6362 		.ascii	"x\234cb`b@\007\222@\034\005\304\246@\314\310\314\300"
  49      60624007 
  49      92401C05 
  49      C4A640CC 
  49      C8CCC0
  50 0013 C834E11C 		.ascii	"\3104\341\034\003C#\007\023##\210\301\300\310P\317\304"
  50      03432307 
  50      13232388 
  50      C1C0C850 
  50      CFC4
  51 0025 581FC908 		.ascii	"X\037\311\010V\273\236\351\300\203\377\377\327\375z"
  51      56BB9EE9 
  51      C083FFFF 
  51      D7FD7A
  52 0034 FAB89B51 		.ascii	"\372\270\233Q\020d\024+CKC\303\004\005\006\206d\260"
  52      1064142B 
  52      434B43C3 
  52      04050686 
  52      64B0
  53 0046 82102009 		.ascii	"\202\020 \011\322\025\312\310\004\242\231/24>\350JN"
  53      D215CAC8 
  53      04A2992F 
  53      32343EE8 
  53      4A4E
  54 0058 645CC8C8 		.ascii	"d\\\310\310\312\020\301\230\311\010\2674\204\221\021"
  54      CA10C198 
  54      C908B734 
  54      849111
  55 0067 A4006484 		.ascii	"\244\000d\204\261\236\236\276sFfR\246\177\260~Ijq\211"
  55      B19E9EBE 
  55      73466652 
  55      A67FB07E 
ARM GAS  /tmp/cc8XlF10.s 			page 4


  55      496A7189 
  56 007b 7E51897E 		.ascii	"~Q\211~q~iQr*\204\013\"\342\213S\013KS\363\222S\343"
  56      717E6951 
  56      722A840B 
  56      22E28B53 
  56      0B4B53F3 
  57 0092 0D0C2CF5 		.ascii	"\015\014,\365\222\031\000\334\360,\203"
  57      921900DC 
  57      F02C83
  58              		.text
  59              		.section	.gnu.lto_test_009_003_execute.9bf49337384b03fb,"",%progbits
  60 0000 789C5D90 		.ascii	"x\234]\220=K\003A\020\206\337\331\273\363N-\264T\013"
  60      3D4B0341 
  60      1086DFD9 
  60      BBF34E2D 
  60      B4540B
  61 0013 C92FB88B 		.ascii	"\311/\270\213\010\202\235 \326\026F\320*\350r\350\202"
  61      08829D20 
  61      D61646D0 
  61      2AE872E8 
  61      82
  62 0024 97686E53 		.ascii	"\227hnS\210E6~\200eHuD,l\004A\264\265\264\025\214\207"
  62      8845367E 
  62      80654875 
  62      442C6C04 
  62      41B4B5B4 
  63 003b FF20A5BF 		.ascii	"\377 \245\277\301&\356\336G\012\027vfv\346}fg\227\201"
  63      C126EEDE 
  63      470A1776 
  63      6676E67D 
  63      66679781 
  64 004f E1FF5AD4 		.ascii	"\341\377Z\324{\205\200-\355\311\002\261\336\027\320"
  64      7B85802D 
  64      EDC902B1 
  64      DE17D0
  65 005e F5189109 		.ascii	"\365\030\221\011@\3500\352\354S\246}e\357\243\361\370"
  65      40E830EA 
  65      EC53A67D 
  65      65EFA3F1 
  65      F8
  66 006f 25E93F7F 		.ascii	"%\351?\177\322\007sm\010\202\243\215\251:\270V\252W"
  66      D207736D 
  66      0882A38D 
  66      A93AB856 
  66      AA57
  67 0081 0178A6AD 		.ascii	"\001x\246\255ik\032\354\0223\336\032\342\362-y\\:\240"
  67      696B1AEC 
  67      1233DE1A 
  67      E2F22D79 
  67      5C3AA0
  68 0094 07727087 		.ascii	"\007rp\207AW\251yA\354\002\277\352\326DV\224a{\244C"
  68      4157A979 
  68      41EC02BF 
  68      EAD64456 
  68      94617BA4 
  69 00a9 941133B9 		.ascii	"\224\0213\271\0247\243\301\023\345\344\021\331\023\304"
  69      1437A3C1 
ARM GAS  /tmp/cc8XlF10.s 			page 5


  69      13E5E411 
  69      D913C4
  70 00b8 E6948F65 		.ascii	"\346\224\217e2\236 '\242B\225\301S?\256\036\315\005"
  70      329E2027 
  70      A24295C1 
  70      533FAE1E 
  70      CD05
  71 00ca 86B84AAD 		.ascii	"\206\270J\255\022wt\007S\315\300\024N\001`\322\325\343"
  71      12777407 
  71      53CDC014 
  71      4E0160D2 
  71      D5E3
  72 00dc 947F92D6 		.ascii	"\224\177\222\326\232\344\202\240\351e\254\335\253dC"
  72      9AE482A0 
  72      E965ACDD 
  72      AB6443
  73 00eb D00C0ABD 		.ascii	"\320\014\012\275\240Y\340\033\345}\305\252\351\201\364"
  73      A059E01B 
  73      E57DC5AA 
  73      E981F4
  74 00fa 630DBFEA 		.ascii	"c\015\277\352\373\301\346\2618\024\333;\201\014c\031"
  74      FBC1E6B1 
  74      3814DB3B 
  74      810C6319 
  75 010a B4641037 		.ascii	"\264d\0207\333-\036\346Gc\352qx\326\016\033<\254W\253"
  75      DB2D1EE6 
  75      4763EA71 
  75      78D60E1B 
  75      3CAC57AB 
  76 011e EB3EC7DC 		.ascii	"\353>\307\334\211\210e\245\321\224\2250:\225\347\370"
  76      898865A5 
  76      D1949530 
  76      3A95E7F8 
  77 012e 03C44B5D 		.ascii	"\003\304K]q"
  77      71
  78              		.text
  79              		.section	.gnu.lto_test_009_003_setup.9bf49337384b03fb,"",%progbits
  80 0000 789C6362 		.ascii	"x\234cb`b@\007\222@<\025\210M\201\230\221\231\201\221"
  80      60624007 
  80      92403C15 
  80      884D8198 
  80      91998191 
  81 0014 69C23906 		.ascii	"i\3029\006\206F\016&FF\020\203\201\221\241\236\211\261"
  81      86460E26 
  81      46461083 
  81      8191A19E 
  81      89B1
  82 0026 3E9211AC 		.ascii	">\222\021\254v=\323\201\007\377\377\257\2330i\371\032"
  82      763DD381 
  82      07FFFFAF 
  82      9B3069F9 
  82      1A
  83 0037 C6134CCC 		.ascii	"\306\023L\314@\021V\206\226\206\206\011\012\014\014"
  83      40115686 
  83      96868609 
  83      0A0C0C
  84 0046 C9601521 		.ascii	"\311`\025!@\022\244-\224\221\011D3\237gh}\320y\222/"
ARM GAS  /tmp/cc8XlF10.s 			page 6


  84      4012A42D 
  84      94910944 
  84      339F6768 
  84      7DD07992 
  85 005b 91712123 		.ascii	"\221q!#+P\272\232\341WCG\203@&#P9\304D\220\010G&#c."
  85      2B50BA9A 
  85      E1574347 
  85      83402623 
  85      5039C444 
  86 0076 23035451 		.ascii	"#\003TQ\004c&#\023\013C&\320-\014\027\031\032\037ti"
  86      04632623 
  86      130B4326 
  86      D02D0C17 
  86      191A1F74 
  87 008b C2744340 		.ascii	"\302tC@\010P'\320h\220G\214\365\364\364\23532\2232\375"
  87      085027D0 
  87      6890478C 
  87      F5F4F49D 
  87      33329332 
  88 00a0 83F54B52 		.ascii	"\203\365KR\213K\364\213J\364\213\363K\213\222S!\\\020"
  88      8B4BF48B 
  88      4AF48BF3 
  88      4B8B9253 
  88      215C10
  89 00b3 115F9C5A 		.ascii	"\021_\234ZX\232\232\227\234\032o``\251\227\314\000\000"
  89      589A9A97 
  89      9C1A6F60 
  89      60A997CC 
  89      0000
  90 00c5 A9FA3931 		.ascii	"\251\37291"
  91              		.text
  92              		.section	.gnu.lto_test_009_002_setup.9bf49337384b03fb,"",%progbits
  93 0000 789C6362 		.ascii	"x\234cb`b@\007\222@<\025\210M\201\230\221\231\201\221"
  93      60624007 
  93      92403C15 
  93      884D8198 
  93      91998191 
  94 0014 69C23906 		.ascii	"i\3029\006\206F\016&FF\020\203\201\221\241\236\211\261"
  94      86460E26 
  94      46461083 
  94      8191A19E 
  94      89B1
  95 0026 3E9211AC 		.ascii	">\222\021\254v=\323\201\007\377\377\257\273\326\275"
  95      763DD381 
  95      07FFFFAF 
  95      BBD6BD
  96 0035 FC0EE33A 		.ascii	"\374\016\343:&f\240\010+CKC\303\004\005\006\206d\260"
  96      2666A008 
  96      2B434B43 
  96      C3040506 
  96      8664B0
  97 0048 8A102009 		.ascii	"\212\020 \011\322\026\312\310\004\242\231\3173\264>"
  97      D216CAC8 
  97      04A299CF 
  97      33B43E
  98 0057 7873942F 		.ascii	"xs\224/\221q!#+P\272\232\341WCG\203@&#P9\304D\220\010"
  98      91712123 
ARM GAS  /tmp/cc8XlF10.s 			page 7


  98      2B50BA9A 
  98      E1574347 
  98      83402623 
  99 0071 47262363 		.ascii	"G&#c.#\003TQ\004c&#\023\013C&\320-\014\027\031\032\037"
  99      2E230354 
  99      51046326 
  99      23130B43 
  99      26D02D0C 
 100 0089 BC5585E9 		.ascii	"\274U\205\351\206\200\020\240N\240\321 \217\030\353"
 100      868010A0 
 100      4EA0D120 
 100      8F18EB
 101 0098 E9E93B67 		.ascii	"\351\351;gd&e\372\007\353\227\244\026\227\350\027\225"
 101      642665FA 
 101      07EB97A4 
 101      1697E817 
 101      95
 102 00a9 E817E797 		.ascii	"\350\027\347\227\026%\247B\270 \"\2768\265\26045/95"
 102      1625A742 
 102      B82022BE 
 102      38B5B034 
 102      352F3935 
 103 00bd DEC0C052 		.ascii	"\336\300\300R/\231\001\000:y:D"
 103      2F990100 
 103      3A793A44 
 104              		.text
 105              		.section	.gnu.lto_test_009_001_setup.9bf49337384b03fb,"",%progbits
 106 0000 789C6362 		.ascii	"x\234cb`b@\007\222@<\007\210M\201\230\221\231\201\221"
 106      60624007 
 106      92403C07 
 106      884D8198 
 106      91998191 
 107 0014 69C23906 		.ascii	"i\3029\006\206F\016&FF\020\203\201\221\241\236\211\261"
 107      86460E26 
 107      46461083 
 107      8191A19E 
 107      89B1
 108 0026 3E9211AC 		.ascii	">\222\021\254v=\323\201\007\377\377\257\373\321\266"
 108      763DD381 
 108      07FFFFAF 
 108      FBD1B6
 109 0035 FC0DE36C 		.ascii	"\374\015\343l&f\240\010+CKC\303\004\005\006\206d\260"
 109      2666A008 
 109      2B434B43 
 109      C3040506 
 109      8664B0
 110 0048 8A102009 		.ascii	"\212\020 \011\322\026\312\310\004\242\231\3173\264="
 110      D216CAC8 
 110      04A299CF 
 110      33B43D
 111 0057 D8FB982B 		.ascii	"\330\373\230+\221q!#+P\272\232\341WCG\203@&#P9\304D"
 111      91712123 
 111      2B50BA9A 
 111      E1574347 
 111      83402623 
 112 006f 90084726 		.ascii	"\220\010G&#c.#\003TQ\004c&#\023\013\230\002Z\220\311"
 112      23632E23 
ARM GAS  /tmp/cc8XlF10.s 			page 8


 112      03545104 
 112      63262313 
 112      0B98025A 
 113 0085 C8C2C070 		.ascii	"\310\302\300p\221\241\361\301>e\230!\020\020\0024\000"
 113      91A1F1C1 
 113      3E659821 
 113      10100234 
 113      00
 114 0096 6803C83F 		.ascii	"h\003\310?\306zz\372\316\031\231I\231\376\301\372%\251"
 114      C67A7AFA 
 114      CE199949 
 114      99FEC1FA 
 114      25A9
 115 00a8 C525FA45 		.ascii	"\305%\372E%\372\305\371\245E\311\251\020.\210\210/N"
 115      25FAC5F9 
 115      A545C9A9 
 115      102E8888 
 115      2F4E
 116 00ba 2D2C4DCD 		.ascii	"-,M\315KN\21570\260\324Kf\000\000o\037:\347"
 116      4B4E8D37 
 116      30B0D44B 
 116      6600006F 
 116      1F3AE7
 117              		.text
 118              		.section	.gnu.lto_test_009_002_execute.part.0.9bf49337384b03fb,"",%progbits
 119 0000 789C9D54 		.ascii	"x\234\235TMHUA\024>g\346\376\314\275W{V\213j#\322>\237"
 119      4D485541 
 119      143E67E6 
 119      FECCBD57 
 119      7B568B6A 
 120 0018 54846D24 		.ascii	"T\204m$\250E\273\026*\330J\354\362\260\013=-\337sQ."
 120      A845BB16 
 120      2AD84AEC 
 120      F2B00B3D 
 120      2DDF7351 
 121 002d 9CE75372 		.ascii	"\234\347Sr)\255,\221\222\026A?H\273(\210\247+-\374i"
 121      29AD2C91 
 121      9216413F 
 121      48BB2888 
 121      A72B2DFC 
 122 0042 57BBD7A6 		.ascii	"W\273\327\246\240\242\240U\211\360<3s\357\365\251\030"
 122      A0A2A055 
 122      89F03C33 
 122      73EFF5A9 
 122      18
 123 0053 D8C09D33 		.ascii	"\330\300\2353s\376\346\233\357\033.\003\006\273G\211"
 123      73FEE69B 
 123      EF1B2E03 
 123      06BB4789 
 124 0063 BE171640 		.ascii	"\276\027\026@'Yl\000\014\246Vi\021 \323\226\241\245"
 124      27596C00 
 124      0CA65669 
 124      1120D396 
 124      A1A5
 125 0075 6C4970B3 		.ascii	"lIp\263X\020\026\343\225\016\220\276\275\236\001\331"
 125      581016E3 
 125      950E90BE 
ARM GAS  /tmp/cc8XlF10.s 			page 9


 125      BD9E01D9 
 126 0085 60A33071 		.ascii	"`\2430q\207\371\213\234\334\356\352; \277k\374\013B"
 126      87F98B9C 
 126      DCEEEA3B 
 126      20BF6BFC 
 126      0B42
 127 0097 3047A77B 		.ascii	"0G\247{:\335C\337\244\373\210j\001\010\243\001\343\226"
 127      3ADD43DF 
 127      A4FB886A 
 127      0108A301 
 127      E396
 128 00a9 EDB8C2F3 		.ascii	"\355\270\302\363q\364**Hx\022\346\244\274W\235x\373"
 128      71F42A2A 
 128      487812E6 
 128      A4BC579D 
 128      78FB
 129 00bb 19EFCBCA 		.ascii	"\031\357\313\312\370#\271Y\253!FH\360\317!\204\010="
 129      F823B959 
 129      AB214648 
 129      F0CF2184 
 129      083D
 130 00cd B4C1166D 		.ascii	"\264\301\026m\230\265\363>\363LVk\265\277\277\275c\010"
 130      98B5F33E 
 130      F34C566B 
 130      B5BFBFBD 
 130      6308
 131 00df 7D3847BD 		.ascii	"}8G\275\030D\310y\274\261hc\3314\331\216\232\334\330"
 131      1844C879 
 131      BCB16863 
 131      D934D98E 
 131      9ADCD8
 132 00f2 2D62EBA9 		.ascii	"-b\353\251\260\257\"\324\312\206q)\247ZL\004\324\271"
 132      B0AF22D4 
 132      CA867129 
 132      A75A4C04 
 132      D4B9
 133 0104 34BA68A6 		.ascii	"4\272h\246\273ta@\206w#Sf\005\306^M\177;\321\207\217"
 133      BB746140 
 133      86772353 
 133      6605C65E 
 133      4D7F3BD1 
 134 011a A970061E 		.ascii	"\251p\006\036\224\244l\"\270#\260!'\325\312\311\353"
 134      94A46C22 
 134      B823B021 
 134      27D5CAC9 
 134      EB
 135 012b 5A85D781 		.ascii	"Z\205\327\201d\005\012\3712\214U\237\336uM\2459I\307"
 135      64050AF9 
 135      328C559F 
 135      DE754DA5 
 135      3949C7
 136 013e 92D18D1C 		.ascii	"\222\321\215\034*\035\352\200\215\362\374\354e\223\327"
 136      2A1DEA80 
 136      8DF2FCEC 
 136      6593D7
 137 014d 8F6C04EE 		.ascii	"\217l\004\356\320\255N\301sI\343%U\270y\304~\304z*\326"
 137      D0AD4EC1 
ARM GAS  /tmp/cc8XlF10.s 			page 10


 137      7349E325 
 137      55B879C4 
 137      7EC47A2A 
 138 0162 60A2D26E 		.ascii	"`\242\322n*`\033\213\010\343,\345\021\021zydq\022\365"
 138      2A601B8B 
 138      08E32CE5 
 138      11117A79 
 138      647112F5 
 139 0176 8DD00758 		.ascii	"\215\320\007X\201\362d\371\331lOr\032\247\306\032\025"
 139      81F264F9 
 139      D96C4F72 
 139      1AA7C61A 
 139      15
 140 0187 6AC4AC1E 		.ascii	"j\304\254\036-E\023\244\026\220\246\234n$ \015R\305"
 140      2D4513A4 
 140      1690A69C 
 140      6E24200D 
 140      52C5
 141 0199 128C7F29 		.ascii	"\022\214\177)\005I/\323\210\247 ?\001\306\027fKt\016"
 141      05492FD3 
 141      88A7203F 
 141      01C61766 
 141      4B740E
 142 01ac E79381EA 		.ascii	"\347\223\201\352e\247\264\376<(\255vL\353\353\177\322"
 142      65A7B4FE 
 142      3C28AD76 
 142      4CEBEB7F 
 142      D2
 143 01bd EAC0E659 		.ascii	"\352\300\346YN\014U\337|\305\004\233\225v\016Bd\373"
 143      4E0C55DF 
 143      7CC5049B 
 143      95760E42 
 143      64FB
 144 01cf 90A4FA34 		.ascii	"\220\244\3724\000=\221FM\324G\236T\333\324@\005-\303"
 144      003D9146 
 144      4DD4479E 
 144      54DBD440 
 144      052DC3
 145 01e2 BD9DF89D 		.ascii	"\275\235\370\235\264\353\2410&\213\222\225\363x\204"
 145      B4EBA130 
 145      268B9295 
 145      F37884
 146 01f1 9966689F 		.ascii	"\231fh\237\225\323\027\"l\202\370\200\010\017k\322~"
 146      95D31722 
 146      6C82F880 
 146      080F6BD2 
 146      7E
 147 0202 A4B81CD5 		.ascii	"\244\270\034\325\326\256\227\266\033]x\177\232k\241"
 147      D6AE97B6 
 147      1B5D787F 
 147      9A6BA1
 148 0211 BE6F0B25 		.ascii	"\276o\013%\372\321\335_(\221\324\012\230Y\334-\224\273"
 148      FAD1DD5F 
 148      2891D40A 
 148      9859DC2D 
 148      94BB
 149 0223 5B28778F 		.ascii	"[(w\217PnL\241\255\204\022\256\021\312\203\207\215Z"
ARM GAS  /tmp/cc8XlF10.s 			page 11


 149      506E4CA1 
 149      AD8412AE 
 149      11CA8387 
 149      8D5A
 150 0235 A83FBF0E 		.ascii	"\250?\277\016*\224c\336hu\371IzS\357?\024XK\025\360"
 150      2A9463DE 
 150      6875F949 
 150      7A53EF3F 
 150      14584B15 
 151 024a A9C15E05 		.ascii	"\251\301^\005\352\336~\235\000~,\300\221f\270d\0048"
 151      EADE7E9D 
 151      007E2CC0 
 151      9166B864 
 151      0438
 152 025c BA4300C3 		.ascii	"\272C\000\303\224\257\236\341\007\372amS\337Eoz=\243"
 152      94AF9EE1 
 152      07FA616D 
 152      53DF456F 
 152      7A3DA3
 153 026f B09D696D 		.ascii	"\260\235im\315^\274\036]\213\256tf\213\271B1;T\314\026"
 153      CD5EBC1E 
 153      5D8BAE74 
 153      668BB942 
 153      313B54CC 
 154 0284 068787C2 		.ascii	"\006\207\207\302\234\331\252\251\267\220\2735\234\033"
 154      9CD9AAA9 
 154      B790BB35 
 154      9C1B
 155 0292 0873BD6D 		.ascii	"\010s\275mm\347[C\300(\270\021\025\212-\271\374\315"
 155      6DE75B43 
 155      C028B811 
 155      158A2DB9 
 155      FCCD
 156 02a4 E26DC8E8 		.ascii	"\342m\310\350\365\300`\262\337\002\217\344&\206"
 156      F5C060B2 
 156      DF028FE4 
 156      2686
 157              		.text
 158              		.section	.gnu.lto_test_009_002_execute.9bf49337384b03fb,"",%progbits
 159 0000 789C9D54 		.ascii	"x\234\235T\317k\023A\024~of7\231tc7\246\026\024\244"
 159      CF6B1341 
 159      147E6F66 
 159      37997463 
 159      37A61614 
 160 0015 14FF80A4 		.ascii	"\024\377\200\244 \210\"\024A\357\036\332B=\225\272."
 160      20882214 
 160      41EF1EDA 
 160      423D95BA 
 160      2E
 161 0026 75C1B4DA 		.ascii	"u\301\264\332\244\007\361\320I\323h\017\012\305\213"
 161      A407F1D0 
 161      49D3680F 
 161      0AC58B
 162 0035 D52A583C 		.ascii	"\325*X<x\364\340%\007\321(\036Z\305\266\202\207z\020"
 162      78F4E025 
 162      07D1281E 
 162      5AC5B682 
ARM GAS  /tmp/cc8XlF10.s 			page 12


 162      877A10
 163 0048 D682F5E2 		.ascii	"\326\202\365\342_ \305\370\336\376\252\325\364P\007"
 163      5F20C5F8 
 163      DEFEAAD5 
 163      F45007
 164 0057 3233EF9B 		.ascii	"23\357\233\367\276\371f\276\331\010\020\360w\273D\277"
 164      F7BEF966 
 164      BED90810 
 164      F077BB44 
 164      BF
 165 0068 A306C000 		.ascii	"\243\006\300\000\215\230\001\024\363\253\000U%\320\014"
 165      8D980114 
 165      F3AB0055 
 165      25D00C
 166 0077 2752A837 		.ascii	"'R\2507\022t\207\261\372\016@g\215\020\177\255L!\233"
 166      127487B1 
 166      FA0E4067 
 166      8D107FAD 
 166      4C219B
 167 008a FD84A7D6 		.ascii	"\375\204\247\326m\202SB\275\350\241(\375\251HQ\032\025"
 167      6D825342 
 167      BDE8A128 
 167      FDA94851 
 167      1A15
 168 009c 27A142E4 		.ascii	"'\241B\344\021\020\246\2054\314TZ\341\364\005\344]\361"
 168      1110A685 
 168      34CC545A 
 168      E1F405E4 
 168      5DF1
 169 00ae 182C697D 		.ascii	"\030,i}\327\257\277\374\212\367us\366\261\336n\265\020"
 169      D7AFBFFC 
 169      8AF77573 
 169      F6B1DE6E 
 169      B510
 170 00c0 3D248527 		.ascii	"=$\205'\020\034\204a\012\2607\030\204\261[\3623\321"
 170      101C8461 
 170      0AB03718 
 170      84B15BF2 
 170      33D1
 171 00d2 F45BADED 		.ascii	"\364[\255\355/\376\346{\354\352F\030\305%\342S\340\241"
 171      2FFEE67B 
 171      ECEA4618 
 171      C525E253 
 171      E0A1
 172 00e4 CC506758 		.ascii	"\314PgX\334e#\330f8\307H\236;*7aV\353\371\336p\031x"
 172      DC6523D8 
 172      6638C748 
 172      9E3B2A37 
 172      6156EBF9 
 173 00fc 2F6A83D4 		.ascii	"/j\203\3247\3620\204\202\006\371\001f\032\013\257\216"
 173      37F23084 
 173      8206F901 
 173      661A0BAF 
 173      8E
 174 010d 8CE21334 		.ascii	"\214\342\0234a\021\036T\265\316\221\266\033\360S\317"
 174      61111E54 
 174      B5CE91B6 
ARM GAS  /tmp/cc8XlF10.s 			page 13


 174      1BF053CF 
 175 011d F1CC2C05 		.ascii	"\361\314,\005E,\316\204x\006\214\255\301M\377\327\267"
 175      452CCE84 
 175      78068CAD 
 175      C14DFFD7 
 175      B7
 176 012e CEB01276 		.ascii	"\316\260\022v*R\016\006%\001\242<L\227\020\243\2440"
 176      2A520E06 
 176      2501A23C 
 176      4C9710A3 
 176      A430
 177 0140 47DF230A 		.ascii	"G\337#\012UB\021\241\314\2301Hr\007\000\313\331\330"
 177      554211A1 
 177      CC983148 
 177      720700CB 
 177      D9D8
 178 0152 DCAF1CF6 		.ascii	"\334\257\034\366z\005f\374\333\267\322aex\342`-nC(\241"
 178      7A0566FC 
 178      DBB7D261 
 178      6578E260 
 178      2D6E4328 
 179 0167 D92FD7A0 		.ascii	"\331/\327\240\356\337\371\036\011\032C\2250[\016\212"
 179      EEDFF91E 
 179      091A4395 
 179      305B0E8A 
 180 0177 3D64334F 		.ascii	"=d3O\026H\340\001\026X\333\220qu\206\010xQBp\037f\214"
 180      1648E001 
 180      1658DB90 
 180      71758608 
 180      78514270 
 181 018e 5B096BA7 		.ascii	"[\011k\247\023.r2\203\207=\264{\340\344#\275p\306\303"
 181      132E7232 
 181      83873DB4 
 181      7BE0E423 
 181      BD70C6C3 
 182 01a2 1C441B78 		.ascii	"\034D\033xx\020`\031f\177$\272,\246\335\365\030\206"
 182      78106019 
 182      667F24BA 
 182      2CA6DDF5 
 182      1886
 183 01b4 28DC384D 		.ascii	"(\3348M~\325\346j\317\037\016\307\211\3311\304\304\222"
 183      7ED5E66A 
 183      CF1F0EC7 
 183      89D931C4 
 183      C492
 184 01c6 15107F9E 		.ascii	"\025\020\177\236\177\214U\207\265&\320\363\224tG\012"
 184      7F8C5587 
 184      B526D0F3 
 184      9474470A 
 185 01d6 92450CF6 		.ascii	"\222E\014\366\334\252Z1WH$\223-?\003FW(\226%\221\031"
 185      DCAA5A31 
 185      57482493 
 185      2D3F0346 
 185      57289625 
 186 01ec 731673A5 		.ascii	"s\026s\245`\335\016\336Mck\277F\311\340\236\352\376"
 186      60DD0EDE 
 186      4D636BBF 
ARM GAS  /tmp/cc8XlF10.s 			page 14


 186      46C9E09E 
 186      EAFE
 187 01fe E2D3E4A4 		.ascii	"\342\323\344\244\366\1778\260\2268\220#\202v\016\344"
 187      F67F38B0 
 187      96389023 
 187      82760EE4 
 188 020e DB39908B 		.ascii	"\3339\220\213\034\310\367\300\271\320\201\256\275\035"
 188      1CC8F7C0 
 188      B9D081AE 
 188      BD1D
 189 021c C8B77120 		.ascii	"\310\267q \015o3\364\202j\352\237G\177\310\211r=\354"
 189      0D6F33F4 
 189      826AEA9F 
 189      477FC889 
 189      723DEC
 190 022f 8EB3157F 		.ascii	"\216\263\025\177_\037\351\217e\207b\220.\275\221\347"
 190      5F1FE98F 
 190      65876290 
 190      2EBD91E7 
 191 023f 531E2F14 		.ascii	"S\036/\024\212g/{\027\275\363\003\305\212[\256\024'"
 191      8A672F7B 
 191      17BDF303 
 191      C58A5BAE 
 191      1427
 192 0251 2BC5F2C4 		.ascii	"+\305\362\304\324\244\343\206!w#e\367\332\224;\356\270"
 192      D4A4E386 
 192      21772365 
 192      F7DA943B 
 192      EEB8
 193 0263 237D7DA7 		.ascii	"#}}\247\012\016\240g]\361\312\225^\267t\265r\035\354"
 193      0A0EA067 
 193      5DF1CA95 
 193      5EB774B5 
 193      721DEC
 194 0276 603E3E11 		.ascii	"`>>\021\307\277\00145\007\\"
 194      C7BF0134 
 194      35075C
 195              		.text
 196              		.section	.gnu.lto_test_009_001_execute.part.1.9bf49337384b03fb,"",%progbits
 197 0000 789C9D94 		.ascii	"x\234\235\224ML\023A\024\307\337\233\375\354nk\361\033"
 197      4D4C1341 
 197      14C7DF9B 
 197      FDEC6E6B 
 197      F11B
 198 0012 2E4DE3CD 		.ascii	".M\343\315\203\224\2501x!&z\367`I\360Dp\331\340&\026"
 198      8394A831 
 198      7821267A 
 198      F76049F0 
 198      4470D9E0 
 199 0028 B02D26C8 		.ascii	"\260-&\310\201\205\026SO\240\321\004%\212\204\020\023"
 199      81851653 
 199      4FA0D104 
 199      258A8410 
 199      13
 200 0039 63E2153D 		.ascii	"c\342\025=\025N\250\341\303\213\301[/\352AO\234\024"
 200      154EA8E1 
 200      C38BC15B 
ARM GAS  /tmp/cc8XlF10.s 			page 15


 200      2FEA414F 
 200      9C14
 201 004b 49EA9B9D 		.ascii	"I\352\233\235\335\245@1\301I:o\336\314\2747\377\367"
 201      DDA54031 
 201      C1493A6F 
 201      DECCBC37 
 201      FFF7
 202 005d 7BE93260 		.ascii	"{\3512`\260{L\320oC\001\310\220\305\030`tb\205\026Q"
 202      B07B4CD0 
 202      6F4301C8 
 202      90C51860 
 202      74628516 
 203 0072 649E6528 		.ascii	"d\236e(s;\242Kb\261\240\313L*\267\201k(kqp\243\012\352"
 203      733BA24B 
 203      62B1A0CB 
 203      4C2AB781 
 203      6B286B71 
 204 008a E25C65E6 		.ascii	"\342\\e\346\242D\333\332\312\007\240}M\354/\350:S\275"
 204      A244DBDA 
 204      CA07A07D 
 204      4DEC2FE8 
 204      3A53BD
 205 009d EB11EF7A 		.ascii	"\353\021\357z\204\231\237S\344\031\357\022\344\031h"
 205      84999F53 
 205      E419EF12 
 205      E41968
 206 00ac 8A601391 		.ascii	"\212`\023\221/\000a8\312$YQ5=b\2308|\035\271B<\0053"
 206      2F006138 
 206      CA245951 
 206      353D6298 
 206      387C1DB9 
 207 00c4 AEFBB032 		.ascii	"\256\373\2602\267Q\301'n\271\370\302\335\252V\021\035"
 207      B751C127 
 207      6EB9F8C2 
 207      DDAA5611 
 207      1D
 208 00d5 A46A2E20 		.ascii	"\244j. X\010\035\344`\3223L\336Y\336\033\346V\252\325"
 208      58081DE4 
 208      60D2334C 
 208      DE59DE1B 
 208      E656AAD5 
 209 00e9 B7AF2209 		.ascii	"\267\257\"\011\204.\234\241\\\014\034\224$\337\221\311"
 209      842E9CA1 
 209      5C0C1C94 
 209      24DF91C9 
 210 00f9 91159A14 		.ascii	"\221\025\232\024\225O\232\277\255\3736\302\217\015~"
 210      954F9ABF 
 210      ADFB36C2 
 210      8F0D7E
 211 0108 62F229CA 		.ascii	"b\362)\312\335\030_Qf\005\212\256;\221\024\027\201\313"
 211      DD185F51 
 211      66058AAE 
 211      3B911417 
 211      81CB
 212 011a A091A699 		.ascii	"\240\221\246\231*Mc\224\214\324\216\214\233e\030\235"
 212      2A4D6394 
 212      8CD48E8C 
ARM GAS  /tmp/cc8XlF10.s 			page 16


 212      9B65189D 
 213 012a FFF5A7B1 		.ascii	"\377\365\247\261\013g)p\012\236\216\270n\003\251\037"
 213      0B672970 
 213      0A9E8EB8 
 213      6E03A91F 
 214 013a 824DB7C4 		.ascii	"\202M\267\304Wj\306\213\345\362U\010V\300\013y\017\243"
 214      576AC68B 
 214      E5F25508 
 214      56C00B79 
 214      0FA3
 215 014c 95DF054D 		.ascii	"\225\337\005MD\212\227\274\263`\264\243\004\3456\376"
 215      448A97BC 
 215      B360B4A3 
 215      04E536FE 
 216 015c C066E1C7 		.ascii	"\300f\341\307x\253\270\327\203l\010\356R\221g\340\265"
 216      78ABB8D7 
 216      836C08EE 
 216      529167E0 
 216      B5
 217 016d 4BE30145 		.ascii	"K\343\001Eh\031\304\036\304Z2\2530V>-\"`[\213n\371\267"
 217      6819C41E 
 217      C45A32AB 
 217      30563E2D 
 217      22605B8B 
 218 0184 F88EEE60 		.ascii	"\370\216\356`$\203\314\277Dy\0354\000\226\241P*|\037"
 218      2483CCBF 
 218      44791D34 
 218      0096A150 
 218      2A7C1F
 219 0197 EF085E93 		.ascii	"\357\010^\223(\261\247\012=\305\254V-\235\006Je\240"
 219      28B1A70A 
 219      3DC5AC56 
 219      2D9D064A 
 219      65A0
 220 01a9 1E4B5491 		.ascii	"\036KT\221\016\341!E,A\361\333\210\031\344\022\211\244"
 220      0EE12145 
 220      2C41F1DB 
 220      8819E412 
 220      89A4
 221 01bb 50E41740 		.ascii	"P\344\027@\277`\266D\357HR\311\344\271\224\000\353z"
 221      BF60B644 
 221      EF4852C9 
 221      E4B99400 
 221      EB7A
 222 01cd F5A05815 		.ascii	"\365\240X\025\037ki\354_XU\330:/\255B\261r\377+\006"
 222      1F6B69EC 
 222      5F5855D8 
 222      3A2FAD42 
 222      B172FF2B 
 223 01e2 DAE430B3 		.ascii	"\332\3440\263i!\333\007\222C\235\347\204\326\245 L\241"
 223      6921DB07 
 223      92439DE7 
 223      84D6A520 
 223      4CA1
 224 01f4 489E5D16 		.ascii	"H\236]\026\320\225`_\015\323\305,\237\022]\346\233\215"
 224      D095605F 
 224      0DD3C52C 
ARM GAS  /tmp/cc8XlF10.s 			page 17


 224      9F125DE6 
 224      9B8D
 225 0206 0E1E4A40 		.ascii	"\016\036J@\3533w\362\222\203q\01037x\264~\206\202T\236"
 225      EB3377F2 
 225      92837108 
 225      333778B4 
 225      7E868254 
 226 021b 56A9ED69 		.ascii	"V\251\355i;j\360\361\254\344uh\366Q\330!\275\007\265"
 226      3B6AF0F1 
 226      ACE47568 
 226      F651D821 
 226      BD07B5
 227 022e FD3BA407 		.ascii	"\375;\244\007\261:L-\356\356\220\266\273C\332\236\016"
 227      B13A4C2D 
 227      EEEE90B6 
 227      BB43DA9E 
 227      0E
 228 023f 693E3B85 		.ascii	"i>;\205wH\327D\207\"0\035\363:4?\333t\300\016\251\036"
 228      7748D744 
 228      8722301D 
 228      F33A343F 
 228      DB74C00E 
 229 0255 A762657C 		.ascii	"\247be|.\2544r\020\364\253!z\203\"\353\2417\353\241"
 229      2EAC3472 
 229      10F4AB21 
 229      7A8322EB 
 229      A137EBA1 
 230 0269 377CF487 		.ascii	"7|\364\207\023pE\240?\262?z\263\016z\003\036+^\311\223"
 230      137045A0 
 230      3FB23F7A 
 230      B30E7A03 
 230      1E2B5EC9 
 231 027e 2F0F5AB2 		.ascii	"/\017Z\262\346\351\273Wy>g\356\371G\036\265\204\376"
 231      E6E9BB57 
 231      793E67EE 
 231      F9471EB5 
 231      84FE
 232 0290 3A15FBDF 		.ascii	":\025\373\337\011\377\340\230\205J(\370\270`8\275\315"
 232      09FFE098 
 232      854A28F8 
 232      B86038BD 
 232      CD
 233 02a1 30FA7F0C 		.ascii	"0\372\177\014c\024\271\227a\215\276\032\2041\037\341"
 233      6314B997 
 233      618DBE1A 
 233      84311FE1 
 234 02b1 8904A405 		.ascii	"\211\004\244\005\302\223;\020\012N&\377\363~\242\317"
 234      C2933B10 
 234      0A4E26FF 
 234      F37EA2CF 
 235 02c1 FE36BC34 		.ascii	"\3766\2744}\011\326\342\\\324\271\346\346\324\345\233"
 235      7D09D6E2 
 235      5CD4B9E6 
 235      E6D4E59B 
 236 02d1 CE0DE7EA 		.ascii	"\316\015\347\352\265T\336\316\345S\331|*\3277\220\265"
 236      B554DECE 
 236      E553D97C 
ARM GAS  /tmp/cc8XlF10.s 			page 18


 236      2AD73790 
 236      B5
 237 02e2 6CE1F2A9 		.ascii	"l\341\362\2513g\337\036\260{-\273\263\245\345b\263\005"
 237      3367DF1E 
 237      B07B2DBB 
 237      B3A5E562 
 237      B305
 238 02f4 E898B79C 		.ascii	"\350\230\267\234\\>ig\372\363\203\020\367\326\275}\201"
 238      5C3E6967 
 238      FAF38310 
 238      F7D6BD7D 
 238      81
 239 0305 DFD49FED 		.ascii	"\337\324\237\355\273\343t\333\331d\326\316\017d{\355"
 239      BBE374DB 
 239      D964D6CE 
 239      0F647BED 
 240 0315 EE64C6CE 		.ascii	"\356d\306\316\364e\007\341/\003_w\037"
 240      F46507E1 
 240      2F035F77 
 240      1F
 241              		.text
 242              		.section	.gnu.lto_test_009_001_execute.9bf49337384b03fb,"",%progbits
 243 0000 789C9554 		.ascii	"x\234\225T\317k\023A\024~of7\231tS7\256\012=\205\340"
 243      CF6B1341 
 243      147E6F66 
 243      37997453 
 243      37AE0A3D 
 244 0016 1F901404 		.ascii	"\037\220\024\004Q\204\"\350\335C\033\250\247R\327%."
 244      518422E8 
 244      DD431BA8 
 244      A752D725 
 244      2E
 245 0027 98569B94 		.ascii	"\230V\233\224\"\036:\351\006\311A\244x\252\212`)\036"
 245      221E3AE9 
 245      06C941A4 
 245      78AA8A60 
 245      291E
 246 0039 3C798DE0 		.ascii	"<y\215\340!\212\207V0\251\340\241\202\302\242\340EO"
 246      218A8756 
 246      30A9E0A1 
 246      82C2A2E0 
 246      454F
 247 004b 163C1421 		.ascii	"\026<\024!\276\331_\265\232\0362\220\231y\337\274\367"
 247      BED95FB5 
 247      9A1E3290 
 247      9979DFBC 
 247      F7
 248 005c CD37DFCC 		.ascii	"\3157\337\314\206\001\203\177\333U\372\215j\000\223"
 248      8601837F 
 248      DB55FA8D 
 248      6A0093
 249 006b 34620690 		.ascii	"4b\006\220\255v\001\032\202\241\036N8\023\2579\310\021"
 249      AD76011A 
 249      82A11E4E 
 249      3813AF39 
 249      C811
 250 007d ADFB1640 		.ascii	"\255\373\026@f\265\020\177%t\306;\023\204\247\266M\202"
ARM GAS  /tmp/cc8XlF10.s 			page 19


 250      66B5107F 
 250      2574C63B 
 250      1384A7B6 
 250      4D82
 251 008f 534CBCCC 		.ascii	"SL\274\314S\224\376P\242(\215B%\241@T# ,3\256\351\251"
 251      5394FE50 
 251      A2288D42 
 251      25A14054 
 251      23202C33 
 252 00a6 B4C0E5CB 		.ascii	"\264\300\345\313\250v\305\223\260.\345}\377\351O\037"
 252      A876C593 
 252      B02EE57D 
 252      FFE94F1F 
 253 00b6 1FC84EF3 		.ascii	"\037\310N\363\211\374\335\357#\272H\012O#\330\010\323"
 253      89FCDDEF 
 253      23BA480A 
 253      4F23D808 
 253      D3
 254 00c7 14602118 		.ascii	"\024`!\030\230vP\362s\326\361\373\375\273/\374/\317"
 254      987650F2 
 254      73D6F1FB 
 254      FDBB2FFC 
 254      2FCF
 255 00d9 D03A8130 		.ascii	"\320:\2010\213\353\304'\300E\236\241N3T\227\215`S\301"
 255      8BEBC427 
 255      C0459EA1 
 255      4E335497 
 255      8D6053C1 
 256 00ed 398558AA 		.ascii	"9\205X\252\243r\035\232R\256\026\302eP{Q\233\242\276"
 256      A3721D9A 
 256      52AE16C2 
 256      65507B51 
 256      9BA2BE
 257 0100 6D411919 		.ascii	"mA\031\031\015\374\035\254\264\327v\307fq\003ux\004"
 257      0DFC1DAC 
 257      B4D776C7 
 257      66710375 
 257      7804
 258 0112 0F1B52E6 		.ascii	"\017\033R\346H\333m\330\223-5\323\253A\221\022\247C"
 258      48DB6DD8 
 258      932D35D3 
 258      AB419112 
 258      A743
 259 0124 3C0385F5 		.ascii	"<\003\205\365\340\216\337\365\214\260\022\366+R6\006"
 259      E08EDFF5 
 259      8CB012F6 
 259      2B523606 
 260 0134 2501225C 		.ascii	"%\001\"\\LW\021\243\2440G.\271(\252\310\"P\021f4R<\002"
 260      4C5711A3 
 260      A430472E 
 260      B928AAC8 
 260      22501166 
 261 014c A0D4ECFC 		.ascii	"\240\324\354\374\032V\215\272\352-X\361?y\351\2602<"
 261      1A568DBA 
 261      EA2D58F1 
 261      3F79E9B0 
 261      323C
ARM GAS  /tmp/cc8XlF10.s 			page 20


 262 015e 70B016B7 		.ascii	"p\260\026\2672r\350L\360\0364\375\317_#=\025\024\011"
 262      3272E84C 
 262      F01E34FD 
 262      CF5F233D 
 262      151409
 263 0171 B361233B 		.ascii	"\263a#;D\265\213Y\245\314\333\341qY\206*\025;\207\300"
 263      44B58B59 
 263      A5CCDBE1 
 263      7159862A 
 263      153B87C0 
 264 0185 073DC68D 		.ascii	"\007=\306\215\204n\324\016\027U\262\002\307\\<\222\207"
 264      846ED40E 
 264      1755B202 
 264      C75C3C92 
 264      87
 265 0196 338FE5DA 		.ascii	"3\217\345\332y\027MH\230s\000\233\320\374\221\0102\024"
 265      79174D48 
 265      9873009B 
 265      D0FC9108 
 265      3214
 266 01a8 ED814750 		.ascii	"\355\201GP\246p\347\034\335\223\327\362v\357M\307\211"
 266      A670E71C 
 266      DD93D7F2 
 266      76EF4DC7 
 266      89
 267 01b9 D90A6272 		.ascii	"\331\012br\025[\300\376>xE\011\016ku\240g\311\311\034"
 267      155BC0FE 
 267      3E784509 
 267      0E6B75A0 
 267      67C9C91C 
 268 01cd 01C92206 		.ascii	"\001\311\"\006{~k\0301WH\304\223-?\002F\336\261MNdZ"
 268      7B7E6B18 
 268      315748C4 
 268      932D3F02 
 268      46DEB14D 
 269 01e4 CB505C29 		.ascii	"\313P\\)\3306\203\367\322\336\033\366\206x\340S\323"
 269      D83683F7 
 269      D2DE1BF6 
 269      8678E053 
 269      D3
 270 01f5 FFBE919C 		.ascii	"\377\276\221\234\324\034\306\372^b}\216*\007Yo\015\262"
 270      D41CC6FA 
 270      5E627D8E 
 270      2A07596F 
 270      0DB2
 271 0207 3E17597F 		.ascii	">\027Y\1774\017\027C\353\255\303\255\267\006X\237\206"
 271      340F1743 
 271      EBADC3AD 
 271      B706589F 
 271      86
 272 0218 37197A33 		.ascii	"7\031z3\236\370\357\225\037\263\243\\\027\217\307\331"
 272      9EF8EF95 
 272      1FB3A35C 
 272      178FC7D9 
 273 0228 427D50EF 		.ascii	"B}P\357\351\237d\237b\212\334n[\352x\247\212\305\322"
 273      E99F649F 
 273      628ADC6E 
ARM GAS  /tmp/cc8XlF10.s 			page 21


 273      5BEA78A7 
 273      8AC5D2
 274 023b 856BEE15 		.ascii	"\205k\356\025\367\322d\251\356\324\352\245\205z\251"
 274      F7D264A9 
 274      EED4EAA5 
 274      857AA9
 275 024a 36BFB860 		.ascii	"6\277\270`;a\250\272\231\232ss\321\231\263\235\231\361"
 275      3B61A8BA 
 275      999A7373 
 275      D199B39D 
 275      99F1
 276 025c F1B3451B 		.ascii	"\361\263E\033\3205\256\273\265z\301\251\336\250\337"
 276      D035AEBB 
 276      B57AC1A9 
 276      DEA8DF
 277 026b 023398CF 		.ascii	"\0023\230\317\315\307\361\037Bk\005\366"
 277      CDC7F11F 
 277      426B05F6 
 278              		.text
 279              		.section	.gnu.lto_.symbol_nodes.9bf49337384b03fb,"",%progbits
 280 0000 789C4D8E 		.ascii	"x\234M\216IN\303@\020E\253\177\273mc\233\301f\012\013"
 280      494EC340 
 280      1045AB7F 
 280      BB6D639B 
 280      C1660A0B 
 281 0014 CEC099D8 		.ascii	"\316\300\231\330s\207\212d\211i\021\302<%\020b\206\203"
 281      73878A64 
 281      896911C2 
 281      3C251062 
 281      8683
 282 0026 44020904 		.ascii	"D\002\011\004\\\001\311\013N\000K\240\007\213\2667O"
 282      5C01C90B 
 282      4E004BA0 
 282      078BB637 
 282      4F
 283 0037 AF54D5CF 		.ascii	"\257T\325\317 \320\032\310}\330\007\023\365\337\210"
 283      20D01AC8 
 283      7DD80713 
 283      F5DF88
 284 0046 98073BEB 		.ascii	"\230\007;\3538\007\013\257j\000IL\252\017\012X\342\014"
 284      38070BAF 
 284      6A00494C 
 284      AA0F0A58 
 284      E20C
 285 0058 8CD6EE31 		.ascii	"\214\326\3561X\266\364\000\034\264N\367 \314\315=X5"
 285      58B6F400 
 285      1CB44EF7 
 285      20CCCD3D 
 285      5835
 286 006a D3E1B650 		.ascii	"\323\341\266P=\300LO\300a\353\364\001\034\371%\034\202"
 286      3DC04C4F 
 286      C061EBF4 
 286      011CF925 
 286      1C82
 287 007c E3D64B97 		.ascii	"\343\326K\227\010\224\376\211#(}\252N\021\032\\ \322"
 287      0894FE89 
 287      23287DAA 
ARM GAS  /tmp/cc8XlF10.s 			page 22


 287      4E111A5C 
 287      20D2
 288 008e 1057E029 		.ascii	"\020W\340)\267\332\355\0121\004'\336\256\301\251\267"
 288      B7DAED0A 
 288      310427DE 
 288      AEC1A9B7 
 289 009e 3B70E6ED 		.ascii	";p\346\355\006<\355m\004\236\361v\013\236\365V\201\347"
 289      063CED6D 
 289      049EF176 
 289      0B9EF556 
 289      81E7
 290 00b0 BC8DC1F9 		.ascii	"\274\215\301\371\277IQP\365\361\243\231Sm\030\314Si"
 290      BF495150 
 290      F5F1A399 
 290      536D18CC 
 290      5369
 291 00c2 A81A860B 		.ascii	"\250\032\206\013\216qN\325\313\373\252\214\013\252\237"
 291      8E714ED5 
 291      CBFBAA8C 
 291      0BAA9F
 292 00d1 0D732AB7 		.ascii	"\015s*\267~7\214O6\015\027\251\036}G2Yr\357%\005\225"
 292      7E378C4F 
 292      360D17A9 
 292      1E7D4732 
 292      5972EF25 
 293 00e7 5F9FA14C 		.ascii	"_\237\241Lr\232X\352\316\223\276\323^[\3064\336}\354"
 293      729A58EA 
 293      CE93BED3 
 293      5E5BC634 
 293      DE7DEC
 294 00fa C8547BEF 		.ascii	"\310T{\357U\311\264C\225\245\356Y6==\267\275\264\351"
 294      55C9B443 
 294      95A5EE59 
 294      363D3DB7 
 294      BDB4E9
 295 010d 69B7BD74 		.ascii	"i\267\275t\331\365\262\025\327\313:\256\2275=\355\266"
 295      D9F5B215 
 295      D7CB3AAE 
 295      97353DED 
 295      B6
 296 011e 9735BD2C 		.ascii	"\2275\275,\265=\372\003l\274\246\236"
 296      B53DFA03 
 296      6CBCA69E 
 297              		.text
 298              		.section	.gnu.lto_.refs.9bf49337384b03fb,"",%progbits
 299 0000 789C3D8B 		.ascii	"x\234=\213\007\016\300 \014\003\3031RF\307\177\373\371"
 299      070EC020 
 299      0C03C331 
 299      5246C77F 
 299      FBF9
 300 0012 5A209AE8 		.ascii	"Z \232\350,;\003\303^[E\010\020W\207$\262(\270\037\232"
 300      2C3B03C3 
 300      5E5B4508 
 300      10578724 
 300      B228B81F 
 301 0027 577916DE 		.ascii	"Wy\026\336\346]\335\271\367\271w\351\017\246\2771]\335"
 301      E65DDDB9 
ARM GAS  /tmp/cc8XlF10.s 			page 23


 301      F7B977E9 
 301      0FA6BF31 
 301      5DDD
 302 0039 B3787271 		.ascii	"\263xrq\363H\013C.\323\224\022\301>\246\336\002k"
 302      F3480B43 
 302      2ED39412 
 302      C13EA6DE 
 302      026B
 303              		.text
 304              		.section	.gnu.lto_.decls.9bf49337384b03fb,"",%progbits
 305 0000 789CBD5B 		.ascii	"x\234\275[kp\024\327\225\276\3353#\315 \201\000\333"
 305      6B7014D7 
 305      95BEDD33 
 305      23CD2081 
 305      00DB
 306 0012 2C54FC18 		.ascii	",T\374\030;v6k\026I<l\203S\033pH\255\275\225\365&\265"
 306      3B76366B 
 306      16493C6C 
 306      83531B70 
 306      48ADBD95 
 307 0029 BBA94A55 		.ascii	"\273\251JUjk\322\214\032i6\322\214\334\323\262`\367"
 307      6A6BD28C 
 307      1A6936D2 
 307      8CDCD3B2 
 307      60F7
 308 003b 072DF130 		.ascii	"\007-\3610`\026\204d@\306\226,\010\030\0106\"\262\001"
 308      60168464 
 308      40C6962C 
 308      08180836 
 308      22B201
 309 004e 8BE740B0 		.ascii	"\213\347@\260,\204-\011\361\262 \010\3058\305k\023C"
 309      2C842D09 
 309      F1B22008 
 309      C538C56B 
 309      1343
 310 0060 3004B041 		.ascii	"0\004\260A{\356\243{\272{\272{z\304:]u[\375\270\347"
 310      7BEEA37B 
 310      BA7BBA7B 
 310      7AC43A5D 
 310      755BFDB8 
 311 0075 BBE77EE7 		.ascii	"\273\347~\347\334s\357==\342\021\217\212\274\010\015"
 311      DC73EF3D 
 311      3DE2118F 
 311      8ABC080D 
 312 0085 C031762A 		.ascii	"\3001v*B3\375\010\015A\010}\037\3120(k\240\254\205\262"
 312      4233FD08 
 312      0D41087D 
 312      1FCA3028 
 312      6BA0AC85 
 313 009a 014A3614 		.ascii	"\001J6\024\037\224j\016\241\331P\346B\231\007e\001\024"
 313      1F946A0E 
 313      A1D950E6 
 313      42990765 
 313      0114
 314 00ac 19CA1C28 		.ascii	"\031\312\034(\213\240,\206\202\217\221P\226\300u\035"
 314      8BA02C86 
 314      828F9150 
ARM GAS  /tmp/cc8XlF10.s 			page 24


 314      96C0751D 
 315 00bc 94555056 		.ascii	"\224UPVCi\200\322\004e\035\224\015P6C\331\002e;\224"
 315      436980D2 
 315      04651D94 
 315      0D503643 
 315      D902653B 
 316 00d1 BD507E0B 		.ascii	"\275P~\013\345\020\224N(\307\240\364B9\003\005\324B"
 316      E510944E 
 316      28C7A0F4 
 316      42390305 
 316      D442
 317 00e3 E7E0EF15 		.ascii	"\347\340\357\025(\327\240\\\207\362\027(\303x\204\306"
 317      28D7A05C 
 317      87F21728 
 317      C37884C6 
 318 00f3 40799C47 		.ascii	"@y\234G\206\003\267\213\325\230\312\3569\366\314|`\335"
 318      8603B78B 
 318      D598CAEE 
 318      39F6CC7C 
 318      60DD
 319 0105 7259BDAD 		.ascii	"rY\275\255\034\355_>`\025\360\311>\357\200\347\205|"
 319      1CED5F3E 
 319      6015F0C9 
 319      3EEF80E7 
 319      857C
 320 0117 928B6686 		.ascii	"\222\213f\206\343a\362\333Y\037\260\012X\257s\246vp"
 320      E361F2DB 
 320      591FB00A 
 320      58AF73A6 
 320      7670
 321 0129 DF816234 		.ascii	"\337\201b4\236a\3426\366\261:<{\277\227\351k\226]\235"
 321      9E61E236 
 321      F6B13A3C 
 321      7BBF97E9 
 321      6B965D9D 
 322 013d 4676B583 		.ascii	"Fv\265\203l\003\353\317\004\236\332\014_c\273\035\324"
 322      6C03EBCF 
 322      049EDA0C 
 322      5F63BB1D 
 322      D4
 323 014e C93730CE 		.ascii	"\31170\316\361\243+&yl\247\373Y\233\330\0270O\023\371"
 323      F1A32B26 
 323      796CA7FB 
 323      599BD817 
 323      304F13F9 
 324 0162 245798A7 		.ascii	"$W\230\247\016\270\236\304t\353\340(oz\316T\037\301"
 324      0EB89EC4 
 324      74EBE028 
 324      6F7ACE54 
 324      1FC1
 325 0174 9CA9FCE1 		.ascii	"\234\251\374\341\303\313\360\017\351\370\3630\376\256"
 325      C3CBF00F 
 325      E9F8F330 
 325      FEAE
 326 0182 597088FD 		.ascii	"Yp\210\375e\224I\027\275\036O1\035T_\354r\251\313\323"
 326      65944917 
 326      BD1E4F31 
ARM GAS  /tmp/cc8XlF10.s 			page 25


 326      1D545FEC 
 326      72A9CBD3 
 327 0196 D8AEAC2D 		.ascii	"\330\256\254-\037k\247S\247S\223N\257sL7\375\201}x\264"
 327      1F6BA753 
 327      A753934E 
 327      AF734C37 
 327      FD817D78 
 328 01ab 0B8E9E61 		.ascii	"\013\216\236a68\016e2\\\237r\320\011\333k\016\263\223"
 328      36380E65 
 328      325C9F72 
 328      D009DB6B 
 328      0EB393
 329 01be 7E3C65B1 		.ascii	"~<e\261\366\324q\261\205\331n\211\211;\263\035\361\030"
 329      F6D471B1 
 329      85D96E89 
 329      893BB31D 
 329      F118
 330 01d0 7BC081BB 		.ascii	"{\300\201\273)L7\225\273>\027:>\013\3177\352x\333\314"
 330      294C3795 
 330      BB3E173A 
 330      3E0BCF37 
 330      EA78DBCC 
 331 01e4 C6A9AAD7 		.ascii	"\306\251\252\327\006\235N\352\230\325\0379h\261\242"
 331      069D4EEA 
 331      98D51F39 
 331      68B1A2
 332 01f3 542B4D0B 		.ascii	"T+M\013\224\027\332\207\215@5\012\034\301\372a\001\264"
 332      9417DA87 
 332      8D40350A 
 332      1CC1FA61 
 332      01B4
 333 0205 103FEE5F 		.ascii	"\020?\356_\257\214\006V\177\306\011\034<\362\223\213"
 333      AF8C0656 
 333      7FC6091C 
 333      3CF2938B 
 334 0215 DC0071D2 		.ascii	"\334\000q\322'\320:\250\012\365y\201\373\025\027\000"
 334      27D03AA8 
 334      0AF57981 
 334      FB151700 
 335 0225 27E62D86 		.ascii	"'\346-\2065>\350{|`qz\255^\015p\032\372,\025=\217I\255"
 335      353EE87B 
 335      7C60717A 
 335      AD5E0D70 
 335      1AFA2C15 
 336 023d E546902B 		.ascii	"\345F\220+\242\213\302T$5\230DP\225\3602\211\267u\355"
 336      A28BC254 
 336      24359844 
 336      5095F032 
 336      89B775ED 
 337 0251 E4069217 		.ascii	"\344\006\222\027\303\230&vrk\270\034K>F\242\345\204"
 337      C3982676 
 337      726BB81C 
 337      4B3E46A2 
 337      E584
 338 0263 8FF6619A 		.ascii	"\217\366a\232l\202S\205G\253$\324\364/\2734Z\361\012"
 338      6C825385 
 338      47AB24D4 
ARM GAS  /tmp/cc8XlF10.s 			page 26


 338      F42FBB34 
 338      5AF10A
 339 0276 DC466E24 		.ascii	"\334Fn$\3200\231CO\242M\224\233\003\177k\305IZX\254"
 339      D0309943 
 339      4FA24D94 
 339      9B037F6B 
 339      C5495A58 
 340 028b D33B0026 		.ascii	"\323;\000&p\233\271'\031\323\211\326\266\\\334\010~"
 340      709BB927 
 340      19D389D6 
 340      B65CDC08 
 340      7E
 341 029c 8ED81B8B 		.ascii	"\216\330\033\213\343Q\324\204+\357j{\223S\232\016p\026"
 341      E351D484 
 341      2BEF6A7B 
 341      93539A0E 
 341      7016
 342 02ae 4DFD426D 		.ascii	"M\375Bm)7\331\201\323\013v{\024\305/p\315\244\013\225"
 342      2937D981 
 342      D30B767B 
 342      14C52F70 
 342      CDA40B95 
 343 02c2 9CA18174 		.ascii	"\234\241\201t <x&\226h1\253\334\273\206\013\322\307"
 343      203C7826 
 343      966831AB 
 343      DCBB860B 
 343      D2C7
 344 02d4 E9353EFD 		.ascii	"\3515>\375\207\200R\233k\321\3244\265)\177R\337#\213"
 344      8780529B 
 344      6BD1D434 
 344      B5297F52 
 344      DF238B
 345 02e7 8F2DE7E6 		.ascii	"\217-\347\346)\012\274\330N4\336\301Y\252\3344\315\016"
 345      290ABCD8 
 345      4E34DEC1 
 345      59AADC34 
 345      CD0E
 346 02f9 88471F11 		.ascii	"\210G\037\021\221V\223\316\375W;\273\252\271*\002\335"
 346      915693CE 
 346      FD573BBB 
 346      AAB92A02 
 346      DD
 347 030a EA42F1EA 		.ascii	"\352B\361\352\304\221\305\015c0\325\351<\247\311\253"
 347      C491C50D 
 347      6330D5E9 
 347      3CA7C9AB 
 348 031a B6FFC364 		.ascii	"\266\377\303dG\272;\246b\243\356%\235\370\312\272\023"
 348      47BA3BA6 
 348      62A3EE25 
 348      9DF8CABA 
 348      13
 349 032b F6203C9A 		.ascii	"\366 <\232\307c\221\375)\235XzF\355\304~W\354\377\245"
 349      C76391FD 
 349      299D587A 
 349      46EDC47E 
 349      57ECFFA5 
 350 033f 83FA8BCA 		.ascii	"\203\372\213\312\347R\015\327\212<m|!\244if$\345fGn"
ARM GAS  /tmp/cc8XlF10.s 			page 27


 350      E7520DD7 
 350      8A3C6D7C 
 350      21A46966 
 350      24E56647 
 351 0354 8DC08208 		.ascii	"\215\300\202\010e\304z\3641\032zk\017\036\341\346\022"
 351      65C47AF4 
 351      311A7A6B 
 351      0F1EE1E6 
 351      12
 352 0365 7D3F22B1 		.ascii	"}?\"\261\244\2137R\341\036\352\354\312\017\367s\325"
 352      A48B3752 
 352      E11EEAEC 
 352      CA0FF773 
 352      D5
 353 0376 04AA8340 		.ascii	"\004\252\203@\035\366\014\026\252\267q\367\0242*>!@"
 353      1DF60C16 
 353      AAB771F7 
 353      14322A3E 
 353      2140
 354 0388 BD5E2390 		.ascii	"\275^#\220\300ek\335\326\356\325\012\030-;\220\274\300"
 354      C0656BDD 
 354      D6EED50A 
 354      182D3B90 
 354      BCC0
 355 039a EBBA3CF4 		.ascii	"\353\272<\364\015W\347\321\347^\223\335\014\375\322"
 355      0D57E7D1 
 355      E75E93DD 
 355      0CFDD2
 356 03a9 99D0D26E 		.ascii	"\231\320\322nJ\377\225\316>\376u%1\317\243\016\240,"
 356      4AFF95CE 
 356      3EFE7525 
 356      31CFA30E 
 356      A02C
 357 03bb 3B8E7874 		.ascii	";\216xt\221\264\325c\366\2753\347\333\377\256^Q\206"
 357      91B4D563 
 357      F6BD33E7 
 357      DBFFAE5E 
 357      5186
 358 03cd D357E9C7 		.ascii	"\323W\351\307\317\266\216U\356\306\017\2576\3778i~\255"
 358      CFB68E55 
 358      EEC60FAF 
 358      36FF3869 
 358      7EAD
 359 03df 0F377FD2 		.ascii	"\0177\177\322\334\374\236\313\355?\247\315\237t\325"
 359      DCFC9ECB 
 359      ED3FA7CD 
 359      9F74D5
 360 03ee 7CEBC9D7 		.ascii	"|\353\311\327R\233\027\270\357?\340\344\031g\316_x\360"
 360      529B17B8 
 360      EF3FE0E4 
 360      1967CE5F 
 360      78F0
 361 0400 2DD2C869 		.ascii	"-\322\310i\020\344Q\237\317\354\032Ss\364m\221{]\005"
 361      10E4519F 
 361      CFEC1A53 
 361      73F46D91 
 361      7B5D05
ARM GAS  /tmp/cc8XlF10.s 			page 28


 362 0413 1E9DD7B4 		.ascii	"\036\235\327\264w0\024\2623T5t\363\302\177ljQ\224EY"
 362      773014B2 
 362      33543574 
 362      F3C27F6C 
 362      6A519445 
 363 0428 AA0E9732 		.ascii	"\252\016\2272F\014\032\210\330}\022\206\254\012\366"
 363      460C1A88 
 363      D87D1286 
 363      AC0AF6
 364 0437 473760B6 		.ascii	"G7`\266~T\235\330\253\007\273\2221\230Q\263n=\33057"
 364      7E549DD8 
 364      AB07BB92 
 364      319851B3 
 364      6E3DD835 
 365 044c 60C3ED35 		.ascii	"`\303\3555\353\321\203\335\310\030\314\250\3311=\330"
 365      EBD183DD 
 365      C818CCA8 
 365      D9313DD8 
 366 045c 2D3760A3 		.ascii	"-7`\243\3555;\241\007\273\2231\230Q\263O\365`UY.\300"
 366      ED353BA1 
 366      07BB9331 
 366      9851B34F 
 366      F5605559 
 367 0472 82169A69 		.ascii	"\202\026\232i\207\335\312\351Dr\345\004\223Q\226\032"
 367      87DDCAE9 
 367      4472E504 
 367      9351961A 
 368 0482 1032F469 		.ascii	"\0202\364i\224\304x%+\323\000f\3507L\337g\327rus\225"
 368      94C47825 
 368      2BD30066 
 368      E8374CDF 
 368      67D77275 
 369 0498 F64281DB 		.ascii	"\366B\201\333C:\377\252\033D\007\207\2519L\230\244`"
 369      433AFFAA 
 369      1B440787 
 369      A9394C98 
 369      A460
 370 04aa CB330633 		.ascii	"\3133\0063\232\245\021\203\031B\215\266\322N\214\256"
 370      9AA51183 
 370      19428DB6 
 370      D24E8CAE 
 371 04ba 4F063BC3 		.ascii	"O\006;\303R[\340\326qO\270]F\247\230\350\206\336D\253"
 371      525BE0D6 
 371      714FB85D 
 371      46A798E8 
 371      86DE44AB 
 372 04ce DCE8EFE0 		.ascii	"\334\350\357\340\243\335v\372'\026(\013\271\252\337"
 372      A3DD76FA 
 372      2716280B 
 372      B9AADF
 373 04dd 3CE8B86C 		.ascii	"<\350\270l\203\260\371\320\257I\330\374\212\314\250"
 373      83B0F9D0 
 373      AF49D8FC 
 373      8ACCA8
 374 04ec 6F66594E 		.ascii	"ofYN\315\256\260\316\256\354R\347\371\273\004l\303\340"
 374      CDAEB0CE 
 374      AEEC52E7 
ARM GAS  /tmp/cc8XlF10.s 			page 29


 374      F9BB046C 
 374      C3E0
 375 04fe C19A7AFB 		.ascii	"\301\232z\373\036\304\313\260*\036\003m\3152\007\363"
 375      1EC4CBB0 
 375      2A1E036D 
 375      CD3207F3 
 376 050e 80699E0F 		.ascii	"\200i\236\017\030g\342@ y1\240\036\306\205\3777*cg\371"
 376      1867E240 
 376      207931A0 
 376      1EC685FF 
 376      372A6367 
 377 0523 DB7ACBEF 		.ascii	"\333z\313\357\312\330\362\306\201u\245\363\006\277J"
 377      CAD8F2C6 
 377      8175A5F3 
 377      06BF4A
 378 0532 49547974 		.ascii	"ITyt[C;\207U\327O={\377\201\254\237\026\020^\017X\033"
 378      5B433B87 
 378      55D74F3D 
 378      7BFF81AC 
 378      9F16105E 
 379 0549 C805D0D9 		.ascii	"\310\005\320\331\225\357\216%@\213\010\320\341A\003"
 379      95EF8E25 
 379      408B08D0 
 379      E14103
 380 0558 F536364E 		.ascii	"\36566N&@K\010\320\321\024Ks&KsF\013h\203\216\215\271"
 380      26404B08 
 380      D0D1144B 
 380      73264B73 
 380      460B6883 
 381 056f 6FAA2E8F 		.ascii	"o\252.\217\316\230\315e\350\216C\310\326\342\340\327"
 381      CE98CD65 
 381      E88E43C8 
 381      D6E2E0D7 
 382 057f B5DCB56A 		.ascii	"\265\334\265j\245\2760\003vj\231\275\226\023v\316\245"
 382      A5BE3003 
 382      766A99BD 
 382      961376CE 
 382      A5
 383 0590 B083E9CF 		.ascii	"\260\203\351\317\254\033\2273\356\206\337\330\215\245"
 383      AC1B9733 
 383      EE86DFD8 
 383      8DA5
 384 059e 0383E8C6 		.ascii	"\003\203\350\306>\332\215\225\244\033W\377\037\272q"
 384      3EDA8D95 
 384      A41B57FF 
 384      1FBA71
 385 05ad 2BE36E0C 		.ascii	"+\343n\014\327u\203l*_\243\263\322}\250\326y]\215\365"
 385      D775836C 
 385      2A5FA3B3 
 385      D27DA8D6 
 385      795D8DF5 
 386 05c1 7983BFCF 		.ascii	"y\203\277\317\270\221>\336\2117\322\370q\372\255\334"
 386      B8913EDE 
 386      8937D2F8 
 386      71FAADDC 
 387 05d1 B5CE37C9 		.ascii	"\265\3167\311\202\326\2206q\336\347\364h\273\257FB\331"
 387      82D69036 
ARM GAS  /tmp/cc8XlF10.s 			page 30


 387      71DEE7F4 
 387      68BBAF46 
 387      42D9
 388 05e3 5DAB01E6 		.ascii	"]\253\001\346\006\252\351\354\211\007p ]C`\346e\017"
 388      06AAE9EC 
 388      89077020 
 388      5D4360E6 
 388      650F
 389 05f5 12A6BFB7 		.ascii	"\022\246\277\267o\007\035\247\353\010\320\222l\263\011"
 389      6F071DA7 
 389      EB08D092 
 389      6CB309
 390 0604 B34C16CC 		.ascii	"\263L\026\3142Z\020nqK7I\200\234\303\236\340\233l\364"
 390      325A106E 
 390      714B3749 
 390      809CC39E 
 390      E09B6CF4 
 391 0618 5797E3D1 		.ascii	"W\227\343\321J\242>\266\336`\326\372x7\377y\235\272"
 391      4AA23EB6 
 391      DE60D6FA 
 391      7837FF79 
 391      9DBA
 392 062a A6A1066A 		.ascii	"\246\241\006j\270'\304\352\304[\313h\316\202\354Kx\364"
 392      B827C4EA 
 392      C45BCB68 
 392      CE82EC4B 
 392      78F4
 393 063c F63DC2ED 		.ascii	"\366=\302\355\3562\257\012L\273\251\2756\323\216\226"
 393      EE32AF0A 
 393      4CBBA9BD 
 393      36D38E96 
 394 064c CE6953E7 		.ascii	"\316iS\347\362-<V\350\335\024\203\357\341L\033*\374"
 394      F22D3C56 
 394      E8DD1483 
 394      EFE14C1B 
 394      2AFC
 395 065e 4057C56E 		.ascii	"@W\305n(\275\313\353\346\300\304\275\032\242\363\272"
 395      28BDCBEB 
 395      E6C0C4BD 
 395      1AA2F3BA 
 396 066e C9106DF7 		.ascii	"\311\020m\367\310\334\255e\026\311#\2322\263\353\321"
 396      C8DCAD65 
 396      16C9239A 
 396      32B3EBD1 
 397 067e 367D8F3A 		.ascii	"6}\217:\357\261\375\325=f\313Y\354\274\025-99\2344z"
 397      EFB1FDD5 
 397      3D66CB59 
 397      ECBC152D 
 397      39399C34 
 398 0693 9C34DACA 		.ascii	"\2344\332\312\233v\336w\356\266\277\242f\316x7I\247"
 398      9B76DE77 
 398      EEB6BFA2 
 398      66CE7837 
 398      49A7
 399 06a5 EB24E547 		.ascii	"\353$\345GSN\002\367!\3073T\253\205\232\013*/\036\342"
 399      534E02F7 
 399      21C73354 
ARM GAS  /tmp/cc8XlF10.s 			page 31


 399      AB859A0B 
 399      2A2F1EE2 
 400 06b9 081C5DA9 		.ascii	"\010\034]\251+~\316\010\227\341\016\366k\261\27503b"
 400      2B7ECE08 
 400      97E10EF6 
 400      6BB1BD30 
 400      3362
 401 06cb A833277A 		.ascii	"\2503'z\377\200c\365~\036\247\321\026\370\315~L\231"
 401      FF8063F5 
 401      7E1EA7D1 
 401      16F8CD7E 
 401      4C99
 402 06dd D1F97192 		.ascii	"\321\371q\222F\201\333\305\343e\376n\376Q\354\337\344"
 402      4681DBC5 
 402      E365FE6E 
 402      FE51ECDF 
 402      E4
 403 06ee BC0FCEDA 		.ascii	"\274\017\316\332a\347\021\011\275G,\315\270\337A\223"
 403      61E71109 
 403      BD472CCD 
 403      B8DF4193 
 404 06fe 75EC9AF9 		.ascii	"u\354\232\371@\337L\235\377\236\034\017\226\223\235"
 404      40DF4C9D 
 404      FF9E1C0F 
 404      96939D
 405 070d 5E9268CA 		.ascii	"^\222h\312 \035\327\363\241\226$$\203ou\012\273\035"
 405      201DD7F3 
 405      A1962424 
 405      836F750A 
 405      BB1D
 406 071f E6F59B9B 		.ascii	"\346\365\233\233\234\331\333\203\355\212v@\300\362\273"
 406      9CD9DB83 
 406      ED8A7640 
 406      C0F2BB
 407 072e 585D072D 		.ascii	"X]\007-X\327B\374\011\266@H\233xScf\307\307U,\005\376"
 407      58D742FC 
 407      09B64048 
 407      9B785363 
 407      66C7C755 
 408 0745 09F1B566 		.ascii	"\011\361\265f\023\033.2x{\211H\267y _]\372\261\232="
 408      131B2E32 
 408      787B8948 
 408      B779205F 
 408      5DFAB19A 
 409 075a EE763190 		.ascii	"\356v1\220\253\023\357-V\247\023\032\225\017\362<\303"
 409      AB13EF2D 
 409      56A7131A 
 409      950FF23C 
 409      C3
 410 076b 1D2CA306 		.ascii	"\035,\243\006#v\353\206H\017\031\"G\365\303\002\242"
 410      2376EB86 
 410      480F1922 
 410      47F5C302 
 410      A2
 411 077c A01BF6BF 		.ascii	"\240\033\366\277k\347\214\020\210z\214\331\357\023f"
 411      6BE78C10 
 411      887A8CD9 
ARM GAS  /tmp/cc8XlF10.s 			page 32


 411      EF1366
 412 078b 3CAB5064 		.ascii	"<\253Pd\300\323[\263:Qs\224\244\014\250\227\236u\243"
 412      C0D35BB3 
 412      3A517394 
 412      A40CA897 
 412      9E75A3
 413 079e 5CA13DD8 		.ascii	"\\\241=\330[u*\271\037\220\271\361\202\033\274\311v"
 413      5B752AB9 
 413      1F90B9F1 
 413      821BBCC9 
 413      76
 414 07af 9DAD4EEC 		.ascii	"\235\255N\3548\372&\303\243\251\366+\031\343\031\365"
 414      38FA26C3 
 414      A3A9F62B 
 414      19E319F5 
 415 07bf 3B5E6758 		.ascii	";^gXK\334r\0037\315\265\355\223\2376\004\356"
 415      4BDC7203 
 415      37CDB5ED 
 415      939F3604 
 415      EE
 416 07d0 B7240B72 		.ascii	"\267$\013r\220\303\201\261\215\234\217\220\363Ur\276"
 416      90C381B1 
 416      8D9C8F90 
 416      F35572BE 
 417 07e0 46CED7C9 		.ascii	"F\316\327\311\371\0269\317'!\264\206\234W\220\363jr"
 417      F91639CF 
 417      2721B486 
 417      9C5790F3 
 417      6A72
 418 07f2 FE989C8F 		.ascii	"\376\230\234\217\223\363Ir\356%\347\323\344|\306M\310"
 418      93F34972 
 418      EE25E7D3 
 418      E47CC64D 
 418      C8
 419 0803 35AD3E54 		.ascii	"5\255>T\227o\035l>7\321\323\241\3132\015\370\271\014"
 419      976F1D6C 
 419      3E37D1D3 
 419      A1CB320D 
 419      F8B90C
 420 0816 C1824E1C 		.ascii	"\301\202N\034\266\3528\334E8\334M\3709\253\357\251:"
 420      B6EA38DC 
 420      4538DC4D 
 420      F839ABEF 
 420      A93A
 421 0828 01B7387B 		.ascii	"\001\2678{\275m\027\224\376\323m;\246$C\272\313\235"
 421      BD6D1794 
 421      FED36D3B 
 421      A62443BA 
 421      CB9D
 422 083a 479B1AD2 		.ascii	"G\233\032\322?\243[\206\2009\244\2571o\3262Zz/\016p"
 422      3FA35B86 
 422      8039A4AF 
 422      316FD632 
 422      5A7A2F0E 
 423 084f C87E39E5 		.ascii	"\310~9\345\260\012\260f\262E\307\344\373\204\311m\204"
 423      B00AB066 
 423      B245C7E4 
ARM GAS  /tmp/cc8XlF10.s 			page 33


 423      FB84C96D 
 423      84
 424 0860 C9DF1BE3 		.ascii	"\311\337\033\343\321R\322\352;\311V\177\2416\225\353"
 424      D152D2EA 
 424      3BC9567F 
 424      A13695EB 
 425 0870 8AC92FCE 		.ascii	"\212\311/\316\267{\252t_a\322|\276M4\264\341%\307\005"
 425      B77BAA74 
 425      5F61D27C 
 425      BE4D34B4 
 425      E125C705 
 426 0884 320DD406 		.ascii	"2\015\324\006,\247\001[\010\334\255\313\246\031 \261"
 426      2CA7015B 
 426      08DCADCB 
 426      A61920B1 
 427 0894 9C7E6BBE 		.ascii	"\234~k\276\354*\372\327-\260\377\000\3524\3734\021M"
 427      EC2AFAD7 
 427      2DB0FF00 
 427      EA34FB34 
 427      114D
 428 08a6 BF30B77D 		.ascii	"\2770\267}U\010\322\247\351[\276\246.\371\376\304'\247"
 428      5508D2A7 
 428      E95BBEA6 
 428      2EF9FEC4 
 428      27A7
 429 08b8 9D2FEE61 		.ascii	"\235/\356a\332\261\033\356\177J.}\324f.g\336\014\323"
 429      DAB11BEE 
 429      7F4A2E7D 
 429      D4662E67 
 429      DE0CD3
 430 08cb 7A459B6E 		.ascii	"zE\233n\203\356j\345\323\272\371\367\3176\223\274\351"
 430      83EE6AE5 
 430      D3BAF9F7 
 430      CF3693BC 
 430      E9
 431 08dc 97649434 		.ascii	"\227d\2244\0171\217\022\237i\220\370\214\203\304\027"
 431      0F318F12 
 431      9F6990F8 
 431      8C83C417 
 432 08ec 485E68EB 		.ascii	"H^h\353\236\355\004%\223~\004\365\375\350_v\256\335"
 432      9EED0425 
 432      937E04F5 
 432      FDE85F76 
 432      AEDD
 433 08fe 43C6BBC1 		.ascii	"C\306\273\301\360\243\320\0126\370\025N&s\202\035\251"
 433      F0A3D00A 
 433      36F8154E 
 433      2673821D 
 433      A9
 434 090f B7F951E4 		.ascii	"\267\371Q\344\312C~\000\205h\347\264\033\332#\201\373"
 434      CA437E00 
 434      8568E7B4 
 434      1BDA2381 
 434      FB
 435 0920 A9C7D13A 		.ascii	"\251\307\321:\214\241\025\333o\215\336D\030\272E&\311"
 435      8CA115DB 
 435      6F8DDE44 
ARM GAS  /tmp/cc8XlF10.s 			page 34


 435      18BA4526 
 435      C9
 436 0931 3F9B1832 		.ascii	"?\233\0302\355\257p\323vj\015\36096\216\227\362\016"
 436      EDAF70D3 
 436      766A0DF0 
 436      39368E97 
 436      F20E
 437 0943 22B51B0E 		.ascii	"\"\265\033\016\335\307\227\313\272\225\316\377\222\225"
 437      DDC797CB 
 437      BA95CEFF 
 437      9295
 438 0951 CE1FC99C 		.ascii	"\316\037\311\234t\215\234o\032\243\314\302\034\027Q"
 438      748D9C6F 
 438      1AA3CCC2 
 438      1C1751
 439 0960 C671A56F 		.ascii	"\306q\245oh\373\035]l{\227\304\266-$\266\235w3\037n"
 439      68FB1D5D 
 439      6C7B97C4 
 439      B62D24B6 
 439      9D77331F 
 440 0975 B0F9050D 		.ascii	"\260\371\005\015\215JvR\325\036k\251\344\357\220\350"
 440      8D4A7652 
 440      D51E6BA9 
 440      E4EF90E8 
 441 0985 E70D26FF 		.ascii	"\347\015&\3773U>\207\311\317\363d\372\013\241\371\036"
 441      33553E87 
 441      C9CFF364 
 441      FA0BA1F9 
 441      1E
 442 0996 EB5F080D 		.ascii	"\353_\010\015I\323\277\271i4\305\315v$55n\0141\300+"
 442      49D3BFB9 
 442      6934C5CD 
 442      76243535 
 442      6E0C31C0 
 443 09ab 19ABBAD0 		.ascii	"\031\253\272\320FUO\032U\027dFj\273\246\352\030\006"
 443      46554F1A 
 443      55176446 
 443      6ABBA6EA 
 443      1806
 444 09bd B0386355 		.ascii	"\2608cU_\265Qut\032U\027%U}\0045*\335W\372w\355\274"
 444      5FB55175 
 444      741A5517 
 444      25557D04 
 444      352ADD57 
 445 09d5 789E5B0E 		.ascii	"x\236[\016\373 \345\012\216Rt\244\362h\177\216q8?\216"
 445      FB20E50A 
 445      8E5274A4 
 445      F2687F8E 
 445      71383F8E 
 446 09e9 7EA528B5 		.ascii	"~\245(\265\312*\361\0055$v\221\032K<\217X6Fk\251b\307"
 446      CA2AF105 
 446      35247691 
 446      1A4B3C8F 
 446      5836466B 
 447 0a00 B1980F4B 		.ascii	"\261\230\017K\035K#E\203\320w\320zL\343\236\317\177"
 447      1D4B2345 
 447      83D077D0 
ARM GAS  /tmp/cc8XlF10.s 			page 35


 447      7A4CE39E 
 447      CF7F
 448 0a12 F202FBB0 		.ascii	"\362\002\373\260o/\303z\366?\036\303\357`q\357\022W"
 448      6F2FC37A 
 448      F63F1EC3 
 448      EF6071EF 
 448      1257
 449 0a24 12AFF72C 		.ascii	"\022\257\367,\205\310_\235\030\030\230\212Lq\322\346"
 449      85C85F9D 
 449      1818988A 
 449      4C71D2E6 
 450 0a34 F70618EB 		.ascii	"\367\006\030\3535\317(v\245\306B\036\2352\021\302\224"
 450      35CF2876 
 450      A5C6421E 
 450      9D3211C2 
 450      94
 451 0a45 8463A3E2 		.ascii	"\204c\243\342!h\270~\035(\251;`\025l\251VMOnMU\377\300"
 451      2168B87E 
 451      1D28A93B 
 451      60156CA9 
 451      564D4F6E 
 452 0a5d C023B42D 		.ascii	"\300#\264-\036}\341\012}\225\031\275\336\022\375\304"
 452      1E7DE10A 
 452      7D9519BD 
 452      DE12FDC4 
 453 0a6d 61137A75 		.ascii	"a\023zu\256\033\364\325f\3647,\321o\266\231\320W\270"
 453      AE1BF4D5 
 453      66F4372C 
 453      D16FB699 
 453      D057B8
 454 0a80 426F30A3 		.ascii	"Bo0\2437Z\242\367\035^\342\247\360\356\315\265\306\302"
 454      375AA2F7 
 454      1D5EE2A7 
 454      F0EECDB5 
 454      C6C2
 455 0a92 5C1BAD95 		.ascii	"\\\033\255\225\2521*\325dVj\255\225RJ\213\242\004\024"
 455      AA312AD5 
 455      64566AAD 
 455      95524A8B 
 455      A20414
 456 0aa5 98C4F12F 		.ascii	"\230\304\361//i\237\017\272\352\363:3\374zko\370(\363"
 456      2F699F0F 
 456      BAEAF33A 
 456      33FC7A6B 
 456      6FF828F3 
 457 0ab9 3E6FB4E8 		.ascii	">o\264\350s\257\253>o0+\265\311e\237\257\273\352\363"
 457      73AFAB3E 
 457      6F302BB5 
 457      C9659FAF 
 457      BBEAF3
 458 0acc 6633FC3B 		.ascii	"f3\374;\251\360\3755\375\333.]\375\373\372\026e\336"
 458      A9F0FD35 
 458      FDDB2E5D 
 458      FDFBFA16 
 458      65DE
 459 0ade 22E5EEC0 		.ascii	"\"\345\356\300\034\316\320o?z\205|w\232\257Tq/i\241"
 459      1CCED06F 
ARM GAS  /tmp/cc8XlF10.s 			page 36


 459      3F7A857C 
 459      779AAF54 
 459      712F69A1 
 460 0af2 CCF6A7B0 		.ascii	"\314\366\247\260[=~Pn\323P\343\007?\235\002\270\002"
 460      5B3D7E50 
 460      6ED350E3 
 460      073F9D02 
 460      B802
 461 0b04 3EB03CBD 		.ascii	">\260<\275V\257\034\276\3446{LK%\\_\273a_\370\015k%"
 461      56AF1CBE 
 461      E4367B4C 
 461      4B255C5F 
 461      BB615FF8 
 462 0b1b 58240E35 		.ascii	"X$\0165\023D+m\263d`Y\363!\356u\345\300< y\216969\254"
 462      13442B6D 
 462      B3646059 
 462      F321EE75 
 462      E5C03C20 
 463 0b35 E1769815 		.ascii	"\341v\230\025\303\013\001v\343~}{\244c\333\223\344s"
 463      C30B0176 
 463      E37E7D7B 
 463      A463DB93 
 463      E473
 464 0b47 CF4E0F8E 		.ascii	"\317N\017\216\312\273\207\232\227\267\203\310\353\245"
 464      CABB879A 
 464      97B783C8 
 464      EBA5
 465 0b55 12D26643 		.ascii	"\022\322fC\310\036kB\266\354\267%\304a$\354s \204\315"
 465      C81E6B42 
 465      B6ECB725 
 465      C46124EC 
 465      732084CD 
 466 0b69 42298AF5 		.ascii	"B)\212\365\333(v\300J\261DO\307\022\205\313t\200\036"
 466      DB2876C0 
 466      4AB1444F 
 466      C71285CB 
 466      74801E
 467 0b7c 34AB8597 		.ascii	"4\253\205\227^f\265\264\373[\274\225C\335\264Q\263\335"
 467      5E66B5B4 
 467      FB5BBC95 
 467      43DDB451 
 467      B3DD
 468 0b8e 52CDBB83 		.ascii	"R\315\273\203Q\263\303\221\275\251VZ-\032f\255\325'"
 468      51B3C391 
 468      BDA9565A 
 468      2D1A66AD 
 468      D527
 469 0ba0 965AFD79 		.ascii	"\226Z\375y0Zu\271\320*\215\211\337\260\321\362\250\245"
 469      305A75B9 
 469      D02A8D89 
 469      DFB0D1F2 
 469      A8A5
 470 0bb2 96BF1B8C 		.ascii	"\226\277\033\214\226\307\035Ml\311]\213\215V\237Zj\325"
 470      96C71D4D 
 470      6CC95D8B 
 470      8D569F5A 
 470      6AD5
ARM GAS  /tmp/cc8XlF10.s 			page 37


 471 0bc4 DBB1648C 		.ascii	"\333\261d\214\262\306r\365\342\020!NY\251e\322c\217"
 471      B2C672F5 
 471      E210214E 
 471      59A965D2 
 471      638F
 472 0bd6 8D1EBFB3 		.ascii	"\215\036\277\263\324\343\370b[=\034\350\351sAO\032#"
 472      D4E3F862 
 472      5B3D1CE8 
 472      E973414F 
 472      1A23
 473 0be8 1EB251F3 		.ascii	"\036\262Q\3633\243\232\217\2415J\242\273\177\347\316"
 473      33A39A8F 
 473      A1354AA2 
 473      BB7FE7CE 
 474 0bf8 23D93889 		.ascii	"#\3318\211\243(_\017\014p\234\372\357\001\275\032\010"
 474      A3285F0F 
 474      0C709CFA 
 474      EF01BD1A 
 474      08
 475 0c09 D334F5A7 		.ascii	"\3234\365\247\377\2373\274I\350=ea\"H%\351vL{\324L\036"
 475      FF9F33BC 
 475      49E83D65 
 475      61224825 
 475      E9764C7B 
 476 0c20 6DD33FA2 		.ascii	"m\323?\242\237\321pj\357\277\321m\305o\332\207mw\370"
 476      9FD1706A 
 476      EFBFD16D 
 476      C56FDA87 
 476      6D77F8
 477 0c33 A47831B9 		.ascii	"\244x1\271\016\037\213\236\244u\311\005m\345\234\347"
 477      0E1F8B9E 
 477      A475C905 
 477      6DE59CE7 
 478 0c43 31D63CAB 		.ascii	"1\326<\253\277\215Kn\011i\032\221\264H\2012F@4\177\306"
 478      BF8D4B6E 
 478      09691A91 
 478      B4488132 
 478      4640347F 
 479 0c58 5277E41E 		.ascii	"Rw\344\036\3579i\277\012\351\016\222n\204q\025\232\212"
 479      EF3969BF 
 479      0AE90E92 
 479      6E847115 
 479      9A8A
 480 0c6a A15B6296 		.ascii	"\241[b\226\321\360\"\2727\306\267\003j\246\206Z!\321"
 480      D1F022BA 
 480      37C6B703 
 480      6AA6865A 
 480      21D1
 481 0c7c E76B5714 		.ascii	"\347kW\024\354*j~\254\317\314\177J6\354\252\201\376"
 481      EC2A6A7E 
 481      ACCFCC7F 
 481      4A36ECAA 
 481      81FE
 482 0c8e C12AC0DA 		.ascii	"\301*\300\332?\263>\000;\016\262\233\241\233@\036}f"
 482      3FB33E00 
 482      3B0EB29B 
 482      A19B401E 
ARM GAS  /tmp/cc8XlF10.s 			page 38


 482      7D66
 483 0ca0 D62075B7 		.ascii	"\326 u\267\370e\322\2430NSm\377\373\227\256\216%\323"
 483      F865D2A3 
 483      304E536D 
 483      FFFB97AE 
 483      8E25D3
 484 0cb3 91EA4D64 		.ascii	"\221\352Md\377r\311\014\225b\332\033F\244\255\011\274"
 484      FF72C90C 
 484      9562DA1B 
 484      46A4AD09 
 484      BC
 485 0cc4 C5FAD1CE 		.ascii	"\305\372\321\316jEY\204\223\246\334\200'\271\205\325"
 485      6A455984 
 485      93A6DC80 
 485      27B985D5 
 486 0cd4 3C26A14B 		.ascii	"<&\241K\340\301\300J\363\305\023VOGF\343$n\332/\244"
 486      E0C1C04A 
 486      F3C51356 
 486      4F4746E3 
 486      246EDA2F 
 487 0ce9 02F795E7 		.ascii	"\002\367\225\347\011\253\214d*\003w<\246\264\340Wb\220"
 487      09AB8C64 
 487      2A03773C 
 487      A6B4E057 
 487      6290
 488 0cfb 3E4D9F16 		.ascii	">M\237\026\274s\247\235\246\005o\220,\375M\222\327\306"
 488      BC73A79D 
 488      A6056F90 
 488      2CFD4D92 
 488      D7C6
 489 0d0d A283CBD7 		.ascii	"\242\203\313\327\015\\$p\246\361\204W\241v\244WyMi\242"
 489      0D5C2470 
 489      A6F18457 
 489      A176A457 
 489      794D69A2 
 490 0d21 2F899D32 		.ascii	"/\211\2352Q!hP\241\246\215|\035\300\270<\272\355\006"
 490      51216850 
 490      A1A68D7C 
 490      1DC0B83C 
 490      BAED06
 491 0d34 CCE1CB76 		.ascii	"\314\341\313v\255\036ln^\246`A\023\351j\316\350\256"
 491      AD1E6C6E 
 491      5EA66041 
 491      13E96ACE 
 491      E8AE
 492 0d46 07E78C06 		.ascii	"\007\347\214\006<8g\244x\361y.9\317\367\032\262V\257"
 492      3C3867A4 
 492      78F1792E 
 492      39CFF71A 
 492      B256AF
 493 0d59 E6991777 		.ascii	"\346\231\027w\324\250:\274\244\355QzDk\033\230\363}"
 493      D4A83ABC 
 493      A4ED517A 
 493      446B1B98 
 493      F37D
 494 0d6b 36FD2379 		.ascii	"6\375#y\026\257\341\227%\310\326)\365\271\036,d\353"
 494      16AFE197 
ARM GAS  /tmp/cc8XlF10.s 			page 39


 494      25C8D629 
 494      F5B91E2C 
 494      64EB
 495 0d7d BB8BBC23 		.ascii	"\273\213\274#Tl\217n\335\252\273\345\321\312\274\264"
 495      546C8F6E 
 495      DDAABBE5 
 495      D1CABCB4 
 496 0d8d 4160B197 		.ascii	"A`\261\227G\017\243\215y\015\012\345\237\306\243i\340"
 496      470FA38D 
 496      790D0AE5 
 496      9FC6A369 
 496      E0
 497 0d9e D0306635 		.ascii	"\3200f5\313\342\310[\257\300\250\276\372#\017\325\013"
 497      CBE2C85B 
 497      AFC0A8BE 
 497      FA230FD5 
 497      0B
 498 0daf 8FF3EEEE 		.ascii	"\217\363\356\356\304I\362/=0\320\357B\300\240\024\360"
 498      C449F22F 
 498      3D30D0EF 
 498      42C0A014 
 498      F0
 499 0dc0 E840FA66 		.ascii	"\350@\372f\227yycs\267\2119\260\031h[\260\020\340\334"
 499      97797963 
 499      73B78939 
 499      B019685B 
 499      B010E0DC 
 500 0dd4 6496EAB5 		.ascii	"d\226\352\265\177\330\3706\203\256\363f\232Yz\315k\235"
 500      7FD8F836 
 500      83AEF366 
 500      9A597ACD 
 500      6B9D
 501 0de6 597ACCD1 		.ascii	"Yz\314\321\372\002W\2334\352\303\250\013(\254\237\226"
 501      FA02579B 
 501      34EAC3A8 
 501      0B28AC9F 
 501      96
 502 0df7 6C9E7A13 		.ascii	"l\236z\023\356\314B%qj\210:^YN\200z\031\306\253\362"
 502      EECC4225 
 502      716A883A 
 502      5E594E80 
 502      7A19C6AB 
 503 0e0c D2483F3F 		.ascii	"\322H??Y\273O\253\255\337Y2-8\225\240\232\373\014\226"
 503      59BB4FAB 
 503      ADDF5932 
 503      2D3895A0 
 503      9AFB0C96 
 504 0e20 78A3CBC2 		.ascii	"x\243\313\302\022\327\322[buZK4t\271\262\304\247\036"
 504      12D7D25B 
 504      62755A4B 
 504      3474B9B2 
 504      C4A71E
 505 0e33 15FA7B0C 		.ascii	"\025\372{\014\2721cK\274ec\211g\323X\242Ao\011e8\265"
 505      BA31634B 
 505      BC656389 
 505      67D358A2 
 505      416F0965 
ARM GAS  /tmp/cc8XlF10.s 			page 40


 506 0e49 44A39525 		.ascii	"D\243\225%\032\363TnW\273\260D\213V{]\252%x\225\240"
 506      1AF3546E 
 506      57BBB044 
 506      8B567B5D 
 506      AA257895 
 507 0e5e 95464BEC 		.ascii	"\225FK\354\351\261\260\304\356\341i-\261>\255%\366\365"
 507      E9B1B0C4 
 507      EEE1692D 
 507      B13EAD25 
 507      F6F5
 508 0e70 B8B2C405 		.ascii	"\270\262\304\005\015\372!\006\275)cK\374\332\306\022"
 508      0DFA2106 
 508      BD29634B 
 508      FCDAC612 
 509 0e80 0FA6B1C4 		.ascii	"\017\246\261\304F\275%\0161Kl\262\262D\367H\225\333"
 509      46BD250E 
 509      314B6CB2 
 509      B244F748 
 509      95DB
 510 0e92 552E2C71 		.ascii	"U.,qL\253]\227j\011\352yj\2145\205e\237}'\267x\355>"
 510      4CAB5D97 
 510      6A09EA79 
 510      6A8C3585 
 510      659F7D27 
 511 0eaa 28EC7098 		.ascii	"(\354p\230x\233m\245\232\035\244\266\332J\355s\220\372"
 511      789B6DA5 
 511      9A1DA4B6 
 511      DA4AED73 
 511      90FA
 512 0ebc 8DADD441 		.ascii	"\215\255\324A\007\251\026[)\335\347\203\024\251\367"
 512      07A9165B 
 512      29DDE783 
 512      14A9F7
 513 0ecb ECA51CDA 		.ascii	"\354\245\034\332z\337V\252\313Aj\233\255\324\032\007"
 513      7ADF56AA 
 513      CB416A9B 
 513      ADD41A07 
 514 0edb A9EDB652 		.ascii	"\251\355\266R\307\035\244v\330J\235r\220\372\300V\252"
 514      C71DA476 
 514      D84A9D72 
 514      90FAC056 
 514      AA
 515 0eec CF41AAD5 		.ascii	"\317A\252\325Vj\243\203\324N\335\352\300\033.\021\244"
 515      566AA383 
 515      D44EDDEA 
 515      C01B2E11 
 515      A4
 516 0efd C2FCFC82 		.ascii	"\302\374\374\202\351%\221\031\221\037\377[A,^\020\216"
 516      E9259119 
 516      911FFF5B 
 516      412C5E10 
 516      8E
 517 0f0e 9595C5A2 		.ascii	"\225\225\305\242pU\032\231Q\020\211\206K+\212\304\202"
 517      70551A99 
 517      51108986 
 517      4B2B8AC4 
 517      82
ARM GAS  /tmp/cc8XlF10.s 			page 41


 518 0f1f 70499958 		.ascii	"pI\231XV\036\213\225\306\363K\320\003\305\025\202T$"
 518      561E8B95 
 518      C6F34BD0 
 518      03C51582 
 518      5424
 519 0f31 1685E059 		.ascii	"\026\205\340YL\232\035\302\317Cr\326\363\377\362\323"
 519      4C9A1DC2 
 519      CF4372D6 
 519      F3FFF2D3 
 520 0f41 E074F4A8 		.ascii	"\340t\364\250\021M\222u\030q\261\014\304s\340\217P^"
 520      114D9275 
 520      1871B10C 
 520      C473E08F 
 520      505E
 521 0f53 1293C490 		.ascii	"\022\223\304\220\234\033.\011i\267\337q\022\235\035"
 521      9C1B2E09 
 521      69B7DF71 
 521      129D1D
 522 0f62 9767978B 		.ascii	"\227g\227\213\270\371<\271D\022\205\242x\350\245\012"
 522      B8F93CB9 
 522      441285A2 
 522      78E8A50A 
 523 0f72 B1023086 		.ascii	"\261\0020\206\003\206\341\321cN8\341\222\"\300\360S"
 523      0386E1D1 
 523      634E38E1 
 523      9222C0F0 
 523      53
 524 0f83 81901CD0 		.ascii	"\201\220\034\320\204}D\366YK2\312c\222\034/x\356__\234"
 524      847D44F6 
 524      594B32CA 
 524      63921C2F 
 524      78EE5F5F 
 525 0f98 FEE22CFC 		.ascii	"\376\342,\374\254<R*"
 525      AC3C522A 
 526 0fa0 4AF182E7 		.ascii	"J\361\202\347\247O\007HU\257l\271\\\212\304BP1:\223"
 526      A74F0748 
 526      55AF6CB9 
 526      5C8AC442 
 526      50313A93 
 527 0fb4 94A70A4A 		.ascii	"\224\247\012Jbeb\201$\306EA\012\227\024\000\327E\225"
 527      62656281 
 527      24C64541 
 527      0A971400 
 527      D74595
 528 0fc7 82241608 		.ascii	"\202$\026\010R\331\204\202\342px\034\\\214\023\313f"
 528      52D98482 
 528      E270781C 
 528      5C8C13CB 
 528      66
 529 0fd8 8845C0A6 		.ascii	"\210E\300\246\366 \032\213\212\343DaFd\334\244\320\344"
 529      F6201A8B 
 529      8AE34461 
 529      4664DCA4 
 529      D0E4
 530 0fea 71130AC7 		.ascii	"q\023\012\307OziB\201\341\205\326\237\270\\\024\211"
 530      4F7A6942 
 530      81E185D6 
ARM GAS  /tmp/cc8XlF10.s 			page 42


 530      9FB85C14 
 530      89
 531 0ffb CAB83F15 		.ascii	"\312\270?\025\360"
 531      F0
 532 1000 77E28490 		.ascii	"w\342\204\220<\227\373\353\265^&\204K\"Q\261 T$\316"
 532      3C97FBEB 
 532      B55E2684 
 532      4B2251B1 
 532      205424CE 
 533 1014 142A4AE5 		.ascii	"\024*J\345\220\312\304\220PH\325\307\2139\311\305\374"
 533      90CAC490 
 533      5048D5C7 
 533      8B39C9C5 
 533      FC
 534 1025 85C2B1A8 		.ascii	"\205\302\261\250,\316\222\307\272`\270$\014\356\200"
 534      2CCE92C7 
 534      BA60B824 
 534      0CEE80
 535 1034 5D850802 		.ascii	"]\205\010\002TX\236U\340V.\364\3623\330\315\374\222"
 535      54589E55 
 535      E0562EF4 
 535      F233D8CD 
 535      FC92
 536 1046 580C7A87 		.ascii	"X\014z\207d^\232\304KO\361\322\323\274\364\014/M\346"
 536      645E9AC4 
 536      4B4FF1D2 
 536      D3BCF40C 
 536      2F4DE6
 537 1059 A5291E69 		.ascii	"\245)\036i|!\224\361|\251\304\307\313=\000\356\213\212"
 537      7C2194F1 
 537      7CA9C4C7 
 537      CB3D00EE 
 537      8B8A
 538 106b 95A2E48B 		.ascii	"\225\242\344\213\225\026\211\2227*\224\211C\342\362"
 538      95168992 
 538      372A9489 
 538      43E2F2
 539 107a 2F85D248 		.ascii	"/\205\322Hq4$\023n\237\236\024\222Y\267\360eV\2450C"
 539      71342413 
 539      6E9F9E14 
 539      9259B7F0 
 539      6556A530 
 540 108f 888B7E39 		.ascii	"\210\213~9.\0132\370`6~1\031\334\211V\201+\037y\223"
 540      2E0B32F8 
 540      60367E31 
 540      19DC8956 
 540      812B1F79 
 541 10a4 2D97C58A 		.ascii	"-\227\305\212\340\275of\251P\034\317\226%qf\034H\301"
 541      E0BD6F66 
 541      A9501CCF 
 541      96257166 
 541      1C48C1
 542 10b7 7F7C65F1 		.ascii	"\177|e\361b\020d<\201 \273\312\222\212f\303+\2778+\""
 542      6210643C 
 542      8120BBCA 
 542      928A66C3 
 542      2BBF382B 
ARM GAS  /tmp/cc8XlF10.s 			page 43


 543 10cc 874138AB 		.ascii	"\207A8\253R\216\315\370\317\362\221\314cAT\224\304h"
 543      528ECDF8 
 543      CFF291CC 
 543      63415494 
 543      C468
 544 10de 188356CA 		.ascii	"\030\203V\312\262T\236\035\027\2432\010@=\030I\345~"
 544      B2549E1D 
 544      17A33208 
 544      403D1849 
 544      E57E
 545 10f0 70E8B20A 		.ascii	"p\350\262\012 \332i \226\311\263\200!_\2542*J\331\244"
 545      20DA6920 
 545      96C9B380 
 545      215FAC32 
 545      2A4AD9A4 
 546 1104 36281505 		.ascii	"6(\025\005\343\000\010\274+\317\021_\306\240B\374\227"
 546      E30008BC 
 546      2BCF115F 
 546      C6A042FC 
 546      97
 547 1115 A08F5889 		.ascii	"\240\217X\211/\270\212a\352 +\215\304\301\326y\272a"
 547      2FB88A61 
 547      EA202B8D 
 547      C4C1D679 
 547      BA61
 548 1127 879F6457 		.ascii	"\207\237dW\012\0219\022-\366\203.d(\371\305r1\012\376"
 548      0A113912 
 548      2DF6832E 
 548      6428F9C5 
 548      72310AFE 
 549 113b 599C0D90 		.ascii	"Y\234\015\220\270\006XD(\305\376\340#\241\004\\C|\331"
 549      B8065844 
 549      28C5FEE0 
 549      23A1045C 
 549      437CD9
 550 114e 178E0296 		.ascii	"\027\216\002\226\007\316\036\320~\250!\242\344\220?"
 550      07CE1ED0 
 550      7EA821A2 
 550      E4903F
 551 115d 25D08228 		.ascii	"%\320\202(U}#~\215C\034T0\371\367\244\374\311\371\223"
 551      557D237E 
 551      8D431C54 
 551      30F9F7A4 
 551      FCC9F993 
 552 1171 F4630CFC 		.ascii	"\364c\014\374\033\350\312\212G\376\013X\317\001k\210"
 552      1BE8CA8A 
 552      47FE0B58 
 552      CF016B88 
 553 1181 613984EF 		.ascii	"a9\204\357\254}\322\"t2\177\316\205\313bQ\236Y\021\015"
 553      AC7DD222 
 553      74327FCE 
 553      85CB6251 
 553      9E59110D 
 554 1195 835F954B 		.ascii	"\203_\225K\261\227#\330\341p?'\352\240d1.c\203\305c"
 554      B19723D8 
 554      E1703F27 
 554      EAA06431 
ARM GAS  /tmp/cc8XlF10.s 			page 44


 554      2E6383C5 
 555 11aa 155258A4 		.ascii	"\025RX\244\267\370\004\241\022\230\305\266/,\234\222"
 555      B7F804A1 
 555      1298C5B6 
 555      2F2C9C92 
 556 11ba 1F4643A3 		.ascii	"\037FC\243\025\245\245!\015\006k\344#N{?\251\015\225"
 556      15A5A521 
 556      0D066BE4 
 556      234E7B3F 
 556      A90D95
 557 11cd A04C0C89 		.ascii	"\240L\014\211\263\3040\330x\244\341a\\\224+\312\365"
 557      B3C430D8 
 557      78A4E161 
 557      5C942BCA 
 557      F5
 558 11de 8F26A43E 		.ascii	"\217&\244>\032O\037}\313P\213\241\345\227\013\222\234"
 558      1A4F1F7D 
 558      CB508BA1 
 558      E5970B92 
 558      9C
 559 11ef 5F78BFD5 		.ascii	"_x\277\325\273o\0310\014\002\343\357\267z\367\260\271"
 559      BB6F1930 
 559      0C02E3EF 
 559      B77AF7B0 
 559      B9
 560 1200 F39840EC 		.ascii	"\363\230@\354_p\215\0355\364\003`(\227\334\206\204x"
 560      5F708D1D 
 560      35F40360 
 560      2897DC86 
 560      8478
 561 1212 5C94E400 		.ascii	"\\\224\344\000\236\020\"e`\2171\341\222\347\351|\364"
 561      9E102265 
 561      608F31E1 
 561      92E7E97C 
 561      F4
 562 1223 13A8F45C 		.ascii	"\023\250\364\\ii,\374\357\360\"V!\377\215\341\315\217"
 562      69692CFC 
 562      EFF02256 
 562      21FF8DE1 
 562      CD8F
 563 1235 89D9FE29 		.ascii	"\211\331\376)\032\301\023\206\361\301\010C\305\177\224"
 563      1AC11386 
 563      F1C10843 
 563      C57F94
 564 1244 447194E1 		.ascii	"Dq\224\341\311?\307\204\242\347$I\230=\204J\342\032"
 564      C93FC784 
 564      A2E72449 
 564      983D844A 
 564      E21A
 565 1256 39F492B4 		.ascii	"9\364\222\264\227G\257\265j\336\342\262\362\361\036"
 565      9747AFB5 
 565      6ADEE2B2 
 565      F2F11E
 566 1265 28D9D457 		.ascii	"(\331\324W\342\001j=Y,\367\021F\3752\370n\021\014\277"
 566      E2016A3D 
 566      592CF711 
 566      46FD32F8 
ARM GAS  /tmp/cc8XlF10.s 			page 45


 566      6E110CBF 
 567 1279 6C46C010 		.ascii	"lF\300\020\\!\014\021%$\217H\261\364\230|)V$\310B~\312"
 567      5C210C11 
 567      25248F48 
 567      B1F4987C 
 567      295624C8 
 568 1290 9B5C3D99 		.ascii	"\233\\=\231\337\306\355\303p\013\012\321\242 D\002y"
 568      DFC6EDC3 
 568      700B0AD1 
 568      A2204402 
 568      79
 569 12a1 36B909D2 		.ascii	"6\271\011\3221\025\304N\206\364\002\023\276g#\300\246"
 569      3115C44E 
 569      86F40213 
 569      BE6723C0 
 569      A6
 570 12b2 77BD60B0 		.ascii	"w\275`\2602\"\227\000\245A6\310\015@\023\037b\\\005"
 570      32229700 
 570      A54136C8 
 570      0D40131F 
 570      625C05
 571 12c5 5FA41298 		.ascii	"_\244\022\230\214xP\246V@\377\007D{\027\242"
 571      8C7850A6 
 571      5640FF07 
 571      447B17A2 
 572              		.text
 573              		.section	.gnu.lto_.symtab.9bf49337384b03fb,"",%progbits
 574 0000 74657374 		.ascii	"test_sequence_009\000\000\000\000\000\000\000\000\000"
 574      5F736571 
 574      75656E63 
 574      655F3030 
 574      39000000 
 575 001a 000000F7 		.ascii	"\000\000\000\367\001\000\000test_step\000\000\002\000"
 575      01000074 
 575      6573745F 
 575      73746570 
 575      00000200 
 576 002e 00000000 		.ascii	"\000\000\000\000\000\000\000\000\365\001\000\000_te"
 576      00000000 
 576      F5010000 
 576      5F7465
 577 003d 73745F61 		.ascii	"st_assert\000\000\002\000\000\000\000\000\000\000\000"
 577      73736572 
 577      74000002 
 577      00000000 
 577      00000000 
 578 0051 00AE0100 		.ascii	"\000\256\001\000\000chGuardedPoolAllocTimeout\000\000"
 578      00636847 
 578      75617264 
 578      6564506F 
 578      6F6C416C 
 579 0071 02000000 		.ascii	"\002\000\000\000\000\000\000\000\000\000\266\001\000"
 579      00000000 
 579      0000B601 
 579      00
 580 007e 00636847 		.ascii	"\000chGuardedPoolObjectInit\000\000\002\000\000\000"
 580      75617264 
ARM GAS  /tmp/cc8XlF10.s 			page 46


 580      6564506F 
 580      6F6C4F62 
 580      6A656374 
 581 009c 00000000 		.ascii	"\000\000\000\000\000\000\276\001\000\000chPoolObjec"
 581      0000BE01 
 581      00006368 
 581      506F6F6C 
 581      4F626A65 
 582 00b1 74496E69 		.ascii	"tInit\000\000\002\000\000\000\000\000\000\000\000\000"
 582      74000002 
 582      00000000 
 582      00000000 
 582      00
 583 00c2 C3010000 		.ascii	"\303\001\000\000chGuardedPoolFree\000\000\002\000\000"
 583      63684775 
 583      61726465 
 583      64506F6F 
 583      6C467265 
 584 00dc 00000000 		.ascii	"\000\000\000\000\000\000\000\311\001\000\000chGuard"
 584      000000C9 
 584      01000063 
 584      68477561 
 584      7264
 585 00ee 6564506F 		.ascii	"edPoolLoadArray\000\000\002\000\000\000\000\000\000"
 585      6F6C4C6F 
 585      61644172 
 585      72617900 
 585      00020000 
 586 0106 000000CE 		.ascii	"\000\000\000\316\001\000\000chPoolFree\000\000\002\000"
 586      01000063 
 586      68506F6F 
 586      6C467265 
 586      65000002 
 587 011b 00000000 		.ascii	"\000\000\000\000\000\000\000\000\324\001\000\000chP"
 587      00000000 
 587      D4010000 
 587      636850
 588 012a 6F6F6C41 		.ascii	"oolAlloc\000\000\002\000\000\000\000\000\000\000\000"
 588      6C6C6F63 
 588      00000200 
 588      00000000 
 588      000000
 589 013d 00D90100 		.ascii	"\000\331\001\000\000chPoolLoadArray\000\000\002\000"
 589      00636850 
 589      6F6F6C4C 
 589      6F616441 
 589      72726179 
 590 0155 00000000 		.ascii	"\000\000\000\000\000\000\000\000\335\001\000\000"
 590      00000000 
 590      DD010000 
 591              		.text
 592              		.section	.gnu.lto_.opts,"",%progbits
 593 0000 272D6D63 		.ascii	"'-mcpu=cortex-m4' '-mno-thumb-interwork' '-mthumb' "
 593      70753D63 
 593      6F727465 
 593      782D6D34 
 593      2720272D 
ARM GAS  /tmp/cc8XlF10.s 			page 47


 594 0033 272D6767 		.ascii	"'-ggdb' '-O2' '-fomit-frame-pointer' '-falign-funct"
 594      64622720 
 594      272D4F32 
 594      2720272D 
 594      666F6D69 
 595 0066 696F6E73 		.ascii	"ions=16' '-ffunction-sections' '-fdata-sections' '-"
 595      3D313627 
 595      20272D66 
 595      66756E63 
 595      74696F6E 
 596 0099 666E6F2D 		.ascii	"fno-common' '-flto'\000"
 596      636F6D6D 
 596      6F6E2720 
 596      272D666C 
 596      746F2700 
 597              		.text
 598              		.cfi_sections	.debug_frame
 599              		.section	.text.null_provider,"ax",%progbits
 600              		.align	2
 601              		.p2align 4,,15
 602              		.thumb
 603              		.thumb_func
 604              		.type	null_provider, %function
 605              	null_provider:
 606              	.LFB270:
 607              		.file 1 "../ChibiOS/test/rt/source/test/test_sequence_009.c"
 608              		.loc 1 61 0
 609              		.cfi_startproc
 610              		@ args = 0, pretend = 0, frame = 0
 611              		@ frame_needed = 0, uses_anonymous_args = 0
 612              		@ link register save eliminated.
 613              	.LVL0:
 614              		.loc 1 67 0
 615 0000 0020     		movs	r0, #0
 616              	.LVL1:
 617 0002 7047     		bx	lr
 618              		.cfi_endproc
 619              	.LFE270:
 620              		.size	null_provider, .-null_provider
 621 0004 AFF30080 		.section	.text.test_009_003_execute,"ax",%progbits
 621      AFF30080 
 621      AFF30080 
 622              		.align	2
 623              		.p2align 4,,15
 624              		.thumb
 625              		.thumb_func
 626              		.type	test_009_003_execute, %function
 627              	test_009_003_execute:
 628              	.LFB276:
 629              		.loc 1 260 0
 630              		.cfi_startproc
 631              		@ args = 0, pretend = 0, frame = 0
 632              		@ frame_needed = 0, uses_anonymous_args = 0
 633 0000 08B5     		push	{r3, lr}
 634              		.cfi_def_cfa_offset 8
 635              		.cfi_offset 3, -8
 636              		.cfi_offset 14, -4
ARM GAS  /tmp/cc8XlF10.s 			page 48


 637              		.loc 1 264 0
 638 0002 084B     		ldr	r3, .L3
 639              		.loc 1 266 0
 640 0004 0848     		ldr	r0, .L3+4
 641              		.loc 1 264 0
 642 0006 0122     		movs	r2, #1
 643              		.loc 1 266 0
 644 0008 4FF47A71 		mov	r1, #1000
 645              		.loc 1 264 0
 646 000c 1A60     		str	r2, [r3]
 647              		.loc 1 266 0
 648 000e FFF7FEFF 		bl	chGuardedPoolAllocTimeout
 649              	.LVL2:
 650 0012 D0F10100 		rsbs	r0, r0, #1
 651 0016 0549     		ldr	r1, .L3+8
 652 0018 38BF     		it	cc
 653 001a 0020     		movcc	r0, #0
 654              		.loc 1 268 0
 655 001c BDE80840 		pop	{r3, lr}
 656              		.loc 1 266 0
 657 0020 FFF7FEBF 		b	_test_assert
 658              	.LVL3:
 659              	.L4:
 660              		.align	2
 661              	.L3:
 662 0024 00000000 		.word	test_step
 663 0028 00000000 		.word	.LANCHOR0
 664 002c 00000000 		.word	.LC0
 665              		.cfi_endproc
 666              	.LFE276:
 667              		.size	test_009_003_execute, .-test_009_003_execute
 668              		.section	.text.test_009_003_setup,"ax",%progbits
 669              		.align	2
 670              		.p2align 4,,15
 671              		.thumb
 672              		.thumb_func
 673              		.type	test_009_003_setup, %function
 674              	test_009_003_setup:
 675              	.LFB275:
 676              		.loc 1 256 0
 677              		.cfi_startproc
 678              		@ args = 0, pretend = 0, frame = 0
 679              		@ frame_needed = 0, uses_anonymous_args = 0
 680              		@ link register save eliminated.
 681              		.loc 1 257 0
 682 0000 0148     		ldr	r0, .L6
 683 0002 0421     		movs	r1, #4
 684 0004 FFF7FEBF 		b	chGuardedPoolObjectInit
 685              	.LVL4:
 686              	.L7:
 687              		.align	2
 688              	.L6:
 689 0008 00000000 		.word	.LANCHOR0
 690              		.cfi_endproc
 691              	.LFE275:
 692              		.size	test_009_003_setup, .-test_009_003_setup
 693 000c AFF30080 		.section	.text.test_009_002_setup,"ax",%progbits
ARM GAS  /tmp/cc8XlF10.s 			page 49


 694              		.align	2
 695              		.p2align 4,,15
 696              		.thumb
 697              		.thumb_func
 698              		.type	test_009_002_setup, %function
 699              	test_009_002_setup:
 700              	.LFB273:
 701              		.loc 1 179 0
 702              		.cfi_startproc
 703              		@ args = 0, pretend = 0, frame = 0
 704              		@ frame_needed = 0, uses_anonymous_args = 0
 705              		@ link register save eliminated.
 706              		.loc 1 180 0
 707 0000 0148     		ldr	r0, .L9
 708 0002 0421     		movs	r1, #4
 709 0004 FFF7FEBF 		b	chGuardedPoolObjectInit
 710              	.LVL5:
 711              	.L10:
 712              		.align	2
 713              	.L9:
 714 0008 00000000 		.word	.LANCHOR0
 715              		.cfi_endproc
 716              	.LFE273:
 717              		.size	test_009_002_setup, .-test_009_002_setup
 718 000c AFF30080 		.section	.text.test_009_001_setup,"ax",%progbits
 719              		.align	2
 720              		.p2align 4,,15
 721              		.thumb
 722              		.thumb_func
 723              		.type	test_009_001_setup, %function
 724              	test_009_001_setup:
 725              	.LFB271:
 726              		.loc 1 92 0
 727              		.cfi_startproc
 728              		@ args = 0, pretend = 0, frame = 0
 729              		@ frame_needed = 0, uses_anonymous_args = 0
 730              		@ link register save eliminated.
 731              		.loc 1 93 0
 732 0000 0248     		ldr	r0, .L12
 733 0002 0421     		movs	r1, #4
 734 0004 0022     		movs	r2, #0
 735 0006 FFF7FEBF 		b	chPoolObjectInit
 736              	.LVL6:
 737              	.L13:
 738 000a 00BF     		.align	2
 739              	.L12:
 740 000c 00000000 		.word	.LANCHOR1
 741              		.cfi_endproc
 742              	.LFE271:
 743              		.size	test_009_001_setup, .-test_009_001_setup
 744              		.section	.text.test_009_002_execute,"ax",%progbits
 745              		.align	2
 746              		.p2align 4,,15
 747              		.thumb
 748              		.thumb_func
 749              		.type	test_009_002_execute, %function
 750              	test_009_002_execute:
ARM GAS  /tmp/cc8XlF10.s 			page 50


 751              	.LFB274:
 752              		.loc 1 183 0
 753              		.cfi_startproc
 754              		@ args = 0, pretend = 0, frame = 0
 755              		@ frame_needed = 0, uses_anonymous_args = 0
 756 0000 F8B5     		push	{r3, r4, r5, r6, r7, lr}
 757              		.cfi_def_cfa_offset 24
 758              		.cfi_offset 3, -24
 759              		.cfi_offset 4, -20
 760              		.cfi_offset 5, -16
 761              		.cfi_offset 6, -12
 762              		.cfi_offset 7, -8
 763              		.cfi_offset 14, -4
 764              		.loc 1 188 0
 765 0002 2A4D     		ldr	r5, .L25
 766              		.loc 1 190 0
 767 0004 2A48     		ldr	r0, .L25+4
 768 0006 2B49     		ldr	r1, .L25+8
 769              		.loc 1 188 0
 770 0008 0123     		movs	r3, #1
 771              		.loc 1 190 0
 772 000a 0422     		movs	r2, #4
 773              		.loc 1 188 0
 774 000c 2B60     		str	r3, [r5]
 775              		.loc 1 190 0
 776 000e FFF7FEFF 		bl	chGuardedPoolLoadArray
 777              	.LVL7:
 778              		.loc 1 194 0
 779 0012 0223     		movs	r3, #2
 780 0014 2B60     		str	r3, [r5]
 781              	.LVL8:
 782 0016 0424     		movs	r4, #4
 783              	.LVL9:
 784              	.L18:
 785              		.loc 1 197 0
 786 0018 0021     		movs	r1, #0
 787 001a 2548     		ldr	r0, .L25+4
 788 001c FFF7FEFF 		bl	chGuardedPoolAllocTimeout
 789              	.LVL10:
 790 0020 0030     		adds	r0, r0, #0
 791 0022 18BF     		it	ne
 792 0024 0120     		movne	r0, #1
 793 0026 2449     		ldr	r1, .L25+12
 794 0028 FFF7FEFF 		bl	_test_assert
 795              	.LVL11:
 796 002c 0028     		cmp	r0, #0
 797 002e 3BD1     		bne	.L14
 798              		.loc 1 196 0
 799 0030 013C     		subs	r4, r4, #1
 800              	.LVL12:
 801 0032 F1D1     		bne	.L18
 802              		.loc 1 203 0
 803 0034 2146     		mov	r1, r4
 804              		.loc 1 201 0
 805 0036 0323     		movs	r3, #3
 806              		.loc 1 203 0
 807 0038 1D48     		ldr	r0, .L25+4
ARM GAS  /tmp/cc8XlF10.s 			page 51


 808              		.loc 1 201 0
 809 003a 2B60     		str	r3, [r5]
 810              		.loc 1 203 0
 811 003c FFF7FEFF 		bl	chGuardedPoolAllocTimeout
 812              	.LVL13:
 813 0040 D0F10100 		rsbs	r0, r0, #1
 814 0044 38BF     		it	cc
 815 0046 0020     		movcc	r0, #0
 816 0048 1C49     		ldr	r1, .L25+16
 817              		.loc 1 201 0
 818 004a 184F     		ldr	r7, .L25
 819              		.loc 1 203 0
 820 004c FFF7FEFF 		bl	_test_assert
 821              	.LVL14:
 822 0050 50BB     		cbnz	r0, .L14
 823 0052 184C     		ldr	r4, .L25+8
 824              	.LVL15:
 825              	.LBB4:
 826              	.LBB5:
 827              		.loc 1 208 0
 828 0054 0423     		movs	r3, #4
 829 0056 04F11006 		add	r6, r4, #16
 830 005a 3B60     		str	r3, [r7]
 831              	.LVL16:
 832              	.L21:
 833              		.loc 1 211 0
 834 005c 2146     		mov	r1, r4
 835 005e 1448     		ldr	r0, .L25+4
 836 0060 0434     		adds	r4, r4, #4
 837 0062 FFF7FEFF 		bl	chGuardedPoolFree
 838              	.LVL17:
 839              		.loc 1 210 0
 840 0066 B442     		cmp	r4, r6
 841 0068 F8D1     		bne	.L21
 842              		.loc 1 216 0
 843 006a 0523     		movs	r3, #5
 844 006c 2B60     		str	r3, [r5]
 845              	.LVL18:
 846 006e 0424     		movs	r4, #4
 847              	.LVL19:
 848              	.L23:
 849              		.loc 1 219 0
 850 0070 0021     		movs	r1, #0
 851 0072 0F48     		ldr	r0, .L25+4
 852 0074 FFF7FEFF 		bl	chGuardedPoolAllocTimeout
 853              	.LVL20:
 854 0078 0030     		adds	r0, r0, #0
 855 007a 18BF     		it	ne
 856 007c 0120     		movne	r0, #1
 857 007e 0E49     		ldr	r1, .L25+12
 858 0080 FFF7FEFF 		bl	_test_assert
 859              	.LVL21:
 860 0084 80B9     		cbnz	r0, .L14
 861              		.loc 1 218 0
 862 0086 013C     		subs	r4, r4, #1
 863              	.LVL22:
 864 0088 F2D1     		bne	.L23
ARM GAS  /tmp/cc8XlF10.s 			page 52


 865              		.loc 1 225 0
 866 008a 2146     		mov	r1, r4
 867              		.loc 1 223 0
 868 008c 0623     		movs	r3, #6
 869              		.loc 1 225 0
 870 008e 0848     		ldr	r0, .L25+4
 871              		.loc 1 223 0
 872 0090 2B60     		str	r3, [r5]
 873              		.loc 1 225 0
 874 0092 FFF7FEFF 		bl	chGuardedPoolAllocTimeout
 875              	.LVL23:
 876 0096 D0F10100 		rsbs	r0, r0, #1
 877 009a 0849     		ldr	r1, .L25+16
 878 009c 38BF     		it	cc
 879 009e 0020     		movcc	r0, #0
 880              	.LBE5:
 881              	.LBE4:
 882              		.loc 1 227 0
 883 00a0 BDE8F840 		pop	{r3, r4, r5, r6, r7, lr}
 884              	.LVL24:
 885              	.LBB7:
 886              	.LBB6:
 887              		.loc 1 225 0
 888 00a4 FFF7FEBF 		b	_test_assert
 889              	.LVL25:
 890              	.L14:
 891 00a8 F8BD     		pop	{r3, r4, r5, r6, r7, pc}
 892              	.L26:
 893 00aa 00BF     		.align	2
 894              	.L25:
 895 00ac 00000000 		.word	test_step
 896 00b0 00000000 		.word	.LANCHOR0
 897 00b4 00000000 		.word	.LANCHOR2
 898 00b8 10000000 		.word	.LC1
 899 00bc 00000000 		.word	.LC0
 900              	.LBE6:
 901              	.LBE7:
 902              		.cfi_endproc
 903              	.LFE274:
 904              		.size	test_009_002_execute, .-test_009_002_execute
 905              		.section	.text.test_009_001_execute,"ax",%progbits
 906              		.align	2
 907              		.p2align 4,,15
 908              		.thumb
 909              		.thumb_func
 910              		.type	test_009_001_execute, %function
 911              	test_009_001_execute:
 912              	.LFB272:
 913              		.loc 1 96 0
 914              		.cfi_startproc
 915              		@ args = 0, pretend = 0, frame = 0
 916              		@ frame_needed = 0, uses_anonymous_args = 0
 917 0000 F8B5     		push	{r3, r4, r5, r6, r7, lr}
 918              		.cfi_def_cfa_offset 24
 919              		.cfi_offset 3, -24
 920              		.cfi_offset 4, -20
 921              		.cfi_offset 5, -16
ARM GAS  /tmp/cc8XlF10.s 			page 53


 922              		.cfi_offset 6, -12
 923              		.cfi_offset 7, -8
 924              		.cfi_offset 14, -4
 925              		.loc 1 100 0
 926 0002 314D     		ldr	r5, .L38
 927              		.loc 1 102 0
 928 0004 3148     		ldr	r0, .L38+4
 929 0006 3249     		ldr	r1, .L38+8
 930              		.loc 1 100 0
 931 0008 0123     		movs	r3, #1
 932              		.loc 1 102 0
 933 000a 0422     		movs	r2, #4
 934              		.loc 1 100 0
 935 000c 2B60     		str	r3, [r5]
 936              		.loc 1 102 0
 937 000e FFF7FEFF 		bl	chPoolLoadArray
 938              	.LVL26:
 939              		.loc 1 106 0
 940 0012 0223     		movs	r3, #2
 941 0014 2B60     		str	r3, [r5]
 942              	.LVL27:
 943 0016 0424     		movs	r4, #4
 944              	.LVL28:
 945              	.L31:
 946              		.loc 1 109 0
 947 0018 2C48     		ldr	r0, .L38+4
 948 001a FFF7FEFF 		bl	chPoolAlloc
 949              	.LVL29:
 950 001e 0030     		adds	r0, r0, #0
 951 0020 18BF     		it	ne
 952 0022 0120     		movne	r0, #1
 953 0024 2B49     		ldr	r1, .L38+12
 954 0026 FFF7FEFF 		bl	_test_assert
 955              	.LVL30:
 956 002a 0028     		cmp	r0, #0
 957 002c 38D1     		bne	.L27
 958              		.loc 1 108 0
 959 002e 013C     		subs	r4, r4, #1
 960              	.LVL31:
 961 0030 F2D1     		bne	.L31
 962              		.loc 1 113 0
 963 0032 0323     		movs	r3, #3
 964              		.loc 1 115 0
 965 0034 2548     		ldr	r0, .L38+4
 966              		.loc 1 113 0
 967 0036 2B60     		str	r3, [r5]
 968              		.loc 1 115 0
 969 0038 FFF7FEFF 		bl	chPoolAlloc
 970              	.LVL32:
 971 003c D0F10100 		rsbs	r0, r0, #1
 972 0040 38BF     		it	cc
 973 0042 0020     		movcc	r0, #0
 974 0044 2449     		ldr	r1, .L38+16
 975              		.loc 1 113 0
 976 0046 204F     		ldr	r7, .L38
 977              		.loc 1 115 0
 978 0048 FFF7FEFF 		bl	_test_assert
ARM GAS  /tmp/cc8XlF10.s 			page 54


 979              	.LVL33:
 980 004c 40BB     		cbnz	r0, .L27
 981 004e 204C     		ldr	r4, .L38+8
 982              	.LVL34:
 983              	.LBB10:
 984              	.LBB11:
 985              		.loc 1 119 0
 986 0050 0423     		movs	r3, #4
 987 0052 04F11006 		add	r6, r4, #16
 988 0056 3B60     		str	r3, [r7]
 989              	.LVL35:
 990              	.L34:
 991              		.loc 1 122 0
 992 0058 2146     		mov	r1, r4
 993 005a 1C48     		ldr	r0, .L38+4
 994 005c 0434     		adds	r4, r4, #4
 995 005e FFF7FEFF 		bl	chPoolFree
 996              	.LVL36:
 997              		.loc 1 121 0
 998 0062 B442     		cmp	r4, r6
 999 0064 F8D1     		bne	.L34
 1000              		.loc 1 126 0
 1001 0066 0523     		movs	r3, #5
 1002 0068 2B60     		str	r3, [r5]
 1003              	.LVL37:
 1004 006a 0424     		movs	r4, #4
 1005              	.LVL38:
 1006              	.L36:
 1007              		.loc 1 129 0
 1008 006c 1748     		ldr	r0, .L38+4
 1009 006e FFF7FEFF 		bl	chPoolAlloc
 1010              	.LVL39:
 1011 0072 0030     		adds	r0, r0, #0
 1012 0074 18BF     		it	ne
 1013 0076 0120     		movne	r0, #1
 1014 0078 1649     		ldr	r1, .L38+12
 1015 007a FFF7FEFF 		bl	_test_assert
 1016              	.LVL40:
 1017 007e 78B9     		cbnz	r0, .L27
 1018              		.loc 1 128 0
 1019 0080 013C     		subs	r4, r4, #1
 1020              	.LVL41:
 1021 0082 F3D1     		bne	.L36
 1022              		.loc 1 133 0
 1023 0084 0623     		movs	r3, #6
 1024              		.loc 1 135 0
 1025 0086 1148     		ldr	r0, .L38+4
 1026              		.loc 1 133 0
 1027 0088 2B60     		str	r3, [r5]
 1028              		.loc 1 135 0
 1029 008a FFF7FEFF 		bl	chPoolAlloc
 1030              	.LVL42:
 1031 008e D0F10100 		rsbs	r0, r0, #1
 1032 0092 38BF     		it	cc
 1033 0094 0020     		movcc	r0, #0
 1034 0096 1049     		ldr	r1, .L38+16
 1035              		.loc 1 133 0
ARM GAS  /tmp/cc8XlF10.s 			page 55


 1036 0098 0B4C     		ldr	r4, .L38
 1037              	.LVL43:
 1038              		.loc 1 135 0
 1039 009a FFF7FEFF 		bl	_test_assert
 1040              	.LVL44:
 1041 009e 00B1     		cbz	r0, .L37
 1042              	.L27:
 1043 00a0 F8BD     		pop	{r3, r4, r5, r6, r7, pc}
 1044              	.L37:
 1045              		.loc 1 140 0
 1046 00a2 0723     		movs	r3, #7
 1047              		.loc 1 142 0
 1048 00a4 0421     		movs	r1, #4
 1049 00a6 0948     		ldr	r0, .L38+4
 1050 00a8 0C4A     		ldr	r2, .L38+20
 1051              		.loc 1 140 0
 1052 00aa 2360     		str	r3, [r4]
 1053              		.loc 1 142 0
 1054 00ac FFF7FEFF 		bl	chPoolObjectInit
 1055              	.LVL45:
 1056              		.loc 1 143 0
 1057 00b0 0648     		ldr	r0, .L38+4
 1058 00b2 FFF7FEFF 		bl	chPoolAlloc
 1059              	.LVL46:
 1060 00b6 D0F10100 		rsbs	r0, r0, #1
 1061 00ba 0949     		ldr	r1, .L38+24
 1062 00bc 38BF     		it	cc
 1063 00be 0020     		movcc	r0, #0
 1064              	.LBE11:
 1065              	.LBE10:
 1066              		.loc 1 145 0
 1067 00c0 BDE8F840 		pop	{r3, r4, r5, r6, r7, lr}
 1068              	.LBB13:
 1069              	.LBB12:
 1070              		.loc 1 143 0
 1071 00c4 FFF7FEBF 		b	_test_assert
 1072              	.LVL47:
 1073              	.L39:
 1074              		.align	2
 1075              	.L38:
 1076 00c8 00000000 		.word	test_step
 1077 00cc 00000000 		.word	.LANCHOR1
 1078 00d0 00000000 		.word	.LANCHOR2
 1079 00d4 10000000 		.word	.LC1
 1080 00d8 00000000 		.word	.LC0
 1081 00dc 00000000 		.word	null_provider
 1082 00e0 1C000000 		.word	.LC2
 1083              	.LBE12:
 1084              	.LBE13:
 1085              		.cfi_endproc
 1086              	.LFE272:
 1087              		.size	test_009_001_execute, .-test_009_001_execute
 1088              		.global	test_sequence_009
 1089 00e4 AFF30080 		.section	.data.gmp1,"aw",%progbits
 1089      AFF30080 
 1089      AFF30080 
 1090              		.align	2
ARM GAS  /tmp/cc8XlF10.s 			page 56


 1091              		.set	.LANCHOR0,. + 0
 1092              		.type	gmp1, %object
 1093              		.size	gmp1, 24
 1094              	gmp1:
 1095 0000 00000000 		.word	gmp1
 1096 0004 00000000 		.word	gmp1
 1097 0008 00000000 		.word	0
 1098 000c 00000000 		.word	0
 1099 0010 04000000 		.word	4
 1100 0014 00000000 		.word	0
 1101              		.section	.rodata.test_sequence_009,"a",%progbits
 1102              		.align	2
 1103              		.type	test_sequence_009, %object
 1104              		.size	test_sequence_009, 16
 1105              	test_sequence_009:
 1106 0000 00000000 		.word	test_009_001
 1107 0004 00000000 		.word	test_009_002
 1108 0008 00000000 		.word	test_009_003
 1109 000c 00000000 		.word	0
 1110              		.section	.bss.objects,"aw",%nobits
 1111              		.align	2
 1112              		.set	.LANCHOR2,. + 0
 1113              		.type	objects, %object
 1114              		.size	objects, 16
 1115              	objects:
 1116 0000 00000000 		.space	16
 1116      00000000 
 1116      00000000 
 1116      00000000 
 1117              		.section	.rodata.test_009_001,"a",%progbits
 1118              		.align	2
 1119              		.type	test_009_001, %object
 1120              		.size	test_009_001, 16
 1121              	test_009_001:
 1122 0000 94000000 		.word	.LC5
 1123 0004 00000000 		.word	test_009_001_setup
 1124 0008 00000000 		.word	0
 1125 000c 00000000 		.word	test_009_001_execute
 1126              		.section	.rodata.test_009_002,"a",%progbits
 1127              		.align	2
 1128              		.type	test_009_002, %object
 1129              		.size	test_009_002, 16
 1130              	test_009_002:
 1131 0000 58000000 		.word	.LC4
 1132 0004 00000000 		.word	test_009_002_setup
 1133 0008 00000000 		.word	0
 1134 000c 00000000 		.word	test_009_002_execute
 1135              		.section	.rodata.test_009_003,"a",%progbits
 1136              		.align	2
 1137              		.type	test_009_003, %object
 1138              		.size	test_009_003, 16
 1139              	test_009_003:
 1140 0000 38000000 		.word	.LC3
 1141 0004 00000000 		.word	test_009_003_setup
 1142 0008 00000000 		.word	0
 1143 000c 00000000 		.word	test_009_003_execute
 1144              		.section	.rodata.str1.4,"aMS",%progbits,1
ARM GAS  /tmp/cc8XlF10.s 			page 57


 1145              		.align	2
 1146              	.LC0:
 1147 0000 6C697374 		.ascii	"list not empty\000"
 1147      206E6F74 
 1147      20656D70 
 1147      747900
 1148 000f 00       		.space	1
 1149              	.LC1:
 1150 0010 6C697374 		.ascii	"list empty\000"
 1150      20656D70 
 1150      747900
 1151 001b 00       		.space	1
 1152              	.LC2:
 1153 001c 70726F76 		.ascii	"provider returned memory\000"
 1153      69646572 
 1153      20726574 
 1153      75726E65 
 1153      64206D65 
 1154 0035 000000   		.space	3
 1155              	.LC3:
 1156 0038 47756172 		.ascii	"Guarded Memory Pools timeout\000"
 1156      64656420 
 1156      4D656D6F 
 1156      72792050 
 1156      6F6F6C73 
 1157 0055 000000   		.space	3
 1158              	.LC4:
 1159 0058 4C6F6164 		.ascii	"Loading and emptying a guarded memory pool without "
 1159      696E6720 
 1159      616E6420 
 1159      656D7074 
 1159      79696E67 
 1160 008b 77616974 		.ascii	"waiting\000"
 1160      696E6700 
 1161 0093 00       		.space	1
 1162              	.LC5:
 1163 0094 4C6F6164 		.ascii	"Loading and emptying a memory pool\000"
 1163      696E6720 
 1163      616E6420 
 1163      656D7074 
 1163      79696E67 
 1164 00b7 00       		.section	.data.mp1,"aw",%progbits
 1165              		.align	2
 1166              		.set	.LANCHOR1,. + 0
 1167              		.type	mp1, %object
 1168              		.size	mp1, 12
 1169              	mp1:
 1170 0000 00000000 		.word	0
 1171 0004 04000000 		.word	4
 1172 0008 00000000 		.word	0
 1173              		.text
 1174              	.Letext0:
 1175              		.file 2 "/nfs/nfs5/home/research/hardware/arm2/gcc-arm-embedded/gcc-arm-none-eabi-4_8-2014q2/lib/g
 1176              		.file 3 "/nfs/nfs5/home/research/hardware/arm2/gcc-arm-embedded/gcc-arm-none-eabi-4_8-2014q2/arm-n
 1177              		.file 4 "/nfs/nfs5/home/research/hardware/arm2/gcc-arm-embedded/gcc-arm-none-eabi-4_8-2014q2/arm-n
 1178              		.file 5 "../ChibiOS/os/common/ports/ARMCMx/compilers/GCC/chtypes.h"
 1179              		.file 6 "../ChibiOS/os/rt/include/chsystypes.h"
ARM GAS  /tmp/cc8XlF10.s 			page 58


 1180              		.file 7 "../ChibiOS/os/rt/include/chschd.h"
 1181              		.file 8 "../ChibiOS/os/common/ports/ARMCMx/chcore.h"
 1182              		.file 9 "../ChibiOS/os/common/ports/ARMCMx/chcore_v7m.h"
 1183              		.file 10 "../ChibiOS/os/rt/include/chtm.h"
 1184              		.file 11 "../ChibiOS/os/rt/include/chsem.h"
 1185              		.file 12 "../ChibiOS/os/rt/include/chmtx.h"
 1186              		.file 13 "../ChibiOS/os/common/oslib/include/chmemcore.h"
 1187              		.file 14 "../ChibiOS/os/common/oslib/include/chmempools.h"
 1188              		.file 15 "../ChibiOS/test/lib/ch_test.h"
 1189              		.file 16 "../ChibiOS/os/common/ext/CMSIS/include/core_cm4.h"